###############################################################################
#                                                                             #
# IAR C/C++ Compiler V8.20.2.41139 for 8051             01/Jan/2016  15:50:47 #
# Copyright 2004-2013 IAR Systems AB.                                         #
#                                                                             #
#    Core               =  plain                                              #
#    Code model         =  banked                                             #
#    Data model         =  large                                              #
#    Calling convention =  xdata reentrant                                    #
#    Constant location  =  data_rom                                           #
#    Dptr setup         =  1,16                                               #
#                                                                             #
#    Source file        =  C:\Users\ArnoldWorkStation\Desktop\ZigbeeTest\Comp #
#                          onents\hal\target\CC2530EB\hal_timer.c             #
#    Command line       =  -f C:\Users\ArnoldWorkStation\Desktop\ZigbeeTest\P #
#                          rojects\zstack\Samples\SampleApp\CC2530DB\..\..\.. #
#                          \Tools\CC2530DB\f8wCoord.cfg (-DCPU32MHZ           #
#                          -DROOT=__near_func -DMAC_CFG_APP_PENDING_QUEUE=TRU #
#                          E -DZDO_COORDINATOR -DRTR_NWK -DBLINK_LEDS) -f     #
#                          C:\Users\ArnoldWorkStation\Desktop\ZigbeeTest\Proj #
#                          ects\zstack\Samples\SampleApp\CC2530DB\..\..\..\To #
#                          ols\CC2530DB\f8wConfig.cfg (-DSECURE=0             #
#                          -DZG_SECURE_DYNAMIC=0 -DREFLECTOR                  #
#                          -DDEFAULT_CHANLIST=0x00000800                      #
#                          -DZDAPP_CONFIG_PAN_ID=0xFFF1                       #
#                          -DNWK_START_DELAY=100 -DEXTENDED_JOINING_RANDOM_MA #
#                          SK=0x007F -DBEACON_REQUEST_DELAY=100               #
#                          -DBEACON_REQ_DELAY_MASK=0x00FF                     #
#                          -DROUTE_EXPIRY_TIME=30 -DAPSC_ACK_WAIT_DURATION_PO #
#                          LLED=3000 -DNWK_INDIRECT_MSG_TIMEOUT=7             #
#                          -DMAX_RREQ_ENTRIES=8 -DAPSC_MAX_FRAME_RETRIES=3    #
#                          -DNWK_MAX_DATA_RETRIES=2                           #
#                          -DMAX_POLL_FAILURE_RETRIES=2 -DMAX_BCAST=9         #
#                          -DAPS_MAX_GROUPS=16 -DMAX_RTG_ENTRIES=40           #
#                          -DNWK_MAX_BINDING_ENTRIES=4                        #
#                          -DMAX_BINDING_CLUSTER_IDS=4 "-DDEFAULT_KEY={0x01,  #
#                          0x03, 0x05, 0x07, 0x09, 0x0B, 0x0D, 0x0F, 0x00,    #
#                          0x02, 0x04, 0x06, 0x08, 0x0A, 0x0C, 0x0D}"         #
#                          -DMAC_MAX_FRAME_SIZE=116 "-DCONST=const __code"    #
#                          -DGENERIC=__generic -DRFD_RCVC_ALWAYS_ON=TRUE      #
#                          -DPOLL_RATE=1000 -DQUEUED_POLL_RATE=100            #
#                          -DRESPONSE_POLL_RATE=100) -DREJOIN_POLL_RATE=440   #
#                          C:\Users\ArnoldWorkStation\Desktop\ZigbeeTest\Comp #
#                          onents\hal\target\CC2530EB\hal_timer.c -D          #
#                          ZIGBEEPRO -D ZTOOL_P1 -D xMT_TASK -D xMT_SYS_FUNC  #
#                          -D xMT_ZDO_FUNC -D LCD_SUPPORTED=DEBUG -lC         #
#                          C:\Users\ArnoldWorkStation\Desktop\ZigbeeTest\Proj #
#                          ects\zstack\Samples\SampleApp\CC2530DB\PCCoordinat #
#                          orEBPro\List\ -lA C:\Users\ArnoldWorkStation\Deskt #
#                          op\ZigbeeTest\Projects\zstack\Samples\SampleApp\CC #
#                          2530DB\PCCoordinatorEBPro\List\ --diag_suppress    #
#                          Pe001,Pa010 -o C:\Users\ArnoldWorkStation\Desktop\ #
#                          ZigbeeTest\Projects\zstack\Samples\SampleApp\CC253 #
#                          0DB\PCCoordinatorEBPro\Obj\ -e --no_cse            #
#                          --no_unroll --no_inline --no_code_motion           #
#                          --no_tbaa --debug --core=plain --dptr=16,1         #
#                          --data_model=large --code_model=banked             #
#                          --calling_convention=xdata_reentrant               #
#                          --place_constants=data_rom --nr_virtual_regs 16    #
#                          -I C:\Users\ArnoldWorkStation\Desktop\ZigbeeTest\P #
#                          rojects\zstack\Samples\SampleApp\CC2530DB\ -I      #
#                          C:\Users\ArnoldWorkStation\Desktop\ZigbeeTest\Proj #
#                          ects\zstack\Samples\SampleApp\CC2530DB\..\SOURCE\  #
#                          -I C:\Users\ArnoldWorkStation\Desktop\ZigbeeTest\P #
#                          rojects\zstack\Samples\SampleApp\CC2530DB\..\..\.. #
#                          \ZMAIN\TI2530DB\ -I C:\Users\ArnoldWorkStation\Des #
#                          ktop\ZigbeeTest\Projects\zstack\Samples\SampleApp\ #
#                          CC2530DB\..\..\..\..\..\COMPONENTS\MT\ -I          #
#                          C:\Users\ArnoldWorkStation\Desktop\ZigbeeTest\Proj #
#                          ects\zstack\Samples\SampleApp\CC2530DB\..\..\..\.. #
#                          \..\COMPONENTS\HAL\INCLUDE\ -I                     #
#                          C:\Users\ArnoldWorkStation\Desktop\ZigbeeTest\Proj #
#                          ects\zstack\Samples\SampleApp\CC2530DB\..\..\..\.. #
#                          \..\COMPONENTS\HAL\TARGET\CC2530EB\ -I             #
#                          C:\Users\ArnoldWorkStation\Desktop\ZigbeeTest\Proj #
#                          ects\zstack\Samples\SampleApp\CC2530DB\..\..\..\.. #
#                          \..\COMPONENTS\OSAL\MCU\CCSOC\ -I                  #
#                          C:\Users\ArnoldWorkStation\Desktop\ZigbeeTest\Proj #
#                          ects\zstack\Samples\SampleApp\CC2530DB\..\..\..\.. #
#                          \..\COMPONENTS\OSAL\INCLUDE\ -I                    #
#                          C:\Users\ArnoldWorkStation\Desktop\ZigbeeTest\Proj #
#                          ects\zstack\Samples\SampleApp\CC2530DB\..\..\..\.. #
#                          \..\COMPONENTS\STACK\AF\ -I                        #
#                          C:\Users\ArnoldWorkStation\Desktop\ZigbeeTest\Proj #
#                          ects\zstack\Samples\SampleApp\CC2530DB\..\..\..\.. #
#                          \..\COMPONENTS\STACK\NWK\ -I                       #
#                          C:\Users\ArnoldWorkStation\Desktop\ZigbeeTest\Proj #
#                          ects\zstack\Samples\SampleApp\CC2530DB\..\..\..\.. #
#                          \..\COMPONENTS\STACK\SEC\ -I                       #
#                          C:\Users\ArnoldWorkStation\Desktop\ZigbeeTest\Proj #
#                          ects\zstack\Samples\SampleApp\CC2530DB\..\..\..\.. #
#                          \..\COMPONENTS\STACK\SAPI\ -I                      #
#                          C:\Users\ArnoldWorkStation\Desktop\ZigbeeTest\Proj #
#                          ects\zstack\Samples\SampleApp\CC2530DB\..\..\..\.. #
#                          \..\COMPONENTS\STACK\SYS\ -I                       #
#                          C:\Users\ArnoldWorkStation\Desktop\ZigbeeTest\Proj #
#                          ects\zstack\Samples\SampleApp\CC2530DB\..\..\..\.. #
#                          \..\COMPONENTS\STACK\ZDO\ -I                       #
#                          C:\Users\ArnoldWorkStation\Desktop\ZigbeeTest\Proj #
#                          ects\zstack\Samples\SampleApp\CC2530DB\..\..\..\.. #
#                          \..\COMPONENTS\ZMAC\F8W\ -I                        #
#                          C:\Users\ArnoldWorkStation\Desktop\ZigbeeTest\Proj #
#                          ects\zstack\Samples\SampleApp\CC2530DB\..\..\..\.. #
#                          \..\COMPONENTS\ZMAC\ -I C:\Users\ArnoldWorkStation #
#                          \Desktop\ZigbeeTest\Projects\zstack\Samples\Sample #
#                          App\CC2530DB\..\..\..\..\..\COMPONENTS\SERVICES\SA #
#                          DDR\ -I C:\Users\ArnoldWorkStation\Desktop\ZigbeeT #
#                          est\Projects\zstack\Samples\SampleApp\CC2530DB\..\ #
#                          ..\..\..\..\COMPONENTS\SERVICES\SDATA\ -I          #
#                          C:\Users\ArnoldWorkStation\Desktop\ZigbeeTest\Proj #
#                          ects\zstack\Samples\SampleApp\CC2530DB\..\..\..\.. #
#                          \..\COMPONENTS\MAC\INCLUDE\ -I                     #
#                          C:\Users\ArnoldWorkStation\Desktop\ZigbeeTest\Proj #
#                          ects\zstack\Samples\SampleApp\CC2530DB\..\..\..\.. #
#                          \..\COMPONENTS\MAC\HIGH_LEVEL\ -I                  #
#                          C:\Users\ArnoldWorkStation\Desktop\ZigbeeTest\Proj #
#                          ects\zstack\Samples\SampleApp\CC2530DB\..\..\..\.. #
#                          \..\COMPONENTS\MAC\LOW_LEVEL\srf04\ -I             #
#                          C:\Users\ArnoldWorkStation\Desktop\ZigbeeTest\Proj #
#                          ects\zstack\Samples\SampleApp\CC2530DB\..\..\..\.. #
#                          \..\COMPONENTS\MAC\LOW_LEVEL\srf04\SINGLE_CHIP\    #
#                          -On --require_prototypes                           #
#    List file          =  C:\Users\ArnoldWorkStation\Desktop\ZigbeeTest\Proj #
#                          ects\zstack\Samples\SampleApp\CC2530DB\PCCoordinat #
#                          orEBPro\List\hal_timer.lst                         #
#    Object file        =  C:\Users\ArnoldWorkStation\Desktop\ZigbeeTest\Proj #
#                          ects\zstack\Samples\SampleApp\CC2530DB\PCCoordinat #
#                          orEBPro\Obj\hal_timer.r51                          #
#                                                                             #
#                                                                             #
###############################################################################

C:\Users\ArnoldWorkStation\Desktop\ZigbeeTest\Components\hal\target\CC2530EB\hal_timer.c
      1          /**************************************************************************************************
      2            Filename:       hal_timer.c
      3            Revised:        $Date: 2009-03-12 16:25:22 -0700 (Thu, 12 Mar 2009) $
      4            Revision:       $Revision: 19404 $
      5          
      6            Description:   This file contains the interface to the Timer Service.
      7          
      8          
      9            Copyright 2006-2007 Texas Instruments Incorporated. All rights reserved.
     10          
     11            IMPORTANT: Your use of this Software is limited to those specific rights
     12            granted under the terms of a software license agreement between the user
     13            who downloaded the software, his/her employer (which must be your employer)
     14            and Texas Instruments Incorporated (the "License").  You may not use this
     15            Software unless you agree to abide by the terms of the License. The License
     16            limits your use, and you acknowledge, that the Software may not be modified,
     17            copied or distributed unless embedded on a Texas Instruments microcontroller
     18            or used solely and exclusively in conjunction with a Texas Instruments radio
     19            frequency transceiver, which is integrated into your product.  Other than for
     20            the foregoing purpose, you may not use, reproduce, copy, prepare derivative
     21            works of, modify, distribute, perform, display or sell this Software and/or
     22            its documentation for any purpose.
     23          
     24            YOU FURTHER ACKNOWLEDGE AND AGREE THAT THE SOFTWARE AND DOCUMENTATION ARE
     25            PROVIDED “AS IS” WITHOUT WARRANTY OF ANY KIND, EITHER EXPRESS OR IMPLIED,
     26            INCLUDING WITHOUT LIMITATION, ANY WARRANTY OF MERCHANTABILITY, TITLE,
     27            NON-INFRINGEMENT AND FITNESS FOR A PARTICULAR PURPOSE. IN NO EVENT SHALL
     28            TEXAS INSTRUMENTS OR ITS LICENSORS BE LIABLE OR OBLIGATED UNDER CONTRACT,
     29            NEGLIGENCE, STRICT LIABILITY, CONTRIBUTION, BREACH OF WARRANTY, OR OTHER
     30            LEGAL EQUITABLE THEORY ANY DIRECT OR INDIRECT DAMAGES OR EXPENSES
     31            INCLUDING BUT NOT LIMITED TO ANY INCIDENTAL, SPECIAL, INDIRECT, PUNITIVE
     32            OR CONSEQUENTIAL DAMAGES, LOST PROFITS OR LOST DATA, COST OF PROCUREMENT
     33            OF SUBSTITUTE GOODS, TECHNOLOGY, SERVICES, OR ANY CLAIMS BY THIRD PARTIES
     34            (INCLUDING BUT NOT LIMITED TO ANY DEFENSE THEREOF), OR OTHER SIMILAR COSTS.
     35          
     36            Should you have any questions regarding your right to use this Software,
     37            contact Texas Instruments Incorporated at www.TI.com.
     38          **************************************************************************************************/
     39          /*********************************************************************
     40           NOTE: The following mapping is done between the logical timer
     41                 names defined in HAL_TIMER.H and the physical HW timer.
     42          
     43                 HAL_TIMER_0 --> HW Timer 3  (8-bits)
     44                 HAL_TIMER_2 --> HW Timer 4  (8-bits)
     45                 HAL_TIMER_3 --> HW Timer 1  (16-bits)
     46          
     47           NOTE: The timer code assumes only one channel, CHANNEL 0, is used
     48                 for each timer.  There is currently no support for other
     49                 channels.
     50          
     51           NOTE: Only Output Compare Mode is supported.  There is no provision
     52                 to support Input Capture Mode.
     53          
     54           NOTE: There is no support to map the output of the timers to a
     55                 physical I/O pin
     56          
     57          *********************************************************************/
     58          /*********************************************************************
     59           * INCLUDES
     60           */
     61          #include  "hal_mcu.h"

   \                                 In  segment SFR_AN, at 0xb8
   \   union <unnamed> volatile __sfr _A_IEN1
   \                     _A_IEN1:
   \   000000                DS 1

   \                                 In  segment SFR_AN, at 0xcb
   \   unsigned char volatile __sfr T3CTL
   \                     T3CTL:
   \   000000                DS 1

   \                                 In  segment SFR_AN, at 0xcc
   \   unsigned char volatile __sfr T3CCTL0
   \                     T3CCTL0:
   \   000000                DS 1

   \                                 In  segment SFR_AN, at 0xce
   \   unsigned char volatile __sfr T3CCTL1
   \                     T3CCTL1:
   \   000000                DS 1

   \                                 In  segment SFR_AN, at 0xd8
   \   union <unnamed> volatile __sfr _A_TIMIF
   \                     _A_TIMIF:
   \   000000                DS 1

   \                                 In  segment SFR_AN, at 0xe4
   \   unsigned char volatile __sfr T1CTL
   \                     T1CTL:
   \   000000                DS 1

   \                                 In  segment SFR_AN, at 0xe5
   \   unsigned char volatile __sfr T1CCTL0
   \                     T1CCTL0:
   \   000000                DS 1

   \                                 In  segment SFR_AN, at 0xe6
   \   unsigned char volatile __sfr T1CCTL1
   \                     T1CCTL1:
   \   000000                DS 1

   \                                 In  segment SFR_AN, at 0xe7
   \   unsigned char volatile __sfr T1CCTL2
   \                     T1CCTL2:
   \   000000                DS 1

   \                                 In  segment SFR_AN, at 0xeb
   \   unsigned char volatile __sfr T4CTL
   \                     T4CTL:
   \   000000                DS 1

   \                                 In  segment SFR_AN, at 0xec
   \   unsigned char volatile __sfr T4CCTL0
   \                     T4CCTL0:
   \   000000                DS 1

   \                                 In  segment SFR_AN, at 0xee
   \   unsigned char volatile __sfr T4CCTL1
   \                     T4CCTL1:
   \   000000                DS 1
     62          #include  "hal_defs.h"
     63          #include  "hal_types.h"
     64          #include  "hal_timer.h"
     65          
     66          /*********************************************************************
     67           * MACROS
     68           */
     69          
     70          /*********************************************************************
     71           * CONSTANTS
     72           */
     73          #define HW_TIMER_1        0x00
     74          #define HW_TIMER_3        0x01
     75          #define HW_TIMER_4        0x02
     76          #define HW_TIMER_INVALID  0x03
     77          #define HW_TIMER_MAX      0x03
     78          
     79          #define IEN1_T1IE     0x02    /* Timer1 Interrupt Enable */
     80          #define IEN1_T3IE     0x08    /* Timer3 Interrupt Enable */
     81          #define IEN1_T4IE     0x10    /* Timer4 Interrupt Enable */
     82          
     83          #define T1CTL_CH2IF   0x80
     84          #define T1CTL_CH1IF   0x40
     85          #define T1CTL_CH0IF   0x20
     86          #define T1CTL_OVFIF   0x10
     87          
     88          #define TIMIF_T1OVFIM 0x40
     89          #define TIMIF_T4CH1IF 0x20
     90          #define TIMIF_T4CH0IF 0x10
     91          #define TIMIF_T4OVFIF 0x08
     92          #define TIMIF_T3CH1IF 0x04
     93          #define TIMIF_T3CH0IF 0x02
     94          #define TIMIF_T3OVFIF 0x01
     95          
     96          #define T34CTL_OVFIM  0x80
     97          
     98          #define T134CCTL_IM         0x40    /* Interrupt Mask */
     99          #define T134CCTL_CMP_BITS   0x38    /* Bits[5:3] == CMP[2:0] */
    100          #define T134CCTL_MODE       0x04    /* Capture(0)/Compare(1) mode */
    101          #define T134CCTL_CAP_BITS   0x03    /* Bits[1:0] == CAP[1:0] */
    102          
    103          #define T134CCTL_CMP_OC     0x18    /* Set output on compare, clear at 0 */
    104          #define T134CCTL_CAP_RE     0x01    /* Set input capture on rising edge */
    105          
    106          /* Timer clock pre-scaler definitions for 16bit timer1 */
    107          #define HAL_TIMER1_16_TC_DIV1     0x00  /* No clock pre-scaling */
    108          #define HAL_TIMER1_16_TC_DIV8     0x04  /* Clock pre-scaled by 8 */
    109          #define HAL_TIMER1_16_TC_DIV32    0x08  /* Clock pre-scaled by 32 */
    110          #define HAL_TIMER1_16_TC_DIV128   0x0c  /* Clock pre-scaled by 128 */
    111          #define HAL_TIMER1_16_TC_BITS     0x0c  /* Bits 3:2 */
    112          
    113          /* Timer clock pre-scaler definitions for 8bit timer3 and timer4 */
    114          #define HAL_TIMER34_8_TC_DIV1     0x00  /* No clock pre-scaling */
    115          #define HAL_TIMER34_8_TC_DIV2     0x20  /* Clock pre-scaled by 2 */
    116          #define HAL_TIMER34_8_TC_DIV4     0x40  /* Clock pre-scaled by 4 */
    117          #define HAL_TIMER34_8_TC_DIV8     0x60  /* Clock pre-scaled by 8 */
    118          #define HAL_TIMER34_8_TC_DIV16    0x80  /* Clock pre-scaled by 16 */
    119          #define HAL_TIMER34_8_TC_DIV32    0xA0  /* Clock pre-scaled by 32 */
    120          #define HAL_TIMER34_8_TC_DIV64    0xC0  /* Clock pre-scaled by 64 */
    121          #define HAL_TIMER34_8_TC_DIV128   0xE0  /* Clock pre-scaled by 128 */
    122          #define HAL_TIMER34_8_TC_BITS     0xE0  /* Bits 7:5 */
    123          
    124          /* Operation Mode definitions */
    125          #define HAL_TIMER1_OPMODE_STOP      0x00  /* Free Running Mode, Count from 0 to Max */
    126          #define HAL_TIMER1_OPMODE_FREERUN   0x01  /* Free Running Mode, Count from 0 to Max */
    127          #define HAL_TIMER1_OPMODE_MODULO    0x02  /* Modulo Mode, Count from 0 to CompareValue */
    128          #define HAL_TIMER1_OPMODE_BITS      0x03  /* Bits 1:0 */
    129          
    130          #define HAL_TIMER34_START           0x10  /* Timer3 and Timer4 have separate Start bit */
    131          #define HAL_TIMER34_OPMODE_FREERUN  0x00  /* Free Running Mode, Count from 0 to Max */
    132          #define HAL_TIMER34_OPMODE_MODULO   0x02  /* Modulo Mode, Count from 0 to CompareValue */
    133          #define HAL_TIMER34_OPMODE_BITS     0x03  /* Bits 1:0 */
    134          
    135          #define HAL_TIMER_MODE_STOP         0x03
    136          
    137          /* Prescale settings */
    138          #define HAL_TIMER1_16_PRESCALE      HAL_TIMER1_16_TC_DIV128
    139          #define HAL_TIMER1_16_PRESCALE_VAL  128
    140          #define HAL_TIMER3_8_PRESCALE       HAL_TIMER34_8_TC_DIV128
    141          #define HAL_TIMER3_8_PRESCALE_VAL   128
    142          #define HAL_TIMER4_8_PRESCALE       HAL_TIMER34_8_TC_DIV128
    143          #define HAL_TIMER4_8_PRESCALE_VAL   128
    144          
    145          /* Clock settings */
    146          #define HAL_TIMER_16MHZ           16
    147          #define HAL_TIMER_32MHZ           32
    148          
    149          /* Default all timers to use channel 0 */
    150          #define TCHN_T1CCTL   &(X_T1CCTL0)
    151          #define TCHN_T1CCL    &(X_T1CC0L)
    152          #define TCHN_T1CCH    &(X_T1CC0H)
    153          #define TCNH_T1OVF    &(X_TIMIF)
    154          #define TCHN_T1OVFBIT TIMIF_T1OVFIM
    155          #define TCHN_T1INTBIT IEN1_T1IE
    156          
    157          #define TCHN_T3CCTL   &(X_T3CCTL0)
    158          #define TCHN_T3CCL    &(X_T3CC0)
    159          #define TCHN_T3CCH    &(X_T3CC0)
    160          #define TCNH_T3OVF    &(X_T3CTL)
    161          #define TCHN_T3OVFBIT T34CTL_OVFIM
    162          #define TCHN_T3INTBIT IEN1_T3IE
    163          
    164          #define TCHN_T4CCTL   &(X_T4CCTL0)
    165          #define TCHN_T4CCL    &(X_T4CC0)
    166          #define TCHN_T4CCH    &(X_T4CC0)
    167          #define TCNH_T4OVF    &(X_T4CTL)
    168          #define TCHN_T4OVFBIT T34CTL_OVFIM
    169          #define TCHN_T4INTBIT IEN1_T4IE
    170          
    171          /*********************************************************************
    172           * TYPEDEFS
    173           */
    174          typedef struct
    175          {
    176            bool configured;
    177            bool intEnable;
    178            uint8 opMode;
    179            uint8 channel;
    180            uint8 channelMode;
    181            uint8 prescale;
    182            uint8 prescaleVal;
    183            uint8 clock;
    184            halTimerCBack_t callBackFunc;
    185          } halTimerSettings_t;
    186          
    187          typedef struct
    188          {
    189            uint8 volatile XDATA *TxCCTL;
    190            uint8 volatile XDATA *TxCCH;
    191            uint8 volatile XDATA *TxCCL;
    192            uint8 volatile XDATA *TxOVF;
    193            uint8 ovfbit;
    194            uint8 intbit;
    195          } halTimerChannel_t;
    196          
    197          /*********************************************************************
    198           * GLOBAL VARIABLES
    199           */

   \                                 In  segment XDATA_Z, align 1, keep-with-next
    200          static halTimerSettings_t halTimerRecord[HW_TIMER_MAX];
   \                     halTimerRecord:
   \   000000                DS 30
   \   00001E                REQUIRE __INIT_XDATA_Z

   \                                 In  segment XDATA_Z, align 1, keep-with-next
    201          static halTimerChannel_t  halTimerChannel[HW_TIMER_MAX];
   \                     halTimerChannel:
   \   000000                DS 30
   \   00001E                REQUIRE __INIT_XDATA_Z
    202          
    203          /*********************************************************************
    204           * FUNCTIONS - External
    205           */
    206          
    207          /*********************************************************************
    208           * FUNCTIONS - Local
    209           */
    210          uint8 halTimerSetCount (uint8 cc2430id, uint32 timePerTick);
    211          uint8 halTimerSetPrescale (uint8 cc2430id, uint8 prescale);
    212          uint8 halTimerSetOpMode (uint8 cc2430id, uint8 opMode);
    213          uint8 halTimerSetChannelMode (uint8 cc2430id, uint8 channelMode);
    214          void halTimerSendCallBack (uint8 timerId, uint8 channel, uint8 channelMode);
    215          uint8 halTimerRemap (uint8 timerId);
    216          void halProcessTimer1 (void);
    217          void halProcessTimer3 (void);
    218          void halProcessTimer4 (void);
    219          
    220          
    221          /*********************************************************************
    222           * FUNCTIONS - API
    223           */
    224          
    225          /*********************************************************************
    226           * @fn      HalTimerInit
    227           *
    228           * @brief   Initialize Timer Service
    229           *
    230           * @param   None
    231           *
    232           * @return  None
    233           */

   \                                 In  segment BANKED_CODE, align 1, keep-with-next
    234          void HalTimerInit (void)
   \                     HalTimerInit:
    235          {
   \   000000   C082         PUSH    DPL
   \   000002   C083         PUSH    DPH
   \   000004                ; Saved register size: 2
   \   000004                ; Auto size: 0
    236            T1CCTL0 = 0;    /* Make sure interrupts are disabled */
   \   000004   75E500       MOV     0xe5,#0x0
    237            T1CCTL1 = 0;    /* Make sure interrupts are disabled */
   \   000007   75E600       MOV     0xe6,#0x0
    238            T1CCTL2 = 0;    /* Make sure interrupts are disabled */
   \   00000A   75E700       MOV     0xe7,#0x0
    239            T3CCTL0 = 0;    /* Make sure interrupts are disabled */
   \   00000D   75CC00       MOV     0xcc,#0x0
    240            T3CCTL1 = 0;    /* Make sure interrupts are disabled */
   \   000010   75CE00       MOV     0xce,#0x0
    241            T4CCTL0 = 0;    /* Make sure interrupts are disabled */
   \   000013   75EC00       MOV     0xec,#0x0
    242            T4CCTL1 = 0;    /* Make sure interrupts are disabled */
   \   000016   75EE00       MOV     0xee,#0x0
    243          
    244            /* Setup prescale & clock for timer0 */
    245            halTimerRecord[HW_TIMER_1].prescale    = HAL_TIMER1_16_PRESCALE;
   \   000019   90....       MOV     DPTR,#halTimerRecord + 5
   \   00001C   740C         MOV     A,#0xc
   \   00001E   F0           MOVX    @DPTR,A
    246            halTimerRecord[HW_TIMER_1].clock       = HAL_TIMER_32MHZ;
   \   00001F   90....       MOV     DPTR,#halTimerRecord + 7
   \   000022   7420         MOV     A,#0x20
   \   000024   F0           MOVX    @DPTR,A
    247            halTimerRecord[HW_TIMER_1].prescaleVal = HAL_TIMER1_16_PRESCALE_VAL;
   \   000025   90....       MOV     DPTR,#halTimerRecord + 6
   \   000028   7480         MOV     A,#-0x80
   \   00002A   F0           MOVX    @DPTR,A
    248          
    249            /* Setup prescale & clock for timer2 */
    250            halTimerRecord[HW_TIMER_3].prescale    = HAL_TIMER3_8_PRESCALE;
   \   00002B   90....       MOV     DPTR,#halTimerRecord + 15
   \   00002E   74E0         MOV     A,#-0x20
   \   000030   F0           MOVX    @DPTR,A
    251            halTimerRecord[HW_TIMER_3].clock       = HAL_TIMER_32MHZ;
   \   000031   90....       MOV     DPTR,#halTimerRecord + 17
   \   000034   7420         MOV     A,#0x20
   \   000036   F0           MOVX    @DPTR,A
    252            halTimerRecord[HW_TIMER_3].prescaleVal = HAL_TIMER3_8_PRESCALE_VAL;
   \   000037   90....       MOV     DPTR,#halTimerRecord + 16
   \   00003A   7480         MOV     A,#-0x80
   \   00003C   F0           MOVX    @DPTR,A
    253          
    254            /* Setup prescale & clock for timer3 */
    255            halTimerRecord[HW_TIMER_4].prescale    = HAL_TIMER4_8_PRESCALE;
   \   00003D   90....       MOV     DPTR,#halTimerRecord + 25
   \   000040   74E0         MOV     A,#-0x20
   \   000042   F0           MOVX    @DPTR,A
    256            halTimerRecord[HW_TIMER_4].clock       = HAL_TIMER_32MHZ;
   \   000043   90....       MOV     DPTR,#halTimerRecord + 27
   \   000046   7420         MOV     A,#0x20
   \   000048   F0           MOVX    @DPTR,A
    257            halTimerRecord[HW_TIMER_4].prescaleVal = HAL_TIMER4_8_PRESCALE_VAL;
   \   000049   90....       MOV     DPTR,#halTimerRecord + 26
   \   00004C   7480         MOV     A,#-0x80
   \   00004E   F0           MOVX    @DPTR,A
    258          
    259            /* Setup Timer1 Channel structure */
    260            halTimerChannel[HW_TIMER_1].TxCCTL =  TCHN_T1CCTL;
   \   00004F   90....       MOV     DPTR,#halTimerChannel
   \   000052   74E5         MOV     A,#-0x1b
   \   000054   F0           MOVX    @DPTR,A
   \   000055   A3           INC     DPTR
   \   000056   7470         MOV     A,#0x70
   \   000058   F0           MOVX    @DPTR,A
    261            halTimerChannel[HW_TIMER_1].TxCCL =   TCHN_T1CCL;
   \   000059   90....       MOV     DPTR,#halTimerChannel + 4
   \   00005C   74DA         MOV     A,#-0x26
   \   00005E   F0           MOVX    @DPTR,A
   \   00005F   A3           INC     DPTR
   \   000060   7470         MOV     A,#0x70
   \   000062   F0           MOVX    @DPTR,A
    262            halTimerChannel[HW_TIMER_1].TxCCH =   TCHN_T1CCH;
   \   000063   90....       MOV     DPTR,#halTimerChannel + 2
   \   000066   74DB         MOV     A,#-0x25
   \   000068   F0           MOVX    @DPTR,A
   \   000069   A3           INC     DPTR
   \   00006A   7470         MOV     A,#0x70
   \   00006C   F0           MOVX    @DPTR,A
    263            halTimerChannel[HW_TIMER_1].TxOVF =   TCNH_T1OVF;
   \   00006D   90....       MOV     DPTR,#halTimerChannel + 6
   \   000070   74D8         MOV     A,#-0x28
   \   000072   F0           MOVX    @DPTR,A
   \   000073   A3           INC     DPTR
   \   000074   7470         MOV     A,#0x70
   \   000076   F0           MOVX    @DPTR,A
    264            halTimerChannel[HW_TIMER_1].ovfbit =  TCHN_T1OVFBIT;
   \   000077   90....       MOV     DPTR,#halTimerChannel + 8
   \   00007A   7440         MOV     A,#0x40
   \   00007C   F0           MOVX    @DPTR,A
    265            halTimerChannel[HW_TIMER_1].intbit =  TCHN_T1INTBIT;
   \   00007D   90....       MOV     DPTR,#halTimerChannel + 9
   \   000080   7402         MOV     A,#0x2
   \   000082   F0           MOVX    @DPTR,A
    266          
    267            /* Setup Timer3 Channel structure */
    268            halTimerChannel[HW_TIMER_3].TxCCTL =  TCHN_T3CCTL;
   \   000083   90....       MOV     DPTR,#halTimerChannel + 10
   \   000086   74CC         MOV     A,#-0x34
   \   000088   F0           MOVX    @DPTR,A
   \   000089   A3           INC     DPTR
   \   00008A   7470         MOV     A,#0x70
   \   00008C   F0           MOVX    @DPTR,A
    269            halTimerChannel[HW_TIMER_3].TxCCL =   TCHN_T3CCL;
   \   00008D   90....       MOV     DPTR,#halTimerChannel + 14
   \   000090   74CD         MOV     A,#-0x33
   \   000092   F0           MOVX    @DPTR,A
   \   000093   A3           INC     DPTR
   \   000094   7470         MOV     A,#0x70
   \   000096   F0           MOVX    @DPTR,A
    270            halTimerChannel[HW_TIMER_3].TxCCH =   TCHN_T3CCH;
   \   000097   90....       MOV     DPTR,#halTimerChannel + 12
   \   00009A   74CD         MOV     A,#-0x33
   \   00009C   F0           MOVX    @DPTR,A
   \   00009D   A3           INC     DPTR
   \   00009E   7470         MOV     A,#0x70
   \   0000A0   F0           MOVX    @DPTR,A
    271            halTimerChannel[HW_TIMER_3].TxOVF =   TCNH_T3OVF;
   \   0000A1   90....       MOV     DPTR,#halTimerChannel + 16
   \   0000A4   74CB         MOV     A,#-0x35
   \   0000A6   F0           MOVX    @DPTR,A
   \   0000A7   A3           INC     DPTR
   \   0000A8   7470         MOV     A,#0x70
   \   0000AA   F0           MOVX    @DPTR,A
    272            halTimerChannel[HW_TIMER_3].ovfbit =  TCHN_T3OVFBIT;
   \   0000AB   90....       MOV     DPTR,#halTimerChannel + 18
   \   0000AE   7480         MOV     A,#-0x80
   \   0000B0   F0           MOVX    @DPTR,A
    273            halTimerChannel[HW_TIMER_3].intbit =  TCHN_T3INTBIT;
   \   0000B1   90....       MOV     DPTR,#halTimerChannel + 19
   \   0000B4   7408         MOV     A,#0x8
   \   0000B6   F0           MOVX    @DPTR,A
    274          
    275            /* Setup Timer4 Channel structure */
    276            halTimerChannel[HW_TIMER_4].TxCCTL =  TCHN_T4CCTL;
   \   0000B7   90....       MOV     DPTR,#halTimerChannel + 20
   \   0000BA   74EC         MOV     A,#-0x14
   \   0000BC   F0           MOVX    @DPTR,A
   \   0000BD   A3           INC     DPTR
   \   0000BE   7470         MOV     A,#0x70
   \   0000C0   F0           MOVX    @DPTR,A
    277            halTimerChannel[HW_TIMER_4].TxCCL =   TCHN_T4CCL;
   \   0000C1   90....       MOV     DPTR,#halTimerChannel + 24
   \   0000C4   74ED         MOV     A,#-0x13
   \   0000C6   F0           MOVX    @DPTR,A
   \   0000C7   A3           INC     DPTR
   \   0000C8   7470         MOV     A,#0x70
   \   0000CA   F0           MOVX    @DPTR,A
    278            halTimerChannel[HW_TIMER_4].TxCCH =   TCHN_T4CCH;
   \   0000CB   90....       MOV     DPTR,#halTimerChannel + 22
   \   0000CE   74ED         MOV     A,#-0x13
   \   0000D0   F0           MOVX    @DPTR,A
   \   0000D1   A3           INC     DPTR
   \   0000D2   7470         MOV     A,#0x70
   \   0000D4   F0           MOVX    @DPTR,A
    279            halTimerChannel[HW_TIMER_4].TxOVF =   TCNH_T4OVF;
   \   0000D5   90....       MOV     DPTR,#halTimerChannel + 26
   \   0000D8   74EB         MOV     A,#-0x15
   \   0000DA   F0           MOVX    @DPTR,A
   \   0000DB   A3           INC     DPTR
   \   0000DC   7470         MOV     A,#0x70
   \   0000DE   F0           MOVX    @DPTR,A
    280            halTimerChannel[HW_TIMER_4].ovfbit =  TCHN_T4OVFBIT;
   \   0000DF   90....       MOV     DPTR,#halTimerChannel + 28
   \   0000E2   7480         MOV     A,#-0x80
   \   0000E4   F0           MOVX    @DPTR,A
    281            halTimerChannel[HW_TIMER_4].intbit =  TCHN_T4INTBIT;
   \   0000E5   90....       MOV     DPTR,#halTimerChannel + 29
   \   0000E8   7410         MOV     A,#0x10
   \   0000EA   F0           MOVX    @DPTR,A
    282          }
   \   0000EB   D083         POP     DPH
   \   0000ED   D082         POP     DPL
   \   0000EF   02....       LJMP    ?BRET
   \   0000F2                REQUIRE T1CCTL0
   \   0000F2                REQUIRE T1CCTL1
   \   0000F2                REQUIRE T1CCTL2
   \   0000F2                REQUIRE T3CCTL0
   \   0000F2                REQUIRE T3CCTL1
   \   0000F2                REQUIRE T4CCTL0
   \   0000F2                REQUIRE T4CCTL1
    283          
    284          /***************************************************************************************************
    285           * @fn      HalTimerConfig
    286           *
    287           * @brief   Configure the Timer Serivce
    288           *
    289           * @param   timerId - Id of the timer
    290           *          opMode  - Operation mode
    291           *          channel - Channel where the counter operates on
    292           *          channelMode - Mode of that channel
    293           *          prescale - Prescale of the clock
    294           *          cBack - Pointer to the callback function
    295           *
    296           * @return  Status of the configuration
    297           ***************************************************************************************************/

   \                                 In  segment BANKED_CODE, align 1, keep-with-next
    298          uint8 HalTimerConfig (uint8 timerId, uint8 opMode, uint8 channel, uint8 channelMode,
   \                     HalTimerConfig:
    299                                bool intEnable, halTimerCBack_t cBack)
    300          {
   \   000000   74F2         MOV     A,#-0xe
   \   000002   12....       LCALL   ?BANKED_ENTER_XDATA
   \   000005                ; Saved register size: 14
   \   000005                ; Auto size: 0
   \   000005   89..         MOV     ?V0 + 0,R1
   \   000007   8A..         MOV     ?V0 + 1,R2
   \   000009   8B..         MOV     ?V0 + 2,R3
   \   00000B   8C..         MOV     ?V0 + 3,R4
   \   00000D   8D..         MOV     ?V0 + 4,R5
   \   00000F   740E         MOV     A,#0xe
   \   000011   12....       LCALL   ?XSTACK_DISP0_8
   \   000014   E0           MOVX    A,@DPTR
   \   000015   FE           MOV     R6,A
   \   000016   A3           INC     DPTR
   \   000017   E0           MOVX    A,@DPTR
   \   000018   FF           MOV     R7,A
    301            uint8 hwtimerid;
    302          
    303            hwtimerid = halTimerRemap (timerId);
   \   000019                ; Setup parameters for call to function halTimerRemap
   \   000019   A9..         MOV     R1,?V0 + 0
   \   00001B   12....       LCALL   ??halTimerRemap?relay
   \   00001E   E9           MOV     A,R1
   \   00001F   F5..         MOV     ?V0 + 5,A
    304          
    305            if ((opMode & HAL_TIMER_MODE_MASK) && (timerId < HAL_TIMER_MAX) &&
    306                (channelMode & HAL_TIMER_CHANNEL_MASK) && (channel & HAL_TIMER_CHANNEL_MASK))
   \   000021   7403         MOV     A,#0x3
   \   000023   55..         ANL     A,?V0 + 1
   \   000025   7003         JNZ     $+5
   \   000027   02....       LJMP    ??HalTimerConfig_0 & 0xFFFF
   \   00002A   E5..         MOV     A,?V0 + 0
   \   00002C   C3           CLR     C
   \   00002D   9404         SUBB    A,#0x4
   \   00002F   4003         JC      $+5
   \   000031   02....       LJMP    ??HalTimerConfig_0 & 0xFFFF
   \   000034   740F         MOV     A,#0xf
   \   000036   55..         ANL     A,?V0 + 3
   \   000038   7003         JNZ     $+5
   \   00003A   02....       LJMP    ??HalTimerConfig_0 & 0xFFFF
   \   00003D   740F         MOV     A,#0xf
   \   00003F   55..         ANL     A,?V0 + 2
   \   000041   7003         JNZ     $+5
   \   000043   02....       LJMP    ??HalTimerConfig_0 & 0xFFFF
    307            {
    308              halTimerRecord[hwtimerid].configured    = TRUE;
   \   000046   E5..         MOV     A,?V0 + 5
   \   000048   A8..         MOV     R0,?V0 + 5
   \   00004A   7900         MOV     R1,#0x0
   \   00004C   E8           MOV     A,R0
   \   00004D   75F00A       MOV     B,#0xa
   \   000050   A4           MUL     AB
   \   000051   C8           XCH     A,R0
   \   000052   AAF0         MOV     R2,B
   \   000054   75F000       MOV     B,#0x0
   \   000057   A4           MUL     AB
   \   000058   2A           ADD     A,R2
   \   000059   FA           MOV     R2,A
   \   00005A   75F00A       MOV     B,#0xa
   \   00005D   E9           MOV     A,R1
   \   00005E   A4           MUL     AB
   \   00005F   2A           ADD     A,R2
   \   000060   F9           MOV     R1,A
   \   000061   74..         MOV     A,#halTimerRecord & 0xff
   \   000063   28           ADD     A,R0
   \   000064   F582         MOV     DPL,A
   \   000066   74..         MOV     A,#(halTimerRecord >> 8) & 0xff
   \   000068   39           ADDC    A,R1
   \   000069   F583         MOV     DPH,A
   \   00006B   7401         MOV     A,#0x1
   \   00006D   F0           MOVX    @DPTR,A
    309              halTimerRecord[hwtimerid].opMode        = opMode;
   \   00006E   E5..         MOV     A,?V0 + 1
   \   000070   E5..         MOV     A,?V0 + 5
   \   000072   A8..         MOV     R0,?V0 + 5
   \   000074   7900         MOV     R1,#0x0
   \   000076   E8           MOV     A,R0
   \   000077   75F00A       MOV     B,#0xa
   \   00007A   A4           MUL     AB
   \   00007B   C8           XCH     A,R0
   \   00007C   AAF0         MOV     R2,B
   \   00007E   75F000       MOV     B,#0x0
   \   000081   A4           MUL     AB
   \   000082   2A           ADD     A,R2
   \   000083   FA           MOV     R2,A
   \   000084   75F00A       MOV     B,#0xa
   \   000087   E9           MOV     A,R1
   \   000088   A4           MUL     AB
   \   000089   2A           ADD     A,R2
   \   00008A   F9           MOV     R1,A
   \   00008B   74..         MOV     A,#(halTimerRecord + 2) & 0xff
   \   00008D   28           ADD     A,R0
   \   00008E   F582         MOV     DPL,A
   \   000090   74..         MOV     A,#((halTimerRecord + 2) >> 8) & 0xff
   \   000092   39           ADDC    A,R1
   \   000093   F583         MOV     DPH,A
   \   000095   E5..         MOV     A,?V0 + 1
   \   000097   F0           MOVX    @DPTR,A
    310              halTimerRecord[hwtimerid].channel       = channel;
   \   000098   E5..         MOV     A,?V0 + 2
   \   00009A   E5..         MOV     A,?V0 + 5
   \   00009C   A8..         MOV     R0,?V0 + 5
   \   00009E   7900         MOV     R1,#0x0
   \   0000A0   E8           MOV     A,R0
   \   0000A1   75F00A       MOV     B,#0xa
   \   0000A4   A4           MUL     AB
   \   0000A5   C8           XCH     A,R0
   \   0000A6   AAF0         MOV     R2,B
   \   0000A8   75F000       MOV     B,#0x0
   \   0000AB   A4           MUL     AB
   \   0000AC   2A           ADD     A,R2
   \   0000AD   FA           MOV     R2,A
   \   0000AE   75F00A       MOV     B,#0xa
   \   0000B1   E9           MOV     A,R1
   \   0000B2   A4           MUL     AB
   \   0000B3   2A           ADD     A,R2
   \   0000B4   F9           MOV     R1,A
   \   0000B5   74..         MOV     A,#(halTimerRecord + 3) & 0xff
   \   0000B7   28           ADD     A,R0
   \   0000B8   F582         MOV     DPL,A
   \   0000BA   74..         MOV     A,#((halTimerRecord + 3) >> 8) & 0xff
   \   0000BC   39           ADDC    A,R1
   \   0000BD   F583         MOV     DPH,A
   \   0000BF   E5..         MOV     A,?V0 + 2
   \   0000C1   F0           MOVX    @DPTR,A
    311              halTimerRecord[hwtimerid].channelMode   = channelMode;
   \   0000C2   E5..         MOV     A,?V0 + 3
   \   0000C4   E5..         MOV     A,?V0 + 5
   \   0000C6   A8..         MOV     R0,?V0 + 5
   \   0000C8   7900         MOV     R1,#0x0
   \   0000CA   E8           MOV     A,R0
   \   0000CB   75F00A       MOV     B,#0xa
   \   0000CE   A4           MUL     AB
   \   0000CF   C8           XCH     A,R0
   \   0000D0   AAF0         MOV     R2,B
   \   0000D2   75F000       MOV     B,#0x0
   \   0000D5   A4           MUL     AB
   \   0000D6   2A           ADD     A,R2
   \   0000D7   FA           MOV     R2,A
   \   0000D8   75F00A       MOV     B,#0xa
   \   0000DB   E9           MOV     A,R1
   \   0000DC   A4           MUL     AB
   \   0000DD   2A           ADD     A,R2
   \   0000DE   F9           MOV     R1,A
   \   0000DF   74..         MOV     A,#(halTimerRecord + 4) & 0xff
   \   0000E1   28           ADD     A,R0
   \   0000E2   F582         MOV     DPL,A
   \   0000E4   74..         MOV     A,#((halTimerRecord + 4) >> 8) & 0xff
   \   0000E6   39           ADDC    A,R1
   \   0000E7   F583         MOV     DPH,A
   \   0000E9   E5..         MOV     A,?V0 + 3
   \   0000EB   F0           MOVX    @DPTR,A
    312              halTimerRecord[hwtimerid].intEnable     = intEnable;
   \   0000EC   E5..         MOV     A,?V0 + 4
   \   0000EE   E5..         MOV     A,?V0 + 5
   \   0000F0   A8..         MOV     R0,?V0 + 5
   \   0000F2   7900         MOV     R1,#0x0
   \   0000F4   E8           MOV     A,R0
   \   0000F5   75F00A       MOV     B,#0xa
   \   0000F8   A4           MUL     AB
   \   0000F9   C8           XCH     A,R0
   \   0000FA   AAF0         MOV     R2,B
   \   0000FC   75F000       MOV     B,#0x0
   \   0000FF   A4           MUL     AB
   \   000100   2A           ADD     A,R2
   \   000101   FA           MOV     R2,A
   \   000102   75F00A       MOV     B,#0xa
   \   000105   E9           MOV     A,R1
   \   000106   A4           MUL     AB
   \   000107   2A           ADD     A,R2
   \   000108   F9           MOV     R1,A
   \   000109   74..         MOV     A,#(halTimerRecord + 1) & 0xff
   \   00010B   28           ADD     A,R0
   \   00010C   F582         MOV     DPL,A
   \   00010E   74..         MOV     A,#((halTimerRecord + 1) >> 8) & 0xff
   \   000110   39           ADDC    A,R1
   \   000111   F583         MOV     DPH,A
   \   000113   E5..         MOV     A,?V0 + 4
   \   000115   F0           MOVX    @DPTR,A
    313              halTimerRecord[hwtimerid].callBackFunc  = cBack;
   \   000116   EE           MOV     A,R6
   \   000117   F8           MOV     R0,A
   \   000118   EF           MOV     A,R7
   \   000119   F9           MOV     R1,A
   \   00011A   E5..         MOV     A,?V0 + 5
   \   00011C   AA..         MOV     R2,?V0 + 5
   \   00011E   7B00         MOV     R3,#0x0
   \   000120   EA           MOV     A,R2
   \   000121   75F00A       MOV     B,#0xa
   \   000124   A4           MUL     AB
   \   000125   CA           XCH     A,R2
   \   000126   ACF0         MOV     R4,B
   \   000128   75F000       MOV     B,#0x0
   \   00012B   A4           MUL     AB
   \   00012C   2C           ADD     A,R4
   \   00012D   FC           MOV     R4,A
   \   00012E   75F00A       MOV     B,#0xa
   \   000131   EB           MOV     A,R3
   \   000132   A4           MUL     AB
   \   000133   2C           ADD     A,R4
   \   000134   FB           MOV     R3,A
   \   000135   74..         MOV     A,#(halTimerRecord + 8) & 0xff
   \   000137   2A           ADD     A,R2
   \   000138   F582         MOV     DPL,A
   \   00013A   74..         MOV     A,#((halTimerRecord + 8) >> 8) & 0xff
   \   00013C   3B           ADDC    A,R3
   \   00013D   F583         MOV     DPH,A
   \   00013F   E8           MOV     A,R0
   \   000140   F0           MOVX    @DPTR,A
   \   000141   A3           INC     DPTR
   \   000142   E9           MOV     A,R1
   \   000143   F0           MOVX    @DPTR,A
    314            }
    315            else
    316            {
    317              return HAL_TIMER_PARAMS_ERROR;
    318            }
    319            return HAL_TIMER_OK;
   \   000144   7900         MOV     R1,#0x0
   \   000146   8002         SJMP    ??HalTimerConfig_1
   \                     ??HalTimerConfig_0:
   \   000148   7902         MOV     R1,#0x2
   \                     ??HalTimerConfig_1:
   \   00014A   7F06         MOV     R7,#0x6
   \   00014C   02....       LJMP    ?BANKED_LEAVE_XDATA
    320          }
    321          
    322          
    323          /***************************************************************************************************
    324           * @fn      HalTimerStart
    325           *
    326           * @brief   Start the Timer Service
    327           *
    328           * @param   timerId      - ID of the timer
    329           *          timerPerTick - number of micro sec per tick, (ticks x prescale) / clock = usec/tick
    330           *
    331           * @return  Status - OK or Not OK
    332           ***************************************************************************************************/

   \                                 In  segment BANKED_CODE, align 1, keep-with-next
    333          uint8 HalTimerStart (uint8 timerId, uint32 timePerTick)
   \                     HalTimerStart:
    334          {
   \   000000   74F4         MOV     A,#-0xc
   \   000002   12....       LCALL   ?BANKED_ENTER_XDATA
   \   000005                ; Saved register size: 12
   \   000005                ; Auto size: 0
   \   000005   E9           MOV     A,R1
   \   000006   FF           MOV     R7,A
   \   000007   8A..         MOV     ?V0 + 0,R2
   \   000009   8B..         MOV     ?V0 + 1,R3
   \   00000B   8C..         MOV     ?V0 + 2,R4
   \   00000D   8D..         MOV     ?V0 + 3,R5
    335            uint8 hwtimerid;
    336          
    337            hwtimerid = halTimerRemap (timerId);
   \   00000F                ; Setup parameters for call to function halTimerRemap
   \   00000F   F9           MOV     R1,A
   \   000010   12....       LCALL   ??halTimerRemap?relay
   \   000013   E9           MOV     A,R1
   \   000014   FE           MOV     R6,A
    338          
    339            if (halTimerRecord[hwtimerid].configured)
   \   000015   EE           MOV     A,R6
   \   000016   F8           MOV     R0,A
   \   000017   7900         MOV     R1,#0x0
   \   000019   E8           MOV     A,R0
   \   00001A   75F00A       MOV     B,#0xa
   \   00001D   A4           MUL     AB
   \   00001E   C8           XCH     A,R0
   \   00001F   AAF0         MOV     R2,B
   \   000021   75F000       MOV     B,#0x0
   \   000024   A4           MUL     AB
   \   000025   2A           ADD     A,R2
   \   000026   FA           MOV     R2,A
   \   000027   75F00A       MOV     B,#0xa
   \   00002A   E9           MOV     A,R1
   \   00002B   A4           MUL     AB
   \   00002C   2A           ADD     A,R2
   \   00002D   F9           MOV     R1,A
   \   00002E   74..         MOV     A,#halTimerRecord & 0xff
   \   000030   28           ADD     A,R0
   \   000031   F582         MOV     DPL,A
   \   000033   74..         MOV     A,#(halTimerRecord >> 8) & 0xff
   \   000035   39           ADDC    A,R1
   \   000036   F583         MOV     DPH,A
   \   000038   E0           MOVX    A,@DPTR
   \   000039   7003         JNZ     $+5
   \   00003B   02....       LJMP    ??HalTimerStart_0 & 0xFFFF
    340            {
    341              halTimerSetCount (hwtimerid, timePerTick);
   \   00003E                ; Setup parameters for call to function halTimerSetCount
   \   00003E   AA..         MOV     R2,?V0 + 0
   \   000040   AB..         MOV     R3,?V0 + 1
   \   000042   AC..         MOV     R4,?V0 + 2
   \   000044   AD..         MOV     R5,?V0 + 3
   \   000046   EE           MOV     A,R6
   \   000047   F9           MOV     R1,A
   \   000048   12....       LCALL   ??halTimerSetCount?relay
   \   00004B   E9           MOV     A,R1
    342              halTimerSetPrescale (hwtimerid, halTimerRecord[hwtimerid].prescale);
   \   00004C                ; Setup parameters for call to function halTimerSetPrescale
   \   00004C   EE           MOV     A,R6
   \   00004D   F8           MOV     R0,A
   \   00004E   7900         MOV     R1,#0x0
   \   000050   E8           MOV     A,R0
   \   000051   75F00A       MOV     B,#0xa
   \   000054   A4           MUL     AB
   \   000055   C8           XCH     A,R0
   \   000056   AAF0         MOV     R2,B
   \   000058   75F000       MOV     B,#0x0
   \   00005B   A4           MUL     AB
   \   00005C   2A           ADD     A,R2
   \   00005D   FA           MOV     R2,A
   \   00005E   75F00A       MOV     B,#0xa
   \   000061   E9           MOV     A,R1
   \   000062   A4           MUL     AB
   \   000063   2A           ADD     A,R2
   \   000064   F9           MOV     R1,A
   \   000065   74..         MOV     A,#(halTimerRecord + 5) & 0xff
   \   000067   28           ADD     A,R0
   \   000068   F582         MOV     DPL,A
   \   00006A   74..         MOV     A,#((halTimerRecord + 5) >> 8) & 0xff
   \   00006C   39           ADDC    A,R1
   \   00006D   F583         MOV     DPH,A
   \   00006F   E0           MOVX    A,@DPTR
   \   000070   FA           MOV     R2,A
   \   000071   EE           MOV     A,R6
   \   000072   F9           MOV     R1,A
   \   000073   12....       LCALL   ??halTimerSetPrescale?relay
   \   000076   E9           MOV     A,R1
    343              halTimerSetOpMode (hwtimerid, halTimerRecord[hwtimerid].opMode);
   \   000077                ; Setup parameters for call to function halTimerSetOpMode
   \   000077   EE           MOV     A,R6
   \   000078   F8           MOV     R0,A
   \   000079   7900         MOV     R1,#0x0
   \   00007B   E8           MOV     A,R0
   \   00007C   75F00A       MOV     B,#0xa
   \   00007F   A4           MUL     AB
   \   000080   C8           XCH     A,R0
   \   000081   AAF0         MOV     R2,B
   \   000083   75F000       MOV     B,#0x0
   \   000086   A4           MUL     AB
   \   000087   2A           ADD     A,R2
   \   000088   FA           MOV     R2,A
   \   000089   75F00A       MOV     B,#0xa
   \   00008C   E9           MOV     A,R1
   \   00008D   A4           MUL     AB
   \   00008E   2A           ADD     A,R2
   \   00008F   F9           MOV     R1,A
   \   000090   74..         MOV     A,#(halTimerRecord + 2) & 0xff
   \   000092   28           ADD     A,R0
   \   000093   F582         MOV     DPL,A
   \   000095   74..         MOV     A,#((halTimerRecord + 2) >> 8) & 0xff
   \   000097   39           ADDC    A,R1
   \   000098   F583         MOV     DPH,A
   \   00009A   E0           MOVX    A,@DPTR
   \   00009B   FA           MOV     R2,A
   \   00009C   EE           MOV     A,R6
   \   00009D   F9           MOV     R1,A
   \   00009E   12....       LCALL   ??halTimerSetOpMode?relay
   \   0000A1   E9           MOV     A,R1
    344              halTimerSetChannelMode (hwtimerid, halTimerRecord[hwtimerid].channelMode);
   \   0000A2                ; Setup parameters for call to function halTimerSetChannelMode
   \   0000A2   EE           MOV     A,R6
   \   0000A3   F8           MOV     R0,A
   \   0000A4   7900         MOV     R1,#0x0
   \   0000A6   E8           MOV     A,R0
   \   0000A7   75F00A       MOV     B,#0xa
   \   0000AA   A4           MUL     AB
   \   0000AB   C8           XCH     A,R0
   \   0000AC   AAF0         MOV     R2,B
   \   0000AE   75F000       MOV     B,#0x0
   \   0000B1   A4           MUL     AB
   \   0000B2   2A           ADD     A,R2
   \   0000B3   FA           MOV     R2,A
   \   0000B4   75F00A       MOV     B,#0xa
   \   0000B7   E9           MOV     A,R1
   \   0000B8   A4           MUL     AB
   \   0000B9   2A           ADD     A,R2
   \   0000BA   F9           MOV     R1,A
   \   0000BB   74..         MOV     A,#(halTimerRecord + 4) & 0xff
   \   0000BD   28           ADD     A,R0
   \   0000BE   F582         MOV     DPL,A
   \   0000C0   74..         MOV     A,#((halTimerRecord + 4) >> 8) & 0xff
   \   0000C2   39           ADDC    A,R1
   \   0000C3   F583         MOV     DPH,A
   \   0000C5   E0           MOVX    A,@DPTR
   \   0000C6   FA           MOV     R2,A
   \   0000C7   EE           MOV     A,R6
   \   0000C8   F9           MOV     R1,A
   \   0000C9   12....       LCALL   ??halTimerSetChannelMode?relay
   \   0000CC   E9           MOV     A,R1
    345          
    346              if (hwtimerid == HW_TIMER_3)
   \   0000CD   7401         MOV     A,#0x1
   \   0000CF   6E           XRL     A,R6
   \   0000D0   7003         JNZ     ??HalTimerStart_1
    347              {
    348                T3CTL |= HAL_TIMER34_START;
   \   0000D2   43CB10       ORL     0xcb,#0x10
    349              }
    350              if (hwtimerid == HW_TIMER_4)
   \                     ??HalTimerStart_1:
   \   0000D5   7402         MOV     A,#0x2
   \   0000D7   6E           XRL     A,R6
   \   0000D8   7003         JNZ     ??HalTimerStart_2
    351              {
    352                T4CTL |= HAL_TIMER34_START;
   \   0000DA   43EB10       ORL     0xeb,#0x10
    353              }
    354              HalTimerInterruptEnable (hwtimerid, halTimerRecord[hwtimerid].channelMode,
    355                                       halTimerRecord[hwtimerid].intEnable);
   \                     ??HalTimerStart_2:
   \   0000DD                ; Setup parameters for call to function HalTimerInterruptEnable
   \   0000DD   EE           MOV     A,R6
   \   0000DE   F8           MOV     R0,A
   \   0000DF   7900         MOV     R1,#0x0
   \   0000E1   E8           MOV     A,R0
   \   0000E2   75F00A       MOV     B,#0xa
   \   0000E5   A4           MUL     AB
   \   0000E6   C8           XCH     A,R0
   \   0000E7   AAF0         MOV     R2,B
   \   0000E9   75F000       MOV     B,#0x0
   \   0000EC   A4           MUL     AB
   \   0000ED   2A           ADD     A,R2
   \   0000EE   FA           MOV     R2,A
   \   0000EF   75F00A       MOV     B,#0xa
   \   0000F2   E9           MOV     A,R1
   \   0000F3   A4           MUL     AB
   \   0000F4   2A           ADD     A,R2
   \   0000F5   F9           MOV     R1,A
   \   0000F6   74..         MOV     A,#(halTimerRecord + 1) & 0xff
   \   0000F8   28           ADD     A,R0
   \   0000F9   F582         MOV     DPL,A
   \   0000FB   74..         MOV     A,#((halTimerRecord + 1) >> 8) & 0xff
   \   0000FD   39           ADDC    A,R1
   \   0000FE   F583         MOV     DPH,A
   \   000100   E0           MOVX    A,@DPTR
   \   000101   FB           MOV     R3,A
   \   000102   EE           MOV     A,R6
   \   000103   F8           MOV     R0,A
   \   000104   7900         MOV     R1,#0x0
   \   000106   E8           MOV     A,R0
   \   000107   75F00A       MOV     B,#0xa
   \   00010A   A4           MUL     AB
   \   00010B   C8           XCH     A,R0
   \   00010C   AAF0         MOV     R2,B
   \   00010E   75F000       MOV     B,#0x0
   \   000111   A4           MUL     AB
   \   000112   2A           ADD     A,R2
   \   000113   FA           MOV     R2,A
   \   000114   75F00A       MOV     B,#0xa
   \   000117   E9           MOV     A,R1
   \   000118   A4           MUL     AB
   \   000119   2A           ADD     A,R2
   \   00011A   F9           MOV     R1,A
   \   00011B   74..         MOV     A,#(halTimerRecord + 4) & 0xff
   \   00011D   28           ADD     A,R0
   \   00011E   F582         MOV     DPL,A
   \   000120   74..         MOV     A,#((halTimerRecord + 4) >> 8) & 0xff
   \   000122   39           ADDC    A,R1
   \   000123   F583         MOV     DPH,A
   \   000125   E0           MOVX    A,@DPTR
   \   000126   FA           MOV     R2,A
   \   000127   EE           MOV     A,R6
   \   000128   F9           MOV     R1,A
   \   000129   12....       LCALL   ??HalTimerInterruptEnable?relay
   \   00012C   E9           MOV     A,R1
    356            }
    357            else
    358            {
    359              return HAL_TIMER_NOT_CONFIGURED;
    360            }
    361            return HAL_TIMER_OK;
   \   00012D   7900         MOV     R1,#0x0
   \   00012F   8002         SJMP    ??HalTimerStart_3
   \                     ??HalTimerStart_0:
   \   000131   7903         MOV     R1,#0x3
   \                     ??HalTimerStart_3:
   \   000133   7F04         MOV     R7,#0x4
   \   000135   02....       LJMP    ?BANKED_LEAVE_XDATA
   \   000138                REQUIRE T3CTL
   \   000138                REQUIRE T4CTL
    362          }
    363          
    364          /***************************************************************************************************
    365           * @fn      HalTimerTick
    366           *
    367           * @brief   Check the counter for expired counter.
    368           *
    369           * @param   None
    370           *
    371           * @return  None
    372           ***************************************************************************************************/

   \                                 In  segment BANKED_CODE, align 1, keep-with-next
    373          void HalTimerTick (void)
   \                     HalTimerTick:
    374          {
   \   000000   C082         PUSH    DPL
   \   000002   C083         PUSH    DPH
   \   000004                ; Saved register size: 2
   \   000004                ; Auto size: 0
    375            if (!halTimerRecord[HW_TIMER_1].intEnable)
   \   000004   90....       MOV     DPTR,#halTimerRecord + 1
   \   000007   E0           MOVX    A,@DPTR
   \   000008   7003         JNZ     ??HalTimerTick_0
    376            {
    377              halProcessTimer1 ();
   \   00000A                ; Setup parameters for call to function halProcessTimer1
   \   00000A   12....       LCALL   ??halProcessTimer1?relay
    378            }
    379          
    380            if (!halTimerRecord[HW_TIMER_3].intEnable)
   \                     ??HalTimerTick_0:
   \   00000D   90....       MOV     DPTR,#halTimerRecord + 11
   \   000010   E0           MOVX    A,@DPTR
   \   000011   7003         JNZ     ??HalTimerTick_1
    381            {
    382              halProcessTimer3 ();
   \   000013                ; Setup parameters for call to function halProcessTimer3
   \   000013   12....       LCALL   ??halProcessTimer3?relay
    383            }
    384          
    385            if (!halTimerRecord[HW_TIMER_4].intEnable)
   \                     ??HalTimerTick_1:
   \   000016   90....       MOV     DPTR,#halTimerRecord + 21
   \   000019   E0           MOVX    A,@DPTR
   \   00001A   7003         JNZ     ??HalTimerTick_2
    386            {
    387              halProcessTimer4 ();
   \   00001C                ; Setup parameters for call to function halProcessTimer4
   \   00001C   12....       LCALL   ??halProcessTimer4?relay
    388            }
    389          }
   \                     ??HalTimerTick_2:
   \   00001F   D083         POP     DPH
   \   000021   D082         POP     DPL
   \   000023   02....       LJMP    ?BRET
    390          
    391          /***************************************************************************************************
    392           * @fn      HalTimerStop
    393           *
    394           * @brief   Stop the Timer Service
    395           *
    396           * @param   timerId - ID of the timer
    397           *
    398           * @return  Status - OK or Not OK
    399           ***************************************************************************************************/

   \                                 In  segment BANKED_CODE, align 1, keep-with-next
    400          uint8 HalTimerStop (uint8 timerId)
   \                     HalTimerStop:
    401          {
   \   000000   74F7         MOV     A,#-0x9
   \   000002   12....       LCALL   ?BANKED_ENTER_XDATA
   \   000005                ; Saved register size: 9
   \   000005                ; Auto size: 0
   \   000005   E9           MOV     A,R1
   \   000006   FE           MOV     R6,A
    402            uint8 hwtimerid;
    403          
    404            hwtimerid = halTimerRemap (timerId);
   \   000007                ; Setup parameters for call to function halTimerRemap
   \   000007   F9           MOV     R1,A
   \   000008   12....       LCALL   ??halTimerRemap?relay
   \   00000B   E9           MOV     A,R1
   \   00000C   FF           MOV     R7,A
    405          
    406            switch (hwtimerid)
   \   00000D   6008         JZ      ??HalTimerStop_0
   \   00000F   14           DEC     A
   \   000010   600F         JZ      ??HalTimerStop_1
   \   000012   14           DEC     A
   \   000013   6011         JZ      ??HalTimerStop_2
   \   000015   8014         SJMP    ??HalTimerStop_3
    407            {
    408              case HW_TIMER_1:
    409                halTimerSetOpMode(HW_TIMER_1, HAL_TIMER_MODE_STOP);
   \                     ??HalTimerStop_0:
   \   000017                ; Setup parameters for call to function halTimerSetOpMode
   \   000017   7A03         MOV     R2,#0x3
   \   000019   7900         MOV     R1,#0x0
   \   00001B   12....       LCALL   ??halTimerSetOpMode?relay
   \   00001E   E9           MOV     A,R1
    410                break;
   \   00001F   800E         SJMP    ??HalTimerStop_4
    411              case HW_TIMER_3:
    412                T3CTL &= ~(HAL_TIMER34_START);
   \                     ??HalTimerStop_1:
   \   000021   53CBEF       ANL     0xcb,#0xef
    413                break;
   \   000024   8009         SJMP    ??HalTimerStop_4
    414              case HW_TIMER_4:
    415                T4CTL &= ~(HAL_TIMER34_START);
   \                     ??HalTimerStop_2:
   \   000026   53EBEF       ANL     0xeb,#0xef
    416                break;
   \   000029   8004         SJMP    ??HalTimerStop_4
    417              default:
    418                return HAL_TIMER_INVALID_ID;
   \                     ??HalTimerStop_3:
   \   00002B   7904         MOV     R1,#0x4
   \   00002D   8002         SJMP    ??HalTimerStop_5
    419            }
    420            return HAL_TIMER_OK;
   \                     ??HalTimerStop_4:
   \   00002F   7900         MOV     R1,#0x0
   \                     ??HalTimerStop_5:
   \   000031   7F01         MOV     R7,#0x1
   \   000033   02....       LJMP    ?BANKED_LEAVE_XDATA
   \   000036                REQUIRE T3CTL
   \   000036                REQUIRE T4CTL
    421          }
    422          
    423          /***************************************************************************************************
    424           * @fn      halTimerSetCount
    425           *
    426           * @brief   Stop the Timer Service
    427           *
    428           * @param   hwtimerid - ID of the timer
    429           *          timerPerTick - Number micro sec per ticks
    430           *
    431           * @return  Status - OK or Not OK
    432           ***************************************************************************************************/

   \                                 In  segment BANKED_CODE, align 1, keep-with-next
    433          uint8 halTimerSetCount (uint8 hwtimerid, uint32 timePerTick)
   \                     halTimerSetCount:
    434          {
   \   000000   74EC         MOV     A,#-0x14
   \   000002   12....       LCALL   ?BANKED_ENTER_XDATA
   \   000005                ; Saved register size: 20
   \   000005                ; Auto size: 0
   \   000005   E9           MOV     A,R1
   \   000006   FE           MOV     R6,A
   \   000007   8A..         MOV     ?V0 + 4,R2
   \   000009   8B..         MOV     ?V0 + 5,R3
   \   00000B   8C..         MOV     ?V0 + 6,R4
   \   00000D   8D..         MOV     ?V0 + 7,R5
    435            uint16  count;
    436            uint8   high, low;
    437          
    438            /* Load count = ((sec/tick) x clock) / prescale */
    439            count = (uint16)((timePerTick * halTimerRecord[hwtimerid].clock) / halTimerRecord[hwtimerid].prescaleVal);
   \   00000F   85....       MOV     ?V0 + 0,?V0 + 4
   \   000012   85....       MOV     ?V0 + 1,?V0 + 5
   \   000015   85....       MOV     ?V0 + 2,?V0 + 6
   \   000018   85....       MOV     ?V0 + 3,?V0 + 7
   \   00001B   EE           MOV     A,R6
   \   00001C   F8           MOV     R0,A
   \   00001D   7900         MOV     R1,#0x0
   \   00001F   E8           MOV     A,R0
   \   000020   75F00A       MOV     B,#0xa
   \   000023   A4           MUL     AB
   \   000024   C8           XCH     A,R0
   \   000025   AFF0         MOV     R7,B
   \   000027   75F000       MOV     B,#0x0
   \   00002A   A4           MUL     AB
   \   00002B   2F           ADD     A,R7
   \   00002C   FF           MOV     R7,A
   \   00002D   75F00A       MOV     B,#0xa
   \   000030   E9           MOV     A,R1
   \   000031   A4           MUL     AB
   \   000032   2F           ADD     A,R7
   \   000033   F9           MOV     R1,A
   \   000034   74..         MOV     A,#(halTimerRecord + 7) & 0xff
   \   000036   28           ADD     A,R0
   \   000037   F582         MOV     DPL,A
   \   000039   74..         MOV     A,#((halTimerRecord + 7) >> 8) & 0xff
   \   00003B   39           ADDC    A,R1
   \   00003C   F583         MOV     DPH,A
   \   00003E   E0           MOVX    A,@DPTR
   \   00003F   F5..         MOV     ?V0 + 8,A
   \   000041   E4           CLR     A
   \   000042   F5..         MOV     ?V0 + 9,A
   \   000044   F5..         MOV     ?V0 + 10,A
   \   000046   F5..         MOV     ?V0 + 11,A
   \   000048   78..         MOV     R0,#?V0 + 0
   \   00004A   79..         MOV     R1,#?V0 + 8
   \   00004C   12....       LCALL   ?L_MUL
   \   00004F   EE           MOV     A,R6
   \   000050   F8           MOV     R0,A
   \   000051   7900         MOV     R1,#0x0
   \   000053   E8           MOV     A,R0
   \   000054   75F00A       MOV     B,#0xa
   \   000057   A4           MUL     AB
   \   000058   C8           XCH     A,R0
   \   000059   AFF0         MOV     R7,B
   \   00005B   75F000       MOV     B,#0x0
   \   00005E   A4           MUL     AB
   \   00005F   2F           ADD     A,R7
   \   000060   FF           MOV     R7,A
   \   000061   75F00A       MOV     B,#0xa
   \   000064   E9           MOV     A,R1
   \   000065   A4           MUL     AB
   \   000066   2F           ADD     A,R7
   \   000067   F9           MOV     R1,A
   \   000068   74..         MOV     A,#(halTimerRecord + 6) & 0xff
   \   00006A   28           ADD     A,R0
   \   00006B   F582         MOV     DPL,A
   \   00006D   74..         MOV     A,#((halTimerRecord + 6) >> 8) & 0xff
   \   00006F   39           ADDC    A,R1
   \   000070   F583         MOV     DPH,A
   \   000072   E0           MOVX    A,@DPTR
   \   000073   F5..         MOV     ?V0 + 8,A
   \   000075   E4           CLR     A
   \   000076   F5..         MOV     ?V0 + 9,A
   \   000078   F5..         MOV     ?V0 + 10,A
   \   00007A   F5..         MOV     ?V0 + 11,A
   \   00007C   78..         MOV     R0,#?V0 + 0
   \   00007E   79..         MOV     R1,#?V0 + 8
   \   000080   12....       LCALL   ?UL_DIV_MOD
   \   000083   AA..         MOV     R2,?V0 + 0
   \   000085   AB..         MOV     R3,?V0 + 1
    440            high = (uint8) (count >> 8);
   \   000087   EA           MOV     A,R2
   \   000088   F8           MOV     R0,A
   \   000089   E5..         MOV     A,?V0 + 1
   \   00008B   A9..         MOV     R1,?V0 + 1
   \   00008D   E4           CLR     A
   \   00008E   E5..         MOV     A,?V0 + 1
   \   000090   A8..         MOV     R0,?V0 + 1
   \   000092   E5..         MOV     A,?V0 + 1
   \   000094   AD..         MOV     R5,?V0 + 1
    441            low = (uint8) count;
   \   000096   EA           MOV     A,R2
   \   000097   FC           MOV     R4,A
    442          
    443            *(halTimerChannel[hwtimerid].TxCCH) = high;
   \   000098   E5..         MOV     A,?V0 + 1
   \   00009A   EE           MOV     A,R6
   \   00009B   F8           MOV     R0,A
   \   00009C   7900         MOV     R1,#0x0
   \   00009E   E8           MOV     A,R0
   \   00009F   75F00A       MOV     B,#0xa
   \   0000A2   A4           MUL     AB
   \   0000A3   C8           XCH     A,R0
   \   0000A4   AFF0         MOV     R7,B
   \   0000A6   75F000       MOV     B,#0x0
   \   0000A9   A4           MUL     AB
   \   0000AA   2F           ADD     A,R7
   \   0000AB   FF           MOV     R7,A
   \   0000AC   75F00A       MOV     B,#0xa
   \   0000AF   E9           MOV     A,R1
   \   0000B0   A4           MUL     AB
   \   0000B1   2F           ADD     A,R7
   \   0000B2   F9           MOV     R1,A
   \   0000B3   74..         MOV     A,#(halTimerChannel + 2) & 0xff
   \   0000B5   28           ADD     A,R0
   \   0000B6   F582         MOV     DPL,A
   \   0000B8   74..         MOV     A,#((halTimerChannel + 2) >> 8) & 0xff
   \   0000BA   39           ADDC    A,R1
   \   0000BB   F583         MOV     DPH,A
   \   0000BD   E0           MOVX    A,@DPTR
   \   0000BE   F8           MOV     R0,A
   \   0000BF   A3           INC     DPTR
   \   0000C0   E0           MOVX    A,@DPTR
   \   0000C1   F583         MOV     DPH,A
   \   0000C3   8882         MOV     DPL,R0
   \   0000C5   E5..         MOV     A,?V0 + 1
   \   0000C7   F0           MOVX    @DPTR,A
    444            *(halTimerChannel[hwtimerid].TxCCL) = low;
   \   0000C8   EC           MOV     A,R4
   \   0000C9   C0E0         PUSH    A
   \   0000CB   EE           MOV     A,R6
   \   0000CC   F8           MOV     R0,A
   \   0000CD   7900         MOV     R1,#0x0
   \   0000CF   E8           MOV     A,R0
   \   0000D0   75F00A       MOV     B,#0xa
   \   0000D3   A4           MUL     AB
   \   0000D4   C8           XCH     A,R0
   \   0000D5   AFF0         MOV     R7,B
   \   0000D7   75F000       MOV     B,#0x0
   \   0000DA   A4           MUL     AB
   \   0000DB   2F           ADD     A,R7
   \   0000DC   FF           MOV     R7,A
   \   0000DD   75F00A       MOV     B,#0xa
   \   0000E0   E9           MOV     A,R1
   \   0000E1   A4           MUL     AB
   \   0000E2   2F           ADD     A,R7
   \   0000E3   F9           MOV     R1,A
   \   0000E4   74..         MOV     A,#(halTimerChannel + 4) & 0xff
   \   0000E6   28           ADD     A,R0
   \   0000E7   F582         MOV     DPL,A
   \   0000E9   74..         MOV     A,#((halTimerChannel + 4) >> 8) & 0xff
   \   0000EB   39           ADDC    A,R1
   \   0000EC   F583         MOV     DPH,A
   \   0000EE   E0           MOVX    A,@DPTR
   \   0000EF   F8           MOV     R0,A
   \   0000F0   A3           INC     DPTR
   \   0000F1   E0           MOVX    A,@DPTR
   \   0000F2   F583         MOV     DPH,A
   \   0000F4   8882         MOV     DPL,R0
   \   0000F6   D0E0         POP     A
   \   0000F8   F0           MOVX    @DPTR,A
    445          
    446            return HAL_TIMER_OK;
   \   0000F9   7900         MOV     R1,#0x0
   \   0000FB   7F0C         MOV     R7,#0xc
   \   0000FD   02....       LJMP    ?BANKED_LEAVE_XDATA
    447          }
    448          
    449          /***************************************************************************************************
    450           * @fn      halTimerSetPrescale
    451           *
    452           * @brief   Stop the Timer Service
    453           *
    454           * @param   hwtimerid - ID of the timer
    455           *          prescale - Prescale of the clock
    456           *
    457           * @return  Status - OK or Not OK
    458           ***************************************************************************************************/

   \                                 In  segment BANKED_CODE, align 1, keep-with-next
    459          uint8 halTimerSetPrescale (uint8 hwtimerid, uint8 prescale)
   \                     halTimerSetPrescale:
    460          {
   \   000000                ; Saved register size: 0
   \   000000                ; Auto size: 0
   \   000000   E9           MOV     A,R1
   \   000001   F8           MOV     R0,A
    461            switch (hwtimerid)
   \   000002   6008         JZ      ??halTimerSetPrescale_0
   \   000004   14           DEC     A
   \   000005   600D         JZ      ??halTimerSetPrescale_1
   \   000007   14           DEC     A
   \   000008   6012         JZ      ??halTimerSetPrescale_2
   \   00000A   8018         SJMP    ??halTimerSetPrescale_3
    462            {
    463              case HW_TIMER_1:
    464                T1CTL &= ~(HAL_TIMER1_16_TC_BITS);
   \                     ??halTimerSetPrescale_0:
   \   00000C   53E4F3       ANL     0xe4,#0xf3
    465                T1CTL |= prescale;
   \   00000F   EA           MOV     A,R2
   \   000010   42E4         ORL     0xe4,A
    466                break;
   \   000012   8014         SJMP    ??halTimerSetPrescale_4
    467              case HW_TIMER_3:
    468                T3CTL &= ~(HAL_TIMER34_8_TC_BITS);
   \                     ??halTimerSetPrescale_1:
   \   000014   53CB1F       ANL     0xcb,#0x1f
    469                T3CTL |= prescale;
   \   000017   EA           MOV     A,R2
   \   000018   42CB         ORL     0xcb,A
    470                break;
   \   00001A   800C         SJMP    ??halTimerSetPrescale_4
    471              case HW_TIMER_4:
    472                T4CTL &= ~(HAL_TIMER34_8_TC_BITS);
   \                     ??halTimerSetPrescale_2:
   \   00001C   53EB1F       ANL     0xeb,#0x1f
    473                T4CTL |= prescale;
   \   00001F   EA           MOV     A,R2
   \   000020   42EB         ORL     0xeb,A
    474                break;
   \   000022   8004         SJMP    ??halTimerSetPrescale_4
    475              default:
    476                return HAL_TIMER_INVALID_ID;
   \                     ??halTimerSetPrescale_3:
   \   000024   7904         MOV     R1,#0x4
   \   000026   8002         SJMP    ??halTimerSetPrescale_5
    477            }
    478            return HAL_TIMER_OK;
   \                     ??halTimerSetPrescale_4:
   \   000028   7900         MOV     R1,#0x0
   \                     ??halTimerSetPrescale_5:
   \   00002A   02....       LJMP    ?BRET
   \   00002D                REQUIRE T1CTL
   \   00002D                REQUIRE T3CTL
   \   00002D                REQUIRE T4CTL
    479          }
    480          
    481          /***************************************************************************************************
    482           * @fn      halTimerSetOpMode
    483           *
    484           * @brief   Setup operate modes
    485           *
    486           * @param   hwtimerid - ID of the timer
    487           *          opMode - operation mode of the timer
    488           *
    489           * @return  Status - OK or Not OK
    490           ***************************************************************************************************/

   \                                 In  segment BANKED_CODE, align 1, keep-with-next
    491          uint8 halTimerSetOpMode (uint8 hwtimerid, uint8 opMode)
   \                     halTimerSetOpMode:
    492          {
   \   000000                ; Saved register size: 0
   \   000000                ; Auto size: 0
   \   000000   E9           MOV     A,R1
   \   000001   F8           MOV     R0,A
    493            /* Load Waveform Generation Mode */
    494            switch (opMode)
   \   000002   EA           MOV     A,R2
   \   000003   14           DEC     A
   \   000004   6008         JZ      ??halTimerSetOpMode_0
   \   000006   14           DEC     A
   \   000007   602C         JZ      ??halTimerSetOpMode_1
   \   000009   14           DEC     A
   \   00000A   6050         JZ      ??halTimerSetOpMode_2
   \   00000C   8059         SJMP    ??halTimerSetOpMode_3
    495            {
    496              case HAL_TIMER_MODE_NORMAL:
    497                switch (hwtimerid)
   \                     ??halTimerSetOpMode_0:
   \   00000E   E8           MOV     A,R0
   \   00000F   6008         JZ      ??halTimerSetOpMode_4
   \   000011   14           DEC     A
   \   000012   600D         JZ      ??halTimerSetOpMode_5
   \   000014   14           DEC     A
   \   000015   6012         JZ      ??halTimerSetOpMode_6
   \   000017   8018         SJMP    ??halTimerSetOpMode_7
    498                {
    499                  case HW_TIMER_1:
    500                    T1CTL &= ~(HAL_TIMER1_OPMODE_BITS);
   \                     ??halTimerSetOpMode_4:
   \   000019   53E4FC       ANL     0xe4,#0xfc
    501                    T1CTL |= HAL_TIMER1_OPMODE_FREERUN;
   \   00001C   43E401       ORL     0xe4,#0x1
    502                    break;
   \   00001F   804A         SJMP    ??halTimerSetOpMode_8
    503                  case HW_TIMER_3:
    504                    T3CTL &= ~(HAL_TIMER34_OPMODE_BITS);
   \                     ??halTimerSetOpMode_5:
   \   000021   53CBFC       ANL     0xcb,#0xfc
    505                    T3CTL |= HAL_TIMER34_OPMODE_FREERUN;
   \   000024   85CBCB       MOV     0xcb,0xcb
    506                    break;
   \   000027   8042         SJMP    ??halTimerSetOpMode_8
    507                  case HW_TIMER_4:
    508                    T4CTL &= ~(HAL_TIMER34_OPMODE_BITS);
   \                     ??halTimerSetOpMode_6:
   \   000029   53EBFC       ANL     0xeb,#0xfc
    509                    T4CTL |= HAL_TIMER34_OPMODE_FREERUN;
   \   00002C   85EBEB       MOV     0xeb,0xeb
    510                    break;
   \   00002F   803A         SJMP    ??halTimerSetOpMode_8
    511                  default:
    512                    return HAL_TIMER_INVALID_ID;
   \                     ??halTimerSetOpMode_7:
   \   000031   7904         MOV     R1,#0x4
   \   000033   8038         SJMP    ??halTimerSetOpMode_9
    513                }
    514                break;
    515          
    516              case HAL_TIMER_MODE_CTC:
    517                switch (hwtimerid)
   \                     ??halTimerSetOpMode_1:
   \   000035   E8           MOV     A,R0
   \   000036   6008         JZ      ??halTimerSetOpMode_10
   \   000038   14           DEC     A
   \   000039   600D         JZ      ??halTimerSetOpMode_11
   \   00003B   14           DEC     A
   \   00003C   6012         JZ      ??halTimerSetOpMode_12
   \   00003E   8018         SJMP    ??halTimerSetOpMode_13
    518                {
    519                  case HW_TIMER_1:
    520                    T1CTL &= ~(HAL_TIMER1_OPMODE_BITS);
   \                     ??halTimerSetOpMode_10:
   \   000040   53E4FC       ANL     0xe4,#0xfc
    521                    T1CTL |= HAL_TIMER1_OPMODE_MODULO;
   \   000043   43E402       ORL     0xe4,#0x2
    522                    break;
   \   000046   8023         SJMP    ??halTimerSetOpMode_8
    523                  case HW_TIMER_3:
    524                    T3CTL &= ~(HAL_TIMER34_OPMODE_BITS);
   \                     ??halTimerSetOpMode_11:
   \   000048   53CBFC       ANL     0xcb,#0xfc
    525                    T3CTL |= HAL_TIMER34_OPMODE_MODULO;
   \   00004B   43CB02       ORL     0xcb,#0x2
    526                    break;
   \   00004E   801B         SJMP    ??halTimerSetOpMode_8
    527                  case HW_TIMER_4:
    528                    T4CTL &= ~(HAL_TIMER34_OPMODE_BITS);
   \                     ??halTimerSetOpMode_12:
   \   000050   53EBFC       ANL     0xeb,#0xfc
    529                    T4CTL |= HAL_TIMER34_OPMODE_MODULO;
   \   000053   43EB02       ORL     0xeb,#0x2
    530                    break;
   \   000056   8013         SJMP    ??halTimerSetOpMode_8
    531                  default:
    532                    return HAL_TIMER_INVALID_ID;
   \                     ??halTimerSetOpMode_13:
   \   000058   7904         MOV     R1,#0x4
   \   00005A   8011         SJMP    ??halTimerSetOpMode_9
    533                }
    534                break;
    535          
    536              case HAL_TIMER_MODE_STOP:
    537                if (hwtimerid == HW_TIMER_1)
   \                     ??halTimerSetOpMode_2:
   \   00005C   E8           MOV     A,R0
   \   00005D   700C         JNZ     ??halTimerSetOpMode_8
    538                {
    539                  T1CTL &= ~(HAL_TIMER1_OPMODE_BITS);
   \   00005F   53E4FC       ANL     0xe4,#0xfc
    540                  T1CTL |= HAL_TIMER1_OPMODE_STOP;
   \   000062   85E4E4       MOV     0xe4,0xe4
    541                }
    542                break;
   \   000065   8004         SJMP    ??halTimerSetOpMode_8
    543          
    544              default:
    545                return HAL_TIMER_INVALID_OP_MODE;
   \                     ??halTimerSetOpMode_3:
   \   000067   7906         MOV     R1,#0x6
   \   000069   8002         SJMP    ??halTimerSetOpMode_9
    546            }
    547            return HAL_TIMER_OK;
   \                     ??halTimerSetOpMode_8:
   \   00006B   7900         MOV     R1,#0x0
   \                     ??halTimerSetOpMode_9:
   \   00006D   02....       LJMP    ?BRET
   \   000070                REQUIRE T1CTL
   \   000070                REQUIRE T3CTL
   \   000070                REQUIRE T4CTL
    548          }
    549          
    550          /***************************************************************************************************
    551           * @fn      halTimerSetChannelMode
    552           *
    553           * @brief   Setup channel modes.  Currently, only output compare mode is supported.  Input capture
    554           *          mode is NOT supported.  Additionally, mapping timer channel inputs/outputs to I/O pins
    555           *          is NOT supported.
    556           *
    557           * @param   hwtimerid - ID of the timer
    558           *          channelMode - channel mode of the timer
    559           *
    560           * @return  Status - OK or Not OK
    561           ***************************************************************************************************/

   \                                 In  segment BANKED_CODE, align 1, keep-with-next
    562          uint8 halTimerSetChannelMode (uint8 hwtimerid, uint8 channelMode)
   \                     halTimerSetChannelMode:
    563          {
   \   000000   C082         PUSH    DPL
   \   000002   C083         PUSH    DPH
   \   000004                ; Saved register size: 2
   \   000004                ; Auto size: 0
   \   000004   E9           MOV     A,R1
   \   000005   FC           MOV     R4,A
    564            switch (channelMode)
   \   000006   EA           MOV     A,R2
   \   000007   14           DEC     A
   \   000008   6067         JZ      ??halTimerSetChannelMode_0
   \   00000A   14           DEC     A
   \   00000B   7060         JNZ     ??halTimerSetChannelMode_1
    565            {
    566              case HAL_TIMER_CH_MODE_OUTPUT_COMPARE:
    567                *(halTimerChannel[hwtimerid].TxCCTL) &= ~(T134CCTL_CMP_BITS);
   \   00000D   EC           MOV     A,R4
   \   00000E   F8           MOV     R0,A
   \   00000F   7900         MOV     R1,#0x0
   \   000011   E8           MOV     A,R0
   \   000012   75F00A       MOV     B,#0xa
   \   000015   A4           MUL     AB
   \   000016   C8           XCH     A,R0
   \   000017   ABF0         MOV     R3,B
   \   000019   75F000       MOV     B,#0x0
   \   00001C   A4           MUL     AB
   \   00001D   2B           ADD     A,R3
   \   00001E   FB           MOV     R3,A
   \   00001F   75F00A       MOV     B,#0xa
   \   000022   E9           MOV     A,R1
   \   000023   A4           MUL     AB
   \   000024   2B           ADD     A,R3
   \   000025   F9           MOV     R1,A
   \   000026   74..         MOV     A,#halTimerChannel & 0xff
   \   000028   28           ADD     A,R0
   \   000029   F582         MOV     DPL,A
   \   00002B   74..         MOV     A,#(halTimerChannel >> 8) & 0xff
   \   00002D   39           ADDC    A,R1
   \   00002E   F583         MOV     DPH,A
   \   000030   E0           MOVX    A,@DPTR
   \   000031   F8           MOV     R0,A
   \   000032   A3           INC     DPTR
   \   000033   E0           MOVX    A,@DPTR
   \   000034   F583         MOV     DPH,A
   \   000036   8882         MOV     DPL,R0
   \   000038   E0           MOVX    A,@DPTR
   \   000039   54C7         ANL     A,#0xc7
   \   00003B   F0           MOVX    @DPTR,A
    568                *(halTimerChannel[hwtimerid].TxCCTL) |= (T134CCTL_CMP_OC | T134CCTL_MODE);
   \   00003C   EC           MOV     A,R4
   \   00003D   F8           MOV     R0,A
   \   00003E   7900         MOV     R1,#0x0
   \   000040   E8           MOV     A,R0
   \   000041   75F00A       MOV     B,#0xa
   \   000044   A4           MUL     AB
   \   000045   C8           XCH     A,R0
   \   000046   ABF0         MOV     R3,B
   \   000048   75F000       MOV     B,#0x0
   \   00004B   A4           MUL     AB
   \   00004C   2B           ADD     A,R3
   \   00004D   FB           MOV     R3,A
   \   00004E   75F00A       MOV     B,#0xa
   \   000051   E9           MOV     A,R1
   \   000052   A4           MUL     AB
   \   000053   2B           ADD     A,R3
   \   000054   F9           MOV     R1,A
   \   000055   74..         MOV     A,#halTimerChannel & 0xff
   \   000057   28           ADD     A,R0
   \   000058   F582         MOV     DPL,A
   \   00005A   74..         MOV     A,#(halTimerChannel >> 8) & 0xff
   \   00005C   39           ADDC    A,R1
   \   00005D   F583         MOV     DPH,A
   \   00005F   E0           MOVX    A,@DPTR
   \   000060   F8           MOV     R0,A
   \   000061   A3           INC     DPTR
   \   000062   E0           MOVX    A,@DPTR
   \   000063   F583         MOV     DPH,A
   \   000065   8882         MOV     DPL,R0
   \   000067   E0           MOVX    A,@DPTR
   \   000068   441C         ORL     A,#0x1c
   \   00006A   F0           MOVX    @DPTR,A
    569                break;
   \   00006B   8004         SJMP    ??halTimerSetChannelMode_0
    570          
    571              case HAL_TIMER_CH_MODE_INPUT_CAPTURE:       /* Not Supported */
    572          /*
    573                *(halTimerChannel[hwtimerid].TxCCTL) &= ~(T134CCTL_CAP_BITS | T134CCTL_MODE);
    574                *(halTimerChannel[hwtimerid].TxCCTL) |= T134CCTL_CAP_RE;
    575          */
    576                break;
    577          
    578              default:
    579                return HAL_TIMER_INVALID_CH_MODE;
   \                     ??halTimerSetChannelMode_1:
   \   00006D   7905         MOV     R1,#0x5
   \   00006F   8002         SJMP    ??halTimerSetChannelMode_2
    580            }
    581            return HAL_TIMER_OK;
   \                     ??halTimerSetChannelMode_0:
   \   000071   7900         MOV     R1,#0x0
   \                     ??halTimerSetChannelMode_2:
   \   000073   D083         POP     DPH
   \   000075   D082         POP     DPL
   \   000077   02....       LJMP    ?BRET
    582          }
    583          
    584          /***************************************************************************************************
    585           * @fn      HalTimerInterruptEnable
    586           *
    587           * @brief   Setup operate modes
    588           *
    589           * @param   hwtimerid - ID of the timer
    590           *          channelMode - channel mode
    591           *          enable - TRUE or FALSE
    592           *
    593           * @return  Status - OK or Not OK
    594           ***************************************************************************************************/

   \                                 In  segment BANKED_CODE, align 1, keep-with-next
    595          uint8 HalTimerInterruptEnable (uint8 hwtimerid, uint8 channelMode, bool enable)
   \                     HalTimerInterruptEnable:
    596          {
   \   000000   74F7         MOV     A,#-0x9
   \   000002   12....       LCALL   ?BANKED_ENTER_XDATA
   \   000005                ; Saved register size: 9
   \   000005                ; Auto size: 0
   \   000005   E9           MOV     A,R1
   \   000006   FD           MOV     R5,A
    597            switch (channelMode)
   \   000007   EA           MOV     A,R2
   \   000008   14           DEC     A
   \   000009   7003         JNZ     $+5
   \   00000B   02....       LJMP    ??HalTimerInterruptEnable_0 & 0xFFFF
   \   00000E   14           DEC     A
   \   00000F   7003         JNZ     $+5
   \   000011   02....       LJMP    ??HalTimerInterruptEnable_0 & 0xFFFF
   \   000014   24FE         ADD     A,#-0x2
   \   000016   6003         JZ      $+5
   \   000018   02....       LJMP    ??HalTimerInterruptEnable_1 & 0xFFFF
    598            {
    599              case HAL_TIMER_CH_MODE_OVERFLOW:
    600          
    601                if (enable)
   \   00001B   EB           MOV     A,R3
   \   00001C   6055         JZ      ??HalTimerInterruptEnable_2
    602                {
    603                  *(halTimerChannel[hwtimerid].TxOVF) |= halTimerChannel[hwtimerid].ovfbit;
   \   00001E   ED           MOV     A,R5
   \   00001F   F8           MOV     R0,A
   \   000020   7900         MOV     R1,#0x0
   \   000022   E8           MOV     A,R0
   \   000023   75F00A       MOV     B,#0xa
   \   000026   A4           MUL     AB
   \   000027   C8           XCH     A,R0
   \   000028   ACF0         MOV     R4,B
   \   00002A   75F000       MOV     B,#0x0
   \   00002D   A4           MUL     AB
   \   00002E   2C           ADD     A,R4
   \   00002F   FC           MOV     R4,A
   \   000030   75F00A       MOV     B,#0xa
   \   000033   E9           MOV     A,R1
   \   000034   A4           MUL     AB
   \   000035   2C           ADD     A,R4
   \   000036   F9           MOV     R1,A
   \   000037   74..         MOV     A,#(halTimerChannel + 8) & 0xff
   \   000039   28           ADD     A,R0
   \   00003A   F582         MOV     DPL,A
   \   00003C   74..         MOV     A,#((halTimerChannel + 8) >> 8) & 0xff
   \   00003E   39           ADDC    A,R1
   \   00003F   F583         MOV     DPH,A
   \   000041   E0           MOVX    A,@DPTR
   \   000042   FE           MOV     R6,A
   \   000043   ED           MOV     A,R5
   \   000044   F8           MOV     R0,A
   \   000045   7900         MOV     R1,#0x0
   \   000047   E8           MOV     A,R0
   \   000048   75F00A       MOV     B,#0xa
   \   00004B   A4           MUL     AB
   \   00004C   C8           XCH     A,R0
   \   00004D   ACF0         MOV     R4,B
   \   00004F   75F000       MOV     B,#0x0
   \   000052   A4           MUL     AB
   \   000053   2C           ADD     A,R4
   \   000054   FC           MOV     R4,A
   \   000055   75F00A       MOV     B,#0xa
   \   000058   E9           MOV     A,R1
   \   000059   A4           MUL     AB
   \   00005A   2C           ADD     A,R4
   \   00005B   F9           MOV     R1,A
   \   00005C   74..         MOV     A,#(halTimerChannel + 6) & 0xff
   \   00005E   28           ADD     A,R0
   \   00005F   F582         MOV     DPL,A
   \   000061   74..         MOV     A,#((halTimerChannel + 6) >> 8) & 0xff
   \   000063   39           ADDC    A,R1
   \   000064   F583         MOV     DPH,A
   \   000066   E0           MOVX    A,@DPTR
   \   000067   F8           MOV     R0,A
   \   000068   A3           INC     DPTR
   \   000069   E0           MOVX    A,@DPTR
   \   00006A   F583         MOV     DPH,A
   \   00006C   8882         MOV     DPL,R0
   \   00006E   E0           MOVX    A,@DPTR
   \   00006F   4E           ORL     A,R6
   \   000070   F0           MOVX    @DPTR,A
   \   000071   8055         SJMP    ??HalTimerInterruptEnable_3
    604                }
    605                else
    606                {
    607                  *(halTimerChannel[hwtimerid].TxOVF) &= ((halTimerChannel[hwtimerid].ovfbit) ^ 0xFF);
   \                     ??HalTimerInterruptEnable_2:
   \   000073   ED           MOV     A,R5
   \   000074   F8           MOV     R0,A
   \   000075   7900         MOV     R1,#0x0
   \   000077   E8           MOV     A,R0
   \   000078   75F00A       MOV     B,#0xa
   \   00007B   A4           MUL     AB
   \   00007C   C8           XCH     A,R0
   \   00007D   ACF0         MOV     R4,B
   \   00007F   75F000       MOV     B,#0x0
   \   000082   A4           MUL     AB
   \   000083   2C           ADD     A,R4
   \   000084   FC           MOV     R4,A
   \   000085   75F00A       MOV     B,#0xa
   \   000088   E9           MOV     A,R1
   \   000089   A4           MUL     AB
   \   00008A   2C           ADD     A,R4
   \   00008B   F9           MOV     R1,A
   \   00008C   74..         MOV     A,#(halTimerChannel + 8) & 0xff
   \   00008E   28           ADD     A,R0
   \   00008F   F582         MOV     DPL,A
   \   000091   74..         MOV     A,#((halTimerChannel + 8) >> 8) & 0xff
   \   000093   39           ADDC    A,R1
   \   000094   F583         MOV     DPH,A
   \   000096   E0           MOVX    A,@DPTR
   \   000097   64FF         XRL     A,#0xff
   \   000099   FE           MOV     R6,A
   \   00009A   ED           MOV     A,R5
   \   00009B   F8           MOV     R0,A
   \   00009C   7900         MOV     R1,#0x0
   \   00009E   E8           MOV     A,R0
   \   00009F   75F00A       MOV     B,#0xa
   \   0000A2   A4           MUL     AB
   \   0000A3   C8           XCH     A,R0
   \   0000A4   ACF0         MOV     R4,B
   \   0000A6   75F000       MOV     B,#0x0
   \   0000A9   A4           MUL     AB
   \   0000AA   2C           ADD     A,R4
   \   0000AB   FC           MOV     R4,A
   \   0000AC   75F00A       MOV     B,#0xa
   \   0000AF   E9           MOV     A,R1
   \   0000B0   A4           MUL     AB
   \   0000B1   2C           ADD     A,R4
   \   0000B2   F9           MOV     R1,A
   \   0000B3   74..         MOV     A,#(halTimerChannel + 6) & 0xff
   \   0000B5   28           ADD     A,R0
   \   0000B6   F582         MOV     DPL,A
   \   0000B8   74..         MOV     A,#((halTimerChannel + 6) >> 8) & 0xff
   \   0000BA   39           ADDC    A,R1
   \   0000BB   F583         MOV     DPH,A
   \   0000BD   E0           MOVX    A,@DPTR
   \   0000BE   F8           MOV     R0,A
   \   0000BF   A3           INC     DPTR
   \   0000C0   E0           MOVX    A,@DPTR
   \   0000C1   F583         MOV     DPH,A
   \   0000C3   8882         MOV     DPL,R0
   \   0000C5   E0           MOVX    A,@DPTR
   \   0000C6   5E           ANL     A,R6
   \   0000C7   F0           MOVX    @DPTR,A
    608                }
    609                break;
   \                     ??HalTimerInterruptEnable_3:
   \   0000C8   8069         SJMP    ??HalTimerInterruptEnable_4
    610          
    611              case HAL_TIMER_CH_MODE_OUTPUT_COMPARE:
    612              case HAL_TIMER_CH_MODE_INPUT_CAPTURE:
    613          
    614                if (enable)
   \                     ??HalTimerInterruptEnable_0:
   \   0000CA   EB           MOV     A,R3
   \   0000CB   6031         JZ      ??HalTimerInterruptEnable_5
    615                {
    616                  *(halTimerChannel[hwtimerid].TxCCTL) |= T134CCTL_IM;
   \   0000CD   ED           MOV     A,R5
   \   0000CE   F8           MOV     R0,A
   \   0000CF   7900         MOV     R1,#0x0
   \   0000D1   E8           MOV     A,R0
   \   0000D2   75F00A       MOV     B,#0xa
   \   0000D5   A4           MUL     AB
   \   0000D6   C8           XCH     A,R0
   \   0000D7   ACF0         MOV     R4,B
   \   0000D9   75F000       MOV     B,#0x0
   \   0000DC   A4           MUL     AB
   \   0000DD   2C           ADD     A,R4
   \   0000DE   FC           MOV     R4,A
   \   0000DF   75F00A       MOV     B,#0xa
   \   0000E2   E9           MOV     A,R1
   \   0000E3   A4           MUL     AB
   \   0000E4   2C           ADD     A,R4
   \   0000E5   F9           MOV     R1,A
   \   0000E6   74..         MOV     A,#halTimerChannel & 0xff
   \   0000E8   28           ADD     A,R0
   \   0000E9   F582         MOV     DPL,A
   \   0000EB   74..         MOV     A,#(halTimerChannel >> 8) & 0xff
   \   0000ED   39           ADDC    A,R1
   \   0000EE   F583         MOV     DPH,A
   \   0000F0   E0           MOVX    A,@DPTR
   \   0000F1   F8           MOV     R0,A
   \   0000F2   A3           INC     DPTR
   \   0000F3   E0           MOVX    A,@DPTR
   \   0000F4   F583         MOV     DPH,A
   \   0000F6   8882         MOV     DPL,R0
   \   0000F8   E0           MOVX    A,@DPTR
   \   0000F9   D2E6         SETB    0xE0 /* A   */.6
   \   0000FB   F0           MOVX    @DPTR,A
   \   0000FC   8035         SJMP    ??HalTimerInterruptEnable_4
    617                }
    618                else
    619                {
    620                  *(halTimerChannel[hwtimerid].TxCCTL) &= ~(T134CCTL_IM);
   \                     ??HalTimerInterruptEnable_5:
   \   0000FE   ED           MOV     A,R5
   \   0000FF   F8           MOV     R0,A
   \   000100   7900         MOV     R1,#0x0
   \   000102   E8           MOV     A,R0
   \   000103   75F00A       MOV     B,#0xa
   \   000106   A4           MUL     AB
   \   000107   C8           XCH     A,R0
   \   000108   ACF0         MOV     R4,B
   \   00010A   75F000       MOV     B,#0x0
   \   00010D   A4           MUL     AB
   \   00010E   2C           ADD     A,R4
   \   00010F   FC           MOV     R4,A
   \   000110   75F00A       MOV     B,#0xa
   \   000113   E9           MOV     A,R1
   \   000114   A4           MUL     AB
   \   000115   2C           ADD     A,R4
   \   000116   F9           MOV     R1,A
   \   000117   74..         MOV     A,#halTimerChannel & 0xff
   \   000119   28           ADD     A,R0
   \   00011A   F582         MOV     DPL,A
   \   00011C   74..         MOV     A,#(halTimerChannel >> 8) & 0xff
   \   00011E   39           ADDC    A,R1
   \   00011F   F583         MOV     DPH,A
   \   000121   E0           MOVX    A,@DPTR
   \   000122   F8           MOV     R0,A
   \   000123   A3           INC     DPTR
   \   000124   E0           MOVX    A,@DPTR
   \   000125   F583         MOV     DPH,A
   \   000127   8882         MOV     DPL,R0
   \   000129   E0           MOVX    A,@DPTR
   \   00012A   C2E6         CLR     0xE0 /* A   */.6
   \   00012C   F0           MOVX    @DPTR,A
    621                }
    622                break;
   \   00012D   8004         SJMP    ??HalTimerInterruptEnable_4
    623          
    624              default:
    625                return HAL_TIMER_INVALID_CH_MODE;
   \                     ??HalTimerInterruptEnable_1:
   \   00012F   7905         MOV     R1,#0x5
   \   000131   8078         SJMP    ??HalTimerInterruptEnable_6
    626            }
    627          
    628            if (halTimerRecord[hwtimerid].intEnable)
   \                     ??HalTimerInterruptEnable_4:
   \   000133   ED           MOV     A,R5
   \   000134   F8           MOV     R0,A
   \   000135   7900         MOV     R1,#0x0
   \   000137   E8           MOV     A,R0
   \   000138   75F00A       MOV     B,#0xa
   \   00013B   A4           MUL     AB
   \   00013C   C8           XCH     A,R0
   \   00013D   ACF0         MOV     R4,B
   \   00013F   75F000       MOV     B,#0x0
   \   000142   A4           MUL     AB
   \   000143   2C           ADD     A,R4
   \   000144   FC           MOV     R4,A
   \   000145   75F00A       MOV     B,#0xa
   \   000148   E9           MOV     A,R1
   \   000149   A4           MUL     AB
   \   00014A   2C           ADD     A,R4
   \   00014B   F9           MOV     R1,A
   \   00014C   74..         MOV     A,#(halTimerRecord + 1) & 0xff
   \   00014E   28           ADD     A,R0
   \   00014F   F582         MOV     DPL,A
   \   000151   74..         MOV     A,#((halTimerRecord + 1) >> 8) & 0xff
   \   000153   39           ADDC    A,R1
   \   000154   F583         MOV     DPH,A
   \   000156   E0           MOVX    A,@DPTR
   \   000157   6028         JZ      ??HalTimerInterruptEnable_7
    629            {
    630              IEN1 |= halTimerChannel[hwtimerid].intbit;
   \   000159   ED           MOV     A,R5
   \   00015A   F8           MOV     R0,A
   \   00015B   7900         MOV     R1,#0x0
   \   00015D   E8           MOV     A,R0
   \   00015E   75F00A       MOV     B,#0xa
   \   000161   A4           MUL     AB
   \   000162   C8           XCH     A,R0
   \   000163   ACF0         MOV     R4,B
   \   000165   75F000       MOV     B,#0x0
   \   000168   A4           MUL     AB
   \   000169   2C           ADD     A,R4
   \   00016A   FC           MOV     R4,A
   \   00016B   75F00A       MOV     B,#0xa
   \   00016E   E9           MOV     A,R1
   \   00016F   A4           MUL     AB
   \   000170   2C           ADD     A,R4
   \   000171   F9           MOV     R1,A
   \   000172   74..         MOV     A,#(halTimerChannel + 9) & 0xff
   \   000174   28           ADD     A,R0
   \   000175   F582         MOV     DPL,A
   \   000177   74..         MOV     A,#((halTimerChannel + 9) >> 8) & 0xff
   \   000179   39           ADDC    A,R1
   \   00017A   F583         MOV     DPH,A
   \   00017C   E0           MOVX    A,@DPTR
   \   00017D   42B8         ORL     0xb8,A
   \   00017F   8028         SJMP    ??HalTimerInterruptEnable_8
    631            }
    632            else
    633            {
    634              IEN1 &= ((halTimerChannel[hwtimerid].intbit) ^ 0xFF);
   \                     ??HalTimerInterruptEnable_7:
   \   000181   ED           MOV     A,R5
   \   000182   F8           MOV     R0,A
   \   000183   7900         MOV     R1,#0x0
   \   000185   E8           MOV     A,R0
   \   000186   75F00A       MOV     B,#0xa
   \   000189   A4           MUL     AB
   \   00018A   C8           XCH     A,R0
   \   00018B   ACF0         MOV     R4,B
   \   00018D   75F000       MOV     B,#0x0
   \   000190   A4           MUL     AB
   \   000191   2C           ADD     A,R4
   \   000192   FC           MOV     R4,A
   \   000193   75F00A       MOV     B,#0xa
   \   000196   E9           MOV     A,R1
   \   000197   A4           MUL     AB
   \   000198   2C           ADD     A,R4
   \   000199   F9           MOV     R1,A
   \   00019A   74..         MOV     A,#(halTimerChannel + 9) & 0xff
   \   00019C   28           ADD     A,R0
   \   00019D   F582         MOV     DPL,A
   \   00019F   74..         MOV     A,#((halTimerChannel + 9) >> 8) & 0xff
   \   0001A1   39           ADDC    A,R1
   \   0001A2   F583         MOV     DPH,A
   \   0001A4   E0           MOVX    A,@DPTR
   \   0001A5   64FF         XRL     A,#0xff
   \   0001A7   52B8         ANL     0xb8,A
    635            }
    636            return HAL_TIMER_OK;
   \                     ??HalTimerInterruptEnable_8:
   \   0001A9   7900         MOV     R1,#0x0
   \                     ??HalTimerInterruptEnable_6:
   \   0001AB   7F01         MOV     R7,#0x1
   \   0001AD   02....       LJMP    ?BANKED_LEAVE_XDATA
   \   0001B0                REQUIRE _A_IEN1
    637          }
    638          
    639          /***************************************************************************************************
    640           * @fn      halTimerSendCallBack
    641           *
    642           * @brief   Send Callback back to the caller
    643           *
    644           * @param   timerId - ID of the timer
    645           *          channel - channel where the interrupt occurs
    646           *          channelMode - channel mode
    647           *
    648           *
    649           * @return  None
    650           ***************************************************************************************************/

   \                                 In  segment BANKED_CODE, align 1, keep-with-next
    651          void halTimerSendCallBack (uint8 timerId, uint8 channel, uint8 channelMode)
   \                     halTimerSendCallBack:
    652          {
   \   000000   74F6         MOV     A,#-0xa
   \   000002   12....       LCALL   ?BANKED_ENTER_XDATA
   \   000005                ; Saved register size: 10
   \   000005                ; Auto size: 0
   \   000005   E9           MOV     A,R1
   \   000006   FE           MOV     R6,A
   \   000007   8A..         MOV     ?V0 + 0,R2
   \   000009   EB           MOV     A,R3
   \   00000A   FF           MOV     R7,A
    653            uint8 hwtimerid;
    654          
    655            hwtimerid = halTimerRemap (timerId);
   \   00000B                ; Setup parameters for call to function halTimerRemap
   \   00000B   EE           MOV     A,R6
   \   00000C   F9           MOV     R1,A
   \   00000D   12....       LCALL   ??halTimerRemap?relay
   \   000010   E9           MOV     A,R1
   \   000011   F5..         MOV     ?V0 + 1,A
    656          
    657            if (halTimerRecord[hwtimerid].callBackFunc)
   \   000013   E5..         MOV     A,?V0 + 1
   \   000015   A8..         MOV     R0,?V0 + 1
   \   000017   7900         MOV     R1,#0x0
   \   000019   E8           MOV     A,R0
   \   00001A   75F00A       MOV     B,#0xa
   \   00001D   A4           MUL     AB
   \   00001E   C8           XCH     A,R0
   \   00001F   AAF0         MOV     R2,B
   \   000021   75F000       MOV     B,#0x0
   \   000024   A4           MUL     AB
   \   000025   2A           ADD     A,R2
   \   000026   FA           MOV     R2,A
   \   000027   75F00A       MOV     B,#0xa
   \   00002A   E9           MOV     A,R1
   \   00002B   A4           MUL     AB
   \   00002C   2A           ADD     A,R2
   \   00002D   F9           MOV     R1,A
   \   00002E   74..         MOV     A,#(halTimerRecord + 8) & 0xff
   \   000030   28           ADD     A,R0
   \   000031   F582         MOV     DPL,A
   \   000033   74..         MOV     A,#((halTimerRecord + 8) >> 8) & 0xff
   \   000035   39           ADDC    A,R1
   \   000036   F583         MOV     DPH,A
   \   000038   E0           MOVX    A,@DPTR
   \   000039   F8           MOV     R0,A
   \   00003A   A3           INC     DPTR
   \   00003B   E0           MOVX    A,@DPTR
   \   00003C   F9           MOV     R1,A
   \   00003D   E8           MOV     A,R0
   \   00003E   49           ORL     A,R1
   \   00003F   603C         JZ      ??halTimerSendCallBack_0
    658              (halTimerRecord[hwtimerid].callBackFunc) (timerId, channel, channelMode);
   \   000041                ; Setup parameters for indirect call
   \   000041   EF           MOV     A,R7
   \   000042   FB           MOV     R3,A
   \   000043   AA..         MOV     R2,?V0 + 0
   \   000045   EE           MOV     A,R6
   \   000046   F9           MOV     R1,A
   \   000047   E9           MOV     A,R1
   \   000048   FC           MOV     R4,A
   \   000049   F9           MOV     R1,A
   \   00004A   E5..         MOV     A,?V0 + 1
   \   00004C   A8..         MOV     R0,?V0 + 1
   \   00004E   7900         MOV     R1,#0x0
   \   000050   E8           MOV     A,R0
   \   000051   75F00A       MOV     B,#0xa
   \   000054   A4           MUL     AB
   \   000055   C8           XCH     A,R0
   \   000056   ADF0         MOV     R5,B
   \   000058   75F000       MOV     B,#0x0
   \   00005B   A4           MUL     AB
   \   00005C   2D           ADD     A,R5
   \   00005D   FD           MOV     R5,A
   \   00005E   75F00A       MOV     B,#0xa
   \   000061   E9           MOV     A,R1
   \   000062   A4           MUL     AB
   \   000063   2D           ADD     A,R5
   \   000064   F9           MOV     R1,A
   \   000065   74..         MOV     A,#(halTimerRecord + 8) & 0xff
   \   000067   28           ADD     A,R0
   \   000068   F582         MOV     DPL,A
   \   00006A   74..         MOV     A,#((halTimerRecord + 8) >> 8) & 0xff
   \   00006C   39           ADDC    A,R1
   \   00006D   F583         MOV     DPH,A
   \   00006F   E0           MOVX    A,@DPTR
   \   000070   F8           MOV     R0,A
   \   000071   A3           INC     DPTR
   \   000072   E0           MOVX    A,@DPTR
   \   000073   F583         MOV     DPH,A
   \   000075   8882         MOV     DPL,R0
   \   000077   EC           MOV     A,R4
   \   000078   F9           MOV     R1,A
   \   000079   FC           MOV     R4,A
   \   00007A   12....       LCALL   ?CALL_IND
    659          }
   \                     ??halTimerSendCallBack_0:
   \   00007D   7F02         MOV     R7,#0x2
   \   00007F   02....       LJMP    ?BANKED_LEAVE_XDATA
    660          
    661          /***************************************************************************************************
    662           * @fn      halTimerRemap
    663           *
    664           * @brief   Maps API HAL_TIMER_ID to HW Timer ID.
    665           *          HAL_TIMER_0 --> HW Timer 3 8bit
    666           *          HAL_TIMER_2 --> HW Timer 4 8bit
    667           *          HAL_TIMER_3 --> HW Timer 1 16bit
    668           *
    669           * @param   timerId - ID of the timer
    670           *
    671           * @return  HW timer ID
    672           ***************************************************************************************************/

   \                                 In  segment BANKED_CODE, align 1, keep-with-next
    673          uint8 halTimerRemap (uint8 timerId)
   \                     halTimerRemap:
    674          {
   \   000000                ; Saved register size: 0
   \   000000                ; Auto size: 0
   \   000000   E9           MOV     A,R1
   \   000001   F8           MOV     R0,A
    675            switch (timerId)
   \   000002   6009         JZ      ??halTimerRemap_0
   \   000004   24FE         ADD     A,#-0x2
   \   000006   6009         JZ      ??halTimerRemap_1
   \   000008   14           DEC     A
   \   000009   600A         JZ      ??halTimerRemap_2
   \   00000B   800C         SJMP    ??halTimerRemap_3
    676            {
    677              case HAL_TIMER_0:
    678                return HW_TIMER_3;
   \                     ??halTimerRemap_0:
   \   00000D   7901         MOV     R1,#0x1
   \   00000F   800A         SJMP    ??halTimerRemap_4
    679              case HAL_TIMER_2:
    680                return HW_TIMER_4;
   \                     ??halTimerRemap_1:
   \   000011   7902         MOV     R1,#0x2
   \   000013   8006         SJMP    ??halTimerRemap_4
    681              case HAL_TIMER_3:
    682                return HW_TIMER_1;
   \                     ??halTimerRemap_2:
   \   000015   7900         MOV     R1,#0x0
   \   000017   8002         SJMP    ??halTimerRemap_4
    683              default:
    684                return HW_TIMER_INVALID;
   \                     ??halTimerRemap_3:
   \   000019   7903         MOV     R1,#0x3
   \                     ??halTimerRemap_4:
   \   00001B   02....       LJMP    ?BRET
    685            }
    686          }
    687          
    688          /***************************************************************************************************
    689           * @fn      halProcessTimer1
    690           *
    691           * @brief   Processes Timer 1 Events.
    692           *
    693           * @param
    694           *
    695           * @return
    696           ***************************************************************************************************/

   \                                 In  segment BANKED_CODE, align 1, keep-with-next
    697          void halProcessTimer1 (void)
   \                     halProcessTimer1:
    698          {
   \   000000   C082         PUSH    DPL
   \   000002   C083         PUSH    DPH
   \   000004                ; Saved register size: 2
   \   000004                ; Auto size: 0
    699            if (halTimerRecord[halTimerRemap(HAL_TIMER_3)].channelMode == HAL_TIMER_CH_MODE_OUTPUT_COMPARE)
   \   000004                ; Setup parameters for call to function halTimerRemap
   \   000004   7903         MOV     R1,#0x3
   \   000006   12....       LCALL   ??halTimerRemap?relay
   \   000009   E9           MOV     A,R1
   \   00000A   F8           MOV     R0,A
   \   00000B   7900         MOV     R1,#0x0
   \   00000D   E8           MOV     A,R0
   \   00000E   75F00A       MOV     B,#0xa
   \   000011   A4           MUL     AB
   \   000012   C8           XCH     A,R0
   \   000013   AAF0         MOV     R2,B
   \   000015   75F000       MOV     B,#0x0
   \   000018   A4           MUL     AB
   \   000019   2A           ADD     A,R2
   \   00001A   FA           MOV     R2,A
   \   00001B   75F00A       MOV     B,#0xa
   \   00001E   E9           MOV     A,R1
   \   00001F   A4           MUL     AB
   \   000020   2A           ADD     A,R2
   \   000021   F9           MOV     R1,A
   \   000022   74..         MOV     A,#(halTimerRecord + 4) & 0xff
   \   000024   28           ADD     A,R0
   \   000025   F582         MOV     DPL,A
   \   000027   74..         MOV     A,#((halTimerRecord + 4) >> 8) & 0xff
   \   000029   39           ADDC    A,R1
   \   00002A   F583         MOV     DPH,A
   \   00002C   E0           MOVX    A,@DPTR
   \   00002D   6402         XRL     A,#0x2
   \   00002F   7038         JNZ     ??halProcessTimer1_0
    700            {
    701              if (T1CTL & T1CTL_CH0IF)
   \   000031   E5E4         MOV     A,0xe4
   \   000033   A2E5         MOV     C,0xE0 /* A   */.5
   \   000035   500C         JNC     ??halProcessTimer1_1
    702              {
    703                T1CTL &= ~(T1CTL_CH0IF);
   \   000037   53E4DF       ANL     0xe4,#0xdf
    704                halTimerSendCallBack (HAL_TIMER_3, HAL_TIMER_CHANNEL_A, HAL_TIMER_CH_MODE_OUTPUT_COMPARE);
   \   00003A                ; Setup parameters for call to function halTimerSendCallBack
   \   00003A   7B02         MOV     R3,#0x2
   \   00003C   7A02         MOV     R2,#0x2
   \   00003E   7903         MOV     R1,#0x3
   \   000040   12....       LCALL   ??halTimerSendCallBack?relay
    705              }
    706              if (T1CTL & T1CTL_CH1IF)
   \                     ??halProcessTimer1_1:
   \   000043   E5E4         MOV     A,0xe4
   \   000045   A2E6         MOV     C,0xE0 /* A   */.6
   \   000047   500C         JNC     ??halProcessTimer1_2
    707              {
    708                T1CTL &= ~(T1CTL_CH1IF);
   \   000049   53E4BF       ANL     0xe4,#0xbf
    709                halTimerSendCallBack (HAL_TIMER_3, HAL_TIMER_CHANNEL_B, HAL_TIMER_CH_MODE_OUTPUT_COMPARE);
   \   00004C                ; Setup parameters for call to function halTimerSendCallBack
   \   00004C   7B02         MOV     R3,#0x2
   \   00004E   7A04         MOV     R2,#0x4
   \   000050   7903         MOV     R1,#0x3
   \   000052   12....       LCALL   ??halTimerSendCallBack?relay
    710              }
    711              if (T1CTL & T1CTL_CH2IF)
   \                     ??halProcessTimer1_2:
   \   000055   E5E4         MOV     A,0xe4
   \   000057   A2E7         MOV     C,0xE0 /* A   */.7
   \   000059   504D         JNC     ??halProcessTimer1_3
    712              {
    713                T1CTL &= ~(T1CTL_CH2IF);
   \   00005B   53E47F       ANL     0xe4,#0x7f
    714                halTimerSendCallBack (HAL_TIMER_3, HAL_TIMER_CHANNEL_C, HAL_TIMER_CH_MODE_OUTPUT_COMPARE);
   \   00005E                ; Setup parameters for call to function halTimerSendCallBack
   \   00005E   7B02         MOV     R3,#0x2
   \   000060   7A08         MOV     R2,#0x8
   \   000062   7903         MOV     R1,#0x3
   \   000064   12....       LCALL   ??halTimerSendCallBack?relay
   \   000067   803F         SJMP    ??halProcessTimer1_3
    715              }
    716            }
    717            else if (halTimerRecord[halTimerRemap(HAL_TIMER_3)].channelMode == HAL_TIMER_CH_MODE_OVERFLOW)
   \                     ??halProcessTimer1_0:
   \   000069                ; Setup parameters for call to function halTimerRemap
   \   000069   7903         MOV     R1,#0x3
   \   00006B   12....       LCALL   ??halTimerRemap?relay
   \   00006E   E9           MOV     A,R1
   \   00006F   F8           MOV     R0,A
   \   000070   7900         MOV     R1,#0x0
   \   000072   E8           MOV     A,R0
   \   000073   75F00A       MOV     B,#0xa
   \   000076   A4           MUL     AB
   \   000077   C8           XCH     A,R0
   \   000078   AAF0         MOV     R2,B
   \   00007A   75F000       MOV     B,#0x0
   \   00007D   A4           MUL     AB
   \   00007E   2A           ADD     A,R2
   \   00007F   FA           MOV     R2,A
   \   000080   75F00A       MOV     B,#0xa
   \   000083   E9           MOV     A,R1
   \   000084   A4           MUL     AB
   \   000085   2A           ADD     A,R2
   \   000086   F9           MOV     R1,A
   \   000087   74..         MOV     A,#(halTimerRecord + 4) & 0xff
   \   000089   28           ADD     A,R0
   \   00008A   F582         MOV     DPL,A
   \   00008C   74..         MOV     A,#((halTimerRecord + 4) >> 8) & 0xff
   \   00008E   39           ADDC    A,R1
   \   00008F   F583         MOV     DPH,A
   \   000091   E0           MOVX    A,@DPTR
   \   000092   6404         XRL     A,#0x4
   \   000094   7012         JNZ     ??halProcessTimer1_3
    718            {
    719              if (T1CTL & T1CTL_OVFIF)
   \   000096   E5E4         MOV     A,0xe4
   \   000098   A2E4         MOV     C,0xE0 /* A   */.4
   \   00009A   500C         JNC     ??halProcessTimer1_3
    720              {
    721                T1CTL &= ~(T1CTL_OVFIF);
   \   00009C   53E4EF       ANL     0xe4,#0xef
    722                halTimerSendCallBack (HAL_TIMER_3, HAL_TIMER_CHANNEL_SINGLE, HAL_TIMER_CH_MODE_OVERFLOW);
   \   00009F                ; Setup parameters for call to function halTimerSendCallBack
   \   00009F   7B04         MOV     R3,#0x4
   \   0000A1   7A01         MOV     R2,#0x1
   \   0000A3   7903         MOV     R1,#0x3
   \   0000A5   12....       LCALL   ??halTimerSendCallBack?relay
    723              }
    724            }
    725          }
   \                     ??halProcessTimer1_3:
   \   0000A8   D083         POP     DPH
   \   0000AA   D082         POP     DPL
   \   0000AC   02....       LJMP    ?BRET
   \   0000AF                REQUIRE T1CTL
    726          
    727          /***************************************************************************************************
    728           * @fn      halProcessTimer3
    729           *
    730           * @brief   Processes Timer 3 Events.
    731           *
    732           * @param
    733           *
    734           * @return
    735           ***************************************************************************************************/

   \                                 In  segment BANKED_CODE, align 1, keep-with-next
    736          void halProcessTimer3 (void)
   \                     halProcessTimer3:
    737          {
   \   000000   C082         PUSH    DPL
   \   000002   C083         PUSH    DPH
   \   000004                ; Saved register size: 2
   \   000004                ; Auto size: 0
    738            if (halTimerRecord[halTimerRemap(HAL_TIMER_0)].channelMode == HAL_TIMER_CH_MODE_OUTPUT_COMPARE)
   \   000004                ; Setup parameters for call to function halTimerRemap
   \   000004   7900         MOV     R1,#0x0
   \   000006   12....       LCALL   ??halTimerRemap?relay
   \   000009   E9           MOV     A,R1
   \   00000A   F8           MOV     R0,A
   \   00000B   7900         MOV     R1,#0x0
   \   00000D   E8           MOV     A,R0
   \   00000E   75F00A       MOV     B,#0xa
   \   000011   A4           MUL     AB
   \   000012   C8           XCH     A,R0
   \   000013   AAF0         MOV     R2,B
   \   000015   75F000       MOV     B,#0x0
   \   000018   A4           MUL     AB
   \   000019   2A           ADD     A,R2
   \   00001A   FA           MOV     R2,A
   \   00001B   75F00A       MOV     B,#0xa
   \   00001E   E9           MOV     A,R1
   \   00001F   A4           MUL     AB
   \   000020   2A           ADD     A,R2
   \   000021   F9           MOV     R1,A
   \   000022   74..         MOV     A,#(halTimerRecord + 4) & 0xff
   \   000024   28           ADD     A,R0
   \   000025   F582         MOV     DPL,A
   \   000027   74..         MOV     A,#((halTimerRecord + 4) >> 8) & 0xff
   \   000029   39           ADDC    A,R1
   \   00002A   F583         MOV     DPH,A
   \   00002C   E0           MOVX    A,@DPTR
   \   00002D   6402         XRL     A,#0x2
   \   00002F   7020         JNZ     ??halProcessTimer3_0
    739            {
    740              if (TIMIF & TIMIF_T3CH0IF)
   \   000031   A2D9         MOV     C,0xd8.1
   \   000033   500B         JNC     ??halProcessTimer3_1
    741              {
    742                TIMIF &= ~(TIMIF_T3CH0IF);
   \   000035   C2D9         CLR     0xd8.1
    743                halTimerSendCallBack (HAL_TIMER_0, HAL_TIMER_CHANNEL_A, HAL_TIMER_CH_MODE_OUTPUT_COMPARE);
   \   000037                ; Setup parameters for call to function halTimerSendCallBack
   \   000037   7B02         MOV     R3,#0x2
   \   000039   7A02         MOV     R2,#0x2
   \   00003B   7900         MOV     R1,#0x0
   \   00003D   12....       LCALL   ??halTimerSendCallBack?relay
    744              }
    745              if (TIMIF & TIMIF_T3CH1IF)
   \                     ??halProcessTimer3_1:
   \   000040   A2DA         MOV     C,0xd8.2
   \   000042   5049         JNC     ??halProcessTimer3_2
    746              {
    747                TIMIF &= ~(TIMIF_T3CH1IF);
   \   000044   C2DA         CLR     0xd8.2
    748                halTimerSendCallBack (HAL_TIMER_0, HAL_TIMER_CHANNEL_B, HAL_TIMER_CH_MODE_OUTPUT_COMPARE);
   \   000046                ; Setup parameters for call to function halTimerSendCallBack
   \   000046   7B02         MOV     R3,#0x2
   \   000048   7A04         MOV     R2,#0x4
   \   00004A   7900         MOV     R1,#0x0
   \   00004C   12....       LCALL   ??halTimerSendCallBack?relay
   \   00004F   803C         SJMP    ??halProcessTimer3_2
    749              }
    750            }
    751            else if (halTimerRecord[halTimerRemap(HAL_TIMER_0)].channelMode == HAL_TIMER_CH_MODE_OVERFLOW)
   \                     ??halProcessTimer3_0:
   \   000051                ; Setup parameters for call to function halTimerRemap
   \   000051   7900         MOV     R1,#0x0
   \   000053   12....       LCALL   ??halTimerRemap?relay
   \   000056   E9           MOV     A,R1
   \   000057   F8           MOV     R0,A
   \   000058   7900         MOV     R1,#0x0
   \   00005A   E8           MOV     A,R0
   \   00005B   75F00A       MOV     B,#0xa
   \   00005E   A4           MUL     AB
   \   00005F   C8           XCH     A,R0
   \   000060   AAF0         MOV     R2,B
   \   000062   75F000       MOV     B,#0x0
   \   000065   A4           MUL     AB
   \   000066   2A           ADD     A,R2
   \   000067   FA           MOV     R2,A
   \   000068   75F00A       MOV     B,#0xa
   \   00006B   E9           MOV     A,R1
   \   00006C   A4           MUL     AB
   \   00006D   2A           ADD     A,R2
   \   00006E   F9           MOV     R1,A
   \   00006F   74..         MOV     A,#(halTimerRecord + 4) & 0xff
   \   000071   28           ADD     A,R0
   \   000072   F582         MOV     DPL,A
   \   000074   74..         MOV     A,#((halTimerRecord + 4) >> 8) & 0xff
   \   000076   39           ADDC    A,R1
   \   000077   F583         MOV     DPH,A
   \   000079   E0           MOVX    A,@DPTR
   \   00007A   6404         XRL     A,#0x4
   \   00007C   700F         JNZ     ??halProcessTimer3_2
    752            {
    753              if (TIMIF & TIMIF_T3OVFIF)
   \   00007E   A2D8         MOV     C,0xd8.0
   \   000080   500B         JNC     ??halProcessTimer3_2
    754              {
    755                TIMIF &= ~(TIMIF_T3OVFIF);
   \   000082   C2D8         CLR     0xd8.0
    756                halTimerSendCallBack (HAL_TIMER_0, HAL_TIMER_CHANNEL_SINGLE, HAL_TIMER_CH_MODE_OVERFLOW);
   \   000084                ; Setup parameters for call to function halTimerSendCallBack
   \   000084   7B04         MOV     R3,#0x4
   \   000086   7A01         MOV     R2,#0x1
   \   000088   7900         MOV     R1,#0x0
   \   00008A   12....       LCALL   ??halTimerSendCallBack?relay
    757              }
    758            }
    759          }
   \                     ??halProcessTimer3_2:
   \   00008D   D083         POP     DPH
   \   00008F   D082         POP     DPL
   \   000091   02....       LJMP    ?BRET
   \   000094                REQUIRE _A_TIMIF
    760          
    761          /***************************************************************************************************
    762           * @fn      halProcessTimer4
    763           *
    764           * @brief   Processes Timer 4 Events.
    765           *
    766           * @param
    767           *
    768           * @return
    769           ***************************************************************************************************/

   \                                 In  segment BANKED_CODE, align 1, keep-with-next
    770          void halProcessTimer4 (void)
   \                     halProcessTimer4:
    771          {
   \   000000   C082         PUSH    DPL
   \   000002   C083         PUSH    DPH
   \   000004                ; Saved register size: 2
   \   000004                ; Auto size: 0
    772            if (halTimerRecord[halTimerRemap(HAL_TIMER_2)].channelMode == HAL_TIMER_CH_MODE_OUTPUT_COMPARE)
   \   000004                ; Setup parameters for call to function halTimerRemap
   \   000004   7902         MOV     R1,#0x2
   \   000006   12....       LCALL   ??halTimerRemap?relay
   \   000009   E9           MOV     A,R1
   \   00000A   F8           MOV     R0,A
   \   00000B   7900         MOV     R1,#0x0
   \   00000D   E8           MOV     A,R0
   \   00000E   75F00A       MOV     B,#0xa
   \   000011   A4           MUL     AB
   \   000012   C8           XCH     A,R0
   \   000013   AAF0         MOV     R2,B
   \   000015   75F000       MOV     B,#0x0
   \   000018   A4           MUL     AB
   \   000019   2A           ADD     A,R2
   \   00001A   FA           MOV     R2,A
   \   00001B   75F00A       MOV     B,#0xa
   \   00001E   E9           MOV     A,R1
   \   00001F   A4           MUL     AB
   \   000020   2A           ADD     A,R2
   \   000021   F9           MOV     R1,A
   \   000022   74..         MOV     A,#(halTimerRecord + 4) & 0xff
   \   000024   28           ADD     A,R0
   \   000025   F582         MOV     DPL,A
   \   000027   74..         MOV     A,#((halTimerRecord + 4) >> 8) & 0xff
   \   000029   39           ADDC    A,R1
   \   00002A   F583         MOV     DPH,A
   \   00002C   E0           MOVX    A,@DPTR
   \   00002D   6402         XRL     A,#0x2
   \   00002F   7020         JNZ     ??halProcessTimer4_0
    773            {
    774              if (TIMIF & TIMIF_T4CH0IF)
   \   000031   A2DC         MOV     C,0xd8.4
   \   000033   500B         JNC     ??halProcessTimer4_1
    775              {
    776                TIMIF &= ~(TIMIF_T4CH0IF);
   \   000035   C2DC         CLR     0xd8.4
    777                halTimerSendCallBack (HAL_TIMER_2, HAL_TIMER_CHANNEL_A, HAL_TIMER_CH_MODE_OUTPUT_COMPARE);
   \   000037                ; Setup parameters for call to function halTimerSendCallBack
   \   000037   7B02         MOV     R3,#0x2
   \   000039   7A02         MOV     R2,#0x2
   \   00003B   7902         MOV     R1,#0x2
   \   00003D   12....       LCALL   ??halTimerSendCallBack?relay
    778              }
    779              if (TIMIF & TIMIF_T4CH1IF)
   \                     ??halProcessTimer4_1:
   \   000040   A2DD         MOV     C,0xd8.5
   \   000042   5049         JNC     ??halProcessTimer4_2
    780              {
    781                TIMIF &= ~(TIMIF_T4CH1IF);
   \   000044   C2DD         CLR     0xd8.5
    782                halTimerSendCallBack (HAL_TIMER_2, HAL_TIMER_CHANNEL_B, HAL_TIMER_CH_MODE_OUTPUT_COMPARE);
   \   000046                ; Setup parameters for call to function halTimerSendCallBack
   \   000046   7B02         MOV     R3,#0x2
   \   000048   7A04         MOV     R2,#0x4
   \   00004A   7902         MOV     R1,#0x2
   \   00004C   12....       LCALL   ??halTimerSendCallBack?relay
   \   00004F   803C         SJMP    ??halProcessTimer4_2
    783              }
    784            }
    785            else if (halTimerRecord[halTimerRemap(HAL_TIMER_2)].channelMode == HAL_TIMER_CH_MODE_OVERFLOW)
   \                     ??halProcessTimer4_0:
   \   000051                ; Setup parameters for call to function halTimerRemap
   \   000051   7902         MOV     R1,#0x2
   \   000053   12....       LCALL   ??halTimerRemap?relay
   \   000056   E9           MOV     A,R1
   \   000057   F8           MOV     R0,A
   \   000058   7900         MOV     R1,#0x0
   \   00005A   E8           MOV     A,R0
   \   00005B   75F00A       MOV     B,#0xa
   \   00005E   A4           MUL     AB
   \   00005F   C8           XCH     A,R0
   \   000060   AAF0         MOV     R2,B
   \   000062   75F000       MOV     B,#0x0
   \   000065   A4           MUL     AB
   \   000066   2A           ADD     A,R2
   \   000067   FA           MOV     R2,A
   \   000068   75F00A       MOV     B,#0xa
   \   00006B   E9           MOV     A,R1
   \   00006C   A4           MUL     AB
   \   00006D   2A           ADD     A,R2
   \   00006E   F9           MOV     R1,A
   \   00006F   74..         MOV     A,#(halTimerRecord + 4) & 0xff
   \   000071   28           ADD     A,R0
   \   000072   F582         MOV     DPL,A
   \   000074   74..         MOV     A,#((halTimerRecord + 4) >> 8) & 0xff
   \   000076   39           ADDC    A,R1
   \   000077   F583         MOV     DPH,A
   \   000079   E0           MOVX    A,@DPTR
   \   00007A   6404         XRL     A,#0x4
   \   00007C   700F         JNZ     ??halProcessTimer4_2
    786            if (TIMIF & TIMIF_T4OVFIF)
   \   00007E   A2DB         MOV     C,0xd8.3
   \   000080   500B         JNC     ??halProcessTimer4_2
    787            {
    788              TIMIF &= ~(TIMIF_T4OVFIF);
   \   000082   C2DB         CLR     0xd8.3
    789              halTimerSendCallBack (HAL_TIMER_2, HAL_TIMER_CHANNEL_SINGLE, HAL_TIMER_CH_MODE_OVERFLOW);
   \   000084                ; Setup parameters for call to function halTimerSendCallBack
   \   000084   7B04         MOV     R3,#0x4
   \   000086   7A01         MOV     R2,#0x1
   \   000088   7902         MOV     R1,#0x2
   \   00008A   12....       LCALL   ??halTimerSendCallBack?relay
    790            }
    791          }
   \                     ??halProcessTimer4_2:
   \   00008D   D083         POP     DPH
   \   00008F   D082         POP     DPL
   \   000091   02....       LJMP    ?BRET
   \   000094                REQUIRE _A_TIMIF
    792          
    793          /***************************************************************************************************
    794           *                                    INTERRUPT SERVICE ROUTINE
    795           ***************************************************************************************************/
    796          
    797          /**************************************************************************************************
    798           * @fn      halTimer1Isr
    799           *
    800           * @brief   Timer 1 ISR
    801           *
    802           * @param
    803           *
    804           * @return
    805           **************************************************************************************************/

   \                                 In  segment NEAR_CODE, align 1, keep-with-next
    806          HAL_ISR_FUNCTION( halTimer1Isr, T1_VECTOR )
   \                     halTimer1Isr:
    807          {
   \   000000   C0E0         PUSH    A
   \   000002   74F2         MOV     A,#-0xe
   \   000004   12....       LCALL   ?INTERRUPT_ENTER_XSP
   \   000007                ; Saved register size: 14
   \   000007                ; Auto size: 0
    808            halProcessTimer1 ();
   \   000007                ; Setup parameters for call to function halProcessTimer1
   \   000007   12....       LCALL   ??halProcessTimer1?relay
    809          }
   \   00000A   7F01         MOV     R7,#0x1
   \   00000C   02....       LJMP    ?INTERRUPT_LEAVE_XSP
    810          
    811          /**************************************************************************************************
    812           * @fn      halTimer3Isr
    813           *
    814           * @brief   Timer 3 ISR
    815           *
    816           * @param
    817           *
    818           * @return
    819           **************************************************************************************************/

   \                                 In  segment NEAR_CODE, align 1, keep-with-next
    820          HAL_ISR_FUNCTION( halTimer3Isr, T3_VECTOR )
   \                     halTimer3Isr:
    821          {
   \   000000   C0E0         PUSH    A
   \   000002   74F2         MOV     A,#-0xe
   \   000004   12....       LCALL   ?INTERRUPT_ENTER_XSP
   \   000007                ; Saved register size: 14
   \   000007                ; Auto size: 0
    822            halProcessTimer3 ();
   \   000007                ; Setup parameters for call to function halProcessTimer3
   \   000007   12....       LCALL   ??halProcessTimer3?relay
    823          }
   \   00000A   7F01         MOV     R7,#0x1
   \   00000C   02....       LJMP    ?INTERRUPT_LEAVE_XSP
    824          
    825          /**************************************************************************************************
    826           * @fn      halTimer4Isr
    827           *
    828           * @brief   Timer 4 ISR
    829           *
    830           * @param
    831           *
    832           * @return
    833           **************************************************************************************************/

   \                                 In  segment NEAR_CODE, align 1, keep-with-next
    834          HAL_ISR_FUNCTION( halTimer4Isr, T4_VECTOR )
   \                     halTimer4Isr:
    835          {
   \   000000   C0E0         PUSH    A
   \   000002   74F2         MOV     A,#-0xe
   \   000004   12....       LCALL   ?INTERRUPT_ENTER_XSP
   \   000007                ; Saved register size: 14
   \   000007                ; Auto size: 0
    836            halProcessTimer4 ();
   \   000007                ; Setup parameters for call to function halProcessTimer4
   \   000007   12....       LCALL   ??halProcessTimer4?relay
    837          }
   \   00000A   7F01         MOV     R7,#0x1
   \   00000C   02....       LJMP    ?INTERRUPT_LEAVE_XSP

   \                                 In  segment INTVEC, offset 0x4b, root
   \                     `??halTimer1Isr??INTVEC 75`:
   \   00004B   02....       LJMP       (halTimer1Isr)

   \                                 In  segment INTVEC, offset 0x5b, root
   \                     `??halTimer3Isr??INTVEC 91`:
   \   00005B   02....       LJMP       (halTimer3Isr)

   \                                 In  segment INTVEC, offset 0x63, root
   \                     `??halTimer4Isr??INTVEC 99`:
   \   000063   02....       LJMP       (halTimer4Isr)

   \                                 In  segment BANK_RELAYS, align 1
   \                     ??HalTimerInit?relay:
   \   000000   12....       LCALL   ?BDISPATCH
   \   000003   ......       DC24    HalTimerInit

   \                                 In  segment BANK_RELAYS, align 1
   \                     ??HalTimerConfig?relay:
   \   000000   12....       LCALL   ?BDISPATCH
   \   000003   ......       DC24    HalTimerConfig

   \                                 In  segment BANK_RELAYS, align 1
   \                     ??HalTimerStart?relay:
   \   000000   12....       LCALL   ?BDISPATCH
   \   000003   ......       DC24    HalTimerStart

   \                                 In  segment BANK_RELAYS, align 1
   \                     ??HalTimerTick?relay:
   \   000000   12....       LCALL   ?BDISPATCH
   \   000003   ......       DC24    HalTimerTick

   \                                 In  segment BANK_RELAYS, align 1
   \                     ??HalTimerStop?relay:
   \   000000   12....       LCALL   ?BDISPATCH
   \   000003   ......       DC24    HalTimerStop

   \                                 In  segment BANK_RELAYS, align 1
   \                     ??halTimerSetCount?relay:
   \   000000   12....       LCALL   ?BDISPATCH
   \   000003   ......       DC24    halTimerSetCount

   \                                 In  segment BANK_RELAYS, align 1
   \                     ??halTimerSetPrescale?relay:
   \   000000   12....       LCALL   ?BDISPATCH
   \   000003   ......       DC24    halTimerSetPrescale

   \                                 In  segment BANK_RELAYS, align 1
   \                     ??halTimerSetOpMode?relay:
   \   000000   12....       LCALL   ?BDISPATCH
   \   000003   ......       DC24    halTimerSetOpMode

   \                                 In  segment BANK_RELAYS, align 1
   \                     ??halTimerSetChannelMode?relay:
   \   000000   12....       LCALL   ?BDISPATCH
   \   000003   ......       DC24    halTimerSetChannelMode

   \                                 In  segment BANK_RELAYS, align 1
   \                     ??HalTimerInterruptEnable?relay:
   \   000000   12....       LCALL   ?BDISPATCH
   \   000003   ......       DC24    HalTimerInterruptEnable

   \                                 In  segment BANK_RELAYS, align 1
   \                     ??halTimerSendCallBack?relay:
   \   000000   12....       LCALL   ?BDISPATCH
   \   000003   ......       DC24    halTimerSendCallBack

   \                                 In  segment BANK_RELAYS, align 1
   \                     ??halTimerRemap?relay:
   \   000000   12....       LCALL   ?BDISPATCH
   \   000003   ......       DC24    halTimerRemap

   \                                 In  segment BANK_RELAYS, align 1
   \                     ??halProcessTimer1?relay:
   \   000000   12....       LCALL   ?BDISPATCH
   \   000003   ......       DC24    halProcessTimer1

   \                                 In  segment BANK_RELAYS, align 1
   \                     ??halProcessTimer3?relay:
   \   000000   12....       LCALL   ?BDISPATCH
   \   000003   ......       DC24    halProcessTimer3

   \                                 In  segment BANK_RELAYS, align 1
   \                     ??halProcessTimer4?relay:
   \   000000   12....       LCALL   ?BDISPATCH
   \   000003   ......       DC24    halProcessTimer4
    838          
    839          /***************************************************************************************************
    840          ***************************************************************************************************/
    841          

   Maximum stack usage in bytes:

   ISTACK PSTACK XSTACK Function
   ------ ------ ------ --------
       1      0     16  HalTimerConfig
                          0 0 14 -> halTimerRemap
       2      0      0  HalTimerInit
       0      0     21  HalTimerInterruptEnable
       0      0     12  HalTimerStart
                          0 0 12 -> HalTimerInterruptEnable
                          0 0 12 -> halTimerRemap
                          0 0 12 -> halTimerSetChannelMode
                          0 0 12 -> halTimerSetCount
                          0 0 12 -> halTimerSetOpMode
                          0 0 12 -> halTimerSetPrescale
       0      0      9  HalTimerStop
                          0 0  9 -> halTimerRemap
                          0 0  9 -> halTimerSetOpMode
       2      0      0  HalTimerTick
                          2 0  0 -> halProcessTimer1
                          2 0  0 -> halProcessTimer3
                          2 0  0 -> halProcessTimer4
       2      0     14  halProcessTimer1
                          2 0  0 -> halTimerRemap
                          2 0  0 -> halTimerSendCallBack
       2      0     14  halProcessTimer3
                          2 0  0 -> halTimerRemap
                          2 0  0 -> halTimerSendCallBack
       2      0     14  halProcessTimer4
                          2 0  0 -> halTimerRemap
                          2 0  0 -> halTimerSendCallBack
       0      0     14  halTimer1Isr
                          0 0 14 -> halProcessTimer1
       0      0     14  halTimer3Isr
                          0 0 14 -> halProcessTimer3
       0      0     14  halTimer4Isr
                          0 0 14 -> halProcessTimer4
       0      0     14  halTimerRemap
       0      0     10  halTimerSendCallBack
                          0 0 10 -> halTimerRemap
       2      0     12  halTimerSetChannelMode
       1      0     32  halTimerSetCount
       0      0     12  halTimerSetOpMode
       0      0     12  halTimerSetPrescale


   Segment part sizes:

   Bytes  Function/Label
   -----  --------------
       6  ??HalTimerConfig?relay
       6  ??HalTimerInit?relay
       6  ??HalTimerInterruptEnable?relay
       6  ??HalTimerStart?relay
       6  ??HalTimerStop?relay
       6  ??HalTimerTick?relay
       6  ??halProcessTimer1?relay
       6  ??halProcessTimer3?relay
       6  ??halProcessTimer4?relay
       3  ??halTimer1Isr??INTVEC 75
       3  ??halTimer3Isr??INTVEC 91
       3  ??halTimer4Isr??INTVEC 99
       6  ??halTimerRemap?relay
       6  ??halTimerSendCallBack?relay
       6  ??halTimerSetChannelMode?relay
       6  ??halTimerSetCount?relay
       6  ??halTimerSetOpMode?relay
       6  ??halTimerSetPrescale?relay
     335  HalTimerConfig
     242  HalTimerInit
     432  HalTimerInterruptEnable
     312  HalTimerStart
      54  HalTimerStop
      38  HalTimerTick
       1  T1CCTL0
       1  T1CCTL1
       1  T1CCTL2
       1  T1CTL
       1  T3CCTL0
       1  T3CCTL1
       1  T3CTL
       1  T4CCTL0
       1  T4CCTL1
       1  T4CTL
       1  _A_IEN1
       1  _A_TIMIF
     175  halProcessTimer1
     148  halProcessTimer3
     148  halProcessTimer4
      15  halTimer1Isr
      15  halTimer3Isr
      15  halTimer4Isr
      30  halTimerChannel
      30  halTimerRecord
      30  halTimerRemap
     130  halTimerSendCallBack
     122  halTimerSetChannelMode
     256  halTimerSetCount
     112  halTimerSetOpMode
      45  halTimerSetPrescale

 
 2 579 bytes in segment BANKED_CODE
    90 bytes in segment BANK_RELAYS
     9 bytes in segment INTVEC
    45 bytes in segment NEAR_CODE
    12 bytes in segment SFR_AN
    60 bytes in segment XDATA_Z
 
 2 714 bytes of CODE  memory (+  9 bytes shared)
     0 bytes of DATA  memory (+ 12 bytes shared)
    60 bytes of XDATA memory

Errors: none
Warnings: none
