###############################################################################
#                                                                             #
# IAR C/C++ Compiler V8.20.2.41139 for 8051             01/Jan/2016  15:50:46 #
# Copyright 2004-2013 IAR Systems AB.                                         #
#                                                                             #
#    Core               =  plain                                              #
#    Code model         =  banked                                             #
#    Data model         =  large                                              #
#    Calling convention =  xdata reentrant                                    #
#    Constant location  =  data_rom                                           #
#    Dptr setup         =  1,16                                               #
#                                                                             #
#    Source file        =  C:\Users\ArnoldWorkStation\Desktop\ZigbeeTest\Comp #
#                          onents\hal\common\hal_assert.c                     #
#    Command line       =  -f C:\Users\ArnoldWorkStation\Desktop\ZigbeeTest\P #
#                          rojects\zstack\Samples\SampleApp\CC2530DB\..\..\.. #
#                          \Tools\CC2530DB\f8wCoord.cfg (-DCPU32MHZ           #
#                          -DROOT=__near_func -DMAC_CFG_APP_PENDING_QUEUE=TRU #
#                          E -DZDO_COORDINATOR -DRTR_NWK -DBLINK_LEDS) -f     #
#                          C:\Users\ArnoldWorkStation\Desktop\ZigbeeTest\Proj #
#                          ects\zstack\Samples\SampleApp\CC2530DB\..\..\..\To #
#                          ols\CC2530DB\f8wConfig.cfg (-DSECURE=0             #
#                          -DZG_SECURE_DYNAMIC=0 -DREFLECTOR                  #
#                          -DDEFAULT_CHANLIST=0x00000800                      #
#                          -DZDAPP_CONFIG_PAN_ID=0xFFF1                       #
#                          -DNWK_START_DELAY=100 -DEXTENDED_JOINING_RANDOM_MA #
#                          SK=0x007F -DBEACON_REQUEST_DELAY=100               #
#                          -DBEACON_REQ_DELAY_MASK=0x00FF                     #
#                          -DROUTE_EXPIRY_TIME=30 -DAPSC_ACK_WAIT_DURATION_PO #
#                          LLED=3000 -DNWK_INDIRECT_MSG_TIMEOUT=7             #
#                          -DMAX_RREQ_ENTRIES=8 -DAPSC_MAX_FRAME_RETRIES=3    #
#                          -DNWK_MAX_DATA_RETRIES=2                           #
#                          -DMAX_POLL_FAILURE_RETRIES=2 -DMAX_BCAST=9         #
#                          -DAPS_MAX_GROUPS=16 -DMAX_RTG_ENTRIES=40           #
#                          -DNWK_MAX_BINDING_ENTRIES=4                        #
#                          -DMAX_BINDING_CLUSTER_IDS=4 "-DDEFAULT_KEY={0x01,  #
#                          0x03, 0x05, 0x07, 0x09, 0x0B, 0x0D, 0x0F, 0x00,    #
#                          0x02, 0x04, 0x06, 0x08, 0x0A, 0x0C, 0x0D}"         #
#                          -DMAC_MAX_FRAME_SIZE=116 "-DCONST=const __code"    #
#                          -DGENERIC=__generic -DRFD_RCVC_ALWAYS_ON=TRUE      #
#                          -DPOLL_RATE=1000 -DQUEUED_POLL_RATE=100            #
#                          -DRESPONSE_POLL_RATE=100) -DREJOIN_POLL_RATE=440   #
#                          C:\Users\ArnoldWorkStation\Desktop\ZigbeeTest\Comp #
#                          onents\hal\common\hal_assert.c -D ZIGBEEPRO -D     #
#                          ZTOOL_P1 -D xMT_TASK -D xMT_SYS_FUNC -D            #
#                          xMT_ZDO_FUNC -D LCD_SUPPORTED=DEBUG -lC            #
#                          C:\Users\ArnoldWorkStation\Desktop\ZigbeeTest\Proj #
#                          ects\zstack\Samples\SampleApp\CC2530DB\PCCoordinat #
#                          orEBPro\List\ -lA C:\Users\ArnoldWorkStation\Deskt #
#                          op\ZigbeeTest\Projects\zstack\Samples\SampleApp\CC #
#                          2530DB\PCCoordinatorEBPro\List\ --diag_suppress    #
#                          Pe001,Pa010 -o C:\Users\ArnoldWorkStation\Desktop\ #
#                          ZigbeeTest\Projects\zstack\Samples\SampleApp\CC253 #
#                          0DB\PCCoordinatorEBPro\Obj\ -e --no_cse            #
#                          --no_unroll --no_inline --no_code_motion           #
#                          --no_tbaa --debug --core=plain --dptr=16,1         #
#                          --data_model=large --code_model=banked             #
#                          --calling_convention=xdata_reentrant               #
#                          --place_constants=data_rom --nr_virtual_regs 16    #
#                          -I C:\Users\ArnoldWorkStation\Desktop\ZigbeeTest\P #
#                          rojects\zstack\Samples\SampleApp\CC2530DB\ -I      #
#                          C:\Users\ArnoldWorkStation\Desktop\ZigbeeTest\Proj #
#                          ects\zstack\Samples\SampleApp\CC2530DB\..\SOURCE\  #
#                          -I C:\Users\ArnoldWorkStation\Desktop\ZigbeeTest\P #
#                          rojects\zstack\Samples\SampleApp\CC2530DB\..\..\.. #
#                          \ZMAIN\TI2530DB\ -I C:\Users\ArnoldWorkStation\Des #
#                          ktop\ZigbeeTest\Projects\zstack\Samples\SampleApp\ #
#                          CC2530DB\..\..\..\..\..\COMPONENTS\MT\ -I          #
#                          C:\Users\ArnoldWorkStation\Desktop\ZigbeeTest\Proj #
#                          ects\zstack\Samples\SampleApp\CC2530DB\..\..\..\.. #
#                          \..\COMPONENTS\HAL\INCLUDE\ -I                     #
#                          C:\Users\ArnoldWorkStation\Desktop\ZigbeeTest\Proj #
#                          ects\zstack\Samples\SampleApp\CC2530DB\..\..\..\.. #
#                          \..\COMPONENTS\HAL\TARGET\CC2530EB\ -I             #
#                          C:\Users\ArnoldWorkStation\Desktop\ZigbeeTest\Proj #
#                          ects\zstack\Samples\SampleApp\CC2530DB\..\..\..\.. #
#                          \..\COMPONENTS\OSAL\MCU\CCSOC\ -I                  #
#                          C:\Users\ArnoldWorkStation\Desktop\ZigbeeTest\Proj #
#                          ects\zstack\Samples\SampleApp\CC2530DB\..\..\..\.. #
#                          \..\COMPONENTS\OSAL\INCLUDE\ -I                    #
#                          C:\Users\ArnoldWorkStation\Desktop\ZigbeeTest\Proj #
#                          ects\zstack\Samples\SampleApp\CC2530DB\..\..\..\.. #
#                          \..\COMPONENTS\STACK\AF\ -I                        #
#                          C:\Users\ArnoldWorkStation\Desktop\ZigbeeTest\Proj #
#                          ects\zstack\Samples\SampleApp\CC2530DB\..\..\..\.. #
#                          \..\COMPONENTS\STACK\NWK\ -I                       #
#                          C:\Users\ArnoldWorkStation\Desktop\ZigbeeTest\Proj #
#                          ects\zstack\Samples\SampleApp\CC2530DB\..\..\..\.. #
#                          \..\COMPONENTS\STACK\SEC\ -I                       #
#                          C:\Users\ArnoldWorkStation\Desktop\ZigbeeTest\Proj #
#                          ects\zstack\Samples\SampleApp\CC2530DB\..\..\..\.. #
#                          \..\COMPONENTS\STACK\SAPI\ -I                      #
#                          C:\Users\ArnoldWorkStation\Desktop\ZigbeeTest\Proj #
#                          ects\zstack\Samples\SampleApp\CC2530DB\..\..\..\.. #
#                          \..\COMPONENTS\STACK\SYS\ -I                       #
#                          C:\Users\ArnoldWorkStation\Desktop\ZigbeeTest\Proj #
#                          ects\zstack\Samples\SampleApp\CC2530DB\..\..\..\.. #
#                          \..\COMPONENTS\STACK\ZDO\ -I                       #
#                          C:\Users\ArnoldWorkStation\Desktop\ZigbeeTest\Proj #
#                          ects\zstack\Samples\SampleApp\CC2530DB\..\..\..\.. #
#                          \..\COMPONENTS\ZMAC\F8W\ -I                        #
#                          C:\Users\ArnoldWorkStation\Desktop\ZigbeeTest\Proj #
#                          ects\zstack\Samples\SampleApp\CC2530DB\..\..\..\.. #
#                          \..\COMPONENTS\ZMAC\ -I C:\Users\ArnoldWorkStation #
#                          \Desktop\ZigbeeTest\Projects\zstack\Samples\Sample #
#                          App\CC2530DB\..\..\..\..\..\COMPONENTS\SERVICES\SA #
#                          DDR\ -I C:\Users\ArnoldWorkStation\Desktop\ZigbeeT #
#                          est\Projects\zstack\Samples\SampleApp\CC2530DB\..\ #
#                          ..\..\..\..\COMPONENTS\SERVICES\SDATA\ -I          #
#                          C:\Users\ArnoldWorkStation\Desktop\ZigbeeTest\Proj #
#                          ects\zstack\Samples\SampleApp\CC2530DB\..\..\..\.. #
#                          \..\COMPONENTS\MAC\INCLUDE\ -I                     #
#                          C:\Users\ArnoldWorkStation\Desktop\ZigbeeTest\Proj #
#                          ects\zstack\Samples\SampleApp\CC2530DB\..\..\..\.. #
#                          \..\COMPONENTS\MAC\HIGH_LEVEL\ -I                  #
#                          C:\Users\ArnoldWorkStation\Desktop\ZigbeeTest\Proj #
#                          ects\zstack\Samples\SampleApp\CC2530DB\..\..\..\.. #
#                          \..\COMPONENTS\MAC\LOW_LEVEL\srf04\ -I             #
#                          C:\Users\ArnoldWorkStation\Desktop\ZigbeeTest\Proj #
#                          ects\zstack\Samples\SampleApp\CC2530DB\..\..\..\.. #
#                          \..\COMPONENTS\MAC\LOW_LEVEL\srf04\SINGLE_CHIP\    #
#                          -On --require_prototypes                           #
#    List file          =  C:\Users\ArnoldWorkStation\Desktop\ZigbeeTest\Proj #
#                          ects\zstack\Samples\SampleApp\CC2530DB\PCCoordinat #
#                          orEBPro\List\hal_assert.lst                        #
#    Object file        =  C:\Users\ArnoldWorkStation\Desktop\ZigbeeTest\Proj #
#                          ects\zstack\Samples\SampleApp\CC2530DB\PCCoordinat #
#                          orEBPro\Obj\hal_assert.r51                         #
#                                                                             #
#                                                                             #
###############################################################################

C:\Users\ArnoldWorkStation\Desktop\ZigbeeTest\Components\hal\common\hal_assert.c
      1          /**************************************************************************************************
      2            Filename:       hal_assert.c
      3            Revised:        $Date: 2010-01-07 10:10:43 -0800 (Thu, 07 Jan 2010) $
      4            Revision:       $Revision: 21451 $
      5          
      6            Description:    Describe the purpose and contents of the file.
      7          
      8          
      9            Copyright 2006-2010 Texas Instruments Incorporated. All rights reserved.
     10          
     11            IMPORTANT: Your use of this Software is limited to those specific rights
     12            granted under the terms of a software license agreement between the user
     13            who downloaded the software, his/her employer (which must be your employer)
     14            and Texas Instruments Incorporated (the "License").  You may not use this
     15            Software unless you agree to abide by the terms of the License. The License
     16            limits your use, and you acknowledge, that the Software may not be modified,
     17            copied or distributed unless embedded on a Texas Instruments microcontroller
     18            or used solely and exclusively in conjunction with a Texas Instruments radio
     19            frequency transceiver, which is integrated into your product.  Other than for
     20            the foregoing purpose, you may not use, reproduce, copy, prepare derivative
     21            works of, modify, distribute, perform, display or sell this Software and/or
     22            its documentation for any purpose.
     23          
     24            YOU FURTHER ACKNOWLEDGE AND AGREE THAT THE SOFTWARE AND DOCUMENTATION ARE
     25            PROVIDED “AS IS” WITHOUT WARRANTY OF ANY KIND, EITHER EXPRESS OR IMPLIED,
     26            INCLUDING WITHOUT LIMITATION, ANY WARRANTY OF MERCHANTABILITY, TITLE,
     27            NON-INFRINGEMENT AND FITNESS FOR A PARTICULAR PURPOSE. IN NO EVENT SHALL
     28            TEXAS INSTRUMENTS OR ITS LICENSORS BE LIABLE OR OBLIGATED UNDER CONTRACT,
     29            NEGLIGENCE, STRICT LIABILITY, CONTRIBUTION, BREACH OF WARRANTY, OR OTHER
     30            LEGAL EQUITABLE THEORY ANY DIRECT OR INDIRECT DAMAGES OR EXPENSES
     31            INCLUDING BUT NOT LIMITED TO ANY INCIDENTAL, SPECIAL, INDIRECT, PUNITIVE
     32            OR CONSEQUENTIAL DAMAGES, LOST PROFITS OR LOST DATA, COST OF PROCUREMENT
     33            OF SUBSTITUTE GOODS, TECHNOLOGY, SERVICES, OR ANY CLAIMS BY THIRD PARTIES
     34            (INCLUDING BUT NOT LIMITED TO ANY DEFENSE THEREOF), OR OTHER SIMILAR COSTS.
     35          
     36            Should you have any questions regarding your right to use this Software,
     37            contact Texas Instruments Incorporated at www.TI.com.
     38          **************************************************************************************************/
     39          
     40          
     41          /* ------------------------------------------------------------------------------------------------
     42           *                                          Includes
     43           * ------------------------------------------------------------------------------------------------
     44           */
     45          #include "hal_assert.h"
     46          #include "hal_types.h"
     47          #include "hal_board.h"

   \                                 In  segment SFR_AN, at 0x80
   \   union <unnamed> volatile __sfr _A_P0
   \                     _A_P0:
   \   000000                DS 1

   \                                 In  segment SFR_AN, at 0x8f
   \   unsigned char volatile __sfr P0INP
   \                     P0INP:
   \   000000                DS 1

   \                                 In  segment SFR_AN, at 0x90
   \   union <unnamed> volatile __sfr _A_P1
   \                     _A_P1:
   \   000000                DS 1

   \                                 In  segment SFR_AN, at 0x9d
   \   unsigned char volatile __sfr SLEEPSTA
   \                     SLEEPSTA:
   \   000000                DS 1

   \                                 In  segment SFR_AN, at 0x9e
   \   unsigned char volatile __sfr CLKCONSTA
   \                     CLKCONSTA:
   \   000000                DS 1

   \                                 In  segment SFR_AN, at 0xa8
   \   union <unnamed> volatile __sfr _A_IEN0
   \                     _A_IEN0:
   \   000000                DS 1

   \                                 In  segment SFR_AN, at 0xbe
   \   unsigned char volatile __sfr SLEEPCMD
   \                     SLEEPCMD:
   \   000000                DS 1

   \                                 In  segment SFR_AN, at 0xc6
   \   unsigned char volatile __sfr CLKCONCMD
   \                     CLKCONCMD:
   \   000000                DS 1

   \                                 In  segment SFR_AN, at 0xfd
   \   unsigned char volatile __sfr P0DIR
   \                     P0DIR:
   \   000000                DS 1

   \                                 In  segment SFR_AN, at 0xfe
   \   unsigned char volatile __sfr P1DIR
   \                     P1DIR:
   \   000000                DS 1
     48          #include "hal_defs.h"
     49          #include "hal_mcu.h"
     50          
     51          #if (defined HAL_MCU_AVR) || (defined HAL_MCU_CC2430) || (defined HAL_MCU_CC2530) || \
     52            (defined HAL_MCU_CC2533) || (defined HAL_MCU_MSP430)
     53            /* for access to debug data */
     54            #include "mac_rx.h"
     55            #include "mac_tx.h"
     56          #endif
     57          
     58          /* ------------------------------------------------------------------------------------------------
     59           *                                       Local Prototypes
     60           * ------------------------------------------------------------------------------------------------
     61           */
     62          void halAssertHazardLights(void);
     63          
     64          
     65          /**************************************************************************************************
     66           * @fn          halAssertHandler
     67           *
     68           * @brief       Logic to handle an assert.
     69           *
     70           * @param       none
     71           *
     72           * @return      none
     73           **************************************************************************************************
     74           */

   \                                 In  segment BANKED_CODE, align 1, keep-with-next
     75          void halAssertHandler(void)
   \                     halAssertHandler:
     76          {
   \   000000   C082         PUSH    DPL
   \   000002   C083         PUSH    DPH
   \   000004                ; Saved register size: 2
   \   000004                ; Auto size: 0
     77            /* execute code that handles asserts */
     78          #ifdef ASSERT_RESET
     79            HAL_SYSTEM_RESET();
     80          #else
     81            halAssertHazardLights();
   \   000004                ; Setup parameters for call to function halAssertHazardLights
   \   000004   12....       LCALL   ??halAssertHazardLights?relay
     82          #endif
     83          
     84          }
   \   000007   D083         POP     DPH
   \   000009   D082         POP     DPL
   \   00000B   02....       LJMP    ?BRET
     85          
     86          
     87          /**************************************************************************************************
     88           * @fn          halAssertHazardLights
     89           *
     90           * @brief       Blink LEDs to indicate an error.
     91           *
     92           * @param       none
     93           *
     94           * @return      none
     95           **************************************************************************************************
     96           */

   \                                 In  segment BANKED_CODE, align 1, keep-with-next
     97          void halAssertHazardLights(void)
   \                     halAssertHazardLights:
     98          {
   \   000000   74F4         MOV     A,#-0xc
   \   000002   12....       LCALL   ?BANKED_ENTER_XDATA
   \   000005                ; Saved register size: 12
   \   000005                ; Auto size: 10
   \   000005   74F6         MOV     A,#-0xa
   \   000007   12....       LCALL   ?ALLOC_XSTACK8
     99            enum
    100            {
    101              DEBUG_DATA_RSTACK_HIGH_OFS,
    102              DEBUG_DATA_RSTACK_LOW_OFS,
    103              DEBUG_DATA_TX_ACTIVE_OFS,
    104              DEBUG_DATA_RX_ACTIVE_OFS,
    105          
    106          #if (defined HAL_MCU_AVR) || (defined HAL_MCU_CC2430)
    107              DEBUG_DATA_INT_MASK_OFS,
    108          #elif (defined HAL_MCU_CC2530) || (defined HAL_MCU_CC2533)
    109              DEBUG_DATA_INT_MASK0_OFS,
    110              DEBUG_DATA_INT_MASK1_OFS,
    111          #endif
    112          
    113              DEBUG_DATA_SIZE
    114            };
    115          
    116            uint8 buttonHeld;
    117            uint8 debugData[DEBUG_DATA_SIZE];
    118          
    119            /* disable all interrupts before anything else */
    120            HAL_DISABLE_INTERRUPTS();
   \   00000A   C2AF         CLR     0xa8.7
    121          
    122            /*-------------------------------------------------------------------------------
    123             *  Initialize LEDs and turn them off.
    124             */
    125            HAL_BOARD_INIT();
   \   00000C   53BEFB       ANL     0xbe,#0xfb
   \                     ??halAssertHazardLights_0:
   \   00000F   E59D         MOV     A,0x9d
   \   000011   A2E6         MOV     C,0xE0 /* A   */.6
   \   000013   50FA         JNC     ??halAssertHazardLights_0
   \   000015   00           NOP
   \   000016   7800         MOV     R0,#0x0
   \   000018   7900         MOV     R1,#0x0
   \                     ??halAssertHazardLights_1:
   \   00001A   C3           CLR     C
   \   00001B   E8           MOV     A,R0
   \   00001C   94F8         SUBB    A,#-0x8
   \   00001E   E9           MOV     A,R1
   \   00001F   9401         SUBB    A,#0x1
   \   000021   500B         JNC     ??halAssertHazardLights_2
   \   000023   00           NOP
   \   000024   E8           MOV     A,R0
   \   000025   2401         ADD     A,#0x1
   \   000027   F8           MOV     R0,A
   \   000028   E9           MOV     A,R1
   \   000029   3400         ADDC    A,#0x0
   \   00002B   F9           MOV     R1,A
   \   00002C   80EC         SJMP    ??halAssertHazardLights_1
   \                     ??halAssertHazardLights_2:
   \   00002E   75C600       MOV     0xc6,#0x0
   \                     ??halAssertHazardLights_3:
   \   000031   E59E         MOV     A,0x9e
   \   000033   70FC         JNZ     ??halAssertHazardLights_3
   \   000035   43BE04       ORL     0xbe,#0x4
   \   000038   906270       MOV     DPTR,#0x6270
   \   00003B   7408         MOV     A,#0x8
   \   00003D   F0           MOVX    @DPTR,A
   \   00003E   43FE01       ORL     0xfe,#0x1
   \   000041   43FE02       ORL     0xfe,#0x2
   \   000044   43FD10       ORL     0xfd,#0x10
   \   000047   438F01       ORL     0x8f,#0x1
    126          
    127            HAL_TURN_OFF_LED1();
   \   00004A   C290         CLR     0x90.0
    128            HAL_TURN_OFF_LED2();
   \   00004C   C291         CLR     0x90.1
    129            HAL_TURN_OFF_LED3();
   \   00004E   C284         CLR     0x80.4
    130            HAL_TURN_OFF_LED4();
   \   000050   C290         CLR     0x90.0
    131          
    132            /*-------------------------------------------------------------------------------
    133             *  Master infinite loop.
    134             */
    135            for (;;)
    136            {
    137              buttonHeld = 0;
   \                     ??halAssertHazardLights_4:
   \   000052   7A00         MOV     R2,#0x0
    138          
    139              /*-------------------------------------------------------------------------------
    140               *  "Hazard lights" loop.  A held keypress will exit this loop.
    141               */
    142              do
    143              {
    144                HAL_LED_BLINK_DELAY();
   \                     ??halAssertHazardLights_5:
   \   000054   7C00         MOV     R4,#0x0
   \   000056   7D00         MOV     R5,#0x0
   \   000058   7E00         MOV     R6,#0x0
   \   00005A   7F00         MOV     R7,#0x0
   \   00005C   85..82       MOV     DPL,?XSP + 0
   \   00005F   85..83       MOV     DPH,?XSP + 1
   \   000062   EC           MOV     A,R4
   \   000063   F0           MOVX    @DPTR,A
   \   000064   A3           INC     DPTR
   \   000065   ED           MOV     A,R5
   \   000066   F0           MOVX    @DPTR,A
   \   000067   A3           INC     DPTR
   \   000068   EE           MOV     A,R6
   \   000069   F0           MOVX    @DPTR,A
   \   00006A   A3           INC     DPTR
   \   00006B   EF           MOV     A,R7
   \   00006C   F0           MOVX    @DPTR,A
   \                     ??halAssertHazardLights_6:
   \   00006D   90....       MOV     DPTR,#__Constant_5800
   \   000070   78..         MOV     R0,#?V0 + 0
   \   000072   12....       LCALL   ?L_MOV_X
   \   000075   85..82       MOV     DPL,?XSP + 0
   \   000078   85..83       MOV     DPH,?XSP + 1
   \   00007B   78..         MOV     R0,#?V0 + 0
   \   00007D   12....       LCALL   ?UL_GT_X
   \   000080   5015         JNC     ??halAssertHazardLights_7
   \   000082   90....       MOV     DPTR,#__Constant_1
   \   000085   78..         MOV     R0,#?V0 + 0
   \   000087   12....       LCALL   ?L_MOV_X
   \   00008A   85..82       MOV     DPL,?XSP + 0
   \   00008D   85..83       MOV     DPH,?XSP + 1
   \   000090   78..         MOV     R0,#?V0 + 0
   \   000092   12....       LCALL   ?L_ADD_TO_X
   \   000095   80D6         SJMP    ??halAssertHazardLights_6
    145          
    146                /* toggle LEDS, the #ifdefs are in case HAL has logically remapped non-existent LEDs */
    147          #if (HAL_NUM_LEDS >= 1)
    148                HAL_TOGGLE_LED1();
   \                     ??halAssertHazardLights_7:
   \   000097   A290         MOV     C,0x90.0
   \   000099   5004         JNC     ??halAssertHazardLights_8
   \   00009B   C290         CLR     0x90.0
   \   00009D   8002         SJMP    ??halAssertHazardLights_9
   \                     ??halAssertHazardLights_8:
   \   00009F   D290         SETB    0x90.0
    149          #if (HAL_NUM_LEDS >= 2)
    150                HAL_TOGGLE_LED2();
   \                     ??halAssertHazardLights_9:
   \   0000A1   A291         MOV     C,0x90.1
   \   0000A3   5004         JNC     ??halAssertHazardLights_10
   \   0000A5   C291         CLR     0x90.1
   \   0000A7   8002         SJMP    ??halAssertHazardLights_11
   \                     ??halAssertHazardLights_10:
   \   0000A9   D291         SETB    0x90.1
    151          #if (HAL_NUM_LEDS >= 3)
    152                HAL_TOGGLE_LED3();
   \                     ??halAssertHazardLights_11:
   \   0000AB   A284         MOV     C,0x80.4
   \   0000AD   5004         JNC     ??halAssertHazardLights_12
   \   0000AF   C284         CLR     0x80.4
   \   0000B1   8002         SJMP    ??halAssertHazardLights_13
   \                     ??halAssertHazardLights_12:
   \   0000B3   D284         SETB    0x80.4
    153          #if (HAL_NUM_LEDS >= 4)
    154                HAL_TOGGLE_LED4();
    155          #endif
    156          #endif
    157          #endif
    158          #endif
    159          
    160                /* escape hatch to continue execution, set escape to '1' to continue execution */
    161                {
    162                  static uint8 escape = 0;
    163                  if (escape)
   \                     ??halAssertHazardLights_13:
   \   0000B5   90....       MOV     DPTR,#??escape
   \   0000B8   E0           MOVX    A,@DPTR
   \   0000B9   6009         JZ      ??halAssertHazardLights_14
    164                  {
    165                    escape = 0;
   \   0000BB   90....       MOV     DPTR,#??escape
   \   0000BE   7400         MOV     A,#0x0
   \   0000C0   F0           MOVX    @DPTR,A
    166                    return;
   \   0000C1   02....       LJMP    ??halAssertHazardLights_15 & 0xFFFF
    167                  }
    168                }
    169          
    170                /* break out of loop if button is held long enough */
    171                if (HAL_PUSH_BUTTON1())
   \                     ??halAssertHazardLights_14:
   \   0000C4   A281         MOV     C,0x80.1
   \   0000C6   5003         JNC     ??halAssertHazardLights_16
    172                {
    173                  buttonHeld++;
   \   0000C8   0A           INC     R2
   \   0000C9   8002         SJMP    ??halAssertHazardLights_17
    174                }
    175                else
    176                {
    177                  buttonHeld = 0;
   \                     ??halAssertHazardLights_16:
   \   0000CB   7A00         MOV     R2,#0x0
    178                }
    179              }
    180              while (buttonHeld != 10);  /* loop until button is held specified number of loops */
   \                     ??halAssertHazardLights_17:
   \   0000CD   740A         MOV     A,#0xa
   \   0000CF   6A           XRL     A,R2
   \   0000D0   7082         JNZ     ??halAssertHazardLights_5
    181          
    182              /*-------------------------------------------------------------------------------
    183               *  Just exited from "hazard lights" loop.
    184               */
    185          
    186              /* turn off all LEDs */
    187              HAL_TURN_OFF_LED1();
   \   0000D2   C290         CLR     0x90.0
    188              HAL_TURN_OFF_LED2();
   \   0000D4   C291         CLR     0x90.1
    189              HAL_TURN_OFF_LED3();
   \   0000D6   C284         CLR     0x80.4
    190              HAL_TURN_OFF_LED4();
   \   0000D8   C290         CLR     0x90.0
    191          
    192              /* wait for button release */
    193              HAL_DEBOUNCE(!HAL_PUSH_BUTTON1());
   \   0000DA   7800         MOV     R0,#0x0
   \   0000DC   7900         MOV     R1,#0x0
   \                     ??halAssertHazardLights_18:
   \   0000DE   C3           CLR     C
   \   0000DF   E8           MOV     A,R0
   \   0000E0   94F4         SUBB    A,#-0xc
   \   0000E2   E9           MOV     A,R1
   \   0000E3   9401         SUBB    A,#0x1
   \   0000E5   A2D2         MOV     C,0xD0 /* PSW */.2
   \   0000E7   65D0         XRL     A,PSW
   \   0000E9   33           RLC     A
   \   0000EA   5012         JNC     ??halAssertHazardLights_19
   \   0000EC   A281         MOV     C,0x80.1
   \   0000EE   5004         JNC     ??halAssertHazardLights_20
   \   0000F0   7800         MOV     R0,#0x0
   \   0000F2   7900         MOV     R1,#0x0
   \                     ??halAssertHazardLights_20:
   \   0000F4   E8           MOV     A,R0
   \   0000F5   2401         ADD     A,#0x1
   \   0000F7   F8           MOV     R0,A
   \   0000F8   E9           MOV     A,R1
   \   0000F9   3400         ADDC    A,#0x0
   \   0000FB   F9           MOV     R1,A
   \   0000FC   80E0         SJMP    ??halAssertHazardLights_18
    194          
    195              /*-------------------------------------------------------------------------------
    196               *  Load debug data into memory.
    197               */
    198          #ifdef HAL_MCU_AVR
    199              {
    200                uint8 * pStack;
    201                pStack = (uint8 *) SP;
    202                pStack++; /* point to return address on stack */
    203                debugData[DEBUG_DATA_RSTACK_HIGH_OFS] = *pStack;
    204                pStack++;
    205                debugData[DEBUG_DATA_RSTACK_LOW_OFS] = *pStack;
    206              }
    207              debugData[DEBUG_DATA_INT_MASK_OFS] = EIMSK;
    208          #endif
    209          
    210          #if (defined HAL_MCU_CC2430)
    211              debugData[DEBUG_DATA_INT_MASK_OFS] = RFIM;
    212          #elif (defined HAL_MCU_CC2530) || (defined HAL_MCU_CC2533)
    213              debugData[DEBUG_DATA_INT_MASK0_OFS] = RFIRQM0;
   \                     ??halAssertHazardLights_19:
   \   0000FE   9061A3       MOV     DPTR,#0x61a3
   \   000101   E0           MOVX    A,@DPTR
   \   000102   C0E0         PUSH    A
   \   000104   7408         MOV     A,#0x8
   \   000106   12....       LCALL   ?XSTACK_DISP0_8
   \   000109   D0E0         POP     A
   \   00010B   F0           MOVX    @DPTR,A
    214              debugData[DEBUG_DATA_INT_MASK1_OFS] = RFIRQM1;
   \   00010C   9061A4       MOV     DPTR,#0x61a4
   \   00010F   E0           MOVX    A,@DPTR
   \   000110   C0E0         PUSH    A
   \   000112   7409         MOV     A,#0x9
   \   000114   12....       LCALL   ?XSTACK_DISP0_8
   \   000117   D0E0         POP     A
   \   000119   F0           MOVX    @DPTR,A
    215          #endif
    216          
    217          
    218          #if (defined HAL_MCU_AVR) || (defined HAL_MCU_CC2430) || (defined HAL_MCU_CC2530) || \
    219            (defined HAL_MCU_CC2533) || (defined HAL_MCU_MSP430)
    220              debugData[DEBUG_DATA_TX_ACTIVE_OFS] = macTxActive;
   \   00011A   90....       MOV     DPTR,#macTxActive
   \   00011D   E0           MOVX    A,@DPTR
   \   00011E   C0E0         PUSH    A
   \   000120   7406         MOV     A,#0x6
   \   000122   12....       LCALL   ?XSTACK_DISP0_8
   \   000125   D0E0         POP     A
   \   000127   F0           MOVX    @DPTR,A
    221              debugData[DEBUG_DATA_RX_ACTIVE_OFS] = macRxActive;
   \   000128   90....       MOV     DPTR,#macRxActive
   \   00012B   E0           MOVX    A,@DPTR
   \   00012C   C0E0         PUSH    A
   \   00012E   7407         MOV     A,#0x7
   \   000130   12....       LCALL   ?XSTACK_DISP0_8
   \   000133   D0E0         POP     A
   \   000135   F0           MOVX    @DPTR,A
    222          #endif
    223          
    224             /* initialize for data dump loop */
    225              {
    226                uint8 iBit;
    227                uint8 iByte;
    228          
    229                iBit  = 0;
   \   000136   7C00         MOV     R4,#0x0
    230                iByte = 0;
   \   000138   7B00         MOV     R3,#0x0
    231          
    232                /*-------------------------------------------------------------------------------
    233                 *  Data dump loop.  A button press cycles data bits to an LED.
    234                 */
    235                while (iByte < DEBUG_DATA_SIZE)
   \                     ??halAssertHazardLights_21:
   \   00013A   EB           MOV     A,R3
   \   00013B   C3           CLR     C
   \   00013C   9406         SUBB    A,#0x6
   \   00013E   507A         JNC     ??halAssertHazardLights_22
    236                {
    237                  /* wait for key press */
    238                  while(!HAL_PUSH_BUTTON1());
   \                     ??halAssertHazardLights_23:
   \   000140   A281         MOV     C,0x80.1
   \   000142   50FC         JNC     ??halAssertHazardLights_23
    239          
    240                  /* turn on all LEDs for first bit of byte, turn on three LEDs if not first bit */
    241                  HAL_TURN_ON_LED1();
   \   000144   D290         SETB    0x90.0
    242                  HAL_TURN_ON_LED2();
   \   000146   D291         SETB    0x90.1
    243                  HAL_TURN_ON_LED3();
   \   000148   D284         SETB    0x80.4
    244                  if (iBit == 0)
   \   00014A   EC           MOV     A,R4
   \   00014B   7004         JNZ     ??halAssertHazardLights_24
    245                  {
    246                    HAL_TURN_ON_LED4();
   \   00014D   D290         SETB    0x90.0
   \   00014F   8002         SJMP    ??halAssertHazardLights_25
    247                  }
    248                  else
    249                  {
    250                    HAL_TURN_OFF_LED4();
   \                     ??halAssertHazardLights_24:
   \   000151   C290         CLR     0x90.0
    251                  }
    252          
    253                  /* wait for debounced key release */
    254                  HAL_DEBOUNCE(!HAL_PUSH_BUTTON1());
   \                     ??halAssertHazardLights_25:
   \   000153   7800         MOV     R0,#0x0
   \   000155   7900         MOV     R1,#0x0
   \                     ??halAssertHazardLights_26:
   \   000157   C3           CLR     C
   \   000158   E8           MOV     A,R0
   \   000159   94F4         SUBB    A,#-0xc
   \   00015B   E9           MOV     A,R1
   \   00015C   9401         SUBB    A,#0x1
   \   00015E   A2D2         MOV     C,0xD0 /* PSW */.2
   \   000160   65D0         XRL     A,PSW
   \   000162   33           RLC     A
   \   000163   5012         JNC     ??halAssertHazardLights_27
   \   000165   A281         MOV     C,0x80.1
   \   000167   5004         JNC     ??halAssertHazardLights_28
   \   000169   7800         MOV     R0,#0x0
   \   00016B   7900         MOV     R1,#0x0
   \                     ??halAssertHazardLights_28:
   \   00016D   E8           MOV     A,R0
   \   00016E   2401         ADD     A,#0x1
   \   000170   F8           MOV     R0,A
   \   000171   E9           MOV     A,R1
   \   000172   3400         ADDC    A,#0x0
   \   000174   F9           MOV     R1,A
   \   000175   80E0         SJMP    ??halAssertHazardLights_26
    255          
    256                  /* turn off all LEDs */
    257                  HAL_TURN_OFF_LED1();
   \                     ??halAssertHazardLights_27:
   \   000177   C290         CLR     0x90.0
    258                  HAL_TURN_OFF_LED2();
   \   000179   C291         CLR     0x90.1
    259                  HAL_TURN_OFF_LED3();
   \   00017B   C284         CLR     0x80.4
    260                  HAL_TURN_OFF_LED4();
   \   00017D   C290         CLR     0x90.0
    261          
    262                  /* output value of data bit to LED1 */
    263                  if (debugData[iByte] & (1 << (7 - iBit)))
   \   00017F   75..01       MOV     ?V0 + 0,#0x1
   \   000182   75..00       MOV     ?V0 + 1,#0x0
   \   000185   7407         MOV     A,#0x7
   \   000187   C3           CLR     C
   \   000188   9C           SUBB    A,R4
   \   000189   78..         MOV     R0,#?V0 + 0
   \   00018B   12....       LCALL   ?S_SHL
   \   00018E   8B..         MOV     ?V0 + 2,R3
   \   000190   75..00       MOV     ?V0 + 3,#0x0
   \   000193   7404         MOV     A,#0x4
   \   000195   12....       LCALL   ?XSTACK_DISP0_8
   \   000198   E582         MOV     A,DPL
   \   00019A   25..         ADD     A,?V0 + 2
   \   00019C   F582         MOV     DPL,A
   \   00019E   E583         MOV     A,DPH
   \   0001A0   35..         ADDC    A,?V0 + 3
   \   0001A2   F583         MOV     DPH,A
   \   0001A4   E0           MOVX    A,@DPTR
   \   0001A5   55..         ANL     A,?V0 + 0
   \   0001A7   6004         JZ      ??halAssertHazardLights_29
    264                  {
    265                    HAL_TURN_ON_LED1();
   \   0001A9   D290         SETB    0x90.0
   \   0001AB   8002         SJMP    ??halAssertHazardLights_30
    266                  }
    267                  else
    268                  {
    269                    HAL_TURN_OFF_LED1();
   \                     ??halAssertHazardLights_29:
   \   0001AD   C290         CLR     0x90.0
    270                  }
    271          
    272                  /* advance to next bit */
    273                  iBit++;
   \                     ??halAssertHazardLights_30:
   \   0001AF   0C           INC     R4
    274                  if (iBit == 8)
   \   0001B0   7408         MOV     A,#0x8
   \   0001B2   6C           XRL     A,R4
   \   0001B3   7085         JNZ     ??halAssertHazardLights_21
    275                  {
    276                    iBit = 0;
   \   0001B5   7C00         MOV     R4,#0x0
    277                    iByte++;
   \   0001B7   0B           INC     R3
   \   0001B8   8080         SJMP    ??halAssertHazardLights_21
    278                  }
    279                }
    280              }
    281          
    282              /*
    283               *  About to enter "hazard lights" loop again.  Turn off LED1 in case the last bit
    284               *  displayed happened to be one.  This guarantees all LEDs are off at the start of
    285               *  the flashing loop which uses a toggle operation to change LED states.
    286               */
    287              HAL_TURN_OFF_LED1();
   \                     ??halAssertHazardLights_22:
   \   0001BA   C290         CLR     0x90.0
   \   0001BC   02....       LJMP    ??halAssertHazardLights_4 & 0xFFFF
    288            }
   \                     ??halAssertHazardLights_15:
   \   0001BF   740A         MOV     A,#0xa
   \   0001C1   12....       LCALL   ?DEALLOC_XSTACK8
   \   0001C4   7F04         MOV     R7,#0x4
   \   0001C6   02....       LJMP    ?BANKED_LEAVE_XDATA
   \   0001C9                REQUIRE _A_IEN0
   \   0001C9                REQUIRE SLEEPCMD
   \   0001C9                REQUIRE SLEEPSTA
   \   0001C9                REQUIRE CLKCONCMD
   \   0001C9                REQUIRE CLKCONSTA
   \   0001C9                REQUIRE P1DIR
   \   0001C9                REQUIRE P0DIR
   \   0001C9                REQUIRE P0INP
   \   0001C9                REQUIRE _A_P1
   \   0001C9                REQUIRE _A_P0
    289          }

   \                                 In  segment XDATA_Z, align 1, keep-with-next
   \                     ??escape:
   \   000000                DS 1
   \   000001                REQUIRE __INIT_XDATA_Z

   \                                 In  segment XDATA_ROM_C, align 1
   \                     __Constant_5800:
   \   000000   00580000     DD 22528

   \                                 In  segment XDATA_ROM_C, align 1
   \                     __Constant_1:
   \   000000   01000000     DD 1

   \                                 In  segment BANK_RELAYS, align 1
   \                     ??halAssertHandler?relay:
   \   000000   12....       LCALL   ?BDISPATCH
   \   000003   ......       DC24    halAssertHandler

   \                                 In  segment BANK_RELAYS, align 1
   \                     ??halAssertHazardLights?relay:
   \   000000   12....       LCALL   ?BDISPATCH
   \   000003   ......       DC24    halAssertHazardLights
    290          
    291          
    292          /* ------------------------------------------------------------------------------------------------
    293           *                                    Compile Time Assertions
    294           * ------------------------------------------------------------------------------------------------
    295           */
    296          
    297          /* integrity check of type sizes */
    298          HAL_ASSERT_SIZE(  int8, 1);
    299          HAL_ASSERT_SIZE( uint8, 1);
    300          HAL_ASSERT_SIZE( int16, 2);
    301          HAL_ASSERT_SIZE(uint16, 2);
    302          HAL_ASSERT_SIZE( int32, 4);
    303          HAL_ASSERT_SIZE(uint32, 4);
    304          
    305          
    306          /**************************************************************************************************
    307          */

   Maximum stack usage in bytes:

   ISTACK PSTACK XSTACK Function
   ------ ------ ------ --------
       2      0      0  halAssertHandler
                          2 0 0 -> halAssertHazardLights
       1      0     22  halAssertHazardLights


   Segment part sizes:

   Bytes  Function/Label
   -----  --------------
       6  ??halAssertHandler?relay
       6  ??halAssertHazardLights?relay
       1  CLKCONCMD
       1  CLKCONSTA
       1  P0DIR
       1  P0INP
       1  P1DIR
       1  SLEEPCMD
       1  SLEEPSTA
       1  _A_IEN0
       1  _A_P0
       1  _A_P1
       4  __Constant_1
       4  __Constant_5800
       1  escape
      14  halAssertHandler
     457  halAssertHazardLights

 
 471 bytes in segment BANKED_CODE
  12 bytes in segment BANK_RELAYS
  10 bytes in segment SFR_AN
   8 bytes in segment XDATA_ROM_C
   1 byte  in segment XDATA_Z
 
 483 bytes of CODE  memory
   0 bytes of CONST memory (+  8 bytes shared)
   0 bytes of DATA  memory (+ 10 bytes shared)
   1 byte  of XDATA memory

Errors: none
Warnings: none
