###############################################################################
#                                                                             #
# IAR C/C++ Compiler V8.20.2.41139 for 8051             01/Jan/2016  15:50:51 #
# Copyright 2004-2013 IAR Systems AB.                                         #
#                                                                             #
#    Core               =  plain                                              #
#    Code model         =  banked                                             #
#    Data model         =  large                                              #
#    Calling convention =  xdata reentrant                                    #
#    Constant location  =  data_rom                                           #
#    Dptr setup         =  1,16                                               #
#                                                                             #
#    Source file        =  C:\Users\ArnoldWorkStation\Desktop\ZigbeeTest\Comp #
#                          onents\mt\MT_DEBUG.c                               #
#    Command line       =  -f C:\Users\ArnoldWorkStation\Desktop\ZigbeeTest\P #
#                          rojects\zstack\Samples\SampleApp\CC2530DB\..\..\.. #
#                          \Tools\CC2530DB\f8wCoord.cfg (-DCPU32MHZ           #
#                          -DROOT=__near_func -DMAC_CFG_APP_PENDING_QUEUE=TRU #
#                          E -DZDO_COORDINATOR -DRTR_NWK -DBLINK_LEDS) -f     #
#                          C:\Users\ArnoldWorkStation\Desktop\ZigbeeTest\Proj #
#                          ects\zstack\Samples\SampleApp\CC2530DB\..\..\..\To #
#                          ols\CC2530DB\f8wConfig.cfg (-DSECURE=0             #
#                          -DZG_SECURE_DYNAMIC=0 -DREFLECTOR                  #
#                          -DDEFAULT_CHANLIST=0x00000800                      #
#                          -DZDAPP_CONFIG_PAN_ID=0xFFF1                       #
#                          -DNWK_START_DELAY=100 -DEXTENDED_JOINING_RANDOM_MA #
#                          SK=0x007F -DBEACON_REQUEST_DELAY=100               #
#                          -DBEACON_REQ_DELAY_MASK=0x00FF                     #
#                          -DROUTE_EXPIRY_TIME=30 -DAPSC_ACK_WAIT_DURATION_PO #
#                          LLED=3000 -DNWK_INDIRECT_MSG_TIMEOUT=7             #
#                          -DMAX_RREQ_ENTRIES=8 -DAPSC_MAX_FRAME_RETRIES=3    #
#                          -DNWK_MAX_DATA_RETRIES=2                           #
#                          -DMAX_POLL_FAILURE_RETRIES=2 -DMAX_BCAST=9         #
#                          -DAPS_MAX_GROUPS=16 -DMAX_RTG_ENTRIES=40           #
#                          -DNWK_MAX_BINDING_ENTRIES=4                        #
#                          -DMAX_BINDING_CLUSTER_IDS=4 "-DDEFAULT_KEY={0x01,  #
#                          0x03, 0x05, 0x07, 0x09, 0x0B, 0x0D, 0x0F, 0x00,    #
#                          0x02, 0x04, 0x06, 0x08, 0x0A, 0x0C, 0x0D}"         #
#                          -DMAC_MAX_FRAME_SIZE=116 "-DCONST=const __code"    #
#                          -DGENERIC=__generic -DRFD_RCVC_ALWAYS_ON=TRUE      #
#                          -DPOLL_RATE=1000 -DQUEUED_POLL_RATE=100            #
#                          -DRESPONSE_POLL_RATE=100) -DREJOIN_POLL_RATE=440   #
#                          C:\Users\ArnoldWorkStation\Desktop\ZigbeeTest\Comp #
#                          onents\mt\MT_DEBUG.c -D ZIGBEEPRO -D ZTOOL_P1 -D   #
#                          xMT_TASK -D xMT_SYS_FUNC -D xMT_ZDO_FUNC -D        #
#                          LCD_SUPPORTED=DEBUG -lC C:\Users\ArnoldWorkStation #
#                          \Desktop\ZigbeeTest\Projects\zstack\Samples\Sample #
#                          App\CC2530DB\PCCoordinatorEBPro\List\ -lA          #
#                          C:\Users\ArnoldWorkStation\Desktop\ZigbeeTest\Proj #
#                          ects\zstack\Samples\SampleApp\CC2530DB\PCCoordinat #
#                          orEBPro\List\ --diag_suppress Pe001,Pa010 -o       #
#                          C:\Users\ArnoldWorkStation\Desktop\ZigbeeTest\Proj #
#                          ects\zstack\Samples\SampleApp\CC2530DB\PCCoordinat #
#                          orEBPro\Obj\ -e --no_cse --no_unroll --no_inline   #
#                          --no_code_motion --no_tbaa --debug --core=plain    #
#                          --dptr=16,1 --data_model=large                     #
#                          --code_model=banked --calling_convention=xdata_ree #
#                          ntrant --place_constants=data_rom                  #
#                          --nr_virtual_regs 16 -I C:\Users\ArnoldWorkStation #
#                          \Desktop\ZigbeeTest\Projects\zstack\Samples\Sample #
#                          App\CC2530DB\ -I C:\Users\ArnoldWorkStation\Deskto #
#                          p\ZigbeeTest\Projects\zstack\Samples\SampleApp\CC2 #
#                          530DB\..\SOURCE\ -I C:\Users\ArnoldWorkStation\Des #
#                          ktop\ZigbeeTest\Projects\zstack\Samples\SampleApp\ #
#                          CC2530DB\..\..\..\ZMAIN\TI2530DB\ -I               #
#                          C:\Users\ArnoldWorkStation\Desktop\ZigbeeTest\Proj #
#                          ects\zstack\Samples\SampleApp\CC2530DB\..\..\..\.. #
#                          \..\COMPONENTS\MT\ -I C:\Users\ArnoldWorkStation\D #
#                          esktop\ZigbeeTest\Projects\zstack\Samples\SampleAp #
#                          p\CC2530DB\..\..\..\..\..\COMPONENTS\HAL\INCLUDE\  #
#                          -I C:\Users\ArnoldWorkStation\Desktop\ZigbeeTest\P #
#                          rojects\zstack\Samples\SampleApp\CC2530DB\..\..\.. #
#                          \..\..\COMPONENTS\HAL\TARGET\CC2530EB\ -I          #
#                          C:\Users\ArnoldWorkStation\Desktop\ZigbeeTest\Proj #
#                          ects\zstack\Samples\SampleApp\CC2530DB\..\..\..\.. #
#                          \..\COMPONENTS\OSAL\MCU\CCSOC\ -I                  #
#                          C:\Users\ArnoldWorkStation\Desktop\ZigbeeTest\Proj #
#                          ects\zstack\Samples\SampleApp\CC2530DB\..\..\..\.. #
#                          \..\COMPONENTS\OSAL\INCLUDE\ -I                    #
#                          C:\Users\ArnoldWorkStation\Desktop\ZigbeeTest\Proj #
#                          ects\zstack\Samples\SampleApp\CC2530DB\..\..\..\.. #
#                          \..\COMPONENTS\STACK\AF\ -I                        #
#                          C:\Users\ArnoldWorkStation\Desktop\ZigbeeTest\Proj #
#                          ects\zstack\Samples\SampleApp\CC2530DB\..\..\..\.. #
#                          \..\COMPONENTS\STACK\NWK\ -I                       #
#                          C:\Users\ArnoldWorkStation\Desktop\ZigbeeTest\Proj #
#                          ects\zstack\Samples\SampleApp\CC2530DB\..\..\..\.. #
#                          \..\COMPONENTS\STACK\SEC\ -I                       #
#                          C:\Users\ArnoldWorkStation\Desktop\ZigbeeTest\Proj #
#                          ects\zstack\Samples\SampleApp\CC2530DB\..\..\..\.. #
#                          \..\COMPONENTS\STACK\SAPI\ -I                      #
#                          C:\Users\ArnoldWorkStation\Desktop\ZigbeeTest\Proj #
#                          ects\zstack\Samples\SampleApp\CC2530DB\..\..\..\.. #
#                          \..\COMPONENTS\STACK\SYS\ -I                       #
#                          C:\Users\ArnoldWorkStation\Desktop\ZigbeeTest\Proj #
#                          ects\zstack\Samples\SampleApp\CC2530DB\..\..\..\.. #
#                          \..\COMPONENTS\STACK\ZDO\ -I                       #
#                          C:\Users\ArnoldWorkStation\Desktop\ZigbeeTest\Proj #
#                          ects\zstack\Samples\SampleApp\CC2530DB\..\..\..\.. #
#                          \..\COMPONENTS\ZMAC\F8W\ -I                        #
#                          C:\Users\ArnoldWorkStation\Desktop\ZigbeeTest\Proj #
#                          ects\zstack\Samples\SampleApp\CC2530DB\..\..\..\.. #
#                          \..\COMPONENTS\ZMAC\ -I C:\Users\ArnoldWorkStation #
#                          \Desktop\ZigbeeTest\Projects\zstack\Samples\Sample #
#                          App\CC2530DB\..\..\..\..\..\COMPONENTS\SERVICES\SA #
#                          DDR\ -I C:\Users\ArnoldWorkStation\Desktop\ZigbeeT #
#                          est\Projects\zstack\Samples\SampleApp\CC2530DB\..\ #
#                          ..\..\..\..\COMPONENTS\SERVICES\SDATA\ -I          #
#                          C:\Users\ArnoldWorkStation\Desktop\ZigbeeTest\Proj #
#                          ects\zstack\Samples\SampleApp\CC2530DB\..\..\..\.. #
#                          \..\COMPONENTS\MAC\INCLUDE\ -I                     #
#                          C:\Users\ArnoldWorkStation\Desktop\ZigbeeTest\Proj #
#                          ects\zstack\Samples\SampleApp\CC2530DB\..\..\..\.. #
#                          \..\COMPONENTS\MAC\HIGH_LEVEL\ -I                  #
#                          C:\Users\ArnoldWorkStation\Desktop\ZigbeeTest\Proj #
#                          ects\zstack\Samples\SampleApp\CC2530DB\..\..\..\.. #
#                          \..\COMPONENTS\MAC\LOW_LEVEL\srf04\ -I             #
#                          C:\Users\ArnoldWorkStation\Desktop\ZigbeeTest\Proj #
#                          ects\zstack\Samples\SampleApp\CC2530DB\..\..\..\.. #
#                          \..\COMPONENTS\MAC\LOW_LEVEL\srf04\SINGLE_CHIP\    #
#                          -On --require_prototypes                           #
#    List file          =  C:\Users\ArnoldWorkStation\Desktop\ZigbeeTest\Proj #
#                          ects\zstack\Samples\SampleApp\CC2530DB\PCCoordinat #
#                          orEBPro\List\MT_DEBUG.lst                          #
#    Object file        =  C:\Users\ArnoldWorkStation\Desktop\ZigbeeTest\Proj #
#                          ects\zstack\Samples\SampleApp\CC2530DB\PCCoordinat #
#                          orEBPro\Obj\MT_DEBUG.r51                           #
#                                                                             #
#                                                                             #
###############################################################################

C:\Users\ArnoldWorkStation\Desktop\ZigbeeTest\Components\mt\MT_DEBUG.c
      1          /***************************************************************************************************
      2            Filename:       MT.c
      3            Revised:        $Date: 2008-02-12 16:28:45 -0800 (Tue, 12 Feb 2008) $
      4            Revision:       $Revision: 16392 $
      5          
      6            Description:
      7          
      8            Copyright 2007 Texas Instruments Incorporated. All rights reserved.
      9          
     10            IMPORTANT: Your use of this Software is limited to those specific rights
     11            granted under the terms of a software license agreement between the user
     12            who downloaded the software, his/her employer (which must be your employer)
     13            and Texas Instruments Incorporated (the "License").  You may not use this
     14            Software unless you agree to abide by the terms of the License. The License
     15            limits your use, and you acknowledge, that the Software may not be modified,
     16            copied or distributed unless embedded on a Texas Instruments microcontroller
     17            or used solely and exclusively in conjunction with a Texas Instruments radio
     18            frequency transceiver, which is integrated into your product.  Other than for
     19            the foregoing purpose, you may not use, reproduce, copy, prepare derivative
     20            works of, modify, distribute, perform, display or sell this Software and/or
     21            its documentation for any purpose.
     22          
     23            YOU FURTHER ACKNOWLEDGE AND AGREE THAT THE SOFTWARE AND DOCUMENTATION ARE
     24            PROVIDED “AS IS” WITHOUT WARRANTY OF ANY KIND, EITHER EXPRESS OR IMPLIED,
     25            INCLUDING WITHOUT LIMITATION, ANY WARRANTY OF MERCHANTABILITY, TITLE,
     26            NON-INFRINGEMENT AND FITNESS FOR A PARTICULAR PURPOSE. IN NO EVENT SHALL
     27            TEXAS INSTRUMENTS OR ITS LICENSORS BE LIABLE OR OBLIGATED UNDER CONTRACT,
     28            NEGLIGENCE, STRICT LIABILITY, CONTRIBUTION, BREACH OF WARRANTY, OR OTHER
     29            LEGAL EQUITABLE THEORY ANY DIRECT OR INDIRECT DAMAGES OR EXPENSES
     30            INCLUDING BUT NOT LIMITED TO ANY INCIDENTAL, SPECIAL, INDIRECT, PUNITIVE
     31            OR CONSEQUENTIAL DAMAGES, LOST PROFITS OR LOST DATA, COST OF PROCUREMENT
     32            OF SUBSTITUTE GOODS, TECHNOLOGY, SERVICES, OR ANY CLAIMS BY THIRD PARTIES
     33            (INCLUDING BUT NOT LIMITED TO ANY DEFENSE THEREOF), OR OTHER SIMILAR COSTS.
     34          
     35            Should you have any questions regarding your right to use this Software,
     36            contact Texas Instruments Incorporated at www.TI.com.
     37          
     38           ***************************************************************************************************/
     39          
     40          /***************************************************************************************************
     41           * INCLUDES
     42           ***************************************************************************************************/
     43          #include "ZComDef.h"
     44          #include "MT.h"
     45          #include "MT_DEBUG.h"
     46          #include "MT_UART.h"
     47          
     48          /***************************************************************************************************
     49           * LOCAL FUNCTIONs
     50           ***************************************************************************************************/
     51          #if defined (MT_DEBUG_FUNC)
     52          void MT_DebugSetThreshold(uint8 *pBuf);
     53          #endif
     54          
     55          #if defined (MT_DEBUG_FUNC)
     56          /***************************************************************************************************
     57           * @fn      MT_DebugProcessing
     58           *
     59           * @brief   Process all the DEBUG commands that are issued by test tool
     60           *
     61           * @param   pBuf - pointer to received buffer
     62           *
     63           * @return  status
     64           ***************************************************************************************************/
     65          uint8 MT_DebugCommandProcessing(uint8 *pBuf)
     66          {
     67            uint8 status = MT_RPC_SUCCESS;
     68          
     69            switch (pBuf[MT_RPC_POS_CMD1])
     70            {
     71              case MT_DEBUG_SET_THRESHOLD:
     72                MT_DebugSetThreshold(pBuf);
     73                break;
     74          
     75              default:
     76                status = MT_RPC_ERR_COMMAND_ID;
     77                break;
     78            }
     79          
     80            return status;
     81          }
     82          
     83          /***************************************************************************************************
     84           * @fn      MT_DebugSetThreshold
     85           *
     86           * @brief   Process Debug Set Threshold
     87           *
     88           * @param   pBuf - pointer to received buffer
     89           *
     90           * @return  void
     91           ***************************************************************************************************/
     92          void MT_DebugSetThreshold(uint8 *pBuf)
     93          {
     94            uint8 retValue = ZSuccess;
     95            uint8 cmdId;
     96          
     97            /* parse header */
     98            cmdId = pBuf[MT_RPC_POS_CMD1];
     99            pBuf += MT_RPC_FRAME_HDR_SZ;
    100          
    101            /* Populate info */
    102            debugCompId = *pBuf++;
    103            debugThreshold = *pBuf++;
    104          
    105            /* Build and send back the response */
    106            MT_BuildAndSendZToolResponse(((uint8)MT_RPC_CMD_SRSP | (uint8)MT_RPC_SYS_DBG), cmdId, 1, &retValue);
    107          }
    108          #endif /* MT_DEBUG_FUNC */
    109          
    110          /***************************************************************************************************
    111           * @fn      MT_ProcessDebugMsg
    112           *
    113           * @brief   Build and send a debug message.
    114           *
    115           * @param   byte *data - pointer to the data portion of the debug message
    116           *
    117           * @return  void
    118           ***************************************************************************************************/

   \                                 In  segment BANKED_CODE, align 1, keep-with-next
    119          void MT_ProcessDebugMsg( mtDebugMsg_t *msg )
   \                     MT_ProcessDebugMsg:
    120          {
   \   000000   74F0         MOV     A,#-0x10
   \   000002   12....       LCALL   ?BANKED_ENTER_XDATA
   \   000005                ; Saved register size: 16
   \   000005                ; Auto size: 11
   \   000005   74F5         MOV     A,#-0xb
   \   000007   12....       LCALL   ?ALLOC_XSTACK8
   \   00000A   8A..         MOV     ?V0 + 0,R2
   \   00000C   8B..         MOV     ?V0 + 1,R3
    121            byte *msg_ptr;
    122            byte dataLen;
    123            uint8 buf[11];
    124            uint8 *pBuf;
    125          
    126            /* Calculate the data length based */
    127            dataLen = 5 + (msg->numParams * sizeof ( uint16 ));
   \   00000E   75F002       MOV     B,#0x2
   \   000011   85..82       MOV     DPL,?V0 + 0
   \   000014   85..83       MOV     DPH,?V0 + 1
   \   000017   A3           INC     DPTR
   \   000018   A3           INC     DPTR
   \   000019   A3           INC     DPTR
   \   00001A   A3           INC     DPTR
   \   00001B   E0           MOVX    A,@DPTR
   \   00001C   A4           MUL     AB
   \   00001D   2405         ADD     A,#0x5
   \   00001F   F5..         MOV     ?V0 + 2,A
    128          
    129            /* Get a message buffer to build the debug message */
    130            msg_ptr = osal_msg_allocate( (byte)(SPI_0DATA_MSG_LEN + dataLen + 1) );
   \   000021                ; Setup parameters for call to function osal_msg_allocate
   \   000021   7406         MOV     A,#0x6
   \   000023   25..         ADD     A,?V0 + 2
   \   000025   FA           MOV     R2,A
   \   000026   7B00         MOV     R3,#0x0
   \   000028   12....       LCALL   ??osal_msg_allocate?relay
   \   00002B   8A..         MOV     ?V0 + 6,R2
   \   00002D   8B..         MOV     ?V0 + 7,R3
   \   00002F   85....       MOV     ?V0 + 4,?V0 + 6
   \   000032   85....       MOV     ?V0 + 5,?V0 + 7
    131            if ( msg_ptr )
   \   000035   E5..         MOV     A,?V0 + 4
   \   000037   45..         ORL     A,?V0 + 5
   \   000039   7003         JNZ     $+5
   \   00003B   02....       LJMP    ??MT_ProcessDebugMsg_0 & 0xFFFF
    132            {
    133              /* Build the message */
    134              pBuf = buf;
   \   00003E   85..82       MOV     DPL,?XSP + 0
   \   000041   85..83       MOV     DPH,?XSP + 1
   \   000044   AE82         MOV     R6,DPL
   \   000046   AF83         MOV     R7,DPH
    135              *pBuf++ = msg->compID;
   \   000048   85..82       MOV     DPL,?V0 + 0
   \   00004B   85..83       MOV     DPH,?V0 + 1
   \   00004E   A3           INC     DPTR
   \   00004F   A3           INC     DPTR
   \   000050   E0           MOVX    A,@DPTR
   \   000051   8E82         MOV     DPL,R6
   \   000053   8F83         MOV     DPH,R7
   \   000055   F0           MOVX    @DPTR,A
   \   000056   8E82         MOV     DPL,R6
   \   000058   8F83         MOV     DPH,R7
   \   00005A   A3           INC     DPTR
   \   00005B   AE82         MOV     R6,DPL
   \   00005D   AF83         MOV     R7,DPH
    136              *pBuf++ = msg->severity;
   \   00005F   85..82       MOV     DPL,?V0 + 0
   \   000062   85..83       MOV     DPH,?V0 + 1
   \   000065   A3           INC     DPTR
   \   000066   A3           INC     DPTR
   \   000067   A3           INC     DPTR
   \   000068   E0           MOVX    A,@DPTR
   \   000069   8E82         MOV     DPL,R6
   \   00006B   8F83         MOV     DPH,R7
   \   00006D   F0           MOVX    @DPTR,A
   \   00006E   8E82         MOV     DPL,R6
   \   000070   8F83         MOV     DPH,R7
   \   000072   A3           INC     DPTR
   \   000073   AE82         MOV     R6,DPL
   \   000075   AF83         MOV     R7,DPH
    137              *pBuf++ = msg->numParams;
   \   000077   85..82       MOV     DPL,?V0 + 0
   \   00007A   85..83       MOV     DPH,?V0 + 1
   \   00007D   A3           INC     DPTR
   \   00007E   A3           INC     DPTR
   \   00007F   A3           INC     DPTR
   \   000080   A3           INC     DPTR
   \   000081   E0           MOVX    A,@DPTR
   \   000082   8E82         MOV     DPL,R6
   \   000084   8F83         MOV     DPH,R7
   \   000086   F0           MOVX    @DPTR,A
   \   000087   8E82         MOV     DPL,R6
   \   000089   8F83         MOV     DPH,R7
   \   00008B   A3           INC     DPTR
   \   00008C   AE82         MOV     R6,DPL
   \   00008E   AF83         MOV     R7,DPH
    138          
    139              if ( msg->numParams >= 1 )
   \   000090   85..82       MOV     DPL,?V0 + 0
   \   000093   85..83       MOV     DPH,?V0 + 1
   \   000096   A3           INC     DPTR
   \   000097   A3           INC     DPTR
   \   000098   A3           INC     DPTR
   \   000099   A3           INC     DPTR
   \   00009A   E0           MOVX    A,@DPTR
   \   00009B   C3           CLR     C
   \   00009C   9401         SUBB    A,#0x1
   \   00009E   4040         JC      ??MT_ProcessDebugMsg_1
    140              {
    141                *pBuf++ = LO_UINT16( msg->param1 );
   \   0000A0   85..82       MOV     DPL,?V0 + 0
   \   0000A3   85..83       MOV     DPH,?V0 + 1
   \   0000A6   A3           INC     DPTR
   \   0000A7   A3           INC     DPTR
   \   0000A8   A3           INC     DPTR
   \   0000A9   A3           INC     DPTR
   \   0000AA   A3           INC     DPTR
   \   0000AB   E0           MOVX    A,@DPTR
   \   0000AC   F8           MOV     R0,A
   \   0000AD   A3           INC     DPTR
   \   0000AE   E0           MOVX    A,@DPTR
   \   0000AF   F9           MOV     R1,A
   \   0000B0   E8           MOV     A,R0
   \   0000B1   8E82         MOV     DPL,R6
   \   0000B3   8F83         MOV     DPH,R7
   \   0000B5   F0           MOVX    @DPTR,A
   \   0000B6   8E82         MOV     DPL,R6
   \   0000B8   8F83         MOV     DPH,R7
   \   0000BA   A3           INC     DPTR
   \   0000BB   AE82         MOV     R6,DPL
   \   0000BD   AF83         MOV     R7,DPH
    142                *pBuf++ = HI_UINT16( msg->param1 );
   \   0000BF   85..82       MOV     DPL,?V0 + 0
   \   0000C2   85..83       MOV     DPH,?V0 + 1
   \   0000C5   A3           INC     DPTR
   \   0000C6   A3           INC     DPTR
   \   0000C7   A3           INC     DPTR
   \   0000C8   A3           INC     DPTR
   \   0000C9   A3           INC     DPTR
   \   0000CA   E0           MOVX    A,@DPTR
   \   0000CB   F8           MOV     R0,A
   \   0000CC   A3           INC     DPTR
   \   0000CD   E0           MOVX    A,@DPTR
   \   0000CE   F9           MOV     R1,A
   \   0000CF   E4           CLR     A
   \   0000D0   E9           MOV     A,R1
   \   0000D1   F8           MOV     R0,A
   \   0000D2   8E82         MOV     DPL,R6
   \   0000D4   8F83         MOV     DPH,R7
   \   0000D6   F0           MOVX    @DPTR,A
   \   0000D7   8E82         MOV     DPL,R6
   \   0000D9   8F83         MOV     DPH,R7
   \   0000DB   A3           INC     DPTR
   \   0000DC   AE82         MOV     R6,DPL
   \   0000DE   AF83         MOV     R7,DPH
    143              }
    144          
    145              if ( msg->numParams >= 2 )
   \                     ??MT_ProcessDebugMsg_1:
   \   0000E0   85..82       MOV     DPL,?V0 + 0
   \   0000E3   85..83       MOV     DPH,?V0 + 1
   \   0000E6   A3           INC     DPTR
   \   0000E7   A3           INC     DPTR
   \   0000E8   A3           INC     DPTR
   \   0000E9   A3           INC     DPTR
   \   0000EA   E0           MOVX    A,@DPTR
   \   0000EB   C3           CLR     C
   \   0000EC   9402         SUBB    A,#0x2
   \   0000EE   4044         JC      ??MT_ProcessDebugMsg_2
    146              {
    147                *pBuf++ = LO_UINT16( msg->param2 );
   \   0000F0   85..82       MOV     DPL,?V0 + 0
   \   0000F3   85..83       MOV     DPH,?V0 + 1
   \   0000F6   A3           INC     DPTR
   \   0000F7   A3           INC     DPTR
   \   0000F8   A3           INC     DPTR
   \   0000F9   A3           INC     DPTR
   \   0000FA   A3           INC     DPTR
   \   0000FB   A3           INC     DPTR
   \   0000FC   A3           INC     DPTR
   \   0000FD   E0           MOVX    A,@DPTR
   \   0000FE   F8           MOV     R0,A
   \   0000FF   A3           INC     DPTR
   \   000100   E0           MOVX    A,@DPTR
   \   000101   F9           MOV     R1,A
   \   000102   E8           MOV     A,R0
   \   000103   8E82         MOV     DPL,R6
   \   000105   8F83         MOV     DPH,R7
   \   000107   F0           MOVX    @DPTR,A
   \   000108   8E82         MOV     DPL,R6
   \   00010A   8F83         MOV     DPH,R7
   \   00010C   A3           INC     DPTR
   \   00010D   AE82         MOV     R6,DPL
   \   00010F   AF83         MOV     R7,DPH
    148                *pBuf++ = HI_UINT16( msg->param2 );
   \   000111   85..82       MOV     DPL,?V0 + 0
   \   000114   85..83       MOV     DPH,?V0 + 1
   \   000117   A3           INC     DPTR
   \   000118   A3           INC     DPTR
   \   000119   A3           INC     DPTR
   \   00011A   A3           INC     DPTR
   \   00011B   A3           INC     DPTR
   \   00011C   A3           INC     DPTR
   \   00011D   A3           INC     DPTR
   \   00011E   E0           MOVX    A,@DPTR
   \   00011F   F8           MOV     R0,A
   \   000120   A3           INC     DPTR
   \   000121   E0           MOVX    A,@DPTR
   \   000122   F9           MOV     R1,A
   \   000123   E4           CLR     A
   \   000124   E9           MOV     A,R1
   \   000125   F8           MOV     R0,A
   \   000126   8E82         MOV     DPL,R6
   \   000128   8F83         MOV     DPH,R7
   \   00012A   F0           MOVX    @DPTR,A
   \   00012B   8E82         MOV     DPL,R6
   \   00012D   8F83         MOV     DPH,R7
   \   00012F   A3           INC     DPTR
   \   000130   AE82         MOV     R6,DPL
   \   000132   AF83         MOV     R7,DPH
    149              }
    150          
    151              if ( msg->numParams == 3 )
   \                     ??MT_ProcessDebugMsg_2:
   \   000134   85..82       MOV     DPL,?V0 + 0
   \   000137   85..83       MOV     DPH,?V0 + 1
   \   00013A   A3           INC     DPTR
   \   00013B   A3           INC     DPTR
   \   00013C   A3           INC     DPTR
   \   00013D   A3           INC     DPTR
   \   00013E   E0           MOVX    A,@DPTR
   \   00013F   6403         XRL     A,#0x3
   \   000141   7048         JNZ     ??MT_ProcessDebugMsg_3
    152              {
    153                *pBuf++ = LO_UINT16( msg->param3 );
   \   000143   85..82       MOV     DPL,?V0 + 0
   \   000146   85..83       MOV     DPH,?V0 + 1
   \   000149   A3           INC     DPTR
   \   00014A   A3           INC     DPTR
   \   00014B   A3           INC     DPTR
   \   00014C   A3           INC     DPTR
   \   00014D   A3           INC     DPTR
   \   00014E   A3           INC     DPTR
   \   00014F   A3           INC     DPTR
   \   000150   A3           INC     DPTR
   \   000151   A3           INC     DPTR
   \   000152   E0           MOVX    A,@DPTR
   \   000153   F8           MOV     R0,A
   \   000154   A3           INC     DPTR
   \   000155   E0           MOVX    A,@DPTR
   \   000156   F9           MOV     R1,A
   \   000157   E8           MOV     A,R0
   \   000158   8E82         MOV     DPL,R6
   \   00015A   8F83         MOV     DPH,R7
   \   00015C   F0           MOVX    @DPTR,A
   \   00015D   8E82         MOV     DPL,R6
   \   00015F   8F83         MOV     DPH,R7
   \   000161   A3           INC     DPTR
   \   000162   AE82         MOV     R6,DPL
   \   000164   AF83         MOV     R7,DPH
    154                *pBuf++ = HI_UINT16( msg->param3 );
   \   000166   85..82       MOV     DPL,?V0 + 0
   \   000169   85..83       MOV     DPH,?V0 + 1
   \   00016C   A3           INC     DPTR
   \   00016D   A3           INC     DPTR
   \   00016E   A3           INC     DPTR
   \   00016F   A3           INC     DPTR
   \   000170   A3           INC     DPTR
   \   000171   A3           INC     DPTR
   \   000172   A3           INC     DPTR
   \   000173   A3           INC     DPTR
   \   000174   A3           INC     DPTR
   \   000175   E0           MOVX    A,@DPTR
   \   000176   F8           MOV     R0,A
   \   000177   A3           INC     DPTR
   \   000178   E0           MOVX    A,@DPTR
   \   000179   F9           MOV     R1,A
   \   00017A   E4           CLR     A
   \   00017B   E9           MOV     A,R1
   \   00017C   F8           MOV     R0,A
   \   00017D   8E82         MOV     DPL,R6
   \   00017F   8F83         MOV     DPH,R7
   \   000181   F0           MOVX    @DPTR,A
   \   000182   8E82         MOV     DPL,R6
   \   000184   8F83         MOV     DPH,R7
   \   000186   A3           INC     DPTR
   \   000187   AE82         MOV     R6,DPL
   \   000189   AF83         MOV     R7,DPH
    155              }
    156          
    157              *pBuf++ = LO_UINT16( msg->timestamp );
   \                     ??MT_ProcessDebugMsg_3:
   \   00018B   E5..         MOV     A,?V0 + 0
   \   00018D   240B         ADD     A,#0xb
   \   00018F   F582         MOV     DPL,A
   \   000191   E5..         MOV     A,?V0 + 1
   \   000193   3400         ADDC    A,#0x0
   \   000195   F583         MOV     DPH,A
   \   000197   E0           MOVX    A,@DPTR
   \   000198   F8           MOV     R0,A
   \   000199   A3           INC     DPTR
   \   00019A   E0           MOVX    A,@DPTR
   \   00019B   F9           MOV     R1,A
   \   00019C   E8           MOV     A,R0
   \   00019D   8E82         MOV     DPL,R6
   \   00019F   8F83         MOV     DPH,R7
   \   0001A1   F0           MOVX    @DPTR,A
   \   0001A2   8E82         MOV     DPL,R6
   \   0001A4   8F83         MOV     DPH,R7
   \   0001A6   A3           INC     DPTR
   \   0001A7   AE82         MOV     R6,DPL
   \   0001A9   AF83         MOV     R7,DPH
    158              *pBuf++ = HI_UINT16( msg->timestamp );
   \   0001AB   E5..         MOV     A,?V0 + 0
   \   0001AD   240B         ADD     A,#0xb
   \   0001AF   F582         MOV     DPL,A
   \   0001B1   E5..         MOV     A,?V0 + 1
   \   0001B3   3400         ADDC    A,#0x0
   \   0001B5   F583         MOV     DPH,A
   \   0001B7   E0           MOVX    A,@DPTR
   \   0001B8   F8           MOV     R0,A
   \   0001B9   A3           INC     DPTR
   \   0001BA   E0           MOVX    A,@DPTR
   \   0001BB   F9           MOV     R1,A
   \   0001BC   E4           CLR     A
   \   0001BD   E9           MOV     A,R1
   \   0001BE   F8           MOV     R0,A
   \   0001BF   8E82         MOV     DPL,R6
   \   0001C1   8F83         MOV     DPH,R7
   \   0001C3   F0           MOVX    @DPTR,A
   \   0001C4   8E82         MOV     DPL,R6
   \   0001C6   8F83         MOV     DPH,R7
   \   0001C8   A3           INC     DPTR
   \   0001C9   AE82         MOV     R6,DPL
   \   0001CB   AF83         MOV     R7,DPH
    159          
    160          #ifdef MT_UART_DEFAULT_PORT
    161              /* Debug message is set to AREQ CMD 0x80 for now */
    162              /* Build and send back the response */
    163              MT_BuildAndSendZToolResponse(((uint8)MT_RPC_CMD_AREQ | (uint8)MT_RPC_SYS_DBG), 0x80, dataLen, buf);
   \   0001CD                ; Setup parameters for call to function MT_BuildAndSendZToolResponse
   \   0001CD   85..82       MOV     DPL,?XSP + 0
   \   0001D0   85..83       MOV     DPH,?XSP + 1
   \   0001D3   AC82         MOV     R4,DPL
   \   0001D5   AD83         MOV     R5,DPH
   \   0001D7   AB..         MOV     R3,?V0 + 2
   \   0001D9   7A80         MOV     R2,#-0x80
   \   0001DB   7948         MOV     R1,#0x48
   \   0001DD   12....       LCALL   ??MT_BuildAndSendZToolResponse?relay
    164          #endif
    165              osal_msg_deallocate( msg_ptr );
   \   0001E0                ; Setup parameters for call to function osal_msg_deallocate
   \   0001E0   AA..         MOV     R2,?V0 + 4
   \   0001E2   AB..         MOV     R3,?V0 + 5
   \   0001E4   12....       LCALL   ??osal_msg_deallocate?relay
   \   0001E7   E9           MOV     A,R1
    166            }
    167          }
   \                     ??MT_ProcessDebugMsg_0:
   \   0001E8   740B         MOV     A,#0xb
   \   0001EA   12....       LCALL   ?DEALLOC_XSTACK8
   \   0001ED   7F08         MOV     R7,#0x8
   \   0001EF   02....       LJMP    ?BANKED_LEAVE_XDATA
    168          
    169          /***************************************************************************************************
    170           * @fn      MT_ProcessDebugStr
    171           *
    172           * @brief   Build and send a debug string.
    173           *
    174           * @param   byte *dstr - pointer to the data portion of the debug message
    175           *
    176           * @return  void
    177           ***************************************************************************************************/

   \                                 In  segment BANKED_CODE, align 1, keep-with-next
    178          void MT_ProcessDebugStr(mtDebugStr_t *dstr)
   \                     MT_ProcessDebugStr:
    179          {
   \   000000   74F4         MOV     A,#-0xc
   \   000002   12....       LCALL   ?BANKED_ENTER_XDATA
   \   000005                ; Saved register size: 12
   \   000005                ; Auto size: 0
   \   000005   EA           MOV     A,R2
   \   000006   FE           MOV     R6,A
   \   000007   EB           MOV     A,R3
   \   000008   FF           MOV     R7,A
    180            byte *msg_ptr;
    181          
    182            /* Get a message buffer to build the debug message */
    183            msg_ptr = osal_mem_alloc( (byte)(SPI_0DATA_MSG_LEN + dstr->strLen) );
   \   000009                ; Setup parameters for call to function osal_mem_alloc
   \   000009   8E82         MOV     DPL,R6
   \   00000B   8F83         MOV     DPH,R7
   \   00000D   A3           INC     DPTR
   \   00000E   A3           INC     DPTR
   \   00000F   E0           MOVX    A,@DPTR
   \   000010   2405         ADD     A,#0x5
   \   000012   FA           MOV     R2,A
   \   000013   7B00         MOV     R3,#0x0
   \   000015   12....       LCALL   ??osal_mem_alloc?relay
   \   000018   8A..         MOV     ?V0 + 2,R2
   \   00001A   8B..         MOV     ?V0 + 3,R3
   \   00001C   85....       MOV     ?V0 + 0,?V0 + 2
   \   00001F   85....       MOV     ?V0 + 1,?V0 + 3
    184            if ( msg_ptr )
   \   000022   E5..         MOV     A,?V0 + 0
   \   000024   45..         ORL     A,?V0 + 1
   \   000026   6022         JZ      ??MT_ProcessDebugStr_0
    185            {
    186          #ifdef MT_UART_DEFAULT_PORT
    187              /* Debug message is set to AREQ CMD 0x80 for now */
    188              /* Build and send back the response */
    189              MT_BuildAndSendZToolResponse(((uint8)MT_RPC_CMD_AREQ | (uint8)MT_RPC_SYS_DBG), MT_DEBUG_MSG, dstr->strLen, dstr->pString);
   \   000028                ; Setup parameters for call to function MT_BuildAndSendZToolResponse
   \   000028   8E82         MOV     DPL,R6
   \   00002A   8F83         MOV     DPH,R7
   \   00002C   A3           INC     DPTR
   \   00002D   A3           INC     DPTR
   \   00002E   A3           INC     DPTR
   \   00002F   E0           MOVX    A,@DPTR
   \   000030   FC           MOV     R4,A
   \   000031   A3           INC     DPTR
   \   000032   E0           MOVX    A,@DPTR
   \   000033   FD           MOV     R5,A
   \   000034   8E82         MOV     DPL,R6
   \   000036   8F83         MOV     DPH,R7
   \   000038   A3           INC     DPTR
   \   000039   A3           INC     DPTR
   \   00003A   E0           MOVX    A,@DPTR
   \   00003B   FB           MOV     R3,A
   \   00003C   7A80         MOV     R2,#-0x80
   \   00003E   7948         MOV     R1,#0x48
   \   000040   12....       LCALL   ??MT_BuildAndSendZToolResponse?relay
    190          #endif
    191              osal_mem_free( msg_ptr );
   \   000043                ; Setup parameters for call to function osal_mem_free
   \   000043   AA..         MOV     R2,?V0 + 0
   \   000045   AB..         MOV     R3,?V0 + 1
   \   000047   12....       LCALL   ??osal_mem_free?relay
    192            }
    193          }
   \                     ??MT_ProcessDebugStr_0:
   \   00004A   7F04         MOV     R7,#0x4
   \   00004C   02....       LJMP    ?BANKED_LEAVE_XDATA

   \                                 In  segment BANK_RELAYS, align 1
   \                     ??MT_ProcessDebugMsg?relay:
   \   000000   12....       LCALL   ?BDISPATCH
   \   000003   ......       DC24    MT_ProcessDebugMsg

   \                                 In  segment BANK_RELAYS, align 1
   \                     ??MT_ProcessDebugStr?relay:
   \   000000   12....       LCALL   ?BDISPATCH
   \   000003   ......       DC24    MT_ProcessDebugStr
    194          /***************************************************************************************************
    195           ***************************************************************************************************/

   Maximum stack usage in bytes:

   ISTACK PSTACK XSTACK Function
   ------ ------ ------ --------
       1      0     27  MT_ProcessDebugMsg
                          0 0 27 -> MT_BuildAndSendZToolResponse
                          0 0 27 -> osal_msg_allocate
                          0 0 27 -> osal_msg_deallocate
       0      0     12  MT_ProcessDebugStr
                          0 0 12 -> MT_BuildAndSendZToolResponse
                          0 0 12 -> osal_mem_alloc
                          0 0 12 -> osal_mem_free


   Segment part sizes:

   Bytes  Function/Label
   -----  --------------
       6  ??MT_ProcessDebugMsg?relay
       6  ??MT_ProcessDebugStr?relay
     498  MT_ProcessDebugMsg
      79  MT_ProcessDebugStr

 
 577 bytes in segment BANKED_CODE
  12 bytes in segment BANK_RELAYS
 
 589 bytes of CODE memory

Errors: none
Warnings: none
