###############################################################################
#                                                                             #
# IAR C/C++ Compiler V8.20.2.41139 for 8051             05/Jan/2016  16:14:37 #
# Copyright 2004-2013 IAR Systems AB.                                         #
#                                                                             #
#    Core               =  plain                                              #
#    Code model         =  banked                                             #
#    Data model         =  large                                              #
#    Calling convention =  xdata reentrant                                    #
#    Constant location  =  data_rom                                           #
#    Dptr setup         =  1,16                                               #
#                                                                             #
#    Source file        =  C:\Users\ArnoldWorkStation\Desktop\ZigbeeTest\Comp #
#                          onents\stack\zdo\ZDObject.c                        #
#    Command line       =  -f C:\Users\ArnoldWorkStation\Desktop\ZigbeeTest\P #
#                          rojects\zstack\Samples\SampleApp\CC2530DB\..\..\.. #
#                          \Tools\CC2530DB\f8wCoord.cfg (-DCPU32MHZ           #
#                          -DROOT=__near_func -DMAC_CFG_APP_PENDING_QUEUE=TRU #
#                          E -DZDO_COORDINATOR -DRTR_NWK -DBLINK_LEDS) -f     #
#                          C:\Users\ArnoldWorkStation\Desktop\ZigbeeTest\Proj #
#                          ects\zstack\Samples\SampleApp\CC2530DB\..\..\..\To #
#                          ols\CC2530DB\f8wConfig.cfg (-DSECURE=0             #
#                          -DZG_SECURE_DYNAMIC=0 -DREFLECTOR                  #
#                          -DDEFAULT_CHANLIST=0x00000800                      #
#                          -DZDAPP_CONFIG_PAN_ID=0xFFF1                       #
#                          -DNWK_START_DELAY=100 -DEXTENDED_JOINING_RANDOM_MA #
#                          SK=0x007F -DBEACON_REQUEST_DELAY=100               #
#                          -DBEACON_REQ_DELAY_MASK=0x00FF                     #
#                          -DROUTE_EXPIRY_TIME=30 -DAPSC_ACK_WAIT_DURATION_PO #
#                          LLED=3000 -DNWK_INDIRECT_MSG_TIMEOUT=7             #
#                          -DMAX_RREQ_ENTRIES=8 -DAPSC_MAX_FRAME_RETRIES=3    #
#                          -DNWK_MAX_DATA_RETRIES=2                           #
#                          -DMAX_POLL_FAILURE_RETRIES=2 -DMAX_BCAST=9         #
#                          -DAPS_MAX_GROUPS=16 -DMAX_RTG_ENTRIES=40           #
#                          -DNWK_MAX_BINDING_ENTRIES=4                        #
#                          -DMAX_BINDING_CLUSTER_IDS=4 "-DDEFAULT_KEY={0x01,  #
#                          0x03, 0x05, 0x07, 0x09, 0x0B, 0x0D, 0x0F, 0x00,    #
#                          0x02, 0x04, 0x06, 0x08, 0x0A, 0x0C, 0x0D}"         #
#                          -DMAC_MAX_FRAME_SIZE=116 "-DCONST=const __code"    #
#                          -DGENERIC=__generic -DRFD_RCVC_ALWAYS_ON=TRUE      #
#                          -DPOLL_RATE=1000 -DQUEUED_POLL_RATE=100            #
#                          -DRESPONSE_POLL_RATE=100) -DREJOIN_POLL_RATE=440   #
#                          C:\Users\ArnoldWorkStation\Desktop\ZigbeeTest\Comp #
#                          onents\stack\zdo\ZDObject.c -D ZIGBEEPRO -D        #
#                          ZTOOL_P1 -D xMT_TASK -D xMT_SYS_FUNC -D            #
#                          xMT_ZDO_FUNC -D LCD_SUPPORTED=DEBUG -lC            #
#                          C:\Users\ArnoldWorkStation\Desktop\ZigbeeTest\Proj #
#                          ects\zstack\Samples\SampleApp\CC2530DB\PCCoordinat #
#                          orEBPro\List\ -lA C:\Users\ArnoldWorkStation\Deskt #
#                          op\ZigbeeTest\Projects\zstack\Samples\SampleApp\CC #
#                          2530DB\PCCoordinatorEBPro\List\ --diag_suppress    #
#                          Pe001,Pa010 -o C:\Users\ArnoldWorkStation\Desktop\ #
#                          ZigbeeTest\Projects\zstack\Samples\SampleApp\CC253 #
#                          0DB\PCCoordinatorEBPro\Obj\ -e --no_cse            #
#                          --no_unroll --no_inline --no_code_motion           #
#                          --no_tbaa --debug --core=plain --dptr=16,1         #
#                          --data_model=large --code_model=banked             #
#                          --calling_convention=xdata_reentrant               #
#                          --place_constants=data_rom --nr_virtual_regs 16    #
#                          -I C:\Users\ArnoldWorkStation\Desktop\ZigbeeTest\P #
#                          rojects\zstack\Samples\SampleApp\CC2530DB\ -I      #
#                          C:\Users\ArnoldWorkStation\Desktop\ZigbeeTest\Proj #
#                          ects\zstack\Samples\SampleApp\CC2530DB\..\SOURCE\  #
#                          -I C:\Users\ArnoldWorkStation\Desktop\ZigbeeTest\P #
#                          rojects\zstack\Samples\SampleApp\CC2530DB\..\..\.. #
#                          \ZMAIN\TI2530DB\ -I C:\Users\ArnoldWorkStation\Des #
#                          ktop\ZigbeeTest\Projects\zstack\Samples\SampleApp\ #
#                          CC2530DB\..\..\..\..\..\COMPONENTS\MT\ -I          #
#                          C:\Users\ArnoldWorkStation\Desktop\ZigbeeTest\Proj #
#                          ects\zstack\Samples\SampleApp\CC2530DB\..\..\..\.. #
#                          \..\COMPONENTS\HAL\INCLUDE\ -I                     #
#                          C:\Users\ArnoldWorkStation\Desktop\ZigbeeTest\Proj #
#                          ects\zstack\Samples\SampleApp\CC2530DB\..\..\..\.. #
#                          \..\COMPONENTS\HAL\TARGET\CC2530EB\ -I             #
#                          C:\Users\ArnoldWorkStation\Desktop\ZigbeeTest\Proj #
#                          ects\zstack\Samples\SampleApp\CC2530DB\..\..\..\.. #
#                          \..\COMPONENTS\OSAL\MCU\CCSOC\ -I                  #
#                          C:\Users\ArnoldWorkStation\Desktop\ZigbeeTest\Proj #
#                          ects\zstack\Samples\SampleApp\CC2530DB\..\..\..\.. #
#                          \..\COMPONENTS\OSAL\INCLUDE\ -I                    #
#                          C:\Users\ArnoldWorkStation\Desktop\ZigbeeTest\Proj #
#                          ects\zstack\Samples\SampleApp\CC2530DB\..\..\..\.. #
#                          \..\COMPONENTS\STACK\AF\ -I                        #
#                          C:\Users\ArnoldWorkStation\Desktop\ZigbeeTest\Proj #
#                          ects\zstack\Samples\SampleApp\CC2530DB\..\..\..\.. #
#                          \..\COMPONENTS\STACK\NWK\ -I                       #
#                          C:\Users\ArnoldWorkStation\Desktop\ZigbeeTest\Proj #
#                          ects\zstack\Samples\SampleApp\CC2530DB\..\..\..\.. #
#                          \..\COMPONENTS\STACK\SEC\ -I                       #
#                          C:\Users\ArnoldWorkStation\Desktop\ZigbeeTest\Proj #
#                          ects\zstack\Samples\SampleApp\CC2530DB\..\..\..\.. #
#                          \..\COMPONENTS\STACK\SAPI\ -I                      #
#                          C:\Users\ArnoldWorkStation\Desktop\ZigbeeTest\Proj #
#                          ects\zstack\Samples\SampleApp\CC2530DB\..\..\..\.. #
#                          \..\COMPONENTS\STACK\SYS\ -I                       #
#                          C:\Users\ArnoldWorkStation\Desktop\ZigbeeTest\Proj #
#                          ects\zstack\Samples\SampleApp\CC2530DB\..\..\..\.. #
#                          \..\COMPONENTS\STACK\ZDO\ -I                       #
#                          C:\Users\ArnoldWorkStation\Desktop\ZigbeeTest\Proj #
#                          ects\zstack\Samples\SampleApp\CC2530DB\..\..\..\.. #
#                          \..\COMPONENTS\ZMAC\F8W\ -I                        #
#                          C:\Users\ArnoldWorkStation\Desktop\ZigbeeTest\Proj #
#                          ects\zstack\Samples\SampleApp\CC2530DB\..\..\..\.. #
#                          \..\COMPONENTS\ZMAC\ -I C:\Users\ArnoldWorkStation #
#                          \Desktop\ZigbeeTest\Projects\zstack\Samples\Sample #
#                          App\CC2530DB\..\..\..\..\..\COMPONENTS\SERVICES\SA #
#                          DDR\ -I C:\Users\ArnoldWorkStation\Desktop\ZigbeeT #
#                          est\Projects\zstack\Samples\SampleApp\CC2530DB\..\ #
#                          ..\..\..\..\COMPONENTS\SERVICES\SDATA\ -I          #
#                          C:\Users\ArnoldWorkStation\Desktop\ZigbeeTest\Proj #
#                          ects\zstack\Samples\SampleApp\CC2530DB\..\..\..\.. #
#                          \..\COMPONENTS\MAC\INCLUDE\ -I                     #
#                          C:\Users\ArnoldWorkStation\Desktop\ZigbeeTest\Proj #
#                          ects\zstack\Samples\SampleApp\CC2530DB\..\..\..\.. #
#                          \..\COMPONENTS\MAC\HIGH_LEVEL\ -I                  #
#                          C:\Users\ArnoldWorkStation\Desktop\ZigbeeTest\Proj #
#                          ects\zstack\Samples\SampleApp\CC2530DB\..\..\..\.. #
#                          \..\COMPONENTS\MAC\LOW_LEVEL\srf04\ -I             #
#                          C:\Users\ArnoldWorkStation\Desktop\ZigbeeTest\Proj #
#                          ects\zstack\Samples\SampleApp\CC2530DB\..\..\..\.. #
#                          \..\COMPONENTS\MAC\LOW_LEVEL\srf04\SINGLE_CHIP\    #
#                          -On --require_prototypes                           #
#    List file          =  C:\Users\ArnoldWorkStation\Desktop\ZigbeeTest\Proj #
#                          ects\zstack\Samples\SampleApp\CC2530DB\PCCoordinat #
#                          orEBPro\List\ZDObject.lst                          #
#    Object file        =  C:\Users\ArnoldWorkStation\Desktop\ZigbeeTest\Proj #
#                          ects\zstack\Samples\SampleApp\CC2530DB\PCCoordinat #
#                          orEBPro\Obj\ZDObject.r51                           #
#                                                                             #
#                                                                             #
###############################################################################

C:\Users\ArnoldWorkStation\Desktop\ZigbeeTest\Components\stack\zdo\ZDObject.c
      1          /**************************************************************************************************
      2            Filename:       ZDObject.c
      3            Revised:        $Date: 2009-12-29 11:40:43 -0800 (Tue, 29 Dec 2009) $
      4            Revision:       $Revision: 21414 $
      5          
      6            Description:    This is the Zigbee Device Object.
      7          
      8          
      9            Copyright 2004-2009 Texas Instruments Incorporated. All rights reserved.
     10          
     11            IMPORTANT: Your use of this Software is limited to those specific rights
     12            granted under the terms of a software license agreement between the user
     13            who downloaded the software, his/her employer (which must be your employer)
     14            and Texas Instruments Incorporated (the "License").  You may not use this
     15            Software unless you agree to abide by the terms of the License. The License
     16            limits your use, and you acknowledge, that the Software may not be modified,
     17            copied or distributed unless embedded on a Texas Instruments microcontroller
     18            or used solely and exclusively in conjunction with a Texas Instruments radio
     19            frequency transceiver, which is integrated into your product.  Other than for
     20            the foregoing purpose, you may not use, reproduce, copy, prepare derivative
     21            works of, modify, distribute, perform, display or sell this Software and/or
     22            its documentation for any purpose.
     23          
     24            YOU FURTHER ACKNOWLEDGE AND AGREE THAT THE SOFTWARE AND DOCUMENTATION ARE
     25            PROVIDED “AS IS” WITHOUT WARRANTY OF ANY KIND, EITHER EXPRESS OR IMPLIED,
     26            INCLUDING WITHOUT LIMITATION, ANY WARRANTY OF MERCHANTABILITY, TITLE,
     27            NON-INFRINGEMENT AND FITNESS FOR A PARTICULAR PURPOSE. IN NO EVENT SHALL
     28            TEXAS INSTRUMENTS OR ITS LICENSORS BE LIABLE OR OBLIGATED UNDER CONTRACT,
     29            NEGLIGENCE, STRICT LIABILITY, CONTRIBUTION, BREACH OF WARRANTY, OR OTHER
     30            LEGAL EQUITABLE THEORY ANY DIRECT OR INDIRECT DAMAGES OR EXPENSES
     31            INCLUDING BUT NOT LIMITED TO ANY INCIDENTAL, SPECIAL, INDIRECT, PUNITIVE
     32            OR CONSEQUENTIAL DAMAGES, LOST PROFITS OR LOST DATA, COST OF PROCUREMENT
     33            OF SUBSTITUTE GOODS, TECHNOLOGY, SERVICES, OR ANY CLAIMS BY THIRD PARTIES
     34            (INCLUDING BUT NOT LIMITED TO ANY DEFENSE THEREOF), OR OTHER SIMILAR COSTS.
     35          
     36            Should you have any questions regarding your right to use this Software,
     37            contact Texas Instruments Incorporated at www.TI.com.
     38          **************************************************************************************************/
     39          
     40          /*********************************************************************
     41           * INCLUDES
     42           */
     43          #include "ZComdef.h"
     44          #include "OSAL.h"
     45          #include "OSAL_Nv.h"
     46          #include "rtg.h"
     47          #include "NLMEDE.h"
     48          #include "nwk_globals.h"
     49          #include "APS.h"
     50          #include "APSMEDE.h"
     51          #include "AssocList.h"
     52          #include "BindingTable.h"
     53          #include "AddrMgr.h"
     54          #include "AF.h"
     55          #include "ZDObject.h"
     56          #include "ZDProfile.h"
     57          #include "ZDConfig.h"
     58          #include "ZDSecMgr.h"
     59          #include "ZDApp.h"
     60          #include "nwk_util.h"   // NLME_IsAddressBroadcast()
     61          #include "ZGlobals.h"
     62          #if defined MT_ZDO_CB_FUNC
     63          #include "MT.h"
     64          #endif
     65          
     66          #if defined( LCD_SUPPORTED )
     67            #include "OnBoard.h"
     68          #endif
     69          
     70          /* HAL */
     71          #include "hal_lcd.h"
     72          
     73          /*********************************************************************
     74           * MACROS
     75           */
     76          
     77          /*********************************************************************
     78           * CONSTANTS
     79           */
     80          // NLME Stub Implementations
     81          #define ZDO_ProcessMgmtPermitJoinTimeout NLME_PermitJoiningTimeout
     82          
     83          // Status fields used by ZDO_ProcessMgmtRtgReq
     84          #define ZDO_MGMT_RTG_ENTRY_ACTIVE             0x00
     85          #define ZDO_MGMT_RTG_ENTRY_DISCOVERY_UNDERWAY 0x01
     86          #define ZDO_MGMT_RTG_ENTRY_DISCOVERY_FAILED   0x02
     87          #define ZDO_MGMT_RTG_ENTRY_INACTIVE           0x03
     88          
     89          /*********************************************************************
     90           * TYPEDEFS
     91           */
     92          #if defined ( REFLECTOR )
     93          typedef struct
     94          {
     95            byte SrcTransSeq;
     96            zAddrType_t SrcAddr;
     97            uint16 LocalCoordinator;
     98            byte epIntf;
     99            uint16 ProfileID;
    100            byte numInClusters;
    101            uint16 *inClusters;
    102            byte numOutClusters;
    103            uint16 *outClusters;
    104            byte SecurityUse;
    105            byte status;
    106          } ZDO_EDBind_t;
    107          #endif // defined ( REFLECTOR )
    108          
    109          enum
    110          {
    111            ZDMATCH_INIT,           // Initialized
    112            ZDMATCH_WAIT_REQ,       // Received first request, waiting for second
    113            ZDMATCH_SENDING_BINDS   // Received both requests, sending unbind/binds
    114          };
    115          
    116          enum
    117          {
    118            ZDMATCH_SENDING_NOT,
    119            ZDMATCH_SENDING_UNBIND,
    120            ZDMATCH_SENDING_BIND
    121          };
    122          
    123          /*********************************************************************
    124           * GLOBAL VARIABLES
    125           */
    126          
    127          /*********************************************************************
    128           * EXTERNAL VARIABLES
    129           */
    130          
    131          /*********************************************************************
    132           * EXTERNAL FUNCTIONS
    133           */
    134          
    135          /*********************************************************************
    136           * LOCAL VARIABLES
    137           */

   \                                 In  segment XDATA_Z, align 1, keep-with-next
    138          static uint16 ZDOBuildBuf[26];  // temp area to build data without allocation
   \                     ZDOBuildBuf:
   \   000000                DS 52
   \   000034                REQUIRE __INIT_XDATA_Z
    139          
    140          #if defined ( REFLECTOR )

   \                                 In  segment XDATA_Z, align 1, keep-with-next
    141          static ZDO_EDBind_t *ZDO_EDBind;     // Null when not used
   \                     ZDO_EDBind:
   \   000000                DS 2
   \   000002                REQUIRE __INIT_XDATA_Z
    142          #endif
    143          
    144          #if defined ( MANAGED_SCAN )
    145            uint32 managedScanNextChannel = 0;
    146            uint32 managedScanChannelMask = 0;
    147            uint8  managedScanTimesPerChannel = 0;
    148          #endif
    149          

   \                                 In  segment XDATA_Z, align 1, keep-with-next
    150          ZDMatchEndDeviceBind_t *matchED = (ZDMatchEndDeviceBind_t *)NULL;
   \                     matchED:
   \   000000                DS 2
   \   000002                REQUIRE __INIT_XDATA_Z
    151          

   \                                 In  segment XDATA_Z, align 1, keep-with-next
    152          uint32 apsChannelMask = 0;
   \                     apsChannelMask:
   \   000000                DS 4
   \   000004                REQUIRE __INIT_XDATA_Z
    153          
    154          /*********************************************************************
    155           * LOCAL FUNCTIONS
    156           */
    157          static void ZDODeviceSetup( void );
    158          #if defined ( MANAGED_SCAN )
    159            static void ZDOManagedScan_Next( void );
    160          #endif
    161          #if defined ( REFLECTOR )
    162            static void ZDO_RemoveEndDeviceBind( void );
    163            static void ZDO_SendEDBindRsp( byte TransSeq, zAddrType_t *dstAddr, byte Status, byte secUse );
    164          #endif
    165          static byte ZDO_CompareClusterLists( byte numList1, uint16 *list1,
    166                                          byte numList2, uint16 *list2, uint16 *pMatches );
    167          static void ZDO_RemoveMatchMemory( void );
    168          static uint8 ZDO_CopyMatchInfo( ZDEndDeviceBind_t *destReq, ZDEndDeviceBind_t *srcReq );
    169          static void ZDO_EndDeviceBindMatchTimeoutCB( void );
    170          uint8 *ZDO_ConvertOTAClusters( uint8 cnt, uint8 *inBuf, uint16 *outList );
    171          static void zdoSendStateChangeMsg(uint8 state, uint8 taskId);
    172          
    173          /*********************************************************************
    174           * @fn          ZDO_Init
    175           *
    176           * @brief       ZDObject and ZDProfile initialization.
    177           *
    178           * @param       none
    179           *
    180           * @return      none
    181           */

   \                                 In  segment BANKED_CODE, align 1, keep-with-next
    182          void ZDO_Init( void )
   \                     ZDO_Init:
    183          {
   \   000000   C082         PUSH    DPL
   \   000002   C083         PUSH    DPH
   \   000004                ; Saved register size: 2
   \   000004                ; Auto size: 0
    184            // Initialize ZD items
    185            #if defined ( REFLECTOR )
    186            ZDO_EDBind = NULL;
   \   000004   90....       MOV     DPTR,#ZDO_EDBind
   \   000007   7400         MOV     A,#0x0
   \   000009   F0           MOVX    @DPTR,A
   \   00000A   A3           INC     DPTR
   \   00000B   7400         MOV     A,#0x0
   \   00000D   F0           MOVX    @DPTR,A
    187            #endif
    188          
    189            // Initialize default ZDO_UseExtendedPANID to the APS one.
    190            osal_cpyExtAddr( ZDO_UseExtendedPANID, AIB_apsUseExtendedPANID );
   \   00000E                ; Setup parameters for call to function sAddrExtCpy
   \   00000E   7C..         MOV     R4,#AIB_apsUseExtendedPANID & 0xff
   \   000010   7D..         MOV     R5,#(AIB_apsUseExtendedPANID >> 8) & 0xff
   \   000012   7A..         MOV     R2,#ZDO_UseExtendedPANID & 0xff
   \   000014   7B..         MOV     R3,#(ZDO_UseExtendedPANID >> 8) & 0xff
   \   000016   12....       LCALL   ??sAddrExtCpy?relay
    191          
    192            // Setup the device - type of device to create.
    193            ZDODeviceSetup();
   \   000019                ; Setup parameters for call to function ZDODeviceSetup
   \   000019   12....       LCALL   ??ZDODeviceSetup?relay
    194          }
   \   00001C   D083         POP     DPH
   \   00001E   D082         POP     DPL
   \   000020   02....       LJMP    ?BRET
    195          
    196          #if defined ( MANAGED_SCAN )
    197          /*********************************************************************
    198           * @fn      ZDOManagedScan_Next()
    199           *
    200           * @brief   Setup a managed scan.
    201           *
    202           * @param   none
    203           *
    204           * @return  none
    205           */
    206          static void ZDOManagedScan_Next( void )
    207          {
    208            // Is it the first time
    209            if ( managedScanNextChannel == 0 && managedScanTimesPerChannel == 0 )
    210            {
    211              // Setup the defaults
    212              managedScanNextChannel  = 1;
    213          
    214              while( managedScanNextChannel && (zgDefaultChannelList & managedScanNextChannel) == 0 )
    215                managedScanNextChannel <<= 1;
    216          
    217              managedScanChannelMask = managedScanNextChannel;
    218              managedScanTimesPerChannel = MANAGEDSCAN_TIMES_PRE_CHANNEL;
    219            }
    220            else
    221            {
    222              // Do we need to go to the next channel
    223              if ( managedScanTimesPerChannel == 0 )
    224              {
    225                // Find next active channel
    226                managedScanChannelMask  = managedScanNextChannel;
    227                managedScanTimesPerChannel = MANAGEDSCAN_TIMES_PRE_CHANNEL;
    228              }
    229              else
    230              {
    231                managedScanTimesPerChannel--;
    232          
    233                if ( managedScanTimesPerChannel == 0 )
    234                {
    235                  managedScanNextChannel  <<= 1;
    236                  while( managedScanNextChannel && (zgDefaultChannelList & managedScanNextChannel) == 0 )
    237                    managedScanNextChannel <<= 1;
    238          
    239                  if ( managedScanNextChannel == 0 )
    240                    zdoDiscCounter  = NUM_DISC_ATTEMPTS + 1; // Stop
    241                }
    242              }
    243            }
    244          }
    245          #endif // MANAGED_SCAN
    246          
    247          /*********************************************************************
    248           * @fn      ZDODeviceSetup()
    249           *
    250           * @brief   Call set functions depending on the type of device compiled.
    251           *
    252           * @param   none
    253           *
    254           * @return  none
    255           */

   \                                 In  segment BANKED_CODE, align 1, keep-with-next
    256          static void ZDODeviceSetup( void )
   \                     ZDODeviceSetup:
    257          {
   \   000000   C082         PUSH    DPL
   \   000002   C083         PUSH    DPH
   \   000004                ; Saved register size: 2
   \   000004                ; Auto size: 0
    258            if ( ZG_BUILD_COORDINATOR_TYPE )
    259            {
    260              NLME_CoordinatorInit();
   \   000004                ; Setup parameters for call to function NLME_CoordinatorInit
   \   000004   12....       LCALL   ??NLME_CoordinatorInit?relay
    261            }
    262          
    263          #if defined ( REFLECTOR )
    264            APS_ReflectorInit( (ZG_DEVICE_COORDINATOR_TYPE) ? APS_REFLECTOR_PUBLIC :  APS_REFLECTOR_PRIVATE );
   \   000007                ; Setup parameters for call to function APS_ReflectorInit
   \   000007   7900         MOV     R1,#0x0
   \   000009   12....       LCALL   ??APS_ReflectorInit?relay
    265          #endif
    266          
    267            if ( ZG_BUILD_JOINING_TYPE )
    268            {
    269              NLME_DeviceJoiningInit();
    270            }
    271          }
   \   00000C   D083         POP     DPH
   \   00000E   D082         POP     DPL
   \   000010   02....       LJMP    ?BRET
    272          
    273          /*********************************************************************
    274           * @fn          ZDO_StartDevice
    275           *
    276           * @brief       This function starts a device in a network.
    277           *
    278           * @param       logicalType     - Device type to start
    279           *              startMode       - indicates mode of device startup
    280           *              beaconOrder     - indicates time betwen beacons
    281           *              superframeOrder - indicates length of active superframe
    282           *
    283           * @return      none
    284           */

   \                                 In  segment BANKED_CODE, align 1, keep-with-next
    285          void ZDO_StartDevice( byte logicalType, devStartModes_t startMode, byte beaconOrder, byte superframeOrder )
   \                     ZDO_StartDevice:
    286          {
   \   000000   74F4         MOV     A,#-0xc
   \   000002   12....       LCALL   ?BANKED_ENTER_XDATA
   \   000005                ; Saved register size: 12
   \   000005                ; Auto size: 0
   \   000005   E9           MOV     A,R1
   \   000006   FF           MOV     R7,A
   \   000007   8A..         MOV     ?V0 + 0,R2
   \   000009   EB           MOV     A,R3
   \   00000A   FE           MOV     R6,A
   \   00000B   8C..         MOV     ?V0 + 1,R4
    287            ZStatus_t ret;
    288          #if defined ( ZIGBEE_FREQ_AGILITY )
    289            static uint8 discRetries = 0;
    290          #endif
    291          #if defined ( ZIGBEE_COMMISSIONING )
    292            static uint8 scanCnt = 0;
    293          #endif
    294          
    295            ret = ZUnsupportedMode;
   \   00000D   75..12       MOV     ?V0 + 2,#0x12
    296          
    297            if ( ZG_BUILD_COORDINATOR_TYPE && logicalType == NODETYPE_COORDINATOR )
   \   000010   EF           MOV     A,R7
   \   000011   706E         JNZ     ??ZDO_StartDevice_0
    298            {
    299              if ( startMode == MODE_HARD )
   \   000013   7402         MOV     A,#0x2
   \   000015   65..         XRL     A,?V0 + 0
   \   000017   7043         JNZ     ??ZDO_StartDevice_1
    300              {
    301                devState = DEV_COORD_STARTING;
   \   000019   90....       MOV     DPTR,#devState
   \   00001C   7408         MOV     A,#0x8
   \   00001E   F0           MOVX    @DPTR,A
    302                ret = NLME_NetworkFormationRequest( zgConfigPANID, zgApsUseExtendedPANID, zgDefaultChannelList,
    303                                                    zgDefaultStartingScanDuration, beaconOrder,
    304                                                    superframeOrder, false );
   \   00001F                ; Setup parameters for call to function NLME_NetworkFormationRequest
   \   00001F   75..00       MOV     ?V0 + 3,#0x0
   \   000022   78..         MOV     R0,#?V0 + 3
   \   000024   12....       LCALL   ?PUSH_XSTACK_I_ONE
   \   000027   E5..         MOV     A,?V0 + 1
   \   000029   F5..         MOV     ?V0 + 3,A
   \   00002B   78..         MOV     R0,#?V0 + 3
   \   00002D   12....       LCALL   ?PUSH_XSTACK_I_ONE
   \   000030   EE           MOV     A,R6
   \   000031   F5..         MOV     ?V0 + 3,A
   \   000033   78..         MOV     R0,#?V0 + 3
   \   000035   12....       LCALL   ?PUSH_XSTACK_I_ONE
   \   000038   90....       MOV     DPTR,#zgDefaultChannelList
   \   00003B   12....       LCALL   ?PUSH_XSTACK8_X_FOUR
   \   00003E   90....       MOV     DPTR,#zgDefaultStartingScanDuration
   \   000041   E0           MOVX    A,@DPTR
   \   000042   F9           MOV     R1,A
   \   000043   7C..         MOV     R4,#zgApsUseExtendedPANID & 0xff
   \   000045   7D..         MOV     R5,#(zgApsUseExtendedPANID >> 8) & 0xff
   \   000047   90....       MOV     DPTR,#zgConfigPANID
   \   00004A   E0           MOVX    A,@DPTR
   \   00004B   FA           MOV     R2,A
   \   00004C   A3           INC     DPTR
   \   00004D   E0           MOVX    A,@DPTR
   \   00004E   FB           MOV     R3,A
   \   00004F   12....       LCALL   ??NLME_NetworkFormationRequest?relay
   \   000052   7407         MOV     A,#0x7
   \   000054   12....       LCALL   ?DEALLOC_XSTACK8
   \   000057   E9           MOV     A,R1
   \   000058   F5..         MOV     ?V0 + 2,A
   \   00005A   8025         SJMP    ??ZDO_StartDevice_0
    305              }
    306              else if ( startMode == MODE_RESUME )
   \                     ??ZDO_StartDevice_1:
   \   00005C   7401         MOV     A,#0x1
   \   00005E   65..         XRL     A,?V0 + 0
   \   000060   7014         JNZ     ??ZDO_StartDevice_2
    307              {
    308                // Just start the coordinator
    309                devState = DEV_COORD_STARTING;
   \   000062   90....       MOV     DPTR,#devState
   \   000065   7408         MOV     A,#0x8
   \   000067   F0           MOVX    @DPTR,A
    310                ret = NLME_StartRouterRequest( beaconOrder, beaconOrder, false );
   \   000068                ; Setup parameters for call to function NLME_StartRouterRequest
   \   000068   7B00         MOV     R3,#0x0
   \   00006A   EE           MOV     A,R6
   \   00006B   FA           MOV     R2,A
   \   00006C   EE           MOV     A,R6
   \   00006D   F9           MOV     R1,A
   \   00006E   12....       LCALL   ??NLME_StartRouterRequest?relay
   \   000071   E9           MOV     A,R1
   \   000072   F5..         MOV     ?V0 + 2,A
   \   000074   800B         SJMP    ??ZDO_StartDevice_0
    311              }
    312              else
    313              {
    314          #if defined( LCD_SUPPORTED )
    315                HalLcdWriteScreen( "StartDevice ERR", "MODE unknown" );
   \                     ??ZDO_StartDevice_2:
   \   000076                ; Setup parameters for call to function HalLcdWriteScreen
   \   000076   7C..         MOV     R4,#`?<Constant "MODE unknown">` & 0xff
   \   000078   7D..         MOV     R5,#(`?<Constant "MODE unknown">` >> 8) & 0xff
   \   00007A   7A..         MOV     R2,#`?<Constant "StartDevice ERR">` & 0xff
   \   00007C   7B..         MOV     R3,#(`?<Constant "StartDevice ERR">` >> 8) & 0xff
   \   00007E   12....       LCALL   ??HalLcdWriteScreen?relay
    316          #endif
    317              }
    318            }
    319          
    320            if ( ZG_BUILD_JOINING_TYPE && (logicalType == NODETYPE_ROUTER || logicalType == NODETYPE_DEVICE) )
    321            {
    322              if ( (startMode == MODE_JOIN) || (startMode == MODE_REJOIN) )
    323              {
    324                devState = DEV_NWK_DISC;
    325          
    326            #if defined( MANAGED_SCAN )
    327                ZDOManagedScan_Next();
    328                ret = NLME_NetworkDiscoveryRequest( managedScanChannelMask, BEACON_ORDER_15_MSEC );
    329            #else
    330                ret = NLME_NetworkDiscoveryRequest( zgDefaultChannelList, zgDefaultStartingScanDuration );
    331              #if defined ( ZIGBEE_FREQ_AGILITY )
    332                if ( !( ZDO_Config_Node_Descriptor.CapabilityFlags & CAPINFO_RCVR_ON_IDLE ) &&
    333                      ( ret == ZSuccess ) && ( ++discRetries == 4 ) )
    334                {
    335                  // For devices with RxOnWhenIdle equals to FALSE, any network channel
    336                  // change will not be recieved. On these devices or routers that have
    337                  // lost the network, an active scan shall be conducted on the Default
    338                  // Channel list using the extended PANID to find the network. If the
    339                  // extended PANID isn't found using the Default Channel list, an scan
    340                  // should be completed using all channels.
    341                  zgDefaultChannelList = MAX_CHANNELS_24GHZ;
    342                }
    343              #endif // ZIGBEE_FREQ_AGILITY
    344              #if defined ( ZIGBEE_COMMISSIONING )
    345                if (startMode == MODE_REJOIN && scanCnt++ >= 5 )
    346                {
    347                  // When ApsUseExtendedPanID is commissioned to a non zero value via
    348                  // application specific means, the device shall conduct an active scan
    349                  // on the Default Channel list and join the PAN with the same
    350                  // ExtendedPanID. If the PAN is not found, an scan should be completed
    351                  // on all channels.
    352                  // When devices rejoin the network and the PAN is not found from
    353                  zgDefaultChannelList = MAX_CHANNELS_24GHZ;
    354                }
    355              #endif // ZIGBEE_COMMISSIONING
    356            #endif
    357              }
    358              else if ( startMode == MODE_RESUME )
    359              {
    360                if ( logicalType == NODETYPE_ROUTER )
    361                {
    362                  ZMacScanCnf_t scanCnf;
    363                  devState = DEV_NWK_ORPHAN;
    364          
    365                  /* if router and nvram is available, fake successful orphan scan */
    366                  scanCnf.hdr.Status = ZSUCCESS;
    367                  scanCnf.ScanType = ZMAC_ORPHAN_SCAN;
    368                  scanCnf.UnscannedChannels = 0;
    369                  scanCnf.ResultListSize = 0;
    370                  nwk_ScanJoiningOrphan(&scanCnf);
    371          
    372                  ret = ZSuccess;
    373                }
    374                else
    375                {
    376                  devState = DEV_NWK_ORPHAN;
    377                  ret = NLME_OrphanJoinRequest( zgDefaultChannelList,
    378                                                zgDefaultStartingScanDuration );
    379                }
    380              }
    381              else
    382              {
    383          #if defined( LCD_SUPPORTED )
    384                HalLcdWriteScreen( "StartDevice ERR", "MODE unknown" );
    385          #endif
    386              }
    387            }
    388          
    389            if ( ret != ZSuccess )
   \                     ??ZDO_StartDevice_0:
   \   000081   E5..         MOV     A,?V0 + 2
   \   000083   6011         JZ      ??ZDO_StartDevice_3
    390              osal_start_timerEx(ZDAppTaskID, ZDO_NETWORK_INIT, NWK_RETRY_DELAY );
   \   000085                ; Setup parameters for call to function osal_start_timerEx
   \   000085   7CE8         MOV     R4,#-0x18
   \   000087   7D03         MOV     R5,#0x3
   \   000089   7A01         MOV     R2,#0x1
   \   00008B   7B00         MOV     R3,#0x0
   \   00008D   90....       MOV     DPTR,#ZDAppTaskID
   \   000090   E0           MOVX    A,@DPTR
   \   000091   F9           MOV     R1,A
   \   000092   12....       LCALL   ??osal_start_timerEx?relay
   \   000095   E9           MOV     A,R1
    391          }
   \                     ??ZDO_StartDevice_3:
   \   000096   7F04         MOV     R7,#0x4
   \   000098   02....       LJMP    ?BANKED_LEAVE_XDATA
    392          
    393          /**************************************************************************************************
    394           * @fn          zdoSendStateChangeMsg
    395           *
    396           * @brief       Helper function for ZDO_UpdateNwkStatus.
    397           *
    398           * input parameters
    399           *
    400           * @param       taskId - The OSAL task identifier to which to send the ZDO_STATE_CHANGE_EVT.
    401           * @param       state - The current device state.
    402           *
    403           * output parameters
    404           *
    405           * None.
    406           *
    407           * @return      None.
    408           **************************************************************************************************
    409           */

   \                                 In  segment BANKED_CODE, align 1, keep-with-next
    410          static void zdoSendStateChangeMsg(uint8 state, uint8 taskId)
   \                     zdoSendStateChangeMsg:
    411          {
   \   000000   74F4         MOV     A,#-0xc
   \   000002   12....       LCALL   ?BANKED_ENTER_XDATA
   \   000005                ; Saved register size: 12
   \   000005                ; Auto size: 1
   \   000005   74FF         MOV     A,#-0x1
   \   000007   12....       LCALL   ?ALLOC_XSTACK8
   \   00000A   89..         MOV     ?V0 + 1,R1
   \   00000C   8A..         MOV     ?V0 + 0,R2
    412            osal_event_hdr_t *pMsg = (osal_event_hdr_t *)osal_msg_find(taskId, ZDO_STATE_CHANGE);
   \   00000E                ; Setup parameters for call to function osal_msg_find
   \   00000E   7AD1         MOV     R2,#-0x2f
   \   000010   A9..         MOV     R1,?V0 + 0
   \   000012   12....       LCALL   ??osal_msg_find?relay
   \   000015   8A..         MOV     ?V0 + 2,R2
   \   000017   8B..         MOV     ?V0 + 3,R3
   \   000019   AE..         MOV     R6,?V0 + 2
   \   00001B   AF..         MOV     R7,?V0 + 3
    413          
    414            if (NULL == pMsg)
   \   00001D   EE           MOV     A,R6
   \   00001E   4F           ORL     A,R7
   \   00001F   704A         JNZ     ??zdoSendStateChangeMsg_0
    415            {
    416              if (NULL == (pMsg = (osal_event_hdr_t *)osal_msg_allocate(sizeof(osal_event_hdr_t))))
   \   000021                ; Setup parameters for call to function osal_msg_allocate
   \   000021   7A02         MOV     R2,#0x2
   \   000023   7B00         MOV     R3,#0x0
   \   000025   12....       LCALL   ??osal_msg_allocate?relay
   \   000028   8A..         MOV     ?V0 + 2,R2
   \   00002A   8B..         MOV     ?V0 + 3,R3
   \   00002C   A8..         MOV     R0,?V0 + 2
   \   00002E   A9..         MOV     R1,?V0 + 3
   \   000030   E8           MOV     A,R0
   \   000031   FE           MOV     R6,A
   \   000032   E9           MOV     A,R1
   \   000033   FF           MOV     R7,A
   \   000034   E8           MOV     A,R0
   \   000035   49           ORL     A,R1
   \   000036   700F         JNZ     ??zdoSendStateChangeMsg_1
    417              {
    418                // Upon failure to notify any EndPoint of the state change, re-set the ZDO event to
    419                // try again later when more Heap may be available.
    420                osal_set_event(ZDAppTaskID, ZDO_STATE_CHANGE_EVT);
   \   000038                ; Setup parameters for call to function osal_set_event
   \   000038   7A10         MOV     R2,#0x10
   \   00003A   7B00         MOV     R3,#0x0
   \   00003C   90....       MOV     DPTR,#ZDAppTaskID
   \   00003F   E0           MOVX    A,@DPTR
   \   000040   F9           MOV     R1,A
   \   000041   12....       LCALL   ??osal_set_event?relay
   \   000044   E9           MOV     A,R1
   \   000045   802E         SJMP    ??zdoSendStateChangeMsg_2
    421              }
    422              else
    423              {
    424                pMsg->event = ZDO_STATE_CHANGE;
   \                     ??zdoSendStateChangeMsg_1:
   \   000047   8E82         MOV     DPL,R6
   \   000049   8F83         MOV     DPH,R7
   \   00004B   74D1         MOV     A,#-0x2f
   \   00004D   F0           MOVX    @DPTR,A
    425                pMsg->status = state;
   \   00004E   E5..         MOV     A,?V0 + 1
   \   000050   8E82         MOV     DPL,R6
   \   000052   8F83         MOV     DPH,R7
   \   000054   A3           INC     DPTR
   \   000055   E5..         MOV     A,?V0 + 1
   \   000057   F0           MOVX    @DPTR,A
    426          
    427                (void)osal_msg_send(taskId, (uint8 *)pMsg);
   \   000058                ; Setup parameters for call to function osal_msg_send
   \   000058   EE           MOV     A,R6
   \   000059   FA           MOV     R2,A
   \   00005A   EF           MOV     A,R7
   \   00005B   FB           MOV     R3,A
   \   00005C   A9..         MOV     R1,?V0 + 0
   \   00005E   12....       LCALL   ??osal_msg_send?relay
   \   000061   E9           MOV     A,R1
   \   000062   85..82       MOV     DPL,?XSP + 0
   \   000065   85..83       MOV     DPH,?XSP + 1
   \   000068   F0           MOVX    @DPTR,A
   \   000069   800A         SJMP    ??zdoSendStateChangeMsg_2
    428              }
    429            }
    430            else
    431            {
    432              // Modify in place the status of an existing ZDO_STATE_CHANGE message to the EndPoint.
    433              pMsg->status = state;
   \                     ??zdoSendStateChangeMsg_0:
   \   00006B   E5..         MOV     A,?V0 + 1
   \   00006D   8E82         MOV     DPL,R6
   \   00006F   8F83         MOV     DPH,R7
   \   000071   A3           INC     DPTR
   \   000072   E5..         MOV     A,?V0 + 1
   \   000074   F0           MOVX    @DPTR,A
    434            }
    435          }
   \                     ??zdoSendStateChangeMsg_2:
   \   000075   7401         MOV     A,#0x1
   \   000077   12....       LCALL   ?DEALLOC_XSTACK8
   \   00007A   7F04         MOV     R7,#0x4
   \   00007C   02....       LJMP    ?BANKED_LEAVE_XDATA
    436          
    437          /**************************************************************************************************
    438           * @fn          ZDO_UpdateNwkStatus
    439           *
    440           * @brief       This function sends a ZDO_STATE_CHANGE message to the task of every EndPoint
    441           *              registered with AF (except, of course, the ZDO_EP). Even if a single task has more
    442           *              than one registered EndPoint, it will only receive one notification per state
    443           *              change. Although the device may go through a sequence of state changes, the
    444           *              Application task may only receive notification of the final, steady-state state
    445           *              because it has the lowest priority and never even runs to receive the intermediate
    446           *              state change notifications.
    447           *
    448           * input parameters
    449           *
    450           * @param       state - The current device state.
    451           *
    452           * output parameters
    453           *
    454           * None.
    455           *
    456           * @return      None.
    457           **************************************************************************************************
    458           */

   \                                 In  segment BANKED_CODE, align 1, keep-with-next
    459          void ZDO_UpdateNwkStatus(devStates_t state)
   \                     ZDO_UpdateNwkStatus:
    460          {
   \   000000   74F4         MOV     A,#-0xc
   \   000002   12....       LCALL   ?BANKED_ENTER_XDATA
   \   000005                ; Saved register size: 12
   \   000005                ; Auto size: 0
   \   000005   89..         MOV     ?V0 + 0,R1
    461            epList_t *pItem = epList;
   \   000007   90....       MOV     DPTR,#epList
   \   00000A   E0           MOVX    A,@DPTR
   \   00000B   FE           MOV     R6,A
   \   00000C   A3           INC     DPTR
   \   00000D   E0           MOVX    A,@DPTR
   \   00000E   FF           MOV     R7,A
    462          
    463            while (pItem != NULL)
   \                     ??ZDO_UpdateNwkStatus_0:
   \   00000F   EE           MOV     A,R6
   \   000010   4F           ORL     A,R7
   \   000011   603F         JZ      ??ZDO_UpdateNwkStatus_1
    464            {
    465              if (pItem->epDesc->endPoint != ZDO_EP)
   \   000013   8E82         MOV     DPL,R6
   \   000015   8F83         MOV     DPH,R7
   \   000017   E0           MOVX    A,@DPTR
   \   000018   F8           MOV     R0,A
   \   000019   A3           INC     DPTR
   \   00001A   E0           MOVX    A,@DPTR
   \   00001B   F583         MOV     DPH,A
   \   00001D   8882         MOV     DPL,R0
   \   00001F   E0           MOVX    A,@DPTR
   \   000020   601C         JZ      ??ZDO_UpdateNwkStatus_2
    466              {
    467                zdoSendStateChangeMsg(state, *(pItem->epDesc->task_id));
   \   000022                ; Setup parameters for call to function zdoSendStateChangeMsg
   \   000022   8E82         MOV     DPL,R6
   \   000024   8F83         MOV     DPH,R7
   \   000026   E0           MOVX    A,@DPTR
   \   000027   F8           MOV     R0,A
   \   000028   A3           INC     DPTR
   \   000029   E0           MOVX    A,@DPTR
   \   00002A   F583         MOV     DPH,A
   \   00002C   8882         MOV     DPL,R0
   \   00002E   A3           INC     DPTR
   \   00002F   E0           MOVX    A,@DPTR
   \   000030   F8           MOV     R0,A
   \   000031   A3           INC     DPTR
   \   000032   E0           MOVX    A,@DPTR
   \   000033   F583         MOV     DPH,A
   \   000035   8882         MOV     DPL,R0
   \   000037   E0           MOVX    A,@DPTR
   \   000038   FA           MOV     R2,A
   \   000039   A9..         MOV     R1,?V0 + 0
   \   00003B   12....       LCALL   ??zdoSendStateChangeMsg?relay
    468              }
    469          
    470              pItem = pItem->nextDesc;
   \                     ??ZDO_UpdateNwkStatus_2:
   \   00003E   8E82         MOV     DPL,R6
   \   000040   8F83         MOV     DPH,R7
   \   000042   A3           INC     DPTR
   \   000043   A3           INC     DPTR
   \   000044   A3           INC     DPTR
   \   000045   A3           INC     DPTR
   \   000046   A3           INC     DPTR
   \   000047   E0           MOVX    A,@DPTR
   \   000048   F8           MOV     R0,A
   \   000049   A3           INC     DPTR
   \   00004A   E0           MOVX    A,@DPTR
   \   00004B   F9           MOV     R1,A
   \   00004C   E8           MOV     A,R0
   \   00004D   FE           MOV     R6,A
   \   00004E   E9           MOV     A,R1
   \   00004F   FF           MOV     R7,A
   \   000050   80BD         SJMP    ??ZDO_UpdateNwkStatus_0
    471            }
    472          #if defined MT_ZDO_CB_FUNC
    473            zdoSendStateChangeMsg(state, MT_TaskID);
    474          #endif
    475          
    476            ZDAppNwkAddr.addr.shortAddr = NLME_GetShortAddr();
   \                     ??ZDO_UpdateNwkStatus_1:
   \   000052                ; Setup parameters for call to function NLME_GetShortAddr
   \   000052   12....       LCALL   ??NLME_GetShortAddr?relay
   \   000055   90....       MOV     DPTR,#ZDAppNwkAddr
   \   000058   EA           MOV     A,R2
   \   000059   F0           MOVX    @DPTR,A
   \   00005A   A3           INC     DPTR
   \   00005B   EB           MOV     A,R3
   \   00005C   F0           MOVX    @DPTR,A
    477            (void)NLME_GetExtAddr();  // Load the saveExtAddr pointer.
   \   00005D                ; Setup parameters for call to function NLME_GetExtAddr
   \   00005D   12....       LCALL   ??NLME_GetExtAddr?relay
   \   000060   8A..         MOV     ?V0 + 2,R2
   \   000062   8B..         MOV     ?V0 + 3,R3
   \   000064   85..82       MOV     DPL,?V0 + 2
   \   000067   85..83       MOV     DPH,?V0 + 3
    478          }
   \   00006A   7F04         MOV     R7,#0x4
   \   00006C   02....       LJMP    ?BANKED_LEAVE_XDATA
    479          
    480          #if defined ( REFLECTOR )
    481          /*********************************************************************
    482           * @fn          ZDO_RemoveEndDeviceBind
    483           *
    484           * @brief       Remove the end device bind
    485           *
    486           * @param  none
    487           *
    488           * @return      none
    489           */

   \                                 In  segment BANKED_CODE, align 1, keep-with-next
    490          static void ZDO_RemoveEndDeviceBind( void )
   \                     ZDO_RemoveEndDeviceBind:
    491          {
   \   000000   C082         PUSH    DPL
   \   000002   C083         PUSH    DPH
   \   000004                ; Saved register size: 2
   \   000004                ; Auto size: 0
    492            if ( ZDO_EDBind != NULL )
   \   000004   90....       MOV     DPTR,#ZDO_EDBind
   \   000007   E0           MOVX    A,@DPTR
   \   000008   F8           MOV     R0,A
   \   000009   A3           INC     DPTR
   \   00000A   E0           MOVX    A,@DPTR
   \   00000B   F9           MOV     R1,A
   \   00000C   E8           MOV     A,R0
   \   00000D   49           ORL     A,R1
   \   00000E   607B         JZ      ??ZDO_RemoveEndDeviceBind_0
    493            {
    494              // Free the RAM
    495              if ( ZDO_EDBind->inClusters != NULL )
   \   000010   90....       MOV     DPTR,#ZDO_EDBind
   \   000013   E0           MOVX    A,@DPTR
   \   000014   F8           MOV     R0,A
   \   000015   A3           INC     DPTR
   \   000016   E0           MOVX    A,@DPTR
   \   000017   C8           XCH     A,R0
   \   000018   2410         ADD     A,#0x10
   \   00001A   F582         MOV     DPL,A
   \   00001C   E8           MOV     A,R0
   \   00001D   3400         ADDC    A,#0x0
   \   00001F   F583         MOV     DPH,A
   \   000021   E0           MOVX    A,@DPTR
   \   000022   F8           MOV     R0,A
   \   000023   A3           INC     DPTR
   \   000024   E0           MOVX    A,@DPTR
   \   000025   F9           MOV     R1,A
   \   000026   E8           MOV     A,R0
   \   000027   49           ORL     A,R1
   \   000028   6019         JZ      ??ZDO_RemoveEndDeviceBind_1
    496                osal_mem_free( ZDO_EDBind->inClusters );
   \   00002A                ; Setup parameters for call to function osal_mem_free
   \   00002A   90....       MOV     DPTR,#ZDO_EDBind
   \   00002D   E0           MOVX    A,@DPTR
   \   00002E   F8           MOV     R0,A
   \   00002F   A3           INC     DPTR
   \   000030   E0           MOVX    A,@DPTR
   \   000031   C8           XCH     A,R0
   \   000032   2410         ADD     A,#0x10
   \   000034   F582         MOV     DPL,A
   \   000036   E8           MOV     A,R0
   \   000037   3400         ADDC    A,#0x0
   \   000039   F583         MOV     DPH,A
   \   00003B   E0           MOVX    A,@DPTR
   \   00003C   FA           MOV     R2,A
   \   00003D   A3           INC     DPTR
   \   00003E   E0           MOVX    A,@DPTR
   \   00003F   FB           MOV     R3,A
   \   000040   12....       LCALL   ??osal_mem_free?relay
    497              if ( ZDO_EDBind->outClusters != NULL )
   \                     ??ZDO_RemoveEndDeviceBind_1:
   \   000043   90....       MOV     DPTR,#ZDO_EDBind
   \   000046   E0           MOVX    A,@DPTR
   \   000047   F8           MOV     R0,A
   \   000048   A3           INC     DPTR
   \   000049   E0           MOVX    A,@DPTR
   \   00004A   C8           XCH     A,R0
   \   00004B   2413         ADD     A,#0x13
   \   00004D   F582         MOV     DPL,A
   \   00004F   E8           MOV     A,R0
   \   000050   3400         ADDC    A,#0x0
   \   000052   F583         MOV     DPH,A
   \   000054   E0           MOVX    A,@DPTR
   \   000055   F8           MOV     R0,A
   \   000056   A3           INC     DPTR
   \   000057   E0           MOVX    A,@DPTR
   \   000058   F9           MOV     R1,A
   \   000059   E8           MOV     A,R0
   \   00005A   49           ORL     A,R1
   \   00005B   6019         JZ      ??ZDO_RemoveEndDeviceBind_2
    498                osal_mem_free( ZDO_EDBind->outClusters );
   \   00005D                ; Setup parameters for call to function osal_mem_free
   \   00005D   90....       MOV     DPTR,#ZDO_EDBind
   \   000060   E0           MOVX    A,@DPTR
   \   000061   F8           MOV     R0,A
   \   000062   A3           INC     DPTR
   \   000063   E0           MOVX    A,@DPTR
   \   000064   C8           XCH     A,R0
   \   000065   2413         ADD     A,#0x13
   \   000067   F582         MOV     DPL,A
   \   000069   E8           MOV     A,R0
   \   00006A   3400         ADDC    A,#0x0
   \   00006C   F583         MOV     DPH,A
   \   00006E   E0           MOVX    A,@DPTR
   \   00006F   FA           MOV     R2,A
   \   000070   A3           INC     DPTR
   \   000071   E0           MOVX    A,@DPTR
   \   000072   FB           MOV     R3,A
   \   000073   12....       LCALL   ??osal_mem_free?relay
    499              osal_mem_free( ZDO_EDBind );
   \                     ??ZDO_RemoveEndDeviceBind_2:
   \   000076                ; Setup parameters for call to function osal_mem_free
   \   000076   90....       MOV     DPTR,#ZDO_EDBind
   \   000079   E0           MOVX    A,@DPTR
   \   00007A   FA           MOV     R2,A
   \   00007B   A3           INC     DPTR
   \   00007C   E0           MOVX    A,@DPTR
   \   00007D   FB           MOV     R3,A
   \   00007E   12....       LCALL   ??osal_mem_free?relay
    500              ZDO_EDBind = NULL;
   \   000081   90....       MOV     DPTR,#ZDO_EDBind
   \   000084   7400         MOV     A,#0x0
   \   000086   F0           MOVX    @DPTR,A
   \   000087   A3           INC     DPTR
   \   000088   7400         MOV     A,#0x0
   \   00008A   F0           MOVX    @DPTR,A
    501            }
    502          }
   \                     ??ZDO_RemoveEndDeviceBind_0:
   \   00008B   D083         POP     DPH
   \   00008D   D082         POP     DPL
   \   00008F   02....       LJMP    ?BRET
    503          #endif // REFLECTOR
    504          
    505          #if defined ( REFLECTOR )
    506          /*********************************************************************
    507           * @fn          ZDO_RemoveEndDeviceBind
    508           *
    509           * @brief       Remove the end device bind
    510           *
    511           * @param  none
    512           *
    513           * @return      none
    514           */

   \                                 In  segment BANKED_CODE, align 1, keep-with-next
    515          static void ZDO_SendEDBindRsp( byte TransSeq, zAddrType_t *dstAddr, byte Status, byte secUse )
   \                     ZDO_SendEDBindRsp:
    516          {
   \   000000   74F5         MOV     A,#-0xb
   \   000002   12....       LCALL   ?BANKED_ENTER_XDATA
   \   000005                ; Saved register size: 11
   \   000005                ; Auto size: 2
   \   000005   74FE         MOV     A,#-0x2
   \   000007   12....       LCALL   ?ALLOC_XSTACK8
   \   00000A   E9           MOV     A,R1
   \   00000B   C0E0         PUSH    A
   \   00000D   7401         MOV     A,#0x1
   \   00000F   12....       LCALL   ?XSTACK_DISP0_8
   \   000012   D0E0         POP     A
   \   000014   F0           MOVX    @DPTR,A
   \   000015   EC           MOV     A,R4
   \   000016   85..82       MOV     DPL,?XSP + 0
   \   000019   85..83       MOV     DPH,?XSP + 1
   \   00001C   F0           MOVX    @DPTR,A
   \   00001D   EA           MOV     A,R2
   \   00001E   FE           MOV     R6,A
   \   00001F   EB           MOV     A,R3
   \   000020   FF           MOV     R7,A
   \   000021   8D..         MOV     ?V0 + 2,R5
    517            ZDP_EndDeviceBindRsp( TransSeq, dstAddr, Status, secUse );
   \   000023                ; Setup parameters for call to function ZDP_SendData
   \   000023   E5..         MOV     A,?V0 + 2
   \   000025   F5..         MOV     ?V0 + 0,A
   \   000027   78..         MOV     R0,#?V0 + 0
   \   000029   12....       LCALL   ?PUSH_XSTACK_I_ONE
   \   00002C   7401         MOV     A,#0x1
   \   00002E   12....       LCALL   ?XSTACK_DISP0_8
   \   000031   8582..       MOV     ?V0 + 0,DPL
   \   000034   8583..       MOV     ?V0 + 1,DPH
   \   000037   78..         MOV     R0,#?V0 + 0
   \   000039   12....       LCALL   ?PUSH_XSTACK_I_TWO
   \   00003C   75..20       MOV     ?V0 + 0,#0x20
   \   00003F   75..80       MOV     ?V0 + 1,#-0x80
   \   000042   78..         MOV     R0,#?V0 + 0
   \   000044   12....       LCALL   ?PUSH_XSTACK_I_TWO
   \   000047   7901         MOV     R1,#0x1
   \   000049   EE           MOV     A,R6
   \   00004A   FC           MOV     R4,A
   \   00004B   EF           MOV     A,R7
   \   00004C   FD           MOV     R5,A
   \   00004D   7406         MOV     A,#0x6
   \   00004F   12....       LCALL   ?XSTACK_DISP0_8
   \   000052   AA82         MOV     R2,DPL
   \   000054   AB83         MOV     R3,DPH
   \   000056   12....       LCALL   ??ZDP_SendData?relay
   \   000059   7405         MOV     A,#0x5
   \   00005B   12....       LCALL   ?DEALLOC_XSTACK8
   \   00005E   E9           MOV     A,R1
    518          
    519          #if defined( LCD_SUPPORTED )
    520            HalLcdWriteString( "End Device Bind", HAL_LCD_LINE_1 );
   \   00005F                ; Setup parameters for call to function HalLcdWriteString
   \   00005F   7901         MOV     R1,#0x1
   \   000061   7A..         MOV     R2,#`?<Constant "End Device Bind">` & 0xff
   \   000063   7B..         MOV     R3,#(`?<Constant "End Device Bind">` >> 8) & 0xff
   \   000065   12....       LCALL   ??HalLcdWriteString?relay
    521            if ( Status == ZDP_SUCCESS )
   \   000068   85..82       MOV     DPL,?XSP + 0
   \   00006B   85..83       MOV     DPH,?XSP + 1
   \   00006E   E0           MOVX    A,@DPTR
   \   00006F   700B         JNZ     ??ZDO_SendEDBindRsp_0
    522              HalLcdWriteString( "Success Sent", HAL_LCD_LINE_2 );
   \   000071                ; Setup parameters for call to function HalLcdWriteString
   \   000071   7902         MOV     R1,#0x2
   \   000073   7A..         MOV     R2,#`?<Constant "Success Sent">` & 0xff
   \   000075   7B..         MOV     R3,#(`?<Constant "Success Sent">` >> 8) & 0xff
   \   000077   12....       LCALL   ??HalLcdWriteString?relay
   \   00007A   8009         SJMP    ??ZDO_SendEDBindRsp_1
    523            else
    524              HalLcdWriteString( "Timeout", HAL_LCD_LINE_2 );
   \                     ??ZDO_SendEDBindRsp_0:
   \   00007C                ; Setup parameters for call to function HalLcdWriteString
   \   00007C   7902         MOV     R1,#0x2
   \   00007E   7A..         MOV     R2,#`?<Constant "Timeout">` & 0xff
   \   000080   7B..         MOV     R3,#(`?<Constant "Timeout">` >> 8) & 0xff
   \   000082   12....       LCALL   ??HalLcdWriteString?relay
    525          #endif
    526          
    527          }
   \                     ??ZDO_SendEDBindRsp_1:
   \   000085   7402         MOV     A,#0x2
   \   000087   12....       LCALL   ?DEALLOC_XSTACK8
   \   00008A   7F03         MOV     R7,#0x3
   \   00008C   02....       LJMP    ?BANKED_LEAVE_XDATA
    528          #endif // REFLECTOR
    529          
    530          /*********************************************************************
    531           * @fn          ZDO_CompareClusterLists
    532           *
    533           * @brief       Compare one list to another list
    534           *
    535           * @param       numList1 - number of items in list 1
    536           * @param       list1 - first list of cluster IDs
    537           * @param       numList2 - number of items in list 2
    538           * @param       list2 - second list of cluster IDs
    539           * @param       pMatches - buffer to put matches
    540           *
    541           * @return      number of matches
    542           */

   \                                 In  segment BANKED_CODE, align 1, keep-with-next
    543          static byte ZDO_CompareClusterLists( byte numList1, uint16 *list1,
   \                     ZDO_CompareClusterLists:
    544                                    byte numList2, uint16 *list2, uint16 *pMatches )
    545          {
   \   000000   74F0         MOV     A,#-0x10
   \   000002   12....       LCALL   ?BANKED_ENTER_XDATA
   \   000005                ; Saved register size: 16
   \   000005                ; Auto size: 0
   \   000005   89..         MOV     ?V0 + 3,R1
   \   000007   8C..         MOV     ?V0 + 2,R4
   \   000009   7410         MOV     A,#0x10
   \   00000B   12....       LCALL   ?XSTACK_DISP0_8
   \   00000E   E0           MOVX    A,@DPTR
   \   00000F   F8           MOV     R0,A
   \   000010   A3           INC     DPTR
   \   000011   E0           MOVX    A,@DPTR
   \   000012   F9           MOV     R1,A
   \   000013   E8           MOV     A,R0
   \   000014   FC           MOV     R4,A
   \   000015   E9           MOV     A,R1
   \   000016   FD           MOV     R5,A
   \   000017   7412         MOV     A,#0x12
   \   000019   12....       LCALL   ?XSTACK_DISP0_8
   \   00001C   E0           MOVX    A,@DPTR
   \   00001D   F8           MOV     R0,A
   \   00001E   A3           INC     DPTR
   \   00001F   E0           MOVX    A,@DPTR
   \   000020   F9           MOV     R1,A
   \   000021   E8           MOV     A,R0
   \   000022   FE           MOV     R6,A
   \   000023   E9           MOV     A,R1
   \   000024   FF           MOV     R7,A
    546            byte x, y;
    547            uint16 z;
    548            byte numMatches = 0;
   \   000025   7900         MOV     R1,#0x0
    549          
    550            // Check the first in against the seconds out
    551            for ( x = 0; x < numList1; x++ )
   \   000027   75..00       MOV     ?V0 + 7,#0x0
   \                     ??ZDO_CompareClusterLists_0:
   \   00002A   E5..         MOV     A,?V0 + 7
   \   00002C   C3           CLR     C
   \   00002D   95..         SUBB    A,?V0 + 3
   \   00002F   4003         JC      $+5
   \   000031   02....       LJMP    ??ZDO_CompareClusterLists_1 & 0xFFFF
    552            {
    553              for ( y = 0; y < numList2; y++ )
   \   000034   75..00       MOV     ?V0 + 6,#0x0
   \                     ??ZDO_CompareClusterLists_2:
   \   000037   E5..         MOV     A,?V0 + 6
   \   000039   C3           CLR     C
   \   00003A   95..         SUBB    A,?V0 + 2
   \   00003C   4003         JC      $+5
   \   00003E   02....       LJMP    ??ZDO_CompareClusterLists_3 & 0xFFFF
    554              {
    555                z = list2[y];
   \   000041   E5..         MOV     A,?V0 + 6
   \   000043   F5..         MOV     ?V0 + 0,A
   \   000045   75..00       MOV     ?V0 + 1,#0x0
   \   000048   E5..         MOV     A,?V0 + 0
   \   00004A   75F002       MOV     B,#0x2
   \   00004D   A4           MUL     AB
   \   00004E   C5..         XCH     A,?V0 + 0
   \   000050   A8F0         MOV     R0,B
   \   000052   75F000       MOV     B,#0x0
   \   000055   A4           MUL     AB
   \   000056   28           ADD     A,R0
   \   000057   F8           MOV     R0,A
   \   000058   75F002       MOV     B,#0x2
   \   00005B   E5..         MOV     A,?V0 + 1
   \   00005D   A4           MUL     AB
   \   00005E   28           ADD     A,R0
   \   00005F   F5..         MOV     ?V0 + 1,A
   \   000061   EC           MOV     A,R4
   \   000062   25..         ADD     A,?V0 + 0
   \   000064   F582         MOV     DPL,A
   \   000066   ED           MOV     A,R5
   \   000067   35..         ADDC    A,?V0 + 1
   \   000069   F583         MOV     DPH,A
   \   00006B   E0           MOVX    A,@DPTR
   \   00006C   F5..         MOV     ?V0 + 4,A
   \   00006E   A3           INC     DPTR
   \   00006F   E0           MOVX    A,@DPTR
   \   000070   F5..         MOV     ?V0 + 5,A
    556                if ( list1[x] == z )
   \   000072   E5..         MOV     A,?V0 + 7
   \   000074   F5..         MOV     ?V0 + 0,A
   \   000076   75..00       MOV     ?V0 + 1,#0x0
   \   000079   E5..         MOV     A,?V0 + 0
   \   00007B   75F002       MOV     B,#0x2
   \   00007E   A4           MUL     AB
   \   00007F   C5..         XCH     A,?V0 + 0
   \   000081   A8F0         MOV     R0,B
   \   000083   75F000       MOV     B,#0x0
   \   000086   A4           MUL     AB
   \   000087   28           ADD     A,R0
   \   000088   F8           MOV     R0,A
   \   000089   75F002       MOV     B,#0x2
   \   00008C   E5..         MOV     A,?V0 + 1
   \   00008E   A4           MUL     AB
   \   00008F   28           ADD     A,R0
   \   000090   F5..         MOV     ?V0 + 1,A
   \   000092   EA           MOV     A,R2
   \   000093   25..         ADD     A,?V0 + 0
   \   000095   F582         MOV     DPL,A
   \   000097   EB           MOV     A,R3
   \   000098   35..         ADDC    A,?V0 + 1
   \   00009A   F583         MOV     DPH,A
   \   00009C   E0           MOVX    A,@DPTR
   \   00009D   65..         XRL     A,?V0 + 4
   \   00009F   7004         JNZ     ??ZDO_CompareClusterLists_4
   \   0000A1   A3           INC     DPTR
   \   0000A2   E0           MOVX    A,@DPTR
   \   0000A3   65..         XRL     A,?V0 + 5
   \                     ??ZDO_CompareClusterLists_4:
   \   0000A5   7031         JNZ     ??ZDO_CompareClusterLists_5
    557                  pMatches[numMatches++] = z;
   \   0000A7   E9           MOV     A,R1
   \   0000A8   F5..         MOV     ?V0 + 0,A
   \   0000AA   75..00       MOV     ?V0 + 1,#0x0
   \   0000AD   E5..         MOV     A,?V0 + 0
   \   0000AF   75F002       MOV     B,#0x2
   \   0000B2   A4           MUL     AB
   \   0000B3   C5..         XCH     A,?V0 + 0
   \   0000B5   A8F0         MOV     R0,B
   \   0000B7   75F000       MOV     B,#0x0
   \   0000BA   A4           MUL     AB
   \   0000BB   28           ADD     A,R0
   \   0000BC   F8           MOV     R0,A
   \   0000BD   75F002       MOV     B,#0x2
   \   0000C0   E5..         MOV     A,?V0 + 1
   \   0000C2   A4           MUL     AB
   \   0000C3   28           ADD     A,R0
   \   0000C4   F5..         MOV     ?V0 + 1,A
   \   0000C6   EE           MOV     A,R6
   \   0000C7   25..         ADD     A,?V0 + 0
   \   0000C9   F582         MOV     DPL,A
   \   0000CB   EF           MOV     A,R7
   \   0000CC   35..         ADDC    A,?V0 + 1
   \   0000CE   F583         MOV     DPH,A
   \   0000D0   E5..         MOV     A,?V0 + 4
   \   0000D2   F0           MOVX    @DPTR,A
   \   0000D3   A3           INC     DPTR
   \   0000D4   E5..         MOV     A,?V0 + 5
   \   0000D6   F0           MOVX    @DPTR,A
   \   0000D7   09           INC     R1
    558              }
   \                     ??ZDO_CompareClusterLists_5:
   \   0000D8   05..         INC     ?V0 + 6
   \   0000DA   02....       LJMP    ??ZDO_CompareClusterLists_2 & 0xFFFF
    559            }
   \                     ??ZDO_CompareClusterLists_3:
   \   0000DD   05..         INC     ?V0 + 7
   \   0000DF   02....       LJMP    ??ZDO_CompareClusterLists_0 & 0xFFFF
    560          
    561            return ( numMatches );
   \                     ??ZDO_CompareClusterLists_1:
   \   0000E2   7F08         MOV     R7,#0x8
   \   0000E4   02....       LJMP    ?BANKED_LEAVE_XDATA
    562          }
    563          
    564          /*********************************************************************
    565           * Utility functions
    566           */
    567          
    568          /*********************************************************************
    569           * @fn          ZDO_CompareByteLists
    570           *
    571           * @brief       Compares two lists for matches.
    572           *
    573           * @param       ACnt  - number of entries in list A
    574           * @param       AList  - List A
    575           * @param       BCnt  - number of entries in list B
    576           * @param       BList  - List B
    577           *
    578           * @return      true if a match is found
    579           */

   \                                 In  segment BANKED_CODE, align 1, keep-with-next
    580          byte ZDO_AnyClusterMatches( byte ACnt, uint16 *AList, byte BCnt, uint16 *BList )
   \                     ZDO_AnyClusterMatches:
    581          {
   \   000000   74F3         MOV     A,#-0xd
   \   000002   12....       LCALL   ?BANKED_ENTER_XDATA
   \   000005                ; Saved register size: 13
   \   000005                ; Auto size: 0
   \   000005   89..         MOV     ?V0 + 4,R1
   \   000007   8C..         MOV     ?V0 + 0,R4
   \   000009   740D         MOV     A,#0xd
   \   00000B   12....       LCALL   ?XSTACK_DISP0_8
   \   00000E   E0           MOVX    A,@DPTR
   \   00000F   F8           MOV     R0,A
   \   000010   A3           INC     DPTR
   \   000011   E0           MOVX    A,@DPTR
   \   000012   F9           MOV     R1,A
   \   000013   E8           MOV     A,R0
   \   000014   FC           MOV     R4,A
   \   000015   E9           MOV     A,R1
   \   000016   FD           MOV     R5,A
    582            byte x, y;
    583          
    584            for ( x = 0; x < ACnt; x++ )
   \   000017   75..00       MOV     ?V0 + 3,#0x0
   \                     ??ZDO_AnyClusterMatches_0:
   \   00001A   E5..         MOV     A,?V0 + 3
   \   00001C   C3           CLR     C
   \   00001D   95..         SUBB    A,?V0 + 4
   \   00001F   506E         JNC     ??ZDO_AnyClusterMatches_1
    585            {
    586              for ( y = 0; y < BCnt; y++ )
   \   000021   75..00       MOV     ?V0 + 2,#0x0
   \                     ??ZDO_AnyClusterMatches_2:
   \   000024   E5..         MOV     A,?V0 + 2
   \   000026   C3           CLR     C
   \   000027   95..         SUBB    A,?V0 + 0
   \   000029   5060         JNC     ??ZDO_AnyClusterMatches_3
    587              {
    588                if ( AList[x] == BList[y] )
   \   00002B   E5..         MOV     A,?V0 + 3
   \   00002D   A8..         MOV     R0,?V0 + 3
   \   00002F   7900         MOV     R1,#0x0
   \   000031   E8           MOV     A,R0
   \   000032   75F002       MOV     B,#0x2
   \   000035   A4           MUL     AB
   \   000036   C8           XCH     A,R0
   \   000037   AEF0         MOV     R6,B
   \   000039   75F000       MOV     B,#0x0
   \   00003C   A4           MUL     AB
   \   00003D   2E           ADD     A,R6
   \   00003E   FE           MOV     R6,A
   \   00003F   75F002       MOV     B,#0x2
   \   000042   E9           MOV     A,R1
   \   000043   A4           MUL     AB
   \   000044   2E           ADD     A,R6
   \   000045   F9           MOV     R1,A
   \   000046   EA           MOV     A,R2
   \   000047   28           ADD     A,R0
   \   000048   F582         MOV     DPL,A
   \   00004A   EB           MOV     A,R3
   \   00004B   39           ADDC    A,R1
   \   00004C   F583         MOV     DPH,A
   \   00004E   E0           MOVX    A,@DPTR
   \   00004F   F8           MOV     R0,A
   \   000050   A3           INC     DPTR
   \   000051   E0           MOVX    A,@DPTR
   \   000052   F9           MOV     R1,A
   \   000053   E5..         MOV     A,?V0 + 2
   \   000055   AE..         MOV     R6,?V0 + 2
   \   000057   7F00         MOV     R7,#0x0
   \   000059   EE           MOV     A,R6
   \   00005A   75F002       MOV     B,#0x2
   \   00005D   A4           MUL     AB
   \   00005E   CE           XCH     A,R6
   \   00005F   85F0..       MOV     ?V0 + 1,B
   \   000062   75F000       MOV     B,#0x0
   \   000065   A4           MUL     AB
   \   000066   25..         ADD     A,?V0 + 1
   \   000068   F5..         MOV     ?V0 + 1,A
   \   00006A   75F002       MOV     B,#0x2
   \   00006D   EF           MOV     A,R7
   \   00006E   A4           MUL     AB
   \   00006F   25..         ADD     A,?V0 + 1
   \   000071   FF           MOV     R7,A
   \   000072   EC           MOV     A,R4
   \   000073   2E           ADD     A,R6
   \   000074   F582         MOV     DPL,A
   \   000076   ED           MOV     A,R5
   \   000077   3F           ADDC    A,R7
   \   000078   F583         MOV     DPH,A
   \   00007A   E0           MOVX    A,@DPTR
   \   00007B   68           XRL     A,R0
   \   00007C   7003         JNZ     ??ZDO_AnyClusterMatches_4
   \   00007E   A3           INC     DPTR
   \   00007F   E0           MOVX    A,@DPTR
   \   000080   69           XRL     A,R1
   \                     ??ZDO_AnyClusterMatches_4:
   \   000081   7004         JNZ     ??ZDO_AnyClusterMatches_5
    589                {
    590                  return true;
   \   000083   7901         MOV     R1,#0x1
   \   000085   800A         SJMP    ??ZDO_AnyClusterMatches_6
    591                }
    592              }
   \                     ??ZDO_AnyClusterMatches_5:
   \   000087   05..         INC     ?V0 + 2
   \   000089   8099         SJMP    ??ZDO_AnyClusterMatches_2
    593            }
   \                     ??ZDO_AnyClusterMatches_3:
   \   00008B   05..         INC     ?V0 + 3
   \   00008D   808B         SJMP    ??ZDO_AnyClusterMatches_0
    594          
    595            return false;
   \                     ??ZDO_AnyClusterMatches_1:
   \   00008F   7900         MOV     R1,#0x0
   \                     ??ZDO_AnyClusterMatches_6:
   \   000091   7F05         MOV     R7,#0x5
   \   000093   02....       LJMP    ?BANKED_LEAVE_XDATA
    596          }
    597          
    598          /*********************************************************************
    599           * Callback functions from ZDProfile
    600           */
    601          
    602          /*********************************************************************
    603           * @fn          ZDO_ProcessNodeDescReq
    604           *
    605           * @brief       This function processes and responds to the
    606           *              Node_Desc_req message.
    607           *
    608           * @param       inMsg - incoming message
    609           *
    610           * @return      none
    611           */

   \                                 In  segment BANKED_CODE, align 1, keep-with-next
    612          void ZDO_ProcessNodeDescReq( zdoIncomingMsg_t *inMsg )
   \                     ZDO_ProcessNodeDescReq:
    613          {
   \   000000   74F2         MOV     A,#-0xe
   \   000002   12....       LCALL   ?BANKED_ENTER_XDATA
   \   000005                ; Saved register size: 14
   \   000005                ; Auto size: 0
   \   000005   EA           MOV     A,R2
   \   000006   FE           MOV     R6,A
   \   000007   EB           MOV     A,R3
   \   000008   FF           MOV     R7,A
    614            uint16 aoi = BUILD_UINT16( inMsg->asdu[0], inMsg->asdu[1] );
   \   000009   EE           MOV     A,R6
   \   00000A   2413         ADD     A,#0x13
   \   00000C   F582         MOV     DPL,A
   \   00000E   EF           MOV     A,R7
   \   00000F   3400         ADDC    A,#0x0
   \   000011   F583         MOV     DPH,A
   \   000013   E0           MOVX    A,@DPTR
   \   000014   F8           MOV     R0,A
   \   000015   A3           INC     DPTR
   \   000016   E0           MOVX    A,@DPTR
   \   000017   F583         MOV     DPH,A
   \   000019   8882         MOV     DPL,R0
   \   00001B   E0           MOVX    A,@DPTR
   \   00001C   FA           MOV     R2,A
   \   00001D   7B00         MOV     R3,#0x0
   \   00001F   EE           MOV     A,R6
   \   000020   2413         ADD     A,#0x13
   \   000022   F582         MOV     DPL,A
   \   000024   EF           MOV     A,R7
   \   000025   3400         ADDC    A,#0x0
   \   000027   F583         MOV     DPH,A
   \   000029   E0           MOVX    A,@DPTR
   \   00002A   F8           MOV     R0,A
   \   00002B   A3           INC     DPTR
   \   00002C   E0           MOVX    A,@DPTR
   \   00002D   F583         MOV     DPH,A
   \   00002F   8882         MOV     DPL,R0
   \   000031   A3           INC     DPTR
   \   000032   E0           MOVX    A,@DPTR
   \   000033   F8           MOV     R0,A
   \   000034   7900         MOV     R1,#0x0
   \   000036   E4           CLR     A
   \   000037   C8           XCH     A,R0
   \   000038   F9           MOV     R1,A
   \   000039   EA           MOV     A,R2
   \   00003A   28           ADD     A,R0
   \   00003B   F5..         MOV     ?V0 + 0,A
   \   00003D   EB           MOV     A,R3
   \   00003E   39           ADDC    A,R1
   \   00003F   F5..         MOV     ?V0 + 1,A
    615            NodeDescriptorFormat_t *desc = NULL;
   \   000041   75..00       MOV     ?V0 + 2,#0x0
   \   000044   75..00       MOV     ?V0 + 3,#0x0
    616          
    617            if ( aoi == ZDAppNwkAddr.addr.shortAddr )
   \   000047   90....       MOV     DPTR,#ZDAppNwkAddr
   \   00004A   E0           MOVX    A,@DPTR
   \   00004B   65..         XRL     A,?V0 + 0
   \   00004D   7004         JNZ     ??ZDO_ProcessNodeDescReq_0
   \   00004F   A3           INC     DPTR
   \   000050   E0           MOVX    A,@DPTR
   \   000051   65..         XRL     A,?V0 + 1
   \                     ??ZDO_ProcessNodeDescReq_0:
   \   000053   7006         JNZ     ??ZDO_ProcessNodeDescReq_1
    618            {
    619              desc = &ZDO_Config_Node_Descriptor;
   \   000055   75....       MOV     ?V0 + 2,#ZDO_Config_Node_Descriptor & 0xff
   \   000058   75....       MOV     ?V0 + 3,#(ZDO_Config_Node_Descriptor >> 8) & 0xff
    620            }
    621          
    622            if ( desc != NULL )
   \                     ??ZDO_ProcessNodeDescReq_1:
   \   00005B   E5..         MOV     A,?V0 + 2
   \   00005D   45..         ORL     A,?V0 + 3
   \   00005F   6018         JZ      ??ZDO_ProcessNodeDescReq_2
    623            {
    624              ZDP_NodeDescMsg( inMsg, aoi, desc );
   \   000061                ; Setup parameters for call to function ZDP_NodeDescMsg
   \   000061   78..         MOV     R0,#?V0 + 2
   \   000063   12....       LCALL   ?PUSH_XSTACK_I_TWO
   \   000066   AC..         MOV     R4,?V0 + 0
   \   000068   AD..         MOV     R5,?V0 + 1
   \   00006A   EE           MOV     A,R6
   \   00006B   FA           MOV     R2,A
   \   00006C   EF           MOV     A,R7
   \   00006D   FB           MOV     R3,A
   \   00006E   12....       LCALL   ??ZDP_NodeDescMsg?relay
   \   000071   7402         MOV     A,#0x2
   \   000073   12....       LCALL   ?DEALLOC_XSTACK8
   \   000076   E9           MOV     A,R1
   \   000077   803B         SJMP    ??ZDO_ProcessNodeDescReq_3
    625            }
    626            else
    627            {
    628              ZDP_GenericRsp( inMsg->TransSeq, &(inMsg->srcAddr),
    629                        ZDP_INVALID_REQTYPE, aoi, Node_Desc_rsp, inMsg->SecurityUse );
   \                     ??ZDO_ProcessNodeDescReq_2:
   \   000079                ; Setup parameters for call to function ZDP_GenericRsp
   \   000079   75..02       MOV     ?V0 + 4,#0x2
   \   00007C   75..80       MOV     ?V0 + 5,#-0x80
   \   00007F   78..         MOV     R0,#?V0 + 4
   \   000081   12....       LCALL   ?PUSH_XSTACK_I_TWO
   \   000084   78..         MOV     R0,#?V0 + 0
   \   000086   12....       LCALL   ?PUSH_XSTACK_I_TWO
   \   000089   EE           MOV     A,R6
   \   00008A   240E         ADD     A,#0xe
   \   00008C   F582         MOV     DPL,A
   \   00008E   EF           MOV     A,R7
   \   00008F   3400         ADDC    A,#0x0
   \   000091   F583         MOV     DPH,A
   \   000093   E0           MOVX    A,@DPTR
   \   000094   FD           MOV     R5,A
   \   000095   7C80         MOV     R4,#-0x80
   \   000097   EE           MOV     A,R6
   \   000098   2402         ADD     A,#0x2
   \   00009A   FA           MOV     R2,A
   \   00009B   EF           MOV     A,R7
   \   00009C   3400         ADDC    A,#0x0
   \   00009E   FB           MOV     R3,A
   \   00009F   EE           MOV     A,R6
   \   0000A0   240F         ADD     A,#0xf
   \   0000A2   F582         MOV     DPL,A
   \   0000A4   EF           MOV     A,R7
   \   0000A5   3400         ADDC    A,#0x0
   \   0000A7   F583         MOV     DPH,A
   \   0000A9   E0           MOVX    A,@DPTR
   \   0000AA   F9           MOV     R1,A
   \   0000AB   12....       LCALL   ??ZDP_GenericRsp?relay
   \   0000AE   7404         MOV     A,#0x4
   \   0000B0   12....       LCALL   ?DEALLOC_XSTACK8
   \   0000B3   E9           MOV     A,R1
    630            }
    631          }
   \                     ??ZDO_ProcessNodeDescReq_3:
   \   0000B4   7F06         MOV     R7,#0x6
   \   0000B6   02....       LJMP    ?BANKED_LEAVE_XDATA
    632          
    633          /*********************************************************************
    634           * @fn          ZDO_ProcessPowerDescReq
    635           *
    636           * @brief       This function processes and responds to the
    637           *              Node_Power_req message.
    638           *
    639           * @param       inMsg  - incoming request
    640           *
    641           * @return      none
    642           */

   \                                 In  segment BANKED_CODE, align 1, keep-with-next
    643          void ZDO_ProcessPowerDescReq( zdoIncomingMsg_t *inMsg )
   \                     ZDO_ProcessPowerDescReq:
    644          {
   \   000000   74F2         MOV     A,#-0xe
   \   000002   12....       LCALL   ?BANKED_ENTER_XDATA
   \   000005                ; Saved register size: 14
   \   000005                ; Auto size: 0
   \   000005   EA           MOV     A,R2
   \   000006   FE           MOV     R6,A
   \   000007   EB           MOV     A,R3
   \   000008   FF           MOV     R7,A
    645            uint16 aoi = BUILD_UINT16( inMsg->asdu[0], inMsg->asdu[1] );
   \   000009   EE           MOV     A,R6
   \   00000A   2413         ADD     A,#0x13
   \   00000C   F582         MOV     DPL,A
   \   00000E   EF           MOV     A,R7
   \   00000F   3400         ADDC    A,#0x0
   \   000011   F583         MOV     DPH,A
   \   000013   E0           MOVX    A,@DPTR
   \   000014   F8           MOV     R0,A
   \   000015   A3           INC     DPTR
   \   000016   E0           MOVX    A,@DPTR
   \   000017   F583         MOV     DPH,A
   \   000019   8882         MOV     DPL,R0
   \   00001B   E0           MOVX    A,@DPTR
   \   00001C   FA           MOV     R2,A
   \   00001D   7B00         MOV     R3,#0x0
   \   00001F   EE           MOV     A,R6
   \   000020   2413         ADD     A,#0x13
   \   000022   F582         MOV     DPL,A
   \   000024   EF           MOV     A,R7
   \   000025   3400         ADDC    A,#0x0
   \   000027   F583         MOV     DPH,A
   \   000029   E0           MOVX    A,@DPTR
   \   00002A   F8           MOV     R0,A
   \   00002B   A3           INC     DPTR
   \   00002C   E0           MOVX    A,@DPTR
   \   00002D   F583         MOV     DPH,A
   \   00002F   8882         MOV     DPL,R0
   \   000031   A3           INC     DPTR
   \   000032   E0           MOVX    A,@DPTR
   \   000033   F8           MOV     R0,A
   \   000034   7900         MOV     R1,#0x0
   \   000036   E4           CLR     A
   \   000037   C8           XCH     A,R0
   \   000038   F9           MOV     R1,A
   \   000039   EA           MOV     A,R2
   \   00003A   28           ADD     A,R0
   \   00003B   F5..         MOV     ?V0 + 0,A
   \   00003D   EB           MOV     A,R3
   \   00003E   39           ADDC    A,R1
   \   00003F   F5..         MOV     ?V0 + 1,A
    646            NodePowerDescriptorFormat_t *desc = NULL;
   \   000041   75..00       MOV     ?V0 + 2,#0x0
   \   000044   75..00       MOV     ?V0 + 3,#0x0
    647          
    648            if ( aoi == ZDAppNwkAddr.addr.shortAddr )
   \   000047   90....       MOV     DPTR,#ZDAppNwkAddr
   \   00004A   E0           MOVX    A,@DPTR
   \   00004B   65..         XRL     A,?V0 + 0
   \   00004D   7004         JNZ     ??ZDO_ProcessPowerDescReq_0
   \   00004F   A3           INC     DPTR
   \   000050   E0           MOVX    A,@DPTR
   \   000051   65..         XRL     A,?V0 + 1
   \                     ??ZDO_ProcessPowerDescReq_0:
   \   000053   7006         JNZ     ??ZDO_ProcessPowerDescReq_1
    649            {
    650              desc = &ZDO_Config_Power_Descriptor;
   \   000055   75....       MOV     ?V0 + 2,#ZDO_Config_Power_Descriptor & 0xff
   \   000058   75....       MOV     ?V0 + 3,#(ZDO_Config_Power_Descriptor >> 8) & 0xff
    651            }
    652          
    653            if ( desc != NULL )
   \                     ??ZDO_ProcessPowerDescReq_1:
   \   00005B   E5..         MOV     A,?V0 + 2
   \   00005D   45..         ORL     A,?V0 + 3
   \   00005F   6018         JZ      ??ZDO_ProcessPowerDescReq_2
    654            {
    655              ZDP_PowerDescMsg( inMsg, aoi, desc );
   \   000061                ; Setup parameters for call to function ZDP_PowerDescMsg
   \   000061   78..         MOV     R0,#?V0 + 2
   \   000063   12....       LCALL   ?PUSH_XSTACK_I_TWO
   \   000066   AC..         MOV     R4,?V0 + 0
   \   000068   AD..         MOV     R5,?V0 + 1
   \   00006A   EE           MOV     A,R6
   \   00006B   FA           MOV     R2,A
   \   00006C   EF           MOV     A,R7
   \   00006D   FB           MOV     R3,A
   \   00006E   12....       LCALL   ??ZDP_PowerDescMsg?relay
   \   000071   7402         MOV     A,#0x2
   \   000073   12....       LCALL   ?DEALLOC_XSTACK8
   \   000076   E9           MOV     A,R1
   \   000077   803B         SJMP    ??ZDO_ProcessPowerDescReq_3
    656            }
    657            else
    658            {
    659              ZDP_GenericRsp( inMsg->TransSeq, &(inMsg->srcAddr),
    660                        ZDP_INVALID_REQTYPE, aoi, Power_Desc_rsp, inMsg->SecurityUse );
   \                     ??ZDO_ProcessPowerDescReq_2:
   \   000079                ; Setup parameters for call to function ZDP_GenericRsp
   \   000079   75..03       MOV     ?V0 + 4,#0x3
   \   00007C   75..80       MOV     ?V0 + 5,#-0x80
   \   00007F   78..         MOV     R0,#?V0 + 4
   \   000081   12....       LCALL   ?PUSH_XSTACK_I_TWO
   \   000084   78..         MOV     R0,#?V0 + 0
   \   000086   12....       LCALL   ?PUSH_XSTACK_I_TWO
   \   000089   EE           MOV     A,R6
   \   00008A   240E         ADD     A,#0xe
   \   00008C   F582         MOV     DPL,A
   \   00008E   EF           MOV     A,R7
   \   00008F   3400         ADDC    A,#0x0
   \   000091   F583         MOV     DPH,A
   \   000093   E0           MOVX    A,@DPTR
   \   000094   FD           MOV     R5,A
   \   000095   7C80         MOV     R4,#-0x80
   \   000097   EE           MOV     A,R6
   \   000098   2402         ADD     A,#0x2
   \   00009A   FA           MOV     R2,A
   \   00009B   EF           MOV     A,R7
   \   00009C   3400         ADDC    A,#0x0
   \   00009E   FB           MOV     R3,A
   \   00009F   EE           MOV     A,R6
   \   0000A0   240F         ADD     A,#0xf
   \   0000A2   F582         MOV     DPL,A
   \   0000A4   EF           MOV     A,R7
   \   0000A5   3400         ADDC    A,#0x0
   \   0000A7   F583         MOV     DPH,A
   \   0000A9   E0           MOVX    A,@DPTR
   \   0000AA   F9           MOV     R1,A
   \   0000AB   12....       LCALL   ??ZDP_GenericRsp?relay
   \   0000AE   7404         MOV     A,#0x4
   \   0000B0   12....       LCALL   ?DEALLOC_XSTACK8
   \   0000B3   E9           MOV     A,R1
    661            }
    662          }
   \                     ??ZDO_ProcessPowerDescReq_3:
   \   0000B4   7F06         MOV     R7,#0x6
   \   0000B6   02....       LJMP    ?BANKED_LEAVE_XDATA
    663          
    664          /*********************************************************************
    665           * @fn          ZDO_ProcessSimpleDescReq
    666           *
    667           * @brief       This function processes and responds to the
    668           *              Simple_Desc_req message.
    669           *
    670           * @param       inMsg - incoming message (request)
    671           *
    672           * @return      none
    673           */

   \                                 In  segment BANKED_CODE, align 1, keep-with-next
    674          void ZDO_ProcessSimpleDescReq( zdoIncomingMsg_t *inMsg )
   \                     ZDO_ProcessSimpleDescReq:
    675          {
   \   000000   74F3         MOV     A,#-0xd
   \   000002   12....       LCALL   ?BANKED_ENTER_XDATA
   \   000005                ; Saved register size: 13
   \   000005                ; Auto size: 2
   \   000005   74FE         MOV     A,#-0x2
   \   000007   12....       LCALL   ?ALLOC_XSTACK8
   \   00000A   8A..         MOV     ?V0 + 0,R2
   \   00000C   8B..         MOV     ?V0 + 1,R3
    676            SimpleDescriptionFormat_t *sDesc = NULL;
   \   00000E   85..82       MOV     DPL,?XSP + 0
   \   000011   85..83       MOV     DPH,?XSP + 1
   \   000014   7400         MOV     A,#0x0
   \   000016   F0           MOVX    @DPTR,A
   \   000017   A3           INC     DPTR
   \   000018   7400         MOV     A,#0x0
   \   00001A   F0           MOVX    @DPTR,A
    677            uint16 aoi = BUILD_UINT16( inMsg->asdu[0], inMsg->asdu[1] );
   \   00001B   E5..         MOV     A,?V0 + 0
   \   00001D   2413         ADD     A,#0x13
   \   00001F   F582         MOV     DPL,A
   \   000021   E5..         MOV     A,?V0 + 1
   \   000023   3400         ADDC    A,#0x0
   \   000025   F583         MOV     DPH,A
   \   000027   E0           MOVX    A,@DPTR
   \   000028   F8           MOV     R0,A
   \   000029   A3           INC     DPTR
   \   00002A   E0           MOVX    A,@DPTR
   \   00002B   F583         MOV     DPH,A
   \   00002D   8882         MOV     DPL,R0
   \   00002F   E0           MOVX    A,@DPTR
   \   000030   FA           MOV     R2,A
   \   000031   7B00         MOV     R3,#0x0
   \   000033   E5..         MOV     A,?V0 + 0
   \   000035   2413         ADD     A,#0x13
   \   000037   F582         MOV     DPL,A
   \   000039   E5..         MOV     A,?V0 + 1
   \   00003B   3400         ADDC    A,#0x0
   \   00003D   F583         MOV     DPH,A
   \   00003F   E0           MOVX    A,@DPTR
   \   000040   F8           MOV     R0,A
   \   000041   A3           INC     DPTR
   \   000042   E0           MOVX    A,@DPTR
   \   000043   F583         MOV     DPH,A
   \   000045   8882         MOV     DPL,R0
   \   000047   A3           INC     DPTR
   \   000048   E0           MOVX    A,@DPTR
   \   000049   F8           MOV     R0,A
   \   00004A   7900         MOV     R1,#0x0
   \   00004C   E4           CLR     A
   \   00004D   C8           XCH     A,R0
   \   00004E   F9           MOV     R1,A
   \   00004F   EA           MOV     A,R2
   \   000050   28           ADD     A,R0
   \   000051   FE           MOV     R6,A
   \   000052   EB           MOV     A,R3
   \   000053   39           ADDC    A,R1
   \   000054   FF           MOV     R7,A
    678            byte endPoint = inMsg->asdu[2];
   \   000055   E5..         MOV     A,?V0 + 0
   \   000057   2413         ADD     A,#0x13
   \   000059   F582         MOV     DPL,A
   \   00005B   E5..         MOV     A,?V0 + 1
   \   00005D   3400         ADDC    A,#0x0
   \   00005F   F583         MOV     DPH,A
   \   000061   E0           MOVX    A,@DPTR
   \   000062   F8           MOV     R0,A
   \   000063   A3           INC     DPTR
   \   000064   E0           MOVX    A,@DPTR
   \   000065   F583         MOV     DPH,A
   \   000067   8882         MOV     DPL,R0
   \   000069   A3           INC     DPTR
   \   00006A   A3           INC     DPTR
   \   00006B   E0           MOVX    A,@DPTR
   \   00006C   F5..         MOV     ?V0 + 2,A
    679            byte free = false;
   \   00006E   75..00       MOV     ?V0 + 3,#0x0
    680            byte stat = ZDP_SUCCESS;
   \   000071   75..00       MOV     ?V0 + 4,#0x0
    681          
    682            if ( (endPoint == ZDO_EP) || (endPoint > MAX_ENDPOINTS) )
   \   000074   E5..         MOV     A,?V0 + 2
   \   000076   6007         JZ      ??ZDO_ProcessSimpleDescReq_0
   \   000078   E5..         MOV     A,?V0 + 2
   \   00007A   C3           CLR     C
   \   00007B   94F1         SUBB    A,#-0xf
   \   00007D   4005         JC      ??ZDO_ProcessSimpleDescReq_1
    683            {
    684              stat = ZDP_INVALID_EP;
   \                     ??ZDO_ProcessSimpleDescReq_0:
   \   00007F   75..82       MOV     ?V0 + 4,#-0x7e
   \   000082   8035         SJMP    ??ZDO_ProcessSimpleDescReq_2
    685            }
    686            else if ( aoi == ZDAppNwkAddr.addr.shortAddr )
   \                     ??ZDO_ProcessSimpleDescReq_1:
   \   000084   90....       MOV     DPTR,#ZDAppNwkAddr
   \   000087   E0           MOVX    A,@DPTR
   \   000088   6E           XRL     A,R6
   \   000089   7003         JNZ     ??ZDO_ProcessSimpleDescReq_3
   \   00008B   A3           INC     DPTR
   \   00008C   E0           MOVX    A,@DPTR
   \   00008D   6F           XRL     A,R7
   \                     ??ZDO_ProcessSimpleDescReq_3:
   \   00008E   7026         JNZ     ??ZDO_ProcessSimpleDescReq_4
    687            {
    688              free = afFindSimpleDesc( &sDesc, endPoint );
   \   000090                ; Setup parameters for call to function afFindSimpleDesc
   \   000090   A9..         MOV     R1,?V0 + 2
   \   000092   85..82       MOV     DPL,?XSP + 0
   \   000095   85..83       MOV     DPH,?XSP + 1
   \   000098   AA82         MOV     R2,DPL
   \   00009A   AB83         MOV     R3,DPH
   \   00009C   12....       LCALL   ??afFindSimpleDesc?relay
   \   00009F   E9           MOV     A,R1
   \   0000A0   F5..         MOV     ?V0 + 3,A
    689              if ( sDesc == NULL )
   \   0000A2   85..82       MOV     DPL,?XSP + 0
   \   0000A5   85..83       MOV     DPH,?XSP + 1
   \   0000A8   E0           MOVX    A,@DPTR
   \   0000A9   F8           MOV     R0,A
   \   0000AA   A3           INC     DPTR
   \   0000AB   E0           MOVX    A,@DPTR
   \   0000AC   F9           MOV     R1,A
   \   0000AD   E8           MOV     A,R0
   \   0000AE   49           ORL     A,R1
   \   0000AF   7008         JNZ     ??ZDO_ProcessSimpleDescReq_2
    690              {
    691                stat = ZDP_NOT_ACTIVE;
   \   0000B1   75..83       MOV     ?V0 + 4,#-0x7d
   \   0000B4   8003         SJMP    ??ZDO_ProcessSimpleDescReq_2
    692              }
    693            }
    694            else
    695            {
    696              if ( ZSTACK_ROUTER_BUILD )
    697              {
    698                stat = ZDP_DEVICE_NOT_FOUND;
   \                     ??ZDO_ProcessSimpleDescReq_4:
   \   0000B6   75..81       MOV     ?V0 + 4,#-0x7f
    699              }
    700              else if ( ZSTACK_END_DEVICE_BUILD )
    701              {
    702                stat = ZDP_INVALID_REQTYPE;
    703              }
    704            }
    705          
    706            ZDP_SimpleDescMsg( inMsg, stat, sDesc );
   \                     ??ZDO_ProcessSimpleDescReq_2:
   \   0000B9                ; Setup parameters for call to function ZDP_SimpleDescMsg
   \   0000B9   85..82       MOV     DPL,?XSP + 0
   \   0000BC   85..83       MOV     DPH,?XSP + 1
   \   0000BF   E0           MOVX    A,@DPTR
   \   0000C0   FC           MOV     R4,A
   \   0000C1   A3           INC     DPTR
   \   0000C2   E0           MOVX    A,@DPTR
   \   0000C3   FD           MOV     R5,A
   \   0000C4   A9..         MOV     R1,?V0 + 4
   \   0000C6   AA..         MOV     R2,?V0 + 0
   \   0000C8   AB..         MOV     R3,?V0 + 1
   \   0000CA   12....       LCALL   ??ZDP_SimpleDescMsg?relay
   \   0000CD   E9           MOV     A,R1
    707          
    708            if ( free && sDesc )
   \   0000CE   E5..         MOV     A,?V0 + 3
   \   0000D0   601D         JZ      ??ZDO_ProcessSimpleDescReq_5
   \   0000D2   85..82       MOV     DPL,?XSP + 0
   \   0000D5   85..83       MOV     DPH,?XSP + 1
   \   0000D8   E0           MOVX    A,@DPTR
   \   0000D9   F8           MOV     R0,A
   \   0000DA   A3           INC     DPTR
   \   0000DB   E0           MOVX    A,@DPTR
   \   0000DC   F9           MOV     R1,A
   \   0000DD   E8           MOV     A,R0
   \   0000DE   49           ORL     A,R1
   \   0000DF   600E         JZ      ??ZDO_ProcessSimpleDescReq_5
    709            {
    710              osal_mem_free( sDesc );
   \   0000E1                ; Setup parameters for call to function osal_mem_free
   \   0000E1   85..82       MOV     DPL,?XSP + 0
   \   0000E4   85..83       MOV     DPH,?XSP + 1
   \   0000E7   E0           MOVX    A,@DPTR
   \   0000E8   FA           MOV     R2,A
   \   0000E9   A3           INC     DPTR
   \   0000EA   E0           MOVX    A,@DPTR
   \   0000EB   FB           MOV     R3,A
   \   0000EC   12....       LCALL   ??osal_mem_free?relay
    711            }
    712          }
   \                     ??ZDO_ProcessSimpleDescReq_5:
   \   0000EF   7402         MOV     A,#0x2
   \   0000F1   12....       LCALL   ?DEALLOC_XSTACK8
   \   0000F4   7F05         MOV     R7,#0x5
   \   0000F6   02....       LJMP    ?BANKED_LEAVE_XDATA
    713          
    714          /*********************************************************************
    715           * @fn          ZDO_ProcessActiveEPReq
    716           *
    717           * @brief       This function processes and responds to the
    718           *              Active_EP_req message.
    719           *
    720           * @param       inMsg  - incoming message (request)
    721           *
    722           * @return      none
    723           */

   \                                 In  segment BANKED_CODE, align 1, keep-with-next
    724          void ZDO_ProcessActiveEPReq( zdoIncomingMsg_t *inMsg )
   \                     ZDO_ProcessActiveEPReq:
    725          {
   \   000000   74F2         MOV     A,#-0xe
   \   000002   12....       LCALL   ?BANKED_ENTER_XDATA
   \   000005                ; Saved register size: 14
   \   000005                ; Auto size: 0
   \   000005   EA           MOV     A,R2
   \   000006   FE           MOV     R6,A
   \   000007   EB           MOV     A,R3
   \   000008   FF           MOV     R7,A
    726            byte cnt = 0;
   \   000009   75..00       MOV     ?V0 + 0,#0x0
    727            uint16 aoi;
    728            byte stat = ZDP_SUCCESS;
   \   00000C   75..00       MOV     ?V0 + 1,#0x0
    729          
    730            aoi = BUILD_UINT16( inMsg->asdu[0], inMsg->asdu[1] );
   \   00000F   EE           MOV     A,R6
   \   000010   2413         ADD     A,#0x13
   \   000012   F582         MOV     DPL,A
   \   000014   EF           MOV     A,R7
   \   000015   3400         ADDC    A,#0x0
   \   000017   F583         MOV     DPH,A
   \   000019   E0           MOVX    A,@DPTR
   \   00001A   F8           MOV     R0,A
   \   00001B   A3           INC     DPTR
   \   00001C   E0           MOVX    A,@DPTR
   \   00001D   F583         MOV     DPH,A
   \   00001F   8882         MOV     DPL,R0
   \   000021   E0           MOVX    A,@DPTR
   \   000022   FA           MOV     R2,A
   \   000023   7B00         MOV     R3,#0x0
   \   000025   EE           MOV     A,R6
   \   000026   2413         ADD     A,#0x13
   \   000028   F582         MOV     DPL,A
   \   00002A   EF           MOV     A,R7
   \   00002B   3400         ADDC    A,#0x0
   \   00002D   F583         MOV     DPH,A
   \   00002F   E0           MOVX    A,@DPTR
   \   000030   F8           MOV     R0,A
   \   000031   A3           INC     DPTR
   \   000032   E0           MOVX    A,@DPTR
   \   000033   F583         MOV     DPH,A
   \   000035   8882         MOV     DPL,R0
   \   000037   A3           INC     DPTR
   \   000038   E0           MOVX    A,@DPTR
   \   000039   F8           MOV     R0,A
   \   00003A   7900         MOV     R1,#0x0
   \   00003C   E4           CLR     A
   \   00003D   C8           XCH     A,R0
   \   00003E   F9           MOV     R1,A
   \   00003F   EA           MOV     A,R2
   \   000040   28           ADD     A,R0
   \   000041   F8           MOV     R0,A
   \   000042   EB           MOV     A,R3
   \   000043   39           ADDC    A,R1
   \   000044   F9           MOV     R1,A
   \   000045   88..         MOV     ?V0 + 2,R0
   \   000047   89..         MOV     ?V0 + 3,R1
    731          
    732            if ( aoi == NLME_GetShortAddr() )
   \   000049                ; Setup parameters for call to function NLME_GetShortAddr
   \   000049   12....       LCALL   ??NLME_GetShortAddr?relay
   \   00004C   8A..         MOV     ?V0 + 4,R2
   \   00004E   8B..         MOV     ?V0 + 5,R3
   \   000050   E5..         MOV     A,?V0 + 4
   \   000052   65..         XRL     A,?V0 + 2
   \   000054   7004         JNZ     ??ZDO_ProcessActiveEPReq_0
   \   000056   E5..         MOV     A,?V0 + 5
   \   000058   65..         XRL     A,?V0 + 3
   \                     ??ZDO_ProcessActiveEPReq_0:
   \   00005A   7013         JNZ     ??ZDO_ProcessActiveEPReq_1
    733            {
    734              cnt = afNumEndPoints() - 1;  // -1 for ZDO endpoint descriptor
   \   00005C                ; Setup parameters for call to function afNumEndPoints
   \   00005C   12....       LCALL   ??afNumEndPoints?relay
   \   00005F   E9           MOV     A,R1
   \   000060   24FF         ADD     A,#-0x1
   \   000062   F5..         MOV     ?V0 + 0,A
    735              afEndPoints( (uint8 *)ZDOBuildBuf, true );
   \   000064                ; Setup parameters for call to function afEndPoints
   \   000064   7901         MOV     R1,#0x1
   \   000066   7A..         MOV     R2,#ZDOBuildBuf & 0xff
   \   000068   7B..         MOV     R3,#(ZDOBuildBuf >> 8) & 0xff
   \   00006A   12....       LCALL   ??afEndPoints?relay
   \   00006D   8003         SJMP    ??ZDO_ProcessActiveEPReq_2
    736            }
    737            else
    738            {
    739              stat = ZDP_INVALID_REQTYPE;
   \                     ??ZDO_ProcessActiveEPReq_1:
   \   00006F   75..80       MOV     ?V0 + 1,#-0x80
    740            }
    741          
    742            ZDP_ActiveEPRsp( inMsg->TransSeq, &(inMsg->srcAddr), stat,
    743                            aoi, cnt, (uint8 *)ZDOBuildBuf, inMsg->SecurityUse );
   \                     ??ZDO_ProcessActiveEPReq_2:
   \   000072                ; Setup parameters for call to function ZDP_EPRsp
   \   000072   EE           MOV     A,R6
   \   000073   240E         ADD     A,#0xe
   \   000075   F582         MOV     DPL,A
   \   000077   EF           MOV     A,R7
   \   000078   3400         ADDC    A,#0x0
   \   00007A   F583         MOV     DPH,A
   \   00007C   E0           MOVX    A,@DPTR
   \   00007D   F5..         MOV     ?V0 + 4,A
   \   00007F   78..         MOV     R0,#?V0 + 4
   \   000081   12....       LCALL   ?PUSH_XSTACK_I_ONE
   \   000084   75....       MOV     ?V0 + 4,#ZDOBuildBuf & 0xff
   \   000087   75....       MOV     ?V0 + 5,#(ZDOBuildBuf >> 8) & 0xff
   \   00008A   78..         MOV     R0,#?V0 + 4
   \   00008C   12....       LCALL   ?PUSH_XSTACK_I_TWO
   \   00008F   E5..         MOV     A,?V0 + 0
   \   000091   F5..         MOV     ?V0 + 4,A
   \   000093   78..         MOV     R0,#?V0 + 4
   \   000095   12....       LCALL   ?PUSH_XSTACK_I_ONE
   \   000098   78..         MOV     R0,#?V0 + 2
   \   00009A   12....       LCALL   ?PUSH_XSTACK_I_TWO
   \   00009D   E5..         MOV     A,?V0 + 1
   \   00009F   F5..         MOV     ?V0 + 4,A
   \   0000A1   78..         MOV     R0,#?V0 + 4
   \   0000A3   12....       LCALL   ?PUSH_XSTACK_I_ONE
   \   0000A6   EE           MOV     A,R6
   \   0000A7   2402         ADD     A,#0x2
   \   0000A9   FC           MOV     R4,A
   \   0000AA   EF           MOV     A,R7
   \   0000AB   3400         ADDC    A,#0x0
   \   0000AD   FD           MOV     R5,A
   \   0000AE   EE           MOV     A,R6
   \   0000AF   240F         ADD     A,#0xf
   \   0000B1   F582         MOV     DPL,A
   \   0000B3   EF           MOV     A,R7
   \   0000B4   3400         ADDC    A,#0x0
   \   0000B6   F583         MOV     DPH,A
   \   0000B8   E0           MOVX    A,@DPTR
   \   0000B9   F9           MOV     R1,A
   \   0000BA   7A05         MOV     R2,#0x5
   \   0000BC   7B80         MOV     R3,#-0x80
   \   0000BE   12....       LCALL   ??ZDP_EPRsp?relay
   \   0000C1   7407         MOV     A,#0x7
   \   0000C3   12....       LCALL   ?DEALLOC_XSTACK8
   \   0000C6   E9           MOV     A,R1
    744          }
   \   0000C7   7F06         MOV     R7,#0x6
   \   0000C9   02....       LJMP    ?BANKED_LEAVE_XDATA
    745          
    746          /*********************************************************************
    747           * @fn          ZDO_ConvertOTAClusters
    748           *
    749           * @brief       This function will convert the over-the-air cluster list
    750           *              format to an internal format.
    751           *
    752           * @param       inMsg  - incoming message (request)
    753           *
    754           * @return      pointer to incremented inBuf
    755           */

   \                                 In  segment BANKED_CODE, align 1, keep-with-next
    756          uint8 *ZDO_ConvertOTAClusters( uint8 cnt, uint8 *inBuf, uint16 *outList )
   \                     ZDO_ConvertOTAClusters:
    757          {
   \   000000   74F5         MOV     A,#-0xb
   \   000002   12....       LCALL   ?BANKED_ENTER_XDATA
   \   000005                ; Saved register size: 11
   \   000005                ; Auto size: 0
   \   000005   E9           MOV     A,R1
   \   000006   FE           MOV     R6,A
    758            uint8 x;
    759          
    760            for ( x = 0; x < cnt; x++ )
   \   000007   75..00       MOV     ?V0 + 2,#0x0
   \                     ??ZDO_ConvertOTAClusters_0:
   \   00000A   E5..         MOV     A,?V0 + 2
   \   00000C   C3           CLR     C
   \   00000D   9E           SUBB    A,R6
   \   00000E   5056         JNC     ??ZDO_ConvertOTAClusters_1
    761            {
    762              // convert ota format to internal
    763              outList[x] = BUILD_UINT16( inBuf[0], inBuf[1] );
   \   000010   8A82         MOV     DPL,R2
   \   000012   8B83         MOV     DPH,R3
   \   000014   E0           MOVX    A,@DPTR
   \   000015   F5..         MOV     ?V0 + 0,A
   \   000017   75..00       MOV     ?V0 + 1,#0x0
   \   00001A   8A82         MOV     DPL,R2
   \   00001C   8B83         MOV     DPH,R3
   \   00001E   A3           INC     DPTR
   \   00001F   E0           MOVX    A,@DPTR
   \   000020   F8           MOV     R0,A
   \   000021   7900         MOV     R1,#0x0
   \   000023   E4           CLR     A
   \   000024   C8           XCH     A,R0
   \   000025   F9           MOV     R1,A
   \   000026   E5..         MOV     A,?V0 + 0
   \   000028   28           ADD     A,R0
   \   000029   F5..         MOV     ?V0 + 0,A
   \   00002B   E5..         MOV     A,?V0 + 1
   \   00002D   39           ADDC    A,R1
   \   00002E   F5..         MOV     ?V0 + 1,A
   \   000030   E5..         MOV     A,?V0 + 2
   \   000032   A8..         MOV     R0,?V0 + 2
   \   000034   7900         MOV     R1,#0x0
   \   000036   E8           MOV     A,R0
   \   000037   75F002       MOV     B,#0x2
   \   00003A   A4           MUL     AB
   \   00003B   C8           XCH     A,R0
   \   00003C   AFF0         MOV     R7,B
   \   00003E   75F000       MOV     B,#0x0
   \   000041   A4           MUL     AB
   \   000042   2F           ADD     A,R7
   \   000043   FF           MOV     R7,A
   \   000044   75F002       MOV     B,#0x2
   \   000047   E9           MOV     A,R1
   \   000048   A4           MUL     AB
   \   000049   2F           ADD     A,R7
   \   00004A   F9           MOV     R1,A
   \   00004B   EC           MOV     A,R4
   \   00004C   28           ADD     A,R0
   \   00004D   F582         MOV     DPL,A
   \   00004F   ED           MOV     A,R5
   \   000050   39           ADDC    A,R1
   \   000051   F583         MOV     DPH,A
   \   000053   E5..         MOV     A,?V0 + 0
   \   000055   F0           MOVX    @DPTR,A
   \   000056   A3           INC     DPTR
   \   000057   E5..         MOV     A,?V0 + 1
   \   000059   F0           MOVX    @DPTR,A
    764              inBuf += sizeof( uint16 );
   \   00005A   EA           MOV     A,R2
   \   00005B   2402         ADD     A,#0x2
   \   00005D   FA           MOV     R2,A
   \   00005E   EB           MOV     A,R3
   \   00005F   3400         ADDC    A,#0x0
   \   000061   FB           MOV     R3,A
    765            }
   \   000062   05..         INC     ?V0 + 2
   \   000064   80A4         SJMP    ??ZDO_ConvertOTAClusters_0
    766            return ( inBuf );
   \                     ??ZDO_ConvertOTAClusters_1:
   \   000066   7F03         MOV     R7,#0x3
   \   000068   02....       LJMP    ?BANKED_LEAVE_XDATA
    767          }
    768          
    769          /*********************************************************************
    770           * @fn          ZDO_ProcessMatchDescReq
    771           *
    772           * @brief       This function processes and responds to the
    773           *              Match_Desc_req message.
    774           *
    775           * @param       inMsg  - incoming message (request)
    776           *
    777           * @return      none
    778           */

   \                                 In  segment BANKED_CODE, align 1, keep-with-next
    779          void ZDO_ProcessMatchDescReq( zdoIncomingMsg_t *inMsg )
   \                     ZDO_ProcessMatchDescReq:
    780          {
   \   000000   74E8         MOV     A,#-0x18
   \   000002   12....       LCALL   ?BANKED_ENTER_XDATA
   \   000005                ; Saved register size: 24
   \   000005                ; Auto size: 10
   \   000005   74F6         MOV     A,#-0xa
   \   000007   12....       LCALL   ?ALLOC_XSTACK8
   \   00000A   8A..         MOV     ?V0 + 12,R2
   \   00000C   8B..         MOV     ?V0 + 13,R3
    781            uint8 epCnt = 0;
   \   00000E   75..00       MOV     ?V0 + 14,#0x0
    782            uint8 numInClusters;
    783            uint16 *inClusters = NULL;
   \   000011   7402         MOV     A,#0x2
   \   000013   12....       LCALL   ?XSTACK_DISP0_8
   \   000016   7400         MOV     A,#0x0
   \   000018   F0           MOVX    @DPTR,A
   \   000019   A3           INC     DPTR
   \   00001A   7400         MOV     A,#0x0
   \   00001C   F0           MOVX    @DPTR,A
    784            uint8 numOutClusters;
    785            uint16 *outClusters = NULL;
   \   00001D   85..82       MOV     DPL,?XSP + 0
   \   000020   85..83       MOV     DPH,?XSP + 1
   \   000023   7400         MOV     A,#0x0
   \   000025   F0           MOVX    @DPTR,A
   \   000026   A3           INC     DPTR
   \   000027   7400         MOV     A,#0x0
   \   000029   F0           MOVX    @DPTR,A
    786            epList_t *epDesc;
    787            SimpleDescriptionFormat_t *sDesc = NULL;
   \   00002A   75..00       MOV     ?V0 + 8,#0x0
   \   00002D   75..00       MOV     ?V0 + 9,#0x0
    788            uint8 allocated;
    789            uint8 *msg;
    790            uint16 aoi;
    791            uint16 profileID;
    792          
    793            // Parse the incoming message
    794            msg = inMsg->asdu;
   \   000030   E5..         MOV     A,?V0 + 12
   \   000032   2413         ADD     A,#0x13
   \   000034   F582         MOV     DPL,A
   \   000036   E5..         MOV     A,?V0 + 13
   \   000038   3400         ADDC    A,#0x0
   \   00003A   F583         MOV     DPH,A
   \   00003C   E0           MOVX    A,@DPTR
   \   00003D   F8           MOV     R0,A
   \   00003E   A3           INC     DPTR
   \   00003F   E0           MOVX    A,@DPTR
   \   000040   F9           MOV     R1,A
   \   000041   E8           MOV     A,R0
   \   000042   FE           MOV     R6,A
   \   000043   E9           MOV     A,R1
   \   000044   FF           MOV     R7,A
    795            aoi = BUILD_UINT16( msg[0], msg[1] );
   \   000045   8E82         MOV     DPL,R6
   \   000047   8F83         MOV     DPH,R7
   \   000049   E0           MOVX    A,@DPTR
   \   00004A   FA           MOV     R2,A
   \   00004B   7B00         MOV     R3,#0x0
   \   00004D   8E82         MOV     DPL,R6
   \   00004F   8F83         MOV     DPH,R7
   \   000051   A3           INC     DPTR
   \   000052   E0           MOVX    A,@DPTR
   \   000053   F8           MOV     R0,A
   \   000054   7900         MOV     R1,#0x0
   \   000056   E4           CLR     A
   \   000057   C8           XCH     A,R0
   \   000058   F9           MOV     R1,A
   \   000059   EA           MOV     A,R2
   \   00005A   28           ADD     A,R0
   \   00005B   F8           MOV     R0,A
   \   00005C   EB           MOV     A,R3
   \   00005D   39           ADDC    A,R1
   \   00005E   F9           MOV     R1,A
   \   00005F   7404         MOV     A,#0x4
   \   000061   12....       LCALL   ?XSTACK_DISP0_8
   \   000064   E8           MOV     A,R0
   \   000065   F0           MOVX    @DPTR,A
   \   000066   A3           INC     DPTR
   \   000067   E9           MOV     A,R1
   \   000068   F0           MOVX    @DPTR,A
    796            profileID = BUILD_UINT16( msg[2], msg[3] );
   \   000069   8E82         MOV     DPL,R6
   \   00006B   8F83         MOV     DPH,R7
   \   00006D   A3           INC     DPTR
   \   00006E   A3           INC     DPTR
   \   00006F   E0           MOVX    A,@DPTR
   \   000070   FA           MOV     R2,A
   \   000071   7B00         MOV     R3,#0x0
   \   000073   8E82         MOV     DPL,R6
   \   000075   8F83         MOV     DPH,R7
   \   000077   A3           INC     DPTR
   \   000078   A3           INC     DPTR
   \   000079   A3           INC     DPTR
   \   00007A   E0           MOVX    A,@DPTR
   \   00007B   F8           MOV     R0,A
   \   00007C   7900         MOV     R1,#0x0
   \   00007E   E4           CLR     A
   \   00007F   C8           XCH     A,R0
   \   000080   F9           MOV     R1,A
   \   000081   EA           MOV     A,R2
   \   000082   28           ADD     A,R0
   \   000083   F8           MOV     R0,A
   \   000084   EB           MOV     A,R3
   \   000085   39           ADDC    A,R1
   \   000086   F9           MOV     R1,A
   \   000087   7408         MOV     A,#0x8
   \   000089   12....       LCALL   ?XSTACK_DISP0_8
   \   00008C   E8           MOV     A,R0
   \   00008D   F0           MOVX    @DPTR,A
   \   00008E   A3           INC     DPTR
   \   00008F   E9           MOV     A,R1
   \   000090   F0           MOVX    @DPTR,A
    797            msg += 4;
   \   000091   EE           MOV     A,R6
   \   000092   2404         ADD     A,#0x4
   \   000094   FE           MOV     R6,A
   \   000095   EF           MOV     A,R7
   \   000096   3400         ADDC    A,#0x0
   \   000098   FF           MOV     R7,A
    798          
    799            if ( ADDR_BCAST_NOT_ME == NLME_IsAddressBroadcast(aoi) )
   \   000099                ; Setup parameters for call to function NLME_IsAddressBroadcast
   \   000099   7404         MOV     A,#0x4
   \   00009B   12....       LCALL   ?XSTACK_DISP0_8
   \   00009E   E0           MOVX    A,@DPTR
   \   00009F   FA           MOV     R2,A
   \   0000A0   A3           INC     DPTR
   \   0000A1   E0           MOVX    A,@DPTR
   \   0000A2   FB           MOV     R3,A
   \   0000A3   12....       LCALL   ??NLME_IsAddressBroadcast?relay
   \   0000A6   E9           MOV     A,R1
   \   0000A7   6401         XRL     A,#0x1
   \   0000A9   705C         JNZ     ??ZDO_ProcessMatchDescReq_0
    800            {
    801              ZDP_MatchDescRsp( inMsg->TransSeq, &(inMsg->srcAddr), ZDP_INVALID_REQTYPE,
    802                                    ZDAppNwkAddr.addr.shortAddr, 0, NULL, inMsg->SecurityUse );
   \   0000AB                ; Setup parameters for call to function ZDP_EPRsp
   \   0000AB   E5..         MOV     A,?V0 + 12
   \   0000AD   240E         ADD     A,#0xe
   \   0000AF   F582         MOV     DPL,A
   \   0000B1   E5..         MOV     A,?V0 + 13
   \   0000B3   3400         ADDC    A,#0x0
   \   0000B5   F583         MOV     DPH,A
   \   0000B7   E0           MOVX    A,@DPTR
   \   0000B8   F5..         MOV     ?V0 + 0,A
   \   0000BA   78..         MOV     R0,#?V0 + 0
   \   0000BC   12....       LCALL   ?PUSH_XSTACK_I_ONE
   \   0000BF   E4           CLR     A
   \   0000C0   F5..         MOV     ?V0 + 0,A
   \   0000C2   F5..         MOV     ?V0 + 1,A
   \   0000C4   78..         MOV     R0,#?V0 + 0
   \   0000C6   12....       LCALL   ?PUSH_XSTACK_I_TWO
   \   0000C9   75..00       MOV     ?V0 + 0,#0x0
   \   0000CC   78..         MOV     R0,#?V0 + 0
   \   0000CE   12....       LCALL   ?PUSH_XSTACK_I_ONE
   \   0000D1   90....       MOV     DPTR,#ZDAppNwkAddr
   \   0000D4   12....       LCALL   ?PUSH_XSTACK8_X_TWO
   \   0000D7   75..80       MOV     ?V0 + 0,#-0x80
   \   0000DA   78..         MOV     R0,#?V0 + 0
   \   0000DC   12....       LCALL   ?PUSH_XSTACK_I_ONE
   \   0000DF   E5..         MOV     A,?V0 + 12
   \   0000E1   2402         ADD     A,#0x2
   \   0000E3   FC           MOV     R4,A
   \   0000E4   E5..         MOV     A,?V0 + 13
   \   0000E6   3400         ADDC    A,#0x0
   \   0000E8   FD           MOV     R5,A
   \   0000E9   E5..         MOV     A,?V0 + 12
   \   0000EB   240F         ADD     A,#0xf
   \   0000ED   F582         MOV     DPL,A
   \   0000EF   E5..         MOV     A,?V0 + 13
   \   0000F1   3400         ADDC    A,#0x0
   \   0000F3   F583         MOV     DPH,A
   \   0000F5   E0           MOVX    A,@DPTR
   \   0000F6   F9           MOV     R1,A
   \   0000F7   7A06         MOV     R2,#0x6
   \   0000F9   7B80         MOV     R3,#-0x80
   \   0000FB   12....       LCALL   ??ZDP_EPRsp?relay
   \   0000FE   7407         MOV     A,#0x7
   \   000100   12....       LCALL   ?DEALLOC_XSTACK8
   \   000103   E9           MOV     A,R1
    803              return;
   \   000104   02....       LJMP    ??ZDO_ProcessMatchDescReq_1 & 0xFFFF
    804            }
    805            else if ( (ADDR_NOT_BCAST == NLME_IsAddressBroadcast(aoi)) && (aoi != ZDAppNwkAddr.addr.shortAddr) )
   \                     ??ZDO_ProcessMatchDescReq_0:
   \   000107                ; Setup parameters for call to function NLME_IsAddressBroadcast
   \   000107   7404         MOV     A,#0x4
   \   000109   12....       LCALL   ?XSTACK_DISP0_8
   \   00010C   E0           MOVX    A,@DPTR
   \   00010D   FA           MOV     R2,A
   \   00010E   A3           INC     DPTR
   \   00010F   E0           MOVX    A,@DPTR
   \   000110   FB           MOV     R3,A
   \   000111   12....       LCALL   ??NLME_IsAddressBroadcast?relay
   \   000114   E9           MOV     A,R1
   \   000115   7072         JNZ     ??ZDO_ProcessMatchDescReq_2
   \   000117   7404         MOV     A,#0x4
   \   000119   12....       LCALL   ?XSTACK_DISP0_8
   \   00011C   E0           MOVX    A,@DPTR
   \   00011D   F8           MOV     R0,A
   \   00011E   A3           INC     DPTR
   \   00011F   E0           MOVX    A,@DPTR
   \   000120   F9           MOV     R1,A
   \   000121   90....       MOV     DPTR,#ZDAppNwkAddr
   \   000124   E0           MOVX    A,@DPTR
   \   000125   68           XRL     A,R0
   \   000126   7003         JNZ     ??ZDO_ProcessMatchDescReq_3
   \   000128   A3           INC     DPTR
   \   000129   E0           MOVX    A,@DPTR
   \   00012A   69           XRL     A,R1
   \                     ??ZDO_ProcessMatchDescReq_3:
   \   00012B   605C         JZ      ??ZDO_ProcessMatchDescReq_2
    806            {
    807              ZDP_MatchDescRsp( inMsg->TransSeq, &(inMsg->srcAddr), ZDP_INVALID_REQTYPE,
    808                                       ZDAppNwkAddr.addr.shortAddr, 0, NULL, inMsg->SecurityUse );
   \   00012D                ; Setup parameters for call to function ZDP_EPRsp
   \   00012D   E5..         MOV     A,?V0 + 12
   \   00012F   240E         ADD     A,#0xe
   \   000131   F582         MOV     DPL,A
   \   000133   E5..         MOV     A,?V0 + 13
   \   000135   3400         ADDC    A,#0x0
   \   000137   F583         MOV     DPH,A
   \   000139   E0           MOVX    A,@DPTR
   \   00013A   F5..         MOV     ?V0 + 0,A
   \   00013C   78..         MOV     R0,#?V0 + 0
   \   00013E   12....       LCALL   ?PUSH_XSTACK_I_ONE
   \   000141   E4           CLR     A
   \   000142   F5..         MOV     ?V0 + 0,A
   \   000144   F5..         MOV     ?V0 + 1,A
   \   000146   78..         MOV     R0,#?V0 + 0
   \   000148   12....       LCALL   ?PUSH_XSTACK_I_TWO
   \   00014B   75..00       MOV     ?V0 + 0,#0x0
   \   00014E   78..         MOV     R0,#?V0 + 0
   \   000150   12....       LCALL   ?PUSH_XSTACK_I_ONE
   \   000153   90....       MOV     DPTR,#ZDAppNwkAddr
   \   000156   12....       LCALL   ?PUSH_XSTACK8_X_TWO
   \   000159   75..80       MOV     ?V0 + 0,#-0x80
   \   00015C   78..         MOV     R0,#?V0 + 0
   \   00015E   12....       LCALL   ?PUSH_XSTACK_I_ONE
   \   000161   E5..         MOV     A,?V0 + 12
   \   000163   2402         ADD     A,#0x2
   \   000165   FC           MOV     R4,A
   \   000166   E5..         MOV     A,?V0 + 13
   \   000168   3400         ADDC    A,#0x0
   \   00016A   FD           MOV     R5,A
   \   00016B   E5..         MOV     A,?V0 + 12
   \   00016D   240F         ADD     A,#0xf
   \   00016F   F582         MOV     DPL,A
   \   000171   E5..         MOV     A,?V0 + 13
   \   000173   3400         ADDC    A,#0x0
   \   000175   F583         MOV     DPH,A
   \   000177   E0           MOVX    A,@DPTR
   \   000178   F9           MOV     R1,A
   \   000179   7A06         MOV     R2,#0x6
   \   00017B   7B80         MOV     R3,#-0x80
   \   00017D   12....       LCALL   ??ZDP_EPRsp?relay
   \   000180   7407         MOV     A,#0x7
   \   000182   12....       LCALL   ?DEALLOC_XSTACK8
   \   000185   E9           MOV     A,R1
    809              return;
   \   000186   02....       LJMP    ??ZDO_ProcessMatchDescReq_1 & 0xFFFF
    810            }
    811          
    812            if ((numInClusters = *msg++) &&
    813                (inClusters = (uint16*)osal_mem_alloc( numInClusters * sizeof( uint16 ) )))
   \                     ??ZDO_ProcessMatchDescReq_2:
   \   000189   8E82         MOV     DPL,R6
   \   00018B   8F83         MOV     DPH,R7
   \   00018D   E0           MOVX    A,@DPTR
   \   00018E   F8           MOV     R0,A
   \   00018F   8E82         MOV     DPL,R6
   \   000191   8F83         MOV     DPH,R7
   \   000193   A3           INC     DPTR
   \   000194   AE82         MOV     R6,DPL
   \   000196   AF83         MOV     R7,DPH
   \   000198   88..         MOV     ?V0 + 2,R0
   \   00019A   E8           MOV     A,R0
   \   00019B   6051         JZ      ??ZDO_ProcessMatchDescReq_4
   \   00019D                ; Setup parameters for call to function osal_mem_alloc
   \   00019D   E5..         MOV     A,?V0 + 2
   \   00019F   AA..         MOV     R2,?V0 + 2
   \   0001A1   7B00         MOV     R3,#0x0
   \   0001A3   EA           MOV     A,R2
   \   0001A4   75F002       MOV     B,#0x2
   \   0001A7   A4           MUL     AB
   \   0001A8   CA           XCH     A,R2
   \   0001A9   A8F0         MOV     R0,B
   \   0001AB   75F000       MOV     B,#0x0
   \   0001AE   A4           MUL     AB
   \   0001AF   28           ADD     A,R0
   \   0001B0   F8           MOV     R0,A
   \   0001B1   75F002       MOV     B,#0x2
   \   0001B4   EB           MOV     A,R3
   \   0001B5   A4           MUL     AB
   \   0001B6   28           ADD     A,R0
   \   0001B7   FB           MOV     R3,A
   \   0001B8   12....       LCALL   ??osal_mem_alloc?relay
   \   0001BB   8A..         MOV     ?V0 + 0,R2
   \   0001BD   8B..         MOV     ?V0 + 1,R3
   \   0001BF   A8..         MOV     R0,?V0 + 0
   \   0001C1   A9..         MOV     R1,?V0 + 1
   \   0001C3   7402         MOV     A,#0x2
   \   0001C5   12....       LCALL   ?XSTACK_DISP0_8
   \   0001C8   E8           MOV     A,R0
   \   0001C9   F0           MOVX    @DPTR,A
   \   0001CA   A3           INC     DPTR
   \   0001CB   E9           MOV     A,R1
   \   0001CC   F0           MOVX    @DPTR,A
   \   0001CD   E8           MOV     A,R0
   \   0001CE   49           ORL     A,R1
   \   0001CF   601D         JZ      ??ZDO_ProcessMatchDescReq_4
    814            {
    815              msg = ZDO_ConvertOTAClusters( numInClusters, msg, inClusters );
   \   0001D1                ; Setup parameters for call to function ZDO_ConvertOTAClusters
   \   0001D1   7402         MOV     A,#0x2
   \   0001D3   12....       LCALL   ?XSTACK_DISP0_8
   \   0001D6   E0           MOVX    A,@DPTR
   \   0001D7   FC           MOV     R4,A
   \   0001D8   A3           INC     DPTR
   \   0001D9   E0           MOVX    A,@DPTR
   \   0001DA   FD           MOV     R5,A
   \   0001DB   EE           MOV     A,R6
   \   0001DC   FA           MOV     R2,A
   \   0001DD   EF           MOV     A,R7
   \   0001DE   FB           MOV     R3,A
   \   0001DF   A9..         MOV     R1,?V0 + 2
   \   0001E1   12....       LCALL   ??ZDO_ConvertOTAClusters?relay
   \   0001E4   8A..         MOV     ?V0 + 0,R2
   \   0001E6   8B..         MOV     ?V0 + 1,R3
   \   0001E8   AE..         MOV     R6,?V0 + 0
   \   0001EA   AF..         MOV     R7,?V0 + 1
   \   0001EC   8003         SJMP    ??ZDO_ProcessMatchDescReq_5
    816            }
    817            else
    818            {
    819              numInClusters = 0;
   \                     ??ZDO_ProcessMatchDescReq_4:
   \   0001EE   75..00       MOV     ?V0 + 2,#0x0
    820            }
    821          
    822            if ((numOutClusters = *msg++) &&
    823                (outClusters = (uint16 *)osal_mem_alloc( numOutClusters * sizeof( uint16 ) )))
   \                     ??ZDO_ProcessMatchDescReq_5:
   \   0001F1   8E82         MOV     DPL,R6
   \   0001F3   8F83         MOV     DPH,R7
   \   0001F5   E0           MOVX    A,@DPTR
   \   0001F6   F8           MOV     R0,A
   \   0001F7   8E82         MOV     DPL,R6
   \   0001F9   8F83         MOV     DPH,R7
   \   0001FB   A3           INC     DPTR
   \   0001FC   AE82         MOV     R6,DPL
   \   0001FE   AF83         MOV     R7,DPH
   \   000200   88..         MOV     ?V0 + 3,R0
   \   000202   E8           MOV     A,R0
   \   000203   6053         JZ      ??ZDO_ProcessMatchDescReq_6
   \   000205                ; Setup parameters for call to function osal_mem_alloc
   \   000205   E5..         MOV     A,?V0 + 3
   \   000207   AA..         MOV     R2,?V0 + 3
   \   000209   7B00         MOV     R3,#0x0
   \   00020B   EA           MOV     A,R2
   \   00020C   75F002       MOV     B,#0x2
   \   00020F   A4           MUL     AB
   \   000210   CA           XCH     A,R2
   \   000211   A8F0         MOV     R0,B
   \   000213   75F000       MOV     B,#0x0
   \   000216   A4           MUL     AB
   \   000217   28           ADD     A,R0
   \   000218   F8           MOV     R0,A
   \   000219   75F002       MOV     B,#0x2
   \   00021C   EB           MOV     A,R3
   \   00021D   A4           MUL     AB
   \   00021E   28           ADD     A,R0
   \   00021F   FB           MOV     R3,A
   \   000220   12....       LCALL   ??osal_mem_alloc?relay
   \   000223   8A..         MOV     ?V0 + 0,R2
   \   000225   8B..         MOV     ?V0 + 1,R3
   \   000227   A8..         MOV     R0,?V0 + 0
   \   000229   A9..         MOV     R1,?V0 + 1
   \   00022B   85..82       MOV     DPL,?XSP + 0
   \   00022E   85..83       MOV     DPH,?XSP + 1
   \   000231   E8           MOV     A,R0
   \   000232   F0           MOVX    @DPTR,A
   \   000233   A3           INC     DPTR
   \   000234   E9           MOV     A,R1
   \   000235   F0           MOVX    @DPTR,A
   \   000236   E8           MOV     A,R0
   \   000237   49           ORL     A,R1
   \   000238   601E         JZ      ??ZDO_ProcessMatchDescReq_6
    824            {
    825              msg = ZDO_ConvertOTAClusters( numOutClusters, msg, outClusters );
   \   00023A                ; Setup parameters for call to function ZDO_ConvertOTAClusters
   \   00023A   85..82       MOV     DPL,?XSP + 0
   \   00023D   85..83       MOV     DPH,?XSP + 1
   \   000240   E0           MOVX    A,@DPTR
   \   000241   FC           MOV     R4,A
   \   000242   A3           INC     DPTR
   \   000243   E0           MOVX    A,@DPTR
   \   000244   FD           MOV     R5,A
   \   000245   EE           MOV     A,R6
   \   000246   FA           MOV     R2,A
   \   000247   EF           MOV     A,R7
   \   000248   FB           MOV     R3,A
   \   000249   A9..         MOV     R1,?V0 + 3
   \   00024B   12....       LCALL   ??ZDO_ConvertOTAClusters?relay
   \   00024E   8A..         MOV     ?V0 + 0,R2
   \   000250   8B..         MOV     ?V0 + 1,R3
   \   000252   AE..         MOV     R6,?V0 + 0
   \   000254   AF..         MOV     R7,?V0 + 1
   \   000256   8003         SJMP    ??ZDO_ProcessMatchDescReq_7
    826            }
    827            else
    828            {
    829              numOutClusters = 0;
   \                     ??ZDO_ProcessMatchDescReq_6:
   \   000258   75..00       MOV     ?V0 + 3,#0x0
    830            }
    831          
    832            // First count the number of endpoints that match.
    833            epDesc = epList;
   \                     ??ZDO_ProcessMatchDescReq_7:
   \   00025B   90....       MOV     DPTR,#epList
   \   00025E   E0           MOVX    A,@DPTR
   \   00025F   F8           MOV     R0,A
   \   000260   A3           INC     DPTR
   \   000261   E0           MOVX    A,@DPTR
   \   000262   F9           MOV     R1,A
   \   000263   88..         MOV     ?V0 + 10,R0
   \   000265   89..         MOV     ?V0 + 11,R1
    834            while ( epDesc )
   \                     ??ZDO_ProcessMatchDescReq_8:
   \   000267   E5..         MOV     A,?V0 + 10
   \   000269   45..         ORL     A,?V0 + 11
   \   00026B   7003         JNZ     $+5
   \   00026D   02....       LJMP    ??ZDO_ProcessMatchDescReq_9 & 0xFFFF
    835            {
    836              // Don't search endpoint 0 and check if response is allowed
    837              if ( epDesc->epDesc->endPoint != ZDO_EP && (epDesc->flags&eEP_AllowMatch) )
   \   000270   85..82       MOV     DPL,?V0 + 10
   \   000273   85..83       MOV     DPH,?V0 + 11
   \   000276   E0           MOVX    A,@DPTR
   \   000277   F8           MOV     R0,A
   \   000278   A3           INC     DPTR
   \   000279   E0           MOVX    A,@DPTR
   \   00027A   F583         MOV     DPH,A
   \   00027C   8882         MOV     DPL,R0
   \   00027E   E0           MOVX    A,@DPTR
   \   00027F   7003         JNZ     $+5
   \   000281   02....       LJMP    ??ZDO_ProcessMatchDescReq_10 & 0xFFFF
   \   000284   85..82       MOV     DPL,?V0 + 10
   \   000287   85..83       MOV     DPH,?V0 + 11
   \   00028A   A3           INC     DPTR
   \   00028B   A3           INC     DPTR
   \   00028C   E0           MOVX    A,@DPTR
   \   00028D   A2E0         MOV     C,0xE0 /* A   */.0
   \   00028F   4003         JC      $+5
   \   000291   02....       LJMP    ??ZDO_ProcessMatchDescReq_10 & 0xFFFF
    838              {
    839                if ( epDesc->pfnDescCB )
   \   000294   85..82       MOV     DPL,?V0 + 10
   \   000297   85..83       MOV     DPH,?V0 + 11
   \   00029A   A3           INC     DPTR
   \   00029B   A3           INC     DPTR
   \   00029C   A3           INC     DPTR
   \   00029D   E0           MOVX    A,@DPTR
   \   00029E   F8           MOV     R0,A
   \   00029F   A3           INC     DPTR
   \   0002A0   E0           MOVX    A,@DPTR
   \   0002A1   F9           MOV     R1,A
   \   0002A2   E8           MOV     A,R0
   \   0002A3   49           ORL     A,R1
   \   0002A4   6035         JZ      ??ZDO_ProcessMatchDescReq_11
    840                {
    841                  sDesc = (SimpleDescriptionFormat_t *)epDesc->pfnDescCB( AF_DESCRIPTOR_SIMPLE, epDesc->epDesc->endPoint );
   \   0002A6                ; Setup parameters for indirect call
   \   0002A6   85..82       MOV     DPL,?V0 + 10
   \   0002A9   85..83       MOV     DPH,?V0 + 11
   \   0002AC   E0           MOVX    A,@DPTR
   \   0002AD   F8           MOV     R0,A
   \   0002AE   A3           INC     DPTR
   \   0002AF   E0           MOVX    A,@DPTR
   \   0002B0   F583         MOV     DPH,A
   \   0002B2   8882         MOV     DPL,R0
   \   0002B4   E0           MOVX    A,@DPTR
   \   0002B5   FA           MOV     R2,A
   \   0002B6   7901         MOV     R1,#0x1
   \   0002B8   85..82       MOV     DPL,?V0 + 10
   \   0002BB   85..83       MOV     DPH,?V0 + 11
   \   0002BE   A3           INC     DPTR
   \   0002BF   A3           INC     DPTR
   \   0002C0   A3           INC     DPTR
   \   0002C1   E0           MOVX    A,@DPTR
   \   0002C2   F8           MOV     R0,A
   \   0002C3   A3           INC     DPTR
   \   0002C4   E0           MOVX    A,@DPTR
   \   0002C5   F583         MOV     DPH,A
   \   0002C7   8882         MOV     DPL,R0
   \   0002C9   12....       LCALL   ?CALL_IND
   \   0002CC   8A..         MOV     ?V0 + 0,R2
   \   0002CE   8B..         MOV     ?V0 + 1,R3
   \   0002D0   85....       MOV     ?V0 + 8,?V0 + 0
   \   0002D3   85....       MOV     ?V0 + 9,?V0 + 1
    842                  allocated = TRUE;
   \   0002D6   75..01       MOV     ?V0 + 15,#0x1
   \   0002D9   801D         SJMP    ??ZDO_ProcessMatchDescReq_12
    843                }
    844                else
    845                {
    846                  sDesc = epDesc->epDesc->simpleDesc;
   \                     ??ZDO_ProcessMatchDescReq_11:
   \   0002DB   85..82       MOV     DPL,?V0 + 10
   \   0002DE   85..83       MOV     DPH,?V0 + 11
   \   0002E1   E0           MOVX    A,@DPTR
   \   0002E2   F8           MOV     R0,A
   \   0002E3   A3           INC     DPTR
   \   0002E4   E0           MOVX    A,@DPTR
   \   0002E5   F583         MOV     DPH,A
   \   0002E7   8882         MOV     DPL,R0
   \   0002E9   A3           INC     DPTR
   \   0002EA   A3           INC     DPTR
   \   0002EB   A3           INC     DPTR
   \   0002EC   E0           MOVX    A,@DPTR
   \   0002ED   F8           MOV     R0,A
   \   0002EE   A3           INC     DPTR
   \   0002EF   E0           MOVX    A,@DPTR
   \   0002F0   F9           MOV     R1,A
   \   0002F1   88..         MOV     ?V0 + 8,R0
   \   0002F3   89..         MOV     ?V0 + 9,R1
    847                  allocated = FALSE;
   \   0002F5   75..00       MOV     ?V0 + 15,#0x0
    848                }
    849          
    850                if ( sDesc && sDesc->AppProfId == profileID )
   \                     ??ZDO_ProcessMatchDescReq_12:
   \   0002F8   E5..         MOV     A,?V0 + 8
   \   0002FA   45..         ORL     A,?V0 + 9
   \   0002FC   7003         JNZ     $+5
   \   0002FE   02....       LJMP    ??ZDO_ProcessMatchDescReq_13 & 0xFFFF
   \   000301   85..82       MOV     DPL,?V0 + 8
   \   000304   85..83       MOV     DPH,?V0 + 9
   \   000307   A3           INC     DPTR
   \   000308   E0           MOVX    A,@DPTR
   \   000309   F8           MOV     R0,A
   \   00030A   A3           INC     DPTR
   \   00030B   E0           MOVX    A,@DPTR
   \   00030C   F9           MOV     R1,A
   \   00030D   7408         MOV     A,#0x8
   \   00030F   12....       LCALL   ?XSTACK_DISP0_8
   \   000312   E0           MOVX    A,@DPTR
   \   000313   68           XRL     A,R0
   \   000314   7003         JNZ     ??ZDO_ProcessMatchDescReq_14
   \   000316   A3           INC     DPTR
   \   000317   E0           MOVX    A,@DPTR
   \   000318   69           XRL     A,R1
   \                     ??ZDO_ProcessMatchDescReq_14:
   \   000319   6003         JZ      $+5
   \   00031B   02....       LJMP    ??ZDO_ProcessMatchDescReq_13 & 0xFFFF
    851                {
    852                  uint8 *uint8Buf = (uint8 *)ZDOBuildBuf;
   \   00031E   7406         MOV     A,#0x6
   \   000320   12....       LCALL   ?XSTACK_DISP0_8
   \   000323   74..         MOV     A,#ZDOBuildBuf & 0xff
   \   000325   F0           MOVX    @DPTR,A
   \   000326   A3           INC     DPTR
   \   000327   74..         MOV     A,#(ZDOBuildBuf >> 8) & 0xff
   \   000329   F0           MOVX    @DPTR,A
    853          
    854                  // If there are no search input/ouput clusters - respond
    855                  if ( ((numInClusters == 0) && (numOutClusters == 0))
    856                      // Are there matching input clusters?
    857                       || (ZDO_AnyClusterMatches( numInClusters, inClusters,
    858                            sDesc->AppNumInClusters, sDesc->pAppInClusterList ))
    859                      // Are there matching output clusters?
    860                       || (ZDO_AnyClusterMatches( numOutClusters, outClusters,
    861                            sDesc->AppNumOutClusters, sDesc->pAppOutClusterList ))     )
   \   00032A   E5..         MOV     A,?V0 + 2
   \   00032C   7004         JNZ     ??ZDO_ProcessMatchDescReq_15
   \   00032E   E5..         MOV     A,?V0 + 3
   \   000330   6073         JZ      ??ZDO_ProcessMatchDescReq_16
   \                     ??ZDO_ProcessMatchDescReq_15:
   \   000332                ; Setup parameters for call to function ZDO_AnyClusterMatches
   \   000332   85..82       MOV     DPL,?V0 + 8
   \   000335   85..83       MOV     DPH,?V0 + 9
   \   000338   A3           INC     DPTR
   \   000339   A3           INC     DPTR
   \   00033A   A3           INC     DPTR
   \   00033B   A3           INC     DPTR
   \   00033C   A3           INC     DPTR
   \   00033D   A3           INC     DPTR
   \   00033E   A3           INC     DPTR
   \   00033F   12....       LCALL   ?PUSH_XSTACK8_X_TWO
   \   000342   85..82       MOV     DPL,?V0 + 8
   \   000345   85..83       MOV     DPH,?V0 + 9
   \   000348   A3           INC     DPTR
   \   000349   A3           INC     DPTR
   \   00034A   A3           INC     DPTR
   \   00034B   A3           INC     DPTR
   \   00034C   A3           INC     DPTR
   \   00034D   A3           INC     DPTR
   \   00034E   E0           MOVX    A,@DPTR
   \   00034F   FC           MOV     R4,A
   \   000350   7404         MOV     A,#0x4
   \   000352   12....       LCALL   ?XSTACK_DISP0_8
   \   000355   E0           MOVX    A,@DPTR
   \   000356   FA           MOV     R2,A
   \   000357   A3           INC     DPTR
   \   000358   E0           MOVX    A,@DPTR
   \   000359   FB           MOV     R3,A
   \   00035A   A9..         MOV     R1,?V0 + 2
   \   00035C   12....       LCALL   ??ZDO_AnyClusterMatches?relay
   \   00035F   7402         MOV     A,#0x2
   \   000361   12....       LCALL   ?DEALLOC_XSTACK8
   \   000364   E9           MOV     A,R1
   \   000365   703E         JNZ     ??ZDO_ProcessMatchDescReq_16
   \   000367                ; Setup parameters for call to function ZDO_AnyClusterMatches
   \   000367   85..82       MOV     DPL,?V0 + 8
   \   00036A   85..83       MOV     DPH,?V0 + 9
   \   00036D   A3           INC     DPTR
   \   00036E   A3           INC     DPTR
   \   00036F   A3           INC     DPTR
   \   000370   A3           INC     DPTR
   \   000371   A3           INC     DPTR
   \   000372   A3           INC     DPTR
   \   000373   A3           INC     DPTR
   \   000374   A3           INC     DPTR
   \   000375   A3           INC     DPTR
   \   000376   A3           INC     DPTR
   \   000377   12....       LCALL   ?PUSH_XSTACK8_X_TWO
   \   00037A   85..82       MOV     DPL,?V0 + 8
   \   00037D   85..83       MOV     DPH,?V0 + 9
   \   000380   A3           INC     DPTR
   \   000381   A3           INC     DPTR
   \   000382   A3           INC     DPTR
   \   000383   A3           INC     DPTR
   \   000384   A3           INC     DPTR
   \   000385   A3           INC     DPTR
   \   000386   A3           INC     DPTR
   \   000387   A3           INC     DPTR
   \   000388   A3           INC     DPTR
   \   000389   E0           MOVX    A,@DPTR
   \   00038A   FC           MOV     R4,A
   \   00038B   7402         MOV     A,#0x2
   \   00038D   12....       LCALL   ?XSTACK_DISP0_8
   \   000390   E0           MOVX    A,@DPTR
   \   000391   FA           MOV     R2,A
   \   000392   A3           INC     DPTR
   \   000393   E0           MOVX    A,@DPTR
   \   000394   FB           MOV     R3,A
   \   000395   A9..         MOV     R1,?V0 + 3
   \   000397   12....       LCALL   ??ZDO_AnyClusterMatches?relay
   \   00039A   7402         MOV     A,#0x2
   \   00039C   12....       LCALL   ?DEALLOC_XSTACK8
   \   00039F   E9           MOV     A,R1
   \   0003A0   7003         JNZ     $+5
   \   0003A2   02....       LJMP    ??ZDO_ProcessMatchDescReq_13 & 0xFFFF
    862                  {
    863                    // Notify the endpoint of the match.
    864                    uint8 bufLen = sizeof( ZDO_MatchDescRspSent_t ) + (numOutClusters + numInClusters) * sizeof(uint16);
   \                     ??ZDO_ProcessMatchDescReq_16:
   \   0003A5   75F002       MOV     B,#0x2
   \   0003A8   85....       MOV     ?V0 + 4,?V0 + 3
   \   0003AB   75..00       MOV     ?V0 + 5,#0x0
   \   0003AE   85....       MOV     ?V0 + 0,?V0 + 2
   \   0003B1   75..00       MOV     ?V0 + 1,#0x0
   \   0003B4   E5..         MOV     A,?V0 + 4
   \   0003B6   25..         ADD     A,?V0 + 0
   \   0003B8   F8           MOV     R0,A
   \   0003B9   E5..         MOV     A,?V0 + 5
   \   0003BB   35..         ADDC    A,?V0 + 1
   \   0003BD   F9           MOV     R1,A
   \   0003BE   E8           MOV     A,R0
   \   0003BF   A4           MUL     AB
   \   0003C0   240A         ADD     A,#0xa
   \   0003C2   F5..         MOV     ?V0 + 7,A
    865                    ZDO_MatchDescRspSent_t *pRspSent = (ZDO_MatchDescRspSent_t *) osal_msg_allocate( bufLen );
   \   0003C4                ; Setup parameters for call to function osal_msg_allocate
   \   0003C4   85....       MOV     ?V0 + 0,?V0 + 7
   \   0003C7   75..00       MOV     ?V0 + 1,#0x0
   \   0003CA   AA..         MOV     R2,?V0 + 0
   \   0003CC   AB..         MOV     R3,?V0 + 1
   \   0003CE   12....       LCALL   ??osal_msg_allocate?relay
   \   0003D1   8A..         MOV     ?V0 + 4,R2
   \   0003D3   8B..         MOV     ?V0 + 5,R3
   \   0003D5   85....       MOV     ?V0 + 0,?V0 + 4
   \   0003D8   85....       MOV     ?V0 + 1,?V0 + 5
    866          
    867                    if (pRspSent)
   \   0003DB   E5..         MOV     A,?V0 + 0
   \   0003DD   45..         ORL     A,?V0 + 1
   \   0003DF   7003         JNZ     $+5
   \   0003E1   02....       LJMP    ??ZDO_ProcessMatchDescReq_17 & 0xFFFF
    868                    {
    869                      pRspSent->hdr.event = ZDO_MATCH_DESC_RSP_SENT;
   \   0003E4   85..82       MOV     DPL,?V0 + 0
   \   0003E7   85..83       MOV     DPH,?V0 + 1
   \   0003EA   74D2         MOV     A,#-0x2e
   \   0003EC   F0           MOVX    @DPTR,A
    870                      pRspSent->nwkAddr = inMsg->srcAddr.addr.shortAddr;
   \   0003ED   85..82       MOV     DPL,?V0 + 12
   \   0003F0   85..83       MOV     DPH,?V0 + 13
   \   0003F3   A3           INC     DPTR
   \   0003F4   A3           INC     DPTR
   \   0003F5   E0           MOVX    A,@DPTR
   \   0003F6   F8           MOV     R0,A
   \   0003F7   A3           INC     DPTR
   \   0003F8   E0           MOVX    A,@DPTR
   \   0003F9   F9           MOV     R1,A
   \   0003FA   85..82       MOV     DPL,?V0 + 0
   \   0003FD   85..83       MOV     DPH,?V0 + 1
   \   000400   A3           INC     DPTR
   \   000401   A3           INC     DPTR
   \   000402   E8           MOV     A,R0
   \   000403   F0           MOVX    @DPTR,A
   \   000404   A3           INC     DPTR
   \   000405   E9           MOV     A,R1
   \   000406   F0           MOVX    @DPTR,A
    871                      pRspSent->numInClusters = numInClusters;
   \   000407   E5..         MOV     A,?V0 + 2
   \   000409   85..82       MOV     DPL,?V0 + 0
   \   00040C   85..83       MOV     DPH,?V0 + 1
   \   00040F   A3           INC     DPTR
   \   000410   A3           INC     DPTR
   \   000411   A3           INC     DPTR
   \   000412   A3           INC     DPTR
   \   000413   E5..         MOV     A,?V0 + 2
   \   000415   F0           MOVX    @DPTR,A
    872                      pRspSent->numOutClusters = numOutClusters;
   \   000416   E5..         MOV     A,?V0 + 3
   \   000418   85..82       MOV     DPL,?V0 + 0
   \   00041B   85..83       MOV     DPH,?V0 + 1
   \   00041E   A3           INC     DPTR
   \   00041F   A3           INC     DPTR
   \   000420   A3           INC     DPTR
   \   000421   A3           INC     DPTR
   \   000422   A3           INC     DPTR
   \   000423   A3           INC     DPTR
   \   000424   A3           INC     DPTR
   \   000425   E5..         MOV     A,?V0 + 3
   \   000427   F0           MOVX    @DPTR,A
    873          
    874                      if (numInClusters)
   \   000428   E5..         MOV     A,?V0 + 2
   \   00042A   6063         JZ      ??ZDO_ProcessMatchDescReq_18
    875                      {
    876                        pRspSent->pInClusters = (uint16*) (pRspSent + 1);
   \   00042C   E5..         MOV     A,?V0 + 0
   \   00042E   240A         ADD     A,#0xa
   \   000430   F8           MOV     R0,A
   \   000431   E5..         MOV     A,?V0 + 1
   \   000433   3400         ADDC    A,#0x0
   \   000435   F9           MOV     R1,A
   \   000436   85..82       MOV     DPL,?V0 + 0
   \   000439   85..83       MOV     DPH,?V0 + 1
   \   00043C   A3           INC     DPTR
   \   00043D   A3           INC     DPTR
   \   00043E   A3           INC     DPTR
   \   00043F   A3           INC     DPTR
   \   000440   A3           INC     DPTR
   \   000441   E8           MOV     A,R0
   \   000442   F0           MOVX    @DPTR,A
   \   000443   A3           INC     DPTR
   \   000444   E9           MOV     A,R1
   \   000445   F0           MOVX    @DPTR,A
    877                        osal_memcpy(pRspSent->pInClusters, inClusters, numInClusters * sizeof(uint16));
   \   000446                ; Setup parameters for call to function osal_memcpy
   \   000446   7402         MOV     A,#0x2
   \   000448   12....       LCALL   ?XSTACK_DISP0_8
   \   00044B   E0           MOVX    A,@DPTR
   \   00044C   F5..         MOV     ?V0 + 4,A
   \   00044E   A3           INC     DPTR
   \   00044F   E0           MOVX    A,@DPTR
   \   000450   F5..         MOV     ?V0 + 5,A
   \   000452   75..00       MOV     ?V0 + 6,#0x0
   \   000455   78..         MOV     R0,#?V0 + 4
   \   000457   12....       LCALL   ?PUSH_XSTACK_I_THREE
   \   00045A   E5..         MOV     A,?V0 + 2
   \   00045C   AC..         MOV     R4,?V0 + 2
   \   00045E   7D00         MOV     R5,#0x0
   \   000460   EC           MOV     A,R4
   \   000461   75F002       MOV     B,#0x2
   \   000464   A4           MUL     AB
   \   000465   CC           XCH     A,R4
   \   000466   A8F0         MOV     R0,B
   \   000468   75F000       MOV     B,#0x0
   \   00046B   A4           MUL     AB
   \   00046C   28           ADD     A,R0
   \   00046D   F8           MOV     R0,A
   \   00046E   75F002       MOV     B,#0x2
   \   000471   ED           MOV     A,R5
   \   000472   A4           MUL     AB
   \   000473   28           ADD     A,R0
   \   000474   FD           MOV     R5,A
   \   000475   85..82       MOV     DPL,?V0 + 0
   \   000478   85..83       MOV     DPH,?V0 + 1
   \   00047B   A3           INC     DPTR
   \   00047C   A3           INC     DPTR
   \   00047D   A3           INC     DPTR
   \   00047E   A3           INC     DPTR
   \   00047F   A3           INC     DPTR
   \   000480   E0           MOVX    A,@DPTR
   \   000481   FA           MOV     R2,A
   \   000482   A3           INC     DPTR
   \   000483   E0           MOVX    A,@DPTR
   \   000484   FB           MOV     R3,A
   \   000485   12....       LCALL   ??osal_memcpy?relay
   \   000488   7403         MOV     A,#0x3
   \   00048A   12....       LCALL   ?DEALLOC_XSTACK8
   \   00048D   8012         SJMP    ??ZDO_ProcessMatchDescReq_19
    878                      }
    879                      else
    880                      {
    881                        pRspSent->pInClusters = NULL;
   \                     ??ZDO_ProcessMatchDescReq_18:
   \   00048F   85..82       MOV     DPL,?V0 + 0
   \   000492   85..83       MOV     DPH,?V0 + 1
   \   000495   A3           INC     DPTR
   \   000496   A3           INC     DPTR
   \   000497   A3           INC     DPTR
   \   000498   A3           INC     DPTR
   \   000499   A3           INC     DPTR
   \   00049A   7400         MOV     A,#0x0
   \   00049C   F0           MOVX    @DPTR,A
   \   00049D   A3           INC     DPTR
   \   00049E   7400         MOV     A,#0x0
   \   0004A0   F0           MOVX    @DPTR,A
    882                      }
    883          
    884                      if (numOutClusters)
   \                     ??ZDO_ProcessMatchDescReq_19:
   \   0004A1   E5..         MOV     A,?V0 + 3
   \   0004A3   7003         JNZ     $+5
   \   0004A5   02....       LJMP    ??ZDO_ProcessMatchDescReq_20 & 0xFFFF
    885                      {
    886                        pRspSent->pOutClusters = (uint16*)(pRspSent + 1) + numInClusters;
   \   0004A8   E5..         MOV     A,?V0 + 2
   \   0004AA   A8..         MOV     R0,?V0 + 2
   \   0004AC   7900         MOV     R1,#0x0
   \   0004AE   E8           MOV     A,R0
   \   0004AF   75F002       MOV     B,#0x2
   \   0004B2   A4           MUL     AB
   \   0004B3   C8           XCH     A,R0
   \   0004B4   AAF0         MOV     R2,B
   \   0004B6   75F000       MOV     B,#0x0
   \   0004B9   A4           MUL     AB
   \   0004BA   2A           ADD     A,R2
   \   0004BB   FA           MOV     R2,A
   \   0004BC   75F002       MOV     B,#0x2
   \   0004BF   E9           MOV     A,R1
   \   0004C0   A4           MUL     AB
   \   0004C1   2A           ADD     A,R2
   \   0004C2   F9           MOV     R1,A
   \   0004C3   E5..         MOV     A,?V0 + 0
   \   0004C5   28           ADD     A,R0
   \   0004C6   F8           MOV     R0,A
   \   0004C7   E5..         MOV     A,?V0 + 1
   \   0004C9   39           ADDC    A,R1
   \   0004CA   F9           MOV     R1,A
   \   0004CB   E8           MOV     A,R0
   \   0004CC   240A         ADD     A,#0xa
   \   0004CE   F8           MOV     R0,A
   \   0004CF   E9           MOV     A,R1
   \   0004D0   3400         ADDC    A,#0x0
   \   0004D2   F9           MOV     R1,A
   \   0004D3   85..82       MOV     DPL,?V0 + 0
   \   0004D6   85..83       MOV     DPH,?V0 + 1
   \   0004D9   A3           INC     DPTR
   \   0004DA   A3           INC     DPTR
   \   0004DB   A3           INC     DPTR
   \   0004DC   A3           INC     DPTR
   \   0004DD   A3           INC     DPTR
   \   0004DE   A3           INC     DPTR
   \   0004DF   A3           INC     DPTR
   \   0004E0   A3           INC     DPTR
   \   0004E1   E8           MOV     A,R0
   \   0004E2   F0           MOVX    @DPTR,A
   \   0004E3   A3           INC     DPTR
   \   0004E4   E9           MOV     A,R1
   \   0004E5   F0           MOVX    @DPTR,A
    887                        osal_memcpy(pRspSent->pOutClusters, outClusters, numOutClusters * sizeof(uint16));
   \   0004E6                ; Setup parameters for call to function osal_memcpy
   \   0004E6   85..82       MOV     DPL,?XSP + 0
   \   0004E9   85..83       MOV     DPH,?XSP + 1
   \   0004EC   E0           MOVX    A,@DPTR
   \   0004ED   F5..         MOV     ?V0 + 4,A
   \   0004EF   A3           INC     DPTR
   \   0004F0   E0           MOVX    A,@DPTR
   \   0004F1   F5..         MOV     ?V0 + 5,A
   \   0004F3   75..00       MOV     ?V0 + 6,#0x0
   \   0004F6   78..         MOV     R0,#?V0 + 4
   \   0004F8   12....       LCALL   ?PUSH_XSTACK_I_THREE
   \   0004FB   E5..         MOV     A,?V0 + 3
   \   0004FD   AC..         MOV     R4,?V0 + 3
   \   0004FF   7D00         MOV     R5,#0x0
   \   000501   EC           MOV     A,R4
   \   000502   75F002       MOV     B,#0x2
   \   000505   A4           MUL     AB
   \   000506   CC           XCH     A,R4
   \   000507   A8F0         MOV     R0,B
   \   000509   75F000       MOV     B,#0x0
   \   00050C   A4           MUL     AB
   \   00050D   28           ADD     A,R0
   \   00050E   F8           MOV     R0,A
   \   00050F   75F002       MOV     B,#0x2
   \   000512   ED           MOV     A,R5
   \   000513   A4           MUL     AB
   \   000514   28           ADD     A,R0
   \   000515   FD           MOV     R5,A
   \   000516   85..82       MOV     DPL,?V0 + 0
   \   000519   85..83       MOV     DPH,?V0 + 1
   \   00051C   A3           INC     DPTR
   \   00051D   A3           INC     DPTR
   \   00051E   A3           INC     DPTR
   \   00051F   A3           INC     DPTR
   \   000520   A3           INC     DPTR
   \   000521   A3           INC     DPTR
   \   000522   A3           INC     DPTR
   \   000523   A3           INC     DPTR
   \   000524   E0           MOVX    A,@DPTR
   \   000525   FA           MOV     R2,A
   \   000526   A3           INC     DPTR
   \   000527   E0           MOVX    A,@DPTR
   \   000528   FB           MOV     R3,A
   \   000529   12....       LCALL   ??osal_memcpy?relay
   \   00052C   7403         MOV     A,#0x3
   \   00052E   12....       LCALL   ?DEALLOC_XSTACK8
   \   000531   8015         SJMP    ??ZDO_ProcessMatchDescReq_21
    888                      }
    889                      else
    890                      {
    891                        pRspSent->pOutClusters = NULL;
   \                     ??ZDO_ProcessMatchDescReq_20:
   \   000533   85..82       MOV     DPL,?V0 + 0
   \   000536   85..83       MOV     DPH,?V0 + 1
   \   000539   A3           INC     DPTR
   \   00053A   A3           INC     DPTR
   \   00053B   A3           INC     DPTR
   \   00053C   A3           INC     DPTR
   \   00053D   A3           INC     DPTR
   \   00053E   A3           INC     DPTR
   \   00053F   A3           INC     DPTR
   \   000540   A3           INC     DPTR
   \   000541   7400         MOV     A,#0x0
   \   000543   F0           MOVX    @DPTR,A
   \   000544   A3           INC     DPTR
   \   000545   7400         MOV     A,#0x0
   \   000547   F0           MOVX    @DPTR,A
    892                      }
    893          
    894                      osal_msg_send( *epDesc->epDesc->task_id, (uint8 *)pRspSent );
   \                     ??ZDO_ProcessMatchDescReq_21:
   \   000548                ; Setup parameters for call to function osal_msg_send
   \   000548   AA..         MOV     R2,?V0 + 0
   \   00054A   AB..         MOV     R3,?V0 + 1
   \   00054C   85..82       MOV     DPL,?V0 + 10
   \   00054F   85..83       MOV     DPH,?V0 + 11
   \   000552   E0           MOVX    A,@DPTR
   \   000553   F8           MOV     R0,A
   \   000554   A3           INC     DPTR
   \   000555   E0           MOVX    A,@DPTR
   \   000556   F583         MOV     DPH,A
   \   000558   8882         MOV     DPL,R0
   \   00055A   A3           INC     DPTR
   \   00055B   E0           MOVX    A,@DPTR
   \   00055C   F8           MOV     R0,A
   \   00055D   A3           INC     DPTR
   \   00055E   E0           MOVX    A,@DPTR
   \   00055F   F583         MOV     DPH,A
   \   000561   8882         MOV     DPL,R0
   \   000563   E0           MOVX    A,@DPTR
   \   000564   F9           MOV     R1,A
   \   000565   12....       LCALL   ??osal_msg_send?relay
   \   000568   E9           MOV     A,R1
    895                    }
    896          
    897                    uint8Buf[epCnt++] = sDesc->EndPoint;
   \                     ??ZDO_ProcessMatchDescReq_17:
   \   000569   85..82       MOV     DPL,?V0 + 8
   \   00056C   85..83       MOV     DPH,?V0 + 9
   \   00056F   E0           MOVX    A,@DPTR
   \   000570   C0E0         PUSH    A
   \   000572   E5..         MOV     A,?V0 + 14
   \   000574   A8..         MOV     R0,?V0 + 14
   \   000576   7900         MOV     R1,#0x0
   \   000578   7406         MOV     A,#0x6
   \   00057A   12....       LCALL   ?XSTACK_DISP0_8
   \   00057D   E0           MOVX    A,@DPTR
   \   00057E   28           ADD     A,R0
   \   00057F   FA           MOV     R2,A
   \   000580   A3           INC     DPTR
   \   000581   E0           MOVX    A,@DPTR
   \   000582   39           ADDC    A,R1
   \   000583   8A82         MOV     DPL,R2
   \   000585   F583         MOV     DPH,A
   \   000587   D0E0         POP     A
   \   000589   F0           MOVX    @DPTR,A
   \   00058A   05..         INC     ?V0 + 14
    898                  }
    899                }
    900          
    901                if ( allocated )
   \                     ??ZDO_ProcessMatchDescReq_13:
   \   00058C   E5..         MOV     A,?V0 + 15
   \   00058E   6007         JZ      ??ZDO_ProcessMatchDescReq_10
    902                  osal_mem_free( sDesc );
   \   000590                ; Setup parameters for call to function osal_mem_free
   \   000590   AA..         MOV     R2,?V0 + 8
   \   000592   AB..         MOV     R3,?V0 + 9
   \   000594   12....       LCALL   ??osal_mem_free?relay
    903              }
    904              epDesc = epDesc->nextDesc;
   \                     ??ZDO_ProcessMatchDescReq_10:
   \   000597   85..82       MOV     DPL,?V0 + 10
   \   00059A   85..83       MOV     DPH,?V0 + 11
   \   00059D   A3           INC     DPTR
   \   00059E   A3           INC     DPTR
   \   00059F   A3           INC     DPTR
   \   0005A0   A3           INC     DPTR
   \   0005A1   A3           INC     DPTR
   \   0005A2   E0           MOVX    A,@DPTR
   \   0005A3   F5..         MOV     ?V0 + 10,A
   \   0005A5   A3           INC     DPTR
   \   0005A6   E0           MOVX    A,@DPTR
   \   0005A7   F5..         MOV     ?V0 + 11,A
   \   0005A9   02....       LJMP    ??ZDO_ProcessMatchDescReq_8 & 0xFFFF
    905            }
    906          
    907            // Send the message only if at least one match found.
    908            if ( epCnt )
   \                     ??ZDO_ProcessMatchDescReq_9:
   \   0005AC   E5..         MOV     A,?V0 + 14
   \   0005AE   606A         JZ      ??ZDO_ProcessMatchDescReq_22
    909            {
    910              if ( ZSuccess == ZDP_MatchDescRsp( inMsg->TransSeq, &(inMsg->srcAddr), ZDP_SUCCESS,
    911                        ZDAppNwkAddr.addr.shortAddr, epCnt, (uint8 *)ZDOBuildBuf, inMsg->SecurityUse ) )
   \   0005B0                ; Setup parameters for call to function ZDP_EPRsp
   \   0005B0   E5..         MOV     A,?V0 + 12
   \   0005B2   240E         ADD     A,#0xe
   \   0005B4   F582         MOV     DPL,A
   \   0005B6   E5..         MOV     A,?V0 + 13
   \   0005B8   3400         ADDC    A,#0x0
   \   0005BA   F583         MOV     DPH,A
   \   0005BC   E0           MOVX    A,@DPTR
   \   0005BD   F5..         MOV     ?V0 + 0,A
   \   0005BF   78..         MOV     R0,#?V0 + 0
   \   0005C1   12....       LCALL   ?PUSH_XSTACK_I_ONE
   \   0005C4   75....       MOV     ?V0 + 0,#ZDOBuildBuf & 0xff
   \   0005C7   75....       MOV     ?V0 + 1,#(ZDOBuildBuf >> 8) & 0xff
   \   0005CA   78..         MOV     R0,#?V0 + 0
   \   0005CC   12....       LCALL   ?PUSH_XSTACK_I_TWO
   \   0005CF   E5..         MOV     A,?V0 + 14
   \   0005D1   F5..         MOV     ?V0 + 0,A
   \   0005D3   78..         MOV     R0,#?V0 + 0
   \   0005D5   12....       LCALL   ?PUSH_XSTACK_I_ONE
   \   0005D8   90....       MOV     DPTR,#ZDAppNwkAddr
   \   0005DB   12....       LCALL   ?PUSH_XSTACK8_X_TWO
   \   0005DE   75..00       MOV     ?V0 + 0,#0x0
   \   0005E1   78..         MOV     R0,#?V0 + 0
   \   0005E3   12....       LCALL   ?PUSH_XSTACK_I_ONE
   \   0005E6   E5..         MOV     A,?V0 + 12
   \   0005E8   2402         ADD     A,#0x2
   \   0005EA   FC           MOV     R4,A
   \   0005EB   E5..         MOV     A,?V0 + 13
   \   0005ED   3400         ADDC    A,#0x0
   \   0005EF   FD           MOV     R5,A
   \   0005F0   E5..         MOV     A,?V0 + 12
   \   0005F2   240F         ADD     A,#0xf
   \   0005F4   F582         MOV     DPL,A
   \   0005F6   E5..         MOV     A,?V0 + 13
   \   0005F8   3400         ADDC    A,#0x0
   \   0005FA   F583         MOV     DPH,A
   \   0005FC   E0           MOVX    A,@DPTR
   \   0005FD   F9           MOV     R1,A
   \   0005FE   7A06         MOV     R2,#0x6
   \   000600   7B80         MOV     R3,#-0x80
   \   000602   12....       LCALL   ??ZDP_EPRsp?relay
   \   000605   7407         MOV     A,#0x7
   \   000607   12....       LCALL   ?DEALLOC_XSTACK8
   \   00060A   E9           MOV     A,R1
   \   00060B   7018         JNZ     ??ZDO_ProcessMatchDescReq_23
    912              {
    913          #if defined( LCD_SUPPORTED )
    914                HalLcdWriteScreen( "Match Desc Req", "Rsp Sent" );
   \   00060D                ; Setup parameters for call to function HalLcdWriteScreen
   \   00060D   7C..         MOV     R4,#`?<Constant "Rsp Sent">` & 0xff
   \   00060F   7D..         MOV     R5,#(`?<Constant "Rsp Sent">` >> 8) & 0xff
   \   000611   7A..         MOV     R2,#`?<Constant "Match Desc Req">` & 0xff
   \   000613   7B..         MOV     R3,#(`?<Constant "Match Desc Req">` >> 8) & 0xff
   \   000615   12....       LCALL   ??HalLcdWriteScreen?relay
   \   000618   800B         SJMP    ??ZDO_ProcessMatchDescReq_23
    915          #endif
    916              }
    917            }
    918            else
    919            {
    920          #if defined( LCD_SUPPORTED )
    921              HalLcdWriteScreen( "Match Desc Req", "Non Matched" );
   \                     ??ZDO_ProcessMatchDescReq_22:
   \   00061A                ; Setup parameters for call to function HalLcdWriteScreen
   \   00061A   7C..         MOV     R4,#`?<Constant "Non Matched">` & 0xff
   \   00061C   7D..         MOV     R5,#(`?<Constant "Non Matched">` >> 8) & 0xff
   \   00061E   7A..         MOV     R2,#`?<Constant "Match Desc Req">` & 0xff
   \   000620   7B..         MOV     R3,#(`?<Constant "Match Desc Req">` >> 8) & 0xff
   \   000622   12....       LCALL   ??HalLcdWriteScreen?relay
    922          #endif
    923            }
    924          
    925            if ( inClusters != NULL )
   \                     ??ZDO_ProcessMatchDescReq_23:
   \   000625   7402         MOV     A,#0x2
   \   000627   12....       LCALL   ?XSTACK_DISP0_8
   \   00062A   E0           MOVX    A,@DPTR
   \   00062B   F8           MOV     R0,A
   \   00062C   A3           INC     DPTR
   \   00062D   E0           MOVX    A,@DPTR
   \   00062E   F9           MOV     R1,A
   \   00062F   E8           MOV     A,R0
   \   000630   49           ORL     A,R1
   \   000631   600D         JZ      ??ZDO_ProcessMatchDescReq_24
    926              osal_mem_free( inClusters );
   \   000633                ; Setup parameters for call to function osal_mem_free
   \   000633   7402         MOV     A,#0x2
   \   000635   12....       LCALL   ?XSTACK_DISP0_8
   \   000638   E0           MOVX    A,@DPTR
   \   000639   FA           MOV     R2,A
   \   00063A   A3           INC     DPTR
   \   00063B   E0           MOVX    A,@DPTR
   \   00063C   FB           MOV     R3,A
   \   00063D   12....       LCALL   ??osal_mem_free?relay
    927            if ( outClusters != NULL )
   \                     ??ZDO_ProcessMatchDescReq_24:
   \   000640   85..82       MOV     DPL,?XSP + 0
   \   000643   85..83       MOV     DPH,?XSP + 1
   \   000646   E0           MOVX    A,@DPTR
   \   000647   F8           MOV     R0,A
   \   000648   A3           INC     DPTR
   \   000649   E0           MOVX    A,@DPTR
   \   00064A   F9           MOV     R1,A
   \   00064B   E8           MOV     A,R0
   \   00064C   49           ORL     A,R1
   \   00064D   600E         JZ      ??ZDO_ProcessMatchDescReq_1
    928              osal_mem_free( outClusters );
   \   00064F                ; Setup parameters for call to function osal_mem_free
   \   00064F   85..82       MOV     DPL,?XSP + 0
   \   000652   85..83       MOV     DPH,?XSP + 1
   \   000655   E0           MOVX    A,@DPTR
   \   000656   FA           MOV     R2,A
   \   000657   A3           INC     DPTR
   \   000658   E0           MOVX    A,@DPTR
   \   000659   FB           MOV     R3,A
   \   00065A   12....       LCALL   ??osal_mem_free?relay
    929          }
   \                     ??ZDO_ProcessMatchDescReq_1:
   \   00065D   740A         MOV     A,#0xa
   \   00065F   12....       LCALL   ?DEALLOC_XSTACK8
   \   000662   7F10         MOV     R7,#0x10
   \   000664   02....       LJMP    ?BANKED_LEAVE_XDATA
    930          
    931          
    932          /*********************************************************************
    933           * @fn      ZDO_ProcessBindUnbindReq()
    934           *
    935           * @brief   Called to process a Bind or Unbind Request message.
    936           *
    937           * @param   inMsg  - incoming message (request)
    938           * @param   pReq - place to put parsed information
    939           *
    940           * @return  none
    941           */

   \                                 In  segment BANKED_CODE, align 1, keep-with-next
    942          void ZDO_ProcessBindUnbindReq( zdoIncomingMsg_t *inMsg, ZDO_BindUnbindReq_t *pReq )
   \                     ZDO_ProcessBindUnbindReq:
    943          {
   \   000000   74F4         MOV     A,#-0xc
   \   000002   12....       LCALL   ?BANKED_ENTER_XDATA
   \   000005                ; Saved register size: 12
   \   000005                ; Auto size: 12
   \   000005   74F4         MOV     A,#-0xc
   \   000007   12....       LCALL   ?ALLOC_XSTACK8
   \   00000A   8A..         MOV     ?V0 + 0,R2
   \   00000C   8B..         MOV     ?V0 + 1,R3
   \   00000E   EC           MOV     A,R4
   \   00000F   FE           MOV     R6,A
   \   000010   ED           MOV     A,R5
   \   000011   FF           MOV     R7,A
    944            zAddrType_t SourceAddr;       // Binding Source addres
    945            byte bindStat;
    946          
    947            SourceAddr.addrMode = Addr64Bit;
   \   000012   740B         MOV     A,#0xb
   \   000014   12....       LCALL   ?XSTACK_DISP0_8
   \   000017   7403         MOV     A,#0x3
   \   000019   F0           MOVX    @DPTR,A
    948            osal_cpyExtAddr( SourceAddr.addr.extAddr, pReq->srcAddress );
   \   00001A                ; Setup parameters for call to function sAddrExtCpy
   \   00001A   EE           MOV     A,R6
   \   00001B   FC           MOV     R4,A
   \   00001C   EF           MOV     A,R7
   \   00001D   FD           MOV     R5,A
   \   00001E   7403         MOV     A,#0x3
   \   000020   12....       LCALL   ?XSTACK_DISP0_8
   \   000023   AA82         MOV     R2,DPL
   \   000025   AB83         MOV     R3,DPH
   \   000027   12....       LCALL   ??sAddrExtCpy?relay
    949          
    950          
    951            // If the local device is not the primary binding cache
    952            // check the src address of the bind request.
    953            // If it is not the local device's extended address
    954            // discard the request.
    955            if ( !osal_ExtAddrEqual( SourceAddr.addr.extAddr, NLME_GetExtAddr()) ||
    956                  (pReq->dstAddress.addrMode != Addr64Bit &&
    957                   pReq->dstAddress.addrMode != AddrGroup) )
   \   00002A                ; Setup parameters for call to function sAddrExtCmp
   \   00002A                ; Setup parameters for call to function NLME_GetExtAddr
   \   00002A   12....       LCALL   ??NLME_GetExtAddr?relay
   \   00002D   EA           MOV     A,R2
   \   00002E   FC           MOV     R4,A
   \   00002F   EB           MOV     A,R3
   \   000030   FD           MOV     R5,A
   \   000031   7403         MOV     A,#0x3
   \   000033   12....       LCALL   ?XSTACK_DISP0_8
   \   000036   AA82         MOV     R2,DPL
   \   000038   AB83         MOV     R3,DPH
   \   00003A   12....       LCALL   ??sAddrExtCmp?relay
   \   00003D   E9           MOV     A,R1
   \   00003E   601E         JZ      ??ZDO_ProcessBindUnbindReq_0
   \   000040   EE           MOV     A,R6
   \   000041   2413         ADD     A,#0x13
   \   000043   F582         MOV     DPL,A
   \   000045   EF           MOV     A,R7
   \   000046   3400         ADDC    A,#0x0
   \   000048   F583         MOV     DPH,A
   \   00004A   E0           MOVX    A,@DPTR
   \   00004B   6403         XRL     A,#0x3
   \   00004D   601B         JZ      ??ZDO_ProcessBindUnbindReq_1
   \   00004F   EE           MOV     A,R6
   \   000050   2413         ADD     A,#0x13
   \   000052   F582         MOV     DPL,A
   \   000054   EF           MOV     A,R7
   \   000055   3400         ADDC    A,#0x0
   \   000057   F583         MOV     DPH,A
   \   000059   E0           MOVX    A,@DPTR
   \   00005A   6401         XRL     A,#0x1
   \   00005C   600C         JZ      ??ZDO_ProcessBindUnbindReq_1
    958            {
    959              bindStat = ZDP_NOT_SUPPORTED;
   \                     ??ZDO_ProcessBindUnbindReq_0:
   \   00005E   85..82       MOV     DPL,?XSP + 0
   \   000061   85..83       MOV     DPH,?XSP + 1
   \   000064   7484         MOV     A,#-0x7c
   \   000066   F0           MOVX    @DPTR,A
   \   000067   02....       LJMP    ??ZDO_ProcessBindUnbindReq_2 & 0xFFFF
    960            }
    961            else
    962            {
    963              // Check source & destination endpoints
    964              if ( (pReq->srcEndpoint == 0 || pReq->srcEndpoint > MAX_ENDPOINTS)
    965                  || (( pReq->dstAddress.addrMode == Addr64Bit ) &&
    966                      (pReq->dstEndpoint == 0 || pReq->dstEndpoint > MAX_ENDPOINTS)) )
   \                     ??ZDO_ProcessBindUnbindReq_1:
   \   00006A   8E82         MOV     DPL,R6
   \   00006C   8F83         MOV     DPH,R7
   \   00006E   A3           INC     DPTR
   \   00006F   A3           INC     DPTR
   \   000070   A3           INC     DPTR
   \   000071   A3           INC     DPTR
   \   000072   A3           INC     DPTR
   \   000073   A3           INC     DPTR
   \   000074   A3           INC     DPTR
   \   000075   A3           INC     DPTR
   \   000076   E0           MOVX    A,@DPTR
   \   000077   603E         JZ      ??ZDO_ProcessBindUnbindReq_3
   \   000079   8E82         MOV     DPL,R6
   \   00007B   8F83         MOV     DPH,R7
   \   00007D   A3           INC     DPTR
   \   00007E   A3           INC     DPTR
   \   00007F   A3           INC     DPTR
   \   000080   A3           INC     DPTR
   \   000081   A3           INC     DPTR
   \   000082   A3           INC     DPTR
   \   000083   A3           INC     DPTR
   \   000084   A3           INC     DPTR
   \   000085   E0           MOVX    A,@DPTR
   \   000086   C3           CLR     C
   \   000087   94F1         SUBB    A,#-0xf
   \   000089   502C         JNC     ??ZDO_ProcessBindUnbindReq_3
   \   00008B   EE           MOV     A,R6
   \   00008C   2413         ADD     A,#0x13
   \   00008E   F582         MOV     DPL,A
   \   000090   EF           MOV     A,R7
   \   000091   3400         ADDC    A,#0x0
   \   000093   F583         MOV     DPH,A
   \   000095   E0           MOVX    A,@DPTR
   \   000096   6403         XRL     A,#0x3
   \   000098   7029         JNZ     ??ZDO_ProcessBindUnbindReq_4
   \   00009A   EE           MOV     A,R6
   \   00009B   2414         ADD     A,#0x14
   \   00009D   F582         MOV     DPL,A
   \   00009F   EF           MOV     A,R7
   \   0000A0   3400         ADDC    A,#0x0
   \   0000A2   F583         MOV     DPH,A
   \   0000A4   E0           MOVX    A,@DPTR
   \   0000A5   6010         JZ      ??ZDO_ProcessBindUnbindReq_3
   \   0000A7   EE           MOV     A,R6
   \   0000A8   2414         ADD     A,#0x14
   \   0000AA   F582         MOV     DPL,A
   \   0000AC   EF           MOV     A,R7
   \   0000AD   3400         ADDC    A,#0x0
   \   0000AF   F583         MOV     DPH,A
   \   0000B1   E0           MOVX    A,@DPTR
   \   0000B2   C3           CLR     C
   \   0000B3   94F1         SUBB    A,#-0xf
   \   0000B5   400C         JC      ??ZDO_ProcessBindUnbindReq_4
    967              {
    968                bindStat = ZDP_INVALID_EP;
   \                     ??ZDO_ProcessBindUnbindReq_3:
   \   0000B7   85..82       MOV     DPL,?XSP + 0
   \   0000BA   85..83       MOV     DPH,?XSP + 1
   \   0000BD   7482         MOV     A,#-0x7e
   \   0000BF   F0           MOVX    @DPTR,A
   \   0000C0   02....       LJMP    ??ZDO_ProcessBindUnbindReq_2 & 0xFFFF
    969              }
    970              else
    971              {
    972                if ( inMsg->clusterID == Bind_req )
   \                     ??ZDO_ProcessBindUnbindReq_4:
   \   0000C3   E5..         MOV     A,?V0 + 0
   \   0000C5   240C         ADD     A,#0xc
   \   0000C7   F582         MOV     DPL,A
   \   0000C9   E5..         MOV     A,?V0 + 1
   \   0000CB   3400         ADDC    A,#0x0
   \   0000CD   F583         MOV     DPH,A
   \   0000CF   E0           MOVX    A,@DPTR
   \   0000D0   6421         XRL     A,#0x21
   \   0000D2   7004         JNZ     ??ZDO_ProcessBindUnbindReq_5
   \   0000D4   A3           INC     DPTR
   \   0000D5   E0           MOVX    A,@DPTR
   \   0000D6   6400         XRL     A,#0x0
   \                     ??ZDO_ProcessBindUnbindReq_5:
   \   0000D8   6003         JZ      $+5
   \   0000DA   02....       LJMP    ??ZDO_ProcessBindUnbindReq_6 & 0xFFFF
    973                {
    974                  // Assume the table is full
    975                  bindStat = ZDP_TABLE_FULL;
   \   0000DD   85..82       MOV     DPL,?XSP + 0
   \   0000E0   85..83       MOV     DPH,?XSP + 1
   \   0000E3   7487         MOV     A,#-0x79
   \   0000E5   F0           MOVX    @DPTR,A
    976          
    977                  if ( bindNumOfEntries() < gNWK_MAX_BINDING_ENTRIES )
   \   0000E6                ; Setup parameters for call to function bindNumOfEntries
   \   0000E6   12....       LCALL   ??bindNumOfEntries?relay
   \   0000E9   8A..         MOV     ?V0 + 2,R2
   \   0000EB   8B..         MOV     ?V0 + 3,R3
   \   0000ED   AA..         MOV     R2,?V0 + 2
   \   0000EF   AB..         MOV     R3,?V0 + 3
   \   0000F1   90....       MOV     DPTR,#gNWK_MAX_BINDING_ENTRIES
   \   0000F4   E4           CLR     A
   \   0000F5   93           MOVC    A,@A+DPTR
   \   0000F6   F8           MOV     R0,A
   \   0000F7   7401         MOV     A,#0x1
   \   0000F9   93           MOVC    A,@A+DPTR
   \   0000FA   F9           MOV     R1,A
   \   0000FB   C3           CLR     C
   \   0000FC   E5..         MOV     A,?V0 + 2
   \   0000FE   98           SUBB    A,R0
   \   0000FF   E5..         MOV     A,?V0 + 3
   \   000101   99           SUBB    A,R1
   \   000102   4003         JC      $+5
   \   000104   02....       LJMP    ??ZDO_ProcessBindUnbindReq_2 & 0xFFFF
    978                  {
    979                    if ( APSME_BindRequest( pReq->srcEndpoint, pReq->clusterID,
    980                                   &(pReq->dstAddress), pReq->dstEndpoint ) == ZSuccess )
   \   000107                ; Setup parameters for call to function APSME_BindRequest
   \   000107   EE           MOV     A,R6
   \   000108   2414         ADD     A,#0x14
   \   00010A   F582         MOV     DPL,A
   \   00010C   EF           MOV     A,R7
   \   00010D   3400         ADDC    A,#0x0
   \   00010F   F583         MOV     DPH,A
   \   000111   E0           MOVX    A,@DPTR
   \   000112   F5..         MOV     ?V0 + 2,A
   \   000114   78..         MOV     R0,#?V0 + 2
   \   000116   12....       LCALL   ?PUSH_XSTACK_I_ONE
   \   000119   EE           MOV     A,R6
   \   00011A   240B         ADD     A,#0xb
   \   00011C   FC           MOV     R4,A
   \   00011D   EF           MOV     A,R7
   \   00011E   3400         ADDC    A,#0x0
   \   000120   FD           MOV     R5,A
   \   000121   8E82         MOV     DPL,R6
   \   000123   8F83         MOV     DPH,R7
   \   000125   A3           INC     DPTR
   \   000126   A3           INC     DPTR
   \   000127   A3           INC     DPTR
   \   000128   A3           INC     DPTR
   \   000129   A3           INC     DPTR
   \   00012A   A3           INC     DPTR
   \   00012B   A3           INC     DPTR
   \   00012C   A3           INC     DPTR
   \   00012D   A3           INC     DPTR
   \   00012E   E0           MOVX    A,@DPTR
   \   00012F   FA           MOV     R2,A
   \   000130   A3           INC     DPTR
   \   000131   E0           MOVX    A,@DPTR
   \   000132   FB           MOV     R3,A
   \   000133   8E82         MOV     DPL,R6
   \   000135   8F83         MOV     DPH,R7
   \   000137   A3           INC     DPTR
   \   000138   A3           INC     DPTR
   \   000139   A3           INC     DPTR
   \   00013A   A3           INC     DPTR
   \   00013B   A3           INC     DPTR
   \   00013C   A3           INC     DPTR
   \   00013D   A3           INC     DPTR
   \   00013E   A3           INC     DPTR
   \   00013F   E0           MOVX    A,@DPTR
   \   000140   F9           MOV     R1,A
   \   000141   12....       LCALL   ??APSME_BindRequest?relay
   \   000144   7401         MOV     A,#0x1
   \   000146   12....       LCALL   ?DEALLOC_XSTACK8
   \   000149   E9           MOV     A,R1
   \   00014A   6003         JZ      $+5
   \   00014C   02....       LJMP    ??ZDO_ProcessBindUnbindReq_2 & 0xFFFF
    981                    {
    982                      uint16 nwkAddr;
    983          
    984                      // valid entry
    985                      bindStat = ZDP_SUCCESS;
   \   00014F   85..82       MOV     DPL,?XSP + 0
   \   000152   85..83       MOV     DPH,?XSP + 1
   \   000155   7400         MOV     A,#0x0
   \   000157   F0           MOVX    @DPTR,A
    986          
    987                      // Notify to save info into NV
    988                      ZDApp_NVUpdate();
   \   000158                ; Setup parameters for call to function ZDApp_NVUpdate
   \   000158   12....       LCALL   ??ZDApp_NVUpdate?relay
    989          
    990                      // Check for the destination address
    991                      if ( pReq->dstAddress.addrMode == Addr64Bit )
   \   00015B   EE           MOV     A,R6
   \   00015C   2413         ADD     A,#0x13
   \   00015E   F582         MOV     DPL,A
   \   000160   EF           MOV     A,R7
   \   000161   3400         ADDC    A,#0x0
   \   000163   F583         MOV     DPH,A
   \   000165   E0           MOVX    A,@DPTR
   \   000166   6403         XRL     A,#0x3
   \   000168   6003         JZ      $+5
   \   00016A   02....       LJMP    ??ZDO_ProcessBindUnbindReq_2 & 0xFFFF
    992                      {
    993                        if ( APSME_LookupNwkAddr( pReq->dstAddress.addr.extAddr, &nwkAddr ) == FALSE )
   \   00016D                ; Setup parameters for call to function APSME_LookupNwkAddr
   \   00016D   7401         MOV     A,#0x1
   \   00016F   12....       LCALL   ?XSTACK_DISP0_8
   \   000172   AC82         MOV     R4,DPL
   \   000174   AD83         MOV     R5,DPH
   \   000176   EE           MOV     A,R6
   \   000177   240B         ADD     A,#0xb
   \   000179   FA           MOV     R2,A
   \   00017A   EF           MOV     A,R7
   \   00017B   3400         ADDC    A,#0x0
   \   00017D   FB           MOV     R3,A
   \   00017E   12....       LCALL   ??APSME_LookupNwkAddr?relay
   \   000181   E9           MOV     A,R1
   \   000182   7070         JNZ     ??ZDO_ProcessBindUnbindReq_2
    994                        {
    995                          ZDP_NwkAddrReq( pReq->dstAddress.addr.extAddr, ZDP_ADDR_REQTYPE_SINGLE, 0, 0 );
   \   000184                ; Setup parameters for call to function ZDP_NwkAddrReq
   \   000184   7D00         MOV     R5,#0x0
   \   000186   7C00         MOV     R4,#0x0
   \   000188   7900         MOV     R1,#0x0
   \   00018A   EE           MOV     A,R6
   \   00018B   240B         ADD     A,#0xb
   \   00018D   FA           MOV     R2,A
   \   00018E   EF           MOV     A,R7
   \   00018F   3400         ADDC    A,#0x0
   \   000191   FB           MOV     R3,A
   \   000192   12....       LCALL   ??ZDP_NwkAddrReq?relay
   \   000195   E9           MOV     A,R1
   \   000196   805C         SJMP    ??ZDO_ProcessBindUnbindReq_2
    996                        }
    997                      }
    998                    }
    999                  }
   1000                }
   1001                else // Unbind_req
   1002                {
   1003                  if ( APSME_UnBindRequest( pReq->srcEndpoint, pReq->clusterID,
   1004                                 &(pReq->dstAddress), pReq->dstEndpoint ) == ZSuccess )
   \                     ??ZDO_ProcessBindUnbindReq_6:
   \   000198                ; Setup parameters for call to function APSME_UnBindRequest
   \   000198   EE           MOV     A,R6
   \   000199   2414         ADD     A,#0x14
   \   00019B   F582         MOV     DPL,A
   \   00019D   EF           MOV     A,R7
   \   00019E   3400         ADDC    A,#0x0
   \   0001A0   F583         MOV     DPH,A
   \   0001A2   E0           MOVX    A,@DPTR
   \   0001A3   F5..         MOV     ?V0 + 2,A
   \   0001A5   78..         MOV     R0,#?V0 + 2
   \   0001A7   12....       LCALL   ?PUSH_XSTACK_I_ONE
   \   0001AA   EE           MOV     A,R6
   \   0001AB   240B         ADD     A,#0xb
   \   0001AD   FC           MOV     R4,A
   \   0001AE   EF           MOV     A,R7
   \   0001AF   3400         ADDC    A,#0x0
   \   0001B1   FD           MOV     R5,A
   \   0001B2   8E82         MOV     DPL,R6
   \   0001B4   8F83         MOV     DPH,R7
   \   0001B6   A3           INC     DPTR
   \   0001B7   A3           INC     DPTR
   \   0001B8   A3           INC     DPTR
   \   0001B9   A3           INC     DPTR
   \   0001BA   A3           INC     DPTR
   \   0001BB   A3           INC     DPTR
   \   0001BC   A3           INC     DPTR
   \   0001BD   A3           INC     DPTR
   \   0001BE   A3           INC     DPTR
   \   0001BF   E0           MOVX    A,@DPTR
   \   0001C0   FA           MOV     R2,A
   \   0001C1   A3           INC     DPTR
   \   0001C2   E0           MOVX    A,@DPTR
   \   0001C3   FB           MOV     R3,A
   \   0001C4   8E82         MOV     DPL,R6
   \   0001C6   8F83         MOV     DPH,R7
   \   0001C8   A3           INC     DPTR
   \   0001C9   A3           INC     DPTR
   \   0001CA   A3           INC     DPTR
   \   0001CB   A3           INC     DPTR
   \   0001CC   A3           INC     DPTR
   \   0001CD   A3           INC     DPTR
   \   0001CE   A3           INC     DPTR
   \   0001CF   A3           INC     DPTR
   \   0001D0   E0           MOVX    A,@DPTR
   \   0001D1   F9           MOV     R1,A
   \   0001D2   12....       LCALL   ??APSME_UnBindRequest?relay
   \   0001D5   7401         MOV     A,#0x1
   \   0001D7   12....       LCALL   ?DEALLOC_XSTACK8
   \   0001DA   E9           MOV     A,R1
   \   0001DB   700E         JNZ     ??ZDO_ProcessBindUnbindReq_7
   1005                  {
   1006                    bindStat = ZDP_SUCCESS;
   \   0001DD   85..82       MOV     DPL,?XSP + 0
   \   0001E0   85..83       MOV     DPH,?XSP + 1
   \   0001E3   7400         MOV     A,#0x0
   \   0001E5   F0           MOVX    @DPTR,A
   1007          
   1008                    // Notify to save info into NV
   1009                    ZDApp_NVUpdate();
   \   0001E6                ; Setup parameters for call to function ZDApp_NVUpdate
   \   0001E6   12....       LCALL   ??ZDApp_NVUpdate?relay
   \   0001E9   8009         SJMP    ??ZDO_ProcessBindUnbindReq_2
   1010                  }
   1011                  else
   1012                    bindStat = ZDP_NO_ENTRY;
   \                     ??ZDO_ProcessBindUnbindReq_7:
   \   0001EB   85..82       MOV     DPL,?XSP + 0
   \   0001EE   85..83       MOV     DPH,?XSP + 1
   \   0001F1   7488         MOV     A,#-0x78
   \   0001F3   F0           MOVX    @DPTR,A
   1013                }
   1014              }
   1015            }
   1016          
   1017            // Send back a response message
   1018            ZDP_SendData( &(inMsg->TransSeq), &(inMsg->srcAddr),
   1019                         (inMsg->clusterID | ZDO_RESPONSE_BIT), 1, &bindStat,
   1020                         inMsg->SecurityUse );
   \                     ??ZDO_ProcessBindUnbindReq_2:
   \   0001F4                ; Setup parameters for call to function ZDP_SendData
   \   0001F4   E5..         MOV     A,?V0 + 0
   \   0001F6   240E         ADD     A,#0xe
   \   0001F8   F582         MOV     DPL,A
   \   0001FA   E5..         MOV     A,?V0 + 1
   \   0001FC   3400         ADDC    A,#0x0
   \   0001FE   F583         MOV     DPH,A
   \   000200   E0           MOVX    A,@DPTR
   \   000201   F5..         MOV     ?V0 + 2,A
   \   000203   78..         MOV     R0,#?V0 + 2
   \   000205   12....       LCALL   ?PUSH_XSTACK_I_ONE
   \   000208   7401         MOV     A,#0x1
   \   00020A   12....       LCALL   ?XSTACK_DISP0_8
   \   00020D   8582..       MOV     ?V0 + 2,DPL
   \   000210   8583..       MOV     ?V0 + 3,DPH
   \   000213   78..         MOV     R0,#?V0 + 2
   \   000215   12....       LCALL   ?PUSH_XSTACK_I_TWO
   \   000218   E5..         MOV     A,?V0 + 0
   \   00021A   240C         ADD     A,#0xc
   \   00021C   F582         MOV     DPL,A
   \   00021E   E5..         MOV     A,?V0 + 1
   \   000220   3400         ADDC    A,#0x0
   \   000222   F583         MOV     DPH,A
   \   000224   E0           MOVX    A,@DPTR
   \   000225   4400         ORL     A,#0x0
   \   000227   F5..         MOV     ?V0 + 2,A
   \   000229   A3           INC     DPTR
   \   00022A   E0           MOVX    A,@DPTR
   \   00022B   4480         ORL     A,#0x80
   \   00022D   F5..         MOV     ?V0 + 3,A
   \   00022F   78..         MOV     R0,#?V0 + 2
   \   000231   12....       LCALL   ?PUSH_XSTACK_I_TWO
   \   000234   7901         MOV     R1,#0x1
   \   000236   E5..         MOV     A,?V0 + 0
   \   000238   2402         ADD     A,#0x2
   \   00023A   FC           MOV     R4,A
   \   00023B   E5..         MOV     A,?V0 + 1
   \   00023D   3400         ADDC    A,#0x0
   \   00023F   FD           MOV     R5,A
   \   000240   E5..         MOV     A,?V0 + 0
   \   000242   240F         ADD     A,#0xf
   \   000244   FA           MOV     R2,A
   \   000245   E5..         MOV     A,?V0 + 1
   \   000247   3400         ADDC    A,#0x0
   \   000249   FB           MOV     R3,A
   \   00024A   12....       LCALL   ??ZDP_SendData?relay
   \   00024D   7405         MOV     A,#0x5
   \   00024F   12....       LCALL   ?DEALLOC_XSTACK8
   \   000252   E9           MOV     A,R1
   1021          }
   \   000253   740C         MOV     A,#0xc
   \   000255   12....       LCALL   ?DEALLOC_XSTACK8
   \   000258   7F04         MOV     R7,#0x4
   \   00025A   02....       LJMP    ?BANKED_LEAVE_XDATA
   1022          
   1023          /*********************************************************************
   1024           * @fn      ZDO_UpdateAddrManager
   1025           *
   1026           * @brief   Update the Address Manager.
   1027           *
   1028           * @param   nwkAddr - network address
   1029           * @param   extAddr - extended address
   1030           *
   1031           * @return  none
   1032           */

   \                                 In  segment BANKED_CODE, align 1, keep-with-next
   1033          void ZDO_UpdateAddrManager( uint16 nwkAddr, uint8 *extAddr )
   \                     ZDO_UpdateAddrManager:
   1034          {
   \   000000   74F6         MOV     A,#-0xa
   \   000002   12....       LCALL   ?BANKED_ENTER_XDATA
   \   000005                ; Saved register size: 10
   \   000005                ; Auto size: 13
   \   000005   74F3         MOV     A,#-0xd
   \   000007   12....       LCALL   ?ALLOC_XSTACK8
   \   00000A   8A..         MOV     ?V0 + 0,R2
   \   00000C   8B..         MOV     ?V0 + 1,R3
   \   00000E   EC           MOV     A,R4
   \   00000F   FE           MOV     R6,A
   \   000010   ED           MOV     A,R5
   \   000011   FF           MOV     R7,A
   1035            AddrMgrEntry_t addrEntry;
   1036          
   1037            // Update the address manager
   1038            addrEntry.user = ADDRMGR_USER_DEFAULT;
   \   000012   85..82       MOV     DPL,?XSP + 0
   \   000015   85..83       MOV     DPH,?XSP + 1
   \   000018   7400         MOV     A,#0x0
   \   00001A   F0           MOVX    @DPTR,A
   1039            addrEntry.nwkAddr = nwkAddr;
   \   00001B   7401         MOV     A,#0x1
   \   00001D   12....       LCALL   ?XSTACK_DISP0_8
   \   000020   E5..         MOV     A,?V0 + 0
   \   000022   F0           MOVX    @DPTR,A
   \   000023   A3           INC     DPTR
   \   000024   E5..         MOV     A,?V0 + 1
   \   000026   F0           MOVX    @DPTR,A
   1040            AddrMgrExtAddrSet( addrEntry.extAddr, extAddr );
   \   000027                ; Setup parameters for call to function AddrMgrExtAddrSet
   \   000027   EE           MOV     A,R6
   \   000028   FC           MOV     R4,A
   \   000029   EF           MOV     A,R7
   \   00002A   FD           MOV     R5,A
   \   00002B   7403         MOV     A,#0x3
   \   00002D   12....       LCALL   ?XSTACK_DISP0_8
   \   000030   AA82         MOV     R2,DPL
   \   000032   AB83         MOV     R3,DPH
   \   000034   12....       LCALL   ??AddrMgrExtAddrSet?relay
   1041            AddrMgrEntryUpdate( &addrEntry );
   \   000037                ; Setup parameters for call to function AddrMgrEntryUpdate
   \   000037   85..82       MOV     DPL,?XSP + 0
   \   00003A   85..83       MOV     DPH,?XSP + 1
   \   00003D   AA82         MOV     R2,DPL
   \   00003F   AB83         MOV     R3,DPH
   \   000041   12....       LCALL   ??AddrMgrEntryUpdate?relay
   \   000044   E9           MOV     A,R1
   1042          }
   \   000045   740D         MOV     A,#0xd
   \   000047   12....       LCALL   ?DEALLOC_XSTACK8
   \   00004A   7F02         MOV     R7,#0x2
   \   00004C   02....       LJMP    ?BANKED_LEAVE_XDATA
   1043          
   1044          /*********************************************************************
   1045           * @fn      ZDO_ProcessServerDiscReq
   1046           *
   1047           * @brief   Process the Server_Discovery_req message.
   1048           *
   1049           * @param   inMsg  - incoming message (request)
   1050           *
   1051           * @return  none
   1052           */

   \                                 In  segment BANKED_CODE, align 1, keep-with-next
   1053          void ZDO_ProcessServerDiscReq( zdoIncomingMsg_t *inMsg )
   \                     ZDO_ProcessServerDiscReq:
   1054          {
   \   000000   74F4         MOV     A,#-0xc
   \   000002   12....       LCALL   ?BANKED_ENTER_XDATA
   \   000005                ; Saved register size: 12
   \   000005                ; Auto size: 0
   \   000005   EA           MOV     A,R2
   \   000006   FE           MOV     R6,A
   \   000007   EB           MOV     A,R3
   \   000008   FF           MOV     R7,A
   1055            uint16 serverMask = BUILD_UINT16( inMsg->asdu[0], inMsg->asdu[1] );
   \   000009   EE           MOV     A,R6
   \   00000A   2413         ADD     A,#0x13
   \   00000C   F582         MOV     DPL,A
   \   00000E   EF           MOV     A,R7
   \   00000F   3400         ADDC    A,#0x0
   \   000011   F583         MOV     DPH,A
   \   000013   E0           MOVX    A,@DPTR
   \   000014   F8           MOV     R0,A
   \   000015   A3           INC     DPTR
   \   000016   E0           MOVX    A,@DPTR
   \   000017   F583         MOV     DPH,A
   \   000019   8882         MOV     DPL,R0
   \   00001B   E0           MOVX    A,@DPTR
   \   00001C   FA           MOV     R2,A
   \   00001D   7B00         MOV     R3,#0x0
   \   00001F   EE           MOV     A,R6
   \   000020   2413         ADD     A,#0x13
   \   000022   F582         MOV     DPL,A
   \   000024   EF           MOV     A,R7
   \   000025   3400         ADDC    A,#0x0
   \   000027   F583         MOV     DPH,A
   \   000029   E0           MOVX    A,@DPTR
   \   00002A   F8           MOV     R0,A
   \   00002B   A3           INC     DPTR
   \   00002C   E0           MOVX    A,@DPTR
   \   00002D   F583         MOV     DPH,A
   \   00002F   8882         MOV     DPL,R0
   \   000031   A3           INC     DPTR
   \   000032   E0           MOVX    A,@DPTR
   \   000033   F8           MOV     R0,A
   \   000034   7900         MOV     R1,#0x0
   \   000036   E4           CLR     A
   \   000037   C8           XCH     A,R0
   \   000038   F9           MOV     R1,A
   \   000039   EA           MOV     A,R2
   \   00003A   28           ADD     A,R0
   \   00003B   F5..         MOV     ?V0 + 0,A
   \   00003D   EB           MOV     A,R3
   \   00003E   39           ADDC    A,R1
   \   00003F   F5..         MOV     ?V0 + 1,A
   1056            uint16 matchMask = serverMask & ZDO_Config_Node_Descriptor.ServerMask;
   \   000041   90....       MOV     DPTR,#ZDO_Config_Node_Descriptor + 8
   \   000044   E0           MOVX    A,@DPTR
   \   000045   55..         ANL     A,?V0 + 0
   \   000047   F5..         MOV     ?V0 + 2,A
   \   000049   A3           INC     DPTR
   \   00004A   E0           MOVX    A,@DPTR
   \   00004B   55..         ANL     A,?V0 + 1
   \   00004D   F5..         MOV     ?V0 + 3,A
   1057          
   1058            if ( matchMask )
   \   00004F   E5..         MOV     A,?V0 + 2
   \   000051   45..         ORL     A,?V0 + 3
   \   000053   6036         JZ      ??ZDO_ProcessServerDiscReq_0
   1059            {
   1060              ZDP_ServerDiscRsp( inMsg->TransSeq, &(inMsg->srcAddr), ZSUCCESS,
   1061                          ZDAppNwkAddr.addr.shortAddr, matchMask, inMsg->SecurityUse );
   \   000055                ; Setup parameters for call to function ZDP_ServerDiscRsp
   \   000055   78..         MOV     R0,#?V0 + 2
   \   000057   12....       LCALL   ?PUSH_XSTACK_I_TWO
   \   00005A   90....       MOV     DPTR,#ZDAppNwkAddr
   \   00005D   12....       LCALL   ?PUSH_XSTACK8_X_TWO
   \   000060   EE           MOV     A,R6
   \   000061   240E         ADD     A,#0xe
   \   000063   F582         MOV     DPL,A
   \   000065   EF           MOV     A,R7
   \   000066   3400         ADDC    A,#0x0
   \   000068   F583         MOV     DPH,A
   \   00006A   E0           MOVX    A,@DPTR
   \   00006B   FD           MOV     R5,A
   \   00006C   7C00         MOV     R4,#0x0
   \   00006E   EE           MOV     A,R6
   \   00006F   2402         ADD     A,#0x2
   \   000071   FA           MOV     R2,A
   \   000072   EF           MOV     A,R7
   \   000073   3400         ADDC    A,#0x0
   \   000075   FB           MOV     R3,A
   \   000076   EE           MOV     A,R6
   \   000077   240F         ADD     A,#0xf
   \   000079   F582         MOV     DPL,A
   \   00007B   EF           MOV     A,R7
   \   00007C   3400         ADDC    A,#0x0
   \   00007E   F583         MOV     DPH,A
   \   000080   E0           MOVX    A,@DPTR
   \   000081   F9           MOV     R1,A
   \   000082   12....       LCALL   ??ZDP_ServerDiscRsp?relay
   \   000085   7404         MOV     A,#0x4
   \   000087   12....       LCALL   ?DEALLOC_XSTACK8
   \   00008A   E9           MOV     A,R1
   1062            }
   1063          }
   \                     ??ZDO_ProcessServerDiscReq_0:
   \   00008B   7F04         MOV     R7,#0x4
   \   00008D   02....       LJMP    ?BANKED_LEAVE_XDATA
   1064          
   1065          /*********************************************************************
   1066           * Call Back Functions from APS  - API
   1067           */
   1068          
   1069          /*********************************************************************
   1070           * @fn          ZDO_EndDeviceTimeoutCB
   1071           *
   1072           * @brief       This function handles the binding timer for the End
   1073           *              Device Bind command.
   1074           *
   1075           * @param       none
   1076           *
   1077           * @return      none
   1078           */

   \                                 In  segment BANKED_CODE, align 1, keep-with-next
   1079          void ZDO_EndDeviceTimeoutCB( void )
   \                     ZDO_EndDeviceTimeoutCB:
   1080          {
   \   000000   74F7         MOV     A,#-0x9
   \   000002   12....       LCALL   ?BANKED_ENTER_XDATA
   \   000005                ; Saved register size: 9
   \   000005                ; Auto size: 0
   1081          #if defined ( REFLECTOR )
   1082            byte stat;
   1083            if ( ZDO_EDBind )
   \   000005   90....       MOV     DPTR,#ZDO_EDBind
   \   000008   E0           MOVX    A,@DPTR
   \   000009   F8           MOV     R0,A
   \   00000A   A3           INC     DPTR
   \   00000B   E0           MOVX    A,@DPTR
   \   00000C   F9           MOV     R1,A
   \   00000D   E8           MOV     A,R0
   \   00000E   49           ORL     A,R1
   \   00000F   6047         JZ      ??ZDO_EndDeviceTimeoutCB_0
   1084            {
   1085              stat = ZDO_EDBind->status;
   \   000011   90....       MOV     DPTR,#ZDO_EDBind
   \   000014   E0           MOVX    A,@DPTR
   \   000015   F8           MOV     R0,A
   \   000016   A3           INC     DPTR
   \   000017   E0           MOVX    A,@DPTR
   \   000018   C8           XCH     A,R0
   \   000019   2416         ADD     A,#0x16
   \   00001B   F582         MOV     DPL,A
   \   00001D   E8           MOV     A,R0
   \   00001E   3400         ADDC    A,#0x0
   \   000020   F583         MOV     DPH,A
   \   000022   E0           MOVX    A,@DPTR
   \   000023   FE           MOV     R6,A
   1086          
   1087              // Send the response message to the first sent
   1088              ZDO_SendEDBindRsp( ZDO_EDBind->SrcTransSeq, &(ZDO_EDBind->SrcAddr),
   1089                                  stat, ZDO_EDBind->SecurityUse );
   \   000024                ; Setup parameters for call to function ZDO_SendEDBindRsp
   \   000024   90....       MOV     DPTR,#ZDO_EDBind
   \   000027   E0           MOVX    A,@DPTR
   \   000028   F8           MOV     R0,A
   \   000029   A3           INC     DPTR
   \   00002A   E0           MOVX    A,@DPTR
   \   00002B   C8           XCH     A,R0
   \   00002C   2415         ADD     A,#0x15
   \   00002E   F582         MOV     DPL,A
   \   000030   E8           MOV     A,R0
   \   000031   3400         ADDC    A,#0x0
   \   000033   F583         MOV     DPH,A
   \   000035   E0           MOVX    A,@DPTR
   \   000036   FD           MOV     R5,A
   \   000037   EE           MOV     A,R6
   \   000038   FC           MOV     R4,A
   \   000039   90....       MOV     DPTR,#ZDO_EDBind
   \   00003C   E0           MOVX    A,@DPTR
   \   00003D   2401         ADD     A,#0x1
   \   00003F   FA           MOV     R2,A
   \   000040   A3           INC     DPTR
   \   000041   E0           MOVX    A,@DPTR
   \   000042   3400         ADDC    A,#0x0
   \   000044   FB           MOV     R3,A
   \   000045   90....       MOV     DPTR,#ZDO_EDBind
   \   000048   E0           MOVX    A,@DPTR
   \   000049   F8           MOV     R0,A
   \   00004A   A3           INC     DPTR
   \   00004B   E0           MOVX    A,@DPTR
   \   00004C   F583         MOV     DPH,A
   \   00004E   8882         MOV     DPL,R0
   \   000050   E0           MOVX    A,@DPTR
   \   000051   F9           MOV     R1,A
   \   000052   12....       LCALL   ??ZDO_SendEDBindRsp?relay
   1090          
   1091              ZDO_RemoveEndDeviceBind();
   \   000055                ; Setup parameters for call to function ZDO_RemoveEndDeviceBind
   \   000055   12....       LCALL   ??ZDO_RemoveEndDeviceBind?relay
   1092            }
   1093          #endif  // REFLECTOR
   1094          }
   \                     ??ZDO_EndDeviceTimeoutCB_0:
   \   000058   7F01         MOV     R7,#0x1
   \   00005A   02....       LJMP    ?BANKED_LEAVE_XDATA
   1095          
   1096          /*********************************************************************
   1097           * Optional Management Messages
   1098           */
   1099          
   1100          /*********************************************************************
   1101           * @fn          ZDO_ProcessMgmtLqiReq
   1102           *
   1103           * @brief       This function handles parsing the incoming Management
   1104           *              LQI request and generate the response.
   1105           *
   1106           *   Note:      This function will limit the number of items returned
   1107           *              to ZDO_MAX_LQI_ITEMS items.
   1108           *
   1109           * @param       inMsg - incoming message (request)
   1110           *
   1111           * @return      none
   1112           */

   \                                 In  segment BANKED_CODE, align 1, keep-with-next
   1113          void ZDO_ProcessMgmtLqiReq( zdoIncomingMsg_t *inMsg )
   \                     ZDO_ProcessMgmtLqiReq:
   1114          {
   \   000000   74EA         MOV     A,#-0x16
   \   000002   12....       LCALL   ?BANKED_ENTER_XDATA
   \   000005                ; Saved register size: 22
   \   000005                ; Auto size: 37
   \   000005   74DB         MOV     A,#-0x25
   \   000007   12....       LCALL   ?ALLOC_XSTACK8
   \   00000A   8A..         MOV     ?V0 + 12,R2
   \   00000C   8B..         MOV     ?V0 + 13,R3
   1115            byte x;
   1116            byte index;
   1117            byte numItems;
   1118            byte maxItems;
   1119            ZDP_MgmtLqiItem_t* table = NULL;
   \   00000E   75..00       MOV     ?V0 + 6,#0x0
   \   000011   75..00       MOV     ?V0 + 7,#0x0
   1120            ZDP_MgmtLqiItem_t* item;
   1121            neighborEntry_t    entry;
   1122            byte aItems;
   1123            associated_devices_t *aDevice;
   1124            AddrMgrEntry_t  nwkEntry;
   1125            uint8 StartIndex = inMsg->asdu[0];
   \   000014   E5..         MOV     A,?V0 + 12
   \   000016   2413         ADD     A,#0x13
   \   000018   F582         MOV     DPL,A
   \   00001A   E5..         MOV     A,?V0 + 13
   \   00001C   3400         ADDC    A,#0x0
   \   00001E   F583         MOV     DPH,A
   \   000020   E0           MOVX    A,@DPTR
   \   000021   F8           MOV     R0,A
   \   000022   A3           INC     DPTR
   \   000023   E0           MOVX    A,@DPTR
   \   000024   F583         MOV     DPH,A
   \   000026   8882         MOV     DPL,R0
   \   000028   E0           MOVX    A,@DPTR
   \   000029   F5..         MOV     ?V0 + 2,A
   1126          
   1127            // Get the number of neighbor items
   1128            NLME_GetRequest( nwkNumNeighborTableEntries, 0, &maxItems );
   \   00002B                ; Setup parameters for call to function NLME_GetRequest
   \   00002B   85..82       MOV     DPL,?XSP + 0
   \   00002E   85..83       MOV     DPH,?XSP + 1
   \   000031   AC82         MOV     R4,DPL
   \   000033   AD83         MOV     R5,DPH
   \   000035   7A00         MOV     R2,#0x0
   \   000037   7B00         MOV     R3,#0x0
   \   000039   799C         MOV     R1,#-0x64
   \   00003B   12....       LCALL   ??NLME_GetRequest?relay
   \   00003E   E9           MOV     A,R1
   1129          
   1130            // Get the number of associated items
   1131            aItems = (uint8)AssocCount( PARENT, CHILD_FFD_RX_IDLE );
   \   00003F                ; Setup parameters for call to function AssocCount
   \   00003F   7A04         MOV     R2,#0x4
   \   000041   7900         MOV     R1,#0x0
   \   000043   12....       LCALL   ??AssocCount?relay
   \   000046   EA           MOV     A,R2
   \   000047   F5..         MOV     ?V0 + 10,A
   1132          
   1133            // Total number of items
   1134            maxItems += aItems;
   \   000049   85..82       MOV     DPL,?XSP + 0
   \   00004C   85..83       MOV     DPH,?XSP + 1
   \   00004F   E0           MOVX    A,@DPTR
   \   000050   25..         ADD     A,?V0 + 10
   \   000052   F0           MOVX    @DPTR,A
   1135          
   1136            // Start with the supplied index
   1137            if ( maxItems > StartIndex )
   \   000053   85..82       MOV     DPL,?XSP + 0
   \   000056   85..83       MOV     DPH,?XSP + 1
   \   000059   E0           MOVX    A,@DPTR
   \   00005A   F8           MOV     R0,A
   \   00005B   E5..         MOV     A,?V0 + 2
   \   00005D   C3           CLR     C
   \   00005E   98           SUBB    A,R0
   \   00005F   4003         JC      $+5
   \   000061   02....       LJMP    ??ZDO_ProcessMgmtLqiReq_0 & 0xFFFF
   1138            {
   1139              numItems = maxItems - StartIndex;
   \   000064   85..82       MOV     DPL,?XSP + 0
   \   000067   85..83       MOV     DPH,?XSP + 1
   \   00006A   E0           MOVX    A,@DPTR
   \   00006B   C3           CLR     C
   \   00006C   95..         SUBB    A,?V0 + 2
   \   00006E   F5..         MOV     ?V0 + 1,A
   1140          
   1141              // limit the size of the list
   1142              if ( numItems > ZDO_MAX_LQI_ITEMS )
   \   000070   E5..         MOV     A,?V0 + 1
   \   000072   C3           CLR     C
   \   000073   9404         SUBB    A,#0x4
   \   000075   4003         JC      ??ZDO_ProcessMgmtLqiReq_1
   1143                numItems = ZDO_MAX_LQI_ITEMS;
   \   000077   75..03       MOV     ?V0 + 1,#0x3
   1144          
   1145              // Allocate the memory to build the table
   1146              table = (ZDP_MgmtLqiItem_t*)osal_mem_alloc( (short)
   1147                        ( numItems * sizeof( ZDP_MgmtLqiItem_t ) ) );
   \                     ??ZDO_ProcessMgmtLqiReq_1:
   \   00007A                ; Setup parameters for call to function osal_mem_alloc
   \   00007A   E5..         MOV     A,?V0 + 1
   \   00007C   AA..         MOV     R2,?V0 + 1
   \   00007E   7B00         MOV     R3,#0x0
   \   000080   EA           MOV     A,R2
   \   000081   75F01A       MOV     B,#0x1a
   \   000084   A4           MUL     AB
   \   000085   CA           XCH     A,R2
   \   000086   A8F0         MOV     R0,B
   \   000088   75F000       MOV     B,#0x0
   \   00008B   A4           MUL     AB
   \   00008C   28           ADD     A,R0
   \   00008D   F8           MOV     R0,A
   \   00008E   75F01A       MOV     B,#0x1a
   \   000091   EB           MOV     A,R3
   \   000092   A4           MUL     AB
   \   000093   28           ADD     A,R0
   \   000094   FB           MOV     R3,A
   \   000095   12....       LCALL   ??osal_mem_alloc?relay
   \   000098   8A..         MOV     ?V0 + 8,R2
   \   00009A   8B..         MOV     ?V0 + 9,R3
   \   00009C   85....       MOV     ?V0 + 6,?V0 + 8
   \   00009F   85....       MOV     ?V0 + 7,?V0 + 9
   1148          
   1149              if ( table != NULL )
   \   0000A2   E5..         MOV     A,?V0 + 6
   \   0000A4   45..         ORL     A,?V0 + 7
   \   0000A6   7003         JNZ     $+5
   \   0000A8   02....       LJMP    ??ZDO_ProcessMgmtLqiReq_2 & 0xFFFF
   1150              {
   1151                x = 0;
   \   0000AB   75..00       MOV     ?V0 + 3,#0x0
   1152                item = table;
   \   0000AE   AE..         MOV     R6,?V0 + 6
   \   0000B0   AF..         MOV     R7,?V0 + 7
   1153                index = StartIndex;
   \   0000B2   85....       MOV     ?V0 + 0,?V0 + 2
   1154          
   1155                // Loop through associated items and build list
   1156                for ( ; x < numItems; x++ )
   \                     ??ZDO_ProcessMgmtLqiReq_3:
   \   0000B5   E5..         MOV     A,?V0 + 3
   \   0000B7   C3           CLR     C
   \   0000B8   95..         SUBB    A,?V0 + 1
   \   0000BA   4003         JC      $+5
   \   0000BC   02....       LJMP    ??ZDO_ProcessMgmtLqiReq_4 & 0xFFFF
   1157                {
   1158                  if ( index < aItems )
   \   0000BF   E5..         MOV     A,?V0 + 0
   \   0000C1   C3           CLR     C
   \   0000C2   95..         SUBB    A,?V0 + 10
   \   0000C4   4003         JC      $+5
   \   0000C6   02....       LJMP    ??ZDO_ProcessMgmtLqiReq_5 & 0xFFFF
   1159                  {
   1160                    // get next associated device
   1161                    aDevice = AssocFindDevice( index++ );
   \   0000C9                ; Setup parameters for call to function AssocFindDevice
   \   0000C9   A9..         MOV     R1,?V0 + 0
   \   0000CB   12....       LCALL   ??AssocFindDevice?relay
   \   0000CE   8A..         MOV     ?V0 + 8,R2
   \   0000D0   8B..         MOV     ?V0 + 9,R3
   \   0000D2   85....       MOV     ?V0 + 4,?V0 + 8
   \   0000D5   85....       MOV     ?V0 + 5,?V0 + 9
   \   0000D8   05..         INC     ?V0 + 0
   1162          
   1163                    // set basic fields
   1164                    item->panID   = _NIB.nwkPanId;
   \   0000DA   90....       MOV     DPTR,#_NIB + 33
   \   0000DD   E0           MOVX    A,@DPTR
   \   0000DE   F8           MOV     R0,A
   \   0000DF   A3           INC     DPTR
   \   0000E0   E0           MOVX    A,@DPTR
   \   0000E1   F9           MOV     R1,A
   \   0000E2   8E82         MOV     DPL,R6
   \   0000E4   8F83         MOV     DPH,R7
   \   0000E6   E8           MOV     A,R0
   \   0000E7   F0           MOVX    @DPTR,A
   \   0000E8   A3           INC     DPTR
   \   0000E9   E9           MOV     A,R1
   \   0000EA   F0           MOVX    @DPTR,A
   1165                    osal_cpyExtAddr( item->extPanID, _NIB.extendedPANID );
   \   0000EB                ; Setup parameters for call to function sAddrExtCpy
   \   0000EB   7C..         MOV     R4,#(_NIB + 53) & 0xff
   \   0000ED   7D..         MOV     R5,#((_NIB + 53) >> 8) & 0xff
   \   0000EF   EE           MOV     A,R6
   \   0000F0   2402         ADD     A,#0x2
   \   0000F2   FA           MOV     R2,A
   \   0000F3   EF           MOV     A,R7
   \   0000F4   3400         ADDC    A,#0x0
   \   0000F6   FB           MOV     R3,A
   \   0000F7   12....       LCALL   ??sAddrExtCpy?relay
   1166                    item->nwkAddr = aDevice->shortAddr;
   \   0000FA   85..82       MOV     DPL,?V0 + 4
   \   0000FD   85..83       MOV     DPH,?V0 + 5
   \   000100   E0           MOVX    A,@DPTR
   \   000101   F8           MOV     R0,A
   \   000102   A3           INC     DPTR
   \   000103   E0           MOVX    A,@DPTR
   \   000104   F9           MOV     R1,A
   \   000105   EE           MOV     A,R6
   \   000106   2412         ADD     A,#0x12
   \   000108   F582         MOV     DPL,A
   \   00010A   EF           MOV     A,R7
   \   00010B   3400         ADDC    A,#0x0
   \   00010D   F583         MOV     DPH,A
   \   00010F   E8           MOV     A,R0
   \   000110   F0           MOVX    @DPTR,A
   \   000111   A3           INC     DPTR
   \   000112   E9           MOV     A,R1
   \   000113   F0           MOVX    @DPTR,A
   1167                    item->permit  = ZDP_MGMT_BOOL_UNKNOWN;
   \   000114   EE           MOV     A,R6
   \   000115   2417         ADD     A,#0x17
   \   000117   F582         MOV     DPL,A
   \   000119   EF           MOV     A,R7
   \   00011A   3400         ADDC    A,#0x0
   \   00011C   F583         MOV     DPH,A
   \   00011E   7402         MOV     A,#0x2
   \   000120   F0           MOVX    @DPTR,A
   1168                    item->depth   = 0xFF;
   \   000121   EE           MOV     A,R6
   \   000122   2418         ADD     A,#0x18
   \   000124   F582         MOV     DPL,A
   \   000126   EF           MOV     A,R7
   \   000127   3400         ADDC    A,#0x0
   \   000129   F583         MOV     DPH,A
   \   00012B   74FF         MOV     A,#-0x1
   \   00012D   F0           MOVX    @DPTR,A
   1169                    item->lqi     = aDevice->linkInfo.rxLqi;
   \   00012E   85..82       MOV     DPL,?V0 + 4
   \   000131   85..83       MOV     DPH,?V0 + 5
   \   000134   A3           INC     DPTR
   \   000135   A3           INC     DPTR
   \   000136   A3           INC     DPTR
   \   000137   A3           INC     DPTR
   \   000138   A3           INC     DPTR
   \   000139   A3           INC     DPTR
   \   00013A   A3           INC     DPTR
   \   00013B   A3           INC     DPTR
   \   00013C   A3           INC     DPTR
   \   00013D   A3           INC     DPTR
   \   00013E   E0           MOVX    A,@DPTR
   \   00013F   C0E0         PUSH    A
   \   000141   EE           MOV     A,R6
   \   000142   2419         ADD     A,#0x19
   \   000144   F582         MOV     DPL,A
   \   000146   EF           MOV     A,R7
   \   000147   3400         ADDC    A,#0x0
   \   000149   F583         MOV     DPH,A
   \   00014B   D0E0         POP     A
   \   00014D   F0           MOVX    @DPTR,A
   1170          
   1171                    // set extented address
   1172                    nwkEntry.user    = ADDRMGR_USER_DEFAULT;
   \   00014E   7401         MOV     A,#0x1
   \   000150   12....       LCALL   ?XSTACK_DISP0_8
   \   000153   7400         MOV     A,#0x0
   \   000155   F0           MOVX    @DPTR,A
   1173                    nwkEntry.nwkAddr = aDevice->shortAddr;
   \   000156   85..82       MOV     DPL,?V0 + 4
   \   000159   85..83       MOV     DPH,?V0 + 5
   \   00015C   E0           MOVX    A,@DPTR
   \   00015D   F8           MOV     R0,A
   \   00015E   A3           INC     DPTR
   \   00015F   E0           MOVX    A,@DPTR
   \   000160   F9           MOV     R1,A
   \   000161   7402         MOV     A,#0x2
   \   000163   12....       LCALL   ?XSTACK_DISP0_8
   \   000166   E8           MOV     A,R0
   \   000167   F0           MOVX    @DPTR,A
   \   000168   A3           INC     DPTR
   \   000169   E9           MOV     A,R1
   \   00016A   F0           MOVX    @DPTR,A
   1174          
   1175                    if ( AddrMgrEntryLookupNwk( &nwkEntry ) == TRUE )
   \   00016B                ; Setup parameters for call to function AddrMgrEntryLookupNwk
   \   00016B   7401         MOV     A,#0x1
   \   00016D   12....       LCALL   ?XSTACK_DISP0_8
   \   000170   AA82         MOV     R2,DPL
   \   000172   AB83         MOV     R3,DPH
   \   000174   12....       LCALL   ??AddrMgrEntryLookupNwk?relay
   \   000177   E9           MOV     A,R1
   \   000178   6401         XRL     A,#0x1
   \   00017A   7016         JNZ     ??ZDO_ProcessMgmtLqiReq_6
   1176                    {
   1177                      osal_cpyExtAddr( item->extAddr, nwkEntry.extAddr );
   \   00017C                ; Setup parameters for call to function sAddrExtCpy
   \   00017C   7404         MOV     A,#0x4
   \   00017E   12....       LCALL   ?XSTACK_DISP0_8
   \   000181   AC82         MOV     R4,DPL
   \   000183   AD83         MOV     R5,DPH
   \   000185   EE           MOV     A,R6
   \   000186   240A         ADD     A,#0xa
   \   000188   FA           MOV     R2,A
   \   000189   EF           MOV     A,R7
   \   00018A   3400         ADDC    A,#0x0
   \   00018C   FB           MOV     R3,A
   \   00018D   12....       LCALL   ??sAddrExtCpy?relay
   \   000190   8011         SJMP    ??ZDO_ProcessMgmtLqiReq_7
   1178                    }
   1179                    else
   1180                    {
   1181                      osal_memset( item->extAddr, 0xFF, Z_EXTADDR_LEN );
   \                     ??ZDO_ProcessMgmtLqiReq_6:
   \   000192                ; Setup parameters for call to function osal_memset
   \   000192   7C08         MOV     R4,#0x8
   \   000194   7D00         MOV     R5,#0x0
   \   000196   79FF         MOV     R1,#-0x1
   \   000198   EE           MOV     A,R6
   \   000199   240A         ADD     A,#0xa
   \   00019B   FA           MOV     R2,A
   \   00019C   EF           MOV     A,R7
   \   00019D   3400         ADDC    A,#0x0
   \   00019F   FB           MOV     R3,A
   \   0001A0   12....       LCALL   ??osal_memset?relay
   1182                    }
   1183          
   1184                    // use association info to set other fields
   1185                    if ( aDevice->nodeRelation == PARENT )
   \                     ??ZDO_ProcessMgmtLqiReq_7:
   \   0001A3   85..82       MOV     DPL,?V0 + 4
   \   0001A6   85..83       MOV     DPH,?V0 + 5
   \   0001A9   A3           INC     DPTR
   \   0001AA   A3           INC     DPTR
   \   0001AB   A3           INC     DPTR
   \   0001AC   A3           INC     DPTR
   \   0001AD   E0           MOVX    A,@DPTR
   \   0001AE   706A         JNZ     ??ZDO_ProcessMgmtLqiReq_8
   1186                    {
   1187                      if (  aDevice->shortAddr == 0 )
   \   0001B0   85..82       MOV     DPL,?V0 + 4
   \   0001B3   85..83       MOV     DPH,?V0 + 5
   \   0001B6   E0           MOVX    A,@DPTR
   \   0001B7   F8           MOV     R0,A
   \   0001B8   A3           INC     DPTR
   \   0001B9   E0           MOVX    A,@DPTR
   \   0001BA   F9           MOV     R1,A
   \   0001BB   E8           MOV     A,R0
   \   0001BC   49           ORL     A,R1
   \   0001BD   701C         JNZ     ??ZDO_ProcessMgmtLqiReq_9
   1188                      {
   1189                        item->devType = ZDP_MGMT_DT_COORD;
   \   0001BF   EE           MOV     A,R6
   \   0001C0   2414         ADD     A,#0x14
   \   0001C2   F582         MOV     DPL,A
   \   0001C4   EF           MOV     A,R7
   \   0001C5   3400         ADDC    A,#0x0
   \   0001C7   F583         MOV     DPH,A
   \   0001C9   7400         MOV     A,#0x0
   \   0001CB   F0           MOVX    @DPTR,A
   1190                        item->depth = 0;
   \   0001CC   EE           MOV     A,R6
   \   0001CD   2418         ADD     A,#0x18
   \   0001CF   F582         MOV     DPL,A
   \   0001D1   EF           MOV     A,R7
   \   0001D2   3400         ADDC    A,#0x0
   \   0001D4   F583         MOV     DPH,A
   \   0001D6   7400         MOV     A,#0x0
   \   0001D8   F0           MOVX    @DPTR,A
   \   0001D9   8022         SJMP    ??ZDO_ProcessMgmtLqiReq_10
   1191                      }
   1192                      else
   1193                      {
   1194                        item->devType = ZDP_MGMT_DT_ROUTER;
   \                     ??ZDO_ProcessMgmtLqiReq_9:
   \   0001DB   EE           MOV     A,R6
   \   0001DC   2414         ADD     A,#0x14
   \   0001DE   F582         MOV     DPL,A
   \   0001E0   EF           MOV     A,R7
   \   0001E1   3400         ADDC    A,#0x0
   \   0001E3   F583         MOV     DPH,A
   \   0001E5   7401         MOV     A,#0x1
   \   0001E7   F0           MOVX    @DPTR,A
   1195                        item->depth = _NIB.nodeDepth - 1;
   \   0001E8   90....       MOV     DPTR,#_NIB + 52
   \   0001EB   E0           MOVX    A,@DPTR
   \   0001EC   24FF         ADD     A,#-0x1
   \   0001EE   C0E0         PUSH    A
   \   0001F0   EE           MOV     A,R6
   \   0001F1   2418         ADD     A,#0x18
   \   0001F3   F582         MOV     DPL,A
   \   0001F5   EF           MOV     A,R7
   \   0001F6   3400         ADDC    A,#0x0
   \   0001F8   F583         MOV     DPH,A
   \   0001FA   D0E0         POP     A
   \   0001FC   F0           MOVX    @DPTR,A
   1196                      }
   1197          
   1198                      item->rxOnIdle = ZDP_MGMT_BOOL_UNKNOWN;
   \                     ??ZDO_ProcessMgmtLqiReq_10:
   \   0001FD   EE           MOV     A,R6
   \   0001FE   2415         ADD     A,#0x15
   \   000200   F582         MOV     DPL,A
   \   000202   EF           MOV     A,R7
   \   000203   3400         ADDC    A,#0x0
   \   000205   F583         MOV     DPH,A
   \   000207   7402         MOV     A,#0x2
   \   000209   F0           MOVX    @DPTR,A
   1199                      item->relation = ZDP_MGMT_REL_PARENT;
   \   00020A   EE           MOV     A,R6
   \   00020B   2416         ADD     A,#0x16
   \   00020D   F582         MOV     DPL,A
   \   00020F   EF           MOV     A,R7
   \   000210   3400         ADDC    A,#0x0
   \   000212   F583         MOV     DPH,A
   \   000214   7400         MOV     A,#0x0
   \   000216   F0           MOVX    @DPTR,A
   \   000217   02....       LJMP    ??ZDO_ProcessMgmtLqiReq_11 & 0xFFFF
   1200                    }
   1201                    else
   1202                    {
   1203                      // If not parent, then it's a child
   1204                      item->depth = _NIB.nodeDepth + 1;
   \                     ??ZDO_ProcessMgmtLqiReq_8:
   \   00021A   90....       MOV     DPTR,#_NIB + 52
   \   00021D   E0           MOVX    A,@DPTR
   \   00021E   2401         ADD     A,#0x1
   \   000220   C0E0         PUSH    A
   \   000222   EE           MOV     A,R6
   \   000223   2418         ADD     A,#0x18
   \   000225   F582         MOV     DPL,A
   \   000227   EF           MOV     A,R7
   \   000228   3400         ADDC    A,#0x0
   \   00022A   F583         MOV     DPH,A
   \   00022C   D0E0         POP     A
   \   00022E   F0           MOVX    @DPTR,A
   1205          
   1206                      if ( aDevice->nodeRelation < CHILD_FFD )
   \   00022F   85..82       MOV     DPL,?V0 + 4
   \   000232   85..83       MOV     DPH,?V0 + 5
   \   000235   A3           INC     DPTR
   \   000236   A3           INC     DPTR
   \   000237   A3           INC     DPTR
   \   000238   A3           INC     DPTR
   \   000239   E0           MOVX    A,@DPTR
   \   00023A   C3           CLR     C
   \   00023B   9403         SUBB    A,#0x3
   \   00023D   503A         JNC     ??ZDO_ProcessMgmtLqiReq_12
   1207                      {
   1208                        item->devType = ZDP_MGMT_DT_ENDDEV;
   \   00023F   EE           MOV     A,R6
   \   000240   2414         ADD     A,#0x14
   \   000242   F582         MOV     DPL,A
   \   000244   EF           MOV     A,R7
   \   000245   3400         ADDC    A,#0x0
   \   000247   F583         MOV     DPH,A
   \   000249   7402         MOV     A,#0x2
   \   00024B   F0           MOVX    @DPTR,A
   1209          
   1210                        if ( aDevice->nodeRelation == CHILD_RFD )
   \   00024C   85..82       MOV     DPL,?V0 + 4
   \   00024F   85..83       MOV     DPH,?V0 + 5
   \   000252   A3           INC     DPTR
   \   000253   A3           INC     DPTR
   \   000254   A3           INC     DPTR
   \   000255   A3           INC     DPTR
   \   000256   E0           MOVX    A,@DPTR
   \   000257   6401         XRL     A,#0x1
   \   000259   700F         JNZ     ??ZDO_ProcessMgmtLqiReq_13
   1211                        {
   1212                          item->rxOnIdle = FALSE;
   \   00025B   EE           MOV     A,R6
   \   00025C   2415         ADD     A,#0x15
   \   00025E   F582         MOV     DPL,A
   \   000260   EF           MOV     A,R7
   \   000261   3400         ADDC    A,#0x0
   \   000263   F583         MOV     DPH,A
   \   000265   7400         MOV     A,#0x0
   \   000267   F0           MOVX    @DPTR,A
   \   000268   8047         SJMP    ??ZDO_ProcessMgmtLqiReq_14
   1213                        }
   1214                        else
   1215                        {
   1216                          item->rxOnIdle = TRUE;
   \                     ??ZDO_ProcessMgmtLqiReq_13:
   \   00026A   EE           MOV     A,R6
   \   00026B   2415         ADD     A,#0x15
   \   00026D   F582         MOV     DPL,A
   \   00026F   EF           MOV     A,R7
   \   000270   3400         ADDC    A,#0x0
   \   000272   F583         MOV     DPH,A
   \   000274   7401         MOV     A,#0x1
   \   000276   F0           MOVX    @DPTR,A
   \   000277   8038         SJMP    ??ZDO_ProcessMgmtLqiReq_14
   1217                        }
   1218                      }
   1219                      else
   1220                      {
   1221                        item->devType = ZDP_MGMT_DT_ROUTER;
   \                     ??ZDO_ProcessMgmtLqiReq_12:
   \   000279   EE           MOV     A,R6
   \   00027A   2414         ADD     A,#0x14
   \   00027C   F582         MOV     DPL,A
   \   00027E   EF           MOV     A,R7
   \   00027F   3400         ADDC    A,#0x0
   \   000281   F583         MOV     DPH,A
   \   000283   7401         MOV     A,#0x1
   \   000285   F0           MOVX    @DPTR,A
   1222          
   1223                        if ( aDevice->nodeRelation == CHILD_FFD )
   \   000286   85..82       MOV     DPL,?V0 + 4
   \   000289   85..83       MOV     DPH,?V0 + 5
   \   00028C   A3           INC     DPTR
   \   00028D   A3           INC     DPTR
   \   00028E   A3           INC     DPTR
   \   00028F   A3           INC     DPTR
   \   000290   E0           MOVX    A,@DPTR
   \   000291   6403         XRL     A,#0x3
   \   000293   700F         JNZ     ??ZDO_ProcessMgmtLqiReq_15
   1224                        {
   1225                          item->rxOnIdle = FALSE;
   \   000295   EE           MOV     A,R6
   \   000296   2415         ADD     A,#0x15
   \   000298   F582         MOV     DPL,A
   \   00029A   EF           MOV     A,R7
   \   00029B   3400         ADDC    A,#0x0
   \   00029D   F583         MOV     DPH,A
   \   00029F   7400         MOV     A,#0x0
   \   0002A1   F0           MOVX    @DPTR,A
   \   0002A2   800D         SJMP    ??ZDO_ProcessMgmtLqiReq_14
   1226                        }
   1227                        else
   1228                        {
   1229                          item->rxOnIdle = TRUE;
   \                     ??ZDO_ProcessMgmtLqiReq_15:
   \   0002A4   EE           MOV     A,R6
   \   0002A5   2415         ADD     A,#0x15
   \   0002A7   F582         MOV     DPL,A
   \   0002A9   EF           MOV     A,R7
   \   0002AA   3400         ADDC    A,#0x0
   \   0002AC   F583         MOV     DPH,A
   \   0002AE   7401         MOV     A,#0x1
   \   0002B0   F0           MOVX    @DPTR,A
   1230                        }
   1231                      }
   1232          
   1233                      item->relation = ZDP_MGMT_REL_CHILD;
   \                     ??ZDO_ProcessMgmtLqiReq_14:
   \   0002B1   EE           MOV     A,R6
   \   0002B2   2416         ADD     A,#0x16
   \   0002B4   F582         MOV     DPL,A
   \   0002B6   EF           MOV     A,R7
   \   0002B7   3400         ADDC    A,#0x0
   \   0002B9   F583         MOV     DPH,A
   \   0002BB   7401         MOV     A,#0x1
   \   0002BD   F0           MOVX    @DPTR,A
   1234                    }
   1235          
   1236                    item++;
   \                     ??ZDO_ProcessMgmtLqiReq_11:
   \   0002BE   EE           MOV     A,R6
   \   0002BF   241A         ADD     A,#0x1a
   \   0002C1   FE           MOV     R6,A
   \   0002C2   EF           MOV     A,R7
   \   0002C3   3400         ADDC    A,#0x0
   \   0002C5   FF           MOV     R7,A
   1237                  }
   \   0002C6   05..         INC     ?V0 + 3
   \   0002C8   02....       LJMP    ??ZDO_ProcessMgmtLqiReq_3 & 0xFFFF
   1238                  else
   1239                  {
   1240                    if ( StartIndex <= aItems )
   \                     ??ZDO_ProcessMgmtLqiReq_5:
   \   0002CB   E5..         MOV     A,?V0 + 10
   \   0002CD   C3           CLR     C
   \   0002CE   95..         SUBB    A,?V0 + 2
   \   0002D0   4005         JC      ??ZDO_ProcessMgmtLqiReq_16
   1241                      // Start with 1st neighbor
   1242                      index = 0;
   \   0002D2   75..00       MOV     ?V0 + 0,#0x0
   \   0002D5   8007         SJMP    ??ZDO_ProcessMgmtLqiReq_4
   1243                    else
   1244                      // Start with >1st neighbor
   1245                      index = StartIndex - aItems;
   \                     ??ZDO_ProcessMgmtLqiReq_16:
   \   0002D7   E5..         MOV     A,?V0 + 2
   \   0002D9   C3           CLR     C
   \   0002DA   95..         SUBB    A,?V0 + 10
   \   0002DC   F5..         MOV     ?V0 + 0,A
   1246                    break;
   1247                  }
   1248                }
   1249          
   1250                // Loop through neighbor items and finish list
   1251                for ( ; x < numItems; x++ )
   \                     ??ZDO_ProcessMgmtLqiReq_4:
   \   0002DE   E5..         MOV     A,?V0 + 3
   \   0002E0   C3           CLR     C
   \   0002E1   95..         SUBB    A,?V0 + 1
   \   0002E3   4003         JC      $+5
   \   0002E5   02....       LJMP    ??ZDO_ProcessMgmtLqiReq_2 & 0xFFFF
   1252                {
   1253                  // Add next neighbor table item
   1254                  NLME_GetRequest( nwkNeighborTable, index++, &entry );
   \   0002E8                ; Setup parameters for call to function NLME_GetRequest
   \   0002E8   740E         MOV     A,#0xe
   \   0002EA   12....       LCALL   ?XSTACK_DISP0_8
   \   0002ED   AC82         MOV     R4,DPL
   \   0002EF   AD83         MOV     R5,DPH
   \   0002F1   85....       MOV     ?V0 + 8,?V0 + 0
   \   0002F4   75..00       MOV     ?V0 + 9,#0x0
   \   0002F7   AA..         MOV     R2,?V0 + 8
   \   0002F9   AB..         MOV     R3,?V0 + 9
   \   0002FB   7987         MOV     R1,#-0x79
   \   0002FD   12....       LCALL   ??NLME_GetRequest?relay
   \   000300   E9           MOV     A,R1
   \   000301   05..         INC     ?V0 + 0
   1255          
   1256                  // set ZDP_MgmtLqiItem_t fields
   1257                  item->panID    = entry.panId;
   \   000303   7418         MOV     A,#0x18
   \   000305   12....       LCALL   ?XSTACK_DISP0_8
   \   000308   E0           MOVX    A,@DPTR
   \   000309   F8           MOV     R0,A
   \   00030A   A3           INC     DPTR
   \   00030B   E0           MOVX    A,@DPTR
   \   00030C   F9           MOV     R1,A
   \   00030D   8E82         MOV     DPL,R6
   \   00030F   8F83         MOV     DPH,R7
   \   000311   E8           MOV     A,R0
   \   000312   F0           MOVX    @DPTR,A
   \   000313   A3           INC     DPTR
   \   000314   E9           MOV     A,R1
   \   000315   F0           MOVX    @DPTR,A
   1258                  osal_cpyExtAddr( item->extPanID, _NIB.extendedPANID );
   \   000316                ; Setup parameters for call to function sAddrExtCpy
   \   000316   7C..         MOV     R4,#(_NIB + 53) & 0xff
   \   000318   7D..         MOV     R5,#((_NIB + 53) >> 8) & 0xff
   \   00031A   EE           MOV     A,R6
   \   00031B   2402         ADD     A,#0x2
   \   00031D   FA           MOV     R2,A
   \   00031E   EF           MOV     A,R7
   \   00031F   3400         ADDC    A,#0x0
   \   000321   FB           MOV     R3,A
   \   000322   12....       LCALL   ??sAddrExtCpy?relay
   1259                  osal_memset( item->extAddr, 0xFF, Z_EXTADDR_LEN );
   \   000325                ; Setup parameters for call to function osal_memset
   \   000325   7C08         MOV     R4,#0x8
   \   000327   7D00         MOV     R5,#0x0
   \   000329   79FF         MOV     R1,#-0x1
   \   00032B   EE           MOV     A,R6
   \   00032C   240A         ADD     A,#0xa
   \   00032E   FA           MOV     R2,A
   \   00032F   EF           MOV     A,R7
   \   000330   3400         ADDC    A,#0x0
   \   000332   FB           MOV     R3,A
   \   000333   12....       LCALL   ??osal_memset?relay
   1260                  item->nwkAddr  = entry.neighborAddress;
   \   000336   740E         MOV     A,#0xe
   \   000338   12....       LCALL   ?XSTACK_DISP0_8
   \   00033B   E0           MOVX    A,@DPTR
   \   00033C   F8           MOV     R0,A
   \   00033D   A3           INC     DPTR
   \   00033E   E0           MOVX    A,@DPTR
   \   00033F   F9           MOV     R1,A
   \   000340   EE           MOV     A,R6
   \   000341   2412         ADD     A,#0x12
   \   000343   F582         MOV     DPL,A
   \   000345   EF           MOV     A,R7
   \   000346   3400         ADDC    A,#0x0
   \   000348   F583         MOV     DPH,A
   \   00034A   E8           MOV     A,R0
   \   00034B   F0           MOVX    @DPTR,A
   \   00034C   A3           INC     DPTR
   \   00034D   E9           MOV     A,R1
   \   00034E   F0           MOVX    @DPTR,A
   1261                  item->rxOnIdle = ZDP_MGMT_BOOL_UNKNOWN;
   \   00034F   EE           MOV     A,R6
   \   000350   2415         ADD     A,#0x15
   \   000352   F582         MOV     DPL,A
   \   000354   EF           MOV     A,R7
   \   000355   3400         ADDC    A,#0x0
   \   000357   F583         MOV     DPH,A
   \   000359   7402         MOV     A,#0x2
   \   00035B   F0           MOVX    @DPTR,A
   1262                  item->relation = ZDP_MGMT_REL_UNKNOWN;
   \   00035C   EE           MOV     A,R6
   \   00035D   2416         ADD     A,#0x16
   \   00035F   F582         MOV     DPL,A
   \   000361   EF           MOV     A,R7
   \   000362   3400         ADDC    A,#0x0
   \   000364   F583         MOV     DPH,A
   \   000366   7403         MOV     A,#0x3
   \   000368   F0           MOVX    @DPTR,A
   1263                  item->permit   = ZDP_MGMT_BOOL_UNKNOWN;
   \   000369   EE           MOV     A,R6
   \   00036A   2417         ADD     A,#0x17
   \   00036C   F582         MOV     DPL,A
   \   00036E   EF           MOV     A,R7
   \   00036F   3400         ADDC    A,#0x0
   \   000371   F583         MOV     DPH,A
   \   000373   7402         MOV     A,#0x2
   \   000375   F0           MOVX    @DPTR,A
   1264                  item->depth    = 0xFF;
   \   000376   EE           MOV     A,R6
   \   000377   2418         ADD     A,#0x18
   \   000379   F582         MOV     DPL,A
   \   00037B   EF           MOV     A,R7
   \   00037C   3400         ADDC    A,#0x0
   \   00037E   F583         MOV     DPH,A
   \   000380   74FF         MOV     A,#-0x1
   \   000382   F0           MOVX    @DPTR,A
   1265                  item->lqi      = entry.linkInfo.rxLqi;
   \   000383   741D         MOV     A,#0x1d
   \   000385   12....       LCALL   ?XSTACK_DISP0_8
   \   000388   E0           MOVX    A,@DPTR
   \   000389   C0E0         PUSH    A
   \   00038B   EE           MOV     A,R6
   \   00038C   2419         ADD     A,#0x19
   \   00038E   F582         MOV     DPL,A
   \   000390   EF           MOV     A,R7
   \   000391   3400         ADDC    A,#0x0
   \   000393   F583         MOV     DPH,A
   \   000395   D0E0         POP     A
   \   000397   F0           MOVX    @DPTR,A
   1266          
   1267                  if ( item->nwkAddr == 0 )
   \   000398   EE           MOV     A,R6
   \   000399   2412         ADD     A,#0x12
   \   00039B   F582         MOV     DPL,A
   \   00039D   EF           MOV     A,R7
   \   00039E   3400         ADDC    A,#0x0
   \   0003A0   F583         MOV     DPH,A
   \   0003A2   E0           MOVX    A,@DPTR
   \   0003A3   F8           MOV     R0,A
   \   0003A4   A3           INC     DPTR
   \   0003A5   E0           MOVX    A,@DPTR
   \   0003A6   F9           MOV     R1,A
   \   0003A7   E8           MOV     A,R0
   \   0003A8   49           ORL     A,R1
   \   0003A9   700F         JNZ     ??ZDO_ProcessMgmtLqiReq_17
   1268                  {
   1269                    item->devType = ZDP_MGMT_DT_COORD;
   \   0003AB   EE           MOV     A,R6
   \   0003AC   2414         ADD     A,#0x14
   \   0003AE   F582         MOV     DPL,A
   \   0003B0   EF           MOV     A,R7
   \   0003B1   3400         ADDC    A,#0x0
   \   0003B3   F583         MOV     DPH,A
   \   0003B5   7400         MOV     A,#0x0
   \   0003B7   F0           MOVX    @DPTR,A
   \   0003B8   800D         SJMP    ??ZDO_ProcessMgmtLqiReq_18
   1270                  }
   1271                  else
   1272                  {
   1273                    item->devType = ZDP_MGMT_DT_ROUTER;
   \                     ??ZDO_ProcessMgmtLqiReq_17:
   \   0003BA   EE           MOV     A,R6
   \   0003BB   2414         ADD     A,#0x14
   \   0003BD   F582         MOV     DPL,A
   \   0003BF   EF           MOV     A,R7
   \   0003C0   3400         ADDC    A,#0x0
   \   0003C2   F583         MOV     DPH,A
   \   0003C4   7401         MOV     A,#0x1
   \   0003C6   F0           MOVX    @DPTR,A
   1274                  }
   1275          
   1276                  item++;
   \                     ??ZDO_ProcessMgmtLqiReq_18:
   \   0003C7   EE           MOV     A,R6
   \   0003C8   241A         ADD     A,#0x1a
   \   0003CA   FE           MOV     R6,A
   \   0003CB   EF           MOV     A,R7
   \   0003CC   3400         ADDC    A,#0x0
   \   0003CE   FF           MOV     R7,A
   1277                }
   \   0003CF   05..         INC     ?V0 + 3
   \   0003D1   02....       LJMP    ??ZDO_ProcessMgmtLqiReq_4 & 0xFFFF
   1278              }
   1279            }
   1280            else
   1281            {
   1282              numItems = 0;
   \                     ??ZDO_ProcessMgmtLqiReq_0:
   \   0003D4   75..00       MOV     ?V0 + 1,#0x0
   1283            }
   1284          
   1285            // Send response
   1286            ZDP_MgmtLqiRsp( inMsg->TransSeq, &(inMsg->srcAddr), ZSuccess, maxItems,
   1287                            StartIndex, numItems, table, false );
   \                     ??ZDO_ProcessMgmtLqiReq_2:
   \   0003D7                ; Setup parameters for call to function ZDP_MgmtLqiRsp
   \   0003D7   75..00       MOV     ?V0 + 8,#0x0
   \   0003DA   78..         MOV     R0,#?V0 + 8
   \   0003DC   12....       LCALL   ?PUSH_XSTACK_I_ONE
   \   0003DF   78..         MOV     R0,#?V0 + 6
   \   0003E1   12....       LCALL   ?PUSH_XSTACK_I_TWO
   \   0003E4   E5..         MOV     A,?V0 + 1
   \   0003E6   F5..         MOV     ?V0 + 8,A
   \   0003E8   78..         MOV     R0,#?V0 + 8
   \   0003EA   12....       LCALL   ?PUSH_XSTACK_I_ONE
   \   0003ED   E5..         MOV     A,?V0 + 2
   \   0003EF   F5..         MOV     ?V0 + 8,A
   \   0003F1   78..         MOV     R0,#?V0 + 8
   \   0003F3   12....       LCALL   ?PUSH_XSTACK_I_ONE
   \   0003F6   7405         MOV     A,#0x5
   \   0003F8   12....       LCALL   ?XSTACK_DISP0_8
   \   0003FB   E0           MOVX    A,@DPTR
   \   0003FC   FD           MOV     R5,A
   \   0003FD   7C00         MOV     R4,#0x0
   \   0003FF   E5..         MOV     A,?V0 + 12
   \   000401   2402         ADD     A,#0x2
   \   000403   FA           MOV     R2,A
   \   000404   E5..         MOV     A,?V0 + 13
   \   000406   3400         ADDC    A,#0x0
   \   000408   FB           MOV     R3,A
   \   000409   E5..         MOV     A,?V0 + 12
   \   00040B   240F         ADD     A,#0xf
   \   00040D   F582         MOV     DPL,A
   \   00040F   E5..         MOV     A,?V0 + 13
   \   000411   3400         ADDC    A,#0x0
   \   000413   F583         MOV     DPH,A
   \   000415   E0           MOVX    A,@DPTR
   \   000416   F9           MOV     R1,A
   \   000417   12....       LCALL   ??ZDP_MgmtLqiRsp?relay
   \   00041A   7405         MOV     A,#0x5
   \   00041C   12....       LCALL   ?DEALLOC_XSTACK8
   \   00041F   E9           MOV     A,R1
   1288          
   1289            if ( table )
   \   000420   E5..         MOV     A,?V0 + 6
   \   000422   45..         ORL     A,?V0 + 7
   \   000424   6007         JZ      ??ZDO_ProcessMgmtLqiReq_19
   1290            {
   1291              osal_mem_free( table );
   \   000426                ; Setup parameters for call to function osal_mem_free
   \   000426   AA..         MOV     R2,?V0 + 6
   \   000428   AB..         MOV     R3,?V0 + 7
   \   00042A   12....       LCALL   ??osal_mem_free?relay
   1292            }
   1293          }
   \                     ??ZDO_ProcessMgmtLqiReq_19:
   \   00042D   7425         MOV     A,#0x25
   \   00042F   12....       LCALL   ?DEALLOC_XSTACK8
   \   000432   7F0E         MOV     R7,#0xe
   \   000434   02....       LJMP    ?BANKED_LEAVE_XDATA
   1294          
   1295          /*********************************************************************
   1296           * @fn          ZDO_ProcessMgmtNwkDiscReq
   1297           *
   1298           * @brief       This function handles parsing the incoming Management
   1299           *              Network Discover request and starts the request.
   1300           *
   1301           * @param       inMsg - incoming message (request)
   1302           *
   1303           * @return      none
   1304           */

   \                                 In  segment BANKED_CODE, align 1, keep-with-next
   1305          void ZDO_ProcessMgmtNwkDiscReq( zdoIncomingMsg_t *inMsg )
   \                     ZDO_ProcessMgmtNwkDiscReq:
   1306          {
   \   000000   74F5         MOV     A,#-0xb
   \   000002   12....       LCALL   ?BANKED_ENTER_XDATA
   \   000005                ; Saved register size: 11
   \   000005                ; Auto size: 7
   \   000005   74F9         MOV     A,#-0x7
   \   000007   12....       LCALL   ?ALLOC_XSTACK8
   \   00000A   8A..         MOV     ?V0 + 0,R2
   \   00000C   8B..         MOV     ?V0 + 1,R3
   1307            NLME_ScanFields_t scan;
   1308            uint8             index;
   1309            uint8             *msg;
   1310          
   1311            msg = inMsg->asdu;
   \   00000E   E5..         MOV     A,?V0 + 0
   \   000010   2413         ADD     A,#0x13
   \   000012   F582         MOV     DPL,A
   \   000014   E5..         MOV     A,?V0 + 1
   \   000016   3400         ADDC    A,#0x0
   \   000018   F583         MOV     DPH,A
   \   00001A   E0           MOVX    A,@DPTR
   \   00001B   F8           MOV     R0,A
   \   00001C   A3           INC     DPTR
   \   00001D   E0           MOVX    A,@DPTR
   \   00001E   F9           MOV     R1,A
   \   00001F   E8           MOV     A,R0
   \   000020   FE           MOV     R6,A
   \   000021   E9           MOV     A,R1
   \   000022   FF           MOV     R7,A
   1312            scan.channels = osal_build_uint32( msg, 4 );
   \   000023                ; Setup parameters for call to function osal_build_uint32
   \   000023   7904         MOV     R1,#0x4
   \   000025   EE           MOV     A,R6
   \   000026   FA           MOV     R2,A
   \   000027   EF           MOV     A,R7
   \   000028   FB           MOV     R3,A
   \   000029   12....       LCALL   ??osal_build_uint32?relay
   \   00002C   85..82       MOV     DPL,?XSP + 0
   \   00002F   85..83       MOV     DPH,?XSP + 1
   \   000032   12....       LCALL   ?XSTORE_R2345
   1313            msg += 4;
   \   000035   EE           MOV     A,R6
   \   000036   2404         ADD     A,#0x4
   \   000038   FE           MOV     R6,A
   \   000039   EF           MOV     A,R7
   \   00003A   3400         ADDC    A,#0x0
   \   00003C   FF           MOV     R7,A
   1314            scan.duration = *msg++;
   \   00003D   8E82         MOV     DPL,R6
   \   00003F   8F83         MOV     DPH,R7
   \   000041   E0           MOVX    A,@DPTR
   \   000042   C0E0         PUSH    A
   \   000044   7404         MOV     A,#0x4
   \   000046   12....       LCALL   ?XSTACK_DISP0_8
   \   000049   D0E0         POP     A
   \   00004B   F0           MOVX    @DPTR,A
   \   00004C   8E82         MOV     DPL,R6
   \   00004E   8F83         MOV     DPH,R7
   \   000050   A3           INC     DPTR
   \   000051   AE82         MOV     R6,DPL
   \   000053   AF83         MOV     R7,DPH
   1315            index         = *msg;
   \   000055   8E82         MOV     DPL,R6
   \   000057   8F83         MOV     DPH,R7
   \   000059   E0           MOVX    A,@DPTR
   \   00005A   F5..         MOV     ?V0 + 2,A
   1316            scan.scanType = ZMAC_ACTIVE_SCAN;
   \   00005C   7405         MOV     A,#0x5
   \   00005E   12....       LCALL   ?XSTACK_DISP0_8
   \   000061   7401         MOV     A,#0x1
   \   000063   F0           MOVX    @DPTR,A
   1317            scan.scanApp  = NLME_DISC_SCAN;
   \   000064   7406         MOV     A,#0x6
   \   000066   12....       LCALL   ?XSTACK_DISP0_8
   \   000069   7401         MOV     A,#0x1
   \   00006B   F0           MOVX    @DPTR,A
   1318          
   1319            // Save off the information to be used for the response
   1320            zdappMgmtNwkDiscReqInProgress          = true;
   \   00006C   90....       MOV     DPTR,#zdappMgmtNwkDiscReqInProgress
   \   00006F   7401         MOV     A,#0x1
   \   000071   F0           MOVX    @DPTR,A
   1321            zdappMgmtNwkDiscRspAddr.addrMode       = Addr16Bit;
   \   000072   90....       MOV     DPTR,#zdappMgmtNwkDiscRspAddr + 8
   \   000075   7402         MOV     A,#0x2
   \   000077   F0           MOVX    @DPTR,A
   1322            zdappMgmtNwkDiscRspAddr.addr.shortAddr = inMsg->srcAddr.addr.shortAddr;
   \   000078   85..82       MOV     DPL,?V0 + 0
   \   00007B   85..83       MOV     DPH,?V0 + 1
   \   00007E   A3           INC     DPTR
   \   00007F   A3           INC     DPTR
   \   000080   E0           MOVX    A,@DPTR
   \   000081   F8           MOV     R0,A
   \   000082   A3           INC     DPTR
   \   000083   E0           MOVX    A,@DPTR
   \   000084   F9           MOV     R1,A
   \   000085   90....       MOV     DPTR,#zdappMgmtNwkDiscRspAddr
   \   000088   E8           MOV     A,R0
   \   000089   F0           MOVX    @DPTR,A
   \   00008A   A3           INC     DPTR
   \   00008B   E9           MOV     A,R1
   \   00008C   F0           MOVX    @DPTR,A
   1323            zdappMgmtNwkDiscStartIndex             = index;
   \   00008D   E5..         MOV     A,?V0 + 2
   \   00008F   90....       MOV     DPTR,#zdappMgmtNwkDiscStartIndex
   \   000092   F0           MOVX    @DPTR,A
   1324            zdappMgmtNwkDiscRspTransSeq            = inMsg->TransSeq;
   \   000093   E5..         MOV     A,?V0 + 0
   \   000095   240F         ADD     A,#0xf
   \   000097   F582         MOV     DPL,A
   \   000099   E5..         MOV     A,?V0 + 1
   \   00009B   3400         ADDC    A,#0x0
   \   00009D   F583         MOV     DPH,A
   \   00009F   E0           MOVX    A,@DPTR
   \   0000A0   90....       MOV     DPTR,#zdappMgmtNwkDiscRspTransSeq
   \   0000A3   F0           MOVX    @DPTR,A
   1325          
   1326            if ( NLME_NwkDiscReq2( &scan ) != ZSuccess )
   \   0000A4                ; Setup parameters for call to function NLME_NwkDiscReq2
   \   0000A4   85..82       MOV     DPL,?XSP + 0
   \   0000A7   85..83       MOV     DPH,?XSP + 1
   \   0000AA   AA82         MOV     R2,DPL
   \   0000AC   AB83         MOV     R3,DPH
   \   0000AE   12....       LCALL   ??NLME_NwkDiscReq2?relay
   \   0000B1   E9           MOV     A,R1
   \   0000B2   6003         JZ      ??ZDO_ProcessMgmtNwkDiscReq_0
   1327            {
   1328              NLME_NwkDiscTerm();
   \   0000B4                ; Setup parameters for call to function NLME_NwkDiscTerm
   \   0000B4   12....       LCALL   ??NLME_NwkDiscTerm?relay
   1329          
   1330              // zdappMgmtNwkDiscReqInProgress will be reset in the confirm callback
   1331            }
   1332          }
   \                     ??ZDO_ProcessMgmtNwkDiscReq_0:
   \   0000B7   7407         MOV     A,#0x7
   \   0000B9   12....       LCALL   ?DEALLOC_XSTACK8
   \   0000BC   7F03         MOV     R7,#0x3
   \   0000BE   02....       LJMP    ?BANKED_LEAVE_XDATA
   1333          
   1334          #if defined ( ZDO_MGMT_NWKDISC_RESPONSE )
   1335          /*********************************************************************
   1336           * @fn          ZDO_FinishProcessingMgmtNwkDiscReq
   1337           *
   1338           * @brief       This function finishes the processing of the Management
   1339           *              Network Discover Request and generates the response.
   1340           *
   1341           *   Note:      This function will limit the number of items returned
   1342           *              to ZDO_MAX_NWKDISC_ITEMS items.
   1343           *
   1344           * @param       ResultCountSrcAddr - source of the request
   1345           * @param       msg - pointer to incoming message
   1346           * @param       SecurityUse -
   1347           *
   1348           * @return      none
   1349           */
   1350          void ZDO_FinishProcessingMgmtNwkDiscReq( byte ResultCount,
   1351                                                   networkDesc_t *NetworkList )
   1352          {
   1353            byte count, i;
   1354            networkDesc_t *newDesc = NULL, *pList = NetworkList;
   1355          
   1356            if ( ZSTACK_ROUTER_BUILD )
   1357            {
   1358              // Look for my PanID.
   1359              while ( pList )
   1360              {
   1361                if ( pList->panId == _NIB.nwkPanId )
   1362                {
   1363                  break;
   1364                }
   1365          
   1366          
   1367                if ( !pList->nextDesc )
   1368                {
   1369                  break;
   1370                }
   1371                pList = pList->nextDesc;
   1372              }
   1373          
   1374          
   1375              // If my Pan not present (query to a star network ZC or an isolated ZR?),
   1376              // prepend it.
   1377              if ( !pList || (pList->panId != _NIB.nwkPanId) )
   1378              {
   1379                newDesc = (networkDesc_t *)osal_mem_alloc( sizeof( networkDesc_t ) );
   1380                if ( newDesc )
   1381                {
   1382                  byte pJoin;
   1383          
   1384                  newDesc->panId = _NIB.nwkPanId;
   1385                  newDesc->logicalChannel = _NIB.nwkLogicalChannel;
   1386                  newDesc->beaconOrder = _NIB.beaconOrder;
   1387                  newDesc->superFrameOrder = _NIB.superFrameOrder;
   1388                  newDesc->version = NLME_GetProtocolVersion();
   1389                  newDesc->stackProfile = zgStackProfile;
   1390                  //Extended PanID
   1391                  osal_cpyExtAddr( newDesc->extendedPANID, _NIB.extendedPANID);
   1392          
   1393                  ZMacGetReq( ZMacAssociationPermit, &pJoin );
   1394                  newDesc->chosenRouter = ((pJoin) ? ZDAppNwkAddr.addr.shortAddr :
   1395                                                     INVALID_NODE_ADDR);
   1396          
   1397                  newDesc->nextDesc = NetworkList;
   1398                  NetworkList = newDesc;
   1399                  ResultCount++;
   1400                }
   1401              }
   1402            }
   1403          
   1404            // Calc the count and apply a max count.
   1405            if ( zdappMgmtNwkDiscStartIndex > ResultCount )
   1406            {
   1407              count = 0;
   1408            }
   1409            else
   1410            {
   1411              count = ResultCount - zdappMgmtNwkDiscStartIndex;
   1412              if ( count > ZDO_MAX_NWKDISC_ITEMS )
   1413              {
   1414                count = ZDO_MAX_NWKDISC_ITEMS;
   1415              }
   1416          
   1417              // Move the list pointer up to the start index.
   1418              for ( i = 0; i < zdappMgmtNwkDiscStartIndex; i++ )
   1419              {
   1420                NetworkList = NetworkList->nextDesc;
   1421              }
   1422            }
   1423          
   1424            ZDP_MgmtNwkDiscRsp( zdappMgmtNwkDiscRspTransSeq,
   1425                               &zdappMgmtNwkDiscRspAddr, ZSuccess, ResultCount,
   1426                                zdappMgmtNwkDiscStartIndex,
   1427                                count,
   1428                                NetworkList,
   1429                                false );
   1430          
   1431            if ( ZSTACK_ROUTER_BUILD )
   1432            {
   1433              if ( newDesc != NULL )
   1434              {
   1435                osal_mem_free( newDesc );
   1436              }
   1437            }
   1438          
   1439            NLME_NwkDiscTerm();
   1440          }
   1441          #endif
   1442          
   1443          /*********************************************************************
   1444           * @fn          ZDO_ProcessMgmtRtgReq
   1445           *
   1446           * @brief       This function finishes the processing of the Management
   1447           *              Routing Request and generates the response.
   1448           *
   1449           *   Note:      This function will limit the number of items returned
   1450           *              to ZDO_MAX_RTG_ITEMS items.
   1451           *
   1452           * @param       inMsg - incoming message (request)
   1453           *
   1454           * @return      none
   1455           */

   \                                 In  segment BANKED_CODE, align 1, keep-with-next
   1456          void ZDO_ProcessMgmtRtgReq( zdoIncomingMsg_t *inMsg )
   \                     ZDO_ProcessMgmtRtgReq:
   1457          {
   \   000000   74EC         MOV     A,#-0x14
   \   000002   12....       LCALL   ?BANKED_ENTER_XDATA
   \   000005                ; Saved register size: 20
   \   000005                ; Auto size: 1
   \   000005   74FF         MOV     A,#-0x1
   \   000007   12....       LCALL   ?ALLOC_XSTACK8
   \   00000A   8A..         MOV     ?V0 + 4,R2
   \   00000C   8B..         MOV     ?V0 + 5,R3
   1458            byte x;
   1459            byte maxNumItems;
   1460            byte numItems = 0;
   \   00000E   7E00         MOV     R6,#0x0
   1461            uint8 *pBuf = NULL;
   \   000010   75..00       MOV     ?V0 + 6,#0x0
   \   000013   75..00       MOV     ?V0 + 7,#0x0
   1462            rtgItem_t *pList;
   1463            uint8 StartIndex = inMsg->asdu[0];
   \   000016   E5..         MOV     A,?V0 + 4
   \   000018   2413         ADD     A,#0x13
   \   00001A   F582         MOV     DPL,A
   \   00001C   E5..         MOV     A,?V0 + 5
   \   00001E   3400         ADDC    A,#0x0
   \   000020   F583         MOV     DPH,A
   \   000022   E0           MOVX    A,@DPTR
   \   000023   F8           MOV     R0,A
   \   000024   A3           INC     DPTR
   \   000025   E0           MOVX    A,@DPTR
   \   000026   F583         MOV     DPH,A
   \   000028   8882         MOV     DPL,R0
   \   00002A   E0           MOVX    A,@DPTR
   \   00002B   FF           MOV     R7,A
   1464          
   1465            // Get the number of table items
   1466            NLME_GetRequest( nwkNumRoutingTableEntries, 0, &maxNumItems );
   \   00002C                ; Setup parameters for call to function NLME_GetRequest
   \   00002C   85..82       MOV     DPL,?XSP + 0
   \   00002F   85..83       MOV     DPH,?XSP + 1
   \   000032   AC82         MOV     R4,DPL
   \   000034   AD83         MOV     R5,DPH
   \   000036   7A00         MOV     R2,#0x0
   \   000038   7B00         MOV     R3,#0x0
   \   00003A   799D         MOV     R1,#-0x63
   \   00003C   12....       LCALL   ??NLME_GetRequest?relay
   \   00003F   E9           MOV     A,R1
   1467          
   1468            if ( maxNumItems > StartIndex )
   \   000040   85..82       MOV     DPL,?XSP + 0
   \   000043   85..83       MOV     DPH,?XSP + 1
   \   000046   E0           MOVX    A,@DPTR
   \   000047   F8           MOV     R0,A
   \   000048   EF           MOV     A,R7
   \   000049   C3           CLR     C
   \   00004A   98           SUBB    A,R0
   \   00004B   4003         JC      $+5
   \   00004D   02....       LJMP    ??ZDO_ProcessMgmtRtgReq_0 & 0xFFFF
   1469            {
   1470              numItems = maxNumItems - StartIndex;    // Start at the passed in index
   \   000050   85..82       MOV     DPL,?XSP + 0
   \   000053   85..83       MOV     DPH,?XSP + 1
   \   000056   E0           MOVX    A,@DPTR
   \   000057   C3           CLR     C
   \   000058   9F           SUBB    A,R7
   \   000059   FE           MOV     R6,A
   1471          
   1472              // limit the size of the list
   1473              if ( numItems > ZDO_MAX_RTG_ITEMS )
   \   00005A   EE           MOV     A,R6
   \   00005B   C3           CLR     C
   \   00005C   940B         SUBB    A,#0xb
   \   00005E   4002         JC      ??ZDO_ProcessMgmtRtgReq_1
   1474              {
   1475                numItems = ZDO_MAX_RTG_ITEMS;
   \   000060   7E0A         MOV     R6,#0xa
   1476              }
   1477          
   1478              // Allocate the memory to build the table
   1479              pBuf = osal_mem_alloc( (short)(sizeof( rtgItem_t ) * numItems) );
   \                     ??ZDO_ProcessMgmtRtgReq_1:
   \   000062                ; Setup parameters for call to function osal_mem_alloc
   \   000062   EE           MOV     A,R6
   \   000063   FA           MOV     R2,A
   \   000064   7B00         MOV     R3,#0x0
   \   000066   EA           MOV     A,R2
   \   000067   75F006       MOV     B,#0x6
   \   00006A   A4           MUL     AB
   \   00006B   CA           XCH     A,R2
   \   00006C   A8F0         MOV     R0,B
   \   00006E   75F000       MOV     B,#0x0
   \   000071   A4           MUL     AB
   \   000072   28           ADD     A,R0
   \   000073   F8           MOV     R0,A
   \   000074   75F006       MOV     B,#0x6
   \   000077   EB           MOV     A,R3
   \   000078   A4           MUL     AB
   \   000079   28           ADD     A,R0
   \   00007A   FB           MOV     R3,A
   \   00007B   12....       LCALL   ??osal_mem_alloc?relay
   \   00007E   8A..         MOV     ?V0 + 8,R2
   \   000080   8B..         MOV     ?V0 + 9,R3
   \   000082   85....       MOV     ?V0 + 6,?V0 + 8
   \   000085   85....       MOV     ?V0 + 7,?V0 + 9
   1480          
   1481              if ( pBuf != NULL )
   \   000088   E5..         MOV     A,?V0 + 6
   \   00008A   45..         ORL     A,?V0 + 7
   \   00008C   7003         JNZ     $+5
   \   00008E   02....       LJMP    ??ZDO_ProcessMgmtRtgReq_2 & 0xFFFF
   1482              {
   1483                // Convert buffer to list
   1484                pList = (rtgItem_t *)pBuf;
   \   000091   85....       MOV     ?V0 + 0,?V0 + 6
   \   000094   85....       MOV     ?V0 + 1,?V0 + 7
   1485          
   1486                // Loop through items and build list
   1487                for ( x = 0; x < numItems; x++ )
   \   000097   75..00       MOV     ?V0 + 2,#0x0
   \                     ??ZDO_ProcessMgmtRtgReq_3:
   \   00009A   E5..         MOV     A,?V0 + 2
   \   00009C   C3           CLR     C
   \   00009D   9E           SUBB    A,R6
   \   00009E   4003         JC      $+5
   \   0000A0   02....       LJMP    ??ZDO_ProcessMgmtRtgReq_0 & 0xFFFF
   1488                {
   1489                  NLME_GetRequest( nwkRoutingTable, (uint16)(x + StartIndex), (void*)pList );
   \   0000A3                ; Setup parameters for call to function NLME_GetRequest
   \   0000A3   AC..         MOV     R4,?V0 + 0
   \   0000A5   AD..         MOV     R5,?V0 + 1
   \   0000A7   85....       MOV     ?V0 + 8,?V0 + 2
   \   0000AA   75..00       MOV     ?V0 + 9,#0x0
   \   0000AD   8F..         MOV     ?V0 + 10,R7
   \   0000AF   75..00       MOV     ?V0 + 11,#0x0
   \   0000B2   E5..         MOV     A,?V0 + 8
   \   0000B4   25..         ADD     A,?V0 + 10
   \   0000B6   FA           MOV     R2,A
   \   0000B7   E5..         MOV     A,?V0 + 9
   \   0000B9   35..         ADDC    A,?V0 + 11
   \   0000BB   FB           MOV     R3,A
   \   0000BC   798B         MOV     R1,#-0x75
   \   0000BE   12....       LCALL   ??NLME_GetRequest?relay
   \   0000C1   E9           MOV     A,R1
   1490          
   1491                  // Remap the status to the RoutingTableList Record Format defined in the ZigBee spec
   1492                  switch( pList->status )
   \   0000C2   85..82       MOV     DPL,?V0 + 0
   \   0000C5   85..83       MOV     DPH,?V0 + 1
   \   0000C8   A3           INC     DPTR
   \   0000C9   A3           INC     DPTR
   \   0000CA   A3           INC     DPTR
   \   0000CB   A3           INC     DPTR
   \   0000CC   A3           INC     DPTR
   \   0000CD   E0           MOVX    A,@DPTR
   \   0000CE   14           DEC     A
   \   0000CF   6008         JZ      ??ZDO_ProcessMgmtRtgReq_4
   \   0000D1   14           DEC     A
   \   0000D2   6015         JZ      ??ZDO_ProcessMgmtRtgReq_5
   \   0000D4   14           DEC     A
   \   0000D5   6022         JZ      ??ZDO_ProcessMgmtRtgReq_6
   \   0000D7   802E         SJMP    ??ZDO_ProcessMgmtRtgReq_7
   1493                  {
   1494                    case RT_ACTIVE:
   1495                      pList->status = ZDO_MGMT_RTG_ENTRY_ACTIVE;
   \                     ??ZDO_ProcessMgmtRtgReq_4:
   \   0000D9   85..82       MOV     DPL,?V0 + 0
   \   0000DC   85..83       MOV     DPH,?V0 + 1
   \   0000DF   A3           INC     DPTR
   \   0000E0   A3           INC     DPTR
   \   0000E1   A3           INC     DPTR
   \   0000E2   A3           INC     DPTR
   \   0000E3   A3           INC     DPTR
   \   0000E4   7400         MOV     A,#0x0
   \   0000E6   F0           MOVX    @DPTR,A
   1496                      break;
   \   0000E7   802C         SJMP    ??ZDO_ProcessMgmtRtgReq_8
   1497          
   1498                    case RT_DISC:
   1499                      pList->status = ZDO_MGMT_RTG_ENTRY_DISCOVERY_UNDERWAY;
   \                     ??ZDO_ProcessMgmtRtgReq_5:
   \   0000E9   85..82       MOV     DPL,?V0 + 0
   \   0000EC   85..83       MOV     DPH,?V0 + 1
   \   0000EF   A3           INC     DPTR
   \   0000F0   A3           INC     DPTR
   \   0000F1   A3           INC     DPTR
   \   0000F2   A3           INC     DPTR
   \   0000F3   A3           INC     DPTR
   \   0000F4   7401         MOV     A,#0x1
   \   0000F6   F0           MOVX    @DPTR,A
   1500                      break;
   \   0000F7   801C         SJMP    ??ZDO_ProcessMgmtRtgReq_8
   1501          
   1502                    case RT_LINK_FAIL:
   1503                      pList->status = ZDO_MGMT_RTG_ENTRY_DISCOVERY_FAILED;
   \                     ??ZDO_ProcessMgmtRtgReq_6:
   \   0000F9   85..82       MOV     DPL,?V0 + 0
   \   0000FC   85..83       MOV     DPH,?V0 + 1
   \   0000FF   A3           INC     DPTR
   \   000100   A3           INC     DPTR
   \   000101   A3           INC     DPTR
   \   000102   A3           INC     DPTR
   \   000103   A3           INC     DPTR
   \   000104   7402         MOV     A,#0x2
   \   000106   F0           MOVX    @DPTR,A
   1504          
   1505                    case RT_INIT:
   1506                    case RT_REPAIR:
   1507                    default:
   1508                      pList->status = ZDO_MGMT_RTG_ENTRY_INACTIVE;
   \                     ??ZDO_ProcessMgmtRtgReq_7:
   \   000107   85..82       MOV     DPL,?V0 + 0
   \   00010A   85..83       MOV     DPH,?V0 + 1
   \   00010D   A3           INC     DPTR
   \   00010E   A3           INC     DPTR
   \   00010F   A3           INC     DPTR
   \   000110   A3           INC     DPTR
   \   000111   A3           INC     DPTR
   \   000112   7403         MOV     A,#0x3
   \   000114   F0           MOVX    @DPTR,A
   1509                      break;
   1510                  }
   1511          
   1512                  // Increment pointer to next record
   1513                  pList++;
   \                     ??ZDO_ProcessMgmtRtgReq_8:
   \   000115   E5..         MOV     A,?V0 + 0
   \   000117   2406         ADD     A,#0x6
   \   000119   F5..         MOV     ?V0 + 0,A
   \   00011B   E5..         MOV     A,?V0 + 1
   \   00011D   3400         ADDC    A,#0x0
   \   00011F   F5..         MOV     ?V0 + 1,A
   1514                }
   \   000121   05..         INC     ?V0 + 2
   \   000123   02....       LJMP    ??ZDO_ProcessMgmtRtgReq_3 & 0xFFFF
   1515              }
   1516              else
   1517              {
   1518                numItems = 0;
   \                     ??ZDO_ProcessMgmtRtgReq_2:
   \   000126   7E00         MOV     R6,#0x0
   1519              }
   1520            }
   1521          
   1522            // Send response
   1523            ZDP_MgmtRtgRsp( inMsg->TransSeq, &(inMsg->srcAddr), ZSuccess, maxNumItems, StartIndex, numItems,
   1524                                  (rtgItem_t *)pBuf, false );
   \                     ??ZDO_ProcessMgmtRtgReq_0:
   \   000128                ; Setup parameters for call to function ZDP_MgmtRtgRsp
   \   000128   75..00       MOV     ?V0 + 3,#0x0
   \   00012B   78..         MOV     R0,#?V0 + 3
   \   00012D   12....       LCALL   ?PUSH_XSTACK_I_ONE
   \   000130   78..         MOV     R0,#?V0 + 6
   \   000132   12....       LCALL   ?PUSH_XSTACK_I_TWO
   \   000135   EE           MOV     A,R6
   \   000136   F5..         MOV     ?V0 + 3,A
   \   000138   78..         MOV     R0,#?V0 + 3
   \   00013A   12....       LCALL   ?PUSH_XSTACK_I_ONE
   \   00013D   EF           MOV     A,R7
   \   00013E   F5..         MOV     ?V0 + 3,A
   \   000140   78..         MOV     R0,#?V0 + 3
   \   000142   12....       LCALL   ?PUSH_XSTACK_I_ONE
   \   000145   7405         MOV     A,#0x5
   \   000147   12....       LCALL   ?XSTACK_DISP0_8
   \   00014A   E0           MOVX    A,@DPTR
   \   00014B   FD           MOV     R5,A
   \   00014C   7C00         MOV     R4,#0x0
   \   00014E   E5..         MOV     A,?V0 + 4
   \   000150   2402         ADD     A,#0x2
   \   000152   FA           MOV     R2,A
   \   000153   E5..         MOV     A,?V0 + 5
   \   000155   3400         ADDC    A,#0x0
   \   000157   FB           MOV     R3,A
   \   000158   E5..         MOV     A,?V0 + 4
   \   00015A   240F         ADD     A,#0xf
   \   00015C   F582         MOV     DPL,A
   \   00015E   E5..         MOV     A,?V0 + 5
   \   000160   3400         ADDC    A,#0x0
   \   000162   F583         MOV     DPH,A
   \   000164   E0           MOVX    A,@DPTR
   \   000165   F9           MOV     R1,A
   \   000166   12....       LCALL   ??ZDP_MgmtRtgRsp?relay
   \   000169   7405         MOV     A,#0x5
   \   00016B   12....       LCALL   ?DEALLOC_XSTACK8
   \   00016E   E9           MOV     A,R1
   1525          
   1526            if ( pBuf )
   \   00016F   E5..         MOV     A,?V0 + 6
   \   000171   45..         ORL     A,?V0 + 7
   \   000173   6007         JZ      ??ZDO_ProcessMgmtRtgReq_9
   1527            {
   1528              osal_mem_free( pBuf );
   \   000175                ; Setup parameters for call to function osal_mem_free
   \   000175   AA..         MOV     R2,?V0 + 6
   \   000177   AB..         MOV     R3,?V0 + 7
   \   000179   12....       LCALL   ??osal_mem_free?relay
   1529            }
   1530          }
   \                     ??ZDO_ProcessMgmtRtgReq_9:
   \   00017C   7401         MOV     A,#0x1
   \   00017E   12....       LCALL   ?DEALLOC_XSTACK8
   \   000181   7F0C         MOV     R7,#0xc
   \   000183   02....       LJMP    ?BANKED_LEAVE_XDATA
   1531          
   1532          /*********************************************************************
   1533           * @fn          ZDO_ProcessMgmtBindReq
   1534           *
   1535           * @brief       This function finishes the processing of the Management
   1536           *              Bind Request and generates the response.
   1537           *
   1538           *   Note:      This function will limit the number of items returned
   1539           *              to ZDO_MAX_BIND_ITEMS items.
   1540           *
   1541           * @param       inMsg - incoming message (request)
   1542           *
   1543           * @return      none
   1544           */

   \                                 In  segment BANKED_CODE, align 1, keep-with-next
   1545          void ZDO_ProcessMgmtBindReq( zdoIncomingMsg_t *inMsg )
   \                     ZDO_ProcessMgmtBindReq:
   1546          {
   \   000000   74EA         MOV     A,#-0x16
   \   000002   12....       LCALL   ?BANKED_ENTER_XDATA
   \   000005                ; Saved register size: 22
   \   000005                ; Auto size: 2
   \   000005   74FE         MOV     A,#-0x2
   \   000007   12....       LCALL   ?ALLOC_XSTACK8
   \   00000A   8A..         MOV     ?V0 + 12,R2
   \   00000C   8B..         MOV     ?V0 + 13,R3
   1547          #if defined ( REFLECTOR )
   1548            byte x;
   1549            uint16 maxNumItems;
   1550            uint16 numItems;
   1551            uint8 *pBuf = NULL;
   \   00000E   75..00       MOV     ?V0 + 4,#0x0
   \   000011   75..00       MOV     ?V0 + 5,#0x0
   1552            apsBindingItem_t *pList;
   1553            uint8 StartIndex = inMsg->asdu[0];
   \   000014   E5..         MOV     A,?V0 + 12
   \   000016   2413         ADD     A,#0x13
   \   000018   F582         MOV     DPL,A
   \   00001A   E5..         MOV     A,?V0 + 13
   \   00001C   3400         ADDC    A,#0x0
   \   00001E   F583         MOV     DPH,A
   \   000020   E0           MOVX    A,@DPTR
   \   000021   F8           MOV     R0,A
   \   000022   A3           INC     DPTR
   \   000023   E0           MOVX    A,@DPTR
   \   000024   F583         MOV     DPH,A
   \   000026   8882         MOV     DPL,R0
   \   000028   E0           MOVX    A,@DPTR
   \   000029   F5..         MOV     ?V0 + 1,A
   1554            uint8 status;
   1555          
   1556            // Get the number of table items
   1557            APSME_GetRequest( apsNumBindingTableEntries, 0, (byte*)(&maxNumItems) );
   \   00002B                ; Setup parameters for call to function APSME_GetRequest
   \   00002B   85..82       MOV     DPL,?XSP + 0
   \   00002E   85..83       MOV     DPH,?XSP + 1
   \   000031   AC82         MOV     R4,DPL
   \   000033   AD83         MOV     R5,DPH
   \   000035   7A00         MOV     R2,#0x0
   \   000037   7B00         MOV     R3,#0x0
   \   000039   79A3         MOV     R1,#-0x5d
   \   00003B   12....       LCALL   ??APSME_GetRequest?relay
   \   00003E   E9           MOV     A,R1
   1558          
   1559            if ( maxNumItems > StartIndex )
   \   00003F   85....       MOV     ?V0 + 8,?V0 + 1
   \   000042   75..00       MOV     ?V0 + 9,#0x0
   \   000045   85..82       MOV     DPL,?XSP + 0
   \   000048   85..83       MOV     DPH,?XSP + 1
   \   00004B   E0           MOVX    A,@DPTR
   \   00004C   F8           MOV     R0,A
   \   00004D   A3           INC     DPTR
   \   00004E   E0           MOVX    A,@DPTR
   \   00004F   F9           MOV     R1,A
   \   000050   C3           CLR     C
   \   000051   E5..         MOV     A,?V0 + 8
   \   000053   98           SUBB    A,R0
   \   000054   E5..         MOV     A,?V0 + 9
   \   000056   99           SUBB    A,R1
   \   000057   501C         JNC     ??ZDO_ProcessMgmtBindReq_0
   1560            {
   1561              numItems = maxNumItems - StartIndex;    // Start at the passed in index
   \   000059   85..82       MOV     DPL,?XSP + 0
   \   00005C   85..83       MOV     DPH,?XSP + 1
   \   00005F   85....       MOV     ?V0 + 8,?V0 + 1
   \   000062   75..00       MOV     ?V0 + 9,#0x0
   \   000065   E0           MOVX    A,@DPTR
   \   000066   C3           CLR     C
   \   000067   95..         SUBB    A,?V0 + 8
   \   000069   F8           MOV     R0,A
   \   00006A   A3           INC     DPTR
   \   00006B   E0           MOVX    A,@DPTR
   \   00006C   95..         SUBB    A,?V0 + 9
   \   00006E   F9           MOV     R1,A
   \   00006F   E8           MOV     A,R0
   \   000070   FE           MOV     R6,A
   \   000071   E9           MOV     A,R1
   \   000072   FF           MOV     R7,A
   \   000073   8004         SJMP    ??ZDO_ProcessMgmtBindReq_1
   1562            }
   1563            else
   1564            {
   1565              numItems = 0;
   \                     ??ZDO_ProcessMgmtBindReq_0:
   \   000075   7E00         MOV     R6,#0x0
   \   000077   7F00         MOV     R7,#0x0
   1566            }
   1567          
   1568            // limit the size of the list
   1569            if ( numItems > ZDO_MAX_BIND_ITEMS )
   \                     ??ZDO_ProcessMgmtBindReq_1:
   \   000079   C3           CLR     C
   \   00007A   EE           MOV     A,R6
   \   00007B   9404         SUBB    A,#0x4
   \   00007D   EF           MOV     A,R7
   \   00007E   9400         SUBB    A,#0x0
   \   000080   4004         JC      ??ZDO_ProcessMgmtBindReq_2
   1570            {
   1571              numItems = ZDO_MAX_BIND_ITEMS;
   \   000082   7E03         MOV     R6,#0x3
   \   000084   7F00         MOV     R7,#0x0
   1572            }
   1573          
   1574            // Allocate the memory to build the table
   1575            if ( numItems && (pBuf = osal_mem_alloc( sizeof( apsBindingItem_t ) * numItems )) )
   \                     ??ZDO_ProcessMgmtBindReq_2:
   \   000086   EE           MOV     A,R6
   \   000087   4F           ORL     A,R7
   \   000088   6077         JZ      ??ZDO_ProcessMgmtBindReq_3
   \   00008A                ; Setup parameters for call to function osal_mem_alloc
   \   00008A   EE           MOV     A,R6
   \   00008B   FA           MOV     R2,A
   \   00008C   EF           MOV     A,R7
   \   00008D   FB           MOV     R3,A
   \   00008E   EA           MOV     A,R2
   \   00008F   75F015       MOV     B,#0x15
   \   000092   A4           MUL     AB
   \   000093   CA           XCH     A,R2
   \   000094   A8F0         MOV     R0,B
   \   000096   75F000       MOV     B,#0x0
   \   000099   A4           MUL     AB
   \   00009A   28           ADD     A,R0
   \   00009B   F8           MOV     R0,A
   \   00009C   75F015       MOV     B,#0x15
   \   00009F   EB           MOV     A,R3
   \   0000A0   A4           MUL     AB
   \   0000A1   28           ADD     A,R0
   \   0000A2   FB           MOV     R3,A
   \   0000A3   12....       LCALL   ??osal_mem_alloc?relay
   \   0000A6   8A..         MOV     ?V0 + 8,R2
   \   0000A8   8B..         MOV     ?V0 + 9,R3
   \   0000AA   A8..         MOV     R0,?V0 + 8
   \   0000AC   A9..         MOV     R1,?V0 + 9
   \   0000AE   88..         MOV     ?V0 + 4,R0
   \   0000B0   89..         MOV     ?V0 + 5,R1
   \   0000B2   E8           MOV     A,R0
   \   0000B3   49           ORL     A,R1
   \   0000B4   604B         JZ      ??ZDO_ProcessMgmtBindReq_3
   1576            {
   1577              status = ZSuccess;
   \   0000B6   75..00       MOV     ?V0 + 0,#0x0
   1578          
   1579              // Convert buffer to list
   1580              pList = (apsBindingItem_t *)pBuf;
   \   0000B9   85....       MOV     ?V0 + 6,?V0 + 4
   \   0000BC   85....       MOV     ?V0 + 7,?V0 + 5
   1581          
   1582              // Loop through items and build list
   1583              for ( x = 0; x < numItems; x++ )
   \   0000BF   75..00       MOV     ?V0 + 2,#0x0
   \                     ??ZDO_ProcessMgmtBindReq_4:
   \   0000C2   85....       MOV     ?V0 + 8,?V0 + 2
   \   0000C5   75..00       MOV     ?V0 + 9,#0x0
   \   0000C8   C3           CLR     C
   \   0000C9   E5..         MOV     A,?V0 + 8
   \   0000CB   9E           SUBB    A,R6
   \   0000CC   E5..         MOV     A,?V0 + 9
   \   0000CE   9F           SUBB    A,R7
   \   0000CF   5037         JNC     ??ZDO_ProcessMgmtBindReq_5
   1584              {
   1585                APSME_GetRequest( apsBindingTable, (x + StartIndex), (void*)pList );
   \   0000D1                ; Setup parameters for call to function APSME_GetRequest
   \   0000D1   AC..         MOV     R4,?V0 + 6
   \   0000D3   AD..         MOV     R5,?V0 + 7
   \   0000D5   85....       MOV     ?V0 + 10,?V0 + 2
   \   0000D8   75..00       MOV     ?V0 + 11,#0x0
   \   0000DB   85....       MOV     ?V0 + 8,?V0 + 1
   \   0000DE   75..00       MOV     ?V0 + 9,#0x0
   \   0000E1   E5..         MOV     A,?V0 + 10
   \   0000E3   25..         ADD     A,?V0 + 8
   \   0000E5   FA           MOV     R2,A
   \   0000E6   E5..         MOV     A,?V0 + 11
   \   0000E8   35..         ADDC    A,?V0 + 9
   \   0000EA   FB           MOV     R3,A
   \   0000EB   79A2         MOV     R1,#-0x5e
   \   0000ED   12....       LCALL   ??APSME_GetRequest?relay
   \   0000F0   E9           MOV     A,R1
   1586                pList++;
   \   0000F1   E5..         MOV     A,?V0 + 6
   \   0000F3   2415         ADD     A,#0x15
   \   0000F5   F5..         MOV     ?V0 + 6,A
   \   0000F7   E5..         MOV     A,?V0 + 7
   \   0000F9   3400         ADDC    A,#0x0
   \   0000FB   F5..         MOV     ?V0 + 7,A
   1587              }
   \   0000FD   05..         INC     ?V0 + 2
   \   0000FF   80C1         SJMP    ??ZDO_ProcessMgmtBindReq_4
   1588          
   1589            }
   1590            else
   1591            {
   1592              status = ZDP_NOT_PERMITTED;
   \                     ??ZDO_ProcessMgmtBindReq_3:
   \   000101   75..8B       MOV     ?V0 + 0,#-0x75
   1593              numItems = 0;
   \   000104   7E00         MOV     R6,#0x0
   \   000106   7F00         MOV     R7,#0x0
   1594            }
   1595          
   1596            // Send response
   1597            ZDP_MgmtBindRsp( inMsg->TransSeq, &(inMsg->srcAddr), status, (byte)maxNumItems, StartIndex,
   1598                             (byte)numItems, (apsBindingItem_t *)pBuf, false );
   \                     ??ZDO_ProcessMgmtBindReq_5:
   \   000108                ; Setup parameters for call to function ZDP_MgmtBindRsp
   \   000108   75..00       MOV     ?V0 + 3,#0x0
   \   00010B   78..         MOV     R0,#?V0 + 3
   \   00010D   12....       LCALL   ?PUSH_XSTACK_I_ONE
   \   000110   78..         MOV     R0,#?V0 + 4
   \   000112   12....       LCALL   ?PUSH_XSTACK_I_TWO
   \   000115   EE           MOV     A,R6
   \   000116   F5..         MOV     ?V0 + 3,A
   \   000118   78..         MOV     R0,#?V0 + 3
   \   00011A   12....       LCALL   ?PUSH_XSTACK_I_ONE
   \   00011D   E5..         MOV     A,?V0 + 1
   \   00011F   F5..         MOV     ?V0 + 3,A
   \   000121   78..         MOV     R0,#?V0 + 3
   \   000123   12....       LCALL   ?PUSH_XSTACK_I_ONE
   \   000126   7405         MOV     A,#0x5
   \   000128   12....       LCALL   ?XSTACK_DISP0_8
   \   00012B   E0           MOVX    A,@DPTR
   \   00012C   F8           MOV     R0,A
   \   00012D   A3           INC     DPTR
   \   00012E   E0           MOVX    A,@DPTR
   \   00012F   F9           MOV     R1,A
   \   000130   E8           MOV     A,R0
   \   000131   FD           MOV     R5,A
   \   000132   AC..         MOV     R4,?V0 + 0
   \   000134   E5..         MOV     A,?V0 + 12
   \   000136   2402         ADD     A,#0x2
   \   000138   FA           MOV     R2,A
   \   000139   E5..         MOV     A,?V0 + 13
   \   00013B   3400         ADDC    A,#0x0
   \   00013D   FB           MOV     R3,A
   \   00013E   E5..         MOV     A,?V0 + 12
   \   000140   240F         ADD     A,#0xf
   \   000142   F582         MOV     DPL,A
   \   000144   E5..         MOV     A,?V0 + 13
   \   000146   3400         ADDC    A,#0x0
   \   000148   F583         MOV     DPH,A
   \   00014A   E0           MOVX    A,@DPTR
   \   00014B   F9           MOV     R1,A
   \   00014C   12....       LCALL   ??ZDP_MgmtBindRsp?relay
   \   00014F   7405         MOV     A,#0x5
   \   000151   12....       LCALL   ?DEALLOC_XSTACK8
   \   000154   E9           MOV     A,R1
   1599          
   1600            if ( pBuf )
   \   000155   E5..         MOV     A,?V0 + 4
   \   000157   45..         ORL     A,?V0 + 5
   \   000159   6007         JZ      ??ZDO_ProcessMgmtBindReq_6
   1601            {
   1602              osal_mem_free( pBuf );
   \   00015B                ; Setup parameters for call to function osal_mem_free
   \   00015B   AA..         MOV     R2,?V0 + 4
   \   00015D   AB..         MOV     R3,?V0 + 5
   \   00015F   12....       LCALL   ??osal_mem_free?relay
   1603            }
   1604          #else
   1605            (void)inMsg;
   1606          #endif
   1607          }
   \                     ??ZDO_ProcessMgmtBindReq_6:
   \   000162   7402         MOV     A,#0x2
   \   000164   12....       LCALL   ?DEALLOC_XSTACK8
   \   000167   7F0E         MOV     R7,#0xe
   \   000169   02....       LJMP    ?BANKED_LEAVE_XDATA
   1608          
   1609          /*********************************************************************
   1610           * @fn          ZDO_ProcessMgmtDirectJoinReq
   1611           *
   1612           * @brief       This function finishes the processing of the Management
   1613           *              Direct Join Request and generates the response.
   1614           *
   1615           * @param       inMsg - incoming message (request)
   1616           *
   1617           * @return      none
   1618           */

   \                                 In  segment BANKED_CODE, align 1, keep-with-next
   1619          void ZDO_ProcessMgmtDirectJoinReq( zdoIncomingMsg_t *inMsg )
   \                     ZDO_ProcessMgmtDirectJoinReq:
   1620          {
   \   000000   74F3         MOV     A,#-0xd
   \   000002   12....       LCALL   ?BANKED_ENTER_XDATA
   \   000005                ; Saved register size: 13
   \   000005                ; Auto size: 1
   \   000005   74FF         MOV     A,#-0x1
   \   000007   12....       LCALL   ?ALLOC_XSTACK8
   \   00000A   EA           MOV     A,R2
   \   00000B   FE           MOV     R6,A
   \   00000C   EB           MOV     A,R3
   \   00000D   FF           MOV     R7,A
   1621            uint8 *deviceAddr;
   1622            uint8 capInfo;
   1623            uint8 stat;
   1624          
   1625            // Parse the message
   1626            deviceAddr = inMsg->asdu;
   \   00000E   EE           MOV     A,R6
   \   00000F   2413         ADD     A,#0x13
   \   000011   F582         MOV     DPL,A
   \   000013   EF           MOV     A,R7
   \   000014   3400         ADDC    A,#0x0
   \   000016   F583         MOV     DPH,A
   \   000018   E0           MOVX    A,@DPTR
   \   000019   F8           MOV     R0,A
   \   00001A   A3           INC     DPTR
   \   00001B   E0           MOVX    A,@DPTR
   \   00001C   F9           MOV     R1,A
   \   00001D   88..         MOV     ?V0 + 0,R0
   \   00001F   89..         MOV     ?V0 + 1,R1
   1627            capInfo = inMsg->asdu[Z_EXTADDR_LEN];
   \   000021   EE           MOV     A,R6
   \   000022   2413         ADD     A,#0x13
   \   000024   F582         MOV     DPL,A
   \   000026   EF           MOV     A,R7
   \   000027   3400         ADDC    A,#0x0
   \   000029   F583         MOV     DPH,A
   \   00002B   E0           MOVX    A,@DPTR
   \   00002C   F8           MOV     R0,A
   \   00002D   A3           INC     DPTR
   \   00002E   E0           MOVX    A,@DPTR
   \   00002F   C8           XCH     A,R0
   \   000030   2408         ADD     A,#0x8
   \   000032   F582         MOV     DPL,A
   \   000034   E8           MOV     A,R0
   \   000035   3400         ADDC    A,#0x0
   \   000037   F583         MOV     DPH,A
   \   000039   E0           MOVX    A,@DPTR
   \   00003A   F5..         MOV     ?V0 + 4,A
   1628          
   1629            stat = (byte) NLME_DirectJoinRequest( deviceAddr, capInfo );
   \   00003C                ; Setup parameters for call to function NLME_DirectJoinRequest
   \   00003C   A9..         MOV     R1,?V0 + 4
   \   00003E   AA..         MOV     R2,?V0 + 0
   \   000040   AB..         MOV     R3,?V0 + 1
   \   000042   12....       LCALL   ??NLME_DirectJoinRequest?relay
   \   000045   E9           MOV     A,R1
   \   000046   85..82       MOV     DPL,?XSP + 0
   \   000049   85..83       MOV     DPH,?XSP + 1
   \   00004C   F0           MOVX    @DPTR,A
   1630          
   1631            ZDP_MgmtDirectJoinRsp( inMsg->TransSeq, &(inMsg->srcAddr), stat, false );
   \   00004D                ; Setup parameters for call to function ZDP_SendData
   \   00004D   75..00       MOV     ?V0 + 2,#0x0
   \   000050   78..         MOV     R0,#?V0 + 2
   \   000052   12....       LCALL   ?PUSH_XSTACK_I_ONE
   \   000055   7401         MOV     A,#0x1
   \   000057   12....       LCALL   ?XSTACK_DISP0_8
   \   00005A   8582..       MOV     ?V0 + 2,DPL
   \   00005D   8583..       MOV     ?V0 + 3,DPH
   \   000060   78..         MOV     R0,#?V0 + 2
   \   000062   12....       LCALL   ?PUSH_XSTACK_I_TWO
   \   000065   75..35       MOV     ?V0 + 2,#0x35
   \   000068   75..80       MOV     ?V0 + 3,#-0x80
   \   00006B   78..         MOV     R0,#?V0 + 2
   \   00006D   12....       LCALL   ?PUSH_XSTACK_I_TWO
   \   000070   7901         MOV     R1,#0x1
   \   000072   EE           MOV     A,R6
   \   000073   2402         ADD     A,#0x2
   \   000075   FC           MOV     R4,A
   \   000076   EF           MOV     A,R7
   \   000077   3400         ADDC    A,#0x0
   \   000079   FD           MOV     R5,A
   \   00007A   EE           MOV     A,R6
   \   00007B   240F         ADD     A,#0xf
   \   00007D   FA           MOV     R2,A
   \   00007E   EF           MOV     A,R7
   \   00007F   3400         ADDC    A,#0x0
   \   000081   FB           MOV     R3,A
   \   000082   12....       LCALL   ??ZDP_SendData?relay
   \   000085   7405         MOV     A,#0x5
   \   000087   12....       LCALL   ?DEALLOC_XSTACK8
   \   00008A   E9           MOV     A,R1
   1632          }
   \   00008B   7401         MOV     A,#0x1
   \   00008D   12....       LCALL   ?DEALLOC_XSTACK8
   \   000090   7F05         MOV     R7,#0x5
   \   000092   02....       LJMP    ?BANKED_LEAVE_XDATA
   1633          
   1634          /*********************************************************************
   1635           * @fn          ZDO_ProcessMgmtLeaveReq
   1636           *
   1637           * @brief       This function processes a Management Leave Request
   1638           *              and generates the response.
   1639           *
   1640           * @param       inMsg - incoming message (request)
   1641           *
   1642           * @return      none
   1643           */

   \                                 In  segment BANKED_CODE, align 1, keep-with-next
   1644          void ZDO_ProcessMgmtLeaveReq( zdoIncomingMsg_t *inMsg )
   \                     ZDO_ProcessMgmtLeaveReq:
   1645          {
   \   000000   74F2         MOV     A,#-0xe
   \   000002   12....       LCALL   ?BANKED_ENTER_XDATA
   \   000005                ; Saved register size: 14
   \   000005                ; Auto size: 6
   \   000005   74FA         MOV     A,#-0x6
   \   000007   12....       LCALL   ?ALLOC_XSTACK8
   \   00000A   8A..         MOV     ?V0 + 0,R2
   \   00000C   8B..         MOV     ?V0 + 1,R3
   1646            NLME_LeaveReq_t req;
   1647            ZStatus_t       status;
   1648            uint8           option;
   1649            uint8 *msg = inMsg->asdu;
   \   00000E   E5..         MOV     A,?V0 + 0
   \   000010   2413         ADD     A,#0x13
   \   000012   F582         MOV     DPL,A
   \   000014   E5..         MOV     A,?V0 + 1
   \   000016   3400         ADDC    A,#0x0
   \   000018   F583         MOV     DPH,A
   \   00001A   E0           MOVX    A,@DPTR
   \   00001B   FE           MOV     R6,A
   \   00001C   A3           INC     DPTR
   \   00001D   E0           MOVX    A,@DPTR
   \   00001E   FF           MOV     R7,A
   1650          
   1651            if ( ( AddrMgrExtAddrValid( msg ) == FALSE                 ) ||
   1652                 ( osal_ExtAddrEqual( msg, NLME_GetExtAddr() ) == TRUE )    )
   \   00001F                ; Setup parameters for call to function AddrMgrExtAddrValid
   \   00001F   EE           MOV     A,R6
   \   000020   FA           MOV     R2,A
   \   000021   EF           MOV     A,R7
   \   000022   FB           MOV     R3,A
   \   000023   12....       LCALL   ??AddrMgrExtAddrValid?relay
   \   000026   E9           MOV     A,R1
   \   000027   6013         JZ      ??ZDO_ProcessMgmtLeaveReq_0
   \   000029                ; Setup parameters for call to function sAddrExtCmp
   \   000029                ; Setup parameters for call to function NLME_GetExtAddr
   \   000029   12....       LCALL   ??NLME_GetExtAddr?relay
   \   00002C   EA           MOV     A,R2
   \   00002D   FC           MOV     R4,A
   \   00002E   EB           MOV     A,R3
   \   00002F   FD           MOV     R5,A
   \   000030   EE           MOV     A,R6
   \   000031   FA           MOV     R2,A
   \   000032   EF           MOV     A,R7
   \   000033   FB           MOV     R3,A
   \   000034   12....       LCALL   ??sAddrExtCmp?relay
   \   000037   E9           MOV     A,R1
   \   000038   6401         XRL     A,#0x1
   \   00003A   700E         JNZ     ??ZDO_ProcessMgmtLeaveReq_1
   1653            {
   1654              // Remove this device
   1655              req.extAddr = NULL;
   \                     ??ZDO_ProcessMgmtLeaveReq_0:
   \   00003C   7401         MOV     A,#0x1
   \   00003E   12....       LCALL   ?XSTACK_DISP0_8
   \   000041   7400         MOV     A,#0x0
   \   000043   F0           MOVX    @DPTR,A
   \   000044   A3           INC     DPTR
   \   000045   7400         MOV     A,#0x0
   \   000047   F0           MOVX    @DPTR,A
   \   000048   800A         SJMP    ??ZDO_ProcessMgmtLeaveReq_2
   1656            }
   1657            else
   1658            {
   1659              // Remove child device
   1660              req.extAddr = msg;
   \                     ??ZDO_ProcessMgmtLeaveReq_1:
   \   00004A   7401         MOV     A,#0x1
   \   00004C   12....       LCALL   ?XSTACK_DISP0_8
   \   00004F   EE           MOV     A,R6
   \   000050   F0           MOVX    @DPTR,A
   \   000051   A3           INC     DPTR
   \   000052   EF           MOV     A,R7
   \   000053   F0           MOVX    @DPTR,A
   1661            }
   1662          
   1663            option = msg[Z_EXTADDR_LEN];
   \                     ??ZDO_ProcessMgmtLeaveReq_2:
   \   000054   8E82         MOV     DPL,R6
   \   000056   8F83         MOV     DPH,R7
   \   000058   A3           INC     DPTR
   \   000059   A3           INC     DPTR
   \   00005A   A3           INC     DPTR
   \   00005B   A3           INC     DPTR
   \   00005C   A3           INC     DPTR
   \   00005D   A3           INC     DPTR
   \   00005E   A3           INC     DPTR
   \   00005F   A3           INC     DPTR
   \   000060   E0           MOVX    A,@DPTR
   \   000061   F5..         MOV     ?V0 + 2,A
   1664            if ( option & ZDP_MGMT_LEAVE_REQ_RC )
   \   000063   E5..         MOV     A,?V0 + 2
   \   000065   A2E6         MOV     C,0xE0 /* A   */.6
   \   000067   5008         JNC     ??ZDO_ProcessMgmtLeaveReq_3
   1665            {
   1666              req.removeChildren = TRUE;
   \   000069   7403         MOV     A,#0x3
   \   00006B   12....       LCALL   ?XSTACK_DISP0_8
   \   00006E   7401         MOV     A,#0x1
   \   000070   F0           MOVX    @DPTR,A
   1667            }
   1668          
   1669            if ( option & ZDP_MGMT_LEAVE_REQ_REJOIN )
   \                     ??ZDO_ProcessMgmtLeaveReq_3:
   \   000071   E5..         MOV     A,?V0 + 2
   \   000073   A2E7         MOV     C,0xE0 /* A   */.7
   \   000075   5008         JNC     ??ZDO_ProcessMgmtLeaveReq_4
   1670            {
   1671               req.rejoin = TRUE;
   \   000077   7404         MOV     A,#0x4
   \   000079   12....       LCALL   ?XSTACK_DISP0_8
   \   00007C   7401         MOV     A,#0x1
   \   00007E   F0           MOVX    @DPTR,A
   1672            }
   1673          
   1674            req.silent = FALSE;
   \                     ??ZDO_ProcessMgmtLeaveReq_4:
   \   00007F   7405         MOV     A,#0x5
   \   000081   12....       LCALL   ?XSTACK_DISP0_8
   \   000084   7400         MOV     A,#0x0
   \   000086   F0           MOVX    @DPTR,A
   1675          
   1676            status = NLME_LeaveReq( &req );
   \   000087                ; Setup parameters for call to function NLME_LeaveReq
   \   000087   7401         MOV     A,#0x1
   \   000089   12....       LCALL   ?XSTACK_DISP0_8
   \   00008C   AA82         MOV     R2,DPL
   \   00008E   AB83         MOV     R3,DPH
   \   000090   12....       LCALL   ??NLME_LeaveReq?relay
   \   000093   E9           MOV     A,R1
   \   000094   85..82       MOV     DPL,?XSP + 0
   \   000097   85..83       MOV     DPH,?XSP + 1
   \   00009A   F0           MOVX    @DPTR,A
   1677          
   1678            ZDP_MgmtLeaveRsp( inMsg->TransSeq, &(inMsg->srcAddr), status, FALSE );
   \   00009B                ; Setup parameters for call to function ZDP_SendData
   \   00009B   75..00       MOV     ?V0 + 3,#0x0
   \   00009E   78..         MOV     R0,#?V0 + 3
   \   0000A0   12....       LCALL   ?PUSH_XSTACK_I_ONE
   \   0000A3   7401         MOV     A,#0x1
   \   0000A5   12....       LCALL   ?XSTACK_DISP0_8
   \   0000A8   8582..       MOV     ?V0 + 4,DPL
   \   0000AB   8583..       MOV     ?V0 + 5,DPH
   \   0000AE   78..         MOV     R0,#?V0 + 4
   \   0000B0   12....       LCALL   ?PUSH_XSTACK_I_TWO
   \   0000B3   75..34       MOV     ?V0 + 4,#0x34
   \   0000B6   75..80       MOV     ?V0 + 5,#-0x80
   \   0000B9   78..         MOV     R0,#?V0 + 4
   \   0000BB   12....       LCALL   ?PUSH_XSTACK_I_TWO
   \   0000BE   7901         MOV     R1,#0x1
   \   0000C0   E5..         MOV     A,?V0 + 0
   \   0000C2   2402         ADD     A,#0x2
   \   0000C4   FC           MOV     R4,A
   \   0000C5   E5..         MOV     A,?V0 + 1
   \   0000C7   3400         ADDC    A,#0x0
   \   0000C9   FD           MOV     R5,A
   \   0000CA   E5..         MOV     A,?V0 + 0
   \   0000CC   240F         ADD     A,#0xf
   \   0000CE   FA           MOV     R2,A
   \   0000CF   E5..         MOV     A,?V0 + 1
   \   0000D1   3400         ADDC    A,#0x0
   \   0000D3   FB           MOV     R3,A
   \   0000D4   12....       LCALL   ??ZDP_SendData?relay
   \   0000D7   7405         MOV     A,#0x5
   \   0000D9   12....       LCALL   ?DEALLOC_XSTACK8
   \   0000DC   E9           MOV     A,R1
   1679          }
   \   0000DD   7406         MOV     A,#0x6
   \   0000DF   12....       LCALL   ?DEALLOC_XSTACK8
   \   0000E2   7F06         MOV     R7,#0x6
   \   0000E4   02....       LJMP    ?BANKED_LEAVE_XDATA
   1680          
   1681          
   1682          /*********************************************************************
   1683           * @fn          ZDO_ProcessMgmtPermitJoinReq
   1684           *
   1685           * @brief       This function processes a Management Permit Join Request
   1686           *              and generates the response.
   1687           *
   1688           * @param       inMsg - incoming message (request)
   1689           *
   1690           * @return      none
   1691           */

   \                                 In  segment BANKED_CODE, align 1, keep-with-next
   1692          void ZDO_ProcessMgmtPermitJoinReq( zdoIncomingMsg_t *inMsg )
   \                     ZDO_ProcessMgmtPermitJoinReq:
   1693          {
   \   000000   74F4         MOV     A,#-0xc
   \   000002   12....       LCALL   ?BANKED_ENTER_XDATA
   \   000005                ; Saved register size: 12
   \   000005                ; Auto size: 1
   \   000005   74FF         MOV     A,#-0x1
   \   000007   12....       LCALL   ?ALLOC_XSTACK8
   \   00000A   EA           MOV     A,R2
   \   00000B   FE           MOV     R6,A
   \   00000C   EB           MOV     A,R3
   \   00000D   FF           MOV     R7,A
   1694            uint8 stat;
   1695            uint8 duration;
   1696            uint8 tcsig;
   1697          
   1698            duration = inMsg->asdu[ZDP_MGMT_PERMIT_JOIN_REQ_DURATION];
   \   00000E   EE           MOV     A,R6
   \   00000F   2413         ADD     A,#0x13
   \   000011   F582         MOV     DPL,A
   \   000013   EF           MOV     A,R7
   \   000014   3400         ADDC    A,#0x0
   \   000016   F583         MOV     DPH,A
   \   000018   E0           MOVX    A,@DPTR
   \   000019   F8           MOV     R0,A
   \   00001A   A3           INC     DPTR
   \   00001B   E0           MOVX    A,@DPTR
   \   00001C   F583         MOV     DPH,A
   \   00001E   8882         MOV     DPL,R0
   \   000020   E0           MOVX    A,@DPTR
   \   000021   F5..         MOV     ?V0 + 2,A
   1699            tcsig    = inMsg->asdu[ZDP_MGMT_PERMIT_JOIN_REQ_TC_SIG];
   \   000023   EE           MOV     A,R6
   \   000024   2413         ADD     A,#0x13
   \   000026   F582         MOV     DPL,A
   \   000028   EF           MOV     A,R7
   \   000029   3400         ADDC    A,#0x0
   \   00002B   F583         MOV     DPH,A
   \   00002D   E0           MOVX    A,@DPTR
   \   00002E   F8           MOV     R0,A
   \   00002F   A3           INC     DPTR
   \   000030   E0           MOVX    A,@DPTR
   \   000031   F583         MOV     DPH,A
   \   000033   8882         MOV     DPL,R0
   \   000035   A3           INC     DPTR
   \   000036   E0           MOVX    A,@DPTR
   \   000037   F5..         MOV     ?V0 + 3,A
   1700          
   1701            // Set the network layer permit join duration
   1702            stat = (byte) NLME_PermitJoiningRequest( duration );
   \   000039                ; Setup parameters for call to function NLME_PermitJoiningRequest
   \   000039   A9..         MOV     R1,?V0 + 2
   \   00003B   12....       LCALL   ??NLME_PermitJoiningRequest?relay
   \   00003E   E9           MOV     A,R1
   \   00003F   85..82       MOV     DPL,?XSP + 0
   \   000042   85..83       MOV     DPH,?XSP + 1
   \   000045   F0           MOVX    @DPTR,A
   1703          
   1704            // Handle the Trust Center Significance
   1705            if ( ZG_SECURE_ENABLED && ZG_BUILD_COORDINATOR_TYPE && ZG_DEVICE_COORDINATOR_TYPE )
   1706            {
   1707              if ( tcsig == TRUE )
   1708              {
   1709                ZDSecMgrPermitJoining( duration );
   1710              }
   1711            }
   1712          
   1713            // Send a response if unicast
   1714            if (inMsg->srcAddr.addr.shortAddr != NWK_BROADCAST_SHORTADDR)
   \   000046   8E82         MOV     DPL,R6
   \   000048   8F83         MOV     DPH,R7
   \   00004A   A3           INC     DPTR
   \   00004B   A3           INC     DPTR
   \   00004C   E0           MOVX    A,@DPTR
   \   00004D   64FF         XRL     A,#0xff
   \   00004F   7004         JNZ     ??ZDO_ProcessMgmtPermitJoinReq_0
   \   000051   A3           INC     DPTR
   \   000052   E0           MOVX    A,@DPTR
   \   000053   64FF         XRL     A,#0xff
   \                     ??ZDO_ProcessMgmtPermitJoinReq_0:
   \   000055   603E         JZ      ??ZDO_ProcessMgmtPermitJoinReq_1
   1715            {
   1716              ZDP_MgmtPermitJoinRsp( inMsg->TransSeq, &(inMsg->srcAddr), stat, false );
   \   000057                ; Setup parameters for call to function ZDP_SendData
   \   000057   75..00       MOV     ?V0 + 0,#0x0
   \   00005A   78..         MOV     R0,#?V0 + 0
   \   00005C   12....       LCALL   ?PUSH_XSTACK_I_ONE
   \   00005F   7401         MOV     A,#0x1
   \   000061   12....       LCALL   ?XSTACK_DISP0_8
   \   000064   8582..       MOV     ?V0 + 0,DPL
   \   000067   8583..       MOV     ?V0 + 1,DPH
   \   00006A   78..         MOV     R0,#?V0 + 0
   \   00006C   12....       LCALL   ?PUSH_XSTACK_I_TWO
   \   00006F   75..36       MOV     ?V0 + 0,#0x36
   \   000072   75..80       MOV     ?V0 + 1,#-0x80
   \   000075   78..         MOV     R0,#?V0 + 0
   \   000077   12....       LCALL   ?PUSH_XSTACK_I_TWO
   \   00007A   7901         MOV     R1,#0x1
   \   00007C   EE           MOV     A,R6
   \   00007D   2402         ADD     A,#0x2
   \   00007F   FC           MOV     R4,A
   \   000080   EF           MOV     A,R7
   \   000081   3400         ADDC    A,#0x0
   \   000083   FD           MOV     R5,A
   \   000084   EE           MOV     A,R6
   \   000085   240F         ADD     A,#0xf
   \   000087   FA           MOV     R2,A
   \   000088   EF           MOV     A,R7
   \   000089   3400         ADDC    A,#0x0
   \   00008B   FB           MOV     R3,A
   \   00008C   12....       LCALL   ??ZDP_SendData?relay
   \   00008F   7405         MOV     A,#0x5
   \   000091   12....       LCALL   ?DEALLOC_XSTACK8
   \   000094   E9           MOV     A,R1
   1717            }
   1718          }
   \                     ??ZDO_ProcessMgmtPermitJoinReq_1:
   \   000095   7401         MOV     A,#0x1
   \   000097   12....       LCALL   ?DEALLOC_XSTACK8
   \   00009A   7F04         MOV     R7,#0x4
   \   00009C   02....       LJMP    ?BANKED_LEAVE_XDATA
   1719          
   1720          /*
   1721           * This function stub allows the next higher layer to be notified of
   1722           * a permit joining timeout.
   1723           */
   1724          /*********************************************************************
   1725           * @fn          ZDO_ProcessMgmtPermitJoinTimeout
   1726           *
   1727           * @brief       This function stub allows the next higher layer to be
   1728           *              notified of a permit joining timeout. Currently, this
   1729           *              directly bypasses the APS layer.
   1730           *
   1731           * @param       none
   1732           *
   1733           * @return      none
   1734           */

   \                                 In  segment BANKED_CODE, align 1, keep-with-next
   1735          void ZDO_ProcessMgmtPermitJoinTimeout( void )
   \                     NLME_PermitJoiningTimeout:
   1736          {
   \   000000                ; Saved register size: 0
   \   000000                ; Auto size: 0
   1737            #if defined( ZDO_MGMT_PERMIT_JOIN_RESPONSE )
   1738            // Currently, only the ZDSecMgr needs to be notified
   1739            if ( ZG_SECURE_ENABLED && ZG_BUILD_COORDINATOR_TYPE && ZG_DEVICE_COORDINATOR_TYPE )
   1740            {
   1741              ZDSecMgrPermitJoiningTimeout();
   1742            }
   1743            #endif
   1744          }
   \   000000   02....       LJMP    ?BRET
   1745          
   1746          /*********************************************************************
   1747           * @fn          ZDO_ProcessUserDescReq
   1748           *
   1749           * @brief       This function finishes the processing of the User
   1750           *              Descriptor Request and generates the response.
   1751           *
   1752           * @param       inMsg - incoming message (request)
   1753           *
   1754           * @return      none
   1755           */

   \                                 In  segment BANKED_CODE, align 1, keep-with-next
   1756          void ZDO_ProcessUserDescReq( zdoIncomingMsg_t *inMsg )
   \                     ZDO_ProcessUserDescReq:
   1757          {
   \   000000   74F4         MOV     A,#-0xc
   \   000002   12....       LCALL   ?BANKED_ENTER_XDATA
   \   000005                ; Saved register size: 12
   \   000005                ; Auto size: 17
   \   000005   74EF         MOV     A,#-0x11
   \   000007   12....       LCALL   ?ALLOC_XSTACK8
   \   00000A   EA           MOV     A,R2
   \   00000B   FE           MOV     R6,A
   \   00000C   EB           MOV     A,R3
   \   00000D   FF           MOV     R7,A
   1758            uint16 aoi = BUILD_UINT16( inMsg->asdu[0], inMsg->asdu[1] );
   \   00000E   EE           MOV     A,R6
   \   00000F   2413         ADD     A,#0x13
   \   000011   F582         MOV     DPL,A
   \   000013   EF           MOV     A,R7
   \   000014   3400         ADDC    A,#0x0
   \   000016   F583         MOV     DPH,A
   \   000018   E0           MOVX    A,@DPTR
   \   000019   F8           MOV     R0,A
   \   00001A   A3           INC     DPTR
   \   00001B   E0           MOVX    A,@DPTR
   \   00001C   F583         MOV     DPH,A
   \   00001E   8882         MOV     DPL,R0
   \   000020   E0           MOVX    A,@DPTR
   \   000021   FA           MOV     R2,A
   \   000022   7B00         MOV     R3,#0x0
   \   000024   EE           MOV     A,R6
   \   000025   2413         ADD     A,#0x13
   \   000027   F582         MOV     DPL,A
   \   000029   EF           MOV     A,R7
   \   00002A   3400         ADDC    A,#0x0
   \   00002C   F583         MOV     DPH,A
   \   00002E   E0           MOVX    A,@DPTR
   \   00002F   F8           MOV     R0,A
   \   000030   A3           INC     DPTR
   \   000031   E0           MOVX    A,@DPTR
   \   000032   F583         MOV     DPH,A
   \   000034   8882         MOV     DPL,R0
   \   000036   A3           INC     DPTR
   \   000037   E0           MOVX    A,@DPTR
   \   000038   F8           MOV     R0,A
   \   000039   7900         MOV     R1,#0x0
   \   00003B   E4           CLR     A
   \   00003C   C8           XCH     A,R0
   \   00003D   F9           MOV     R1,A
   \   00003E   EA           MOV     A,R2
   \   00003F   28           ADD     A,R0
   \   000040   F5..         MOV     ?V0 + 0,A
   \   000042   EB           MOV     A,R3
   \   000043   39           ADDC    A,R1
   \   000044   F5..         MOV     ?V0 + 1,A
   1759            UserDescriptorFormat_t userDesc;
   1760          
   1761            if ( (aoi == ZDAppNwkAddr.addr.shortAddr) && (ZSUCCESS == osal_nv_read(
   1762                       ZCD_NV_USERDESC, 0, sizeof(UserDescriptorFormat_t), &userDesc )) )
   \   000046   90....       MOV     DPTR,#ZDAppNwkAddr
   \   000049   E0           MOVX    A,@DPTR
   \   00004A   65..         XRL     A,?V0 + 0
   \   00004C   7004         JNZ     ??ZDO_ProcessUserDescReq_0
   \   00004E   A3           INC     DPTR
   \   00004F   E0           MOVX    A,@DPTR
   \   000050   65..         XRL     A,?V0 + 1
   \                     ??ZDO_ProcessUserDescReq_0:
   \   000052   706A         JNZ     ??ZDO_ProcessUserDescReq_1
   \   000054                ; Setup parameters for call to function osal_nv_read
   \   000054   85..82       MOV     DPL,?XSP + 0
   \   000057   85..83       MOV     DPH,?XSP + 1
   \   00005A   8582..       MOV     ?V0 + 2,DPL
   \   00005D   8583..       MOV     ?V0 + 3,DPH
   \   000060   78..         MOV     R0,#?V0 + 2
   \   000062   12....       LCALL   ?PUSH_XSTACK_I_TWO
   \   000065   75..11       MOV     ?V0 + 2,#0x11
   \   000068   75..00       MOV     ?V0 + 3,#0x0
   \   00006B   78..         MOV     R0,#?V0 + 2
   \   00006D   12....       LCALL   ?PUSH_XSTACK_I_TWO
   \   000070   7C00         MOV     R4,#0x0
   \   000072   7D00         MOV     R5,#0x0
   \   000074   7A81         MOV     R2,#-0x7f
   \   000076   7B00         MOV     R3,#0x0
   \   000078   12....       LCALL   ??osal_nv_read?relay
   \   00007B   7404         MOV     A,#0x4
   \   00007D   12....       LCALL   ?DEALLOC_XSTACK8
   \   000080   E9           MOV     A,R1
   \   000081   703B         JNZ     ??ZDO_ProcessUserDescReq_1
   1763            {
   1764              ZDP_UserDescRsp( inMsg->TransSeq, &(inMsg->srcAddr), aoi, &userDesc, false );
   \   000083                ; Setup parameters for call to function ZDP_UserDescRsp
   \   000083   75..00       MOV     ?V0 + 2,#0x0
   \   000086   78..         MOV     R0,#?V0 + 2
   \   000088   12....       LCALL   ?PUSH_XSTACK_I_ONE
   \   00008B   7401         MOV     A,#0x1
   \   00008D   12....       LCALL   ?XSTACK_DISP0_8
   \   000090   8582..       MOV     ?V0 + 2,DPL
   \   000093   8583..       MOV     ?V0 + 3,DPH
   \   000096   78..         MOV     R0,#?V0 + 2
   \   000098   12....       LCALL   ?PUSH_XSTACK_I_TWO
   \   00009B   AC..         MOV     R4,?V0 + 0
   \   00009D   AD..         MOV     R5,?V0 + 1
   \   00009F   EE           MOV     A,R6
   \   0000A0   2402         ADD     A,#0x2
   \   0000A2   FA           MOV     R2,A
   \   0000A3   EF           MOV     A,R7
   \   0000A4   3400         ADDC    A,#0x0
   \   0000A6   FB           MOV     R3,A
   \   0000A7   EE           MOV     A,R6
   \   0000A8   240F         ADD     A,#0xf
   \   0000AA   F582         MOV     DPL,A
   \   0000AC   EF           MOV     A,R7
   \   0000AD   3400         ADDC    A,#0x0
   \   0000AF   F583         MOV     DPH,A
   \   0000B1   E0           MOVX    A,@DPTR
   \   0000B2   F9           MOV     R1,A
   \   0000B3   12....       LCALL   ??ZDP_UserDescRsp?relay
   \   0000B6   7403         MOV     A,#0x3
   \   0000B8   12....       LCALL   ?DEALLOC_XSTACK8
   \   0000BB   E9           MOV     A,R1
   \   0000BC   803B         SJMP    ??ZDO_ProcessUserDescReq_2
   1765            }
   1766            else
   1767            {
   1768              ZDP_GenericRsp(inMsg->TransSeq, &(inMsg->srcAddr),
   1769                     ZDP_NOT_SUPPORTED, aoi, User_Desc_rsp, inMsg->SecurityUse );
   \                     ??ZDO_ProcessUserDescReq_1:
   \   0000BE                ; Setup parameters for call to function ZDP_GenericRsp
   \   0000BE   75..11       MOV     ?V0 + 2,#0x11
   \   0000C1   75..80       MOV     ?V0 + 3,#-0x80
   \   0000C4   78..         MOV     R0,#?V0 + 2
   \   0000C6   12....       LCALL   ?PUSH_XSTACK_I_TWO
   \   0000C9   78..         MOV     R0,#?V0 + 0
   \   0000CB   12....       LCALL   ?PUSH_XSTACK_I_TWO
   \   0000CE   EE           MOV     A,R6
   \   0000CF   240E         ADD     A,#0xe
   \   0000D1   F582         MOV     DPL,A
   \   0000D3   EF           MOV     A,R7
   \   0000D4   3400         ADDC    A,#0x0
   \   0000D6   F583         MOV     DPH,A
   \   0000D8   E0           MOVX    A,@DPTR
   \   0000D9   FD           MOV     R5,A
   \   0000DA   7C84         MOV     R4,#-0x7c
   \   0000DC   EE           MOV     A,R6
   \   0000DD   2402         ADD     A,#0x2
   \   0000DF   FA           MOV     R2,A
   \   0000E0   EF           MOV     A,R7
   \   0000E1   3400         ADDC    A,#0x0
   \   0000E3   FB           MOV     R3,A
   \   0000E4   EE           MOV     A,R6
   \   0000E5   240F         ADD     A,#0xf
   \   0000E7   F582         MOV     DPL,A
   \   0000E9   EF           MOV     A,R7
   \   0000EA   3400         ADDC    A,#0x0
   \   0000EC   F583         MOV     DPH,A
   \   0000EE   E0           MOVX    A,@DPTR
   \   0000EF   F9           MOV     R1,A
   \   0000F0   12....       LCALL   ??ZDP_GenericRsp?relay
   \   0000F3   7404         MOV     A,#0x4
   \   0000F5   12....       LCALL   ?DEALLOC_XSTACK8
   \   0000F8   E9           MOV     A,R1
   1770            }
   1771          }
   \                     ??ZDO_ProcessUserDescReq_2:
   \   0000F9   7411         MOV     A,#0x11
   \   0000FB   12....       LCALL   ?DEALLOC_XSTACK8
   \   0000FE   7F04         MOV     R7,#0x4
   \   000100   02....       LJMP    ?BANKED_LEAVE_XDATA
   1772          
   1773          /*********************************************************************
   1774           * @fn          ZDO_ProcessUserDescSet
   1775           *
   1776           * @brief       This function finishes the processing of the User
   1777           *              Descriptor Set and generates the response.
   1778           *
   1779           * @param       inMsg - incoming message (request)
   1780           *
   1781           * @return      none
   1782           */

   \                                 In  segment BANKED_CODE, align 1, keep-with-next
   1783          void ZDO_ProcessUserDescSet( zdoIncomingMsg_t *inMsg )
   \                     ZDO_ProcessUserDescSet:
   1784          {
   \   000000   74EE         MOV     A,#-0x12
   \   000002   12....       LCALL   ?BANKED_ENTER_XDATA
   \   000005                ; Saved register size: 18
   \   000005                ; Auto size: 21
   \   000005   74EB         MOV     A,#-0x15
   \   000007   12....       LCALL   ?ALLOC_XSTACK8
   \   00000A   8A..         MOV     ?V0 + 8,R2
   \   00000C   8B..         MOV     ?V0 + 9,R3
   1785            uint8 *msg;
   1786            uint16 aoi;
   1787            UserDescriptorFormat_t userDesc;
   1788            uint8 outMsg[3];
   1789            uint8 status;
   1790          
   1791            msg = inMsg->asdu;
   \   00000E   E5..         MOV     A,?V0 + 8
   \   000010   2413         ADD     A,#0x13
   \   000012   F582         MOV     DPL,A
   \   000014   E5..         MOV     A,?V0 + 9
   \   000016   3400         ADDC    A,#0x0
   \   000018   F583         MOV     DPH,A
   \   00001A   E0           MOVX    A,@DPTR
   \   00001B   F8           MOV     R0,A
   \   00001C   A3           INC     DPTR
   \   00001D   E0           MOVX    A,@DPTR
   \   00001E   F9           MOV     R1,A
   \   00001F   88..         MOV     ?V0 + 0,R0
   \   000021   89..         MOV     ?V0 + 1,R1
   1792            aoi = BUILD_UINT16( msg[0], msg[1] );
   \   000023   85..82       MOV     DPL,?V0 + 0
   \   000026   85..83       MOV     DPH,?V0 + 1
   \   000029   E0           MOVX    A,@DPTR
   \   00002A   FA           MOV     R2,A
   \   00002B   7B00         MOV     R3,#0x0
   \   00002D   85..82       MOV     DPL,?V0 + 0
   \   000030   85..83       MOV     DPH,?V0 + 1
   \   000033   A3           INC     DPTR
   \   000034   E0           MOVX    A,@DPTR
   \   000035   F8           MOV     R0,A
   \   000036   7900         MOV     R1,#0x0
   \   000038   E4           CLR     A
   \   000039   C8           XCH     A,R0
   \   00003A   F9           MOV     R1,A
   \   00003B   EA           MOV     A,R2
   \   00003C   28           ADD     A,R0
   \   00003D   F8           MOV     R0,A
   \   00003E   EB           MOV     A,R3
   \   00003F   39           ADDC    A,R1
   \   000040   F9           MOV     R1,A
   \   000041   E8           MOV     A,R0
   \   000042   FE           MOV     R6,A
   \   000043   E9           MOV     A,R1
   \   000044   FF           MOV     R7,A
   1793          
   1794            if ( aoi == ZDAppNwkAddr.addr.shortAddr )
   \   000045   90....       MOV     DPTR,#ZDAppNwkAddr
   \   000048   E0           MOVX    A,@DPTR
   \   000049   6E           XRL     A,R6
   \   00004A   7003         JNZ     ??ZDO_ProcessUserDescSet_0
   \   00004C   A3           INC     DPTR
   \   00004D   E0           MOVX    A,@DPTR
   \   00004E   6F           XRL     A,R7
   \                     ??ZDO_ProcessUserDescSet_0:
   \   00004F   6003         JZ      $+5
   \   000051   02....       LJMP    ??ZDO_ProcessUserDescSet_1 & 0xFFFF
   1795            {
   1796              userDesc.len = (msg[2] < AF_MAX_USER_DESCRIPTOR_LEN) ? msg[2] : AF_MAX_USER_DESCRIPTOR_LEN;
   \   000054   85..82       MOV     DPL,?V0 + 0
   \   000057   85..83       MOV     DPH,?V0 + 1
   \   00005A   A3           INC     DPTR
   \   00005B   A3           INC     DPTR
   \   00005C   E0           MOVX    A,@DPTR
   \   00005D   C3           CLR     C
   \   00005E   9410         SUBB    A,#0x10
   \   000060   5012         JNC     ??ZDO_ProcessUserDescSet_2
   \   000062   85..82       MOV     DPL,?V0 + 0
   \   000065   85..83       MOV     DPH,?V0 + 1
   \   000068   A3           INC     DPTR
   \   000069   A3           INC     DPTR
   \   00006A   E0           MOVX    A,@DPTR
   \   00006B   85..82       MOV     DPL,?XSP + 0
   \   00006E   85..83       MOV     DPH,?XSP + 1
   \   000071   F0           MOVX    @DPTR,A
   \   000072   8009         SJMP    ??ZDO_ProcessUserDescSet_3
   \                     ??ZDO_ProcessUserDescSet_2:
   \   000074   85..82       MOV     DPL,?XSP + 0
   \   000077   85..83       MOV     DPH,?XSP + 1
   \   00007A   7410         MOV     A,#0x10
   \   00007C   F0           MOVX    @DPTR,A
   \                     ??ZDO_ProcessUserDescSet_3:
   \   00007D   85..82       MOV     DPL,?XSP + 0
   \   000080   85..83       MOV     DPH,?XSP + 1
   \   000083   E0           MOVX    A,@DPTR
   \   000084   C0E0         PUSH    A
   \   000086   7404         MOV     A,#0x4
   \   000088   12....       LCALL   ?XSTACK_DISP0_8
   \   00008B   D0E0         POP     A
   \   00008D   F0           MOVX    @DPTR,A
   1797              msg ++;  // increment one for the length field
   \   00008E   85..82       MOV     DPL,?V0 + 0
   \   000091   85..83       MOV     DPH,?V0 + 1
   \   000094   A3           INC     DPTR
   \   000095   8582..       MOV     ?V0 + 0,DPL
   \   000098   8583..       MOV     ?V0 + 1,DPH
   1798          
   1799              osal_memcpy( userDesc.desc, &msg[2], userDesc.len );
   \   00009B                ; Setup parameters for call to function osal_memcpy
   \   00009B   85..82       MOV     DPL,?V0 + 0
   \   00009E   85..83       MOV     DPH,?V0 + 1
   \   0000A1   A3           INC     DPTR
   \   0000A2   A3           INC     DPTR
   \   0000A3   A982         MOV     R1,DPL
   \   0000A5   AA83         MOV     R2,DPH
   \   0000A7   7B00         MOV     R3,#0x0
   \   0000A9   89..         MOV     ?V0 + 4,R1
   \   0000AB   8A..         MOV     ?V0 + 5,R2
   \   0000AD   8B..         MOV     ?V0 + 6,R3
   \   0000AF   78..         MOV     R0,#?V0 + 4
   \   0000B1   12....       LCALL   ?PUSH_XSTACK_I_THREE
   \   0000B4   7407         MOV     A,#0x7
   \   0000B6   12....       LCALL   ?XSTACK_DISP0_8
   \   0000B9   E0           MOVX    A,@DPTR
   \   0000BA   FC           MOV     R4,A
   \   0000BB   7D00         MOV     R5,#0x0
   \   0000BD   7408         MOV     A,#0x8
   \   0000BF   12....       LCALL   ?XSTACK_DISP0_8
   \   0000C2   AA82         MOV     R2,DPL
   \   0000C4   AB83         MOV     R3,DPH
   \   0000C6   12....       LCALL   ??osal_memcpy?relay
   \   0000C9   7403         MOV     A,#0x3
   \   0000CB   12....       LCALL   ?DEALLOC_XSTACK8
   1800              osal_nv_write( ZCD_NV_USERDESC, 0, sizeof(UserDescriptorFormat_t), &userDesc );
   \   0000CE                ; Setup parameters for call to function osal_nv_write
   \   0000CE   7404         MOV     A,#0x4
   \   0000D0   12....       LCALL   ?XSTACK_DISP0_8
   \   0000D3   8582..       MOV     ?V0 + 4,DPL
   \   0000D6   8583..       MOV     ?V0 + 5,DPH
   \   0000D9   78..         MOV     R0,#?V0 + 4
   \   0000DB   12....       LCALL   ?PUSH_XSTACK_I_TWO
   \   0000DE   75..11       MOV     ?V0 + 4,#0x11
   \   0000E1   75..00       MOV     ?V0 + 5,#0x0
   \   0000E4   78..         MOV     R0,#?V0 + 4
   \   0000E6   12....       LCALL   ?PUSH_XSTACK_I_TWO
   \   0000E9   7C00         MOV     R4,#0x0
   \   0000EB   7D00         MOV     R5,#0x0
   \   0000ED   7A81         MOV     R2,#-0x7f
   \   0000EF   7B00         MOV     R3,#0x0
   \   0000F1   12....       LCALL   ??osal_nv_write?relay
   \   0000F4   7404         MOV     A,#0x4
   \   0000F6   12....       LCALL   ?DEALLOC_XSTACK8
   \   0000F9   E9           MOV     A,R1
   1801              if ( userDesc.len != 0 )
   \   0000FA   7404         MOV     A,#0x4
   \   0000FC   12....       LCALL   ?XSTACK_DISP0_8
   \   0000FF   E0           MOVX    A,@DPTR
   \   000100   6009         JZ      ??ZDO_ProcessUserDescSet_4
   1802              {
   1803                ZDO_Config_Node_Descriptor.UserDescAvail = TRUE;
   \   000102   90....       MOV     DPTR,#ZDO_Config_Node_Descriptor
   \   000105   E0           MOVX    A,@DPTR
   \   000106   D2E4         SETB    0xE0 /* A   */.4
   \   000108   F0           MOVX    @DPTR,A
   \   000109   8007         SJMP    ??ZDO_ProcessUserDescSet_5
   1804              }
   1805              else
   1806              {
   1807                ZDO_Config_Node_Descriptor.UserDescAvail = FALSE;
   \                     ??ZDO_ProcessUserDescSet_4:
   \   00010B   90....       MOV     DPTR,#ZDO_Config_Node_Descriptor
   \   00010E   E0           MOVX    A,@DPTR
   \   00010F   C2E4         CLR     0xE0 /* A   */.4
   \   000111   F0           MOVX    @DPTR,A
   1808              }
   1809          
   1810              status = ZDP_SUCCESS;
   \                     ??ZDO_ProcessUserDescSet_5:
   \   000112   75..00       MOV     ?V0 + 2,#0x0
   \   000115   8003         SJMP    ??ZDO_ProcessUserDescSet_6
   1811            }
   1812            else
   1813            {
   1814              status =  ZDP_NOT_SUPPORTED;
   \                     ??ZDO_ProcessUserDescSet_1:
   \   000117   75..84       MOV     ?V0 + 2,#-0x7c
   1815            }
   1816          
   1817            outMsg[0] = status;
   \                     ??ZDO_ProcessUserDescSet_6:
   \   00011A   E5..         MOV     A,?V0 + 2
   \   00011C   7401         MOV     A,#0x1
   \   00011E   12....       LCALL   ?XSTACK_DISP0_8
   \   000121   E5..         MOV     A,?V0 + 2
   \   000123   F0           MOVX    @DPTR,A
   1818            outMsg[1] = LO_UINT16( aoi );
   \   000124   EE           MOV     A,R6
   \   000125   C0E0         PUSH    A
   \   000127   7402         MOV     A,#0x2
   \   000129   12....       LCALL   ?XSTACK_DISP0_8
   \   00012C   D0E0         POP     A
   \   00012E   F0           MOVX    @DPTR,A
   1819            outMsg[2] = LO_UINT16( aoi );
   \   00012F   EE           MOV     A,R6
   \   000130   C0E0         PUSH    A
   \   000132   7403         MOV     A,#0x3
   \   000134   12....       LCALL   ?XSTACK_DISP0_8
   \   000137   D0E0         POP     A
   \   000139   F0           MOVX    @DPTR,A
   1820          
   1821            ZDP_SendData( &(inMsg->TransSeq), &(inMsg->srcAddr), User_Desc_conf, 3, outMsg,
   1822                         inMsg->SecurityUse );
   \   00013A                ; Setup parameters for call to function ZDP_SendData
   \   00013A   E5..         MOV     A,?V0 + 8
   \   00013C   240E         ADD     A,#0xe
   \   00013E   F582         MOV     DPL,A
   \   000140   E5..         MOV     A,?V0 + 9
   \   000142   3400         ADDC    A,#0x0
   \   000144   F583         MOV     DPH,A
   \   000146   E0           MOVX    A,@DPTR
   \   000147   F5..         MOV     ?V0 + 3,A
   \   000149   78..         MOV     R0,#?V0 + 3
   \   00014B   12....       LCALL   ?PUSH_XSTACK_I_ONE
   \   00014E   7402         MOV     A,#0x2
   \   000150   12....       LCALL   ?XSTACK_DISP0_8
   \   000153   8582..       MOV     ?V0 + 4,DPL
   \   000156   8583..       MOV     ?V0 + 5,DPH
   \   000159   78..         MOV     R0,#?V0 + 4
   \   00015B   12....       LCALL   ?PUSH_XSTACK_I_TWO
   \   00015E   75..14       MOV     ?V0 + 4,#0x14
   \   000161   75..80       MOV     ?V0 + 5,#-0x80
   \   000164   78..         MOV     R0,#?V0 + 4
   \   000166   12....       LCALL   ?PUSH_XSTACK_I_TWO
   \   000169   7903         MOV     R1,#0x3
   \   00016B   E5..         MOV     A,?V0 + 8
   \   00016D   2402         ADD     A,#0x2
   \   00016F   FC           MOV     R4,A
   \   000170   E5..         MOV     A,?V0 + 9
   \   000172   3400         ADDC    A,#0x0
   \   000174   FD           MOV     R5,A
   \   000175   E5..         MOV     A,?V0 + 8
   \   000177   240F         ADD     A,#0xf
   \   000179   FA           MOV     R2,A
   \   00017A   E5..         MOV     A,?V0 + 9
   \   00017C   3400         ADDC    A,#0x0
   \   00017E   FB           MOV     R3,A
   \   00017F   12....       LCALL   ??ZDP_SendData?relay
   \   000182   7405         MOV     A,#0x5
   \   000184   12....       LCALL   ?DEALLOC_XSTACK8
   \   000187   E9           MOV     A,R1
   1823          }
   \   000188   7415         MOV     A,#0x15
   \   00018A   12....       LCALL   ?DEALLOC_XSTACK8
   \   00018D   7F0A         MOV     R7,#0xa
   \   00018F   02....       LJMP    ?BANKED_LEAVE_XDATA
   1824          
   1825          /*********************************************************************
   1826           * @fn          ZDO_ProcessDeviceAnnce
   1827           *
   1828           * @brief       This function processes a device annouce message.
   1829           *
   1830           * @param       inMsg - incoming message
   1831           *
   1832           * @return      none
   1833           */

   \                                 In  segment BANKED_CODE, align 1, keep-with-next
   1834          void ZDO_ProcessDeviceAnnce( zdoIncomingMsg_t *inMsg )
   \                     ZDO_ProcessDeviceAnnce:
   1835          {
   \   000000   74F4         MOV     A,#-0xc
   \   000002   12....       LCALL   ?BANKED_ENTER_XDATA
   \   000005                ; Saved register size: 12
   \   000005                ; Auto size: 32
   \   000005   74E0         MOV     A,#-0x20
   \   000007   12....       LCALL   ?ALLOC_XSTACK8
   \   00000A   EA           MOV     A,R2
   \   00000B   FE           MOV     R6,A
   \   00000C   EB           MOV     A,R3
   \   00000D   FF           MOV     R7,A
   1836            ZDO_DeviceAnnce_t Annce;
   1837            AddrMgrEntry_t addrEntry;
   1838            uint8 parentExt[Z_EXTADDR_LEN];
   1839          
   1840            // Parse incoming message
   1841            ZDO_ParseDeviceAnnce( inMsg, &Annce );
   \   00000E                ; Setup parameters for call to function ZDO_ParseDeviceAnnce
   \   00000E   85..82       MOV     DPL,?XSP + 0
   \   000011   85..83       MOV     DPH,?XSP + 1
   \   000014   AC82         MOV     R4,DPL
   \   000016   AD83         MOV     R5,DPH
   \   000018   EE           MOV     A,R6
   \   000019   FA           MOV     R2,A
   \   00001A   EF           MOV     A,R7
   \   00001B   FB           MOV     R3,A
   \   00001C   12....       LCALL   ??ZDO_ParseDeviceAnnce?relay
   1842          
   1843            if ( ZSTACK_END_DEVICE_BUILD )
   1844            {
   1845              // Make sure the message didn't come from myself - end device only
   1846              if ( osal_ExtAddrEqual( NLME_GetExtAddr(), Annce.extAddr ) && Annce.nwkAddr == NLME_GetShortAddr() )
   1847              {
   1848                return;
   1849              }
   1850            }
   1851          
   1852          #if defined ( ZIGBEE_STOCHASTIC_ADDRESSING )
   1853            // Clean up the neighbor table
   1854            nwkNeighborRemoveAllStranded();
   \   00001F                ; Setup parameters for call to function nwkNeighborRemoveAllStranded
   \   00001F   12....       LCALL   ??nwkNeighborRemoveAllStranded?relay
   1855          
   1856            // If address conflict is detected, no need to update the address manager
   1857            if ( NLME_CheckNewAddrSet( Annce.nwkAddr, Annce.extAddr )== ZFailure )
   \   000022                ; Setup parameters for call to function NLME_CheckNewAddrSet
   \   000022   7402         MOV     A,#0x2
   \   000024   12....       LCALL   ?XSTACK_DISP0_8
   \   000027   AC82         MOV     R4,DPL
   \   000029   AD83         MOV     R5,DPH
   \   00002B   85..82       MOV     DPL,?XSP + 0
   \   00002E   85..83       MOV     DPH,?XSP + 1
   \   000031   E0           MOVX    A,@DPTR
   \   000032   FA           MOV     R2,A
   \   000033   A3           INC     DPTR
   \   000034   E0           MOVX    A,@DPTR
   \   000035   FB           MOV     R3,A
   \   000036   12....       LCALL   ??NLME_CheckNewAddrSet?relay
   \   000039   E9           MOV     A,R1
   \   00003A   6401         XRL     A,#0x1
   \   00003C   7003         JNZ     $+5
   \   00003E   02....       LJMP    ??ZDO_ProcessDeviceAnnce_0 & 0xFFFF
   1858            {
   1859              return;
   1860            }
   1861          #endif
   1862          
   1863          #if defined ( ZIGBEE_STOCHASTIC_ADDRESSING )
   1864            // Check for parent's address
   1865            NLME_GetCoordExtAddr( parentExt );
   \   000041                ; Setup parameters for call to function NLME_GetCoordExtAddr
   \   000041   740B         MOV     A,#0xb
   \   000043   12....       LCALL   ?XSTACK_DISP0_8
   \   000046   AA82         MOV     R2,DPL
   \   000048   AB83         MOV     R3,DPH
   \   00004A   12....       LCALL   ??NLME_GetCoordExtAddr?relay
   1866            if ( osal_ExtAddrEqual( parentExt, Annce.extAddr ) )
   \   00004D                ; Setup parameters for call to function sAddrExtCmp
   \   00004D   7402         MOV     A,#0x2
   \   00004F   12....       LCALL   ?XSTACK_DISP0_8
   \   000052   AC82         MOV     R4,DPL
   \   000054   AD83         MOV     R5,DPH
   \   000056   740B         MOV     A,#0xb
   \   000058   12....       LCALL   ?XSTACK_DISP0_8
   \   00005B   AA82         MOV     R2,DPL
   \   00005D   AB83         MOV     R3,DPH
   \   00005F   12....       LCALL   ??sAddrExtCmp?relay
   \   000062   E9           MOV     A,R1
   \   000063   6037         JZ      ??ZDO_ProcessDeviceAnnce_1
   1867            {
   1868              if ( Annce.nwkAddr != NLME_GetCoordShortAddr() )
   \   000065                ; Setup parameters for call to function NLME_GetCoordShortAddr
   \   000065   12....       LCALL   ??NLME_GetCoordShortAddr?relay
   \   000068   8A..         MOV     ?V0 + 0,R2
   \   00006A   8B..         MOV     ?V0 + 1,R3
   \   00006C   A8..         MOV     R0,?V0 + 0
   \   00006E   A9..         MOV     R1,?V0 + 1
   \   000070   85..82       MOV     DPL,?XSP + 0
   \   000073   85..83       MOV     DPH,?XSP + 1
   \   000076   E0           MOVX    A,@DPTR
   \   000077   68           XRL     A,R0
   \   000078   7003         JNZ     ??ZDO_ProcessDeviceAnnce_2
   \   00007A   A3           INC     DPTR
   \   00007B   E0           MOVX    A,@DPTR
   \   00007C   69           XRL     A,R1
   \                     ??ZDO_ProcessDeviceAnnce_2:
   \   00007D   601D         JZ      ??ZDO_ProcessDeviceAnnce_1
   1869              {
   1870                // Set the Parent's MAC's new short address
   1871                _NIB.nwkCoordAddress = Annce.nwkAddr;
   \   00007F   85..82       MOV     DPL,?XSP + 0
   \   000082   85..83       MOV     DPH,?XSP + 1
   \   000085   E0           MOVX    A,@DPTR
   \   000086   F8           MOV     R0,A
   \   000087   A3           INC     DPTR
   \   000088   E0           MOVX    A,@DPTR
   \   000089   F9           MOV     R1,A
   \   00008A   90....       MOV     DPTR,#_NIB + 23
   \   00008D   E8           MOV     A,R0
   \   00008E   F0           MOVX    @DPTR,A
   \   00008F   A3           INC     DPTR
   \   000090   E9           MOV     A,R1
   \   000091   F0           MOVX    @DPTR,A
   1872                ZMacSetReq( ZMacCoordShortAddress, (byte*)&(_NIB.nwkCoordAddress) );
   \   000092                ; Setup parameters for call to function ZMacSetReq
   \   000092   7A..         MOV     R2,#(_NIB + 23) & 0xff
   \   000094   7B..         MOV     R3,#((_NIB + 23) >> 8) & 0xff
   \   000096   794B         MOV     R1,#0x4b
   \   000098   12....       LCALL   ??ZMacSetReq?relay
   \   00009B   E9           MOV     A,R1
   1873              }
   1874            }
   1875          
   1876            if ( ZSTACK_ROUTER_BUILD )
   1877            {
   1878              // If the device annce comes from a end device child that has moved
   1879              // to another parent, remove it from associated device list
   1880          
   1881              // If the dev annce is coming from other device's children,
   1882              // (The dev annce from its own children shall be unicast to itself,
   1883              // So check the mac destination address)
   1884              // Remove it from the associated device list. If it is not
   1885              // a child, no action will be taken in AssocRemove() anyway.
   1886              if ( inMsg->macDestAddr != NLME_GetShortAddr() )
   \                     ??ZDO_ProcessDeviceAnnce_1:
   \   00009C   EE           MOV     A,R6
   \   00009D   2411         ADD     A,#0x11
   \   00009F   F582         MOV     DPL,A
   \   0000A1   EF           MOV     A,R7
   \   0000A2   3400         ADDC    A,#0x0
   \   0000A4   F583         MOV     DPH,A
   \   0000A6   C082         PUSH    DPL
   \   0000A8   C083         PUSH    DPH
   \   0000AA                ; Setup parameters for call to function NLME_GetShortAddr
   \   0000AA   12....       LCALL   ??NLME_GetShortAddr?relay
   \   0000AD   8A..         MOV     ?V0 + 0,R2
   \   0000AF   8B..         MOV     ?V0 + 1,R3
   \   0000B1   D083         POP     DPH
   \   0000B3   D082         POP     DPL
   \   0000B5   E0           MOVX    A,@DPTR
   \   0000B6   65..         XRL     A,?V0 + 0
   \   0000B8   7004         JNZ     ??ZDO_ProcessDeviceAnnce_3
   \   0000BA   A3           INC     DPTR
   \   0000BB   E0           MOVX    A,@DPTR
   \   0000BC   65..         XRL     A,?V0 + 1
   \                     ??ZDO_ProcessDeviceAnnce_3:
   \   0000BE   6047         JZ      ??ZDO_ProcessDeviceAnnce_4
   1887              {
   1888                associated_devices_t *dev_ptr;
   1889          
   1890                // If it's an end device child
   1891                dev_ptr = AssocGetWithExt( Annce.extAddr );
   \   0000C0                ; Setup parameters for call to function AssocGetWithExt
   \   0000C0   7402         MOV     A,#0x2
   \   0000C2   12....       LCALL   ?XSTACK_DISP0_8
   \   0000C5   AA82         MOV     R2,DPL
   \   0000C7   AB83         MOV     R3,DPH
   \   0000C9   12....       LCALL   ??AssocGetWithExt?relay
   \   0000CC   8A..         MOV     ?V0 + 2,R2
   \   0000CE   8B..         MOV     ?V0 + 3,R3
   \   0000D0   85....       MOV     ?V0 + 0,?V0 + 2
   \   0000D3   85....       MOV     ?V0 + 1,?V0 + 3
   1892                if ( dev_ptr )
   \   0000D6   E5..         MOV     A,?V0 + 0
   \   0000D8   45..         ORL     A,?V0 + 1
   \   0000DA   602B         JZ      ??ZDO_ProcessDeviceAnnce_4
   1893                {
   1894                  if ( dev_ptr->nodeRelation == CHILD_RFD ||
   1895                       dev_ptr->nodeRelation == CHILD_RFD_RX_IDLE )
   \   0000DC   85..82       MOV     DPL,?V0 + 0
   \   0000DF   85..83       MOV     DPH,?V0 + 1
   \   0000E2   A3           INC     DPTR
   \   0000E3   A3           INC     DPTR
   \   0000E4   A3           INC     DPTR
   \   0000E5   A3           INC     DPTR
   \   0000E6   E0           MOVX    A,@DPTR
   \   0000E7   6401         XRL     A,#0x1
   \   0000E9   600F         JZ      ??ZDO_ProcessDeviceAnnce_5
   \   0000EB   85..82       MOV     DPL,?V0 + 0
   \   0000EE   85..83       MOV     DPH,?V0 + 1
   \   0000F1   A3           INC     DPTR
   \   0000F2   A3           INC     DPTR
   \   0000F3   A3           INC     DPTR
   \   0000F4   A3           INC     DPTR
   \   0000F5   E0           MOVX    A,@DPTR
   \   0000F6   6402         XRL     A,#0x2
   \   0000F8   700D         JNZ     ??ZDO_ProcessDeviceAnnce_4
   1896                  {
   1897                    AssocRemove( Annce.extAddr );
   \                     ??ZDO_ProcessDeviceAnnce_5:
   \   0000FA                ; Setup parameters for call to function AssocRemove
   \   0000FA   7402         MOV     A,#0x2
   \   0000FC   12....       LCALL   ?XSTACK_DISP0_8
   \   0000FF   AA82         MOV     R2,DPL
   \   000101   AB83         MOV     R3,DPH
   \   000103   12....       LCALL   ??AssocRemove?relay
   \   000106   E9           MOV     A,R1
   1898                  }
   1899                }
   1900              }
   1901          
   1902              if ( Annce.nwkAddr != NLME_GetShortAddr() )
   \                     ??ZDO_ProcessDeviceAnnce_4:
   \   000107                ; Setup parameters for call to function NLME_GetShortAddr
   \   000107   12....       LCALL   ??NLME_GetShortAddr?relay
   \   00010A   8A..         MOV     ?V0 + 0,R2
   \   00010C   8B..         MOV     ?V0 + 1,R3
   \   00010E   A8..         MOV     R0,?V0 + 0
   \   000110   A9..         MOV     R1,?V0 + 1
   \   000112   85..82       MOV     DPL,?XSP + 0
   \   000115   85..83       MOV     DPH,?XSP + 1
   \   000118   E0           MOVX    A,@DPTR
   \   000119   68           XRL     A,R0
   \   00011A   7003         JNZ     ??ZDO_ProcessDeviceAnnce_6
   \   00011C   A3           INC     DPTR
   \   00011D   E0           MOVX    A,@DPTR
   \   00011E   69           XRL     A,R1
   \                     ??ZDO_ProcessDeviceAnnce_6:
   \   00011F   6034         JZ      ??ZDO_ProcessDeviceAnnce_7
   1903              {
   1904                // If an associated device is found with matched extended Address,
   1905                // update its short address
   1906                if ( AssocChangeNwkAddr( Annce.nwkAddr, Annce.extAddr ) )
   \   000121                ; Setup parameters for call to function AssocChangeNwkAddr
   \   000121   7402         MOV     A,#0x2
   \   000123   12....       LCALL   ?XSTACK_DISP0_8
   \   000126   AC82         MOV     R4,DPL
   \   000128   AD83         MOV     R5,DPH
   \   00012A   85..82       MOV     DPL,?XSP + 0
   \   00012D   85..83       MOV     DPH,?XSP + 1
   \   000130   E0           MOVX    A,@DPTR
   \   000131   FA           MOV     R2,A
   \   000132   A3           INC     DPTR
   \   000133   E0           MOVX    A,@DPTR
   \   000134   FB           MOV     R3,A
   \   000135   12....       LCALL   ??AssocChangeNwkAddr?relay
   \   000138   E9           MOV     A,R1
   \   000139   601A         JZ      ??ZDO_ProcessDeviceAnnce_7
   1907                {
   1908                  // Update the neighbor table
   1909                  nwkNeighborUpdateNwkAddr( Annce.nwkAddr, Annce.extAddr );
   \   00013B                ; Setup parameters for call to function nwkNeighborUpdateNwkAddr
   \   00013B   7402         MOV     A,#0x2
   \   00013D   12....       LCALL   ?XSTACK_DISP0_8
   \   000140   AC82         MOV     R4,DPL
   \   000142   AD83         MOV     R5,DPH
   \   000144   85..82       MOV     DPL,?XSP + 0
   \   000147   85..83       MOV     DPH,?XSP + 1
   \   00014A   E0           MOVX    A,@DPTR
   \   00014B   FA           MOV     R2,A
   \   00014C   A3           INC     DPTR
   \   00014D   E0           MOVX    A,@DPTR
   \   00014E   FB           MOV     R3,A
   \   00014F   12....       LCALL   ??nwkNeighborUpdateNwkAddr?relay
   1910          
   1911                  // Set event to save NV
   1912                  ZDApp_NVUpdate();
   \   000152                ; Setup parameters for call to function ZDApp_NVUpdate
   \   000152   12....       LCALL   ??ZDApp_NVUpdate?relay
   1913                }
   1914              }
   1915            }
   1916            
   1917            // Assume that the device has moved, remove existing routing entries
   1918            RTG_RemoveRtgEntry( Annce.nwkAddr, 0 );
   \                     ??ZDO_ProcessDeviceAnnce_7:
   \   000155                ; Setup parameters for call to function RTG_RemoveRtgEntry
   \   000155   7900         MOV     R1,#0x0
   \   000157   85..82       MOV     DPL,?XSP + 0
   \   00015A   85..83       MOV     DPH,?XSP + 1
   \   00015D   E0           MOVX    A,@DPTR
   \   00015E   FA           MOV     R2,A
   \   00015F   A3           INC     DPTR
   \   000160   E0           MOVX    A,@DPTR
   \   000161   FB           MOV     R3,A
   \   000162   12....       LCALL   ??RTG_RemoveRtgEntry?relay
   \   000165   E9           MOV     A,R1
   1919            
   1920          #endif // ZIGBEE_STOCHASTIC_ADDRESSING
   1921          
   1922          
   1923            // Fill in the extended address in address manager if we don't have it already.
   1924            addrEntry.user = ADDRMGR_USER_DEFAULT;
   \   000166   7413         MOV     A,#0x13
   \   000168   12....       LCALL   ?XSTACK_DISP0_8
   \   00016B   7400         MOV     A,#0x0
   \   00016D   F0           MOVX    @DPTR,A
   1925            addrEntry.nwkAddr = Annce.nwkAddr;
   \   00016E   85..82       MOV     DPL,?XSP + 0
   \   000171   85..83       MOV     DPH,?XSP + 1
   \   000174   E0           MOVX    A,@DPTR
   \   000175   F8           MOV     R0,A
   \   000176   A3           INC     DPTR
   \   000177   E0           MOVX    A,@DPTR
   \   000178   F9           MOV     R1,A
   \   000179   7414         MOV     A,#0x14
   \   00017B   12....       LCALL   ?XSTACK_DISP0_8
   \   00017E   E8           MOV     A,R0
   \   00017F   F0           MOVX    @DPTR,A
   \   000180   A3           INC     DPTR
   \   000181   E9           MOV     A,R1
   \   000182   F0           MOVX    @DPTR,A
   1926            if ( AddrMgrEntryLookupNwk( &addrEntry ) )
   \   000183                ; Setup parameters for call to function AddrMgrEntryLookupNwk
   \   000183   7413         MOV     A,#0x13
   \   000185   12....       LCALL   ?XSTACK_DISP0_8
   \   000188   AA82         MOV     R2,DPL
   \   00018A   AB83         MOV     R3,DPH
   \   00018C   12....       LCALL   ??AddrMgrEntryLookupNwk?relay
   \   00018F   E9           MOV     A,R1
   \   000190   604C         JZ      ??ZDO_ProcessDeviceAnnce_0
   1927            {
   1928              osal_memset( parentExt, 0, Z_EXTADDR_LEN );
   \   000192                ; Setup parameters for call to function osal_memset
   \   000192   7C08         MOV     R4,#0x8
   \   000194   7D00         MOV     R5,#0x0
   \   000196   7900         MOV     R1,#0x0
   \   000198   740B         MOV     A,#0xb
   \   00019A   12....       LCALL   ?XSTACK_DISP0_8
   \   00019D   AA82         MOV     R2,DPL
   \   00019F   AB83         MOV     R3,DPH
   \   0001A1   12....       LCALL   ??osal_memset?relay
   1929              if ( osal_ExtAddrEqual( parentExt, addrEntry.extAddr ) )
   \   0001A4                ; Setup parameters for call to function sAddrExtCmp
   \   0001A4   7416         MOV     A,#0x16
   \   0001A6   12....       LCALL   ?XSTACK_DISP0_8
   \   0001A9   AC82         MOV     R4,DPL
   \   0001AB   AD83         MOV     R5,DPH
   \   0001AD   740B         MOV     A,#0xb
   \   0001AF   12....       LCALL   ?XSTACK_DISP0_8
   \   0001B2   AA82         MOV     R2,DPL
   \   0001B4   AB83         MOV     R3,DPH
   \   0001B6   12....       LCALL   ??sAddrExtCmp?relay
   \   0001B9   E9           MOV     A,R1
   \   0001BA   6022         JZ      ??ZDO_ProcessDeviceAnnce_0
   1930              {
   1931                AddrMgrExtAddrSet( addrEntry.extAddr, Annce.extAddr );
   \   0001BC                ; Setup parameters for call to function AddrMgrExtAddrSet
   \   0001BC   7402         MOV     A,#0x2
   \   0001BE   12....       LCALL   ?XSTACK_DISP0_8
   \   0001C1   AC82         MOV     R4,DPL
   \   0001C3   AD83         MOV     R5,DPH
   \   0001C5   7416         MOV     A,#0x16
   \   0001C7   12....       LCALL   ?XSTACK_DISP0_8
   \   0001CA   AA82         MOV     R2,DPL
   \   0001CC   AB83         MOV     R3,DPH
   \   0001CE   12....       LCALL   ??AddrMgrExtAddrSet?relay
   1932                AddrMgrEntryUpdate( &addrEntry );
   \   0001D1                ; Setup parameters for call to function AddrMgrEntryUpdate
   \   0001D1   7413         MOV     A,#0x13
   \   0001D3   12....       LCALL   ?XSTACK_DISP0_8
   \   0001D6   AA82         MOV     R2,DPL
   \   0001D8   AB83         MOV     R3,DPH
   \   0001DA   12....       LCALL   ??AddrMgrEntryUpdate?relay
   \   0001DD   E9           MOV     A,R1
   1933              }
   1934            }
   1935          }
   \                     ??ZDO_ProcessDeviceAnnce_0:
   \   0001DE   7420         MOV     A,#0x20
   \   0001E0   12....       LCALL   ?DEALLOC_XSTACK8
   \   0001E3   7F04         MOV     R7,#0x4
   \   0001E5   02....       LJMP    ?BANKED_LEAVE_XDATA
   1936          
   1937          /*********************************************************************
   1938           * @fn          ZDO_BuildSimpleDescBuf
   1939           *
   1940           * @brief       Build a byte sequence representation of a Simple Descriptor.
   1941           *
   1942           * @param       buf  - pointer to a byte array big enough for data.
   1943           * @param       desc - SimpleDescriptionFormat_t *
   1944           *
   1945           * @return      none
   1946           */

   \                                 In  segment BANKED_CODE, align 1, keep-with-next
   1947          void ZDO_BuildSimpleDescBuf( uint8 *buf, SimpleDescriptionFormat_t *desc )
   \                     ZDO_BuildSimpleDescBuf:
   1948          {
   \   000000   74F6         MOV     A,#-0xa
   \   000002   12....       LCALL   ?BANKED_ENTER_XDATA
   \   000005                ; Saved register size: 10
   \   000005                ; Auto size: 0
   1949            byte cnt;
   1950            uint16 *ptr;
   1951          
   1952            *buf++ = desc->EndPoint;
   \   000005   8C82         MOV     DPL,R4
   \   000007   8D83         MOV     DPH,R5
   \   000009   E0           MOVX    A,@DPTR
   \   00000A   8A82         MOV     DPL,R2
   \   00000C   8B83         MOV     DPH,R3
   \   00000E   F0           MOVX    @DPTR,A
   \   00000F   8A82         MOV     DPL,R2
   \   000011   8B83         MOV     DPH,R3
   \   000013   A3           INC     DPTR
   \   000014   AA82         MOV     R2,DPL
   \   000016   AB83         MOV     R3,DPH
   1953            *buf++ = HI_UINT16( desc->AppProfId );
   \   000018   8C82         MOV     DPL,R4
   \   00001A   8D83         MOV     DPH,R5
   \   00001C   A3           INC     DPTR
   \   00001D   E0           MOVX    A,@DPTR
   \   00001E   F5..         MOV     ?V0 + 0,A
   \   000020   A3           INC     DPTR
   \   000021   E0           MOVX    A,@DPTR
   \   000022   F5..         MOV     ?V0 + 1,A
   \   000024   E4           CLR     A
   \   000025   E5..         MOV     A,?V0 + 1
   \   000027   F5..         MOV     ?V0 + 0,A
   \   000029   E5..         MOV     A,?V0 + 0
   \   00002B   8A82         MOV     DPL,R2
   \   00002D   8B83         MOV     DPH,R3
   \   00002F   E5..         MOV     A,?V0 + 0
   \   000031   F0           MOVX    @DPTR,A
   \   000032   8A82         MOV     DPL,R2
   \   000034   8B83         MOV     DPH,R3
   \   000036   A3           INC     DPTR
   \   000037   AA82         MOV     R2,DPL
   \   000039   AB83         MOV     R3,DPH
   1954            *buf++ = LO_UINT16( desc->AppProfId );
   \   00003B   8C82         MOV     DPL,R4
   \   00003D   8D83         MOV     DPH,R5
   \   00003F   A3           INC     DPTR
   \   000040   E0           MOVX    A,@DPTR
   \   000041   F5..         MOV     ?V0 + 0,A
   \   000043   A3           INC     DPTR
   \   000044   E0           MOVX    A,@DPTR
   \   000045   F5..         MOV     ?V0 + 1,A
   \   000047   E5..         MOV     A,?V0 + 0
   \   000049   8A82         MOV     DPL,R2
   \   00004B   8B83         MOV     DPH,R3
   \   00004D   E5..         MOV     A,?V0 + 0
   \   00004F   F0           MOVX    @DPTR,A
   \   000050   8A82         MOV     DPL,R2
   \   000052   8B83         MOV     DPH,R3
   \   000054   A3           INC     DPTR
   \   000055   AA82         MOV     R2,DPL
   \   000057   AB83         MOV     R3,DPH
   1955            *buf++ = HI_UINT16( desc->AppDeviceId );
   \   000059   8C82         MOV     DPL,R4
   \   00005B   8D83         MOV     DPH,R5
   \   00005D   A3           INC     DPTR
   \   00005E   A3           INC     DPTR
   \   00005F   A3           INC     DPTR
   \   000060   E0           MOVX    A,@DPTR
   \   000061   F5..         MOV     ?V0 + 0,A
   \   000063   A3           INC     DPTR
   \   000064   E0           MOVX    A,@DPTR
   \   000065   F5..         MOV     ?V0 + 1,A
   \   000067   E4           CLR     A
   \   000068   E5..         MOV     A,?V0 + 1
   \   00006A   F5..         MOV     ?V0 + 0,A
   \   00006C   E5..         MOV     A,?V0 + 0
   \   00006E   8A82         MOV     DPL,R2
   \   000070   8B83         MOV     DPH,R3
   \   000072   E5..         MOV     A,?V0 + 0
   \   000074   F0           MOVX    @DPTR,A
   \   000075   8A82         MOV     DPL,R2
   \   000077   8B83         MOV     DPH,R3
   \   000079   A3           INC     DPTR
   \   00007A   AA82         MOV     R2,DPL
   \   00007C   AB83         MOV     R3,DPH
   1956            *buf++ = LO_UINT16( desc->AppDeviceId );
   \   00007E   8C82         MOV     DPL,R4
   \   000080   8D83         MOV     DPH,R5
   \   000082   A3           INC     DPTR
   \   000083   A3           INC     DPTR
   \   000084   A3           INC     DPTR
   \   000085   E0           MOVX    A,@DPTR
   \   000086   F5..         MOV     ?V0 + 0,A
   \   000088   A3           INC     DPTR
   \   000089   E0           MOVX    A,@DPTR
   \   00008A   F5..         MOV     ?V0 + 1,A
   \   00008C   E5..         MOV     A,?V0 + 0
   \   00008E   8A82         MOV     DPL,R2
   \   000090   8B83         MOV     DPH,R3
   \   000092   E5..         MOV     A,?V0 + 0
   \   000094   F0           MOVX    @DPTR,A
   \   000095   8A82         MOV     DPL,R2
   \   000097   8B83         MOV     DPH,R3
   \   000099   A3           INC     DPTR
   \   00009A   AA82         MOV     R2,DPL
   \   00009C   AB83         MOV     R3,DPH
   1957          
   1958            *buf++ = (byte)(desc->AppDevVer << 4);
   \   00009E   8C82         MOV     DPL,R4
   \   0000A0   8D83         MOV     DPH,R5
   \   0000A2   A3           INC     DPTR
   \   0000A3   A3           INC     DPTR
   \   0000A4   A3           INC     DPTR
   \   0000A5   A3           INC     DPTR
   \   0000A6   A3           INC     DPTR
   \   0000A7   E0           MOVX    A,@DPTR
   \   0000A8   C4           SWAP    A
   \   0000A9   54F0         ANL     A,#0xf0
   \   0000AB   8A82         MOV     DPL,R2
   \   0000AD   8B83         MOV     DPH,R3
   \   0000AF   F0           MOVX    @DPTR,A
   \   0000B0   8A82         MOV     DPL,R2
   \   0000B2   8B83         MOV     DPH,R3
   \   0000B4   A3           INC     DPTR
   \   0000B5   AA82         MOV     R2,DPL
   \   0000B7   AB83         MOV     R3,DPH
   1959          
   1960            *buf++ = desc->AppNumInClusters;
   \   0000B9   8C82         MOV     DPL,R4
   \   0000BB   8D83         MOV     DPH,R5
   \   0000BD   A3           INC     DPTR
   \   0000BE   A3           INC     DPTR
   \   0000BF   A3           INC     DPTR
   \   0000C0   A3           INC     DPTR
   \   0000C1   A3           INC     DPTR
   \   0000C2   A3           INC     DPTR
   \   0000C3   E0           MOVX    A,@DPTR
   \   0000C4   8A82         MOV     DPL,R2
   \   0000C6   8B83         MOV     DPH,R3
   \   0000C8   F0           MOVX    @DPTR,A
   \   0000C9   8A82         MOV     DPL,R2
   \   0000CB   8B83         MOV     DPH,R3
   \   0000CD   A3           INC     DPTR
   \   0000CE   AA82         MOV     R2,DPL
   \   0000D0   AB83         MOV     R3,DPH
   1961            ptr = desc->pAppInClusterList;
   \   0000D2   8C82         MOV     DPL,R4
   \   0000D4   8D83         MOV     DPH,R5
   \   0000D6   A3           INC     DPTR
   \   0000D7   A3           INC     DPTR
   \   0000D8   A3           INC     DPTR
   \   0000D9   A3           INC     DPTR
   \   0000DA   A3           INC     DPTR
   \   0000DB   A3           INC     DPTR
   \   0000DC   A3           INC     DPTR
   \   0000DD   E0           MOVX    A,@DPTR
   \   0000DE   F5..         MOV     ?V0 + 0,A
   \   0000E0   A3           INC     DPTR
   \   0000E1   E0           MOVX    A,@DPTR
   \   0000E2   F5..         MOV     ?V0 + 1,A
   \   0000E4   A8..         MOV     R0,?V0 + 0
   \   0000E6   A9..         MOV     R1,?V0 + 1
   1962            for ( cnt = 0; cnt < desc->AppNumInClusters; ptr++, cnt++ )
   \   0000E8   7E00         MOV     R6,#0x0
   \                     ??ZDO_BuildSimpleDescBuf_0:
   \   0000EA   8C82         MOV     DPL,R4
   \   0000EC   8D83         MOV     DPH,R5
   \   0000EE   A3           INC     DPTR
   \   0000EF   A3           INC     DPTR
   \   0000F0   A3           INC     DPTR
   \   0000F1   A3           INC     DPTR
   \   0000F2   A3           INC     DPTR
   \   0000F3   A3           INC     DPTR
   \   0000F4   E0           MOVX    A,@DPTR
   \   0000F5   FF           MOV     R7,A
   \   0000F6   EE           MOV     A,R6
   \   0000F7   C3           CLR     C
   \   0000F8   9F           SUBB    A,R7
   \   0000F9   504A         JNC     ??ZDO_BuildSimpleDescBuf_1
   1963            {
   1964              *buf++ = HI_UINT16( *ptr );
   \   0000FB   8882         MOV     DPL,R0
   \   0000FD   8983         MOV     DPH,R1
   \   0000FF   E0           MOVX    A,@DPTR
   \   000100   F5..         MOV     ?V0 + 0,A
   \   000102   A3           INC     DPTR
   \   000103   E0           MOVX    A,@DPTR
   \   000104   F5..         MOV     ?V0 + 1,A
   \   000106   E4           CLR     A
   \   000107   E5..         MOV     A,?V0 + 1
   \   000109   F5..         MOV     ?V0 + 0,A
   \   00010B   E5..         MOV     A,?V0 + 0
   \   00010D   8A82         MOV     DPL,R2
   \   00010F   8B83         MOV     DPH,R3
   \   000111   E5..         MOV     A,?V0 + 0
   \   000113   F0           MOVX    @DPTR,A
   \   000114   8A82         MOV     DPL,R2
   \   000116   8B83         MOV     DPH,R3
   \   000118   A3           INC     DPTR
   \   000119   AA82         MOV     R2,DPL
   \   00011B   AB83         MOV     R3,DPH
   1965              *buf++ = LO_UINT16( *ptr );
   \   00011D   8882         MOV     DPL,R0
   \   00011F   8983         MOV     DPH,R1
   \   000121   E0           MOVX    A,@DPTR
   \   000122   F5..         MOV     ?V0 + 0,A
   \   000124   A3           INC     DPTR
   \   000125   E0           MOVX    A,@DPTR
   \   000126   F5..         MOV     ?V0 + 1,A
   \   000128   E5..         MOV     A,?V0 + 0
   \   00012A   8A82         MOV     DPL,R2
   \   00012C   8B83         MOV     DPH,R3
   \   00012E   E5..         MOV     A,?V0 + 0
   \   000130   F0           MOVX    @DPTR,A
   \   000131   8A82         MOV     DPL,R2
   \   000133   8B83         MOV     DPH,R3
   \   000135   A3           INC     DPTR
   \   000136   AA82         MOV     R2,DPL
   \   000138   AB83         MOV     R3,DPH
   1966            }
   \   00013A   E8           MOV     A,R0
   \   00013B   2402         ADD     A,#0x2
   \   00013D   F8           MOV     R0,A
   \   00013E   E9           MOV     A,R1
   \   00013F   3400         ADDC    A,#0x0
   \   000141   F9           MOV     R1,A
   \   000142   0E           INC     R6
   \   000143   80A5         SJMP    ??ZDO_BuildSimpleDescBuf_0
   1967          
   1968            *buf++ = desc->AppNumOutClusters;
   \                     ??ZDO_BuildSimpleDescBuf_1:
   \   000145   8C82         MOV     DPL,R4
   \   000147   8D83         MOV     DPH,R5
   \   000149   A3           INC     DPTR
   \   00014A   A3           INC     DPTR
   \   00014B   A3           INC     DPTR
   \   00014C   A3           INC     DPTR
   \   00014D   A3           INC     DPTR
   \   00014E   A3           INC     DPTR
   \   00014F   A3           INC     DPTR
   \   000150   A3           INC     DPTR
   \   000151   A3           INC     DPTR
   \   000152   E0           MOVX    A,@DPTR
   \   000153   8A82         MOV     DPL,R2
   \   000155   8B83         MOV     DPH,R3
   \   000157   F0           MOVX    @DPTR,A
   \   000158   8A82         MOV     DPL,R2
   \   00015A   8B83         MOV     DPH,R3
   \   00015C   A3           INC     DPTR
   \   00015D   AA82         MOV     R2,DPL
   \   00015F   AB83         MOV     R3,DPH
   1969            ptr = desc->pAppOutClusterList;
   \   000161   8C82         MOV     DPL,R4
   \   000163   8D83         MOV     DPH,R5
   \   000165   A3           INC     DPTR
   \   000166   A3           INC     DPTR
   \   000167   A3           INC     DPTR
   \   000168   A3           INC     DPTR
   \   000169   A3           INC     DPTR
   \   00016A   A3           INC     DPTR
   \   00016B   A3           INC     DPTR
   \   00016C   A3           INC     DPTR
   \   00016D   A3           INC     DPTR
   \   00016E   A3           INC     DPTR
   \   00016F   E0           MOVX    A,@DPTR
   \   000170   F5..         MOV     ?V0 + 0,A
   \   000172   A3           INC     DPTR
   \   000173   E0           MOVX    A,@DPTR
   \   000174   F5..         MOV     ?V0 + 1,A
   \   000176   A8..         MOV     R0,?V0 + 0
   \   000178   A9..         MOV     R1,?V0 + 1
   1970            for ( cnt = 0; cnt < desc->AppNumOutClusters; ptr++, cnt++ )
   \   00017A   7E00         MOV     R6,#0x0
   \                     ??ZDO_BuildSimpleDescBuf_2:
   \   00017C   8C82         MOV     DPL,R4
   \   00017E   8D83         MOV     DPH,R5
   \   000180   A3           INC     DPTR
   \   000181   A3           INC     DPTR
   \   000182   A3           INC     DPTR
   \   000183   A3           INC     DPTR
   \   000184   A3           INC     DPTR
   \   000185   A3           INC     DPTR
   \   000186   A3           INC     DPTR
   \   000187   A3           INC     DPTR
   \   000188   A3           INC     DPTR
   \   000189   E0           MOVX    A,@DPTR
   \   00018A   FF           MOV     R7,A
   \   00018B   EE           MOV     A,R6
   \   00018C   C3           CLR     C
   \   00018D   9F           SUBB    A,R7
   \   00018E   504A         JNC     ??ZDO_BuildSimpleDescBuf_3
   1971            {
   1972              *buf++ = HI_UINT16( *ptr );
   \   000190   8882         MOV     DPL,R0
   \   000192   8983         MOV     DPH,R1
   \   000194   E0           MOVX    A,@DPTR
   \   000195   F5..         MOV     ?V0 + 0,A
   \   000197   A3           INC     DPTR
   \   000198   E0           MOVX    A,@DPTR
   \   000199   F5..         MOV     ?V0 + 1,A
   \   00019B   E4           CLR     A
   \   00019C   E5..         MOV     A,?V0 + 1
   \   00019E   F5..         MOV     ?V0 + 0,A
   \   0001A0   E5..         MOV     A,?V0 + 0
   \   0001A2   8A82         MOV     DPL,R2
   \   0001A4   8B83         MOV     DPH,R3
   \   0001A6   E5..         MOV     A,?V0 + 0
   \   0001A8   F0           MOVX    @DPTR,A
   \   0001A9   8A82         MOV     DPL,R2
   \   0001AB   8B83         MOV     DPH,R3
   \   0001AD   A3           INC     DPTR
   \   0001AE   AA82         MOV     R2,DPL
   \   0001B0   AB83         MOV     R3,DPH
   1973              *buf++ = LO_UINT16( *ptr );
   \   0001B2   8882         MOV     DPL,R0
   \   0001B4   8983         MOV     DPH,R1
   \   0001B6   E0           MOVX    A,@DPTR
   \   0001B7   F5..         MOV     ?V0 + 0,A
   \   0001B9   A3           INC     DPTR
   \   0001BA   E0           MOVX    A,@DPTR
   \   0001BB   F5..         MOV     ?V0 + 1,A
   \   0001BD   E5..         MOV     A,?V0 + 0
   \   0001BF   8A82         MOV     DPL,R2
   \   0001C1   8B83         MOV     DPH,R3
   \   0001C3   E5..         MOV     A,?V0 + 0
   \   0001C5   F0           MOVX    @DPTR,A
   \   0001C6   8A82         MOV     DPL,R2
   \   0001C8   8B83         MOV     DPH,R3
   \   0001CA   A3           INC     DPTR
   \   0001CB   AA82         MOV     R2,DPL
   \   0001CD   AB83         MOV     R3,DPH
   1974            }
   \   0001CF   E8           MOV     A,R0
   \   0001D0   2402         ADD     A,#0x2
   \   0001D2   F8           MOV     R0,A
   \   0001D3   E9           MOV     A,R1
   \   0001D4   3400         ADDC    A,#0x0
   \   0001D6   F9           MOV     R1,A
   \   0001D7   0E           INC     R6
   \   0001D8   80A2         SJMP    ??ZDO_BuildSimpleDescBuf_2
   1975          }
   \                     ??ZDO_BuildSimpleDescBuf_3:
   \   0001DA   7F02         MOV     R7,#0x2
   \   0001DC   02....       LJMP    ?BANKED_LEAVE_XDATA
   1976          
   1977          /*********************************************************************
   1978           * @fn      ZDO_MatchEndDeviceBind()
   1979           *
   1980           * @brief
   1981           *
   1982           *   Called to match end device binding requests
   1983           *
   1984           * @param  bindReq  - binding request information
   1985           * @param  SecurityUse - Security enable/disable
   1986           *
   1987           * @return  none
   1988           */

   \                                 In  segment BANKED_CODE, align 1, keep-with-next
   1989          void ZDO_MatchEndDeviceBind( ZDEndDeviceBind_t *bindReq )
   \                     ZDO_MatchEndDeviceBind:
   1990          {
   \   000000   74F1         MOV     A,#-0xf
   \   000002   12....       LCALL   ?BANKED_ENTER_XDATA
   \   000005                ; Saved register size: 15
   \   000005                ; Auto size: 10
   \   000005   74F6         MOV     A,#-0xa
   \   000007   12....       LCALL   ?ALLOC_XSTACK8
   \   00000A   EA           MOV     A,R2
   \   00000B   FE           MOV     R6,A
   \   00000C   EB           MOV     A,R3
   \   00000D   FF           MOV     R7,A
   1991            zAddrType_t dstAddr;
   1992            uint8 sendRsp = FALSE;
   \   00000E   75..00       MOV     ?V0 + 0,#0x0
   1993            uint8 status;
   1994          
   1995            // Is this the first request?
   1996            if ( matchED == NULL )
   \   000011   90....       MOV     DPTR,#matchED
   \   000014   E0           MOVX    A,@DPTR
   \   000015   F8           MOV     R0,A
   \   000016   A3           INC     DPTR
   \   000017   E0           MOVX    A,@DPTR
   \   000018   F9           MOV     R1,A
   \   000019   E8           MOV     A,R0
   \   00001A   49           ORL     A,R1
   \   00001B   6003         JZ      $+5
   \   00001D   02....       LJMP    ??ZDO_MatchEndDeviceBind_0 & 0xFFFF
   1997            {
   1998              // Create match info structure
   1999              matchED = (ZDMatchEndDeviceBind_t *)osal_mem_alloc( sizeof ( ZDMatchEndDeviceBind_t ) );
   \   000020                ; Setup parameters for call to function osal_mem_alloc
   \   000020   7A37         MOV     R2,#0x37
   \   000022   7B00         MOV     R3,#0x0
   \   000024   12....       LCALL   ??osal_mem_alloc?relay
   \   000027   90....       MOV     DPTR,#matchED
   \   00002A   EA           MOV     A,R2
   \   00002B   F0           MOVX    @DPTR,A
   \   00002C   A3           INC     DPTR
   \   00002D   EB           MOV     A,R3
   \   00002E   F0           MOVX    @DPTR,A
   2000              if ( matchED )
   \   00002F   90....       MOV     DPTR,#matchED
   \   000032   E0           MOVX    A,@DPTR
   \   000033   F8           MOV     R0,A
   \   000034   A3           INC     DPTR
   \   000035   E0           MOVX    A,@DPTR
   \   000036   F9           MOV     R1,A
   \   000037   E8           MOV     A,R0
   \   000038   49           ORL     A,R1
   \   000039   6031         JZ      ??ZDO_MatchEndDeviceBind_1
   2001              {
   2002                // Clear the structure
   2003                osal_memset( (uint8 *)matchED, 0, sizeof ( ZDMatchEndDeviceBind_t ) );
   \   00003B                ; Setup parameters for call to function osal_memset
   \   00003B   7C37         MOV     R4,#0x37
   \   00003D   7D00         MOV     R5,#0x0
   \   00003F   7900         MOV     R1,#0x0
   \   000041   90....       MOV     DPTR,#matchED
   \   000044   E0           MOVX    A,@DPTR
   \   000045   FA           MOV     R2,A
   \   000046   A3           INC     DPTR
   \   000047   E0           MOVX    A,@DPTR
   \   000048   FB           MOV     R3,A
   \   000049   12....       LCALL   ??osal_memset?relay
   2004          
   2005                // Copy the first request's information
   2006                if ( !ZDO_CopyMatchInfo( &(matchED->ed1), bindReq ) )
   \   00004C                ; Setup parameters for call to function ZDO_CopyMatchInfo
   \   00004C   EE           MOV     A,R6
   \   00004D   FC           MOV     R4,A
   \   00004E   EF           MOV     A,R7
   \   00004F   FD           MOV     R5,A
   \   000050   90....       MOV     DPTR,#matchED
   \   000053   E0           MOVX    A,@DPTR
   \   000054   FA           MOV     R2,A
   \   000055   A3           INC     DPTR
   \   000056   E0           MOVX    A,@DPTR
   \   000057   FB           MOV     R3,A
   \   000058   12....       LCALL   ??ZDO_CopyMatchInfo?relay
   \   00005B   E9           MOV     A,R1
   \   00005C   701A         JNZ     ??ZDO_MatchEndDeviceBind_2
   2007                {
   2008          
   2009                  status = ZDP_NO_ENTRY;
   \   00005E   85..82       MOV     DPL,?XSP + 0
   \   000061   85..83       MOV     DPH,?XSP + 1
   \   000064   7488         MOV     A,#-0x78
   \   000066   F0           MOVX    @DPTR,A
   2010                  sendRsp = TRUE;
   \   000067   75..01       MOV     ?V0 + 0,#0x1
   \   00006A   800C         SJMP    ??ZDO_MatchEndDeviceBind_2
   2011                }
   2012              }
   2013              else
   2014              {
   2015                status = ZDP_NO_ENTRY;
   \                     ??ZDO_MatchEndDeviceBind_1:
   \   00006C   85..82       MOV     DPL,?XSP + 0
   \   00006F   85..83       MOV     DPH,?XSP + 1
   \   000072   7488         MOV     A,#-0x78
   \   000074   F0           MOVX    @DPTR,A
   2016                sendRsp = TRUE;
   \   000075   75..01       MOV     ?V0 + 0,#0x1
   2017              }
   2018          
   2019              if ( !sendRsp )
   \                     ??ZDO_MatchEndDeviceBind_2:
   \   000078   E5..         MOV     A,?V0 + 0
   \   00007A   6003         JZ      $+5
   \   00007C   02....       LJMP    ??ZDO_MatchEndDeviceBind_3 & 0xFFFF
   2020              {
   2021                // Set into the correct state
   2022                matchED->state = ZDMATCH_WAIT_REQ;
   \   00007F   90....       MOV     DPTR,#matchED
   \   000082   E0           MOVX    A,@DPTR
   \   000083   F8           MOV     R0,A
   \   000084   A3           INC     DPTR
   \   000085   E0           MOVX    A,@DPTR
   \   000086   C8           XCH     A,R0
   \   000087   242E         ADD     A,#0x2e
   \   000089   F582         MOV     DPL,A
   \   00008B   E8           MOV     A,R0
   \   00008C   3400         ADDC    A,#0x0
   \   00008E   F583         MOV     DPH,A
   \   000090   7401         MOV     A,#0x1
   \   000092   F0           MOVX    @DPTR,A
   2023          
   2024                // Setup the timeout
   2025                APS_SetEndDeviceBindTimeout( AIB_MaxBindingTime, ZDO_EndDeviceBindMatchTimeoutCB );
   \   000093                ; Setup parameters for call to function APS_SetEndDeviceBindTimeout
   \   000093   7C..         MOV     R4,#??ZDO_EndDeviceBindMatchTimeoutCB?relay & 0xff
   \   000095   7D..         MOV     R5,#(??ZDO_EndDeviceBindMatchTimeoutCB?relay >> 8) & 0xff
   \   000097   90....       MOV     DPTR,#AIB_MaxBindingTime
   \   00009A   E0           MOVX    A,@DPTR
   \   00009B   FA           MOV     R2,A
   \   00009C   A3           INC     DPTR
   \   00009D   E0           MOVX    A,@DPTR
   \   00009E   FB           MOV     R3,A
   \   00009F   12....       LCALL   ??APS_SetEndDeviceBindTimeout?relay
   \   0000A2   02....       LJMP    ??ZDO_MatchEndDeviceBind_3 & 0xFFFF
   2026              }
   2027            }
   2028            else
   2029            {
   2030                matchED->state = ZDMATCH_SENDING_BINDS;
   \                     ??ZDO_MatchEndDeviceBind_0:
   \   0000A5   90....       MOV     DPTR,#matchED
   \   0000A8   E0           MOVX    A,@DPTR
   \   0000A9   F8           MOV     R0,A
   \   0000AA   A3           INC     DPTR
   \   0000AB   E0           MOVX    A,@DPTR
   \   0000AC   C8           XCH     A,R0
   \   0000AD   242E         ADD     A,#0x2e
   \   0000AF   F582         MOV     DPL,A
   \   0000B1   E8           MOV     A,R0
   \   0000B2   3400         ADDC    A,#0x0
   \   0000B4   F583         MOV     DPH,A
   \   0000B6   7402         MOV     A,#0x2
   \   0000B8   F0           MOVX    @DPTR,A
   2031          
   2032                // Copy the 2nd request's information
   2033                if ( !ZDO_CopyMatchInfo( &(matchED->ed2), bindReq ) )
   \   0000B9                ; Setup parameters for call to function ZDO_CopyMatchInfo
   \   0000B9   EE           MOV     A,R6
   \   0000BA   FC           MOV     R4,A
   \   0000BB   EF           MOV     A,R7
   \   0000BC   FD           MOV     R5,A
   \   0000BD   90....       MOV     DPTR,#matchED
   \   0000C0   E0           MOVX    A,@DPTR
   \   0000C1   2417         ADD     A,#0x17
   \   0000C3   FA           MOV     R2,A
   \   0000C4   A3           INC     DPTR
   \   0000C5   E0           MOVX    A,@DPTR
   \   0000C6   3400         ADDC    A,#0x0
   \   0000C8   FB           MOV     R3,A
   \   0000C9   12....       LCALL   ??ZDO_CopyMatchInfo?relay
   \   0000CC   E9           MOV     A,R1
   \   0000CD   700C         JNZ     ??ZDO_MatchEndDeviceBind_4
   2034                {
   2035                  status = ZDP_NO_ENTRY;
   \   0000CF   85..82       MOV     DPL,?XSP + 0
   \   0000D2   85..83       MOV     DPH,?XSP + 1
   \   0000D5   7488         MOV     A,#-0x78
   \   0000D7   F0           MOVX    @DPTR,A
   2036                  sendRsp = TRUE;
   \   0000D8   75..01       MOV     ?V0 + 0,#0x1
   2037                }
   2038          
   2039                // Make a source match for ed1
   2040                matchED->ed1numMatched = ZDO_CompareClusterLists(
   2041                            matchED->ed1.numOutClusters, matchED->ed1.outClusters,
   2042                            matchED->ed2.numInClusters, matchED->ed2.inClusters, ZDOBuildBuf );
   \                     ??ZDO_MatchEndDeviceBind_4:
   \   0000DB                ; Setup parameters for call to function ZDO_CompareClusterLists
   \   0000DB   75....       MOV     ?V0 + 2,#ZDOBuildBuf & 0xff
   \   0000DE   75....       MOV     ?V0 + 3,#(ZDOBuildBuf >> 8) & 0xff
   \   0000E1   78..         MOV     R0,#?V0 + 2
   \   0000E3   12....       LCALL   ?PUSH_XSTACK_I_TWO
   \   0000E6   90....       MOV     DPTR,#matchED
   \   0000E9   E0           MOVX    A,@DPTR
   \   0000EA   F8           MOV     R0,A
   \   0000EB   A3           INC     DPTR
   \   0000EC   E0           MOVX    A,@DPTR
   \   0000ED   C8           XCH     A,R0
   \   0000EE   2429         ADD     A,#0x29
   \   0000F0   F582         MOV     DPL,A
   \   0000F2   E8           MOV     A,R0
   \   0000F3   3400         ADDC    A,#0x0
   \   0000F5   F583         MOV     DPH,A
   \   0000F7   12....       LCALL   ?PUSH_XSTACK8_X_TWO
   \   0000FA   90....       MOV     DPTR,#matchED
   \   0000FD   E0           MOVX    A,@DPTR
   \   0000FE   F8           MOV     R0,A
   \   0000FF   A3           INC     DPTR
   \   000100   E0           MOVX    A,@DPTR
   \   000101   C8           XCH     A,R0
   \   000102   2428         ADD     A,#0x28
   \   000104   F582         MOV     DPL,A
   \   000106   E8           MOV     A,R0
   \   000107   3400         ADDC    A,#0x0
   \   000109   F583         MOV     DPH,A
   \   00010B   E0           MOVX    A,@DPTR
   \   00010C   FC           MOV     R4,A
   \   00010D   90....       MOV     DPTR,#matchED
   \   000110   E0           MOVX    A,@DPTR
   \   000111   F8           MOV     R0,A
   \   000112   A3           INC     DPTR
   \   000113   E0           MOVX    A,@DPTR
   \   000114   C8           XCH     A,R0
   \   000115   2415         ADD     A,#0x15
   \   000117   F582         MOV     DPL,A
   \   000119   E8           MOV     A,R0
   \   00011A   3400         ADDC    A,#0x0
   \   00011C   F583         MOV     DPH,A
   \   00011E   E0           MOVX    A,@DPTR
   \   00011F   FA           MOV     R2,A
   \   000120   A3           INC     DPTR
   \   000121   E0           MOVX    A,@DPTR
   \   000122   FB           MOV     R3,A
   \   000123   90....       MOV     DPTR,#matchED
   \   000126   E0           MOVX    A,@DPTR
   \   000127   F8           MOV     R0,A
   \   000128   A3           INC     DPTR
   \   000129   E0           MOVX    A,@DPTR
   \   00012A   C8           XCH     A,R0
   \   00012B   2414         ADD     A,#0x14
   \   00012D   F582         MOV     DPL,A
   \   00012F   E8           MOV     A,R0
   \   000130   3400         ADDC    A,#0x0
   \   000132   F583         MOV     DPH,A
   \   000134   E0           MOVX    A,@DPTR
   \   000135   F9           MOV     R1,A
   \   000136   12....       LCALL   ??ZDO_CompareClusterLists?relay
   \   000139   7404         MOV     A,#0x4
   \   00013B   12....       LCALL   ?DEALLOC_XSTACK8
   \   00013E   E9           MOV     A,R1
   \   00013F   C0E0         PUSH    A
   \   000141   90....       MOV     DPTR,#matchED
   \   000144   E0           MOVX    A,@DPTR
   \   000145   F8           MOV     R0,A
   \   000146   A3           INC     DPTR
   \   000147   E0           MOVX    A,@DPTR
   \   000148   C8           XCH     A,R0
   \   000149   2431         ADD     A,#0x31
   \   00014B   F582         MOV     DPL,A
   \   00014D   E8           MOV     A,R0
   \   00014E   3400         ADDC    A,#0x0
   \   000150   F583         MOV     DPH,A
   \   000152   D0E0         POP     A
   \   000154   F0           MOVX    @DPTR,A
   2043                if ( matchED->ed1numMatched )
   \   000155   90....       MOV     DPTR,#matchED
   \   000158   E0           MOVX    A,@DPTR
   \   000159   F8           MOV     R0,A
   \   00015A   A3           INC     DPTR
   \   00015B   E0           MOVX    A,@DPTR
   \   00015C   C8           XCH     A,R0
   \   00015D   2431         ADD     A,#0x31
   \   00015F   F582         MOV     DPL,A
   \   000161   E8           MOV     A,R0
   \   000162   3400         ADDC    A,#0x0
   \   000164   F583         MOV     DPH,A
   \   000166   E0           MOVX    A,@DPTR
   \   000167   7003         JNZ     $+5
   \   000169   02....       LJMP    ??ZDO_MatchEndDeviceBind_5 & 0xFFFF
   2044                {
   2045                  // Save the match list
   2046                  matchED->ed1Matched = osal_mem_alloc( (short)(matchED->ed1numMatched * sizeof ( uint16 )) );
   \   00016C                ; Setup parameters for call to function osal_mem_alloc
   \   00016C   90....       MOV     DPTR,#matchED
   \   00016F   E0           MOVX    A,@DPTR
   \   000170   F8           MOV     R0,A
   \   000171   A3           INC     DPTR
   \   000172   E0           MOVX    A,@DPTR
   \   000173   C8           XCH     A,R0
   \   000174   2431         ADD     A,#0x31
   \   000176   F582         MOV     DPL,A
   \   000178   E8           MOV     A,R0
   \   000179   3400         ADDC    A,#0x0
   \   00017B   F583         MOV     DPH,A
   \   00017D   E0           MOVX    A,@DPTR
   \   00017E   FA           MOV     R2,A
   \   00017F   7B00         MOV     R3,#0x0
   \   000181   EA           MOV     A,R2
   \   000182   75F002       MOV     B,#0x2
   \   000185   A4           MUL     AB
   \   000186   CA           XCH     A,R2
   \   000187   A8F0         MOV     R0,B
   \   000189   75F000       MOV     B,#0x0
   \   00018C   A4           MUL     AB
   \   00018D   28           ADD     A,R0
   \   00018E   F8           MOV     R0,A
   \   00018F   75F002       MOV     B,#0x2
   \   000192   EB           MOV     A,R3
   \   000193   A4           MUL     AB
   \   000194   28           ADD     A,R0
   \   000195   FB           MOV     R3,A
   \   000196   12....       LCALL   ??osal_mem_alloc?relay
   \   000199   8A..         MOV     ?V0 + 2,R2
   \   00019B   8B..         MOV     ?V0 + 3,R3
   \   00019D   A8..         MOV     R0,?V0 + 2
   \   00019F   A9..         MOV     R1,?V0 + 3
   \   0001A1   90....       MOV     DPTR,#matchED
   \   0001A4   E0           MOVX    A,@DPTR
   \   0001A5   FA           MOV     R2,A
   \   0001A6   A3           INC     DPTR
   \   0001A7   E0           MOVX    A,@DPTR
   \   0001A8   CA           XCH     A,R2
   \   0001A9   2432         ADD     A,#0x32
   \   0001AB   F582         MOV     DPL,A
   \   0001AD   EA           MOV     A,R2
   \   0001AE   3400         ADDC    A,#0x0
   \   0001B0   F583         MOV     DPH,A
   \   0001B2   E5..         MOV     A,?V0 + 2
   \   0001B4   F0           MOVX    @DPTR,A
   \   0001B5   A3           INC     DPTR
   \   0001B6   E5..         MOV     A,?V0 + 3
   \   0001B8   F0           MOVX    @DPTR,A
   2047                  if ( matchED->ed1Matched )
   \   0001B9   90....       MOV     DPTR,#matchED
   \   0001BC   E0           MOVX    A,@DPTR
   \   0001BD   F8           MOV     R0,A
   \   0001BE   A3           INC     DPTR
   \   0001BF   E0           MOVX    A,@DPTR
   \   0001C0   C8           XCH     A,R0
   \   0001C1   2432         ADD     A,#0x32
   \   0001C3   F582         MOV     DPL,A
   \   0001C5   E8           MOV     A,R0
   \   0001C6   3400         ADDC    A,#0x0
   \   0001C8   F583         MOV     DPH,A
   \   0001CA   E0           MOVX    A,@DPTR
   \   0001CB   F8           MOV     R0,A
   \   0001CC   A3           INC     DPTR
   \   0001CD   E0           MOVX    A,@DPTR
   \   0001CE   F9           MOV     R1,A
   \   0001CF   E8           MOV     A,R0
   \   0001D0   49           ORL     A,R1
   \   0001D1   6058         JZ      ??ZDO_MatchEndDeviceBind_6
   2048                  {
   2049                    osal_memcpy( matchED->ed1Matched, ZDOBuildBuf, (matchED->ed1numMatched * sizeof ( uint16 )) );
   \   0001D3                ; Setup parameters for call to function osal_memcpy
   \   0001D3   75....       MOV     ?V0 + 4,#ZDOBuildBuf & 0xff
   \   0001D6   75....       MOV     ?V0 + 5,#(ZDOBuildBuf >> 8) & 0xff
   \   0001D9   75..00       MOV     ?V0 + 6,#0x0
   \   0001DC   78..         MOV     R0,#?V0 + 4
   \   0001DE   12....       LCALL   ?PUSH_XSTACK_I_THREE
   \   0001E1   90....       MOV     DPTR,#matchED
   \   0001E4   E0           MOVX    A,@DPTR
   \   0001E5   F8           MOV     R0,A
   \   0001E6   A3           INC     DPTR
   \   0001E7   E0           MOVX    A,@DPTR
   \   0001E8   C8           XCH     A,R0
   \   0001E9   2431         ADD     A,#0x31
   \   0001EB   F582         MOV     DPL,A
   \   0001ED   E8           MOV     A,R0
   \   0001EE   3400         ADDC    A,#0x0
   \   0001F0   F583         MOV     DPH,A
   \   0001F2   E0           MOVX    A,@DPTR
   \   0001F3   FC           MOV     R4,A
   \   0001F4   7D00         MOV     R5,#0x0
   \   0001F6   EC           MOV     A,R4
   \   0001F7   75F002       MOV     B,#0x2
   \   0001FA   A4           MUL     AB
   \   0001FB   CC           XCH     A,R4
   \   0001FC   A8F0         MOV     R0,B
   \   0001FE   75F000       MOV     B,#0x0
   \   000201   A4           MUL     AB
   \   000202   28           ADD     A,R0
   \   000203   F8           MOV     R0,A
   \   000204   75F002       MOV     B,#0x2
   \   000207   ED           MOV     A,R5
   \   000208   A4           MUL     AB
   \   000209   28           ADD     A,R0
   \   00020A   FD           MOV     R5,A
   \   00020B   90....       MOV     DPTR,#matchED
   \   00020E   E0           MOVX    A,@DPTR
   \   00020F   F8           MOV     R0,A
   \   000210   A3           INC     DPTR
   \   000211   E0           MOVX    A,@DPTR
   \   000212   C8           XCH     A,R0
   \   000213   2432         ADD     A,#0x32
   \   000215   F582         MOV     DPL,A
   \   000217   E8           MOV     A,R0
   \   000218   3400         ADDC    A,#0x0
   \   00021A   F583         MOV     DPH,A
   \   00021C   E0           MOVX    A,@DPTR
   \   00021D   FA           MOV     R2,A
   \   00021E   A3           INC     DPTR
   \   00021F   E0           MOVX    A,@DPTR
   \   000220   FB           MOV     R3,A
   \   000221   12....       LCALL   ??osal_memcpy?relay
   \   000224   7403         MOV     A,#0x3
   \   000226   12....       LCALL   ?DEALLOC_XSTACK8
   \   000229   800C         SJMP    ??ZDO_MatchEndDeviceBind_5
   2050                  }
   2051                  else
   2052                  {
   2053                    // Allocation error, stop
   2054                    status = ZDP_NO_ENTRY;
   \                     ??ZDO_MatchEndDeviceBind_6:
   \   00022B   85..82       MOV     DPL,?XSP + 0
   \   00022E   85..83       MOV     DPH,?XSP + 1
   \   000231   7488         MOV     A,#-0x78
   \   000233   F0           MOVX    @DPTR,A
   2055                    sendRsp = TRUE;
   \   000234   75..01       MOV     ?V0 + 0,#0x1
   2056                  }
   2057                }
   2058          
   2059                // Make a source match for ed2
   2060                matchED->ed2numMatched = ZDO_CompareClusterLists(
   2061                            matchED->ed2.numOutClusters, matchED->ed2.outClusters,
   2062                            matchED->ed1.numInClusters, matchED->ed1.inClusters, ZDOBuildBuf );
   \                     ??ZDO_MatchEndDeviceBind_5:
   \   000237                ; Setup parameters for call to function ZDO_CompareClusterLists
   \   000237   75....       MOV     ?V0 + 2,#ZDOBuildBuf & 0xff
   \   00023A   75....       MOV     ?V0 + 3,#(ZDOBuildBuf >> 8) & 0xff
   \   00023D   78..         MOV     R0,#?V0 + 2
   \   00023F   12....       LCALL   ?PUSH_XSTACK_I_TWO
   \   000242   90....       MOV     DPTR,#matchED
   \   000245   E0           MOVX    A,@DPTR
   \   000246   F8           MOV     R0,A
   \   000247   A3           INC     DPTR
   \   000248   E0           MOVX    A,@DPTR
   \   000249   C8           XCH     A,R0
   \   00024A   2412         ADD     A,#0x12
   \   00024C   F582         MOV     DPL,A
   \   00024E   E8           MOV     A,R0
   \   00024F   3400         ADDC    A,#0x0
   \   000251   F583         MOV     DPH,A
   \   000253   12....       LCALL   ?PUSH_XSTACK8_X_TWO
   \   000256   90....       MOV     DPTR,#matchED
   \   000259   E0           MOVX    A,@DPTR
   \   00025A   F8           MOV     R0,A
   \   00025B   A3           INC     DPTR
   \   00025C   E0           MOVX    A,@DPTR
   \   00025D   C8           XCH     A,R0
   \   00025E   2411         ADD     A,#0x11
   \   000260   F582         MOV     DPL,A
   \   000262   E8           MOV     A,R0
   \   000263   3400         ADDC    A,#0x0
   \   000265   F583         MOV     DPH,A
   \   000267   E0           MOVX    A,@DPTR
   \   000268   FC           MOV     R4,A
   \   000269   90....       MOV     DPTR,#matchED
   \   00026C   E0           MOVX    A,@DPTR
   \   00026D   F8           MOV     R0,A
   \   00026E   A3           INC     DPTR
   \   00026F   E0           MOVX    A,@DPTR
   \   000270   C8           XCH     A,R0
   \   000271   242C         ADD     A,#0x2c
   \   000273   F582         MOV     DPL,A
   \   000275   E8           MOV     A,R0
   \   000276   3400         ADDC    A,#0x0
   \   000278   F583         MOV     DPH,A
   \   00027A   E0           MOVX    A,@DPTR
   \   00027B   FA           MOV     R2,A
   \   00027C   A3           INC     DPTR
   \   00027D   E0           MOVX    A,@DPTR
   \   00027E   FB           MOV     R3,A
   \   00027F   90....       MOV     DPTR,#matchED
   \   000282   E0           MOVX    A,@DPTR
   \   000283   F8           MOV     R0,A
   \   000284   A3           INC     DPTR
   \   000285   E0           MOVX    A,@DPTR
   \   000286   C8           XCH     A,R0
   \   000287   242B         ADD     A,#0x2b
   \   000289   F582         MOV     DPL,A
   \   00028B   E8           MOV     A,R0
   \   00028C   3400         ADDC    A,#0x0
   \   00028E   F583         MOV     DPH,A
   \   000290   E0           MOVX    A,@DPTR
   \   000291   F9           MOV     R1,A
   \   000292   12....       LCALL   ??ZDO_CompareClusterLists?relay
   \   000295   7404         MOV     A,#0x4
   \   000297   12....       LCALL   ?DEALLOC_XSTACK8
   \   00029A   E9           MOV     A,R1
   \   00029B   C0E0         PUSH    A
   \   00029D   90....       MOV     DPTR,#matchED
   \   0002A0   E0           MOVX    A,@DPTR
   \   0002A1   F8           MOV     R0,A
   \   0002A2   A3           INC     DPTR
   \   0002A3   E0           MOVX    A,@DPTR
   \   0002A4   C8           XCH     A,R0
   \   0002A5   2434         ADD     A,#0x34
   \   0002A7   F582         MOV     DPL,A
   \   0002A9   E8           MOV     A,R0
   \   0002AA   3400         ADDC    A,#0x0
   \   0002AC   F583         MOV     DPH,A
   \   0002AE   D0E0         POP     A
   \   0002B0   F0           MOVX    @DPTR,A
   2063                if ( matchED->ed2numMatched )
   \   0002B1   90....       MOV     DPTR,#matchED
   \   0002B4   E0           MOVX    A,@DPTR
   \   0002B5   F8           MOV     R0,A
   \   0002B6   A3           INC     DPTR
   \   0002B7   E0           MOVX    A,@DPTR
   \   0002B8   C8           XCH     A,R0
   \   0002B9   2434         ADD     A,#0x34
   \   0002BB   F582         MOV     DPL,A
   \   0002BD   E8           MOV     A,R0
   \   0002BE   3400         ADDC    A,#0x0
   \   0002C0   F583         MOV     DPH,A
   \   0002C2   E0           MOVX    A,@DPTR
   \   0002C3   7003         JNZ     $+5
   \   0002C5   02....       LJMP    ??ZDO_MatchEndDeviceBind_7 & 0xFFFF
   2064                {
   2065                  // Save the match list
   2066                  matchED->ed2Matched = osal_mem_alloc( (short)(matchED->ed2numMatched * sizeof ( uint16 )) );
   \   0002C8                ; Setup parameters for call to function osal_mem_alloc
   \   0002C8   90....       MOV     DPTR,#matchED
   \   0002CB   E0           MOVX    A,@DPTR
   \   0002CC   F8           MOV     R0,A
   \   0002CD   A3           INC     DPTR
   \   0002CE   E0           MOVX    A,@DPTR
   \   0002CF   C8           XCH     A,R0
   \   0002D0   2434         ADD     A,#0x34
   \   0002D2   F582         MOV     DPL,A
   \   0002D4   E8           MOV     A,R0
   \   0002D5   3400         ADDC    A,#0x0
   \   0002D7   F583         MOV     DPH,A
   \   0002D9   E0           MOVX    A,@DPTR
   \   0002DA   FA           MOV     R2,A
   \   0002DB   7B00         MOV     R3,#0x0
   \   0002DD   EA           MOV     A,R2
   \   0002DE   75F002       MOV     B,#0x2
   \   0002E1   A4           MUL     AB
   \   0002E2   CA           XCH     A,R2
   \   0002E3   A8F0         MOV     R0,B
   \   0002E5   75F000       MOV     B,#0x0
   \   0002E8   A4           MUL     AB
   \   0002E9   28           ADD     A,R0
   \   0002EA   F8           MOV     R0,A
   \   0002EB   75F002       MOV     B,#0x2
   \   0002EE   EB           MOV     A,R3
   \   0002EF   A4           MUL     AB
   \   0002F0   28           ADD     A,R0
   \   0002F1   FB           MOV     R3,A
   \   0002F2   12....       LCALL   ??osal_mem_alloc?relay
   \   0002F5   8A..         MOV     ?V0 + 2,R2
   \   0002F7   8B..         MOV     ?V0 + 3,R3
   \   0002F9   A8..         MOV     R0,?V0 + 2
   \   0002FB   A9..         MOV     R1,?V0 + 3
   \   0002FD   90....       MOV     DPTR,#matchED
   \   000300   E0           MOVX    A,@DPTR
   \   000301   FA           MOV     R2,A
   \   000302   A3           INC     DPTR
   \   000303   E0           MOVX    A,@DPTR
   \   000304   CA           XCH     A,R2
   \   000305   2435         ADD     A,#0x35
   \   000307   F582         MOV     DPL,A
   \   000309   EA           MOV     A,R2
   \   00030A   3400         ADDC    A,#0x0
   \   00030C   F583         MOV     DPH,A
   \   00030E   E5..         MOV     A,?V0 + 2
   \   000310   F0           MOVX    @DPTR,A
   \   000311   A3           INC     DPTR
   \   000312   E5..         MOV     A,?V0 + 3
   \   000314   F0           MOVX    @DPTR,A
   2067                  if ( matchED->ed2Matched )
   \   000315   90....       MOV     DPTR,#matchED
   \   000318   E0           MOVX    A,@DPTR
   \   000319   F8           MOV     R0,A
   \   00031A   A3           INC     DPTR
   \   00031B   E0           MOVX    A,@DPTR
   \   00031C   C8           XCH     A,R0
   \   00031D   2435         ADD     A,#0x35
   \   00031F   F582         MOV     DPL,A
   \   000321   E8           MOV     A,R0
   \   000322   3400         ADDC    A,#0x0
   \   000324   F583         MOV     DPH,A
   \   000326   E0           MOVX    A,@DPTR
   \   000327   F8           MOV     R0,A
   \   000328   A3           INC     DPTR
   \   000329   E0           MOVX    A,@DPTR
   \   00032A   F9           MOV     R1,A
   \   00032B   E8           MOV     A,R0
   \   00032C   49           ORL     A,R1
   \   00032D   6058         JZ      ??ZDO_MatchEndDeviceBind_8
   2068                  {
   2069                    osal_memcpy( matchED->ed2Matched, ZDOBuildBuf, (matchED->ed2numMatched * sizeof ( uint16 )) );
   \   00032F                ; Setup parameters for call to function osal_memcpy
   \   00032F   75....       MOV     ?V0 + 4,#ZDOBuildBuf & 0xff
   \   000332   75....       MOV     ?V0 + 5,#(ZDOBuildBuf >> 8) & 0xff
   \   000335   75..00       MOV     ?V0 + 6,#0x0
   \   000338   78..         MOV     R0,#?V0 + 4
   \   00033A   12....       LCALL   ?PUSH_XSTACK_I_THREE
   \   00033D   90....       MOV     DPTR,#matchED
   \   000340   E0           MOVX    A,@DPTR
   \   000341   F8           MOV     R0,A
   \   000342   A3           INC     DPTR
   \   000343   E0           MOVX    A,@DPTR
   \   000344   C8           XCH     A,R0
   \   000345   2434         ADD     A,#0x34
   \   000347   F582         MOV     DPL,A
   \   000349   E8           MOV     A,R0
   \   00034A   3400         ADDC    A,#0x0
   \   00034C   F583         MOV     DPH,A
   \   00034E   E0           MOVX    A,@DPTR
   \   00034F   FC           MOV     R4,A
   \   000350   7D00         MOV     R5,#0x0
   \   000352   EC           MOV     A,R4
   \   000353   75F002       MOV     B,#0x2
   \   000356   A4           MUL     AB
   \   000357   CC           XCH     A,R4
   \   000358   A8F0         MOV     R0,B
   \   00035A   75F000       MOV     B,#0x0
   \   00035D   A4           MUL     AB
   \   00035E   28           ADD     A,R0
   \   00035F   F8           MOV     R0,A
   \   000360   75F002       MOV     B,#0x2
   \   000363   ED           MOV     A,R5
   \   000364   A4           MUL     AB
   \   000365   28           ADD     A,R0
   \   000366   FD           MOV     R5,A
   \   000367   90....       MOV     DPTR,#matchED
   \   00036A   E0           MOVX    A,@DPTR
   \   00036B   F8           MOV     R0,A
   \   00036C   A3           INC     DPTR
   \   00036D   E0           MOVX    A,@DPTR
   \   00036E   C8           XCH     A,R0
   \   00036F   2435         ADD     A,#0x35
   \   000371   F582         MOV     DPL,A
   \   000373   E8           MOV     A,R0
   \   000374   3400         ADDC    A,#0x0
   \   000376   F583         MOV     DPH,A
   \   000378   E0           MOVX    A,@DPTR
   \   000379   FA           MOV     R2,A
   \   00037A   A3           INC     DPTR
   \   00037B   E0           MOVX    A,@DPTR
   \   00037C   FB           MOV     R3,A
   \   00037D   12....       LCALL   ??osal_memcpy?relay
   \   000380   7403         MOV     A,#0x3
   \   000382   12....       LCALL   ?DEALLOC_XSTACK8
   \   000385   800C         SJMP    ??ZDO_MatchEndDeviceBind_7
   2070                  }
   2071                  else
   2072                  {
   2073                    // Allocation error, stop
   2074                    status = ZDP_NO_ENTRY;
   \                     ??ZDO_MatchEndDeviceBind_8:
   \   000387   85..82       MOV     DPL,?XSP + 0
   \   00038A   85..83       MOV     DPH,?XSP + 1
   \   00038D   7488         MOV     A,#-0x78
   \   00038F   F0           MOVX    @DPTR,A
   2075                    sendRsp = TRUE;
   \   000390   75..01       MOV     ?V0 + 0,#0x1
   2076                  }
   2077                }
   2078          
   2079                if ( (sendRsp == FALSE) && (matchED->ed1numMatched || matchED->ed2numMatched) )
   \                     ??ZDO_MatchEndDeviceBind_7:
   \   000393   E5..         MOV     A,?V0 + 0
   \   000395   7034         JNZ     ??ZDO_MatchEndDeviceBind_9
   \   000397   90....       MOV     DPTR,#matchED
   \   00039A   E0           MOVX    A,@DPTR
   \   00039B   F8           MOV     R0,A
   \   00039C   A3           INC     DPTR
   \   00039D   E0           MOVX    A,@DPTR
   \   00039E   C8           XCH     A,R0
   \   00039F   2431         ADD     A,#0x31
   \   0003A1   F582         MOV     DPL,A
   \   0003A3   E8           MOV     A,R0
   \   0003A4   3400         ADDC    A,#0x0
   \   0003A6   F583         MOV     DPH,A
   \   0003A8   E0           MOVX    A,@DPTR
   \   0003A9   7014         JNZ     ??ZDO_MatchEndDeviceBind_10
   \   0003AB   90....       MOV     DPTR,#matchED
   \   0003AE   E0           MOVX    A,@DPTR
   \   0003AF   F8           MOV     R0,A
   \   0003B0   A3           INC     DPTR
   \   0003B1   E0           MOVX    A,@DPTR
   \   0003B2   C8           XCH     A,R0
   \   0003B3   2434         ADD     A,#0x34
   \   0003B5   F582         MOV     DPL,A
   \   0003B7   E8           MOV     A,R0
   \   0003B8   3400         ADDC    A,#0x0
   \   0003BA   F583         MOV     DPH,A
   \   0003BC   E0           MOVX    A,@DPTR
   \   0003BD   600C         JZ      ??ZDO_MatchEndDeviceBind_9
   2080                {
   2081                  // Do the first unbind/bind state
   2082                  ZDMatchSendState( ZDMATCH_REASON_START, ZDP_SUCCESS, 0 );
   \                     ??ZDO_MatchEndDeviceBind_10:
   \   0003BF                ; Setup parameters for call to function ZDMatchSendState
   \   0003BF   7B00         MOV     R3,#0x0
   \   0003C1   7A00         MOV     R2,#0x0
   \   0003C3   7900         MOV     R1,#0x0
   \   0003C5   12....       LCALL   ??ZDMatchSendState?relay
   \   0003C8   E9           MOV     A,R1
   \   0003C9   800C         SJMP    ??ZDO_MatchEndDeviceBind_3
   2083                }
   2084                else
   2085                {
   2086                  status = ZDP_NO_MATCH;
   \                     ??ZDO_MatchEndDeviceBind_9:
   \   0003CB   85..82       MOV     DPL,?XSP + 0
   \   0003CE   85..83       MOV     DPH,?XSP + 1
   \   0003D1   7486         MOV     A,#-0x7a
   \   0003D3   F0           MOVX    @DPTR,A
   2087                  sendRsp = TRUE;
   \   0003D4   75..01       MOV     ?V0 + 0,#0x1
   2088                }
   2089            }
   2090          
   2091            if ( sendRsp )
   \                     ??ZDO_MatchEndDeviceBind_3:
   \   0003D7   E5..         MOV     A,?V0 + 0
   \   0003D9   7003         JNZ     $+5
   \   0003DB   02....       LJMP    ??ZDO_MatchEndDeviceBind_11 & 0xFFFF
   2092            {
   2093              // send response to this requester
   2094              dstAddr.addrMode = Addr16Bit;
   \   0003DE   7409         MOV     A,#0x9
   \   0003E0   12....       LCALL   ?XSTACK_DISP0_8
   \   0003E3   7402         MOV     A,#0x2
   \   0003E5   F0           MOVX    @DPTR,A
   2095              dstAddr.addr.shortAddr = bindReq->srcAddr;
   \   0003E6   8E82         MOV     DPL,R6
   \   0003E8   8F83         MOV     DPH,R7
   \   0003EA   A3           INC     DPTR
   \   0003EB   A3           INC     DPTR
   \   0003EC   E0           MOVX    A,@DPTR
   \   0003ED   F8           MOV     R0,A
   \   0003EE   A3           INC     DPTR
   \   0003EF   E0           MOVX    A,@DPTR
   \   0003F0   F9           MOV     R1,A
   \   0003F1   7401         MOV     A,#0x1
   \   0003F3   12....       LCALL   ?XSTACK_DISP0_8
   \   0003F6   E8           MOV     A,R0
   \   0003F7   F0           MOVX    @DPTR,A
   \   0003F8   A3           INC     DPTR
   \   0003F9   E9           MOV     A,R1
   \   0003FA   F0           MOVX    @DPTR,A
   2096              ZDP_EndDeviceBindRsp( bindReq->TransSeq, &dstAddr, status, bindReq->SecurityUse );
   \   0003FB                ; Setup parameters for call to function ZDP_SendData
   \   0003FB   8E82         MOV     DPL,R6
   \   0003FD   8F83         MOV     DPH,R7
   \   0003FF   A3           INC     DPTR
   \   000400   E0           MOVX    A,@DPTR
   \   000401   F5..         MOV     ?V0 + 1,A
   \   000403   78..         MOV     R0,#?V0 + 1
   \   000405   12....       LCALL   ?PUSH_XSTACK_I_ONE
   \   000408   7401         MOV     A,#0x1
   \   00040A   12....       LCALL   ?XSTACK_DISP0_8
   \   00040D   8582..       MOV     ?V0 + 2,DPL
   \   000410   8583..       MOV     ?V0 + 3,DPH
   \   000413   78..         MOV     R0,#?V0 + 2
   \   000415   12....       LCALL   ?PUSH_XSTACK_I_TWO
   \   000418   75..20       MOV     ?V0 + 2,#0x20
   \   00041B   75..80       MOV     ?V0 + 3,#-0x80
   \   00041E   78..         MOV     R0,#?V0 + 2
   \   000420   12....       LCALL   ?PUSH_XSTACK_I_TWO
   \   000423   7901         MOV     R1,#0x1
   \   000425   7406         MOV     A,#0x6
   \   000427   12....       LCALL   ?XSTACK_DISP0_8
   \   00042A   AC82         MOV     R4,DPL
   \   00042C   AD83         MOV     R5,DPH
   \   00042E   EE           MOV     A,R6
   \   00042F   FA           MOV     R2,A
   \   000430   EF           MOV     A,R7
   \   000431   FB           MOV     R3,A
   \   000432   12....       LCALL   ??ZDP_SendData?relay
   \   000435   7405         MOV     A,#0x5
   \   000437   12....       LCALL   ?DEALLOC_XSTACK8
   \   00043A   E9           MOV     A,R1
   2097          
   2098              if ( matchED->state == ZDMATCH_SENDING_BINDS )
   \   00043B   90....       MOV     DPTR,#matchED
   \   00043E   E0           MOVX    A,@DPTR
   \   00043F   F8           MOV     R0,A
   \   000440   A3           INC     DPTR
   \   000441   E0           MOVX    A,@DPTR
   \   000442   C8           XCH     A,R0
   \   000443   242E         ADD     A,#0x2e
   \   000445   F582         MOV     DPL,A
   \   000447   E8           MOV     A,R0
   \   000448   3400         ADDC    A,#0x0
   \   00044A   F583         MOV     DPH,A
   \   00044C   E0           MOVX    A,@DPTR
   \   00044D   6402         XRL     A,#0x2
   \   00044F   706F         JNZ     ??ZDO_MatchEndDeviceBind_12
   2099              {
   2100                // send response to first requester
   2101                dstAddr.addrMode = Addr16Bit;
   \   000451   7409         MOV     A,#0x9
   \   000453   12....       LCALL   ?XSTACK_DISP0_8
   \   000456   7402         MOV     A,#0x2
   \   000458   F0           MOVX    @DPTR,A
   2102                dstAddr.addr.shortAddr = matchED->ed1.srcAddr;
   \   000459   90....       MOV     DPTR,#matchED
   \   00045C   E0           MOVX    A,@DPTR
   \   00045D   F8           MOV     R0,A
   \   00045E   A3           INC     DPTR
   \   00045F   E0           MOVX    A,@DPTR
   \   000460   F583         MOV     DPH,A
   \   000462   8882         MOV     DPL,R0
   \   000464   A3           INC     DPTR
   \   000465   A3           INC     DPTR
   \   000466   E0           MOVX    A,@DPTR
   \   000467   F8           MOV     R0,A
   \   000468   A3           INC     DPTR
   \   000469   E0           MOVX    A,@DPTR
   \   00046A   F9           MOV     R1,A
   \   00046B   7401         MOV     A,#0x1
   \   00046D   12....       LCALL   ?XSTACK_DISP0_8
   \   000470   E8           MOV     A,R0
   \   000471   F0           MOVX    @DPTR,A
   \   000472   A3           INC     DPTR
   \   000473   E9           MOV     A,R1
   \   000474   F0           MOVX    @DPTR,A
   2103                ZDP_EndDeviceBindRsp( matchED->ed1.TransSeq, &dstAddr, status, matchED->ed1.SecurityUse );
   \   000475                ; Setup parameters for call to function ZDP_SendData
   \   000475   90....       MOV     DPTR,#matchED
   \   000478   E0           MOVX    A,@DPTR
   \   000479   F8           MOV     R0,A
   \   00047A   A3           INC     DPTR
   \   00047B   E0           MOVX    A,@DPTR
   \   00047C   F583         MOV     DPH,A
   \   00047E   8882         MOV     DPL,R0
   \   000480   A3           INC     DPTR
   \   000481   E0           MOVX    A,@DPTR
   \   000482   F5..         MOV     ?V0 + 1,A
   \   000484   78..         MOV     R0,#?V0 + 1
   \   000486   12....       LCALL   ?PUSH_XSTACK_I_ONE
   \   000489   7401         MOV     A,#0x1
   \   00048B   12....       LCALL   ?XSTACK_DISP0_8
   \   00048E   8582..       MOV     ?V0 + 2,DPL
   \   000491   8583..       MOV     ?V0 + 3,DPH
   \   000494   78..         MOV     R0,#?V0 + 2
   \   000496   12....       LCALL   ?PUSH_XSTACK_I_TWO
   \   000499   75..20       MOV     ?V0 + 2,#0x20
   \   00049C   75..80       MOV     ?V0 + 3,#-0x80
   \   00049F   78..         MOV     R0,#?V0 + 2
   \   0004A1   12....       LCALL   ?PUSH_XSTACK_I_TWO
   \   0004A4   7901         MOV     R1,#0x1
   \   0004A6   7406         MOV     A,#0x6
   \   0004A8   12....       LCALL   ?XSTACK_DISP0_8
   \   0004AB   AC82         MOV     R4,DPL
   \   0004AD   AD83         MOV     R5,DPH
   \   0004AF   90....       MOV     DPTR,#matchED
   \   0004B2   E0           MOVX    A,@DPTR
   \   0004B3   FA           MOV     R2,A
   \   0004B4   A3           INC     DPTR
   \   0004B5   E0           MOVX    A,@DPTR
   \   0004B6   FB           MOV     R3,A
   \   0004B7   12....       LCALL   ??ZDP_SendData?relay
   \   0004BA   7405         MOV     A,#0x5
   \   0004BC   12....       LCALL   ?DEALLOC_XSTACK8
   \   0004BF   E9           MOV     A,R1
   2104              }
   2105          
   2106              // Process ended - release memory used
   2107              ZDO_RemoveMatchMemory();
   \                     ??ZDO_MatchEndDeviceBind_12:
   \   0004C0                ; Setup parameters for call to function ZDO_RemoveMatchMemory
   \   0004C0   12....       LCALL   ??ZDO_RemoveMatchMemory?relay
   2108            }
   2109          }
   \                     ??ZDO_MatchEndDeviceBind_11:
   \   0004C3   740A         MOV     A,#0xa
   \   0004C5   12....       LCALL   ?DEALLOC_XSTACK8
   \   0004C8   7F07         MOV     R7,#0x7
   \   0004CA   02....       LJMP    ?BANKED_LEAVE_XDATA
   2110          
   2111          /*********************************************************************
   2112           * @fn      ZDO_RemoveMatchMemory()
   2113           *
   2114           * @brief   Called to clear the memory used for the end device bind.
   2115           *
   2116           * @param  none
   2117           *
   2118           * @return  none
   2119           */

   \                                 In  segment BANKED_CODE, align 1, keep-with-next
   2120          static void ZDO_RemoveMatchMemory( void )
   \                     ZDO_RemoveMatchMemory:
   2121          {
   \   000000   C082         PUSH    DPL
   \   000002   C083         PUSH    DPH
   \   000004                ; Saved register size: 2
   \   000004                ; Auto size: 0
   2122            if ( matchED != NULL )
   \   000004   90....       MOV     DPTR,#matchED
   \   000007   E0           MOVX    A,@DPTR
   \   000008   F8           MOV     R0,A
   \   000009   A3           INC     DPTR
   \   00000A   E0           MOVX    A,@DPTR
   \   00000B   F9           MOV     R1,A
   \   00000C   E8           MOV     A,R0
   \   00000D   49           ORL     A,R1
   \   00000E   7003         JNZ     $+5
   \   000010   02....       LJMP    ??ZDO_RemoveMatchMemory_0 & 0xFFFF
   2123            {
   2124              if ( matchED->ed2Matched != NULL )
   \   000013   90....       MOV     DPTR,#matchED
   \   000016   E0           MOVX    A,@DPTR
   \   000017   F8           MOV     R0,A
   \   000018   A3           INC     DPTR
   \   000019   E0           MOVX    A,@DPTR
   \   00001A   C8           XCH     A,R0
   \   00001B   2435         ADD     A,#0x35
   \   00001D   F582         MOV     DPL,A
   \   00001F   E8           MOV     A,R0
   \   000020   3400         ADDC    A,#0x0
   \   000022   F583         MOV     DPH,A
   \   000024   E0           MOVX    A,@DPTR
   \   000025   F8           MOV     R0,A
   \   000026   A3           INC     DPTR
   \   000027   E0           MOVX    A,@DPTR
   \   000028   F9           MOV     R1,A
   \   000029   E8           MOV     A,R0
   \   00002A   49           ORL     A,R1
   \   00002B   6019         JZ      ??ZDO_RemoveMatchMemory_1
   2125                osal_mem_free( matchED->ed2Matched );
   \   00002D                ; Setup parameters for call to function osal_mem_free
   \   00002D   90....       MOV     DPTR,#matchED
   \   000030   E0           MOVX    A,@DPTR
   \   000031   F8           MOV     R0,A
   \   000032   A3           INC     DPTR
   \   000033   E0           MOVX    A,@DPTR
   \   000034   C8           XCH     A,R0
   \   000035   2435         ADD     A,#0x35
   \   000037   F582         MOV     DPL,A
   \   000039   E8           MOV     A,R0
   \   00003A   3400         ADDC    A,#0x0
   \   00003C   F583         MOV     DPH,A
   \   00003E   E0           MOVX    A,@DPTR
   \   00003F   FA           MOV     R2,A
   \   000040   A3           INC     DPTR
   \   000041   E0           MOVX    A,@DPTR
   \   000042   FB           MOV     R3,A
   \   000043   12....       LCALL   ??osal_mem_free?relay
   2126              if ( matchED->ed1Matched != NULL )
   \                     ??ZDO_RemoveMatchMemory_1:
   \   000046   90....       MOV     DPTR,#matchED
   \   000049   E0           MOVX    A,@DPTR
   \   00004A   F8           MOV     R0,A
   \   00004B   A3           INC     DPTR
   \   00004C   E0           MOVX    A,@DPTR
   \   00004D   C8           XCH     A,R0
   \   00004E   2432         ADD     A,#0x32
   \   000050   F582         MOV     DPL,A
   \   000052   E8           MOV     A,R0
   \   000053   3400         ADDC    A,#0x0
   \   000055   F583         MOV     DPH,A
   \   000057   E0           MOVX    A,@DPTR
   \   000058   F8           MOV     R0,A
   \   000059   A3           INC     DPTR
   \   00005A   E0           MOVX    A,@DPTR
   \   00005B   F9           MOV     R1,A
   \   00005C   E8           MOV     A,R0
   \   00005D   49           ORL     A,R1
   \   00005E   6019         JZ      ??ZDO_RemoveMatchMemory_2
   2127                osal_mem_free( matchED->ed1Matched );
   \   000060                ; Setup parameters for call to function osal_mem_free
   \   000060   90....       MOV     DPTR,#matchED
   \   000063   E0           MOVX    A,@DPTR
   \   000064   F8           MOV     R0,A
   \   000065   A3           INC     DPTR
   \   000066   E0           MOVX    A,@DPTR
   \   000067   C8           XCH     A,R0
   \   000068   2432         ADD     A,#0x32
   \   00006A   F582         MOV     DPL,A
   \   00006C   E8           MOV     A,R0
   \   00006D   3400         ADDC    A,#0x0
   \   00006F   F583         MOV     DPH,A
   \   000071   E0           MOVX    A,@DPTR
   \   000072   FA           MOV     R2,A
   \   000073   A3           INC     DPTR
   \   000074   E0           MOVX    A,@DPTR
   \   000075   FB           MOV     R3,A
   \   000076   12....       LCALL   ??osal_mem_free?relay
   2128          
   2129              if ( matchED->ed1.inClusters != NULL )
   \                     ??ZDO_RemoveMatchMemory_2:
   \   000079   90....       MOV     DPTR,#matchED
   \   00007C   E0           MOVX    A,@DPTR
   \   00007D   F8           MOV     R0,A
   \   00007E   A3           INC     DPTR
   \   00007F   E0           MOVX    A,@DPTR
   \   000080   C8           XCH     A,R0
   \   000081   2412         ADD     A,#0x12
   \   000083   F582         MOV     DPL,A
   \   000085   E8           MOV     A,R0
   \   000086   3400         ADDC    A,#0x0
   \   000088   F583         MOV     DPH,A
   \   00008A   E0           MOVX    A,@DPTR
   \   00008B   F8           MOV     R0,A
   \   00008C   A3           INC     DPTR
   \   00008D   E0           MOVX    A,@DPTR
   \   00008E   F9           MOV     R1,A
   \   00008F   E8           MOV     A,R0
   \   000090   49           ORL     A,R1
   \   000091   6019         JZ      ??ZDO_RemoveMatchMemory_3
   2130                osal_mem_free( matchED->ed1.inClusters );
   \   000093                ; Setup parameters for call to function osal_mem_free
   \   000093   90....       MOV     DPTR,#matchED
   \   000096   E0           MOVX    A,@DPTR
   \   000097   F8           MOV     R0,A
   \   000098   A3           INC     DPTR
   \   000099   E0           MOVX    A,@DPTR
   \   00009A   C8           XCH     A,R0
   \   00009B   2412         ADD     A,#0x12
   \   00009D   F582         MOV     DPL,A
   \   00009F   E8           MOV     A,R0
   \   0000A0   3400         ADDC    A,#0x0
   \   0000A2   F583         MOV     DPH,A
   \   0000A4   E0           MOVX    A,@DPTR
   \   0000A5   FA           MOV     R2,A
   \   0000A6   A3           INC     DPTR
   \   0000A7   E0           MOVX    A,@DPTR
   \   0000A8   FB           MOV     R3,A
   \   0000A9   12....       LCALL   ??osal_mem_free?relay
   2131          
   2132              if ( matchED->ed1.outClusters != NULL )
   \                     ??ZDO_RemoveMatchMemory_3:
   \   0000AC   90....       MOV     DPTR,#matchED
   \   0000AF   E0           MOVX    A,@DPTR
   \   0000B0   F8           MOV     R0,A
   \   0000B1   A3           INC     DPTR
   \   0000B2   E0           MOVX    A,@DPTR
   \   0000B3   C8           XCH     A,R0
   \   0000B4   2415         ADD     A,#0x15
   \   0000B6   F582         MOV     DPL,A
   \   0000B8   E8           MOV     A,R0
   \   0000B9   3400         ADDC    A,#0x0
   \   0000BB   F583         MOV     DPH,A
   \   0000BD   E0           MOVX    A,@DPTR
   \   0000BE   F8           MOV     R0,A
   \   0000BF   A3           INC     DPTR
   \   0000C0   E0           MOVX    A,@DPTR
   \   0000C1   F9           MOV     R1,A
   \   0000C2   E8           MOV     A,R0
   \   0000C3   49           ORL     A,R1
   \   0000C4   6019         JZ      ??ZDO_RemoveMatchMemory_4
   2133                osal_mem_free( matchED->ed1.outClusters );
   \   0000C6                ; Setup parameters for call to function osal_mem_free
   \   0000C6   90....       MOV     DPTR,#matchED
   \   0000C9   E0           MOVX    A,@DPTR
   \   0000CA   F8           MOV     R0,A
   \   0000CB   A3           INC     DPTR
   \   0000CC   E0           MOVX    A,@DPTR
   \   0000CD   C8           XCH     A,R0
   \   0000CE   2415         ADD     A,#0x15
   \   0000D0   F582         MOV     DPL,A
   \   0000D2   E8           MOV     A,R0
   \   0000D3   3400         ADDC    A,#0x0
   \   0000D5   F583         MOV     DPH,A
   \   0000D7   E0           MOVX    A,@DPTR
   \   0000D8   FA           MOV     R2,A
   \   0000D9   A3           INC     DPTR
   \   0000DA   E0           MOVX    A,@DPTR
   \   0000DB   FB           MOV     R3,A
   \   0000DC   12....       LCALL   ??osal_mem_free?relay
   2134          
   2135              if ( matchED->ed2.inClusters != NULL )
   \                     ??ZDO_RemoveMatchMemory_4:
   \   0000DF   90....       MOV     DPTR,#matchED
   \   0000E2   E0           MOVX    A,@DPTR
   \   0000E3   F8           MOV     R0,A
   \   0000E4   A3           INC     DPTR
   \   0000E5   E0           MOVX    A,@DPTR
   \   0000E6   C8           XCH     A,R0
   \   0000E7   2429         ADD     A,#0x29
   \   0000E9   F582         MOV     DPL,A
   \   0000EB   E8           MOV     A,R0
   \   0000EC   3400         ADDC    A,#0x0
   \   0000EE   F583         MOV     DPH,A
   \   0000F0   E0           MOVX    A,@DPTR
   \   0000F1   F8           MOV     R0,A
   \   0000F2   A3           INC     DPTR
   \   0000F3   E0           MOVX    A,@DPTR
   \   0000F4   F9           MOV     R1,A
   \   0000F5   E8           MOV     A,R0
   \   0000F6   49           ORL     A,R1
   \   0000F7   6019         JZ      ??ZDO_RemoveMatchMemory_5
   2136                osal_mem_free( matchED->ed2.inClusters );
   \   0000F9                ; Setup parameters for call to function osal_mem_free
   \   0000F9   90....       MOV     DPTR,#matchED
   \   0000FC   E0           MOVX    A,@DPTR
   \   0000FD   F8           MOV     R0,A
   \   0000FE   A3           INC     DPTR
   \   0000FF   E0           MOVX    A,@DPTR
   \   000100   C8           XCH     A,R0
   \   000101   2429         ADD     A,#0x29
   \   000103   F582         MOV     DPL,A
   \   000105   E8           MOV     A,R0
   \   000106   3400         ADDC    A,#0x0
   \   000108   F583         MOV     DPH,A
   \   00010A   E0           MOVX    A,@DPTR
   \   00010B   FA           MOV     R2,A
   \   00010C   A3           INC     DPTR
   \   00010D   E0           MOVX    A,@DPTR
   \   00010E   FB           MOV     R3,A
   \   00010F   12....       LCALL   ??osal_mem_free?relay
   2137          
   2138              if ( matchED->ed2.outClusters != NULL )
   \                     ??ZDO_RemoveMatchMemory_5:
   \   000112   90....       MOV     DPTR,#matchED
   \   000115   E0           MOVX    A,@DPTR
   \   000116   F8           MOV     R0,A
   \   000117   A3           INC     DPTR
   \   000118   E0           MOVX    A,@DPTR
   \   000119   C8           XCH     A,R0
   \   00011A   242C         ADD     A,#0x2c
   \   00011C   F582         MOV     DPL,A
   \   00011E   E8           MOV     A,R0
   \   00011F   3400         ADDC    A,#0x0
   \   000121   F583         MOV     DPH,A
   \   000123   E0           MOVX    A,@DPTR
   \   000124   F8           MOV     R0,A
   \   000125   A3           INC     DPTR
   \   000126   E0           MOVX    A,@DPTR
   \   000127   F9           MOV     R1,A
   \   000128   E8           MOV     A,R0
   \   000129   49           ORL     A,R1
   \   00012A   6019         JZ      ??ZDO_RemoveMatchMemory_6
   2139                osal_mem_free( matchED->ed2.outClusters );
   \   00012C                ; Setup parameters for call to function osal_mem_free
   \   00012C   90....       MOV     DPTR,#matchED
   \   00012F   E0           MOVX    A,@DPTR
   \   000130   F8           MOV     R0,A
   \   000131   A3           INC     DPTR
   \   000132   E0           MOVX    A,@DPTR
   \   000133   C8           XCH     A,R0
   \   000134   242C         ADD     A,#0x2c
   \   000136   F582         MOV     DPL,A
   \   000138   E8           MOV     A,R0
   \   000139   3400         ADDC    A,#0x0
   \   00013B   F583         MOV     DPH,A
   \   00013D   E0           MOVX    A,@DPTR
   \   00013E   FA           MOV     R2,A
   \   00013F   A3           INC     DPTR
   \   000140   E0           MOVX    A,@DPTR
   \   000141   FB           MOV     R3,A
   \   000142   12....       LCALL   ??osal_mem_free?relay
   2140          
   2141              osal_mem_free( matchED );
   \                     ??ZDO_RemoveMatchMemory_6:
   \   000145                ; Setup parameters for call to function osal_mem_free
   \   000145   90....       MOV     DPTR,#matchED
   \   000148   E0           MOVX    A,@DPTR
   \   000149   FA           MOV     R2,A
   \   00014A   A3           INC     DPTR
   \   00014B   E0           MOVX    A,@DPTR
   \   00014C   FB           MOV     R3,A
   \   00014D   12....       LCALL   ??osal_mem_free?relay
   2142          
   2143              matchED = (ZDMatchEndDeviceBind_t *)NULL;
   \   000150   90....       MOV     DPTR,#matchED
   \   000153   7400         MOV     A,#0x0
   \   000155   F0           MOVX    @DPTR,A
   \   000156   A3           INC     DPTR
   \   000157   7400         MOV     A,#0x0
   \   000159   F0           MOVX    @DPTR,A
   2144            }
   2145          }
   \                     ??ZDO_RemoveMatchMemory_0:
   \   00015A   D083         POP     DPH
   \   00015C   D082         POP     DPL
   \   00015E   02....       LJMP    ?BRET
   2146          
   2147          /*********************************************************************
   2148           * @fn      ZDO_CopyMatchInfo()
   2149           *
   2150           * @brief   Called to copy memory used for the end device bind.
   2151           *
   2152           * @param  srcReq - source information
   2153           * @param  dstReq - destination location
   2154           *
   2155           * @return  TRUE if copy was successful.
   2156           */

   \                                 In  segment BANKED_CODE, align 1, keep-with-next
   2157          static uint8 ZDO_CopyMatchInfo( ZDEndDeviceBind_t *destReq, ZDEndDeviceBind_t *srcReq )
   \                     ZDO_CopyMatchInfo:
   2158          {
   \   000000   74F1         MOV     A,#-0xf
   \   000002   12....       LCALL   ?BANKED_ENTER_XDATA
   \   000005                ; Saved register size: 15
   \   000005                ; Auto size: 0
   \   000005   EA           MOV     A,R2
   \   000006   FE           MOV     R6,A
   \   000007   EB           MOV     A,R3
   \   000008   FF           MOV     R7,A
   \   000009   8C..         MOV     ?V0 + 0,R4
   \   00000B   8D..         MOV     ?V0 + 1,R5
   2159            uint8 allOK = TRUE;
   \   00000D   75..01       MOV     ?V0 + 2,#0x1
   2160          
   2161            // Copy bind information into the match info structure
   2162            osal_memcpy( (uint8 *)destReq, srcReq, sizeof ( ZDEndDeviceBind_t ) );
   \   000010                ; Setup parameters for call to function osal_memcpy
   \   000010   85....       MOV     ?V0 + 4,?V0 + 0
   \   000013   85....       MOV     ?V0 + 5,?V0 + 1
   \   000016   75..00       MOV     ?V0 + 6,#0x0
   \   000019   78..         MOV     R0,#?V0 + 4
   \   00001B   12....       LCALL   ?PUSH_XSTACK_I_THREE
   \   00001E   7C17         MOV     R4,#0x17
   \   000020   7D00         MOV     R5,#0x0
   \   000022   EE           MOV     A,R6
   \   000023   FA           MOV     R2,A
   \   000024   EF           MOV     A,R7
   \   000025   FB           MOV     R3,A
   \   000026   12....       LCALL   ??osal_memcpy?relay
   \   000029   7403         MOV     A,#0x3
   \   00002B   12....       LCALL   ?DEALLOC_XSTACK8
   2163          
   2164            // Initialize the destination cluster pointers
   2165            destReq->inClusters = NULL;
   \   00002E   EE           MOV     A,R6
   \   00002F   2412         ADD     A,#0x12
   \   000031   F582         MOV     DPL,A
   \   000033   EF           MOV     A,R7
   \   000034   3400         ADDC    A,#0x0
   \   000036   F583         MOV     DPH,A
   \   000038   7400         MOV     A,#0x0
   \   00003A   F0           MOVX    @DPTR,A
   \   00003B   A3           INC     DPTR
   \   00003C   7400         MOV     A,#0x0
   \   00003E   F0           MOVX    @DPTR,A
   2166            destReq->outClusters = NULL;
   \   00003F   EE           MOV     A,R6
   \   000040   2415         ADD     A,#0x15
   \   000042   F582         MOV     DPL,A
   \   000044   EF           MOV     A,R7
   \   000045   3400         ADDC    A,#0x0
   \   000047   F583         MOV     DPH,A
   \   000049   7400         MOV     A,#0x0
   \   00004B   F0           MOVX    @DPTR,A
   \   00004C   A3           INC     DPTR
   \   00004D   7400         MOV     A,#0x0
   \   00004F   F0           MOVX    @DPTR,A
   2167          
   2168            // Copy input cluster IDs
   2169            if ( srcReq->numInClusters )
   \   000050   E5..         MOV     A,?V0 + 0
   \   000052   2411         ADD     A,#0x11
   \   000054   F582         MOV     DPL,A
   \   000056   E5..         MOV     A,?V0 + 1
   \   000058   3400         ADDC    A,#0x0
   \   00005A   F583         MOV     DPH,A
   \   00005C   E0           MOVX    A,@DPTR
   \   00005D   7003         JNZ     $+5
   \   00005F   02....       LJMP    ??ZDO_CopyMatchInfo_0 & 0xFFFF
   2170            {
   2171              destReq->inClusters = osal_mem_alloc( (short)(srcReq->numInClusters * sizeof ( uint16 )) );
   \   000062                ; Setup parameters for call to function osal_mem_alloc
   \   000062   E5..         MOV     A,?V0 + 0
   \   000064   2411         ADD     A,#0x11
   \   000066   F582         MOV     DPL,A
   \   000068   E5..         MOV     A,?V0 + 1
   \   00006A   3400         ADDC    A,#0x0
   \   00006C   F583         MOV     DPH,A
   \   00006E   E0           MOVX    A,@DPTR
   \   00006F   FA           MOV     R2,A
   \   000070   7B00         MOV     R3,#0x0
   \   000072   EA           MOV     A,R2
   \   000073   75F002       MOV     B,#0x2
   \   000076   A4           MUL     AB
   \   000077   CA           XCH     A,R2
   \   000078   A8F0         MOV     R0,B
   \   00007A   75F000       MOV     B,#0x0
   \   00007D   A4           MUL     AB
   \   00007E   28           ADD     A,R0
   \   00007F   F8           MOV     R0,A
   \   000080   75F002       MOV     B,#0x2
   \   000083   EB           MOV     A,R3
   \   000084   A4           MUL     AB
   \   000085   28           ADD     A,R0
   \   000086   FB           MOV     R3,A
   \   000087   12....       LCALL   ??osal_mem_alloc?relay
   \   00008A   EE           MOV     A,R6
   \   00008B   2412         ADD     A,#0x12
   \   00008D   F582         MOV     DPL,A
   \   00008F   EF           MOV     A,R7
   \   000090   3400         ADDC    A,#0x0
   \   000092   F583         MOV     DPH,A
   \   000094   EA           MOV     A,R2
   \   000095   F0           MOVX    @DPTR,A
   \   000096   A3           INC     DPTR
   \   000097   EB           MOV     A,R3
   \   000098   F0           MOVX    @DPTR,A
   2172              if ( destReq->inClusters )
   \   000099   EE           MOV     A,R6
   \   00009A   2412         ADD     A,#0x12
   \   00009C   F582         MOV     DPL,A
   \   00009E   EF           MOV     A,R7
   \   00009F   3400         ADDC    A,#0x0
   \   0000A1   F583         MOV     DPH,A
   \   0000A3   E0           MOVX    A,@DPTR
   \   0000A4   F8           MOV     R0,A
   \   0000A5   A3           INC     DPTR
   \   0000A6   E0           MOVX    A,@DPTR
   \   0000A7   F9           MOV     R1,A
   \   0000A8   E8           MOV     A,R0
   \   0000A9   49           ORL     A,R1
   \   0000AA   6059         JZ      ??ZDO_CopyMatchInfo_1
   2173              {
   2174                // Copy the clusters
   2175                osal_memcpy( (uint8*)(destReq->inClusters), (uint8 *)(srcReq->inClusters),
   2176                                (srcReq->numInClusters * sizeof ( uint16 )) );
   \   0000AC                ; Setup parameters for call to function osal_memcpy
   \   0000AC   E5..         MOV     A,?V0 + 0
   \   0000AE   2412         ADD     A,#0x12
   \   0000B0   F582         MOV     DPL,A
   \   0000B2   E5..         MOV     A,?V0 + 1
   \   0000B4   3400         ADDC    A,#0x0
   \   0000B6   F583         MOV     DPH,A
   \   0000B8   E0           MOVX    A,@DPTR
   \   0000B9   F5..         MOV     ?V0 + 4,A
   \   0000BB   A3           INC     DPTR
   \   0000BC   E0           MOVX    A,@DPTR
   \   0000BD   F5..         MOV     ?V0 + 5,A
   \   0000BF   75..00       MOV     ?V0 + 6,#0x0
   \   0000C2   78..         MOV     R0,#?V0 + 4
   \   0000C4   12....       LCALL   ?PUSH_XSTACK_I_THREE
   \   0000C7   E5..         MOV     A,?V0 + 0
   \   0000C9   2411         ADD     A,#0x11
   \   0000CB   F582         MOV     DPL,A
   \   0000CD   E5..         MOV     A,?V0 + 1
   \   0000CF   3400         ADDC    A,#0x0
   \   0000D1   F583         MOV     DPH,A
   \   0000D3   E0           MOVX    A,@DPTR
   \   0000D4   FC           MOV     R4,A
   \   0000D5   7D00         MOV     R5,#0x0
   \   0000D7   EC           MOV     A,R4
   \   0000D8   75F002       MOV     B,#0x2
   \   0000DB   A4           MUL     AB
   \   0000DC   CC           XCH     A,R4
   \   0000DD   A8F0         MOV     R0,B
   \   0000DF   75F000       MOV     B,#0x0
   \   0000E2   A4           MUL     AB
   \   0000E3   28           ADD     A,R0
   \   0000E4   F8           MOV     R0,A
   \   0000E5   75F002       MOV     B,#0x2
   \   0000E8   ED           MOV     A,R5
   \   0000E9   A4           MUL     AB
   \   0000EA   28           ADD     A,R0
   \   0000EB   FD           MOV     R5,A
   \   0000EC   EE           MOV     A,R6
   \   0000ED   2412         ADD     A,#0x12
   \   0000EF   F582         MOV     DPL,A
   \   0000F1   EF           MOV     A,R7
   \   0000F2   3400         ADDC    A,#0x0
   \   0000F4   F583         MOV     DPH,A
   \   0000F6   E0           MOVX    A,@DPTR
   \   0000F7   FA           MOV     R2,A
   \   0000F8   A3           INC     DPTR
   \   0000F9   E0           MOVX    A,@DPTR
   \   0000FA   FB           MOV     R3,A
   \   0000FB   12....       LCALL   ??osal_memcpy?relay
   \   0000FE   7403         MOV     A,#0x3
   \   000100   12....       LCALL   ?DEALLOC_XSTACK8
   \   000103   8003         SJMP    ??ZDO_CopyMatchInfo_0
   2177              }
   2178              else
   2179                allOK = FALSE;
   \                     ??ZDO_CopyMatchInfo_1:
   \   000105   75..00       MOV     ?V0 + 2,#0x0
   2180            }
   2181          
   2182            // Copy output cluster IDs
   2183            if ( srcReq->numOutClusters )
   \                     ??ZDO_CopyMatchInfo_0:
   \   000108   E5..         MOV     A,?V0 + 0
   \   00010A   2414         ADD     A,#0x14
   \   00010C   F582         MOV     DPL,A
   \   00010E   E5..         MOV     A,?V0 + 1
   \   000110   3400         ADDC    A,#0x0
   \   000112   F583         MOV     DPH,A
   \   000114   E0           MOVX    A,@DPTR
   \   000115   7003         JNZ     $+5
   \   000117   02....       LJMP    ??ZDO_CopyMatchInfo_2 & 0xFFFF
   2184            {
   2185              destReq->outClusters = osal_mem_alloc( (short)(srcReq->numOutClusters * sizeof ( uint16 )) );
   \   00011A                ; Setup parameters for call to function osal_mem_alloc
   \   00011A   E5..         MOV     A,?V0 + 0
   \   00011C   2414         ADD     A,#0x14
   \   00011E   F582         MOV     DPL,A
   \   000120   E5..         MOV     A,?V0 + 1
   \   000122   3400         ADDC    A,#0x0
   \   000124   F583         MOV     DPH,A
   \   000126   E0           MOVX    A,@DPTR
   \   000127   FA           MOV     R2,A
   \   000128   7B00         MOV     R3,#0x0
   \   00012A   EA           MOV     A,R2
   \   00012B   75F002       MOV     B,#0x2
   \   00012E   A4           MUL     AB
   \   00012F   CA           XCH     A,R2
   \   000130   A8F0         MOV     R0,B
   \   000132   75F000       MOV     B,#0x0
   \   000135   A4           MUL     AB
   \   000136   28           ADD     A,R0
   \   000137   F8           MOV     R0,A
   \   000138   75F002       MOV     B,#0x2
   \   00013B   EB           MOV     A,R3
   \   00013C   A4           MUL     AB
   \   00013D   28           ADD     A,R0
   \   00013E   FB           MOV     R3,A
   \   00013F   12....       LCALL   ??osal_mem_alloc?relay
   \   000142   EE           MOV     A,R6
   \   000143   2415         ADD     A,#0x15
   \   000145   F582         MOV     DPL,A
   \   000147   EF           MOV     A,R7
   \   000148   3400         ADDC    A,#0x0
   \   00014A   F583         MOV     DPH,A
   \   00014C   EA           MOV     A,R2
   \   00014D   F0           MOVX    @DPTR,A
   \   00014E   A3           INC     DPTR
   \   00014F   EB           MOV     A,R3
   \   000150   F0           MOVX    @DPTR,A
   2186              if ( destReq->outClusters )
   \   000151   EE           MOV     A,R6
   \   000152   2415         ADD     A,#0x15
   \   000154   F582         MOV     DPL,A
   \   000156   EF           MOV     A,R7
   \   000157   3400         ADDC    A,#0x0
   \   000159   F583         MOV     DPH,A
   \   00015B   E0           MOVX    A,@DPTR
   \   00015C   F8           MOV     R0,A
   \   00015D   A3           INC     DPTR
   \   00015E   E0           MOVX    A,@DPTR
   \   00015F   F9           MOV     R1,A
   \   000160   E8           MOV     A,R0
   \   000161   49           ORL     A,R1
   \   000162   6059         JZ      ??ZDO_CopyMatchInfo_3
   2187              {
   2188                // Copy the clusters
   2189                osal_memcpy( (uint8 *)(destReq->outClusters), (uint8 *)(srcReq->outClusters),
   2190                                (srcReq->numOutClusters * sizeof ( uint16 )) );
   \   000164                ; Setup parameters for call to function osal_memcpy
   \   000164   E5..         MOV     A,?V0 + 0
   \   000166   2415         ADD     A,#0x15
   \   000168   F582         MOV     DPL,A
   \   00016A   E5..         MOV     A,?V0 + 1
   \   00016C   3400         ADDC    A,#0x0
   \   00016E   F583         MOV     DPH,A
   \   000170   E0           MOVX    A,@DPTR
   \   000171   F5..         MOV     ?V0 + 4,A
   \   000173   A3           INC     DPTR
   \   000174   E0           MOVX    A,@DPTR
   \   000175   F5..         MOV     ?V0 + 5,A
   \   000177   75..00       MOV     ?V0 + 6,#0x0
   \   00017A   78..         MOV     R0,#?V0 + 4
   \   00017C   12....       LCALL   ?PUSH_XSTACK_I_THREE
   \   00017F   E5..         MOV     A,?V0 + 0
   \   000181   2414         ADD     A,#0x14
   \   000183   F582         MOV     DPL,A
   \   000185   E5..         MOV     A,?V0 + 1
   \   000187   3400         ADDC    A,#0x0
   \   000189   F583         MOV     DPH,A
   \   00018B   E0           MOVX    A,@DPTR
   \   00018C   FC           MOV     R4,A
   \   00018D   7D00         MOV     R5,#0x0
   \   00018F   EC           MOV     A,R4
   \   000190   75F002       MOV     B,#0x2
   \   000193   A4           MUL     AB
   \   000194   CC           XCH     A,R4
   \   000195   A8F0         MOV     R0,B
   \   000197   75F000       MOV     B,#0x0
   \   00019A   A4           MUL     AB
   \   00019B   28           ADD     A,R0
   \   00019C   F8           MOV     R0,A
   \   00019D   75F002       MOV     B,#0x2
   \   0001A0   ED           MOV     A,R5
   \   0001A1   A4           MUL     AB
   \   0001A2   28           ADD     A,R0
   \   0001A3   FD           MOV     R5,A
   \   0001A4   EE           MOV     A,R6
   \   0001A5   2415         ADD     A,#0x15
   \   0001A7   F582         MOV     DPL,A
   \   0001A9   EF           MOV     A,R7
   \   0001AA   3400         ADDC    A,#0x0
   \   0001AC   F583         MOV     DPH,A
   \   0001AE   E0           MOVX    A,@DPTR
   \   0001AF   FA           MOV     R2,A
   \   0001B0   A3           INC     DPTR
   \   0001B1   E0           MOVX    A,@DPTR
   \   0001B2   FB           MOV     R3,A
   \   0001B3   12....       LCALL   ??osal_memcpy?relay
   \   0001B6   7403         MOV     A,#0x3
   \   0001B8   12....       LCALL   ?DEALLOC_XSTACK8
   \   0001BB   8003         SJMP    ??ZDO_CopyMatchInfo_2
   2191              }
   2192              else
   2193                allOK = FALSE;
   \                     ??ZDO_CopyMatchInfo_3:
   \   0001BD   75..00       MOV     ?V0 + 2,#0x0
   2194            }
   2195          
   2196            if ( !allOK )
   \                     ??ZDO_CopyMatchInfo_2:
   \   0001C0   E5..         MOV     A,?V0 + 2
   \   0001C2   704A         JNZ     ??ZDO_CopyMatchInfo_4
   2197            {
   2198              if ( destReq->inClusters != NULL )
   \   0001C4   EE           MOV     A,R6
   \   0001C5   2412         ADD     A,#0x12
   \   0001C7   F582         MOV     DPL,A
   \   0001C9   EF           MOV     A,R7
   \   0001CA   3400         ADDC    A,#0x0
   \   0001CC   F583         MOV     DPH,A
   \   0001CE   E0           MOVX    A,@DPTR
   \   0001CF   F8           MOV     R0,A
   \   0001D0   A3           INC     DPTR
   \   0001D1   E0           MOVX    A,@DPTR
   \   0001D2   F9           MOV     R1,A
   \   0001D3   E8           MOV     A,R0
   \   0001D4   49           ORL     A,R1
   \   0001D5   6012         JZ      ??ZDO_CopyMatchInfo_5
   2199                osal_mem_free( destReq->inClusters );
   \   0001D7                ; Setup parameters for call to function osal_mem_free
   \   0001D7   EE           MOV     A,R6
   \   0001D8   2412         ADD     A,#0x12
   \   0001DA   F582         MOV     DPL,A
   \   0001DC   EF           MOV     A,R7
   \   0001DD   3400         ADDC    A,#0x0
   \   0001DF   F583         MOV     DPH,A
   \   0001E1   E0           MOVX    A,@DPTR
   \   0001E2   FA           MOV     R2,A
   \   0001E3   A3           INC     DPTR
   \   0001E4   E0           MOVX    A,@DPTR
   \   0001E5   FB           MOV     R3,A
   \   0001E6   12....       LCALL   ??osal_mem_free?relay
   2200              if ( destReq->outClusters != NULL )
   \                     ??ZDO_CopyMatchInfo_5:
   \   0001E9   EE           MOV     A,R6
   \   0001EA   2415         ADD     A,#0x15
   \   0001EC   F582         MOV     DPL,A
   \   0001EE   EF           MOV     A,R7
   \   0001EF   3400         ADDC    A,#0x0
   \   0001F1   F583         MOV     DPH,A
   \   0001F3   E0           MOVX    A,@DPTR
   \   0001F4   F8           MOV     R0,A
   \   0001F5   A3           INC     DPTR
   \   0001F6   E0           MOVX    A,@DPTR
   \   0001F7   F9           MOV     R1,A
   \   0001F8   E8           MOV     A,R0
   \   0001F9   49           ORL     A,R1
   \   0001FA   6012         JZ      ??ZDO_CopyMatchInfo_4
   2201                osal_mem_free( destReq->outClusters );
   \   0001FC                ; Setup parameters for call to function osal_mem_free
   \   0001FC   EE           MOV     A,R6
   \   0001FD   2415         ADD     A,#0x15
   \   0001FF   F582         MOV     DPL,A
   \   000201   EF           MOV     A,R7
   \   000202   3400         ADDC    A,#0x0
   \   000204   F583         MOV     DPH,A
   \   000206   E0           MOVX    A,@DPTR
   \   000207   FA           MOV     R2,A
   \   000208   A3           INC     DPTR
   \   000209   E0           MOVX    A,@DPTR
   \   00020A   FB           MOV     R3,A
   \   00020B   12....       LCALL   ??osal_mem_free?relay
   2202            }
   2203          
   2204            return ( allOK );
   \                     ??ZDO_CopyMatchInfo_4:
   \   00020E   A9..         MOV     R1,?V0 + 2
   \   000210   7F07         MOV     R7,#0x7
   \   000212   02....       LJMP    ?BANKED_LEAVE_XDATA
   2205          }
   2206          
   2207          /*********************************************************************
   2208           * @fn      ZDMatchSendState()
   2209           *
   2210           * @brief   State machine for the End device match message algorithm.
   2211           *
   2212           * @param  reason - state of algoritm
   2213           * @param  status - initial message status
   2214           * @param  TransSeq - next transaction sequence number
   2215           *
   2216           * @return  FALSE if error and we are not currently matching, TRUE
   2217           *          if success.
   2218           */

   \                                 In  segment BANKED_CODE, align 1, keep-with-next
   2219          uint8 ZDMatchSendState( uint8 reason, uint8 status, uint8 TransSeq )
   \                     ZDMatchSendState:
   2220          {
   \   000000   74EC         MOV     A,#-0x14
   \   000002   12....       LCALL   ?BANKED_ENTER_XDATA
   \   000005                ; Saved register size: 20
   \   000005                ; Auto size: 19
   \   000005   74ED         MOV     A,#-0x13
   \   000007   12....       LCALL   ?ALLOC_XSTACK8
   \   00000A   89..         MOV     ?V0 + 2,R1
   \   00000C   8A..         MOV     ?V0 + 6,R2
   \   00000E   8B..         MOV     ?V0 + 7,R3
   2221            uint8 *dstIEEEAddr = NULL;
   \   000010   75..00       MOV     ?V0 + 8,#0x0
   \   000013   75..00       MOV     ?V0 + 9,#0x0
   2222            uint8 dstEP = 0xFF;
   \   000016   75..FF       MOV     ?V0 + 3,#-0x1
   2223            zAddrType_t dstAddr;
   2224            zAddrType_t destinationAddr;
   2225            uint16 msgType;
   2226            uint16 clusterID = 0xFFFF;
   \   000019   7EFF         MOV     R6,#-0x1
   \   00001B   7FFF         MOV     R7,#-0x1
   2227            ZDEndDeviceBind_t *ed = NULL;
   \   00001D   75..00       MOV     ?V0 + 4,#0x0
   \   000020   75..00       MOV     ?V0 + 5,#0x0
   2228            uint8 rspStatus = ZDP_SUCCESS;
   \   000023   85..82       MOV     DPL,?XSP + 0
   \   000026   85..83       MOV     DPH,?XSP + 1
   \   000029   7400         MOV     A,#0x0
   \   00002B   F0           MOVX    @DPTR,A
   2229          
   2230            if ( matchED == NULL )
   \   00002C   90....       MOV     DPTR,#matchED
   \   00002F   E0           MOVX    A,@DPTR
   \   000030   F8           MOV     R0,A
   \   000031   A3           INC     DPTR
   \   000032   E0           MOVX    A,@DPTR
   \   000033   F9           MOV     R1,A
   \   000034   E8           MOV     A,R0
   \   000035   49           ORL     A,R1
   \   000036   7005         JNZ     ??ZDMatchSendState_0
   2231              return ( FALSE );
   \   000038   7900         MOV     R1,#0x0
   \   00003A   02....       LJMP    ??ZDMatchSendState_1 & 0xFFFF
   2232          
   2233            // Check sequence number
   2234            if ( reason == ZDMATCH_REASON_BIND_RSP || reason == ZDMATCH_REASON_UNBIND_RSP )
   \                     ??ZDMatchSendState_0:
   \   00003D   7403         MOV     A,#0x3
   \   00003F   65..         XRL     A,?V0 + 2
   \   000041   6006         JZ      ??ZDMatchSendState_2
   \   000043   7402         MOV     A,#0x2
   \   000045   65..         XRL     A,?V0 + 2
   \   000047   701B         JNZ     ??ZDMatchSendState_3
   2235            {
   2236              if ( TransSeq != matchED->transSeq )
   \                     ??ZDMatchSendState_2:
   \   000049   90....       MOV     DPTR,#matchED
   \   00004C   E0           MOVX    A,@DPTR
   \   00004D   F8           MOV     R0,A
   \   00004E   A3           INC     DPTR
   \   00004F   E0           MOVX    A,@DPTR
   \   000050   C8           XCH     A,R0
   \   000051   2430         ADD     A,#0x30
   \   000053   F582         MOV     DPL,A
   \   000055   E8           MOV     A,R0
   \   000056   3400         ADDC    A,#0x0
   \   000058   F583         MOV     DPH,A
   \   00005A   E0           MOVX    A,@DPTR
   \   00005B   65..         XRL     A,?V0 + 7
   \   00005D   6005         JZ      ??ZDMatchSendState_3
   2237                return( FALSE ); // ignore the message
   \   00005F   7900         MOV     R1,#0x0
   \   000061   02....       LJMP    ??ZDMatchSendState_1 & 0xFFFF
   2238            }
   2239          
   2240            // turn off timer
   2241            APS_SetEndDeviceBindTimeout( 0, ZDO_EndDeviceBindMatchTimeoutCB );
   \                     ??ZDMatchSendState_3:
   \   000064                ; Setup parameters for call to function APS_SetEndDeviceBindTimeout
   \   000064   7C..         MOV     R4,#??ZDO_EndDeviceBindMatchTimeoutCB?relay & 0xff
   \   000066   7D..         MOV     R5,#(??ZDO_EndDeviceBindMatchTimeoutCB?relay >> 8) & 0xff
   \   000068   7A00         MOV     R2,#0x0
   \   00006A   7B00         MOV     R3,#0x0
   \   00006C   12....       LCALL   ??APS_SetEndDeviceBindTimeout?relay
   2242          
   2243            if ( reason == ZDMATCH_REASON_TIMEOUT )
   \   00006F   7401         MOV     A,#0x1
   \   000071   65..         XRL     A,?V0 + 2
   \   000073   7009         JNZ     ??ZDMatchSendState_4
   2244            {
   2245              rspStatus = ZDP_TIMEOUT;    // The process will stop
   \   000075   85..82       MOV     DPL,?XSP + 0
   \   000078   85..83       MOV     DPH,?XSP + 1
   \   00007B   7485         MOV     A,#-0x7b
   \   00007D   F0           MOVX    @DPTR,A
   2246            }
   2247          
   2248            if ( reason == ZDMATCH_REASON_START || reason == ZDMATCH_REASON_BIND_RSP )
   \                     ??ZDMatchSendState_4:
   \   00007E   E5..         MOV     A,?V0 + 2
   \   000080   6006         JZ      ??ZDMatchSendState_5
   \   000082   7403         MOV     A,#0x3
   \   000084   65..         XRL     A,?V0 + 2
   \   000086   702B         JNZ     ??ZDMatchSendState_6
   2249            {
   2250              matchED->sending = ZDMATCH_SENDING_UNBIND;
   \                     ??ZDMatchSendState_5:
   \   000088   90....       MOV     DPTR,#matchED
   \   00008B   E0           MOVX    A,@DPTR
   \   00008C   F8           MOV     R0,A
   \   00008D   A3           INC     DPTR
   \   00008E   E0           MOVX    A,@DPTR
   \   00008F   C8           XCH     A,R0
   \   000090   242F         ADD     A,#0x2f
   \   000092   F582         MOV     DPL,A
   \   000094   E8           MOV     A,R0
   \   000095   3400         ADDC    A,#0x0
   \   000097   F583         MOV     DPH,A
   \   000099   7401         MOV     A,#0x1
   \   00009B   F0           MOVX    @DPTR,A
   2251          
   2252              if ( reason == ZDMATCH_REASON_BIND_RSP && status != ZDP_SUCCESS )
   \   00009C   7403         MOV     A,#0x3
   \   00009E   65..         XRL     A,?V0 + 2
   \   0000A0   7045         JNZ     ??ZDMatchSendState_7
   \   0000A2   E5..         MOV     A,?V0 + 6
   \   0000A4   6041         JZ      ??ZDMatchSendState_7
   2253              {
   2254                rspStatus = status;
   \   0000A6   E5..         MOV     A,?V0 + 6
   \   0000A8   85..82       MOV     DPL,?XSP + 0
   \   0000AB   85..83       MOV     DPH,?XSP + 1
   \   0000AE   E5..         MOV     A,?V0 + 6
   \   0000B0   F0           MOVX    @DPTR,A
   \   0000B1   8034         SJMP    ??ZDMatchSendState_7
   2255              }
   2256            }
   2257            else if ( reason == ZDMATCH_REASON_UNBIND_RSP )
   \                     ??ZDMatchSendState_6:
   \   0000B3   7402         MOV     A,#0x2
   \   0000B5   65..         XRL     A,?V0 + 2
   \   0000B7   702E         JNZ     ??ZDMatchSendState_7
   2258            {
   2259              if ( status == ZDP_SUCCESS )
   \   0000B9   E5..         MOV     A,?V0 + 6
   \   0000BB   7016         JNZ     ??ZDMatchSendState_8
   2260              {
   2261                matchED->sending = ZDMATCH_SENDING_UNBIND;
   \   0000BD   90....       MOV     DPTR,#matchED
   \   0000C0   E0           MOVX    A,@DPTR
   \   0000C1   F8           MOV     R0,A
   \   0000C2   A3           INC     DPTR
   \   0000C3   E0           MOVX    A,@DPTR
   \   0000C4   C8           XCH     A,R0
   \   0000C5   242F         ADD     A,#0x2f
   \   0000C7   F582         MOV     DPL,A
   \   0000C9   E8           MOV     A,R0
   \   0000CA   3400         ADDC    A,#0x0
   \   0000CC   F583         MOV     DPH,A
   \   0000CE   7401         MOV     A,#0x1
   \   0000D0   F0           MOVX    @DPTR,A
   \   0000D1   8014         SJMP    ??ZDMatchSendState_7
   2262              }
   2263              else
   2264              {
   2265                matchED->sending = ZDMATCH_SENDING_BIND;
   \                     ??ZDMatchSendState_8:
   \   0000D3   90....       MOV     DPTR,#matchED
   \   0000D6   E0           MOVX    A,@DPTR
   \   0000D7   F8           MOV     R0,A
   \   0000D8   A3           INC     DPTR
   \   0000D9   E0           MOVX    A,@DPTR
   \   0000DA   C8           XCH     A,R0
   \   0000DB   242F         ADD     A,#0x2f
   \   0000DD   F582         MOV     DPL,A
   \   0000DF   E8           MOV     A,R0
   \   0000E0   3400         ADDC    A,#0x0
   \   0000E2   F583         MOV     DPH,A
   \   0000E4   7402         MOV     A,#0x2
   \   0000E6   F0           MOVX    @DPTR,A
   2266              }
   2267            }
   2268          
   2269            if ( reason != ZDMATCH_REASON_START && matchED->sending == ZDMATCH_SENDING_UNBIND )
   \                     ??ZDMatchSendState_7:
   \   0000E7   E5..         MOV     A,?V0 + 2
   \   0000E9   606A         JZ      ??ZDMatchSendState_9
   \   0000EB   90....       MOV     DPTR,#matchED
   \   0000EE   E0           MOVX    A,@DPTR
   \   0000EF   F8           MOV     R0,A
   \   0000F0   A3           INC     DPTR
   \   0000F1   E0           MOVX    A,@DPTR
   \   0000F2   C8           XCH     A,R0
   \   0000F3   242F         ADD     A,#0x2f
   \   0000F5   F582         MOV     DPL,A
   \   0000F7   E8           MOV     A,R0
   \   0000F8   3400         ADDC    A,#0x0
   \   0000FA   F583         MOV     DPH,A
   \   0000FC   E0           MOVX    A,@DPTR
   \   0000FD   6401         XRL     A,#0x1
   \   0000FF   7054         JNZ     ??ZDMatchSendState_9
   2270            {
   2271              // Move to the next cluster ID
   2272              if ( matchED->ed1numMatched )
   \   000101   90....       MOV     DPTR,#matchED
   \   000104   E0           MOVX    A,@DPTR
   \   000105   F8           MOV     R0,A
   \   000106   A3           INC     DPTR
   \   000107   E0           MOVX    A,@DPTR
   \   000108   C8           XCH     A,R0
   \   000109   2431         ADD     A,#0x31
   \   00010B   F582         MOV     DPL,A
   \   00010D   E8           MOV     A,R0
   \   00010E   3400         ADDC    A,#0x0
   \   000110   F583         MOV     DPH,A
   \   000112   E0           MOVX    A,@DPTR
   \   000113   6017         JZ      ??ZDMatchSendState_10
   2273                matchED->ed1numMatched--;
   \   000115   90....       MOV     DPTR,#matchED
   \   000118   E0           MOVX    A,@DPTR
   \   000119   F8           MOV     R0,A
   \   00011A   A3           INC     DPTR
   \   00011B   E0           MOVX    A,@DPTR
   \   00011C   C8           XCH     A,R0
   \   00011D   2431         ADD     A,#0x31
   \   00011F   F582         MOV     DPL,A
   \   000121   E8           MOV     A,R0
   \   000122   3400         ADDC    A,#0x0
   \   000124   F583         MOV     DPH,A
   \   000126   E0           MOVX    A,@DPTR
   \   000127   24FF         ADD     A,#-0x1
   \   000129   F0           MOVX    @DPTR,A
   \   00012A   8029         SJMP    ??ZDMatchSendState_9
   2274              else if ( matchED->ed2numMatched )
   \                     ??ZDMatchSendState_10:
   \   00012C   90....       MOV     DPTR,#matchED
   \   00012F   E0           MOVX    A,@DPTR
   \   000130   F8           MOV     R0,A
   \   000131   A3           INC     DPTR
   \   000132   E0           MOVX    A,@DPTR
   \   000133   C8           XCH     A,R0
   \   000134   2434         ADD     A,#0x34
   \   000136   F582         MOV     DPL,A
   \   000138   E8           MOV     A,R0
   \   000139   3400         ADDC    A,#0x0
   \   00013B   F583         MOV     DPH,A
   \   00013D   E0           MOVX    A,@DPTR
   \   00013E   6015         JZ      ??ZDMatchSendState_9
   2275                matchED->ed2numMatched--;
   \   000140   90....       MOV     DPTR,#matchED
   \   000143   E0           MOVX    A,@DPTR
   \   000144   F8           MOV     R0,A
   \   000145   A3           INC     DPTR
   \   000146   E0           MOVX    A,@DPTR
   \   000147   C8           XCH     A,R0
   \   000148   2434         ADD     A,#0x34
   \   00014A   F582         MOV     DPL,A
   \   00014C   E8           MOV     A,R0
   \   00014D   3400         ADDC    A,#0x0
   \   00014F   F583         MOV     DPH,A
   \   000151   E0           MOVX    A,@DPTR
   \   000152   24FF         ADD     A,#-0x1
   \   000154   F0           MOVX    @DPTR,A
   2276            }
   2277          
   2278            // What message do we send now
   2279            if ( matchED->ed1numMatched )
   \                     ??ZDMatchSendState_9:
   \   000155   90....       MOV     DPTR,#matchED
   \   000158   E0           MOVX    A,@DPTR
   \   000159   F8           MOV     R0,A
   \   00015A   A3           INC     DPTR
   \   00015B   E0           MOVX    A,@DPTR
   \   00015C   C8           XCH     A,R0
   \   00015D   2431         ADD     A,#0x31
   \   00015F   F582         MOV     DPL,A
   \   000161   E8           MOV     A,R0
   \   000162   3400         ADDC    A,#0x0
   \   000164   F583         MOV     DPH,A
   \   000166   E0           MOVX    A,@DPTR
   \   000167   7003         JNZ     $+5
   \   000169   02....       LJMP    ??ZDMatchSendState_11 & 0xFFFF
   2280            {
   2281              ed = &(matchED->ed1);
   \   00016C   90....       MOV     DPTR,#matchED
   \   00016F   E0           MOVX    A,@DPTR
   \   000170   F8           MOV     R0,A
   \   000171   A3           INC     DPTR
   \   000172   E0           MOVX    A,@DPTR
   \   000173   F9           MOV     R1,A
   \   000174   88..         MOV     ?V0 + 4,R0
   \   000176   89..         MOV     ?V0 + 5,R1
   2282              clusterID = matchED->ed1Matched[matchED->ed1numMatched-1];
   \   000178   90....       MOV     DPTR,#matchED
   \   00017B   E0           MOVX    A,@DPTR
   \   00017C   F8           MOV     R0,A
   \   00017D   A3           INC     DPTR
   \   00017E   E0           MOVX    A,@DPTR
   \   00017F   C8           XCH     A,R0
   \   000180   2431         ADD     A,#0x31
   \   000182   F582         MOV     DPL,A
   \   000184   E8           MOV     A,R0
   \   000185   3400         ADDC    A,#0x0
   \   000187   F583         MOV     DPH,A
   \   000189   E0           MOVX    A,@DPTR
   \   00018A   FA           MOV     R2,A
   \   00018B   7B00         MOV     R3,#0x0
   \   00018D   EA           MOV     A,R2
   \   00018E   75F002       MOV     B,#0x2
   \   000191   A4           MUL     AB
   \   000192   CA           XCH     A,R2
   \   000193   A8F0         MOV     R0,B
   \   000195   75F000       MOV     B,#0x0
   \   000198   A4           MUL     AB
   \   000199   28           ADD     A,R0
   \   00019A   F8           MOV     R0,A
   \   00019B   75F002       MOV     B,#0x2
   \   00019E   EB           MOV     A,R3
   \   00019F   A4           MUL     AB
   \   0001A0   28           ADD     A,R0
   \   0001A1   FB           MOV     R3,A
   \   0001A2   90....       MOV     DPTR,#matchED
   \   0001A5   E0           MOVX    A,@DPTR
   \   0001A6   F8           MOV     R0,A
   \   0001A7   A3           INC     DPTR
   \   0001A8   E0           MOVX    A,@DPTR
   \   0001A9   C8           XCH     A,R0
   \   0001AA   2432         ADD     A,#0x32
   \   0001AC   F582         MOV     DPL,A
   \   0001AE   E8           MOV     A,R0
   \   0001AF   3400         ADDC    A,#0x0
   \   0001B1   F583         MOV     DPH,A
   \   0001B3   E0           MOVX    A,@DPTR
   \   0001B4   2A           ADD     A,R2
   \   0001B5   F8           MOV     R0,A
   \   0001B6   A3           INC     DPTR
   \   0001B7   E0           MOVX    A,@DPTR
   \   0001B8   3B           ADDC    A,R3
   \   0001B9   F9           MOV     R1,A
   \   0001BA   E8           MOV     A,R0
   \   0001BB   24FE         ADD     A,#-0x2
   \   0001BD   F582         MOV     DPL,A
   \   0001BF   E9           MOV     A,R1
   \   0001C0   34FF         ADDC    A,#-0x1
   \   0001C2   F583         MOV     DPH,A
   \   0001C4   E0           MOVX    A,@DPTR
   \   0001C5   FE           MOV     R6,A
   \   0001C6   A3           INC     DPTR
   \   0001C7   E0           MOVX    A,@DPTR
   \   0001C8   FF           MOV     R7,A
   2283              dstIEEEAddr = matchED->ed2.ieeeAddr;
   \   0001C9   90....       MOV     DPTR,#matchED
   \   0001CC   E0           MOVX    A,@DPTR
   \   0001CD   241D         ADD     A,#0x1d
   \   0001CF   F8           MOV     R0,A
   \   0001D0   A3           INC     DPTR
   \   0001D1   E0           MOVX    A,@DPTR
   \   0001D2   3400         ADDC    A,#0x0
   \   0001D4   F9           MOV     R1,A
   \   0001D5   88..         MOV     ?V0 + 8,R0
   \   0001D7   89..         MOV     ?V0 + 9,R1
   2284              dstEP = matchED->ed2.endpoint;
   \   0001D9   90....       MOV     DPTR,#matchED
   \   0001DC   E0           MOVX    A,@DPTR
   \   0001DD   F8           MOV     R0,A
   \   0001DE   A3           INC     DPTR
   \   0001DF   E0           MOVX    A,@DPTR
   \   0001E0   C8           XCH     A,R0
   \   0001E1   2425         ADD     A,#0x25
   \   0001E3   F582         MOV     DPL,A
   \   0001E5   E8           MOV     A,R0
   \   0001E6   3400         ADDC    A,#0x0
   \   0001E8   F583         MOV     DPH,A
   \   0001EA   E0           MOVX    A,@DPTR
   \   0001EB   F5..         MOV     ?V0 + 3,A
   \   0001ED   02....       LJMP    ??ZDMatchSendState_12 & 0xFFFF
   2285            }
   2286            else if ( matchED->ed2numMatched )
   \                     ??ZDMatchSendState_11:
   \   0001F0   90....       MOV     DPTR,#matchED
   \   0001F3   E0           MOVX    A,@DPTR
   \   0001F4   F8           MOV     R0,A
   \   0001F5   A3           INC     DPTR
   \   0001F6   E0           MOVX    A,@DPTR
   \   0001F7   C8           XCH     A,R0
   \   0001F8   2434         ADD     A,#0x34
   \   0001FA   F582         MOV     DPL,A
   \   0001FC   E8           MOV     A,R0
   \   0001FD   3400         ADDC    A,#0x0
   \   0001FF   F583         MOV     DPH,A
   \   000201   E0           MOVX    A,@DPTR
   \   000202   7003         JNZ     $+5
   \   000204   02....       LJMP    ??ZDMatchSendState_12 & 0xFFFF
   2287            {
   2288              ed = &(matchED->ed2);
   \   000207   90....       MOV     DPTR,#matchED
   \   00020A   E0           MOVX    A,@DPTR
   \   00020B   2417         ADD     A,#0x17
   \   00020D   F8           MOV     R0,A
   \   00020E   A3           INC     DPTR
   \   00020F   E0           MOVX    A,@DPTR
   \   000210   3400         ADDC    A,#0x0
   \   000212   F9           MOV     R1,A
   \   000213   88..         MOV     ?V0 + 4,R0
   \   000215   89..         MOV     ?V0 + 5,R1
   2289              clusterID = matchED->ed2Matched[matchED->ed2numMatched-1];
   \   000217   90....       MOV     DPTR,#matchED
   \   00021A   E0           MOVX    A,@DPTR
   \   00021B   F8           MOV     R0,A
   \   00021C   A3           INC     DPTR
   \   00021D   E0           MOVX    A,@DPTR
   \   00021E   C8           XCH     A,R0
   \   00021F   2434         ADD     A,#0x34
   \   000221   F582         MOV     DPL,A
   \   000223   E8           MOV     A,R0
   \   000224   3400         ADDC    A,#0x0
   \   000226   F583         MOV     DPH,A
   \   000228   E0           MOVX    A,@DPTR
   \   000229   FA           MOV     R2,A
   \   00022A   7B00         MOV     R3,#0x0
   \   00022C   EA           MOV     A,R2
   \   00022D   75F002       MOV     B,#0x2
   \   000230   A4           MUL     AB
   \   000231   CA           XCH     A,R2
   \   000232   A8F0         MOV     R0,B
   \   000234   75F000       MOV     B,#0x0
   \   000237   A4           MUL     AB
   \   000238   28           ADD     A,R0
   \   000239   F8           MOV     R0,A
   \   00023A   75F002       MOV     B,#0x2
   \   00023D   EB           MOV     A,R3
   \   00023E   A4           MUL     AB
   \   00023F   28           ADD     A,R0
   \   000240   FB           MOV     R3,A
   \   000241   90....       MOV     DPTR,#matchED
   \   000244   E0           MOVX    A,@DPTR
   \   000245   F8           MOV     R0,A
   \   000246   A3           INC     DPTR
   \   000247   E0           MOVX    A,@DPTR
   \   000248   C8           XCH     A,R0
   \   000249   2435         ADD     A,#0x35
   \   00024B   F582         MOV     DPL,A
   \   00024D   E8           MOV     A,R0
   \   00024E   3400         ADDC    A,#0x0
   \   000250   F583         MOV     DPH,A
   \   000252   E0           MOVX    A,@DPTR
   \   000253   2A           ADD     A,R2
   \   000254   F8           MOV     R0,A
   \   000255   A3           INC     DPTR
   \   000256   E0           MOVX    A,@DPTR
   \   000257   3B           ADDC    A,R3
   \   000258   F9           MOV     R1,A
   \   000259   E8           MOV     A,R0
   \   00025A   24FE         ADD     A,#-0x2
   \   00025C   F582         MOV     DPL,A
   \   00025E   E9           MOV     A,R1
   \   00025F   34FF         ADDC    A,#-0x1
   \   000261   F583         MOV     DPH,A
   \   000263   E0           MOVX    A,@DPTR
   \   000264   FE           MOV     R6,A
   \   000265   A3           INC     DPTR
   \   000266   E0           MOVX    A,@DPTR
   \   000267   FF           MOV     R7,A
   2290              dstIEEEAddr = matchED->ed1.ieeeAddr;
   \   000268   90....       MOV     DPTR,#matchED
   \   00026B   E0           MOVX    A,@DPTR
   \   00026C   2406         ADD     A,#0x6
   \   00026E   F8           MOV     R0,A
   \   00026F   A3           INC     DPTR
   \   000270   E0           MOVX    A,@DPTR
   \   000271   3400         ADDC    A,#0x0
   \   000273   F9           MOV     R1,A
   \   000274   88..         MOV     ?V0 + 8,R0
   \   000276   89..         MOV     ?V0 + 9,R1
   2291              dstEP = matchED->ed1.endpoint;
   \   000278   90....       MOV     DPTR,#matchED
   \   00027B   E0           MOVX    A,@DPTR
   \   00027C   F8           MOV     R0,A
   \   00027D   A3           INC     DPTR
   \   00027E   E0           MOVX    A,@DPTR
   \   00027F   C8           XCH     A,R0
   \   000280   240E         ADD     A,#0xe
   \   000282   F582         MOV     DPL,A
   \   000284   E8           MOV     A,R0
   \   000285   3400         ADDC    A,#0x0
   \   000287   F583         MOV     DPH,A
   \   000289   E0           MOVX    A,@DPTR
   \   00028A   F5..         MOV     ?V0 + 3,A
   2292            }
   2293          
   2294            dstAddr.addrMode = Addr16Bit;
   \                     ??ZDMatchSendState_12:
   \   00028C   7409         MOV     A,#0x9
   \   00028E   12....       LCALL   ?XSTACK_DISP0_8
   \   000291   7402         MOV     A,#0x2
   \   000293   F0           MOVX    @DPTR,A
   2295          
   2296            // Send the next message
   2297            if ( rspStatus == ZDP_SUCCESS && ed )
   \   000294   85..82       MOV     DPL,?XSP + 0
   \   000297   85..83       MOV     DPH,?XSP + 1
   \   00029A   E0           MOVX    A,@DPTR
   \   00029B   6003         JZ      $+5
   \   00029D   02....       LJMP    ??ZDMatchSendState_13 & 0xFFFF
   \   0002A0   E5..         MOV     A,?V0 + 4
   \   0002A2   45..         ORL     A,?V0 + 5
   \   0002A4   7003         JNZ     $+5
   \   0002A6   02....       LJMP    ??ZDMatchSendState_13 & 0xFFFF
   2298            {
   2299              // Send unbind/bind message to source
   2300              if ( matchED->sending == ZDMATCH_SENDING_UNBIND )
   \   0002A9   90....       MOV     DPTR,#matchED
   \   0002AC   E0           MOVX    A,@DPTR
   \   0002AD   F8           MOV     R0,A
   \   0002AE   A3           INC     DPTR
   \   0002AF   E0           MOVX    A,@DPTR
   \   0002B0   C8           XCH     A,R0
   \   0002B1   242F         ADD     A,#0x2f
   \   0002B3   F582         MOV     DPL,A
   \   0002B5   E8           MOV     A,R0
   \   0002B6   3400         ADDC    A,#0x0
   \   0002B8   F583         MOV     DPH,A
   \   0002BA   E0           MOVX    A,@DPTR
   \   0002BB   6401         XRL     A,#0x1
   \   0002BD   7008         JNZ     ??ZDMatchSendState_14
   2301                msgType = Unbind_req;
   \   0002BF   75..22       MOV     ?V0 + 0,#0x22
   \   0002C2   75..00       MOV     ?V0 + 1,#0x0
   \   0002C5   8006         SJMP    ??ZDMatchSendState_15
   2302              else
   2303                msgType = Bind_req;
   \                     ??ZDMatchSendState_14:
   \   0002C7   75..21       MOV     ?V0 + 0,#0x21
   \   0002CA   75..00       MOV     ?V0 + 1,#0x0
   2304          
   2305              dstAddr.addr.shortAddr = ed->srcAddr;
   \                     ??ZDMatchSendState_15:
   \   0002CD   85..82       MOV     DPL,?V0 + 4
   \   0002D0   85..83       MOV     DPH,?V0 + 5
   \   0002D3   A3           INC     DPTR
   \   0002D4   A3           INC     DPTR
   \   0002D5   E0           MOVX    A,@DPTR
   \   0002D6   F8           MOV     R0,A
   \   0002D7   A3           INC     DPTR
   \   0002D8   E0           MOVX    A,@DPTR
   \   0002D9   F9           MOV     R1,A
   \   0002DA   7401         MOV     A,#0x1
   \   0002DC   12....       LCALL   ?XSTACK_DISP0_8
   \   0002DF   E8           MOV     A,R0
   \   0002E0   F0           MOVX    @DPTR,A
   \   0002E1   A3           INC     DPTR
   \   0002E2   E9           MOV     A,R1
   \   0002E3   F0           MOVX    @DPTR,A
   2306          
   2307              // Save off the transaction sequence number
   2308              matchED->transSeq = ZDP_TransID;
   \   0002E4   90....       MOV     DPTR,#ZDP_TransID
   \   0002E7   E0           MOVX    A,@DPTR
   \   0002E8   C0E0         PUSH    A
   \   0002EA   90....       MOV     DPTR,#matchED
   \   0002ED   E0           MOVX    A,@DPTR
   \   0002EE   F8           MOV     R0,A
   \   0002EF   A3           INC     DPTR
   \   0002F0   E0           MOVX    A,@DPTR
   \   0002F1   C8           XCH     A,R0
   \   0002F2   2430         ADD     A,#0x30
   \   0002F4   F582         MOV     DPL,A
   \   0002F6   E8           MOV     A,R0
   \   0002F7   3400         ADDC    A,#0x0
   \   0002F9   F583         MOV     DPH,A
   \   0002FB   D0E0         POP     A
   \   0002FD   F0           MOVX    @DPTR,A
   2309          
   2310              destinationAddr.addrMode = Addr64Bit;
   \   0002FE   7412         MOV     A,#0x12
   \   000300   12....       LCALL   ?XSTACK_DISP0_8
   \   000303   7403         MOV     A,#0x3
   \   000305   F0           MOVX    @DPTR,A
   2311              osal_cpyExtAddr( destinationAddr.addr.extAddr, dstIEEEAddr );
   \   000306                ; Setup parameters for call to function sAddrExtCpy
   \   000306   AC..         MOV     R4,?V0 + 8
   \   000308   AD..         MOV     R5,?V0 + 9
   \   00030A   740A         MOV     A,#0xa
   \   00030C   12....       LCALL   ?XSTACK_DISP0_8
   \   00030F   AA82         MOV     R2,DPL
   \   000311   AB83         MOV     R3,DPH
   \   000313   12....       LCALL   ??sAddrExtCpy?relay
   2312          
   2313              ZDP_BindUnbindReq( msgType, &dstAddr, ed->ieeeAddr, ed->endpoint, clusterID,
   2314                  &destinationAddr, dstEP, ed->SecurityUse );
   \   000316                ; Setup parameters for call to function ZDP_BindUnbindReq
   \   000316   85..82       MOV     DPL,?V0 + 4
   \   000319   85..83       MOV     DPH,?V0 + 5
   \   00031C   A3           INC     DPTR
   \   00031D   E0           MOVX    A,@DPTR
   \   00031E   F5..         MOV     ?V0 + 10,A
   \   000320   78..         MOV     R0,#?V0 + 10
   \   000322   12....       LCALL   ?PUSH_XSTACK_I_ONE
   \   000325   E5..         MOV     A,?V0 + 3
   \   000327   F5..         MOV     ?V0 + 10,A
   \   000329   78..         MOV     R0,#?V0 + 10
   \   00032B   12....       LCALL   ?PUSH_XSTACK_I_ONE
   \   00032E   740C         MOV     A,#0xc
   \   000330   12....       LCALL   ?XSTACK_DISP0_8
   \   000333   8582..       MOV     ?V0 + 10,DPL
   \   000336   8583..       MOV     ?V0 + 11,DPH
   \   000339   78..         MOV     R0,#?V0 + 10
   \   00033B   12....       LCALL   ?PUSH_XSTACK_I_TWO
   \   00033E   8E..         MOV     ?V0 + 10,R6
   \   000340   8F..         MOV     ?V0 + 11,R7
   \   000342   78..         MOV     R0,#?V0 + 10
   \   000344   12....       LCALL   ?PUSH_XSTACK_I_TWO
   \   000347   E5..         MOV     A,?V0 + 4
   \   000349   2406         ADD     A,#0x6
   \   00034B   F5..         MOV     ?V0 + 10,A
   \   00034D   E5..         MOV     A,?V0 + 5
   \   00034F   3400         ADDC    A,#0x0
   \   000351   F5..         MOV     ?V0 + 11,A
   \   000353   78..         MOV     R0,#?V0 + 10
   \   000355   12....       LCALL   ?PUSH_XSTACK_I_TWO
   \   000358   E5..         MOV     A,?V0 + 4
   \   00035A   240E         ADD     A,#0xe
   \   00035C   F582         MOV     DPL,A
   \   00035E   E5..         MOV     A,?V0 + 5
   \   000360   3400         ADDC    A,#0x0
   \   000362   F583         MOV     DPH,A
   \   000364   E0           MOVX    A,@DPTR
   \   000365   F9           MOV     R1,A
   \   000366   7409         MOV     A,#0x9
   \   000368   12....       LCALL   ?XSTACK_DISP0_8
   \   00036B   AC82         MOV     R4,DPL
   \   00036D   AD83         MOV     R5,DPH
   \   00036F   AA..         MOV     R2,?V0 + 0
   \   000371   AB..         MOV     R3,?V0 + 1
   \   000373   12....       LCALL   ??ZDP_BindUnbindReq?relay
   \   000376   7408         MOV     A,#0x8
   \   000378   12....       LCALL   ?DEALLOC_XSTACK8
   \   00037B   E9           MOV     A,R1
   2315          
   2316              // Set timeout for response
   2317              APS_SetEndDeviceBindTimeout( AIB_MaxBindingTime, ZDO_EndDeviceBindMatchTimeoutCB );
   \   00037C                ; Setup parameters for call to function APS_SetEndDeviceBindTimeout
   \   00037C   7C..         MOV     R4,#??ZDO_EndDeviceBindMatchTimeoutCB?relay & 0xff
   \   00037E   7D..         MOV     R5,#(??ZDO_EndDeviceBindMatchTimeoutCB?relay >> 8) & 0xff
   \   000380   90....       MOV     DPTR,#AIB_MaxBindingTime
   \   000383   E0           MOVX    A,@DPTR
   \   000384   FA           MOV     R2,A
   \   000385   A3           INC     DPTR
   \   000386   E0           MOVX    A,@DPTR
   \   000387   FB           MOV     R3,A
   \   000388   12....       LCALL   ??APS_SetEndDeviceBindTimeout?relay
   \   00038B   02....       LJMP    ??ZDMatchSendState_16 & 0xFFFF
   2318            }
   2319            else
   2320            {
   2321              // Send the response messages to requesting devices
   2322              // send response to first requester
   2323              dstAddr.addr.shortAddr = matchED->ed1.srcAddr;
   \                     ??ZDMatchSendState_13:
   \   00038E   90....       MOV     DPTR,#matchED
   \   000391   E0           MOVX    A,@DPTR
   \   000392   F8           MOV     R0,A
   \   000393   A3           INC     DPTR
   \   000394   E0           MOVX    A,@DPTR
   \   000395   F583         MOV     DPH,A
   \   000397   8882         MOV     DPL,R0
   \   000399   A3           INC     DPTR
   \   00039A   A3           INC     DPTR
   \   00039B   E0           MOVX    A,@DPTR
   \   00039C   F8           MOV     R0,A
   \   00039D   A3           INC     DPTR
   \   00039E   E0           MOVX    A,@DPTR
   \   00039F   F9           MOV     R1,A
   \   0003A0   7401         MOV     A,#0x1
   \   0003A2   12....       LCALL   ?XSTACK_DISP0_8
   \   0003A5   E8           MOV     A,R0
   \   0003A6   F0           MOVX    @DPTR,A
   \   0003A7   A3           INC     DPTR
   \   0003A8   E9           MOV     A,R1
   \   0003A9   F0           MOVX    @DPTR,A
   2324              ZDP_EndDeviceBindRsp( matchED->ed1.TransSeq, &dstAddr, rspStatus, matchED->ed1.SecurityUse );
   \   0003AA                ; Setup parameters for call to function ZDP_SendData
   \   0003AA   90....       MOV     DPTR,#matchED
   \   0003AD   E0           MOVX    A,@DPTR
   \   0003AE   F8           MOV     R0,A
   \   0003AF   A3           INC     DPTR
   \   0003B0   E0           MOVX    A,@DPTR
   \   0003B1   F583         MOV     DPH,A
   \   0003B3   8882         MOV     DPL,R0
   \   0003B5   A3           INC     DPTR
   \   0003B6   E0           MOVX    A,@DPTR
   \   0003B7   F5..         MOV     ?V0 + 10,A
   \   0003B9   78..         MOV     R0,#?V0 + 10
   \   0003BB   12....       LCALL   ?PUSH_XSTACK_I_ONE
   \   0003BE   7401         MOV     A,#0x1
   \   0003C0   12....       LCALL   ?XSTACK_DISP0_8
   \   0003C3   8582..       MOV     ?V0 + 10,DPL
   \   0003C6   8583..       MOV     ?V0 + 11,DPH
   \   0003C9   78..         MOV     R0,#?V0 + 10
   \   0003CB   12....       LCALL   ?PUSH_XSTACK_I_TWO
   \   0003CE   75..20       MOV     ?V0 + 10,#0x20
   \   0003D1   75..80       MOV     ?V0 + 11,#-0x80
   \   0003D4   78..         MOV     R0,#?V0 + 10
   \   0003D6   12....       LCALL   ?PUSH_XSTACK_I_TWO
   \   0003D9   7901         MOV     R1,#0x1
   \   0003DB   7406         MOV     A,#0x6
   \   0003DD   12....       LCALL   ?XSTACK_DISP0_8
   \   0003E0   AC82         MOV     R4,DPL
   \   0003E2   AD83         MOV     R5,DPH
   \   0003E4   90....       MOV     DPTR,#matchED
   \   0003E7   E0           MOVX    A,@DPTR
   \   0003E8   FA           MOV     R2,A
   \   0003E9   A3           INC     DPTR
   \   0003EA   E0           MOVX    A,@DPTR
   \   0003EB   FB           MOV     R3,A
   \   0003EC   12....       LCALL   ??ZDP_SendData?relay
   \   0003EF   7405         MOV     A,#0x5
   \   0003F1   12....       LCALL   ?DEALLOC_XSTACK8
   \   0003F4   E9           MOV     A,R1
   2325          
   2326              // send response to second requester
   2327              if ( matchED->state == ZDMATCH_SENDING_BINDS )
   \   0003F5   90....       MOV     DPTR,#matchED
   \   0003F8   E0           MOVX    A,@DPTR
   \   0003F9   F8           MOV     R0,A
   \   0003FA   A3           INC     DPTR
   \   0003FB   E0           MOVX    A,@DPTR
   \   0003FC   C8           XCH     A,R0
   \   0003FD   242E         ADD     A,#0x2e
   \   0003FF   F582         MOV     DPL,A
   \   000401   E8           MOV     A,R0
   \   000402   3400         ADDC    A,#0x0
   \   000404   F583         MOV     DPH,A
   \   000406   E0           MOVX    A,@DPTR
   \   000407   6402         XRL     A,#0x2
   \   000409   7074         JNZ     ??ZDMatchSendState_17
   2328              {
   2329                dstAddr.addr.shortAddr = matchED->ed2.srcAddr;
   \   00040B   90....       MOV     DPTR,#matchED
   \   00040E   E0           MOVX    A,@DPTR
   \   00040F   F8           MOV     R0,A
   \   000410   A3           INC     DPTR
   \   000411   E0           MOVX    A,@DPTR
   \   000412   C8           XCH     A,R0
   \   000413   2419         ADD     A,#0x19
   \   000415   F582         MOV     DPL,A
   \   000417   E8           MOV     A,R0
   \   000418   3400         ADDC    A,#0x0
   \   00041A   F583         MOV     DPH,A
   \   00041C   E0           MOVX    A,@DPTR
   \   00041D   F8           MOV     R0,A
   \   00041E   A3           INC     DPTR
   \   00041F   E0           MOVX    A,@DPTR
   \   000420   F9           MOV     R1,A
   \   000421   7401         MOV     A,#0x1
   \   000423   12....       LCALL   ?XSTACK_DISP0_8
   \   000426   E8           MOV     A,R0
   \   000427   F0           MOVX    @DPTR,A
   \   000428   A3           INC     DPTR
   \   000429   E9           MOV     A,R1
   \   00042A   F0           MOVX    @DPTR,A
   2330                ZDP_EndDeviceBindRsp( matchED->ed2.TransSeq, &dstAddr, rspStatus, matchED->ed2.SecurityUse );
   \   00042B                ; Setup parameters for call to function ZDP_SendData
   \   00042B   90....       MOV     DPTR,#matchED
   \   00042E   E0           MOVX    A,@DPTR
   \   00042F   F8           MOV     R0,A
   \   000430   A3           INC     DPTR
   \   000431   E0           MOVX    A,@DPTR
   \   000432   C8           XCH     A,R0
   \   000433   2418         ADD     A,#0x18
   \   000435   F582         MOV     DPL,A
   \   000437   E8           MOV     A,R0
   \   000438   3400         ADDC    A,#0x0
   \   00043A   F583         MOV     DPH,A
   \   00043C   E0           MOVX    A,@DPTR
   \   00043D   F5..         MOV     ?V0 + 10,A
   \   00043F   78..         MOV     R0,#?V0 + 10
   \   000441   12....       LCALL   ?PUSH_XSTACK_I_ONE
   \   000444   7401         MOV     A,#0x1
   \   000446   12....       LCALL   ?XSTACK_DISP0_8
   \   000449   8582..       MOV     ?V0 + 10,DPL
   \   00044C   8583..       MOV     ?V0 + 11,DPH
   \   00044F   78..         MOV     R0,#?V0 + 10
   \   000451   12....       LCALL   ?PUSH_XSTACK_I_TWO
   \   000454   75..20       MOV     ?V0 + 10,#0x20
   \   000457   75..80       MOV     ?V0 + 11,#-0x80
   \   00045A   78..         MOV     R0,#?V0 + 10
   \   00045C   12....       LCALL   ?PUSH_XSTACK_I_TWO
   \   00045F   7901         MOV     R1,#0x1
   \   000461   7406         MOV     A,#0x6
   \   000463   12....       LCALL   ?XSTACK_DISP0_8
   \   000466   AC82         MOV     R4,DPL
   \   000468   AD83         MOV     R5,DPH
   \   00046A   90....       MOV     DPTR,#matchED
   \   00046D   E0           MOVX    A,@DPTR
   \   00046E   2417         ADD     A,#0x17
   \   000470   FA           MOV     R2,A
   \   000471   A3           INC     DPTR
   \   000472   E0           MOVX    A,@DPTR
   \   000473   3400         ADDC    A,#0x0
   \   000475   FB           MOV     R3,A
   \   000476   12....       LCALL   ??ZDP_SendData?relay
   \   000479   7405         MOV     A,#0x5
   \   00047B   12....       LCALL   ?DEALLOC_XSTACK8
   \   00047E   E9           MOV     A,R1
   2331              }
   2332          
   2333              // Process ended - release memory used
   2334              ZDO_RemoveMatchMemory();
   \                     ??ZDMatchSendState_17:
   \   00047F                ; Setup parameters for call to function ZDO_RemoveMatchMemory
   \   00047F   12....       LCALL   ??ZDO_RemoveMatchMemory?relay
   2335            }
   2336          
   2337            return ( TRUE );
   \                     ??ZDMatchSendState_16:
   \   000482   7901         MOV     R1,#0x1
   \                     ??ZDMatchSendState_1:
   \   000484   7413         MOV     A,#0x13
   \   000486   12....       LCALL   ?DEALLOC_XSTACK8
   \   000489   7F0C         MOV     R7,#0xc
   \   00048B   02....       LJMP    ?BANKED_LEAVE_XDATA
   2338          }
   2339          
   2340          /*********************************************************************
   2341           * @fn      ZDO_EndDeviceBindMatchTimeoutCB()
   2342           *
   2343           * @brief   End device bind timeout.
   2344           *
   2345           * @param  none
   2346           *
   2347           * @return  none
   2348           */

   \                                 In  segment BANKED_CODE, align 1, keep-with-next
   2349          static void ZDO_EndDeviceBindMatchTimeoutCB( void )
   \                     ZDO_EndDeviceBindMatchTimeoutCB:
   2350          {
   \   000000   C082         PUSH    DPL
   \   000002   C083         PUSH    DPH
   \   000004                ; Saved register size: 2
   \   000004                ; Auto size: 0
   2351            ZDMatchSendState( ZDMATCH_REASON_TIMEOUT, ZDP_TIMEOUT, 0 );
   \   000004                ; Setup parameters for call to function ZDMatchSendState
   \   000004   7B00         MOV     R3,#0x0
   \   000006   7A85         MOV     R2,#-0x7b
   \   000008   7901         MOV     R1,#0x1
   \   00000A   12....       LCALL   ??ZDMatchSendState?relay
   \   00000D   E9           MOV     A,R1
   2352          }
   \   00000E   D083         POP     DPH
   \   000010   D082         POP     DPL
   \   000012   02....       LJMP    ?BRET
   2353          
   2354          /*********************************************************************
   2355           * ZDO MESSAGE PARSING API FUNCTIONS
   2356           */
   2357          
   2358          /*********************************************************************
   2359           * @fn          ZDO_ParseEndDeviceBindReq
   2360           *
   2361           * @brief       This function parses the End_Device_Bind_req message.
   2362           *
   2363           *     NOTE:  The clusters lists in bindReq are allocated in this
   2364           *            function and must be freed by that calling function.
   2365           *
   2366           * @param       inMsg  - incoming message (request)
   2367           * @param       bindReq - pointer to place to parse message to
   2368           *
   2369           * @return      none
   2370           */

   \                                 In  segment BANKED_CODE, align 1, keep-with-next
   2371          void ZDO_ParseEndDeviceBindReq( zdoIncomingMsg_t *inMsg, ZDEndDeviceBind_t *bindReq )
   \                     ZDO_ParseEndDeviceBindReq:
   2372          {
   \   000000   74F2         MOV     A,#-0xe
   \   000002   12....       LCALL   ?BANKED_ENTER_XDATA
   \   000005                ; Saved register size: 14
   \   000005                ; Auto size: 0
   \   000005   8A..         MOV     ?V0 + 2,R2
   \   000007   8B..         MOV     ?V0 + 3,R3
   \   000009   8C..         MOV     ?V0 + 0,R4
   \   00000B   8D..         MOV     ?V0 + 1,R5
   2373            uint8 *msg;
   2374          
   2375            // Parse the message
   2376            bindReq->TransSeq = inMsg->TransSeq;
   \   00000D   E5..         MOV     A,?V0 + 2
   \   00000F   240F         ADD     A,#0xf
   \   000011   F582         MOV     DPL,A
   \   000013   E5..         MOV     A,?V0 + 3
   \   000015   3400         ADDC    A,#0x0
   \   000017   F583         MOV     DPH,A
   \   000019   E0           MOVX    A,@DPTR
   \   00001A   85..82       MOV     DPL,?V0 + 0
   \   00001D   85..83       MOV     DPH,?V0 + 1
   \   000020   F0           MOVX    @DPTR,A
   2377            bindReq->srcAddr = inMsg->srcAddr.addr.shortAddr;
   \   000021   85..82       MOV     DPL,?V0 + 2
   \   000024   85..83       MOV     DPH,?V0 + 3
   \   000027   A3           INC     DPTR
   \   000028   A3           INC     DPTR
   \   000029   E0           MOVX    A,@DPTR
   \   00002A   F8           MOV     R0,A
   \   00002B   A3           INC     DPTR
   \   00002C   E0           MOVX    A,@DPTR
   \   00002D   F9           MOV     R1,A
   \   00002E   85..82       MOV     DPL,?V0 + 0
   \   000031   85..83       MOV     DPH,?V0 + 1
   \   000034   A3           INC     DPTR
   \   000035   A3           INC     DPTR
   \   000036   E8           MOV     A,R0
   \   000037   F0           MOVX    @DPTR,A
   \   000038   A3           INC     DPTR
   \   000039   E9           MOV     A,R1
   \   00003A   F0           MOVX    @DPTR,A
   2378            bindReq->SecurityUse = inMsg->SecurityUse;
   \   00003B   E5..         MOV     A,?V0 + 2
   \   00003D   240E         ADD     A,#0xe
   \   00003F   F582         MOV     DPL,A
   \   000041   E5..         MOV     A,?V0 + 3
   \   000043   3400         ADDC    A,#0x0
   \   000045   F583         MOV     DPH,A
   \   000047   E0           MOVX    A,@DPTR
   \   000048   85..82       MOV     DPL,?V0 + 0
   \   00004B   85..83       MOV     DPH,?V0 + 1
   \   00004E   A3           INC     DPTR
   \   00004F   F0           MOVX    @DPTR,A
   2379            msg = inMsg->asdu;
   \   000050   E5..         MOV     A,?V0 + 2
   \   000052   2413         ADD     A,#0x13
   \   000054   F582         MOV     DPL,A
   \   000056   E5..         MOV     A,?V0 + 3
   \   000058   3400         ADDC    A,#0x0
   \   00005A   F583         MOV     DPH,A
   \   00005C   E0           MOVX    A,@DPTR
   \   00005D   F8           MOV     R0,A
   \   00005E   A3           INC     DPTR
   \   00005F   E0           MOVX    A,@DPTR
   \   000060   F9           MOV     R1,A
   \   000061   E8           MOV     A,R0
   \   000062   FE           MOV     R6,A
   \   000063   E9           MOV     A,R1
   \   000064   FF           MOV     R7,A
   2380          
   2381            bindReq->localCoordinator = BUILD_UINT16( msg[0], msg[1] );
   \   000065   8E82         MOV     DPL,R6
   \   000067   8F83         MOV     DPH,R7
   \   000069   E0           MOVX    A,@DPTR
   \   00006A   FA           MOV     R2,A
   \   00006B   7B00         MOV     R3,#0x0
   \   00006D   8E82         MOV     DPL,R6
   \   00006F   8F83         MOV     DPH,R7
   \   000071   A3           INC     DPTR
   \   000072   E0           MOVX    A,@DPTR
   \   000073   F8           MOV     R0,A
   \   000074   7900         MOV     R1,#0x0
   \   000076   E4           CLR     A
   \   000077   C8           XCH     A,R0
   \   000078   F9           MOV     R1,A
   \   000079   EA           MOV     A,R2
   \   00007A   28           ADD     A,R0
   \   00007B   F8           MOV     R0,A
   \   00007C   EB           MOV     A,R3
   \   00007D   39           ADDC    A,R1
   \   00007E   F9           MOV     R1,A
   \   00007F   85..82       MOV     DPL,?V0 + 0
   \   000082   85..83       MOV     DPH,?V0 + 1
   \   000085   A3           INC     DPTR
   \   000086   A3           INC     DPTR
   \   000087   A3           INC     DPTR
   \   000088   A3           INC     DPTR
   \   000089   E8           MOV     A,R0
   \   00008A   F0           MOVX    @DPTR,A
   \   00008B   A3           INC     DPTR
   \   00008C   E9           MOV     A,R1
   \   00008D   F0           MOVX    @DPTR,A
   2382            msg += 2;
   \   00008E   EE           MOV     A,R6
   \   00008F   2402         ADD     A,#0x2
   \   000091   FE           MOV     R6,A
   \   000092   EF           MOV     A,R7
   \   000093   3400         ADDC    A,#0x0
   \   000095   FF           MOV     R7,A
   2383          
   2384            osal_cpyExtAddr( bindReq->ieeeAddr, msg );
   \   000096                ; Setup parameters for call to function sAddrExtCpy
   \   000096   EE           MOV     A,R6
   \   000097   FC           MOV     R4,A
   \   000098   EF           MOV     A,R7
   \   000099   FD           MOV     R5,A
   \   00009A   E5..         MOV     A,?V0 + 0
   \   00009C   2406         ADD     A,#0x6
   \   00009E   FA           MOV     R2,A
   \   00009F   E5..         MOV     A,?V0 + 1
   \   0000A1   3400         ADDC    A,#0x0
   \   0000A3   FB           MOV     R3,A
   \   0000A4   12....       LCALL   ??sAddrExtCpy?relay
   2385            msg += Z_EXTADDR_LEN;
   \   0000A7   EE           MOV     A,R6
   \   0000A8   2408         ADD     A,#0x8
   \   0000AA   FE           MOV     R6,A
   \   0000AB   EF           MOV     A,R7
   \   0000AC   3400         ADDC    A,#0x0
   \   0000AE   FF           MOV     R7,A
   2386          
   2387            bindReq->endpoint = *msg++;
   \   0000AF   8E82         MOV     DPL,R6
   \   0000B1   8F83         MOV     DPH,R7
   \   0000B3   E0           MOVX    A,@DPTR
   \   0000B4   C0E0         PUSH    A
   \   0000B6   E5..         MOV     A,?V0 + 0
   \   0000B8   240E         ADD     A,#0xe
   \   0000BA   F582         MOV     DPL,A
   \   0000BC   E5..         MOV     A,?V0 + 1
   \   0000BE   3400         ADDC    A,#0x0
   \   0000C0   F583         MOV     DPH,A
   \   0000C2   D0E0         POP     A
   \   0000C4   F0           MOVX    @DPTR,A
   \   0000C5   8E82         MOV     DPL,R6
   \   0000C7   8F83         MOV     DPH,R7
   \   0000C9   A3           INC     DPTR
   \   0000CA   AE82         MOV     R6,DPL
   \   0000CC   AF83         MOV     R7,DPH
   2388            bindReq->profileID = BUILD_UINT16( msg[0], msg[1] );
   \   0000CE   8E82         MOV     DPL,R6
   \   0000D0   8F83         MOV     DPH,R7
   \   0000D2   E0           MOVX    A,@DPTR
   \   0000D3   FA           MOV     R2,A
   \   0000D4   7B00         MOV     R3,#0x0
   \   0000D6   8E82         MOV     DPL,R6
   \   0000D8   8F83         MOV     DPH,R7
   \   0000DA   A3           INC     DPTR
   \   0000DB   E0           MOVX    A,@DPTR
   \   0000DC   F8           MOV     R0,A
   \   0000DD   7900         MOV     R1,#0x0
   \   0000DF   E4           CLR     A
   \   0000E0   C8           XCH     A,R0
   \   0000E1   F9           MOV     R1,A
   \   0000E2   EA           MOV     A,R2
   \   0000E3   28           ADD     A,R0
   \   0000E4   F8           MOV     R0,A
   \   0000E5   EB           MOV     A,R3
   \   0000E6   39           ADDC    A,R1
   \   0000E7   F9           MOV     R1,A
   \   0000E8   E5..         MOV     A,?V0 + 0
   \   0000EA   240F         ADD     A,#0xf
   \   0000EC   F582         MOV     DPL,A
   \   0000EE   E5..         MOV     A,?V0 + 1
   \   0000F0   3400         ADDC    A,#0x0
   \   0000F2   F583         MOV     DPH,A
   \   0000F4   E8           MOV     A,R0
   \   0000F5   F0           MOVX    @DPTR,A
   \   0000F6   A3           INC     DPTR
   \   0000F7   E9           MOV     A,R1
   \   0000F8   F0           MOVX    @DPTR,A
   2389            msg += 2;
   \   0000F9   EE           MOV     A,R6
   \   0000FA   2402         ADD     A,#0x2
   \   0000FC   FE           MOV     R6,A
   \   0000FD   EF           MOV     A,R7
   \   0000FE   3400         ADDC    A,#0x0
   \   000100   FF           MOV     R7,A
   2390          
   2391            bindReq->inClusters = NULL;
   \   000101   E5..         MOV     A,?V0 + 0
   \   000103   2412         ADD     A,#0x12
   \   000105   F582         MOV     DPL,A
   \   000107   E5..         MOV     A,?V0 + 1
   \   000109   3400         ADDC    A,#0x0
   \   00010B   F583         MOV     DPH,A
   \   00010D   7400         MOV     A,#0x0
   \   00010F   F0           MOVX    @DPTR,A
   \   000110   A3           INC     DPTR
   \   000111   7400         MOV     A,#0x0
   \   000113   F0           MOVX    @DPTR,A
   2392            bindReq->outClusters = NULL;
   \   000114   E5..         MOV     A,?V0 + 0
   \   000116   2415         ADD     A,#0x15
   \   000118   F582         MOV     DPL,A
   \   00011A   E5..         MOV     A,?V0 + 1
   \   00011C   3400         ADDC    A,#0x0
   \   00011E   F583         MOV     DPH,A
   \   000120   7400         MOV     A,#0x0
   \   000122   F0           MOVX    @DPTR,A
   \   000123   A3           INC     DPTR
   \   000124   7400         MOV     A,#0x0
   \   000126   F0           MOVX    @DPTR,A
   2393          
   2394            if ((bindReq->numInClusters = *msg++) &&
   2395                (bindReq->inClusters = (uint16*)osal_mem_alloc( (bindReq->numInClusters * sizeof( uint16 )))))
   \   000127   8E82         MOV     DPL,R6
   \   000129   8F83         MOV     DPH,R7
   \   00012B   E0           MOVX    A,@DPTR
   \   00012C   F8           MOV     R0,A
   \   00012D   8E82         MOV     DPL,R6
   \   00012F   8F83         MOV     DPH,R7
   \   000131   A3           INC     DPTR
   \   000132   AE82         MOV     R6,DPL
   \   000134   AF83         MOV     R7,DPH
   \   000136   E8           MOV     A,R0
   \   000137   C0E0         PUSH    A
   \   000139   E5..         MOV     A,?V0 + 0
   \   00013B   2411         ADD     A,#0x11
   \   00013D   F582         MOV     DPL,A
   \   00013F   E5..         MOV     A,?V0 + 1
   \   000141   3400         ADDC    A,#0x0
   \   000143   F583         MOV     DPH,A
   \   000145   D0E0         POP     A
   \   000147   F0           MOVX    @DPTR,A
   \   000148   E8           MOV     A,R0
   \   000149   6075         JZ      ??ZDO_ParseEndDeviceBindReq_0
   \   00014B                ; Setup parameters for call to function osal_mem_alloc
   \   00014B   E5..         MOV     A,?V0 + 0
   \   00014D   2411         ADD     A,#0x11
   \   00014F   F582         MOV     DPL,A
   \   000151   E5..         MOV     A,?V0 + 1
   \   000153   3400         ADDC    A,#0x0
   \   000155   F583         MOV     DPH,A
   \   000157   E0           MOVX    A,@DPTR
   \   000158   FA           MOV     R2,A
   \   000159   7B00         MOV     R3,#0x0
   \   00015B   EA           MOV     A,R2
   \   00015C   75F002       MOV     B,#0x2
   \   00015F   A4           MUL     AB
   \   000160   CA           XCH     A,R2
   \   000161   A8F0         MOV     R0,B
   \   000163   75F000       MOV     B,#0x0
   \   000166   A4           MUL     AB
   \   000167   28           ADD     A,R0
   \   000168   F8           MOV     R0,A
   \   000169   75F002       MOV     B,#0x2
   \   00016C   EB           MOV     A,R3
   \   00016D   A4           MUL     AB
   \   00016E   28           ADD     A,R0
   \   00016F   FB           MOV     R3,A
   \   000170   12....       LCALL   ??osal_mem_alloc?relay
   \   000173   8A..         MOV     ?V0 + 4,R2
   \   000175   8B..         MOV     ?V0 + 5,R3
   \   000177   A8..         MOV     R0,?V0 + 4
   \   000179   A9..         MOV     R1,?V0 + 5
   \   00017B   E5..         MOV     A,?V0 + 0
   \   00017D   2412         ADD     A,#0x12
   \   00017F   F582         MOV     DPL,A
   \   000181   E5..         MOV     A,?V0 + 1
   \   000183   3400         ADDC    A,#0x0
   \   000185   F583         MOV     DPH,A
   \   000187   E8           MOV     A,R0
   \   000188   F0           MOVX    @DPTR,A
   \   000189   A3           INC     DPTR
   \   00018A   E9           MOV     A,R1
   \   00018B   F0           MOVX    @DPTR,A
   \   00018C   E8           MOV     A,R0
   \   00018D   49           ORL     A,R1
   \   00018E   6030         JZ      ??ZDO_ParseEndDeviceBindReq_0
   2396            {
   2397              msg = ZDO_ConvertOTAClusters( bindReq->numInClusters, msg, bindReq->inClusters );
   \   000190                ; Setup parameters for call to function ZDO_ConvertOTAClusters
   \   000190   E5..         MOV     A,?V0 + 0
   \   000192   2412         ADD     A,#0x12
   \   000194   F582         MOV     DPL,A
   \   000196   E5..         MOV     A,?V0 + 1
   \   000198   3400         ADDC    A,#0x0
   \   00019A   F583         MOV     DPH,A
   \   00019C   E0           MOVX    A,@DPTR
   \   00019D   FC           MOV     R4,A
   \   00019E   A3           INC     DPTR
   \   00019F   E0           MOVX    A,@DPTR
   \   0001A0   FD           MOV     R5,A
   \   0001A1   EE           MOV     A,R6
   \   0001A2   FA           MOV     R2,A
   \   0001A3   EF           MOV     A,R7
   \   0001A4   FB           MOV     R3,A
   \   0001A5   E5..         MOV     A,?V0 + 0
   \   0001A7   2411         ADD     A,#0x11
   \   0001A9   F582         MOV     DPL,A
   \   0001AB   E5..         MOV     A,?V0 + 1
   \   0001AD   3400         ADDC    A,#0x0
   \   0001AF   F583         MOV     DPH,A
   \   0001B1   E0           MOVX    A,@DPTR
   \   0001B2   F9           MOV     R1,A
   \   0001B3   12....       LCALL   ??ZDO_ConvertOTAClusters?relay
   \   0001B6   8A..         MOV     ?V0 + 4,R2
   \   0001B8   8B..         MOV     ?V0 + 5,R3
   \   0001BA   AE..         MOV     R6,?V0 + 4
   \   0001BC   AF..         MOV     R7,?V0 + 5
   \   0001BE   800F         SJMP    ??ZDO_ParseEndDeviceBindReq_1
   2398            }
   2399            else
   2400            {
   2401              bindReq->numInClusters = 0;
   \                     ??ZDO_ParseEndDeviceBindReq_0:
   \   0001C0   E5..         MOV     A,?V0 + 0
   \   0001C2   2411         ADD     A,#0x11
   \   0001C4   F582         MOV     DPL,A
   \   0001C6   E5..         MOV     A,?V0 + 1
   \   0001C8   3400         ADDC    A,#0x0
   \   0001CA   F583         MOV     DPH,A
   \   0001CC   7400         MOV     A,#0x0
   \   0001CE   F0           MOVX    @DPTR,A
   2402            }
   2403          
   2404            if ((bindReq->numOutClusters = *msg++) &&
   2405                (bindReq->outClusters = (uint16*)osal_mem_alloc((bindReq->numOutClusters * sizeof(uint16)))))
   \                     ??ZDO_ParseEndDeviceBindReq_1:
   \   0001CF   8E82         MOV     DPL,R6
   \   0001D1   8F83         MOV     DPH,R7
   \   0001D3   E0           MOVX    A,@DPTR
   \   0001D4   F8           MOV     R0,A
   \   0001D5   8E82         MOV     DPL,R6
   \   0001D7   8F83         MOV     DPH,R7
   \   0001D9   A3           INC     DPTR
   \   0001DA   AE82         MOV     R6,DPL
   \   0001DC   AF83         MOV     R7,DPH
   \   0001DE   E8           MOV     A,R0
   \   0001DF   C0E0         PUSH    A
   \   0001E1   E5..         MOV     A,?V0 + 0
   \   0001E3   2414         ADD     A,#0x14
   \   0001E5   F582         MOV     DPL,A
   \   0001E7   E5..         MOV     A,?V0 + 1
   \   0001E9   3400         ADDC    A,#0x0
   \   0001EB   F583         MOV     DPH,A
   \   0001ED   D0E0         POP     A
   \   0001EF   F0           MOVX    @DPTR,A
   \   0001F0   E8           MOV     A,R0
   \   0001F1   6075         JZ      ??ZDO_ParseEndDeviceBindReq_2
   \   0001F3                ; Setup parameters for call to function osal_mem_alloc
   \   0001F3   E5..         MOV     A,?V0 + 0
   \   0001F5   2414         ADD     A,#0x14
   \   0001F7   F582         MOV     DPL,A
   \   0001F9   E5..         MOV     A,?V0 + 1
   \   0001FB   3400         ADDC    A,#0x0
   \   0001FD   F583         MOV     DPH,A
   \   0001FF   E0           MOVX    A,@DPTR
   \   000200   FA           MOV     R2,A
   \   000201   7B00         MOV     R3,#0x0
   \   000203   EA           MOV     A,R2
   \   000204   75F002       MOV     B,#0x2
   \   000207   A4           MUL     AB
   \   000208   CA           XCH     A,R2
   \   000209   A8F0         MOV     R0,B
   \   00020B   75F000       MOV     B,#0x0
   \   00020E   A4           MUL     AB
   \   00020F   28           ADD     A,R0
   \   000210   F8           MOV     R0,A
   \   000211   75F002       MOV     B,#0x2
   \   000214   EB           MOV     A,R3
   \   000215   A4           MUL     AB
   \   000216   28           ADD     A,R0
   \   000217   FB           MOV     R3,A
   \   000218   12....       LCALL   ??osal_mem_alloc?relay
   \   00021B   8A..         MOV     ?V0 + 4,R2
   \   00021D   8B..         MOV     ?V0 + 5,R3
   \   00021F   A8..         MOV     R0,?V0 + 4
   \   000221   A9..         MOV     R1,?V0 + 5
   \   000223   E5..         MOV     A,?V0 + 0
   \   000225   2415         ADD     A,#0x15
   \   000227   F582         MOV     DPL,A
   \   000229   E5..         MOV     A,?V0 + 1
   \   00022B   3400         ADDC    A,#0x0
   \   00022D   F583         MOV     DPH,A
   \   00022F   E8           MOV     A,R0
   \   000230   F0           MOVX    @DPTR,A
   \   000231   A3           INC     DPTR
   \   000232   E9           MOV     A,R1
   \   000233   F0           MOVX    @DPTR,A
   \   000234   E8           MOV     A,R0
   \   000235   49           ORL     A,R1
   \   000236   6030         JZ      ??ZDO_ParseEndDeviceBindReq_2
   2406            {
   2407              msg = ZDO_ConvertOTAClusters( bindReq->numOutClusters, msg, bindReq->outClusters );
   \   000238                ; Setup parameters for call to function ZDO_ConvertOTAClusters
   \   000238   E5..         MOV     A,?V0 + 0
   \   00023A   2415         ADD     A,#0x15
   \   00023C   F582         MOV     DPL,A
   \   00023E   E5..         MOV     A,?V0 + 1
   \   000240   3400         ADDC    A,#0x0
   \   000242   F583         MOV     DPH,A
   \   000244   E0           MOVX    A,@DPTR
   \   000245   FC           MOV     R4,A
   \   000246   A3           INC     DPTR
   \   000247   E0           MOVX    A,@DPTR
   \   000248   FD           MOV     R5,A
   \   000249   EE           MOV     A,R6
   \   00024A   FA           MOV     R2,A
   \   00024B   EF           MOV     A,R7
   \   00024C   FB           MOV     R3,A
   \   00024D   E5..         MOV     A,?V0 + 0
   \   00024F   2414         ADD     A,#0x14
   \   000251   F582         MOV     DPL,A
   \   000253   E5..         MOV     A,?V0 + 1
   \   000255   3400         ADDC    A,#0x0
   \   000257   F583         MOV     DPH,A
   \   000259   E0           MOVX    A,@DPTR
   \   00025A   F9           MOV     R1,A
   \   00025B   12....       LCALL   ??ZDO_ConvertOTAClusters?relay
   \   00025E   8A..         MOV     ?V0 + 4,R2
   \   000260   8B..         MOV     ?V0 + 5,R3
   \   000262   AE..         MOV     R6,?V0 + 4
   \   000264   AF..         MOV     R7,?V0 + 5
   \   000266   800F         SJMP    ??ZDO_ParseEndDeviceBindReq_3
   2408            }
   2409            else
   2410            {
   2411              bindReq->numOutClusters = 0;
   \                     ??ZDO_ParseEndDeviceBindReq_2:
   \   000268   E5..         MOV     A,?V0 + 0
   \   00026A   2414         ADD     A,#0x14
   \   00026C   F582         MOV     DPL,A
   \   00026E   E5..         MOV     A,?V0 + 1
   \   000270   3400         ADDC    A,#0x0
   \   000272   F583         MOV     DPH,A
   \   000274   7400         MOV     A,#0x0
   \   000276   F0           MOVX    @DPTR,A
   2412            }
   2413          }
   \                     ??ZDO_ParseEndDeviceBindReq_3:
   \   000277   7F06         MOV     R7,#0x6
   \   000279   02....       LJMP    ?BANKED_LEAVE_XDATA
   2414          
   2415          /*********************************************************************
   2416           * @fn          ZDO_ParseBindUnbindReq
   2417           *
   2418           * @brief       This function parses the Bind_req or Unbind_req message.
   2419           *
   2420           * @param       inMsg  - incoming message (request)
   2421           * @param       pReq - place to put parsed information
   2422           *
   2423           * @return      none
   2424           */

   \                                 In  segment BANKED_CODE, align 1, keep-with-next
   2425          void ZDO_ParseBindUnbindReq( zdoIncomingMsg_t *inMsg, ZDO_BindUnbindReq_t *pReq )
   \                     ZDO_ParseBindUnbindReq:
   2426          {
   \   000000   74F4         MOV     A,#-0xc
   \   000002   12....       LCALL   ?BANKED_ENTER_XDATA
   \   000005                ; Saved register size: 12
   \   000005                ; Auto size: 0
   \   000005   8A..         MOV     ?V0 + 2,R2
   \   000007   8B..         MOV     ?V0 + 3,R3
   \   000009   8C..         MOV     ?V0 + 0,R4
   \   00000B   8D..         MOV     ?V0 + 1,R5
   2427            uint8 *msg;
   2428          
   2429            msg = inMsg->asdu;
   \   00000D   E5..         MOV     A,?V0 + 2
   \   00000F   2413         ADD     A,#0x13
   \   000011   F582         MOV     DPL,A
   \   000013   E5..         MOV     A,?V0 + 3
   \   000015   3400         ADDC    A,#0x0
   \   000017   F583         MOV     DPH,A
   \   000019   E0           MOVX    A,@DPTR
   \   00001A   F8           MOV     R0,A
   \   00001B   A3           INC     DPTR
   \   00001C   E0           MOVX    A,@DPTR
   \   00001D   F9           MOV     R1,A
   \   00001E   E8           MOV     A,R0
   \   00001F   FE           MOV     R6,A
   \   000020   E9           MOV     A,R1
   \   000021   FF           MOV     R7,A
   2430            osal_cpyExtAddr( pReq->srcAddress, msg );
   \   000022                ; Setup parameters for call to function sAddrExtCpy
   \   000022   EE           MOV     A,R6
   \   000023   FC           MOV     R4,A
   \   000024   EF           MOV     A,R7
   \   000025   FD           MOV     R5,A
   \   000026   AA..         MOV     R2,?V0 + 0
   \   000028   AB..         MOV     R3,?V0 + 1
   \   00002A   12....       LCALL   ??sAddrExtCpy?relay
   2431            msg += Z_EXTADDR_LEN;
   \   00002D   EE           MOV     A,R6
   \   00002E   2408         ADD     A,#0x8
   \   000030   FE           MOV     R6,A
   \   000031   EF           MOV     A,R7
   \   000032   3400         ADDC    A,#0x0
   \   000034   FF           MOV     R7,A
   2432            pReq->srcEndpoint = *msg++;
   \   000035   8E82         MOV     DPL,R6
   \   000037   8F83         MOV     DPH,R7
   \   000039   E0           MOVX    A,@DPTR
   \   00003A   85..82       MOV     DPL,?V0 + 0
   \   00003D   85..83       MOV     DPH,?V0 + 1
   \   000040   A3           INC     DPTR
   \   000041   A3           INC     DPTR
   \   000042   A3           INC     DPTR
   \   000043   A3           INC     DPTR
   \   000044   A3           INC     DPTR
   \   000045   A3           INC     DPTR
   \   000046   A3           INC     DPTR
   \   000047   A3           INC     DPTR
   \   000048   F0           MOVX    @DPTR,A
   \   000049   8E82         MOV     DPL,R6
   \   00004B   8F83         MOV     DPH,R7
   \   00004D   A3           INC     DPTR
   \   00004E   AE82         MOV     R6,DPL
   \   000050   AF83         MOV     R7,DPH
   2433            pReq->clusterID = BUILD_UINT16( msg[0], msg[1] );
   \   000052   8E82         MOV     DPL,R6
   \   000054   8F83         MOV     DPH,R7
   \   000056   E0           MOVX    A,@DPTR
   \   000057   FA           MOV     R2,A
   \   000058   7B00         MOV     R3,#0x0
   \   00005A   8E82         MOV     DPL,R6
   \   00005C   8F83         MOV     DPH,R7
   \   00005E   A3           INC     DPTR
   \   00005F   E0           MOVX    A,@DPTR
   \   000060   F8           MOV     R0,A
   \   000061   7900         MOV     R1,#0x0
   \   000063   E4           CLR     A
   \   000064   C8           XCH     A,R0
   \   000065   F9           MOV     R1,A
   \   000066   EA           MOV     A,R2
   \   000067   28           ADD     A,R0
   \   000068   F8           MOV     R0,A
   \   000069   EB           MOV     A,R3
   \   00006A   39           ADDC    A,R1
   \   00006B   F9           MOV     R1,A
   \   00006C   85..82       MOV     DPL,?V0 + 0
   \   00006F   85..83       MOV     DPH,?V0 + 1
   \   000072   A3           INC     DPTR
   \   000073   A3           INC     DPTR
   \   000074   A3           INC     DPTR
   \   000075   A3           INC     DPTR
   \   000076   A3           INC     DPTR
   \   000077   A3           INC     DPTR
   \   000078   A3           INC     DPTR
   \   000079   A3           INC     DPTR
   \   00007A   A3           INC     DPTR
   \   00007B   E8           MOV     A,R0
   \   00007C   F0           MOVX    @DPTR,A
   \   00007D   A3           INC     DPTR
   \   00007E   E9           MOV     A,R1
   \   00007F   F0           MOVX    @DPTR,A
   2434            msg += 2;
   \   000080   EE           MOV     A,R6
   \   000081   2402         ADD     A,#0x2
   \   000083   FE           MOV     R6,A
   \   000084   EF           MOV     A,R7
   \   000085   3400         ADDC    A,#0x0
   \   000087   FF           MOV     R7,A
   2435            pReq->dstAddress.addrMode = *msg++;
   \   000088   8E82         MOV     DPL,R6
   \   00008A   8F83         MOV     DPH,R7
   \   00008C   E0           MOVX    A,@DPTR
   \   00008D   C0E0         PUSH    A
   \   00008F   E5..         MOV     A,?V0 + 0
   \   000091   2413         ADD     A,#0x13
   \   000093   F582         MOV     DPL,A
   \   000095   E5..         MOV     A,?V0 + 1
   \   000097   3400         ADDC    A,#0x0
   \   000099   F583         MOV     DPH,A
   \   00009B   D0E0         POP     A
   \   00009D   F0           MOVX    @DPTR,A
   \   00009E   8E82         MOV     DPL,R6
   \   0000A0   8F83         MOV     DPH,R7
   \   0000A2   A3           INC     DPTR
   \   0000A3   AE82         MOV     R6,DPL
   \   0000A5   AF83         MOV     R7,DPH
   2436            if ( pReq->dstAddress.addrMode == Addr64Bit )
   \   0000A7   E5..         MOV     A,?V0 + 0
   \   0000A9   2413         ADD     A,#0x13
   \   0000AB   F582         MOV     DPL,A
   \   0000AD   E5..         MOV     A,?V0 + 1
   \   0000AF   3400         ADDC    A,#0x0
   \   0000B1   F583         MOV     DPH,A
   \   0000B3   E0           MOVX    A,@DPTR
   \   0000B4   6403         XRL     A,#0x3
   \   0000B6   7031         JNZ     ??ZDO_ParseBindUnbindReq_0
   2437            {
   2438              osal_cpyExtAddr( pReq->dstAddress.addr.extAddr, msg );
   \   0000B8                ; Setup parameters for call to function sAddrExtCpy
   \   0000B8   EE           MOV     A,R6
   \   0000B9   FC           MOV     R4,A
   \   0000BA   EF           MOV     A,R7
   \   0000BB   FD           MOV     R5,A
   \   0000BC   E5..         MOV     A,?V0 + 0
   \   0000BE   240B         ADD     A,#0xb
   \   0000C0   FA           MOV     R2,A
   \   0000C1   E5..         MOV     A,?V0 + 1
   \   0000C3   3400         ADDC    A,#0x0
   \   0000C5   FB           MOV     R3,A
   \   0000C6   12....       LCALL   ??sAddrExtCpy?relay
   2439              msg += Z_EXTADDR_LEN;
   \   0000C9   EE           MOV     A,R6
   \   0000CA   2408         ADD     A,#0x8
   \   0000CC   FE           MOV     R6,A
   \   0000CD   EF           MOV     A,R7
   \   0000CE   3400         ADDC    A,#0x0
   \   0000D0   FF           MOV     R7,A
   2440              pReq->dstEndpoint = *msg;
   \   0000D1   8E82         MOV     DPL,R6
   \   0000D3   8F83         MOV     DPH,R7
   \   0000D5   E0           MOVX    A,@DPTR
   \   0000D6   C0E0         PUSH    A
   \   0000D8   E5..         MOV     A,?V0 + 0
   \   0000DA   2414         ADD     A,#0x14
   \   0000DC   F582         MOV     DPL,A
   \   0000DE   E5..         MOV     A,?V0 + 1
   \   0000E0   3400         ADDC    A,#0x0
   \   0000E2   F583         MOV     DPH,A
   \   0000E4   D0E0         POP     A
   \   0000E6   F0           MOVX    @DPTR,A
   \   0000E7   802B         SJMP    ??ZDO_ParseBindUnbindReq_1
   2441            }
   2442            else
   2443            {
   2444              // copy group address
   2445              pReq->dstAddress.addr.shortAddr = BUILD_UINT16( msg[0], msg[1] );
   \                     ??ZDO_ParseBindUnbindReq_0:
   \   0000E9   8E82         MOV     DPL,R6
   \   0000EB   8F83         MOV     DPH,R7
   \   0000ED   E0           MOVX    A,@DPTR
   \   0000EE   FA           MOV     R2,A
   \   0000EF   7B00         MOV     R3,#0x0
   \   0000F1   8E82         MOV     DPL,R6
   \   0000F3   8F83         MOV     DPH,R7
   \   0000F5   A3           INC     DPTR
   \   0000F6   E0           MOVX    A,@DPTR
   \   0000F7   F8           MOV     R0,A
   \   0000F8   7900         MOV     R1,#0x0
   \   0000FA   E4           CLR     A
   \   0000FB   C8           XCH     A,R0
   \   0000FC   F9           MOV     R1,A
   \   0000FD   EA           MOV     A,R2
   \   0000FE   28           ADD     A,R0
   \   0000FF   F8           MOV     R0,A
   \   000100   EB           MOV     A,R3
   \   000101   39           ADDC    A,R1
   \   000102   F9           MOV     R1,A
   \   000103   E5..         MOV     A,?V0 + 0
   \   000105   240B         ADD     A,#0xb
   \   000107   F582         MOV     DPL,A
   \   000109   E5..         MOV     A,?V0 + 1
   \   00010B   3400         ADDC    A,#0x0
   \   00010D   F583         MOV     DPH,A
   \   00010F   E8           MOV     A,R0
   \   000110   F0           MOVX    @DPTR,A
   \   000111   A3           INC     DPTR
   \   000112   E9           MOV     A,R1
   \   000113   F0           MOVX    @DPTR,A
   2446            }
   2447          }
   \                     ??ZDO_ParseBindUnbindReq_1:
   \   000114   7F04         MOV     R7,#0x4
   \   000116   02....       LJMP    ?BANKED_LEAVE_XDATA
   2448          
   2449          /*********************************************************************
   2450           * @fn      ZDO_ParseAddrRsp
   2451           *
   2452           * @brief   Turns the inMsg (incoming message) into the out parsed
   2453           *          structure.
   2454           *
   2455           * @param   inMsg - incoming message
   2456           *
   2457           * @return  pointer to parsed structures.  This structure was
   2458           *          allocated using osal_mem_alloc, so it must be freed
   2459           *          by the calling function [osal_mem_free()].
   2460           */

   \                                 In  segment BANKED_CODE, align 1, keep-with-next
   2461          ZDO_NwkIEEEAddrResp_t *ZDO_ParseAddrRsp( zdoIncomingMsg_t *inMsg )
   \                     ZDO_ParseAddrRsp:
   2462          {
   \   000000   74F0         MOV     A,#-0x10
   \   000002   12....       LCALL   ?BANKED_ENTER_XDATA
   \   000005                ; Saved register size: 16
   \   000005                ; Auto size: 0
   \   000005   8A..         MOV     ?V0 + 0,R2
   \   000007   8B..         MOV     ?V0 + 1,R3
   2463            ZDO_NwkIEEEAddrResp_t *rsp;
   2464            uint8 *msg;
   2465            byte cnt = 0;
   \   000009   75..00       MOV     ?V0 + 4,#0x0
   2466          
   2467            // Calculate the number of items in the list
   2468            if ( inMsg->asduLen > (1 + Z_EXTADDR_LEN + 2) )
   \   00000C   E5..         MOV     A,?V0 + 0
   \   00000E   2410         ADD     A,#0x10
   \   000010   F582         MOV     DPL,A
   \   000012   E5..         MOV     A,?V0 + 1
   \   000014   3400         ADDC    A,#0x0
   \   000016   F583         MOV     DPH,A
   \   000018   E0           MOVX    A,@DPTR
   \   000019   C3           CLR     C
   \   00001A   940C         SUBB    A,#0xc
   \   00001C   401F         JC      ??ZDO_ParseAddrRsp_0
   2469              cnt = inMsg->asdu[1 + Z_EXTADDR_LEN + 2];
   \   00001E   E5..         MOV     A,?V0 + 0
   \   000020   2413         ADD     A,#0x13
   \   000022   F582         MOV     DPL,A
   \   000024   E5..         MOV     A,?V0 + 1
   \   000026   3400         ADDC    A,#0x0
   \   000028   F583         MOV     DPH,A
   \   00002A   E0           MOVX    A,@DPTR
   \   00002B   F8           MOV     R0,A
   \   00002C   A3           INC     DPTR
   \   00002D   E0           MOVX    A,@DPTR
   \   00002E   C8           XCH     A,R0
   \   00002F   240B         ADD     A,#0xb
   \   000031   F582         MOV     DPL,A
   \   000033   E8           MOV     A,R0
   \   000034   3400         ADDC    A,#0x0
   \   000036   F583         MOV     DPH,A
   \   000038   E0           MOVX    A,@DPTR
   \   000039   F5..         MOV     ?V0 + 4,A
   \   00003B   8003         SJMP    ??ZDO_ParseAddrRsp_1
   2470            else
   2471              cnt = 0;
   \                     ??ZDO_ParseAddrRsp_0:
   \   00003D   75..00       MOV     ?V0 + 4,#0x0
   2472          
   2473            // Make buffer
   2474            rsp = (ZDO_NwkIEEEAddrResp_t *)osal_mem_alloc( sizeof(ZDO_NwkIEEEAddrResp_t) + (cnt * sizeof ( uint16 )) );
   \                     ??ZDO_ParseAddrRsp_1:
   \   000040                ; Setup parameters for call to function osal_mem_alloc
   \   000040   E5..         MOV     A,?V0 + 4
   \   000042   A8..         MOV     R0,?V0 + 4
   \   000044   7900         MOV     R1,#0x0
   \   000046   E8           MOV     A,R0
   \   000047   75F002       MOV     B,#0x2
   \   00004A   A4           MUL     AB
   \   00004B   C8           XCH     A,R0
   \   00004C   AAF0         MOV     R2,B
   \   00004E   75F000       MOV     B,#0x0
   \   000051   A4           MUL     AB
   \   000052   2A           ADD     A,R2
   \   000053   FA           MOV     R2,A
   \   000054   75F002       MOV     B,#0x2
   \   000057   E9           MOV     A,R1
   \   000058   A4           MUL     AB
   \   000059   2A           ADD     A,R2
   \   00005A   F9           MOV     R1,A
   \   00005B   E8           MOV     A,R0
   \   00005C   240D         ADD     A,#0xd
   \   00005E   FA           MOV     R2,A
   \   00005F   E9           MOV     A,R1
   \   000060   3400         ADDC    A,#0x0
   \   000062   FB           MOV     R3,A
   \   000063   12....       LCALL   ??osal_mem_alloc?relay
   \   000066   8A..         MOV     ?V0 + 6,R2
   \   000068   8B..         MOV     ?V0 + 7,R3
   \   00006A   AE..         MOV     R6,?V0 + 6
   \   00006C   AF..         MOV     R7,?V0 + 7
   2475          
   2476            if ( rsp )
   \   00006E   EE           MOV     A,R6
   \   00006F   4F           ORL     A,R7
   \   000070   7003         JNZ     $+5
   \   000072   02....       LJMP    ??ZDO_ParseAddrRsp_2 & 0xFFFF
   2477            {
   2478              msg = inMsg->asdu;
   \   000075   E5..         MOV     A,?V0 + 0
   \   000077   2413         ADD     A,#0x13
   \   000079   F582         MOV     DPL,A
   \   00007B   E5..         MOV     A,?V0 + 1
   \   00007D   3400         ADDC    A,#0x0
   \   00007F   F583         MOV     DPH,A
   \   000081   E0           MOVX    A,@DPTR
   \   000082   F8           MOV     R0,A
   \   000083   A3           INC     DPTR
   \   000084   E0           MOVX    A,@DPTR
   \   000085   F9           MOV     R1,A
   \   000086   88..         MOV     ?V0 + 2,R0
   \   000088   89..         MOV     ?V0 + 3,R1
   2479          
   2480              rsp->status = *msg++;
   \   00008A   85..82       MOV     DPL,?V0 + 2
   \   00008D   85..83       MOV     DPH,?V0 + 3
   \   000090   E0           MOVX    A,@DPTR
   \   000091   8E82         MOV     DPL,R6
   \   000093   8F83         MOV     DPH,R7
   \   000095   F0           MOVX    @DPTR,A
   \   000096   85..82       MOV     DPL,?V0 + 2
   \   000099   85..83       MOV     DPH,?V0 + 3
   \   00009C   A3           INC     DPTR
   \   00009D   8582..       MOV     ?V0 + 2,DPL
   \   0000A0   8583..       MOV     ?V0 + 3,DPH
   2481              if ( rsp->status == ZDO_SUCCESS )
   \   0000A3   8E82         MOV     DPL,R6
   \   0000A5   8F83         MOV     DPH,R7
   \   0000A7   E0           MOVX    A,@DPTR
   \   0000A8   6003         JZ      $+5
   \   0000AA   02....       LJMP    ??ZDO_ParseAddrRsp_2 & 0xFFFF
   2482              {
   2483                osal_cpyExtAddr( rsp->extAddr, msg );
   \   0000AD                ; Setup parameters for call to function sAddrExtCpy
   \   0000AD   AC..         MOV     R4,?V0 + 2
   \   0000AF   AD..         MOV     R5,?V0 + 3
   \   0000B1   EE           MOV     A,R6
   \   0000B2   2403         ADD     A,#0x3
   \   0000B4   FA           MOV     R2,A
   \   0000B5   EF           MOV     A,R7
   \   0000B6   3400         ADDC    A,#0x0
   \   0000B8   FB           MOV     R3,A
   \   0000B9   12....       LCALL   ??sAddrExtCpy?relay
   2484                msg += Z_EXTADDR_LEN;
   \   0000BC   E5..         MOV     A,?V0 + 2
   \   0000BE   2408         ADD     A,#0x8
   \   0000C0   F5..         MOV     ?V0 + 2,A
   \   0000C2   E5..         MOV     A,?V0 + 3
   \   0000C4   3400         ADDC    A,#0x0
   \   0000C6   F5..         MOV     ?V0 + 3,A
   2485                rsp->nwkAddr = BUILD_UINT16( msg[0], msg[1] );
   \   0000C8   85..82       MOV     DPL,?V0 + 2
   \   0000CB   85..83       MOV     DPH,?V0 + 3
   \   0000CE   E0           MOVX    A,@DPTR
   \   0000CF   FA           MOV     R2,A
   \   0000D0   7B00         MOV     R3,#0x0
   \   0000D2   85..82       MOV     DPL,?V0 + 2
   \   0000D5   85..83       MOV     DPH,?V0 + 3
   \   0000D8   A3           INC     DPTR
   \   0000D9   E0           MOVX    A,@DPTR
   \   0000DA   F8           MOV     R0,A
   \   0000DB   7900         MOV     R1,#0x0
   \   0000DD   E4           CLR     A
   \   0000DE   C8           XCH     A,R0
   \   0000DF   F9           MOV     R1,A
   \   0000E0   EA           MOV     A,R2
   \   0000E1   28           ADD     A,R0
   \   0000E2   F8           MOV     R0,A
   \   0000E3   EB           MOV     A,R3
   \   0000E4   39           ADDC    A,R1
   \   0000E5   F9           MOV     R1,A
   \   0000E6   8E82         MOV     DPL,R6
   \   0000E8   8F83         MOV     DPH,R7
   \   0000EA   A3           INC     DPTR
   \   0000EB   E8           MOV     A,R0
   \   0000EC   F0           MOVX    @DPTR,A
   \   0000ED   A3           INC     DPTR
   \   0000EE   E9           MOV     A,R1
   \   0000EF   F0           MOVX    @DPTR,A
   2486          
   2487                msg += 2;
   \   0000F0   E5..         MOV     A,?V0 + 2
   \   0000F2   2402         ADD     A,#0x2
   \   0000F4   F5..         MOV     ?V0 + 2,A
   \   0000F6   E5..         MOV     A,?V0 + 3
   \   0000F8   3400         ADDC    A,#0x0
   \   0000FA   F5..         MOV     ?V0 + 3,A
   2488                rsp->numAssocDevs = 0;
   \   0000FC   EE           MOV     A,R6
   \   0000FD   240B         ADD     A,#0xb
   \   0000FF   F582         MOV     DPL,A
   \   000101   EF           MOV     A,R7
   \   000102   3400         ADDC    A,#0x0
   \   000104   F583         MOV     DPH,A
   \   000106   7400         MOV     A,#0x0
   \   000108   F0           MOVX    @DPTR,A
   2489          
   2490                // StartIndex field is only present if NumAssocDev field is non-zero.
   2491                if ( cnt > 0 )
   \   000109   E5..         MOV     A,?V0 + 4
   \   00010B   C3           CLR     C
   \   00010C   9401         SUBB    A,#0x1
   \   00010E   5003         JNC     $+5
   \   000110   02....       LJMP    ??ZDO_ParseAddrRsp_2 & 0xFFFF
   2492                {
   2493                  uint16 *pList = &(rsp->devList[0]);
   \   000113   EE           MOV     A,R6
   \   000114   240D         ADD     A,#0xd
   \   000116   F8           MOV     R0,A
   \   000117   EF           MOV     A,R7
   \   000118   3400         ADDC    A,#0x0
   \   00011A   F9           MOV     R1,A
   2494                  byte n = cnt;
   \   00011B   85....       MOV     ?V0 + 5,?V0 + 4
   2495          
   2496                  rsp->numAssocDevs = *msg++;
   \   00011E   85..82       MOV     DPL,?V0 + 2
   \   000121   85..83       MOV     DPH,?V0 + 3
   \   000124   E0           MOVX    A,@DPTR
   \   000125   C0E0         PUSH    A
   \   000127   EE           MOV     A,R6
   \   000128   240B         ADD     A,#0xb
   \   00012A   F582         MOV     DPL,A
   \   00012C   EF           MOV     A,R7
   \   00012D   3400         ADDC    A,#0x0
   \   00012F   F583         MOV     DPH,A
   \   000131   D0E0         POP     A
   \   000133   F0           MOVX    @DPTR,A
   \   000134   85..82       MOV     DPL,?V0 + 2
   \   000137   85..83       MOV     DPH,?V0 + 3
   \   00013A   A3           INC     DPTR
   \   00013B   8582..       MOV     ?V0 + 2,DPL
   \   00013E   8583..       MOV     ?V0 + 3,DPH
   2497                  rsp->startIndex = *msg++;
   \   000141   85..82       MOV     DPL,?V0 + 2
   \   000144   85..83       MOV     DPH,?V0 + 3
   \   000147   E0           MOVX    A,@DPTR
   \   000148   C0E0         PUSH    A
   \   00014A   EE           MOV     A,R6
   \   00014B   240C         ADD     A,#0xc
   \   00014D   F582         MOV     DPL,A
   \   00014F   EF           MOV     A,R7
   \   000150   3400         ADDC    A,#0x0
   \   000152   F583         MOV     DPH,A
   \   000154   D0E0         POP     A
   \   000156   F0           MOVX    @DPTR,A
   \   000157   85..82       MOV     DPL,?V0 + 2
   \   00015A   85..83       MOV     DPH,?V0 + 3
   \   00015D   A3           INC     DPTR
   \   00015E   8582..       MOV     ?V0 + 2,DPL
   \   000161   8583..       MOV     ?V0 + 3,DPH
   2498          
   2499                  while ( n != 0 )
   \                     ??ZDO_ParseAddrRsp_3:
   \   000164   E5..         MOV     A,?V0 + 5
   \   000166   603F         JZ      ??ZDO_ParseAddrRsp_2
   2500                  {
   2501                    *pList++ = BUILD_UINT16( msg[0], msg[1] );
   \   000168   85..82       MOV     DPL,?V0 + 2
   \   00016B   85..83       MOV     DPH,?V0 + 3
   \   00016E   E0           MOVX    A,@DPTR
   \   00016F   FC           MOV     R4,A
   \   000170   7D00         MOV     R5,#0x0
   \   000172   85..82       MOV     DPL,?V0 + 2
   \   000175   85..83       MOV     DPH,?V0 + 3
   \   000178   A3           INC     DPTR
   \   000179   E0           MOVX    A,@DPTR
   \   00017A   FA           MOV     R2,A
   \   00017B   7B00         MOV     R3,#0x0
   \   00017D   E4           CLR     A
   \   00017E   CA           XCH     A,R2
   \   00017F   FB           MOV     R3,A
   \   000180   EC           MOV     A,R4
   \   000181   2A           ADD     A,R2
   \   000182   FA           MOV     R2,A
   \   000183   ED           MOV     A,R5
   \   000184   3B           ADDC    A,R3
   \   000185   FB           MOV     R3,A
   \   000186   8882         MOV     DPL,R0
   \   000188   8983         MOV     DPH,R1
   \   00018A   EA           MOV     A,R2
   \   00018B   F0           MOVX    @DPTR,A
   \   00018C   A3           INC     DPTR
   \   00018D   EB           MOV     A,R3
   \   00018E   F0           MOVX    @DPTR,A
   \   00018F   E8           MOV     A,R0
   \   000190   2402         ADD     A,#0x2
   \   000192   F8           MOV     R0,A
   \   000193   E9           MOV     A,R1
   \   000194   3400         ADDC    A,#0x0
   \   000196   F9           MOV     R1,A
   2502                    msg += sizeof( uint16 );
   \   000197   E5..         MOV     A,?V0 + 2
   \   000199   2402         ADD     A,#0x2
   \   00019B   F5..         MOV     ?V0 + 2,A
   \   00019D   E5..         MOV     A,?V0 + 3
   \   00019F   3400         ADDC    A,#0x0
   \   0001A1   F5..         MOV     ?V0 + 3,A
   2503                    n--;
   \   0001A3   15..         DEC     ?V0 + 5
   \   0001A5   80BD         SJMP    ??ZDO_ParseAddrRsp_3
   2504                  }
   2505                }
   2506              }
   2507            }
   2508            return ( rsp );
   \                     ??ZDO_ParseAddrRsp_2:
   \   0001A7   EE           MOV     A,R6
   \   0001A8   FA           MOV     R2,A
   \   0001A9   EF           MOV     A,R7
   \   0001AA   FB           MOV     R3,A
   \   0001AB   7F08         MOV     R7,#0x8
   \   0001AD   02....       LJMP    ?BANKED_LEAVE_XDATA
   2509          }
   2510          
   2511          /*********************************************************************
   2512           * @fn          ZDO_ParseNodeDescRsp
   2513           *
   2514           * @brief       This function parses the Node_Desc_rsp message.
   2515           *
   2516           * @param       inMsg - incoming message
   2517           * @param       pNDRsp - place to parse the message into
   2518           *
   2519           * @return      none
   2520           */

   \                                 In  segment BANKED_CODE, align 1, keep-with-next
   2521          void ZDO_ParseNodeDescRsp( zdoIncomingMsg_t *inMsg, ZDO_NodeDescRsp_t *pNDRsp )
   \                     ZDO_ParseNodeDescRsp:
   2522          {
   \   000000   74F6         MOV     A,#-0xa
   \   000002   12....       LCALL   ?BANKED_ENTER_XDATA
   \   000005                ; Saved register size: 10
   \   000005                ; Auto size: 1
   \   000005   74FF         MOV     A,#-0x1
   \   000007   12....       LCALL   ?ALLOC_XSTACK8
   2523            uint8 *msg;
   2524          
   2525            msg = inMsg->asdu;
   \   00000A   EA           MOV     A,R2
   \   00000B   2413         ADD     A,#0x13
   \   00000D   F582         MOV     DPL,A
   \   00000F   EB           MOV     A,R3
   \   000010   3400         ADDC    A,#0x0
   \   000012   F583         MOV     DPH,A
   \   000014   E0           MOVX    A,@DPTR
   \   000015   FE           MOV     R6,A
   \   000016   A3           INC     DPTR
   \   000017   E0           MOVX    A,@DPTR
   \   000018   FF           MOV     R7,A
   \   000019   EE           MOV     A,R6
   \   00001A   F8           MOV     R0,A
   \   00001B   EF           MOV     A,R7
   \   00001C   F9           MOV     R1,A
   2526          
   2527            pNDRsp->status = *msg++;
   \   00001D   8882         MOV     DPL,R0
   \   00001F   8983         MOV     DPH,R1
   \   000021   E0           MOVX    A,@DPTR
   \   000022   8C82         MOV     DPL,R4
   \   000024   8D83         MOV     DPH,R5
   \   000026   F0           MOVX    @DPTR,A
   \   000027   8882         MOV     DPL,R0
   \   000029   8983         MOV     DPH,R1
   \   00002B   A3           INC     DPTR
   \   00002C   A882         MOV     R0,DPL
   \   00002E   A983         MOV     R1,DPH
   2528            pNDRsp->nwkAddr = BUILD_UINT16( msg[0], msg[1] );
   \   000030   8882         MOV     DPL,R0
   \   000032   8983         MOV     DPH,R1
   \   000034   E0           MOVX    A,@DPTR
   \   000035   F5..         MOV     ?V0 + 0,A
   \   000037   75..00       MOV     ?V0 + 1,#0x0
   \   00003A   8882         MOV     DPL,R0
   \   00003C   8983         MOV     DPH,R1
   \   00003E   A3           INC     DPTR
   \   00003F   E0           MOVX    A,@DPTR
   \   000040   FE           MOV     R6,A
   \   000041   7F00         MOV     R7,#0x0
   \   000043   E4           CLR     A
   \   000044   CE           XCH     A,R6
   \   000045   FF           MOV     R7,A
   \   000046   E5..         MOV     A,?V0 + 0
   \   000048   2E           ADD     A,R6
   \   000049   FE           MOV     R6,A
   \   00004A   E5..         MOV     A,?V0 + 1
   \   00004C   3F           ADDC    A,R7
   \   00004D   FF           MOV     R7,A
   \   00004E   8C82         MOV     DPL,R4
   \   000050   8D83         MOV     DPH,R5
   \   000052   A3           INC     DPTR
   \   000053   EE           MOV     A,R6
   \   000054   F0           MOVX    @DPTR,A
   \   000055   A3           INC     DPTR
   \   000056   EF           MOV     A,R7
   \   000057   F0           MOVX    @DPTR,A
   2529          
   2530            if ( pNDRsp->status == ZDP_SUCCESS )
   \   000058   8C82         MOV     DPL,R4
   \   00005A   8D83         MOV     DPH,R5
   \   00005C   E0           MOVX    A,@DPTR
   \   00005D   6003         JZ      $+5
   \   00005F   02....       LJMP    ??ZDO_ParseNodeDescRsp_0 & 0xFFFF
   2531            {
   2532              msg += 2;
   \   000062   E8           MOV     A,R0
   \   000063   2402         ADD     A,#0x2
   \   000065   F8           MOV     R0,A
   \   000066   E9           MOV     A,R1
   \   000067   3400         ADDC    A,#0x0
   \   000069   F9           MOV     R1,A
   2533              pNDRsp->nodeDesc.LogicalType = *msg & 0x07;
   \   00006A   8882         MOV     DPL,R0
   \   00006C   8983         MOV     DPH,R1
   \   00006E   E0           MOVX    A,@DPTR
   \   00006F   5407         ANL     A,#0x7
   \   000071   FE           MOV     R6,A
   \   000072   7407         MOV     A,#0x7
   \   000074   5E           ANL     A,R6
   \   000075   FE           MOV     R6,A
   \   000076   8C82         MOV     DPL,R4
   \   000078   8D83         MOV     DPH,R5
   \   00007A   A3           INC     DPTR
   \   00007B   A3           INC     DPTR
   \   00007C   A3           INC     DPTR
   \   00007D   E0           MOVX    A,@DPTR
   \   00007E   54F8         ANL     A,#0xf8
   \   000080   4E           ORL     A,R6
   \   000081   8C82         MOV     DPL,R4
   \   000083   8D83         MOV     DPH,R5
   \   000085   A3           INC     DPTR
   \   000086   A3           INC     DPTR
   \   000087   A3           INC     DPTR
   \   000088   F0           MOVX    @DPTR,A
   2534          
   2535              pNDRsp->nodeDesc.ComplexDescAvail = ( *msg & 0x08 ) >> 3;
   \   000089   8882         MOV     DPL,R0
   \   00008B   8983         MOV     DPH,R1
   \   00008D   E0           MOVX    A,@DPTR
   \   00008E   A2E3         MOV     C,0xE0 /* A   */.3
   \   000090   E4           CLR     A
   \   000091   33           RLC     A
   \   000092   FE           MOV     R6,A
   \   000093   8C82         MOV     DPL,R4
   \   000095   8D83         MOV     DPH,R5
   \   000097   A3           INC     DPTR
   \   000098   A3           INC     DPTR
   \   000099   A3           INC     DPTR
   \   00009A   A2E0         MOV     C,0xE0 /* A   */.0
   \   00009C   E0           MOVX    A,@DPTR
   \   00009D   92E3         MOV     0xE0 /* A   */.3,C
   \   00009F   F0           MOVX    @DPTR,A
   2536              pNDRsp->nodeDesc.UserDescAvail = ( *msg & 0x10 ) >> 4;
   \   0000A0   8882         MOV     DPL,R0
   \   0000A2   8983         MOV     DPH,R1
   \   0000A4   E0           MOVX    A,@DPTR
   \   0000A5   A2E4         MOV     C,0xE0 /* A   */.4
   \   0000A7   E4           CLR     A
   \   0000A8   33           RLC     A
   \   0000A9   FE           MOV     R6,A
   \   0000AA   8C82         MOV     DPL,R4
   \   0000AC   8D83         MOV     DPH,R5
   \   0000AE   A3           INC     DPTR
   \   0000AF   A3           INC     DPTR
   \   0000B0   A3           INC     DPTR
   \   0000B1   A2E0         MOV     C,0xE0 /* A   */.0
   \   0000B3   E0           MOVX    A,@DPTR
   \   0000B4   92E4         MOV     0xE0 /* A   */.4,C
   \   0000B6   F0           MOVX    @DPTR,A
   2537          
   2538              msg++;  // Reserved bits.
   \   0000B7   8882         MOV     DPL,R0
   \   0000B9   8983         MOV     DPH,R1
   \   0000BB   A3           INC     DPTR
   \   0000BC   A882         MOV     R0,DPL
   \   0000BE   A983         MOV     R1,DPH
   2539              pNDRsp->nodeDesc.FrequencyBand = (*msg >> 3) & 0x1f;
   \   0000C0   8882         MOV     DPL,R0
   \   0000C2   8983         MOV     DPH,R1
   \   0000C4   E0           MOVX    A,@DPTR
   \   0000C5   13           RRC     A
   \   0000C6   13           RRC     A
   \   0000C7   13           RRC     A
   \   0000C8   541F         ANL     A,#0x1f
   \   0000CA   85..82       MOV     DPL,?XSP + 0
   \   0000CD   85..83       MOV     DPH,?XSP + 1
   \   0000D0   F0           MOVX    @DPTR,A
   \   0000D1   85..82       MOV     DPL,?XSP + 0
   \   0000D4   85..83       MOV     DPH,?XSP + 1
   \   0000D7   E0           MOVX    A,@DPTR
   \   0000D8   33           RLC     A
   \   0000D9   33           RLC     A
   \   0000DA   33           RLC     A
   \   0000DB   54F8         ANL     A,#0xf8
   \   0000DD   FE           MOV     R6,A
   \   0000DE   8C82         MOV     DPL,R4
   \   0000E0   8D83         MOV     DPH,R5
   \   0000E2   A3           INC     DPTR
   \   0000E3   A3           INC     DPTR
   \   0000E4   A3           INC     DPTR
   \   0000E5   A3           INC     DPTR
   \   0000E6   E0           MOVX    A,@DPTR
   \   0000E7   5407         ANL     A,#0x7
   \   0000E9   4E           ORL     A,R6
   \   0000EA   8C82         MOV     DPL,R4
   \   0000EC   8D83         MOV     DPH,R5
   \   0000EE   A3           INC     DPTR
   \   0000EF   A3           INC     DPTR
   \   0000F0   A3           INC     DPTR
   \   0000F1   A3           INC     DPTR
   \   0000F2   F0           MOVX    @DPTR,A
   2540              pNDRsp->nodeDesc.APSFlags = *msg++ & 0x07;
   \   0000F3   8882         MOV     DPL,R0
   \   0000F5   8983         MOV     DPH,R1
   \   0000F7   E0           MOVX    A,@DPTR
   \   0000F8   5407         ANL     A,#0x7
   \   0000FA   FE           MOV     R6,A
   \   0000FB   8882         MOV     DPL,R0
   \   0000FD   8983         MOV     DPH,R1
   \   0000FF   A3           INC     DPTR
   \   000100   A882         MOV     R0,DPL
   \   000102   A983         MOV     R1,DPH
   \   000104   7407         MOV     A,#0x7
   \   000106   5E           ANL     A,R6
   \   000107   FE           MOV     R6,A
   \   000108   8C82         MOV     DPL,R4
   \   00010A   8D83         MOV     DPH,R5
   \   00010C   A3           INC     DPTR
   \   00010D   A3           INC     DPTR
   \   00010E   A3           INC     DPTR
   \   00010F   A3           INC     DPTR
   \   000110   E0           MOVX    A,@DPTR
   \   000111   54F8         ANL     A,#0xf8
   \   000113   4E           ORL     A,R6
   \   000114   8C82         MOV     DPL,R4
   \   000116   8D83         MOV     DPH,R5
   \   000118   A3           INC     DPTR
   \   000119   A3           INC     DPTR
   \   00011A   A3           INC     DPTR
   \   00011B   A3           INC     DPTR
   \   00011C   F0           MOVX    @DPTR,A
   2541              pNDRsp->nodeDesc.CapabilityFlags = *msg++;
   \   00011D   8882         MOV     DPL,R0
   \   00011F   8983         MOV     DPH,R1
   \   000121   E0           MOVX    A,@DPTR
   \   000122   8C82         MOV     DPL,R4
   \   000124   8D83         MOV     DPH,R5
   \   000126   A3           INC     DPTR
   \   000127   A3           INC     DPTR
   \   000128   A3           INC     DPTR
   \   000129   A3           INC     DPTR
   \   00012A   A3           INC     DPTR
   \   00012B   F0           MOVX    @DPTR,A
   \   00012C   8882         MOV     DPL,R0
   \   00012E   8983         MOV     DPH,R1
   \   000130   A3           INC     DPTR
   \   000131   A882         MOV     R0,DPL
   \   000133   A983         MOV     R1,DPH
   2542              pNDRsp->nodeDesc.ManufacturerCode[0] = *msg++;
   \   000135   8882         MOV     DPL,R0
   \   000137   8983         MOV     DPH,R1
   \   000139   E0           MOVX    A,@DPTR
   \   00013A   8C82         MOV     DPL,R4
   \   00013C   8D83         MOV     DPH,R5
   \   00013E   A3           INC     DPTR
   \   00013F   A3           INC     DPTR
   \   000140   A3           INC     DPTR
   \   000141   A3           INC     DPTR
   \   000142   A3           INC     DPTR
   \   000143   A3           INC     DPTR
   \   000144   F0           MOVX    @DPTR,A
   \   000145   8882         MOV     DPL,R0
   \   000147   8983         MOV     DPH,R1
   \   000149   A3           INC     DPTR
   \   00014A   A882         MOV     R0,DPL
   \   00014C   A983         MOV     R1,DPH
   2543              pNDRsp->nodeDesc.ManufacturerCode[1] = *msg++;
   \   00014E   8882         MOV     DPL,R0
   \   000150   8983         MOV     DPH,R1
   \   000152   E0           MOVX    A,@DPTR
   \   000153   8C82         MOV     DPL,R4
   \   000155   8D83         MOV     DPH,R5
   \   000157   A3           INC     DPTR
   \   000158   A3           INC     DPTR
   \   000159   A3           INC     DPTR
   \   00015A   A3           INC     DPTR
   \   00015B   A3           INC     DPTR
   \   00015C   A3           INC     DPTR
   \   00015D   A3           INC     DPTR
   \   00015E   F0           MOVX    @DPTR,A
   \   00015F   8882         MOV     DPL,R0
   \   000161   8983         MOV     DPH,R1
   \   000163   A3           INC     DPTR
   \   000164   A882         MOV     R0,DPL
   \   000166   A983         MOV     R1,DPH
   2544              pNDRsp->nodeDesc.MaxBufferSize = *msg++;
   \   000168   8882         MOV     DPL,R0
   \   00016A   8983         MOV     DPH,R1
   \   00016C   E0           MOVX    A,@DPTR
   \   00016D   8C82         MOV     DPL,R4
   \   00016F   8D83         MOV     DPH,R5
   \   000171   A3           INC     DPTR
   \   000172   A3           INC     DPTR
   \   000173   A3           INC     DPTR
   \   000174   A3           INC     DPTR
   \   000175   A3           INC     DPTR
   \   000176   A3           INC     DPTR
   \   000177   A3           INC     DPTR
   \   000178   A3           INC     DPTR
   \   000179   F0           MOVX    @DPTR,A
   \   00017A   8882         MOV     DPL,R0
   \   00017C   8983         MOV     DPH,R1
   \   00017E   A3           INC     DPTR
   \   00017F   A882         MOV     R0,DPL
   \   000181   A983         MOV     R1,DPH
   2545              pNDRsp->nodeDesc.MaxInTransferSize[0] = *msg++;
   \   000183   8882         MOV     DPL,R0
   \   000185   8983         MOV     DPH,R1
   \   000187   E0           MOVX    A,@DPTR
   \   000188   8C82         MOV     DPL,R4
   \   00018A   8D83         MOV     DPH,R5
   \   00018C   A3           INC     DPTR
   \   00018D   A3           INC     DPTR
   \   00018E   A3           INC     DPTR
   \   00018F   A3           INC     DPTR
   \   000190   A3           INC     DPTR
   \   000191   A3           INC     DPTR
   \   000192   A3           INC     DPTR
   \   000193   A3           INC     DPTR
   \   000194   A3           INC     DPTR
   \   000195   F0           MOVX    @DPTR,A
   \   000196   8882         MOV     DPL,R0
   \   000198   8983         MOV     DPH,R1
   \   00019A   A3           INC     DPTR
   \   00019B   A882         MOV     R0,DPL
   \   00019D   A983         MOV     R1,DPH
   2546              pNDRsp->nodeDesc.MaxInTransferSize[1] = *msg++;
   \   00019F   8882         MOV     DPL,R0
   \   0001A1   8983         MOV     DPH,R1
   \   0001A3   E0           MOVX    A,@DPTR
   \   0001A4   8C82         MOV     DPL,R4
   \   0001A6   8D83         MOV     DPH,R5
   \   0001A8   A3           INC     DPTR
   \   0001A9   A3           INC     DPTR
   \   0001AA   A3           INC     DPTR
   \   0001AB   A3           INC     DPTR
   \   0001AC   A3           INC     DPTR
   \   0001AD   A3           INC     DPTR
   \   0001AE   A3           INC     DPTR
   \   0001AF   A3           INC     DPTR
   \   0001B0   A3           INC     DPTR
   \   0001B1   A3           INC     DPTR
   \   0001B2   F0           MOVX    @DPTR,A
   \   0001B3   8882         MOV     DPL,R0
   \   0001B5   8983         MOV     DPH,R1
   \   0001B7   A3           INC     DPTR
   \   0001B8   A882         MOV     R0,DPL
   \   0001BA   A983         MOV     R1,DPH
   2547              pNDRsp->nodeDesc.ServerMask = BUILD_UINT16( msg[0], msg[1] );
   \   0001BC   8882         MOV     DPL,R0
   \   0001BE   8983         MOV     DPH,R1
   \   0001C0   E0           MOVX    A,@DPTR
   \   0001C1   F5..         MOV     ?V0 + 0,A
   \   0001C3   75..00       MOV     ?V0 + 1,#0x0
   \   0001C6   8882         MOV     DPL,R0
   \   0001C8   8983         MOV     DPH,R1
   \   0001CA   A3           INC     DPTR
   \   0001CB   E0           MOVX    A,@DPTR
   \   0001CC   FE           MOV     R6,A
   \   0001CD   7F00         MOV     R7,#0x0
   \   0001CF   E4           CLR     A
   \   0001D0   CE           XCH     A,R6
   \   0001D1   FF           MOV     R7,A
   \   0001D2   E5..         MOV     A,?V0 + 0
   \   0001D4   2E           ADD     A,R6
   \   0001D5   FE           MOV     R6,A
   \   0001D6   E5..         MOV     A,?V0 + 1
   \   0001D8   3F           ADDC    A,R7
   \   0001D9   FF           MOV     R7,A
   \   0001DA   EC           MOV     A,R4
   \   0001DB   240B         ADD     A,#0xb
   \   0001DD   F582         MOV     DPL,A
   \   0001DF   ED           MOV     A,R5
   \   0001E0   3400         ADDC    A,#0x0
   \   0001E2   F583         MOV     DPH,A
   \   0001E4   EE           MOV     A,R6
   \   0001E5   F0           MOVX    @DPTR,A
   \   0001E6   A3           INC     DPTR
   \   0001E7   EF           MOV     A,R7
   \   0001E8   F0           MOVX    @DPTR,A
   2548              msg += 2;
   \   0001E9   E8           MOV     A,R0
   \   0001EA   2402         ADD     A,#0x2
   \   0001EC   F8           MOV     R0,A
   \   0001ED   E9           MOV     A,R1
   \   0001EE   3400         ADDC    A,#0x0
   \   0001F0   F9           MOV     R1,A
   2549              pNDRsp->nodeDesc.MaxOutTransferSize[0] = *msg++;
   \   0001F1   8882         MOV     DPL,R0
   \   0001F3   8983         MOV     DPH,R1
   \   0001F5   E0           MOVX    A,@DPTR
   \   0001F6   C0E0         PUSH    A
   \   0001F8   EC           MOV     A,R4
   \   0001F9   240D         ADD     A,#0xd
   \   0001FB   F582         MOV     DPL,A
   \   0001FD   ED           MOV     A,R5
   \   0001FE   3400         ADDC    A,#0x0
   \   000200   F583         MOV     DPH,A
   \   000202   D0E0         POP     A
   \   000204   F0           MOVX    @DPTR,A
   \   000205   8882         MOV     DPL,R0
   \   000207   8983         MOV     DPH,R1
   \   000209   A3           INC     DPTR
   \   00020A   A882         MOV     R0,DPL
   \   00020C   A983         MOV     R1,DPH
   2550              pNDRsp->nodeDesc.MaxOutTransferSize[1] = *msg++;
   \   00020E   8882         MOV     DPL,R0
   \   000210   8983         MOV     DPH,R1
   \   000212   E0           MOVX    A,@DPTR
   \   000213   C0E0         PUSH    A
   \   000215   EC           MOV     A,R4
   \   000216   240E         ADD     A,#0xe
   \   000218   F582         MOV     DPL,A
   \   00021A   ED           MOV     A,R5
   \   00021B   3400         ADDC    A,#0x0
   \   00021D   F583         MOV     DPH,A
   \   00021F   D0E0         POP     A
   \   000221   F0           MOVX    @DPTR,A
   \   000222   8882         MOV     DPL,R0
   \   000224   8983         MOV     DPH,R1
   \   000226   A3           INC     DPTR
   \   000227   A882         MOV     R0,DPL
   \   000229   A983         MOV     R1,DPH
   2551              pNDRsp->nodeDesc.DescriptorCapability = *msg;
   \   00022B   8882         MOV     DPL,R0
   \   00022D   8983         MOV     DPH,R1
   \   00022F   E0           MOVX    A,@DPTR
   \   000230   C0E0         PUSH    A
   \   000232   EC           MOV     A,R4
   \   000233   240F         ADD     A,#0xf
   \   000235   F582         MOV     DPL,A
   \   000237   ED           MOV     A,R5
   \   000238   3400         ADDC    A,#0x0
   \   00023A   F583         MOV     DPH,A
   \   00023C   D0E0         POP     A
   \   00023E   F0           MOVX    @DPTR,A
   2552            }
   2553          }
   \                     ??ZDO_ParseNodeDescRsp_0:
   \   00023F   7401         MOV     A,#0x1
   \   000241   12....       LCALL   ?DEALLOC_XSTACK8
   \   000244   7F02         MOV     R7,#0x2
   \   000246   02....       LJMP    ?BANKED_LEAVE_XDATA
   2554          
   2555          /*********************************************************************
   2556           * @fn          ZDO_ParesPowerDescRsp
   2557           *
   2558           * @brief       This function parses the Power_Desc_rsp message.
   2559           *
   2560           * @param       inMsg  - incoming message
   2561           * @param       pNPRsp - place to parse the message into
   2562           *
   2563           * @return      none
   2564           */

   \                                 In  segment BANKED_CODE, align 1, keep-with-next
   2565          void ZDO_ParsePowerDescRsp( zdoIncomingMsg_t *inMsg, ZDO_PowerRsp_t *pNPRsp )
   \                     ZDO_ParsePowerDescRsp:
   2566          {
   \   000000   74F4         MOV     A,#-0xc
   \   000002   12....       LCALL   ?BANKED_ENTER_XDATA
   \   000005                ; Saved register size: 12
   \   000005                ; Auto size: 0
   \   000005   EA           MOV     A,R2
   \   000006   FE           MOV     R6,A
   \   000007   EB           MOV     A,R3
   \   000008   FF           MOV     R7,A
   2567            uint8 *msg;
   2568          
   2569            msg = inMsg->asdu;
   \   000009   EE           MOV     A,R6
   \   00000A   2413         ADD     A,#0x13
   \   00000C   F582         MOV     DPL,A
   \   00000E   EF           MOV     A,R7
   \   00000F   3400         ADDC    A,#0x0
   \   000011   F583         MOV     DPH,A
   \   000013   E0           MOVX    A,@DPTR
   \   000014   F8           MOV     R0,A
   \   000015   A3           INC     DPTR
   \   000016   E0           MOVX    A,@DPTR
   \   000017   F9           MOV     R1,A
   \   000018   E8           MOV     A,R0
   \   000019   FA           MOV     R2,A
   \   00001A   E9           MOV     A,R1
   \   00001B   FB           MOV     R3,A
   2570            pNPRsp->status = *msg++;
   \   00001C   8A82         MOV     DPL,R2
   \   00001E   8B83         MOV     DPH,R3
   \   000020   E0           MOVX    A,@DPTR
   \   000021   8C82         MOV     DPL,R4
   \   000023   8D83         MOV     DPH,R5
   \   000025   F0           MOVX    @DPTR,A
   \   000026   8A82         MOV     DPL,R2
   \   000028   8B83         MOV     DPH,R3
   \   00002A   A3           INC     DPTR
   \   00002B   AA82         MOV     R2,DPL
   \   00002D   AB83         MOV     R3,DPH
   2571            pNPRsp->nwkAddr = BUILD_UINT16( msg[0], msg[1] );
   \   00002F   8A82         MOV     DPL,R2
   \   000031   8B83         MOV     DPH,R3
   \   000033   E0           MOVX    A,@DPTR
   \   000034   F5..         MOV     ?V0 + 0,A
   \   000036   75..00       MOV     ?V0 + 1,#0x0
   \   000039   8A82         MOV     DPL,R2
   \   00003B   8B83         MOV     DPH,R3
   \   00003D   A3           INC     DPTR
   \   00003E   E0           MOVX    A,@DPTR
   \   00003F   F8           MOV     R0,A
   \   000040   7900         MOV     R1,#0x0
   \   000042   E4           CLR     A
   \   000043   C8           XCH     A,R0
   \   000044   F9           MOV     R1,A
   \   000045   E5..         MOV     A,?V0 + 0
   \   000047   28           ADD     A,R0
   \   000048   F8           MOV     R0,A
   \   000049   E5..         MOV     A,?V0 + 1
   \   00004B   39           ADDC    A,R1
   \   00004C   F9           MOV     R1,A
   \   00004D   8C82         MOV     DPL,R4
   \   00004F   8D83         MOV     DPH,R5
   \   000051   A3           INC     DPTR
   \   000052   E8           MOV     A,R0
   \   000053   F0           MOVX    @DPTR,A
   \   000054   A3           INC     DPTR
   \   000055   E9           MOV     A,R1
   \   000056   F0           MOVX    @DPTR,A
   2572          
   2573            if ( pNPRsp->status == ZDP_SUCCESS )
   \   000057   8C82         MOV     DPL,R4
   \   000059   8D83         MOV     DPH,R5
   \   00005B   E0           MOVX    A,@DPTR
   \   00005C   6003         JZ      $+5
   \   00005E   02....       LJMP    ??ZDO_ParsePowerDescRsp_0 & 0xFFFF
   2574            {
   2575              msg += 2;
   \   000061   EA           MOV     A,R2
   \   000062   2402         ADD     A,#0x2
   \   000064   FA           MOV     R2,A
   \   000065   EB           MOV     A,R3
   \   000066   3400         ADDC    A,#0x0
   \   000068   FB           MOV     R3,A
   2576              pNPRsp->pwrDesc.AvailablePowerSources = *msg >> 4;
   \   000069   8A82         MOV     DPL,R2
   \   00006B   8B83         MOV     DPH,R3
   \   00006D   E0           MOVX    A,@DPTR
   \   00006E   C4           SWAP    A
   \   00006F   540F         ANL     A,#0xf
   \   000071   F5..         MOV     ?V0 + 2,A
   \   000073   75..00       MOV     ?V0 + 3,#0x0
   \   000076   8C82         MOV     DPL,R4
   \   000078   8D83         MOV     DPH,R5
   \   00007A   A3           INC     DPTR
   \   00007B   A3           INC     DPTR
   \   00007C   A3           INC     DPTR
   \   00007D   E0           MOVX    A,@DPTR
   \   00007E   540F         ANL     A,#0xf
   \   000080   F5..         MOV     ?V0 + 0,A
   \   000082   A3           INC     DPTR
   \   000083   E0           MOVX    A,@DPTR
   \   000084   54FF         ANL     A,#0xff
   \   000086   F5..         MOV     ?V0 + 1,A
   \   000088   7404         MOV     A,#0x4
   \   00008A   78..         MOV     R0,#?V0 + 2
   \   00008C   12....       LCALL   ?S_SHL
   \   00008F   E5..         MOV     A,?V0 + 2
   \   000091   54F0         ANL     A,#0xf0
   \   000093   F8           MOV     R0,A
   \   000094   E5..         MOV     A,?V0 + 3
   \   000096   5400         ANL     A,#0x0
   \   000098   F9           MOV     R1,A
   \   000099   E5..         MOV     A,?V0 + 0
   \   00009B   48           ORL     A,R0
   \   00009C   F8           MOV     R0,A
   \   00009D   E5..         MOV     A,?V0 + 1
   \   00009F   49           ORL     A,R1
   \   0000A0   F9           MOV     R1,A
   \   0000A1   8C82         MOV     DPL,R4
   \   0000A3   8D83         MOV     DPH,R5
   \   0000A5   A3           INC     DPTR
   \   0000A6   A3           INC     DPTR
   \   0000A7   A3           INC     DPTR
   \   0000A8   E8           MOV     A,R0
   \   0000A9   F0           MOVX    @DPTR,A
   \   0000AA   A3           INC     DPTR
   \   0000AB   E9           MOV     A,R1
   \   0000AC   F0           MOVX    @DPTR,A
   2577              pNPRsp->pwrDesc.PowerMode = *msg++ & 0x0F;
   \   0000AD   8A82         MOV     DPL,R2
   \   0000AF   8B83         MOV     DPH,R3
   \   0000B1   E0           MOVX    A,@DPTR
   \   0000B2   F8           MOV     R0,A
   \   0000B3   7900         MOV     R1,#0x0
   \   0000B5   540F         ANL     A,#0xf
   \   0000B7   F8           MOV     R0,A
   \   0000B8   E9           MOV     A,R1
   \   0000B9   5400         ANL     A,#0x0
   \   0000BB   F9           MOV     R1,A
   \   0000BC   8A82         MOV     DPL,R2
   \   0000BE   8B83         MOV     DPH,R3
   \   0000C0   A3           INC     DPTR
   \   0000C1   AA82         MOV     R2,DPL
   \   0000C3   AB83         MOV     R3,DPH
   \   0000C5   8C82         MOV     DPL,R4
   \   0000C7   8D83         MOV     DPH,R5
   \   0000C9   A3           INC     DPTR
   \   0000CA   A3           INC     DPTR
   \   0000CB   A3           INC     DPTR
   \   0000CC   E0           MOVX    A,@DPTR
   \   0000CD   54F0         ANL     A,#0xf0
   \   0000CF   F5..         MOV     ?V0 + 0,A
   \   0000D1   A3           INC     DPTR
   \   0000D2   E0           MOVX    A,@DPTR
   \   0000D3   54FF         ANL     A,#0xff
   \   0000D5   F5..         MOV     ?V0 + 1,A
   \   0000D7   E8           MOV     A,R0
   \   0000D8   540F         ANL     A,#0xf
   \   0000DA   F8           MOV     R0,A
   \   0000DB   E9           MOV     A,R1
   \   0000DC   5400         ANL     A,#0x0
   \   0000DE   F9           MOV     R1,A
   \   0000DF   E5..         MOV     A,?V0 + 0
   \   0000E1   48           ORL     A,R0
   \   0000E2   F8           MOV     R0,A
   \   0000E3   E5..         MOV     A,?V0 + 1
   \   0000E5   49           ORL     A,R1
   \   0000E6   F9           MOV     R1,A
   \   0000E7   8C82         MOV     DPL,R4
   \   0000E9   8D83         MOV     DPH,R5
   \   0000EB   A3           INC     DPTR
   \   0000EC   A3           INC     DPTR
   \   0000ED   A3           INC     DPTR
   \   0000EE   E8           MOV     A,R0
   \   0000EF   F0           MOVX    @DPTR,A
   \   0000F0   A3           INC     DPTR
   \   0000F1   E9           MOV     A,R1
   \   0000F2   F0           MOVX    @DPTR,A
   2578              pNPRsp->pwrDesc.CurrentPowerSourceLevel = *msg >> 4;
   \   0000F3   8A82         MOV     DPL,R2
   \   0000F5   8B83         MOV     DPH,R3
   \   0000F7   E0           MOVX    A,@DPTR
   \   0000F8   C4           SWAP    A
   \   0000F9   540F         ANL     A,#0xf
   \   0000FB   F5..         MOV     ?V0 + 2,A
   \   0000FD   75..00       MOV     ?V0 + 3,#0x0
   \   000100   8C82         MOV     DPL,R4
   \   000102   8D83         MOV     DPH,R5
   \   000104   A3           INC     DPTR
   \   000105   A3           INC     DPTR
   \   000106   A3           INC     DPTR
   \   000107   E0           MOVX    A,@DPTR
   \   000108   54FF         ANL     A,#0xff
   \   00010A   F5..         MOV     ?V0 + 0,A
   \   00010C   A3           INC     DPTR
   \   00010D   E0           MOVX    A,@DPTR
   \   00010E   540F         ANL     A,#0xf
   \   000110   F5..         MOV     ?V0 + 1,A
   \   000112   740C         MOV     A,#0xc
   \   000114   78..         MOV     R0,#?V0 + 2
   \   000116   12....       LCALL   ?S_SHL
   \   000119   E5..         MOV     A,?V0 + 0
   \   00011B   45..         ORL     A,?V0 + 2
   \   00011D   F8           MOV     R0,A
   \   00011E   E5..         MOV     A,?V0 + 1
   \   000120   45..         ORL     A,?V0 + 3
   \   000122   F9           MOV     R1,A
   \   000123   8C82         MOV     DPL,R4
   \   000125   8D83         MOV     DPH,R5
   \   000127   A3           INC     DPTR
   \   000128   A3           INC     DPTR
   \   000129   A3           INC     DPTR
   \   00012A   E8           MOV     A,R0
   \   00012B   F0           MOVX    @DPTR,A
   \   00012C   A3           INC     DPTR
   \   00012D   E9           MOV     A,R1
   \   00012E   F0           MOVX    @DPTR,A
   2579              pNPRsp->pwrDesc.CurrentPowerSource = *msg++ & 0x0F;
   \   00012F   8A82         MOV     DPL,R2
   \   000131   8B83         MOV     DPH,R3
   \   000133   E0           MOVX    A,@DPTR
   \   000134   F8           MOV     R0,A
   \   000135   7900         MOV     R1,#0x0
   \   000137   540F         ANL     A,#0xf
   \   000139   F8           MOV     R0,A
   \   00013A   E9           MOV     A,R1
   \   00013B   5400         ANL     A,#0x0
   \   00013D   F9           MOV     R1,A
   \   00013E   8A82         MOV     DPL,R2
   \   000140   8B83         MOV     DPH,R3
   \   000142   A3           INC     DPTR
   \   000143   AA82         MOV     R2,DPL
   \   000145   AB83         MOV     R3,DPH
   \   000147   8C82         MOV     DPL,R4
   \   000149   8D83         MOV     DPH,R5
   \   00014B   A3           INC     DPTR
   \   00014C   A3           INC     DPTR
   \   00014D   A3           INC     DPTR
   \   00014E   E0           MOVX    A,@DPTR
   \   00014F   54FF         ANL     A,#0xff
   \   000151   F5..         MOV     ?V0 + 0,A
   \   000153   A3           INC     DPTR
   \   000154   E0           MOVX    A,@DPTR
   \   000155   54F0         ANL     A,#0xf0
   \   000157   F5..         MOV     ?V0 + 1,A
   \   000159   E4           CLR     A
   \   00015A   C8           XCH     A,R0
   \   00015B   F9           MOV     R1,A
   \   00015C   E8           MOV     A,R0
   \   00015D   5400         ANL     A,#0x0
   \   00015F   F8           MOV     R0,A
   \   000160   E9           MOV     A,R1
   \   000161   540F         ANL     A,#0xf
   \   000163   F9           MOV     R1,A
   \   000164   E5..         MOV     A,?V0 + 0
   \   000166   48           ORL     A,R0
   \   000167   F8           MOV     R0,A
   \   000168   E5..         MOV     A,?V0 + 1
   \   00016A   49           ORL     A,R1
   \   00016B   F9           MOV     R1,A
   \   00016C   8C82         MOV     DPL,R4
   \   00016E   8D83         MOV     DPH,R5
   \   000170   A3           INC     DPTR
   \   000171   A3           INC     DPTR
   \   000172   A3           INC     DPTR
   \   000173   E8           MOV     A,R0
   \   000174   F0           MOVX    @DPTR,A
   \   000175   A3           INC     DPTR
   \   000176   E9           MOV     A,R1
   \   000177   F0           MOVX    @DPTR,A
   2580            }
   2581          }
   \                     ??ZDO_ParsePowerDescRsp_0:
   \   000178   7F04         MOV     R7,#0x4
   \   00017A   02....       LJMP    ?BANKED_LEAVE_XDATA
   2582          
   2583          /*********************************************************************
   2584           * @fn          ZDO_ParseSimpleDescRsp
   2585           *
   2586           * @brief       This function parse the Simple_Desc_rsp message.
   2587           *
   2588           *   NOTE: The pAppInClusterList and pAppOutClusterList fields
   2589           *         in the SimpleDescriptionFormat_t structure are allocated
   2590           *         and the calling function needs to free [osal_msg_free()]
   2591           *         these buffers.
   2592           *
   2593           * @param       inMsg  - incoming message
   2594           * @param       pSimpleDescRsp - place to parse the message into
   2595           *
   2596           * @return      none
   2597           */

   \                                 In  segment BANKED_CODE, align 1, keep-with-next
   2598          void ZDO_ParseSimpleDescRsp( zdoIncomingMsg_t *inMsg, ZDO_SimpleDescRsp_t *pSimpleDescRsp )
   \                     ZDO_ParseSimpleDescRsp:
   2599          {
   \   000000   74F4         MOV     A,#-0xc
   \   000002   12....       LCALL   ?BANKED_ENTER_XDATA
   \   000005                ; Saved register size: 12
   \   000005                ; Auto size: 0
   \   000005   8A..         MOV     ?V0 + 0,R2
   \   000007   8B..         MOV     ?V0 + 1,R3
   \   000009   8C..         MOV     ?V0 + 2,R4
   \   00000B   8D..         MOV     ?V0 + 3,R5
   2600            uint8 *msg;
   2601          
   2602            msg = inMsg->asdu;
   \   00000D   E5..         MOV     A,?V0 + 0
   \   00000F   2413         ADD     A,#0x13
   \   000011   F582         MOV     DPL,A
   \   000013   E5..         MOV     A,?V0 + 1
   \   000015   3400         ADDC    A,#0x0
   \   000017   F583         MOV     DPH,A
   \   000019   E0           MOVX    A,@DPTR
   \   00001A   F8           MOV     R0,A
   \   00001B   A3           INC     DPTR
   \   00001C   E0           MOVX    A,@DPTR
   \   00001D   F9           MOV     R1,A
   \   00001E   E8           MOV     A,R0
   \   00001F   FE           MOV     R6,A
   \   000020   E9           MOV     A,R1
   \   000021   FF           MOV     R7,A
   2603            pSimpleDescRsp->status = *msg++;
   \   000022   8E82         MOV     DPL,R6
   \   000024   8F83         MOV     DPH,R7
   \   000026   E0           MOVX    A,@DPTR
   \   000027   85..82       MOV     DPL,?V0 + 2
   \   00002A   85..83       MOV     DPH,?V0 + 3
   \   00002D   F0           MOVX    @DPTR,A
   \   00002E   8E82         MOV     DPL,R6
   \   000030   8F83         MOV     DPH,R7
   \   000032   A3           INC     DPTR
   \   000033   AE82         MOV     R6,DPL
   \   000035   AF83         MOV     R7,DPH
   2604            pSimpleDescRsp->nwkAddr = BUILD_UINT16( msg[0], msg[1] );
   \   000037   8E82         MOV     DPL,R6
   \   000039   8F83         MOV     DPH,R7
   \   00003B   E0           MOVX    A,@DPTR
   \   00003C   FA           MOV     R2,A
   \   00003D   7B00         MOV     R3,#0x0
   \   00003F   8E82         MOV     DPL,R6
   \   000041   8F83         MOV     DPH,R7
   \   000043   A3           INC     DPTR
   \   000044   E0           MOVX    A,@DPTR
   \   000045   F8           MOV     R0,A
   \   000046   7900         MOV     R1,#0x0
   \   000048   E4           CLR     A
   \   000049   C8           XCH     A,R0
   \   00004A   F9           MOV     R1,A
   \   00004B   EA           MOV     A,R2
   \   00004C   28           ADD     A,R0
   \   00004D   F8           MOV     R0,A
   \   00004E   EB           MOV     A,R3
   \   00004F   39           ADDC    A,R1
   \   000050   F9           MOV     R1,A
   \   000051   85..82       MOV     DPL,?V0 + 2
   \   000054   85..83       MOV     DPH,?V0 + 3
   \   000057   A3           INC     DPTR
   \   000058   E8           MOV     A,R0
   \   000059   F0           MOVX    @DPTR,A
   \   00005A   A3           INC     DPTR
   \   00005B   E9           MOV     A,R1
   \   00005C   F0           MOVX    @DPTR,A
   2605            msg += sizeof ( uint16 );
   \   00005D   EE           MOV     A,R6
   \   00005E   2402         ADD     A,#0x2
   \   000060   FE           MOV     R6,A
   \   000061   EF           MOV     A,R7
   \   000062   3400         ADDC    A,#0x0
   \   000064   FF           MOV     R7,A
   2606            msg++; // Skip past the length field.
   \   000065   8E82         MOV     DPL,R6
   \   000067   8F83         MOV     DPH,R7
   \   000069   A3           INC     DPTR
   \   00006A   AE82         MOV     R6,DPL
   \   00006C   AF83         MOV     R7,DPH
   2607          
   2608            if ( pSimpleDescRsp->status == ZDP_SUCCESS )
   \   00006E   85..82       MOV     DPL,?V0 + 2
   \   000071   85..83       MOV     DPH,?V0 + 3
   \   000074   E0           MOVX    A,@DPTR
   \   000075   7012         JNZ     ??ZDO_ParseSimpleDescRsp_0
   2609            {
   2610              ZDO_ParseSimpleDescBuf( msg, &(pSimpleDescRsp->simpleDesc) );
   \   000077                ; Setup parameters for call to function ZDO_ParseSimpleDescBuf
   \   000077   E5..         MOV     A,?V0 + 2
   \   000079   2403         ADD     A,#0x3
   \   00007B   FC           MOV     R4,A
   \   00007C   E5..         MOV     A,?V0 + 3
   \   00007E   3400         ADDC    A,#0x0
   \   000080   FD           MOV     R5,A
   \   000081   EE           MOV     A,R6
   \   000082   FA           MOV     R2,A
   \   000083   EF           MOV     A,R7
   \   000084   FB           MOV     R3,A
   \   000085   12....       LCALL   ??ZDO_ParseSimpleDescBuf?relay
   \   000088   E9           MOV     A,R1
   2611            }
   2612          }
   \                     ??ZDO_ParseSimpleDescRsp_0:
   \   000089   7F04         MOV     R7,#0x4
   \   00008B   02....       LJMP    ?BANKED_LEAVE_XDATA
   2613          
   2614          /*********************************************************************
   2615           * @fn          ZDO_ParseEPListRsp
   2616           *
   2617           * @brief       This parse the Active_EP_rsp or Match_Desc_rsp message.
   2618           *
   2619           * @param       inMsg  - incoming message
   2620           *
   2621           * @return      none
   2622           */

   \                                 In  segment BANKED_CODE, align 1, keep-with-next
   2623          ZDO_ActiveEndpointRsp_t *ZDO_ParseEPListRsp( zdoIncomingMsg_t *inMsg )
   \                     ZDO_ParseEPListRsp:
   2624          {
   \   000000   74EF         MOV     A,#-0x11
   \   000002   12....       LCALL   ?BANKED_ENTER_XDATA
   \   000005                ; Saved register size: 17
   \   000005                ; Auto size: 0
   \   000005   8A..         MOV     ?V0 + 2,R2
   \   000007   8B..         MOV     ?V0 + 3,R3
   2625            ZDO_ActiveEndpointRsp_t *pRsp;
   2626            uint8 *msg;
   2627            uint8 Status;
   2628            uint8 cnt;
   2629          
   2630            msg = inMsg->asdu;
   \   000009   E5..         MOV     A,?V0 + 2
   \   00000B   2413         ADD     A,#0x13
   \   00000D   F582         MOV     DPL,A
   \   00000F   E5..         MOV     A,?V0 + 3
   \   000011   3400         ADDC    A,#0x0
   \   000013   F583         MOV     DPH,A
   \   000015   E0           MOVX    A,@DPTR
   \   000016   F8           MOV     R0,A
   \   000017   A3           INC     DPTR
   \   000018   E0           MOVX    A,@DPTR
   \   000019   F9           MOV     R1,A
   \   00001A   E8           MOV     A,R0
   \   00001B   FE           MOV     R6,A
   \   00001C   E9           MOV     A,R1
   \   00001D   FF           MOV     R7,A
   2631            Status = *msg++;
   \   00001E   8E82         MOV     DPL,R6
   \   000020   8F83         MOV     DPH,R7
   \   000022   E0           MOVX    A,@DPTR
   \   000023   F5..         MOV     ?V0 + 7,A
   \   000025   8E82         MOV     DPL,R6
   \   000027   8F83         MOV     DPH,R7
   \   000029   A3           INC     DPTR
   \   00002A   AE82         MOV     R6,DPL
   \   00002C   AF83         MOV     R7,DPH
   2632            cnt = msg[2];
   \   00002E   8E82         MOV     DPL,R6
   \   000030   8F83         MOV     DPH,R7
   \   000032   A3           INC     DPTR
   \   000033   A3           INC     DPTR
   \   000034   E0           MOVX    A,@DPTR
   \   000035   F5..         MOV     ?V0 + 8,A
   2633          
   2634            pRsp = (ZDO_ActiveEndpointRsp_t *)osal_mem_alloc( sizeof(  ZDO_ActiveEndpointRsp_t ) + cnt );
   \   000037                ; Setup parameters for call to function osal_mem_alloc
   \   000037   85....       MOV     ?V0 + 4,?V0 + 8
   \   00003A   75..00       MOV     ?V0 + 5,#0x0
   \   00003D   E5..         MOV     A,?V0 + 4
   \   00003F   2404         ADD     A,#0x4
   \   000041   FA           MOV     R2,A
   \   000042   E5..         MOV     A,?V0 + 5
   \   000044   3400         ADDC    A,#0x0
   \   000046   FB           MOV     R3,A
   \   000047   12....       LCALL   ??osal_mem_alloc?relay
   \   00004A   8A..         MOV     ?V0 + 4,R2
   \   00004C   8B..         MOV     ?V0 + 5,R3
   \   00004E   85....       MOV     ?V0 + 0,?V0 + 4
   \   000051   85....       MOV     ?V0 + 1,?V0 + 5
   2635            if ( pRsp )
   \   000054   E5..         MOV     A,?V0 + 0
   \   000056   45..         ORL     A,?V0 + 1
   \   000058   6078         JZ      ??ZDO_ParseEPListRsp_0
   2636            {
   2637              pRsp->status = Status;
   \   00005A   E5..         MOV     A,?V0 + 7
   \   00005C   85..82       MOV     DPL,?V0 + 0
   \   00005F   85..83       MOV     DPH,?V0 + 1
   \   000062   E5..         MOV     A,?V0 + 7
   \   000064   F0           MOVX    @DPTR,A
   2638              pRsp->nwkAddr = BUILD_UINT16( msg[0], msg[1] );
   \   000065   8E82         MOV     DPL,R6
   \   000067   8F83         MOV     DPH,R7
   \   000069   E0           MOVX    A,@DPTR
   \   00006A   FA           MOV     R2,A
   \   00006B   7B00         MOV     R3,#0x0
   \   00006D   8E82         MOV     DPL,R6
   \   00006F   8F83         MOV     DPH,R7
   \   000071   A3           INC     DPTR
   \   000072   E0           MOVX    A,@DPTR
   \   000073   F8           MOV     R0,A
   \   000074   7900         MOV     R1,#0x0
   \   000076   E4           CLR     A
   \   000077   C8           XCH     A,R0
   \   000078   F9           MOV     R1,A
   \   000079   EA           MOV     A,R2
   \   00007A   28           ADD     A,R0
   \   00007B   F8           MOV     R0,A
   \   00007C   EB           MOV     A,R3
   \   00007D   39           ADDC    A,R1
   \   00007E   F9           MOV     R1,A
   \   00007F   85..82       MOV     DPL,?V0 + 0
   \   000082   85..83       MOV     DPH,?V0 + 1
   \   000085   A3           INC     DPTR
   \   000086   E8           MOV     A,R0
   \   000087   F0           MOVX    @DPTR,A
   \   000088   A3           INC     DPTR
   \   000089   E9           MOV     A,R1
   \   00008A   F0           MOVX    @DPTR,A
   2639              msg += sizeof( uint16 );
   \   00008B   EE           MOV     A,R6
   \   00008C   2402         ADD     A,#0x2
   \   00008E   FE           MOV     R6,A
   \   00008F   EF           MOV     A,R7
   \   000090   3400         ADDC    A,#0x0
   \   000092   FF           MOV     R7,A
   2640              pRsp->cnt = cnt;
   \   000093   E5..         MOV     A,?V0 + 8
   \   000095   85..82       MOV     DPL,?V0 + 0
   \   000098   85..83       MOV     DPH,?V0 + 1
   \   00009B   A3           INC     DPTR
   \   00009C   A3           INC     DPTR
   \   00009D   A3           INC     DPTR
   \   00009E   E5..         MOV     A,?V0 + 8
   \   0000A0   F0           MOVX    @DPTR,A
   2641              msg++; // pass cnt
   \   0000A1   8E82         MOV     DPL,R6
   \   0000A3   8F83         MOV     DPH,R7
   \   0000A5   A3           INC     DPTR
   \   0000A6   AE82         MOV     R6,DPL
   \   0000A8   AF83         MOV     R7,DPH
   2642              osal_memcpy( pRsp->epList, msg, cnt );
   \   0000AA                ; Setup parameters for call to function osal_memcpy
   \   0000AA   8E..         MOV     ?V0 + 4,R6
   \   0000AC   8F..         MOV     ?V0 + 5,R7
   \   0000AE   75..00       MOV     ?V0 + 6,#0x0
   \   0000B1   78..         MOV     R0,#?V0 + 4
   \   0000B3   12....       LCALL   ?PUSH_XSTACK_I_THREE
   \   0000B6   85....       MOV     ?V0 + 4,?V0 + 8
   \   0000B9   75..00       MOV     ?V0 + 5,#0x0
   \   0000BC   AC..         MOV     R4,?V0 + 4
   \   0000BE   AD..         MOV     R5,?V0 + 5
   \   0000C0   E5..         MOV     A,?V0 + 0
   \   0000C2   2404         ADD     A,#0x4
   \   0000C4   FA           MOV     R2,A
   \   0000C5   E5..         MOV     A,?V0 + 1
   \   0000C7   3400         ADDC    A,#0x0
   \   0000C9   FB           MOV     R3,A
   \   0000CA   12....       LCALL   ??osal_memcpy?relay
   \   0000CD   7403         MOV     A,#0x3
   \   0000CF   12....       LCALL   ?DEALLOC_XSTACK8
   2643            }
   2644          
   2645            return ( pRsp );
   \                     ??ZDO_ParseEPListRsp_0:
   \   0000D2   AA..         MOV     R2,?V0 + 0
   \   0000D4   AB..         MOV     R3,?V0 + 1
   \   0000D6   7F09         MOV     R7,#0x9
   \   0000D8   02....       LJMP    ?BANKED_LEAVE_XDATA
   2646          }
   2647          
   2648          /*********************************************************************
   2649           * @fn          ZDO_ParseServerDiscRsp
   2650           *
   2651           * @brief       Parse the Server_Discovery_rsp message.
   2652           *
   2653           * @param       inMsg - incoming message.
   2654           * @param       pRsp - place to put the parsed information.
   2655           *
   2656           * @return      none
   2657           */

   \                                 In  segment BANKED_CODE, align 1, keep-with-next
   2658          void ZDO_ParseServerDiscRsp( zdoIncomingMsg_t *inMsg, ZDO_ServerDiscRsp_t *pRsp )
   \                     ZDO_ParseServerDiscRsp:
   2659          {
   \   000000   74F7         MOV     A,#-0x9
   \   000002   12....       LCALL   ?BANKED_ENTER_XDATA
   \   000005                ; Saved register size: 9
   \   000005                ; Auto size: 0
   2660            pRsp->status = inMsg->asdu[0];
   \   000005   EA           MOV     A,R2
   \   000006   2413         ADD     A,#0x13
   \   000008   F582         MOV     DPL,A
   \   00000A   EB           MOV     A,R3
   \   00000B   3400         ADDC    A,#0x0
   \   00000D   F583         MOV     DPH,A
   \   00000F   E0           MOVX    A,@DPTR
   \   000010   F8           MOV     R0,A
   \   000011   A3           INC     DPTR
   \   000012   E0           MOVX    A,@DPTR
   \   000013   F583         MOV     DPH,A
   \   000015   8882         MOV     DPL,R0
   \   000017   E0           MOVX    A,@DPTR
   \   000018   8C82         MOV     DPL,R4
   \   00001A   8D83         MOV     DPH,R5
   \   00001C   F0           MOVX    @DPTR,A
   2661            pRsp->serverMask = BUILD_UINT16( inMsg->asdu[1], inMsg->asdu[2] );
   \   00001D   EA           MOV     A,R2
   \   00001E   2413         ADD     A,#0x13
   \   000020   F582         MOV     DPL,A
   \   000022   EB           MOV     A,R3
   \   000023   3400         ADDC    A,#0x0
   \   000025   F583         MOV     DPH,A
   \   000027   E0           MOVX    A,@DPTR
   \   000028   F8           MOV     R0,A
   \   000029   A3           INC     DPTR
   \   00002A   E0           MOVX    A,@DPTR
   \   00002B   F583         MOV     DPH,A
   \   00002D   8882         MOV     DPL,R0
   \   00002F   A3           INC     DPTR
   \   000030   E0           MOVX    A,@DPTR
   \   000031   FE           MOV     R6,A
   \   000032   7F00         MOV     R7,#0x0
   \   000034   EA           MOV     A,R2
   \   000035   2413         ADD     A,#0x13
   \   000037   F582         MOV     DPL,A
   \   000039   EB           MOV     A,R3
   \   00003A   3400         ADDC    A,#0x0
   \   00003C   F583         MOV     DPH,A
   \   00003E   E0           MOVX    A,@DPTR
   \   00003F   F8           MOV     R0,A
   \   000040   A3           INC     DPTR
   \   000041   E0           MOVX    A,@DPTR
   \   000042   F583         MOV     DPH,A
   \   000044   8882         MOV     DPL,R0
   \   000046   A3           INC     DPTR
   \   000047   A3           INC     DPTR
   \   000048   E0           MOVX    A,@DPTR
   \   000049   F8           MOV     R0,A
   \   00004A   7900         MOV     R1,#0x0
   \   00004C   E4           CLR     A
   \   00004D   C8           XCH     A,R0
   \   00004E   F9           MOV     R1,A
   \   00004F   EE           MOV     A,R6
   \   000050   28           ADD     A,R0
   \   000051   F8           MOV     R0,A
   \   000052   EF           MOV     A,R7
   \   000053   39           ADDC    A,R1
   \   000054   F9           MOV     R1,A
   \   000055   8C82         MOV     DPL,R4
   \   000057   8D83         MOV     DPH,R5
   \   000059   A3           INC     DPTR
   \   00005A   E8           MOV     A,R0
   \   00005B   F0           MOVX    @DPTR,A
   \   00005C   A3           INC     DPTR
   \   00005D   E9           MOV     A,R1
   \   00005E   F0           MOVX    @DPTR,A
   2662          }
   \   00005F   7F01         MOV     R7,#0x1
   \   000061   02....       LJMP    ?BANKED_LEAVE_XDATA
   2663          
   2664          /*********************************************************************
   2665           * @fn          ZDO_ParseMgmtLqiRsp
   2666           *
   2667           * @brief       This function parses the incoming Management
   2668           *              LQI response
   2669           *
   2670           * @param       inMsg - incoming message
   2671           *
   2672           * @return      a pointer to parsed response structure (NULL if not allocated).
   2673           *          This structure was allocated using osal_mem_alloc, so it must be freed
   2674           *          by the calling function [osal_mem_free()].
   2675           */

   \                                 In  segment BANKED_CODE, align 1, keep-with-next
   2676          ZDO_MgmtLqiRsp_t *ZDO_ParseMgmtLqiRsp( zdoIncomingMsg_t *inMsg )
   \                     ZDO_ParseMgmtLqiRsp:
   2677          {
   \   000000   74EC         MOV     A,#-0x14
   \   000002   12....       LCALL   ?BANKED_ENTER_XDATA
   \   000005                ; Saved register size: 20
   \   000005                ; Auto size: 0
   \   000005   8A..         MOV     ?V0 + 10,R2
   \   000007   8B..         MOV     ?V0 + 11,R3
   2678            ZDO_MgmtLqiRsp_t *pRsp;
   2679            uint8 status;
   2680            uint8 startIndex = 0;
   \   000009   75..00       MOV     ?V0 + 6,#0x0
   2681            uint8 neighborLqiCount = 0;
   \   00000C   75..00       MOV     ?V0 + 4,#0x0
   2682            uint8 neighborLqiEntries = 0;
   \   00000F   75..00       MOV     ?V0 + 5,#0x0
   2683            uint8 *msg;
   2684          
   2685            msg = inMsg->asdu;
   \   000012   E5..         MOV     A,?V0 + 10
   \   000014   2413         ADD     A,#0x13
   \   000016   F582         MOV     DPL,A
   \   000018   E5..         MOV     A,?V0 + 11
   \   00001A   3400         ADDC    A,#0x0
   \   00001C   F583         MOV     DPH,A
   \   00001E   E0           MOVX    A,@DPTR
   \   00001F   F8           MOV     R0,A
   \   000020   A3           INC     DPTR
   \   000021   E0           MOVX    A,@DPTR
   \   000022   F9           MOV     R1,A
   \   000023   88..         MOV     ?V0 + 2,R0
   \   000025   89..         MOV     ?V0 + 3,R1
   2686          
   2687            status = *msg++;
   \   000027   85..82       MOV     DPL,?V0 + 2
   \   00002A   85..83       MOV     DPH,?V0 + 3
   \   00002D   E0           MOVX    A,@DPTR
   \   00002E   F5..         MOV     ?V0 + 8,A
   \   000030   85..82       MOV     DPL,?V0 + 2
   \   000033   85..83       MOV     DPH,?V0 + 3
   \   000036   A3           INC     DPTR
   \   000037   8582..       MOV     ?V0 + 2,DPL
   \   00003A   8583..       MOV     ?V0 + 3,DPH
   2688            if ( status == ZSuccess )
   \   00003D   E5..         MOV     A,?V0 + 8
   \   00003F   7042         JNZ     ??ZDO_ParseMgmtLqiRsp_0
   2689            {
   2690              neighborLqiEntries = *msg++;
   \   000041   85..82       MOV     DPL,?V0 + 2
   \   000044   85..83       MOV     DPH,?V0 + 3
   \   000047   E0           MOVX    A,@DPTR
   \   000048   F5..         MOV     ?V0 + 5,A
   \   00004A   85..82       MOV     DPL,?V0 + 2
   \   00004D   85..83       MOV     DPH,?V0 + 3
   \   000050   A3           INC     DPTR
   \   000051   8582..       MOV     ?V0 + 2,DPL
   \   000054   8583..       MOV     ?V0 + 3,DPH
   2691              startIndex = *msg++;
   \   000057   85..82       MOV     DPL,?V0 + 2
   \   00005A   85..83       MOV     DPH,?V0 + 3
   \   00005D   E0           MOVX    A,@DPTR
   \   00005E   F5..         MOV     ?V0 + 6,A
   \   000060   85..82       MOV     DPL,?V0 + 2
   \   000063   85..83       MOV     DPH,?V0 + 3
   \   000066   A3           INC     DPTR
   \   000067   8582..       MOV     ?V0 + 2,DPL
   \   00006A   8583..       MOV     ?V0 + 3,DPH
   2692              neighborLqiCount = *msg++;
   \   00006D   85..82       MOV     DPL,?V0 + 2
   \   000070   85..83       MOV     DPH,?V0 + 3
   \   000073   E0           MOVX    A,@DPTR
   \   000074   F5..         MOV     ?V0 + 4,A
   \   000076   85..82       MOV     DPL,?V0 + 2
   \   000079   85..83       MOV     DPH,?V0 + 3
   \   00007C   A3           INC     DPTR
   \   00007D   8582..       MOV     ?V0 + 2,DPL
   \   000080   8583..       MOV     ?V0 + 3,DPH
   2693            }
   2694          
   2695            // Allocate a buffer big enough to handle the list.
   2696            pRsp = (ZDO_MgmtLqiRsp_t *)osal_mem_alloc(
   2697                      sizeof( ZDO_MgmtLqiRsp_t ) + (neighborLqiCount * sizeof( neighborLqiItem_t )) );
   \                     ??ZDO_ParseMgmtLqiRsp_0:
   \   000083                ; Setup parameters for call to function osal_mem_alloc
   \   000083   E5..         MOV     A,?V0 + 4
   \   000085   A8..         MOV     R0,?V0 + 4
   \   000087   7900         MOV     R1,#0x0
   \   000089   E8           MOV     A,R0
   \   00008A   75F00E       MOV     B,#0xe
   \   00008D   A4           MUL     AB
   \   00008E   C8           XCH     A,R0
   \   00008F   AAF0         MOV     R2,B
   \   000091   75F000       MOV     B,#0x0
   \   000094   A4           MUL     AB
   \   000095   2A           ADD     A,R2
   \   000096   FA           MOV     R2,A
   \   000097   75F00E       MOV     B,#0xe
   \   00009A   E9           MOV     A,R1
   \   00009B   A4           MUL     AB
   \   00009C   2A           ADD     A,R2
   \   00009D   F9           MOV     R1,A
   \   00009E   E8           MOV     A,R0
   \   00009F   2404         ADD     A,#0x4
   \   0000A1   FA           MOV     R2,A
   \   0000A2   E9           MOV     A,R1
   \   0000A3   3400         ADDC    A,#0x0
   \   0000A5   FB           MOV     R3,A
   \   0000A6   12....       LCALL   ??osal_mem_alloc?relay
   \   0000A9   8A..         MOV     ?V0 + 0,R2
   \   0000AB   8B..         MOV     ?V0 + 1,R3
   \   0000AD   AE..         MOV     R6,?V0 + 0
   \   0000AF   AF..         MOV     R7,?V0 + 1
   2698            if ( pRsp )
   \   0000B1   EE           MOV     A,R6
   \   0000B2   4F           ORL     A,R7
   \   0000B3   7003         JNZ     $+5
   \   0000B5   02....       LJMP    ??ZDO_ParseMgmtLqiRsp_1 & 0xFFFF
   2699            {
   2700              uint8 x;
   2701              neighborLqiItem_t *pList = pRsp->list;
   \   0000B8   EE           MOV     A,R6
   \   0000B9   2404         ADD     A,#0x4
   \   0000BB   F5..         MOV     ?V0 + 0,A
   \   0000BD   EF           MOV     A,R7
   \   0000BE   3400         ADDC    A,#0x0
   \   0000C0   F5..         MOV     ?V0 + 1,A
   2702              pRsp->status = status;
   \   0000C2   E5..         MOV     A,?V0 + 8
   \   0000C4   8E82         MOV     DPL,R6
   \   0000C6   8F83         MOV     DPH,R7
   \   0000C8   E5..         MOV     A,?V0 + 8
   \   0000CA   F0           MOVX    @DPTR,A
   2703              pRsp->neighborLqiEntries = neighborLqiEntries;
   \   0000CB   E5..         MOV     A,?V0 + 5
   \   0000CD   8E82         MOV     DPL,R6
   \   0000CF   8F83         MOV     DPH,R7
   \   0000D1   A3           INC     DPTR
   \   0000D2   E5..         MOV     A,?V0 + 5
   \   0000D4   F0           MOVX    @DPTR,A
   2704              pRsp->startIndex = startIndex;
   \   0000D5   E5..         MOV     A,?V0 + 6
   \   0000D7   8E82         MOV     DPL,R6
   \   0000D9   8F83         MOV     DPH,R7
   \   0000DB   A3           INC     DPTR
   \   0000DC   A3           INC     DPTR
   \   0000DD   E5..         MOV     A,?V0 + 6
   \   0000DF   F0           MOVX    @DPTR,A
   2705              pRsp->neighborLqiCount = neighborLqiCount;
   \   0000E0   E5..         MOV     A,?V0 + 4
   \   0000E2   8E82         MOV     DPL,R6
   \   0000E4   8F83         MOV     DPH,R7
   \   0000E6   A3           INC     DPTR
   \   0000E7   A3           INC     DPTR
   \   0000E8   A3           INC     DPTR
   \   0000E9   E5..         MOV     A,?V0 + 4
   \   0000EB   F0           MOVX    @DPTR,A
   2706          
   2707              for ( x = 0; x < neighborLqiCount; x++ )
   \   0000EC   75..00       MOV     ?V0 + 7,#0x0
   \                     ??ZDO_ParseMgmtLqiRsp_2:
   \   0000EF   E5..         MOV     A,?V0 + 7
   \   0000F1   C3           CLR     C
   \   0000F2   95..         SUBB    A,?V0 + 4
   \   0000F4   4003         JC      $+5
   \   0000F6   02....       LJMP    ??ZDO_ParseMgmtLqiRsp_1 & 0xFFFF
   2708              {
   2709                osal_cpyExtAddr(pList->extPANId, msg);   //Copy extended PAN ID
   \   0000F9                ; Setup parameters for call to function sAddrExtCpy
   \   0000F9   AC..         MOV     R4,?V0 + 2
   \   0000FB   AD..         MOV     R5,?V0 + 3
   \   0000FD   E5..         MOV     A,?V0 + 0
   \   0000FF   2404         ADD     A,#0x4
   \   000101   FA           MOV     R2,A
   \   000102   E5..         MOV     A,?V0 + 1
   \   000104   3400         ADDC    A,#0x0
   \   000106   FB           MOV     R3,A
   \   000107   12....       LCALL   ??sAddrExtCpy?relay
   2710                msg += Z_EXTADDR_LEN;
   \   00010A   E5..         MOV     A,?V0 + 2
   \   00010C   2408         ADD     A,#0x8
   \   00010E   F5..         MOV     ?V0 + 2,A
   \   000110   E5..         MOV     A,?V0 + 3
   \   000112   3400         ADDC    A,#0x0
   \   000114   F5..         MOV     ?V0 + 3,A
   2711          
   2712                msg += Z_EXTADDR_LEN;  // Throwing away IEEE.
   \   000116   E5..         MOV     A,?V0 + 2
   \   000118   2408         ADD     A,#0x8
   \   00011A   F5..         MOV     ?V0 + 2,A
   \   00011C   E5..         MOV     A,?V0 + 3
   \   00011E   3400         ADDC    A,#0x0
   \   000120   F5..         MOV     ?V0 + 3,A
   2713                pList->nwkAddr = BUILD_UINT16( msg[0], msg[1] );
   \   000122   85..82       MOV     DPL,?V0 + 2
   \   000125   85..83       MOV     DPH,?V0 + 3
   \   000128   E0           MOVX    A,@DPTR
   \   000129   FA           MOV     R2,A
   \   00012A   7B00         MOV     R3,#0x0
   \   00012C   85..82       MOV     DPL,?V0 + 2
   \   00012F   85..83       MOV     DPH,?V0 + 3
   \   000132   A3           INC     DPTR
   \   000133   E0           MOVX    A,@DPTR
   \   000134   F8           MOV     R0,A
   \   000135   7900         MOV     R1,#0x0
   \   000137   E4           CLR     A
   \   000138   C8           XCH     A,R0
   \   000139   F9           MOV     R1,A
   \   00013A   EA           MOV     A,R2
   \   00013B   28           ADD     A,R0
   \   00013C   F8           MOV     R0,A
   \   00013D   EB           MOV     A,R3
   \   00013E   39           ADDC    A,R1
   \   00013F   F9           MOV     R1,A
   \   000140   85..82       MOV     DPL,?V0 + 0
   \   000143   85..83       MOV     DPH,?V0 + 1
   \   000146   E8           MOV     A,R0
   \   000147   F0           MOVX    @DPTR,A
   \   000148   A3           INC     DPTR
   \   000149   E9           MOV     A,R1
   \   00014A   F0           MOVX    @DPTR,A
   2714                msg += 2 + 1 + 1 + 1;      // Skip DeviceType, RxOnIdle, Rlationship, PermitJoining and Depth
   \   00014B   E5..         MOV     A,?V0 + 2
   \   00014D   2405         ADD     A,#0x5
   \   00014F   F5..         MOV     ?V0 + 2,A
   \   000151   E5..         MOV     A,?V0 + 3
   \   000153   3400         ADDC    A,#0x0
   \   000155   F5..         MOV     ?V0 + 3,A
   2715                pList->rxLqi = *msg++;
   \   000157   85..82       MOV     DPL,?V0 + 2
   \   00015A   85..83       MOV     DPH,?V0 + 3
   \   00015D   E0           MOVX    A,@DPTR
   \   00015E   C0E0         PUSH    A
   \   000160   E5..         MOV     A,?V0 + 0
   \   000162   240D         ADD     A,#0xd
   \   000164   F582         MOV     DPL,A
   \   000166   E5..         MOV     A,?V0 + 1
   \   000168   3400         ADDC    A,#0x0
   \   00016A   F583         MOV     DPH,A
   \   00016C   D0E0         POP     A
   \   00016E   F0           MOVX    @DPTR,A
   \   00016F   85..82       MOV     DPL,?V0 + 2
   \   000172   85..83       MOV     DPH,?V0 + 3
   \   000175   A3           INC     DPTR
   \   000176   8582..       MOV     ?V0 + 2,DPL
   \   000179   8583..       MOV     ?V0 + 3,DPH
   2716                pList->txQuality = 0;  // This is not specified OTA by ZigBee 1.1.
   \   00017C   E5..         MOV     A,?V0 + 0
   \   00017E   240C         ADD     A,#0xc
   \   000180   F582         MOV     DPL,A
   \   000182   E5..         MOV     A,?V0 + 1
   \   000184   3400         ADDC    A,#0x0
   \   000186   F583         MOV     DPH,A
   \   000188   7400         MOV     A,#0x0
   \   00018A   F0           MOVX    @DPTR,A
   2717                pList++;
   \   00018B   E5..         MOV     A,?V0 + 0
   \   00018D   240E         ADD     A,#0xe
   \   00018F   F5..         MOV     ?V0 + 0,A
   \   000191   E5..         MOV     A,?V0 + 1
   \   000193   3400         ADDC    A,#0x0
   \   000195   F5..         MOV     ?V0 + 1,A
   2718              }
   \   000197   05..         INC     ?V0 + 7
   \   000199   02....       LJMP    ??ZDO_ParseMgmtLqiRsp_2 & 0xFFFF
   2719            }
   2720          
   2721            return ( pRsp );
   \                     ??ZDO_ParseMgmtLqiRsp_1:
   \   00019C   EE           MOV     A,R6
   \   00019D   FA           MOV     R2,A
   \   00019E   EF           MOV     A,R7
   \   00019F   FB           MOV     R3,A
   \   0001A0   7F0C         MOV     R7,#0xc
   \   0001A2   02....       LJMP    ?BANKED_LEAVE_XDATA
   2722          }
   2723          
   2724          /*********************************************************************
   2725           * @fn          ZDO_ParseMgmNwkDiscRsp
   2726           *
   2727           * @brief       This function parses the incoming Management
   2728           *              Network Discover response.
   2729           *
   2730           * @param       inMsg - incoming message
   2731           *
   2732           * @return      pointer to parsed response.  This structure was
   2733           *          allocated using osal_mem_alloc, so it must be freed
   2734           *          by the calling function [osal_mem_free()].
   2735           */

   \                                 In  segment BANKED_CODE, align 1, keep-with-next
   2736          ZDO_MgmNwkDiscRsp_t *ZDO_ParseMgmNwkDiscRsp( zdoIncomingMsg_t *inMsg )
   \                     ZDO_ParseMgmNwkDiscRsp:
   2737          {
   \   000000   74EC         MOV     A,#-0x14
   \   000002   12....       LCALL   ?BANKED_ENTER_XDATA
   \   000005                ; Saved register size: 20
   \   000005                ; Auto size: 0
   \   000005   8A..         MOV     ?V0 + 10,R2
   \   000007   8B..         MOV     ?V0 + 11,R3
   2738            ZDO_MgmNwkDiscRsp_t *pRsp;
   2739            uint8 status;
   2740            uint8 networkCount = 0;
   \   000009   75..00       MOV     ?V0 + 6,#0x0
   2741            uint8 startIndex = 0;
   \   00000C   75..00       MOV     ?V0 + 5,#0x0
   2742            uint8 networkListCount = 0;
   \   00000F   75..00       MOV     ?V0 + 4,#0x0
   2743            uint8 *msg;
   2744          
   2745            msg = inMsg->asdu;
   \   000012   E5..         MOV     A,?V0 + 10
   \   000014   2413         ADD     A,#0x13
   \   000016   F582         MOV     DPL,A
   \   000018   E5..         MOV     A,?V0 + 11
   \   00001A   3400         ADDC    A,#0x0
   \   00001C   F583         MOV     DPH,A
   \   00001E   E0           MOVX    A,@DPTR
   \   00001F   F8           MOV     R0,A
   \   000020   A3           INC     DPTR
   \   000021   E0           MOVX    A,@DPTR
   \   000022   F9           MOV     R1,A
   \   000023   E8           MOV     A,R0
   \   000024   FE           MOV     R6,A
   \   000025   E9           MOV     A,R1
   \   000026   FF           MOV     R7,A
   2746            status = *msg++;
   \   000027   8E82         MOV     DPL,R6
   \   000029   8F83         MOV     DPH,R7
   \   00002B   E0           MOVX    A,@DPTR
   \   00002C   F5..         MOV     ?V0 + 8,A
   \   00002E   8E82         MOV     DPL,R6
   \   000030   8F83         MOV     DPH,R7
   \   000032   A3           INC     DPTR
   \   000033   AE82         MOV     R6,DPL
   \   000035   AF83         MOV     R7,DPH
   2747          
   2748            if ( status == ZSuccess )
   \   000037   E5..         MOV     A,?V0 + 8
   \   000039   7030         JNZ     ??ZDO_ParseMgmNwkDiscRsp_0
   2749            {
   2750              networkCount = *msg++;
   \   00003B   8E82         MOV     DPL,R6
   \   00003D   8F83         MOV     DPH,R7
   \   00003F   E0           MOVX    A,@DPTR
   \   000040   F5..         MOV     ?V0 + 6,A
   \   000042   8E82         MOV     DPL,R6
   \   000044   8F83         MOV     DPH,R7
   \   000046   A3           INC     DPTR
   \   000047   AE82         MOV     R6,DPL
   \   000049   AF83         MOV     R7,DPH
   2751              startIndex = *msg++;
   \   00004B   8E82         MOV     DPL,R6
   \   00004D   8F83         MOV     DPH,R7
   \   00004F   E0           MOVX    A,@DPTR
   \   000050   F5..         MOV     ?V0 + 5,A
   \   000052   8E82         MOV     DPL,R6
   \   000054   8F83         MOV     DPH,R7
   \   000056   A3           INC     DPTR
   \   000057   AE82         MOV     R6,DPL
   \   000059   AF83         MOV     R7,DPH
   2752              networkListCount = *msg++;
   \   00005B   8E82         MOV     DPL,R6
   \   00005D   8F83         MOV     DPH,R7
   \   00005F   E0           MOVX    A,@DPTR
   \   000060   F5..         MOV     ?V0 + 4,A
   \   000062   8E82         MOV     DPL,R6
   \   000064   8F83         MOV     DPH,R7
   \   000066   A3           INC     DPTR
   \   000067   AE82         MOV     R6,DPL
   \   000069   AF83         MOV     R7,DPH
   2753            }
   2754          
   2755            // Allocate a buffer big enough to handle the list.
   2756            pRsp = (ZDO_MgmNwkDiscRsp_t *)osal_mem_alloc( sizeof( ZDO_MgmNwkDiscRsp_t )
   2757                                            + (networkListCount * sizeof( mgmtNwkDiscItem_t )) );
   \                     ??ZDO_ParseMgmNwkDiscRsp_0:
   \   00006B                ; Setup parameters for call to function osal_mem_alloc
   \   00006B   E5..         MOV     A,?V0 + 4
   \   00006D   A8..         MOV     R0,?V0 + 4
   \   00006F   7900         MOV     R1,#0x0
   \   000071   E8           MOV     A,R0
   \   000072   75F010       MOV     B,#0x10
   \   000075   A4           MUL     AB
   \   000076   C8           XCH     A,R0
   \   000077   AAF0         MOV     R2,B
   \   000079   75F000       MOV     B,#0x0
   \   00007C   A4           MUL     AB
   \   00007D   2A           ADD     A,R2
   \   00007E   FA           MOV     R2,A
   \   00007F   75F010       MOV     B,#0x10
   \   000082   E9           MOV     A,R1
   \   000083   A4           MUL     AB
   \   000084   2A           ADD     A,R2
   \   000085   F9           MOV     R1,A
   \   000086   E8           MOV     A,R0
   \   000087   2404         ADD     A,#0x4
   \   000089   FA           MOV     R2,A
   \   00008A   E9           MOV     A,R1
   \   00008B   3400         ADDC    A,#0x0
   \   00008D   FB           MOV     R3,A
   \   00008E   12....       LCALL   ??osal_mem_alloc?relay
   \   000091   8A..         MOV     ?V0 + 0,R2
   \   000093   8B..         MOV     ?V0 + 1,R3
   \   000095   85....       MOV     ?V0 + 2,?V0 + 0
   \   000098   85....       MOV     ?V0 + 3,?V0 + 1
   2758            if ( pRsp )
   \   00009B   E5..         MOV     A,?V0 + 2
   \   00009D   45..         ORL     A,?V0 + 3
   \   00009F   7003         JNZ     $+5
   \   0000A1   02....       LJMP    ??ZDO_ParseMgmNwkDiscRsp_1 & 0xFFFF
   2759            {
   2760              uint8 x;
   2761              mgmtNwkDiscItem_t *pList;
   2762          
   2763              pRsp->status = status;
   \   0000A4   E5..         MOV     A,?V0 + 8
   \   0000A6   85..82       MOV     DPL,?V0 + 2
   \   0000A9   85..83       MOV     DPH,?V0 + 3
   \   0000AC   E5..         MOV     A,?V0 + 8
   \   0000AE   F0           MOVX    @DPTR,A
   2764              pRsp->networkCount = networkCount;
   \   0000AF   E5..         MOV     A,?V0 + 6
   \   0000B1   85..82       MOV     DPL,?V0 + 2
   \   0000B4   85..83       MOV     DPH,?V0 + 3
   \   0000B7   A3           INC     DPTR
   \   0000B8   E5..         MOV     A,?V0 + 6
   \   0000BA   F0           MOVX    @DPTR,A
   2765              pRsp->startIndex = startIndex;
   \   0000BB   E5..         MOV     A,?V0 + 5
   \   0000BD   85..82       MOV     DPL,?V0 + 2
   \   0000C0   85..83       MOV     DPH,?V0 + 3
   \   0000C3   A3           INC     DPTR
   \   0000C4   A3           INC     DPTR
   \   0000C5   E5..         MOV     A,?V0 + 5
   \   0000C7   F0           MOVX    @DPTR,A
   2766              pRsp->networkListCount = networkListCount;
   \   0000C8   E5..         MOV     A,?V0 + 4
   \   0000CA   85..82       MOV     DPL,?V0 + 2
   \   0000CD   85..83       MOV     DPH,?V0 + 3
   \   0000D0   A3           INC     DPTR
   \   0000D1   A3           INC     DPTR
   \   0000D2   A3           INC     DPTR
   \   0000D3   E5..         MOV     A,?V0 + 4
   \   0000D5   F0           MOVX    @DPTR,A
   2767              pList = pRsp->list;
   \   0000D6   E5..         MOV     A,?V0 + 2
   \   0000D8   2404         ADD     A,#0x4
   \   0000DA   F8           MOV     R0,A
   \   0000DB   E5..         MOV     A,?V0 + 3
   \   0000DD   3400         ADDC    A,#0x0
   \   0000DF   F9           MOV     R1,A
   \   0000E0   88..         MOV     ?V0 + 0,R0
   \   0000E2   89..         MOV     ?V0 + 1,R1
   2768          
   2769              for ( x = 0; x < networkListCount; x++ )
   \   0000E4   75..00       MOV     ?V0 + 7,#0x0
   \                     ??ZDO_ParseMgmNwkDiscRsp_2:
   \   0000E7   E5..         MOV     A,?V0 + 7
   \   0000E9   C3           CLR     C
   \   0000EA   95..         SUBB    A,?V0 + 4
   \   0000EC   4003         JC      $+5
   \   0000EE   02....       LJMP    ??ZDO_ParseMgmNwkDiscRsp_1 & 0xFFFF
   2770              {
   2771                osal_cpyExtAddr(pList->extendedPANID, msg);   //Copy extended PAN ID
   \   0000F1                ; Setup parameters for call to function sAddrExtCpy
   \   0000F1   EE           MOV     A,R6
   \   0000F2   FC           MOV     R4,A
   \   0000F3   EF           MOV     A,R7
   \   0000F4   FD           MOV     R5,A
   \   0000F5   AA..         MOV     R2,?V0 + 0
   \   0000F7   AB..         MOV     R3,?V0 + 1
   \   0000F9   12....       LCALL   ??sAddrExtCpy?relay
   2772                pList->PANId = BUILD_UINT16( msg[0], msg[1] );
   \   0000FC   8E82         MOV     DPL,R6
   \   0000FE   8F83         MOV     DPH,R7
   \   000100   E0           MOVX    A,@DPTR
   \   000101   FA           MOV     R2,A
   \   000102   7B00         MOV     R3,#0x0
   \   000104   8E82         MOV     DPL,R6
   \   000106   8F83         MOV     DPH,R7
   \   000108   A3           INC     DPTR
   \   000109   E0           MOVX    A,@DPTR
   \   00010A   F8           MOV     R0,A
   \   00010B   7900         MOV     R1,#0x0
   \   00010D   E4           CLR     A
   \   00010E   C8           XCH     A,R0
   \   00010F   F9           MOV     R1,A
   \   000110   EA           MOV     A,R2
   \   000111   28           ADD     A,R0
   \   000112   F8           MOV     R0,A
   \   000113   EB           MOV     A,R3
   \   000114   39           ADDC    A,R1
   \   000115   F9           MOV     R1,A
   \   000116   85..82       MOV     DPL,?V0 + 0
   \   000119   85..83       MOV     DPH,?V0 + 1
   \   00011C   A3           INC     DPTR
   \   00011D   A3           INC     DPTR
   \   00011E   A3           INC     DPTR
   \   00011F   A3           INC     DPTR
   \   000120   A3           INC     DPTR
   \   000121   A3           INC     DPTR
   \   000122   A3           INC     DPTR
   \   000123   A3           INC     DPTR
   \   000124   E8           MOV     A,R0
   \   000125   F0           MOVX    @DPTR,A
   \   000126   A3           INC     DPTR
   \   000127   E9           MOV     A,R1
   \   000128   F0           MOVX    @DPTR,A
   2773                msg += Z_EXTADDR_LEN;
   \   000129   EE           MOV     A,R6
   \   00012A   2408         ADD     A,#0x8
   \   00012C   FE           MOV     R6,A
   \   00012D   EF           MOV     A,R7
   \   00012E   3400         ADDC    A,#0x0
   \   000130   FF           MOV     R7,A
   2774          
   2775                pList->logicalChannel = *msg++;
   \   000131   8E82         MOV     DPL,R6
   \   000133   8F83         MOV     DPH,R7
   \   000135   E0           MOVX    A,@DPTR
   \   000136   85..82       MOV     DPL,?V0 + 0
   \   000139   85..83       MOV     DPH,?V0 + 1
   \   00013C   A3           INC     DPTR
   \   00013D   A3           INC     DPTR
   \   00013E   A3           INC     DPTR
   \   00013F   A3           INC     DPTR
   \   000140   A3           INC     DPTR
   \   000141   A3           INC     DPTR
   \   000142   A3           INC     DPTR
   \   000143   A3           INC     DPTR
   \   000144   A3           INC     DPTR
   \   000145   A3           INC     DPTR
   \   000146   F0           MOVX    @DPTR,A
   \   000147   8E82         MOV     DPL,R6
   \   000149   8F83         MOV     DPH,R7
   \   00014B   A3           INC     DPTR
   \   00014C   AE82         MOV     R6,DPL
   \   00014E   AF83         MOV     R7,DPH
   2776                pList->stackProfile = (*msg) & 0x0F;
   \   000150   8E82         MOV     DPL,R6
   \   000152   8F83         MOV     DPH,R7
   \   000154   E0           MOVX    A,@DPTR
   \   000155   540F         ANL     A,#0xf
   \   000157   C0E0         PUSH    A
   \   000159   E5..         MOV     A,?V0 + 0
   \   00015B   240B         ADD     A,#0xb
   \   00015D   F582         MOV     DPL,A
   \   00015F   E5..         MOV     A,?V0 + 1
   \   000161   3400         ADDC    A,#0x0
   \   000163   F583         MOV     DPH,A
   \   000165   D0E0         POP     A
   \   000167   F0           MOVX    @DPTR,A
   2777                pList->version = (*msg++ >> 4) & 0x0F;
   \   000168   8E82         MOV     DPL,R6
   \   00016A   8F83         MOV     DPH,R7
   \   00016C   E0           MOVX    A,@DPTR
   \   00016D   C4           SWAP    A
   \   00016E   540F         ANL     A,#0xf
   \   000170   C0E0         PUSH    A
   \   000172   E5..         MOV     A,?V0 + 0
   \   000174   240C         ADD     A,#0xc
   \   000176   F582         MOV     DPL,A
   \   000178   E5..         MOV     A,?V0 + 1
   \   00017A   3400         ADDC    A,#0x0
   \   00017C   F583         MOV     DPH,A
   \   00017E   D0E0         POP     A
   \   000180   F0           MOVX    @DPTR,A
   \   000181   8E82         MOV     DPL,R6
   \   000183   8F83         MOV     DPH,R7
   \   000185   A3           INC     DPTR
   \   000186   AE82         MOV     R6,DPL
   \   000188   AF83         MOV     R7,DPH
   2778                pList->beaconOrder = (*msg) & 0x0F;
   \   00018A   8E82         MOV     DPL,R6
   \   00018C   8F83         MOV     DPH,R7
   \   00018E   E0           MOVX    A,@DPTR
   \   00018F   540F         ANL     A,#0xf
   \   000191   C0E0         PUSH    A
   \   000193   E5..         MOV     A,?V0 + 0
   \   000195   240D         ADD     A,#0xd
   \   000197   F582         MOV     DPL,A
   \   000199   E5..         MOV     A,?V0 + 1
   \   00019B   3400         ADDC    A,#0x0
   \   00019D   F583         MOV     DPH,A
   \   00019F   D0E0         POP     A
   \   0001A1   F0           MOVX    @DPTR,A
   2779                pList->superFrameOrder = (*msg++ >> 4) & 0x0F;
   \   0001A2   8E82         MOV     DPL,R6
   \   0001A4   8F83         MOV     DPH,R7
   \   0001A6   E0           MOVX    A,@DPTR
   \   0001A7   C4           SWAP    A
   \   0001A8   540F         ANL     A,#0xf
   \   0001AA   C0E0         PUSH    A
   \   0001AC   E5..         MOV     A,?V0 + 0
   \   0001AE   240E         ADD     A,#0xe
   \   0001B0   F582         MOV     DPL,A
   \   0001B2   E5..         MOV     A,?V0 + 1
   \   0001B4   3400         ADDC    A,#0x0
   \   0001B6   F583         MOV     DPH,A
   \   0001B8   D0E0         POP     A
   \   0001BA   F0           MOVX    @DPTR,A
   \   0001BB   8E82         MOV     DPL,R6
   \   0001BD   8F83         MOV     DPH,R7
   \   0001BF   A3           INC     DPTR
   \   0001C0   AE82         MOV     R6,DPL
   \   0001C2   AF83         MOV     R7,DPH
   2780                pList->permitJoining = *msg++;
   \   0001C4   8E82         MOV     DPL,R6
   \   0001C6   8F83         MOV     DPH,R7
   \   0001C8   E0           MOVX    A,@DPTR
   \   0001C9   C0E0         PUSH    A
   \   0001CB   E5..         MOV     A,?V0 + 0
   \   0001CD   240F         ADD     A,#0xf
   \   0001CF   F582         MOV     DPL,A
   \   0001D1   E5..         MOV     A,?V0 + 1
   \   0001D3   3400         ADDC    A,#0x0
   \   0001D5   F583         MOV     DPH,A
   \   0001D7   D0E0         POP     A
   \   0001D9   F0           MOVX    @DPTR,A
   \   0001DA   8E82         MOV     DPL,R6
   \   0001DC   8F83         MOV     DPH,R7
   \   0001DE   A3           INC     DPTR
   \   0001DF   AE82         MOV     R6,DPL
   \   0001E1   AF83         MOV     R7,DPH
   2781                pList++;
   \   0001E3   E5..         MOV     A,?V0 + 0
   \   0001E5   2410         ADD     A,#0x10
   \   0001E7   F5..         MOV     ?V0 + 0,A
   \   0001E9   E5..         MOV     A,?V0 + 1
   \   0001EB   3400         ADDC    A,#0x0
   \   0001ED   F5..         MOV     ?V0 + 1,A
   2782              }
   \   0001EF   05..         INC     ?V0 + 7
   \   0001F1   02....       LJMP    ??ZDO_ParseMgmNwkDiscRsp_2 & 0xFFFF
   2783            }
   2784          
   2785            return ( pRsp );
   \                     ??ZDO_ParseMgmNwkDiscRsp_1:
   \   0001F4   AA..         MOV     R2,?V0 + 2
   \   0001F6   AB..         MOV     R3,?V0 + 3
   \   0001F8   7F0C         MOV     R7,#0xc
   \   0001FA   02....       LJMP    ?BANKED_LEAVE_XDATA
   2786          }
   2787          
   2788          /*********************************************************************
   2789           * @fn          ZDO_ParseMgmtRtgRsp
   2790           *
   2791           * @brief       This function parses the incoming Management
   2792           *              Routing response.
   2793           *
   2794           * @param       inMsg - incoming message
   2795           *
   2796           * @return      a pointer to parsed response structure (NULL if not allocated).
   2797           *          This structure was allocated using osal_mem_alloc, so it must be freed
   2798           *          by the calling function [osal_mem_free()].
   2799           */

   \                                 In  segment BANKED_CODE, align 1, keep-with-next
   2800          ZDO_MgmtRtgRsp_t *ZDO_ParseMgmtRtgRsp( zdoIncomingMsg_t *inMsg )
   \                     ZDO_ParseMgmtRtgRsp:
   2801          {
   \   000000   74EE         MOV     A,#-0x12
   \   000002   12....       LCALL   ?BANKED_ENTER_XDATA
   \   000005                ; Saved register size: 18
   \   000005                ; Auto size: 0
   \   000005   8A..         MOV     ?V0 + 2,R2
   \   000007   8B..         MOV     ?V0 + 3,R3
   2802            ZDO_MgmtRtgRsp_t *pRsp;
   2803            uint8 status;
   2804            uint8 rtgCount = 0;
   \   000009   75..00       MOV     ?V0 + 5,#0x0
   2805            uint8 startIndex = 0;
   \   00000C   75..00       MOV     ?V0 + 6,#0x0
   2806            uint8 rtgListCount = 0;
   \   00000F   75..00       MOV     ?V0 + 7,#0x0
   2807            uint8 *msg;
   2808          
   2809            msg = inMsg->asdu;
   \   000012   E5..         MOV     A,?V0 + 2
   \   000014   2413         ADD     A,#0x13
   \   000016   F582         MOV     DPL,A
   \   000018   E5..         MOV     A,?V0 + 3
   \   00001A   3400         ADDC    A,#0x0
   \   00001C   F583         MOV     DPH,A
   \   00001E   E0           MOVX    A,@DPTR
   \   00001F   F8           MOV     R0,A
   \   000020   A3           INC     DPTR
   \   000021   E0           MOVX    A,@DPTR
   \   000022   F9           MOV     R1,A
   \   000023   E8           MOV     A,R0
   \   000024   FE           MOV     R6,A
   \   000025   E9           MOV     A,R1
   \   000026   FF           MOV     R7,A
   2810          
   2811            status = *msg++;
   \   000027   8E82         MOV     DPL,R6
   \   000029   8F83         MOV     DPH,R7
   \   00002B   E0           MOVX    A,@DPTR
   \   00002C   F5..         MOV     ?V0 + 4,A
   \   00002E   8E82         MOV     DPL,R6
   \   000030   8F83         MOV     DPH,R7
   \   000032   A3           INC     DPTR
   \   000033   AE82         MOV     R6,DPL
   \   000035   AF83         MOV     R7,DPH
   2812            if ( status == ZSuccess )
   \   000037   E5..         MOV     A,?V0 + 4
   \   000039   7030         JNZ     ??ZDO_ParseMgmtRtgRsp_0
   2813            {
   2814              rtgCount = *msg++;
   \   00003B   8E82         MOV     DPL,R6
   \   00003D   8F83         MOV     DPH,R7
   \   00003F   E0           MOVX    A,@DPTR
   \   000040   F5..         MOV     ?V0 + 5,A
   \   000042   8E82         MOV     DPL,R6
   \   000044   8F83         MOV     DPH,R7
   \   000046   A3           INC     DPTR
   \   000047   AE82         MOV     R6,DPL
   \   000049   AF83         MOV     R7,DPH
   2815              startIndex = *msg++;
   \   00004B   8E82         MOV     DPL,R6
   \   00004D   8F83         MOV     DPH,R7
   \   00004F   E0           MOVX    A,@DPTR
   \   000050   F5..         MOV     ?V0 + 6,A
   \   000052   8E82         MOV     DPL,R6
   \   000054   8F83         MOV     DPH,R7
   \   000056   A3           INC     DPTR
   \   000057   AE82         MOV     R6,DPL
   \   000059   AF83         MOV     R7,DPH
   2816              rtgListCount = *msg++;
   \   00005B   8E82         MOV     DPL,R6
   \   00005D   8F83         MOV     DPH,R7
   \   00005F   E0           MOVX    A,@DPTR
   \   000060   F5..         MOV     ?V0 + 7,A
   \   000062   8E82         MOV     DPL,R6
   \   000064   8F83         MOV     DPH,R7
   \   000066   A3           INC     DPTR
   \   000067   AE82         MOV     R6,DPL
   \   000069   AF83         MOV     R7,DPH
   2817            }
   2818          
   2819            // Allocate a buffer big enough to handle the list
   2820            pRsp = (ZDO_MgmtRtgRsp_t *)osal_mem_alloc(
   2821                    sizeof( ZDO_MgmtRtgRsp_t ) + (rtgListCount * sizeof( rtgItem_t )) );
   \                     ??ZDO_ParseMgmtRtgRsp_0:
   \   00006B                ; Setup parameters for call to function osal_mem_alloc
   \   00006B   E5..         MOV     A,?V0 + 7
   \   00006D   A8..         MOV     R0,?V0 + 7
   \   00006F   7900         MOV     R1,#0x0
   \   000071   E8           MOV     A,R0
   \   000072   75F006       MOV     B,#0x6
   \   000075   A4           MUL     AB
   \   000076   C8           XCH     A,R0
   \   000077   AAF0         MOV     R2,B
   \   000079   75F000       MOV     B,#0x0
   \   00007C   A4           MUL     AB
   \   00007D   2A           ADD     A,R2
   \   00007E   FA           MOV     R2,A
   \   00007F   75F006       MOV     B,#0x6
   \   000082   E9           MOV     A,R1
   \   000083   A4           MUL     AB
   \   000084   2A           ADD     A,R2
   \   000085   F9           MOV     R1,A
   \   000086   E8           MOV     A,R0
   \   000087   2404         ADD     A,#0x4
   \   000089   FA           MOV     R2,A
   \   00008A   E9           MOV     A,R1
   \   00008B   3400         ADDC    A,#0x0
   \   00008D   FB           MOV     R3,A
   \   00008E   12....       LCALL   ??osal_mem_alloc?relay
   \   000091   8A..         MOV     ?V0 + 8,R2
   \   000093   8B..         MOV     ?V0 + 9,R3
   \   000095   85....       MOV     ?V0 + 0,?V0 + 8
   \   000098   85....       MOV     ?V0 + 1,?V0 + 9
   2822            if ( pRsp )
   \   00009B   E5..         MOV     A,?V0 + 0
   \   00009D   45..         ORL     A,?V0 + 1
   \   00009F   7003         JNZ     $+5
   \   0000A1   02....       LJMP    ??ZDO_ParseMgmtRtgRsp_1 & 0xFFFF
   2823            {
   2824              uint8 x;
   2825              rtgItem_t *pList = pRsp->list;
   \   0000A4   E5..         MOV     A,?V0 + 0
   \   0000A6   2404         ADD     A,#0x4
   \   0000A8   F8           MOV     R0,A
   \   0000A9   E5..         MOV     A,?V0 + 1
   \   0000AB   3400         ADDC    A,#0x0
   \   0000AD   F9           MOV     R1,A
   2826              pRsp->status = status;
   \   0000AE   E5..         MOV     A,?V0 + 4
   \   0000B0   85..82       MOV     DPL,?V0 + 0
   \   0000B3   85..83       MOV     DPH,?V0 + 1
   \   0000B6   E5..         MOV     A,?V0 + 4
   \   0000B8   F0           MOVX    @DPTR,A
   2827              pRsp->rtgCount = rtgCount;
   \   0000B9   E5..         MOV     A,?V0 + 5
   \   0000BB   85..82       MOV     DPL,?V0 + 0
   \   0000BE   85..83       MOV     DPH,?V0 + 1
   \   0000C1   A3           INC     DPTR
   \   0000C2   E5..         MOV     A,?V0 + 5
   \   0000C4   F0           MOVX    @DPTR,A
   2828              pRsp->startIndex = startIndex;
   \   0000C5   E5..         MOV     A,?V0 + 6
   \   0000C7   85..82       MOV     DPL,?V0 + 0
   \   0000CA   85..83       MOV     DPH,?V0 + 1
   \   0000CD   A3           INC     DPTR
   \   0000CE   A3           INC     DPTR
   \   0000CF   E5..         MOV     A,?V0 + 6
   \   0000D1   F0           MOVX    @DPTR,A
   2829              pRsp->rtgListCount = rtgListCount;
   \   0000D2   E5..         MOV     A,?V0 + 7
   \   0000D4   85..82       MOV     DPL,?V0 + 0
   \   0000D7   85..83       MOV     DPH,?V0 + 1
   \   0000DA   A3           INC     DPTR
   \   0000DB   A3           INC     DPTR
   \   0000DC   A3           INC     DPTR
   \   0000DD   E5..         MOV     A,?V0 + 7
   \   0000DF   F0           MOVX    @DPTR,A
   2830          
   2831              for ( x = 0; x < rtgListCount; x++ )
   \   0000E0   7A00         MOV     R2,#0x0
   \                     ??ZDO_ParseMgmtRtgRsp_2:
   \   0000E2   EA           MOV     A,R2
   \   0000E3   C3           CLR     C
   \   0000E4   95..         SUBB    A,?V0 + 7
   \   0000E6   4003         JC      $+5
   \   0000E8   02....       LJMP    ??ZDO_ParseMgmtRtgRsp_1 & 0xFFFF
   2832              {
   2833                pList->dstAddress = BUILD_UINT16( msg[0], msg[1] );
   \   0000EB   8E82         MOV     DPL,R6
   \   0000ED   8F83         MOV     DPH,R7
   \   0000EF   E0           MOVX    A,@DPTR
   \   0000F0   F5..         MOV     ?V0 + 8,A
   \   0000F2   75..00       MOV     ?V0 + 9,#0x0
   \   0000F5   8E82         MOV     DPL,R6
   \   0000F7   8F83         MOV     DPH,R7
   \   0000F9   A3           INC     DPTR
   \   0000FA   E0           MOVX    A,@DPTR
   \   0000FB   FC           MOV     R4,A
   \   0000FC   7D00         MOV     R5,#0x0
   \   0000FE   E4           CLR     A
   \   0000FF   CC           XCH     A,R4
   \   000100   FD           MOV     R5,A
   \   000101   E5..         MOV     A,?V0 + 8
   \   000103   2C           ADD     A,R4
   \   000104   FC           MOV     R4,A
   \   000105   E5..         MOV     A,?V0 + 9
   \   000107   3D           ADDC    A,R5
   \   000108   FD           MOV     R5,A
   \   000109   8882         MOV     DPL,R0
   \   00010B   8983         MOV     DPH,R1
   \   00010D   EC           MOV     A,R4
   \   00010E   F0           MOVX    @DPTR,A
   \   00010F   A3           INC     DPTR
   \   000110   ED           MOV     A,R5
   \   000111   F0           MOVX    @DPTR,A
   2834                msg += 2;
   \   000112   EE           MOV     A,R6
   \   000113   2402         ADD     A,#0x2
   \   000115   FE           MOV     R6,A
   \   000116   EF           MOV     A,R7
   \   000117   3400         ADDC    A,#0x0
   \   000119   FF           MOV     R7,A
   2835                pList->status = *msg++;
   \   00011A   8E82         MOV     DPL,R6
   \   00011C   8F83         MOV     DPH,R7
   \   00011E   E0           MOVX    A,@DPTR
   \   00011F   8882         MOV     DPL,R0
   \   000121   8983         MOV     DPH,R1
   \   000123   A3           INC     DPTR
   \   000124   A3           INC     DPTR
   \   000125   A3           INC     DPTR
   \   000126   A3           INC     DPTR
   \   000127   A3           INC     DPTR
   \   000128   F0           MOVX    @DPTR,A
   \   000129   8E82         MOV     DPL,R6
   \   00012B   8F83         MOV     DPH,R7
   \   00012D   A3           INC     DPTR
   \   00012E   AE82         MOV     R6,DPL
   \   000130   AF83         MOV     R7,DPH
   2836                pList->nextHopAddress = BUILD_UINT16( msg[0], msg[1] );
   \   000132   8E82         MOV     DPL,R6
   \   000134   8F83         MOV     DPH,R7
   \   000136   E0           MOVX    A,@DPTR
   \   000137   F5..         MOV     ?V0 + 8,A
   \   000139   75..00       MOV     ?V0 + 9,#0x0
   \   00013C   8E82         MOV     DPL,R6
   \   00013E   8F83         MOV     DPH,R7
   \   000140   A3           INC     DPTR
   \   000141   E0           MOVX    A,@DPTR
   \   000142   FC           MOV     R4,A
   \   000143   7D00         MOV     R5,#0x0
   \   000145   E4           CLR     A
   \   000146   CC           XCH     A,R4
   \   000147   FD           MOV     R5,A
   \   000148   E5..         MOV     A,?V0 + 8
   \   00014A   2C           ADD     A,R4
   \   00014B   FC           MOV     R4,A
   \   00014C   E5..         MOV     A,?V0 + 9
   \   00014E   3D           ADDC    A,R5
   \   00014F   FD           MOV     R5,A
   \   000150   8882         MOV     DPL,R0
   \   000152   8983         MOV     DPH,R1
   \   000154   A3           INC     DPTR
   \   000155   A3           INC     DPTR
   \   000156   EC           MOV     A,R4
   \   000157   F0           MOVX    @DPTR,A
   \   000158   A3           INC     DPTR
   \   000159   ED           MOV     A,R5
   \   00015A   F0           MOVX    @DPTR,A
   2837                msg += 2;
   \   00015B   EE           MOV     A,R6
   \   00015C   2402         ADD     A,#0x2
   \   00015E   FE           MOV     R6,A
   \   00015F   EF           MOV     A,R7
   \   000160   3400         ADDC    A,#0x0
   \   000162   FF           MOV     R7,A
   2838                pList++;
   \   000163   E8           MOV     A,R0
   \   000164   2406         ADD     A,#0x6
   \   000166   F8           MOV     R0,A
   \   000167   E9           MOV     A,R1
   \   000168   3400         ADDC    A,#0x0
   \   00016A   F9           MOV     R1,A
   2839              }
   \   00016B   0A           INC     R2
   \   00016C   02....       LJMP    ??ZDO_ParseMgmtRtgRsp_2 & 0xFFFF
   2840            }
   2841          
   2842            return ( pRsp );
   \                     ??ZDO_ParseMgmtRtgRsp_1:
   \   00016F   AA..         MOV     R2,?V0 + 0
   \   000171   AB..         MOV     R3,?V0 + 1
   \   000173   7F0A         MOV     R7,#0xa
   \   000175   02....       LJMP    ?BANKED_LEAVE_XDATA
   2843          }
   2844          
   2845          /*********************************************************************
   2846           * @fn          ZDO_ParseMgmtBindRsp
   2847           *
   2848           * @brief       This function parses the incoming Management
   2849           *              Binding response.
   2850           *
   2851           * @param       inMsg - pointer to message to parse
   2852           *
   2853           * @return      a pointer to parsed response structure (NULL if not allocated).
   2854           *          This structure was allocated using osal_mem_alloc, so it must be freed
   2855           *          by the calling function [osal_mem_free()].
   2856           */

   \                                 In  segment BANKED_CODE, align 1, keep-with-next
   2857          ZDO_MgmtBindRsp_t *ZDO_ParseMgmtBindRsp( zdoIncomingMsg_t *inMsg )
   \                     ZDO_ParseMgmtBindRsp:
   2858          {
   \   000000   74EA         MOV     A,#-0x16
   \   000002   12....       LCALL   ?BANKED_ENTER_XDATA
   \   000005                ; Saved register size: 22
   \   000005                ; Auto size: 0
   \   000005   8A..         MOV     ?V0 + 10,R2
   \   000007   8B..         MOV     ?V0 + 11,R3
   2859            ZDO_MgmtBindRsp_t *pRsp;
   2860            uint8 status;
   2861            uint8 bindingCount = 0;
   \   000009   75..00       MOV     ?V0 + 6,#0x0
   2862            uint8 startIndex = 0;
   \   00000C   75..00       MOV     ?V0 + 5,#0x0
   2863            uint8 bindingListCount = 0;
   \   00000F   75..00       MOV     ?V0 + 4,#0x0
   2864            uint8 *msg;
   2865          
   2866            msg = inMsg->asdu;
   \   000012   E5..         MOV     A,?V0 + 10
   \   000014   2413         ADD     A,#0x13
   \   000016   F582         MOV     DPL,A
   \   000018   E5..         MOV     A,?V0 + 11
   \   00001A   3400         ADDC    A,#0x0
   \   00001C   F583         MOV     DPH,A
   \   00001E   E0           MOVX    A,@DPTR
   \   00001F   F8           MOV     R0,A
   \   000020   A3           INC     DPTR
   \   000021   E0           MOVX    A,@DPTR
   \   000022   F9           MOV     R1,A
   \   000023   88..         MOV     ?V0 + 2,R0
   \   000025   89..         MOV     ?V0 + 3,R1
   2867          
   2868            status = *msg++;
   \   000027   85..82       MOV     DPL,?V0 + 2
   \   00002A   85..83       MOV     DPH,?V0 + 3
   \   00002D   E0           MOVX    A,@DPTR
   \   00002E   F5..         MOV     ?V0 + 8,A
   \   000030   85..82       MOV     DPL,?V0 + 2
   \   000033   85..83       MOV     DPH,?V0 + 3
   \   000036   A3           INC     DPTR
   \   000037   8582..       MOV     ?V0 + 2,DPL
   \   00003A   8583..       MOV     ?V0 + 3,DPH
   2869            if ( status == ZSuccess )
   \   00003D   E5..         MOV     A,?V0 + 8
   \   00003F   7042         JNZ     ??ZDO_ParseMgmtBindRsp_0
   2870            {
   2871              bindingCount = *msg++;
   \   000041   85..82       MOV     DPL,?V0 + 2
   \   000044   85..83       MOV     DPH,?V0 + 3
   \   000047   E0           MOVX    A,@DPTR
   \   000048   F5..         MOV     ?V0 + 6,A
   \   00004A   85..82       MOV     DPL,?V0 + 2
   \   00004D   85..83       MOV     DPH,?V0 + 3
   \   000050   A3           INC     DPTR
   \   000051   8582..       MOV     ?V0 + 2,DPL
   \   000054   8583..       MOV     ?V0 + 3,DPH
   2872              startIndex = *msg++;
   \   000057   85..82       MOV     DPL,?V0 + 2
   \   00005A   85..83       MOV     DPH,?V0 + 3
   \   00005D   E0           MOVX    A,@DPTR
   \   00005E   F5..         MOV     ?V0 + 5,A
   \   000060   85..82       MOV     DPL,?V0 + 2
   \   000063   85..83       MOV     DPH,?V0 + 3
   \   000066   A3           INC     DPTR
   \   000067   8582..       MOV     ?V0 + 2,DPL
   \   00006A   8583..       MOV     ?V0 + 3,DPH
   2873              bindingListCount = *msg++;
   \   00006D   85..82       MOV     DPL,?V0 + 2
   \   000070   85..83       MOV     DPH,?V0 + 3
   \   000073   E0           MOVX    A,@DPTR
   \   000074   F5..         MOV     ?V0 + 4,A
   \   000076   85..82       MOV     DPL,?V0 + 2
   \   000079   85..83       MOV     DPH,?V0 + 3
   \   00007C   A3           INC     DPTR
   \   00007D   8582..       MOV     ?V0 + 2,DPL
   \   000080   8583..       MOV     ?V0 + 3,DPH
   2874            }
   2875          
   2876            // Allocate a buffer big enough to handle the list
   2877            pRsp = (ZDO_MgmtBindRsp_t *)osal_mem_alloc(
   2878                    (sizeof ( ZDO_MgmtBindRsp_t ) + (bindingListCount * sizeof( apsBindingItem_t ))) );
   \                     ??ZDO_ParseMgmtBindRsp_0:
   \   000083                ; Setup parameters for call to function osal_mem_alloc
   \   000083   E5..         MOV     A,?V0 + 4
   \   000085   A8..         MOV     R0,?V0 + 4
   \   000087   7900         MOV     R1,#0x0
   \   000089   E8           MOV     A,R0
   \   00008A   75F015       MOV     B,#0x15
   \   00008D   A4           MUL     AB
   \   00008E   C8           XCH     A,R0
   \   00008F   AAF0         MOV     R2,B
   \   000091   75F000       MOV     B,#0x0
   \   000094   A4           MUL     AB
   \   000095   2A           ADD     A,R2
   \   000096   FA           MOV     R2,A
   \   000097   75F015       MOV     B,#0x15
   \   00009A   E9           MOV     A,R1
   \   00009B   A4           MUL     AB
   \   00009C   2A           ADD     A,R2
   \   00009D   F9           MOV     R1,A
   \   00009E   E8           MOV     A,R0
   \   00009F   2404         ADD     A,#0x4
   \   0000A1   FA           MOV     R2,A
   \   0000A2   E9           MOV     A,R1
   \   0000A3   3400         ADDC    A,#0x0
   \   0000A5   FB           MOV     R3,A
   \   0000A6   12....       LCALL   ??osal_mem_alloc?relay
   \   0000A9   8A..         MOV     ?V0 + 12,R2
   \   0000AB   8B..         MOV     ?V0 + 13,R3
   \   0000AD   85....       MOV     ?V0 + 0,?V0 + 12
   \   0000B0   85....       MOV     ?V0 + 1,?V0 + 13
   2879            if ( pRsp )
   \   0000B3   E5..         MOV     A,?V0 + 0
   \   0000B5   45..         ORL     A,?V0 + 1
   \   0000B7   7003         JNZ     $+5
   \   0000B9   02....       LJMP    ??ZDO_ParseMgmtBindRsp_1 & 0xFFFF
   2880            {
   2881              uint8 x;
   2882              apsBindingItem_t *pList = pRsp->list;
   \   0000BC   E5..         MOV     A,?V0 + 0
   \   0000BE   2404         ADD     A,#0x4
   \   0000C0   FE           MOV     R6,A
   \   0000C1   E5..         MOV     A,?V0 + 1
   \   0000C3   3400         ADDC    A,#0x0
   \   0000C5   FF           MOV     R7,A
   2883              pRsp->status = status;
   \   0000C6   E5..         MOV     A,?V0 + 8
   \   0000C8   85..82       MOV     DPL,?V0 + 0
   \   0000CB   85..83       MOV     DPH,?V0 + 1
   \   0000CE   E5..         MOV     A,?V0 + 8
   \   0000D0   F0           MOVX    @DPTR,A
   2884              pRsp->bindingCount = bindingCount;
   \   0000D1   E5..         MOV     A,?V0 + 6
   \   0000D3   85..82       MOV     DPL,?V0 + 0
   \   0000D6   85..83       MOV     DPH,?V0 + 1
   \   0000D9   A3           INC     DPTR
   \   0000DA   E5..         MOV     A,?V0 + 6
   \   0000DC   F0           MOVX    @DPTR,A
   2885              pRsp->startIndex = startIndex;
   \   0000DD   E5..         MOV     A,?V0 + 5
   \   0000DF   85..82       MOV     DPL,?V0 + 0
   \   0000E2   85..83       MOV     DPH,?V0 + 1
   \   0000E5   A3           INC     DPTR
   \   0000E6   A3           INC     DPTR
   \   0000E7   E5..         MOV     A,?V0 + 5
   \   0000E9   F0           MOVX    @DPTR,A
   2886              pRsp->bindingListCount = bindingListCount;
   \   0000EA   E5..         MOV     A,?V0 + 4
   \   0000EC   85..82       MOV     DPL,?V0 + 0
   \   0000EF   85..83       MOV     DPH,?V0 + 1
   \   0000F2   A3           INC     DPTR
   \   0000F3   A3           INC     DPTR
   \   0000F4   A3           INC     DPTR
   \   0000F5   E5..         MOV     A,?V0 + 4
   \   0000F7   F0           MOVX    @DPTR,A
   2887          
   2888              for ( x = 0; x < bindingListCount; x++ )
   \   0000F8   75..00       MOV     ?V0 + 7,#0x0
   \                     ??ZDO_ParseMgmtBindRsp_2:
   \   0000FB   E5..         MOV     A,?V0 + 7
   \   0000FD   C3           CLR     C
   \   0000FE   95..         SUBB    A,?V0 + 4
   \   000100   4003         JC      $+5
   \   000102   02....       LJMP    ??ZDO_ParseMgmtBindRsp_1 & 0xFFFF
   2889              {
   2890                osal_cpyExtAddr( pList->srcAddr, msg );
   \   000105                ; Setup parameters for call to function sAddrExtCpy
   \   000105   AC..         MOV     R4,?V0 + 2
   \   000107   AD..         MOV     R5,?V0 + 3
   \   000109   EE           MOV     A,R6
   \   00010A   FA           MOV     R2,A
   \   00010B   EF           MOV     A,R7
   \   00010C   FB           MOV     R3,A
   \   00010D   12....       LCALL   ??sAddrExtCpy?relay
   2891                msg += Z_EXTADDR_LEN;
   \   000110   E5..         MOV     A,?V0 + 2
   \   000112   2408         ADD     A,#0x8
   \   000114   F5..         MOV     ?V0 + 2,A
   \   000116   E5..         MOV     A,?V0 + 3
   \   000118   3400         ADDC    A,#0x0
   \   00011A   F5..         MOV     ?V0 + 3,A
   2892                pList->srcEP = *msg++;
   \   00011C   85..82       MOV     DPL,?V0 + 2
   \   00011F   85..83       MOV     DPH,?V0 + 3
   \   000122   E0           MOVX    A,@DPTR
   \   000123   8E82         MOV     DPL,R6
   \   000125   8F83         MOV     DPH,R7
   \   000127   A3           INC     DPTR
   \   000128   A3           INC     DPTR
   \   000129   A3           INC     DPTR
   \   00012A   A3           INC     DPTR
   \   00012B   A3           INC     DPTR
   \   00012C   A3           INC     DPTR
   \   00012D   A3           INC     DPTR
   \   00012E   A3           INC     DPTR
   \   00012F   F0           MOVX    @DPTR,A
   \   000130   85..82       MOV     DPL,?V0 + 2
   \   000133   85..83       MOV     DPH,?V0 + 3
   \   000136   A3           INC     DPTR
   \   000137   8582..       MOV     ?V0 + 2,DPL
   \   00013A   8583..       MOV     ?V0 + 3,DPH
   2893          
   2894                // Get the Cluster ID
   2895          
   2896                pList->clusterID = BUILD_UINT16( msg[0], msg[1] );
   \   00013D   85..82       MOV     DPL,?V0 + 2
   \   000140   85..83       MOV     DPH,?V0 + 3
   \   000143   E0           MOVX    A,@DPTR
   \   000144   FA           MOV     R2,A
   \   000145   7B00         MOV     R3,#0x0
   \   000147   85..82       MOV     DPL,?V0 + 2
   \   00014A   85..83       MOV     DPH,?V0 + 3
   \   00014D   A3           INC     DPTR
   \   00014E   E0           MOVX    A,@DPTR
   \   00014F   F8           MOV     R0,A
   \   000150   7900         MOV     R1,#0x0
   \   000152   E4           CLR     A
   \   000153   C8           XCH     A,R0
   \   000154   F9           MOV     R1,A
   \   000155   EA           MOV     A,R2
   \   000156   28           ADD     A,R0
   \   000157   F8           MOV     R0,A
   \   000158   EB           MOV     A,R3
   \   000159   39           ADDC    A,R1
   \   00015A   F9           MOV     R1,A
   \   00015B   8E82         MOV     DPL,R6
   \   00015D   8F83         MOV     DPH,R7
   \   00015F   A3           INC     DPTR
   \   000160   A3           INC     DPTR
   \   000161   A3           INC     DPTR
   \   000162   A3           INC     DPTR
   \   000163   A3           INC     DPTR
   \   000164   A3           INC     DPTR
   \   000165   A3           INC     DPTR
   \   000166   A3           INC     DPTR
   \   000167   A3           INC     DPTR
   \   000168   E8           MOV     A,R0
   \   000169   F0           MOVX    @DPTR,A
   \   00016A   A3           INC     DPTR
   \   00016B   E9           MOV     A,R1
   \   00016C   F0           MOVX    @DPTR,A
   2897                msg += 2;
   \   00016D   E5..         MOV     A,?V0 + 2
   \   00016F   2402         ADD     A,#0x2
   \   000171   F5..         MOV     ?V0 + 2,A
   \   000173   E5..         MOV     A,?V0 + 3
   \   000175   3400         ADDC    A,#0x0
   \   000177   F5..         MOV     ?V0 + 3,A
   2898                pList->dstAddr.addrMode = *msg++;
   \   000179   85..82       MOV     DPL,?V0 + 2
   \   00017C   85..83       MOV     DPH,?V0 + 3
   \   00017F   E0           MOVX    A,@DPTR
   \   000180   C0E0         PUSH    A
   \   000182   EE           MOV     A,R6
   \   000183   2413         ADD     A,#0x13
   \   000185   F582         MOV     DPL,A
   \   000187   EF           MOV     A,R7
   \   000188   3400         ADDC    A,#0x0
   \   00018A   F583         MOV     DPH,A
   \   00018C   D0E0         POP     A
   \   00018E   F0           MOVX    @DPTR,A
   \   00018F   85..82       MOV     DPL,?V0 + 2
   \   000192   85..83       MOV     DPH,?V0 + 3
   \   000195   A3           INC     DPTR
   \   000196   8582..       MOV     ?V0 + 2,DPL
   \   000199   8583..       MOV     ?V0 + 3,DPH
   2899                if ( pList->dstAddr.addrMode == Addr64Bit )
   \   00019C   EE           MOV     A,R6
   \   00019D   2413         ADD     A,#0x13
   \   00019F   F582         MOV     DPL,A
   \   0001A1   EF           MOV     A,R7
   \   0001A2   3400         ADDC    A,#0x0
   \   0001A4   F583         MOV     DPH,A
   \   0001A6   E0           MOVX    A,@DPTR
   \   0001A7   6403         XRL     A,#0x3
   \   0001A9   7040         JNZ     ??ZDO_ParseMgmtBindRsp_3
   2900                {
   2901                  osal_cpyExtAddr( pList->dstAddr.addr.extAddr, msg );
   \   0001AB                ; Setup parameters for call to function sAddrExtCpy
   \   0001AB   AC..         MOV     R4,?V0 + 2
   \   0001AD   AD..         MOV     R5,?V0 + 3
   \   0001AF   EE           MOV     A,R6
   \   0001B0   240B         ADD     A,#0xb
   \   0001B2   FA           MOV     R2,A
   \   0001B3   EF           MOV     A,R7
   \   0001B4   3400         ADDC    A,#0x0
   \   0001B6   FB           MOV     R3,A
   \   0001B7   12....       LCALL   ??sAddrExtCpy?relay
   2902                  msg += Z_EXTADDR_LEN;
   \   0001BA   E5..         MOV     A,?V0 + 2
   \   0001BC   2408         ADD     A,#0x8
   \   0001BE   F5..         MOV     ?V0 + 2,A
   \   0001C0   E5..         MOV     A,?V0 + 3
   \   0001C2   3400         ADDC    A,#0x0
   \   0001C4   F5..         MOV     ?V0 + 3,A
   2903                  pList->dstEP = *msg++;
   \   0001C6   85..82       MOV     DPL,?V0 + 2
   \   0001C9   85..83       MOV     DPH,?V0 + 3
   \   0001CC   E0           MOVX    A,@DPTR
   \   0001CD   C0E0         PUSH    A
   \   0001CF   EE           MOV     A,R6
   \   0001D0   2414         ADD     A,#0x14
   \   0001D2   F582         MOV     DPL,A
   \   0001D4   EF           MOV     A,R7
   \   0001D5   3400         ADDC    A,#0x0
   \   0001D7   F583         MOV     DPH,A
   \   0001D9   D0E0         POP     A
   \   0001DB   F0           MOVX    @DPTR,A
   \   0001DC   85..82       MOV     DPL,?V0 + 2
   \   0001DF   85..83       MOV     DPH,?V0 + 3
   \   0001E2   A3           INC     DPTR
   \   0001E3   8582..       MOV     ?V0 + 2,DPL
   \   0001E6   8583..       MOV     ?V0 + 3,DPH
   \   0001E9   8039         SJMP    ??ZDO_ParseMgmtBindRsp_4
   2904                }
   2905                else
   2906                {
   2907                  pList->dstAddr.addr.shortAddr = BUILD_UINT16( msg[0], msg[1] );
   \                     ??ZDO_ParseMgmtBindRsp_3:
   \   0001EB   85..82       MOV     DPL,?V0 + 2
   \   0001EE   85..83       MOV     DPH,?V0 + 3
   \   0001F1   E0           MOVX    A,@DPTR
   \   0001F2   FA           MOV     R2,A
   \   0001F3   7B00         MOV     R3,#0x0
   \   0001F5   85..82       MOV     DPL,?V0 + 2
   \   0001F8   85..83       MOV     DPH,?V0 + 3
   \   0001FB   A3           INC     DPTR
   \   0001FC   E0           MOVX    A,@DPTR
   \   0001FD   F8           MOV     R0,A
   \   0001FE   7900         MOV     R1,#0x0
   \   000200   E4           CLR     A
   \   000201   C8           XCH     A,R0
   \   000202   F9           MOV     R1,A
   \   000203   EA           MOV     A,R2
   \   000204   28           ADD     A,R0
   \   000205   F8           MOV     R0,A
   \   000206   EB           MOV     A,R3
   \   000207   39           ADDC    A,R1
   \   000208   F9           MOV     R1,A
   \   000209   EE           MOV     A,R6
   \   00020A   240B         ADD     A,#0xb
   \   00020C   F582         MOV     DPL,A
   \   00020E   EF           MOV     A,R7
   \   00020F   3400         ADDC    A,#0x0
   \   000211   F583         MOV     DPH,A
   \   000213   E8           MOV     A,R0
   \   000214   F0           MOVX    @DPTR,A
   \   000215   A3           INC     DPTR
   \   000216   E9           MOV     A,R1
   \   000217   F0           MOVX    @DPTR,A
   2908                  msg += 2;
   \   000218   E5..         MOV     A,?V0 + 2
   \   00021A   2402         ADD     A,#0x2
   \   00021C   F5..         MOV     ?V0 + 2,A
   \   00021E   E5..         MOV     A,?V0 + 3
   \   000220   3400         ADDC    A,#0x0
   \   000222   F5..         MOV     ?V0 + 3,A
   2909                }
   2910          
   2911                pList++;
   \                     ??ZDO_ParseMgmtBindRsp_4:
   \   000224   EE           MOV     A,R6
   \   000225   2415         ADD     A,#0x15
   \   000227   FE           MOV     R6,A
   \   000228   EF           MOV     A,R7
   \   000229   3400         ADDC    A,#0x0
   \   00022B   FF           MOV     R7,A
   2912              }
   \   00022C   05..         INC     ?V0 + 7
   \   00022E   02....       LJMP    ??ZDO_ParseMgmtBindRsp_2 & 0xFFFF
   2913            }
   2914          
   2915            return ( pRsp );
   \                     ??ZDO_ParseMgmtBindRsp_1:
   \   000231   AA..         MOV     R2,?V0 + 0
   \   000233   AB..         MOV     R3,?V0 + 1
   \   000235   7F0E         MOV     R7,#0xe
   \   000237   02....       LJMP    ?BANKED_LEAVE_XDATA
   2916          }
   2917          
   2918          /*********************************************************************
   2919           * @fn          ZDO_ParseUserDescRsp
   2920           *
   2921           * @brief       This function parses the incoming User
   2922           *              Descriptor Response.
   2923           *
   2924           * @param       inMsg - incoming response message
   2925           *
   2926           * @return      a pointer to parsed response structure (NULL if not allocated).
   2927           *          This structure was allocated using osal_mem_alloc, so it must be freed
   2928           *          by the calling function [osal_mem_free()].
   2929           */

   \                                 In  segment BANKED_CODE, align 1, keep-with-next
   2930          ZDO_UserDescRsp_t *ZDO_ParseUserDescRsp( zdoIncomingMsg_t *inMsg )
   \                     ZDO_ParseUserDescRsp:
   2931          {
   \   000000   74F0         MOV     A,#-0x10
   \   000002   12....       LCALL   ?BANKED_ENTER_XDATA
   \   000005                ; Saved register size: 16
   \   000005                ; Auto size: 0
   \   000005   8A..         MOV     ?V0 + 2,R2
   \   000007   8B..         MOV     ?V0 + 3,R3
   2932            ZDO_UserDescRsp_t *pRsp;
   2933            uint8 *msg;
   2934            uint8 descLen = 0;
   \   000009   75..00       MOV     ?V0 + 7,#0x0
   2935          
   2936            msg = inMsg->asdu;
   \   00000C   E5..         MOV     A,?V0 + 2
   \   00000E   2413         ADD     A,#0x13
   \   000010   F582         MOV     DPL,A
   \   000012   E5..         MOV     A,?V0 + 3
   \   000014   3400         ADDC    A,#0x0
   \   000016   F583         MOV     DPH,A
   \   000018   E0           MOVX    A,@DPTR
   \   000019   F8           MOV     R0,A
   \   00001A   A3           INC     DPTR
   \   00001B   E0           MOVX    A,@DPTR
   \   00001C   F9           MOV     R1,A
   \   00001D   88..         MOV     ?V0 + 0,R0
   \   00001F   89..         MOV     ?V0 + 1,R1
   2937          
   2938            if ( msg[0] == ZSuccess )
   \   000021   85..82       MOV     DPL,?V0 + 0
   \   000024   85..83       MOV     DPH,?V0 + 1
   \   000027   E0           MOVX    A,@DPTR
   \   000028   700C         JNZ     ??ZDO_ParseUserDescRsp_0
   2939              descLen = msg[3];
   \   00002A   85..82       MOV     DPL,?V0 + 0
   \   00002D   85..83       MOV     DPH,?V0 + 1
   \   000030   A3           INC     DPTR
   \   000031   A3           INC     DPTR
   \   000032   A3           INC     DPTR
   \   000033   E0           MOVX    A,@DPTR
   \   000034   F5..         MOV     ?V0 + 7,A
   2940          
   2941            pRsp = (ZDO_UserDescRsp_t *)osal_mem_alloc( sizeof ( ZDO_UserDescRsp_t ) + descLen );
   \                     ??ZDO_ParseUserDescRsp_0:
   \   000036                ; Setup parameters for call to function osal_mem_alloc
   \   000036   85....       MOV     ?V0 + 4,?V0 + 7
   \   000039   75..00       MOV     ?V0 + 5,#0x0
   \   00003C   E5..         MOV     A,?V0 + 4
   \   00003E   2404         ADD     A,#0x4
   \   000040   FA           MOV     R2,A
   \   000041   E5..         MOV     A,?V0 + 5
   \   000043   3400         ADDC    A,#0x0
   \   000045   FB           MOV     R3,A
   \   000046   12....       LCALL   ??osal_mem_alloc?relay
   \   000049   8A..         MOV     ?V0 + 4,R2
   \   00004B   8B..         MOV     ?V0 + 5,R3
   \   00004D   AE..         MOV     R6,?V0 + 4
   \   00004F   AF..         MOV     R7,?V0 + 5
   2942            if ( pRsp )
   \   000051   EE           MOV     A,R6
   \   000052   4F           ORL     A,R7
   \   000053   6074         JZ      ??ZDO_ParseUserDescRsp_1
   2943            {
   2944              pRsp->status = msg[0];
   \   000055   85..82       MOV     DPL,?V0 + 0
   \   000058   85..83       MOV     DPH,?V0 + 1
   \   00005B   E0           MOVX    A,@DPTR
   \   00005C   8E82         MOV     DPL,R6
   \   00005E   8F83         MOV     DPH,R7
   \   000060   F0           MOVX    @DPTR,A
   2945              pRsp->nwkAddr = BUILD_UINT16( msg[1], msg[2] );
   \   000061   85..82       MOV     DPL,?V0 + 0
   \   000064   85..83       MOV     DPH,?V0 + 1
   \   000067   A3           INC     DPTR
   \   000068   E0           MOVX    A,@DPTR
   \   000069   FA           MOV     R2,A
   \   00006A   7B00         MOV     R3,#0x0
   \   00006C   85..82       MOV     DPL,?V0 + 0
   \   00006F   85..83       MOV     DPH,?V0 + 1
   \   000072   A3           INC     DPTR
   \   000073   A3           INC     DPTR
   \   000074   E0           MOVX    A,@DPTR
   \   000075   F8           MOV     R0,A
   \   000076   7900         MOV     R1,#0x0
   \   000078   E4           CLR     A
   \   000079   C8           XCH     A,R0
   \   00007A   F9           MOV     R1,A
   \   00007B   EA           MOV     A,R2
   \   00007C   28           ADD     A,R0
   \   00007D   F8           MOV     R0,A
   \   00007E   EB           MOV     A,R3
   \   00007F   39           ADDC    A,R1
   \   000080   F9           MOV     R1,A
   \   000081   8E82         MOV     DPL,R6
   \   000083   8F83         MOV     DPH,R7
   \   000085   A3           INC     DPTR
   \   000086   E8           MOV     A,R0
   \   000087   F0           MOVX    @DPTR,A
   \   000088   A3           INC     DPTR
   \   000089   E9           MOV     A,R1
   \   00008A   F0           MOVX    @DPTR,A
   2946              pRsp->length = descLen;
   \   00008B   E5..         MOV     A,?V0 + 7
   \   00008D   8E82         MOV     DPL,R6
   \   00008F   8F83         MOV     DPH,R7
   \   000091   A3           INC     DPTR
   \   000092   A3           INC     DPTR
   \   000093   A3           INC     DPTR
   \   000094   E5..         MOV     A,?V0 + 7
   \   000096   F0           MOVX    @DPTR,A
   2947              if ( descLen )
   \   000097   E5..         MOV     A,?V0 + 7
   \   000099   602E         JZ      ??ZDO_ParseUserDescRsp_1
   2948                osal_memcpy( pRsp->desc, &msg[4], descLen );
   \   00009B                ; Setup parameters for call to function osal_memcpy
   \   00009B   E5..         MOV     A,?V0 + 0
   \   00009D   2404         ADD     A,#0x4
   \   00009F   F5..         MOV     ?V0 + 4,A
   \   0000A1   E5..         MOV     A,?V0 + 1
   \   0000A3   3400         ADDC    A,#0x0
   \   0000A5   F5..         MOV     ?V0 + 5,A
   \   0000A7   75..00       MOV     ?V0 + 6,#0x0
   \   0000AA   78..         MOV     R0,#?V0 + 4
   \   0000AC   12....       LCALL   ?PUSH_XSTACK_I_THREE
   \   0000AF   85....       MOV     ?V0 + 4,?V0 + 7
   \   0000B2   75..00       MOV     ?V0 + 5,#0x0
   \   0000B5   AC..         MOV     R4,?V0 + 4
   \   0000B7   AD..         MOV     R5,?V0 + 5
   \   0000B9   EE           MOV     A,R6
   \   0000BA   2404         ADD     A,#0x4
   \   0000BC   FA           MOV     R2,A
   \   0000BD   EF           MOV     A,R7
   \   0000BE   3400         ADDC    A,#0x0
   \   0000C0   FB           MOV     R3,A
   \   0000C1   12....       LCALL   ??osal_memcpy?relay
   \   0000C4   7403         MOV     A,#0x3
   \   0000C6   12....       LCALL   ?DEALLOC_XSTACK8
   2949            }
   2950          
   2951            return ( pRsp );
   \                     ??ZDO_ParseUserDescRsp_1:
   \   0000C9   EE           MOV     A,R6
   \   0000CA   FA           MOV     R2,A
   \   0000CB   EF           MOV     A,R7
   \   0000CC   FB           MOV     R3,A
   \   0000CD   7F08         MOV     R7,#0x8
   \   0000CF   02....       LJMP    ?BANKED_LEAVE_XDATA
   2952          }
   2953          
   2954          /*********************************************************************
   2955           * @fn          ZDO_ParseSimpleDescBuf
   2956           *
   2957           * @brief       Parse a byte sequence representation of a Simple Descriptor.
   2958           *
   2959           * @param       buf  - pointer to a byte array representing a Simple Desc.
   2960           * @param       desc - SimpleDescriptionFormat_t *
   2961           *
   2962           *              This routine allocates storage for the cluster IDs because
   2963           *              they are 16-bit and need to be aligned to be properly processed.
   2964           *              This routine returns non-zero if an allocation fails.
   2965           *
   2966           *              NOTE: This means that the caller or user of the input structure
   2967           *                    is responsible for freeing the memory
   2968           *
   2969           * @return      0: success
   2970           *              1: failure due to malloc failure.
   2971           */

   \                                 In  segment BANKED_CODE, align 1, keep-with-next
   2972          uint8 ZDO_ParseSimpleDescBuf( uint8 *buf, SimpleDescriptionFormat_t *desc )
   \                     ZDO_ParseSimpleDescBuf:
   2973          {
   \   000000   74F2         MOV     A,#-0xe
   \   000002   12....       LCALL   ?BANKED_ENTER_XDATA
   \   000005                ; Saved register size: 14
   \   000005                ; Auto size: 0
   \   000005   EA           MOV     A,R2
   \   000006   FE           MOV     R6,A
   \   000007   EB           MOV     A,R3
   \   000008   FF           MOV     R7,A
   \   000009   8C..         MOV     ?V0 + 0,R4
   \   00000B   8D..         MOV     ?V0 + 1,R5
   2974            uint8 num, i;
   2975          
   2976            desc->EndPoint = *buf++;
   \   00000D   8E82         MOV     DPL,R6
   \   00000F   8F83         MOV     DPH,R7
   \   000011   E0           MOVX    A,@DPTR
   \   000012   85..82       MOV     DPL,?V0 + 0
   \   000015   85..83       MOV     DPH,?V0 + 1
   \   000018   F0           MOVX    @DPTR,A
   \   000019   8E82         MOV     DPL,R6
   \   00001B   8F83         MOV     DPH,R7
   \   00001D   A3           INC     DPTR
   \   00001E   AE82         MOV     R6,DPL
   \   000020   AF83         MOV     R7,DPH
   2977            desc->AppProfId = BUILD_UINT16( buf[0], buf[1] );
   \   000022   8E82         MOV     DPL,R6
   \   000024   8F83         MOV     DPH,R7
   \   000026   E0           MOVX    A,@DPTR
   \   000027   FA           MOV     R2,A
   \   000028   7B00         MOV     R3,#0x0
   \   00002A   8E82         MOV     DPL,R6
   \   00002C   8F83         MOV     DPH,R7
   \   00002E   A3           INC     DPTR
   \   00002F   E0           MOVX    A,@DPTR
   \   000030   F8           MOV     R0,A
   \   000031   7900         MOV     R1,#0x0
   \   000033   E4           CLR     A
   \   000034   C8           XCH     A,R0
   \   000035   F9           MOV     R1,A
   \   000036   EA           MOV     A,R2
   \   000037   28           ADD     A,R0
   \   000038   F8           MOV     R0,A
   \   000039   EB           MOV     A,R3
   \   00003A   39           ADDC    A,R1
   \   00003B   F9           MOV     R1,A
   \   00003C   85..82       MOV     DPL,?V0 + 0
   \   00003F   85..83       MOV     DPH,?V0 + 1
   \   000042   A3           INC     DPTR
   \   000043   E8           MOV     A,R0
   \   000044   F0           MOVX    @DPTR,A
   \   000045   A3           INC     DPTR
   \   000046   E9           MOV     A,R1
   \   000047   F0           MOVX    @DPTR,A
   2978            buf += 2;
   \   000048   EE           MOV     A,R6
   \   000049   2402         ADD     A,#0x2
   \   00004B   FE           MOV     R6,A
   \   00004C   EF           MOV     A,R7
   \   00004D   3400         ADDC    A,#0x0
   \   00004F   FF           MOV     R7,A
   2979            desc->AppDeviceId = BUILD_UINT16( buf[0], buf[1] );
   \   000050   8E82         MOV     DPL,R6
   \   000052   8F83         MOV     DPH,R7
   \   000054   E0           MOVX    A,@DPTR
   \   000055   FA           MOV     R2,A
   \   000056   7B00         MOV     R3,#0x0
   \   000058   8E82         MOV     DPL,R6
   \   00005A   8F83         MOV     DPH,R7
   \   00005C   A3           INC     DPTR
   \   00005D   E0           MOVX    A,@DPTR
   \   00005E   F8           MOV     R0,A
   \   00005F   7900         MOV     R1,#0x0
   \   000061   E4           CLR     A
   \   000062   C8           XCH     A,R0
   \   000063   F9           MOV     R1,A
   \   000064   EA           MOV     A,R2
   \   000065   28           ADD     A,R0
   \   000066   F8           MOV     R0,A
   \   000067   EB           MOV     A,R3
   \   000068   39           ADDC    A,R1
   \   000069   F9           MOV     R1,A
   \   00006A   85..82       MOV     DPL,?V0 + 0
   \   00006D   85..83       MOV     DPH,?V0 + 1
   \   000070   A3           INC     DPTR
   \   000071   A3           INC     DPTR
   \   000072   A3           INC     DPTR
   \   000073   E8           MOV     A,R0
   \   000074   F0           MOVX    @DPTR,A
   \   000075   A3           INC     DPTR
   \   000076   E9           MOV     A,R1
   \   000077   F0           MOVX    @DPTR,A
   2980            buf += 2;
   \   000078   EE           MOV     A,R6
   \   000079   2402         ADD     A,#0x2
   \   00007B   FE           MOV     R6,A
   \   00007C   EF           MOV     A,R7
   \   00007D   3400         ADDC    A,#0x0
   \   00007F   FF           MOV     R7,A
   2981            desc->AppDevVer = *buf >> 4;
   \   000080   8E82         MOV     DPL,R6
   \   000082   8F83         MOV     DPH,R7
   \   000084   E0           MOVX    A,@DPTR
   \   000085   C4           SWAP    A
   \   000086   540F         ANL     A,#0xf
   \   000088   F8           MOV     R0,A
   \   000089   740F         MOV     A,#0xf
   \   00008B   58           ANL     A,R0
   \   00008C   F8           MOV     R0,A
   \   00008D   85..82       MOV     DPL,?V0 + 0
   \   000090   85..83       MOV     DPH,?V0 + 1
   \   000093   A3           INC     DPTR
   \   000094   A3           INC     DPTR
   \   000095   A3           INC     DPTR
   \   000096   A3           INC     DPTR
   \   000097   A3           INC     DPTR
   \   000098   E0           MOVX    A,@DPTR
   \   000099   54F0         ANL     A,#0xf0
   \   00009B   48           ORL     A,R0
   \   00009C   85..82       MOV     DPL,?V0 + 0
   \   00009F   85..83       MOV     DPH,?V0 + 1
   \   0000A2   A3           INC     DPTR
   \   0000A3   A3           INC     DPTR
   \   0000A4   A3           INC     DPTR
   \   0000A5   A3           INC     DPTR
   \   0000A6   A3           INC     DPTR
   \   0000A7   F0           MOVX    @DPTR,A
   2982          
   2983            desc->Reserved = 0;
   \   0000A8   85..82       MOV     DPL,?V0 + 0
   \   0000AB   85..83       MOV     DPH,?V0 + 1
   \   0000AE   A3           INC     DPTR
   \   0000AF   A3           INC     DPTR
   \   0000B0   A3           INC     DPTR
   \   0000B1   A3           INC     DPTR
   \   0000B2   A3           INC     DPTR
   \   0000B3   E0           MOVX    A,@DPTR
   \   0000B4   540F         ANL     A,#0xf
   \   0000B6   F0           MOVX    @DPTR,A
   2984            buf++;
   \   0000B7   8E82         MOV     DPL,R6
   \   0000B9   8F83         MOV     DPH,R7
   \   0000BB   A3           INC     DPTR
   \   0000BC   AE82         MOV     R6,DPL
   \   0000BE   AF83         MOV     R7,DPH
   2985          
   2986            // move in input cluster list (if any). allocate aligned memory.
   2987            num = desc->AppNumInClusters = *buf++;
   \   0000C0   8E82         MOV     DPL,R6
   \   0000C2   8F83         MOV     DPH,R7
   \   0000C4   E0           MOVX    A,@DPTR
   \   0000C5   F8           MOV     R0,A
   \   0000C6   8E82         MOV     DPL,R6
   \   0000C8   8F83         MOV     DPH,R7
   \   0000CA   A3           INC     DPTR
   \   0000CB   AE82         MOV     R6,DPL
   \   0000CD   AF83         MOV     R7,DPH
   \   0000CF   E8           MOV     A,R0
   \   0000D0   85..82       MOV     DPL,?V0 + 0
   \   0000D3   85..83       MOV     DPH,?V0 + 1
   \   0000D6   A3           INC     DPTR
   \   0000D7   A3           INC     DPTR
   \   0000D8   A3           INC     DPTR
   \   0000D9   A3           INC     DPTR
   \   0000DA   A3           INC     DPTR
   \   0000DB   A3           INC     DPTR
   \   0000DC   F0           MOVX    @DPTR,A
   \   0000DD   88..         MOV     ?V0 + 3,R0
   2988            if ( num )
   \   0000DF   E5..         MOV     A,?V0 + 3
   \   0000E1   7003         JNZ     $+5
   \   0000E3   02....       LJMP    ??ZDO_ParseSimpleDescBuf_0 & 0xFFFF
   2989            {
   2990              if (!(desc->pAppInClusterList = (uint16 *)osal_mem_alloc(num*sizeof(uint16))))
   \   0000E6                ; Setup parameters for call to function osal_mem_alloc
   \   0000E6   E5..         MOV     A,?V0 + 3
   \   0000E8   AA..         MOV     R2,?V0 + 3
   \   0000EA   7B00         MOV     R3,#0x0
   \   0000EC   EA           MOV     A,R2
   \   0000ED   75F002       MOV     B,#0x2
   \   0000F0   A4           MUL     AB
   \   0000F1   CA           XCH     A,R2
   \   0000F2   A8F0         MOV     R0,B
   \   0000F4   75F000       MOV     B,#0x0
   \   0000F7   A4           MUL     AB
   \   0000F8   28           ADD     A,R0
   \   0000F9   F8           MOV     R0,A
   \   0000FA   75F002       MOV     B,#0x2
   \   0000FD   EB           MOV     A,R3
   \   0000FE   A4           MUL     AB
   \   0000FF   28           ADD     A,R0
   \   000100   FB           MOV     R3,A
   \   000101   12....       LCALL   ??osal_mem_alloc?relay
   \   000104   8A..         MOV     ?V0 + 4,R2
   \   000106   8B..         MOV     ?V0 + 5,R3
   \   000108   A8..         MOV     R0,?V0 + 4
   \   00010A   A9..         MOV     R1,?V0 + 5
   \   00010C   85..82       MOV     DPL,?V0 + 0
   \   00010F   85..83       MOV     DPH,?V0 + 1
   \   000112   A3           INC     DPTR
   \   000113   A3           INC     DPTR
   \   000114   A3           INC     DPTR
   \   000115   A3           INC     DPTR
   \   000116   A3           INC     DPTR
   \   000117   A3           INC     DPTR
   \   000118   A3           INC     DPTR
   \   000119   E8           MOV     A,R0
   \   00011A   F0           MOVX    @DPTR,A
   \   00011B   A3           INC     DPTR
   \   00011C   E9           MOV     A,R1
   \   00011D   F0           MOVX    @DPTR,A
   \   00011E   E8           MOV     A,R0
   \   00011F   49           ORL     A,R1
   \   000120   7005         JNZ     ??ZDO_ParseSimpleDescBuf_1
   2991              {
   2992                // malloc failed. we're done.
   2993                return 1;
   \   000122   7901         MOV     R1,#0x1
   \   000124   02....       LJMP    ??ZDO_ParseSimpleDescBuf_2 & 0xFFFF
   2994              }
   2995              for (i=0; i<num; ++i)
   \                     ??ZDO_ParseSimpleDescBuf_1:
   \   000127   75..00       MOV     ?V0 + 2,#0x0
   \                     ??ZDO_ParseSimpleDescBuf_3:
   \   00012A   E5..         MOV     A,?V0 + 2
   \   00012C   C3           CLR     C
   \   00012D   95..         SUBB    A,?V0 + 3
   \   00012F   505D         JNC     ??ZDO_ParseSimpleDescBuf_0
   2996              {
   2997                desc->pAppInClusterList[i] = BUILD_UINT16( buf[0], buf[1] );
   \   000131   8E82         MOV     DPL,R6
   \   000133   8F83         MOV     DPH,R7
   \   000135   E0           MOVX    A,@DPTR
   \   000136   FA           MOV     R2,A
   \   000137   7B00         MOV     R3,#0x0
   \   000139   8E82         MOV     DPL,R6
   \   00013B   8F83         MOV     DPH,R7
   \   00013D   A3           INC     DPTR
   \   00013E   E0           MOVX    A,@DPTR
   \   00013F   F8           MOV     R0,A
   \   000140   7900         MOV     R1,#0x0
   \   000142   E4           CLR     A
   \   000143   C8           XCH     A,R0
   \   000144   F9           MOV     R1,A
   \   000145   EA           MOV     A,R2
   \   000146   28           ADD     A,R0
   \   000147   FA           MOV     R2,A
   \   000148   EB           MOV     A,R3
   \   000149   39           ADDC    A,R1
   \   00014A   FB           MOV     R3,A
   \   00014B   E5..         MOV     A,?V0 + 2
   \   00014D   A8..         MOV     R0,?V0 + 2
   \   00014F   7900         MOV     R1,#0x0
   \   000151   E8           MOV     A,R0
   \   000152   75F002       MOV     B,#0x2
   \   000155   A4           MUL     AB
   \   000156   C8           XCH     A,R0
   \   000157   ACF0         MOV     R4,B
   \   000159   75F000       MOV     B,#0x0
   \   00015C   A4           MUL     AB
   \   00015D   2C           ADD     A,R4
   \   00015E   FC           MOV     R4,A
   \   00015F   75F002       MOV     B,#0x2
   \   000162   E9           MOV     A,R1
   \   000163   A4           MUL     AB
   \   000164   2C           ADD     A,R4
   \   000165   F9           MOV     R1,A
   \   000166   85..82       MOV     DPL,?V0 + 0
   \   000169   85..83       MOV     DPH,?V0 + 1
   \   00016C   A3           INC     DPTR
   \   00016D   A3           INC     DPTR
   \   00016E   A3           INC     DPTR
   \   00016F   A3           INC     DPTR
   \   000170   A3           INC     DPTR
   \   000171   A3           INC     DPTR
   \   000172   A3           INC     DPTR
   \   000173   E0           MOVX    A,@DPTR
   \   000174   28           ADD     A,R0
   \   000175   FC           MOV     R4,A
   \   000176   A3           INC     DPTR
   \   000177   E0           MOVX    A,@DPTR
   \   000178   39           ADDC    A,R1
   \   000179   8C82         MOV     DPL,R4
   \   00017B   F583         MOV     DPH,A
   \   00017D   EA           MOV     A,R2
   \   00017E   F0           MOVX    @DPTR,A
   \   00017F   A3           INC     DPTR
   \   000180   EB           MOV     A,R3
   \   000181   F0           MOVX    @DPTR,A
   2998                buf += 2;
   \   000182   EE           MOV     A,R6
   \   000183   2402         ADD     A,#0x2
   \   000185   FE           MOV     R6,A
   \   000186   EF           MOV     A,R7
   \   000187   3400         ADDC    A,#0x0
   \   000189   FF           MOV     R7,A
   2999              }
   \   00018A   05..         INC     ?V0 + 2
   \   00018C   809C         SJMP    ??ZDO_ParseSimpleDescBuf_3
   3000            }
   3001          
   3002            // move in output cluster list (if any). allocate aligned memory.
   3003            num = desc->AppNumOutClusters = *buf++;
   \                     ??ZDO_ParseSimpleDescBuf_0:
   \   00018E   8E82         MOV     DPL,R6
   \   000190   8F83         MOV     DPH,R7
   \   000192   E0           MOVX    A,@DPTR
   \   000193   F8           MOV     R0,A
   \   000194   8E82         MOV     DPL,R6
   \   000196   8F83         MOV     DPH,R7
   \   000198   A3           INC     DPTR
   \   000199   AE82         MOV     R6,DPL
   \   00019B   AF83         MOV     R7,DPH
   \   00019D   E8           MOV     A,R0
   \   00019E   85..82       MOV     DPL,?V0 + 0
   \   0001A1   85..83       MOV     DPH,?V0 + 1
   \   0001A4   A3           INC     DPTR
   \   0001A5   A3           INC     DPTR
   \   0001A6   A3           INC     DPTR
   \   0001A7   A3           INC     DPTR
   \   0001A8   A3           INC     DPTR
   \   0001A9   A3           INC     DPTR
   \   0001AA   A3           INC     DPTR
   \   0001AB   A3           INC     DPTR
   \   0001AC   A3           INC     DPTR
   \   0001AD   F0           MOVX    @DPTR,A
   \   0001AE   88..         MOV     ?V0 + 3,R0
   3004            if (num)
   \   0001B0   E5..         MOV     A,?V0 + 3
   \   0001B2   7003         JNZ     $+5
   \   0001B4   02....       LJMP    ??ZDO_ParseSimpleDescBuf_4 & 0xFFFF
   3005            {
   3006              if (!(desc->pAppOutClusterList = (uint16 *)osal_mem_alloc(num*sizeof(uint16))))
   \   0001B7                ; Setup parameters for call to function osal_mem_alloc
   \   0001B7   E5..         MOV     A,?V0 + 3
   \   0001B9   AA..         MOV     R2,?V0 + 3
   \   0001BB   7B00         MOV     R3,#0x0
   \   0001BD   EA           MOV     A,R2
   \   0001BE   75F002       MOV     B,#0x2
   \   0001C1   A4           MUL     AB
   \   0001C2   CA           XCH     A,R2
   \   0001C3   A8F0         MOV     R0,B
   \   0001C5   75F000       MOV     B,#0x0
   \   0001C8   A4           MUL     AB
   \   0001C9   28           ADD     A,R0
   \   0001CA   F8           MOV     R0,A
   \   0001CB   75F002       MOV     B,#0x2
   \   0001CE   EB           MOV     A,R3
   \   0001CF   A4           MUL     AB
   \   0001D0   28           ADD     A,R0
   \   0001D1   FB           MOV     R3,A
   \   0001D2   12....       LCALL   ??osal_mem_alloc?relay
   \   0001D5   8A..         MOV     ?V0 + 4,R2
   \   0001D7   8B..         MOV     ?V0 + 5,R3
   \   0001D9   A8..         MOV     R0,?V0 + 4
   \   0001DB   A9..         MOV     R1,?V0 + 5
   \   0001DD   85..82       MOV     DPL,?V0 + 0
   \   0001E0   85..83       MOV     DPH,?V0 + 1
   \   0001E3   A3           INC     DPTR
   \   0001E4   A3           INC     DPTR
   \   0001E5   A3           INC     DPTR
   \   0001E6   A3           INC     DPTR
   \   0001E7   A3           INC     DPTR
   \   0001E8   A3           INC     DPTR
   \   0001E9   A3           INC     DPTR
   \   0001EA   A3           INC     DPTR
   \   0001EB   A3           INC     DPTR
   \   0001EC   A3           INC     DPTR
   \   0001ED   E8           MOV     A,R0
   \   0001EE   F0           MOVX    @DPTR,A
   \   0001EF   A3           INC     DPTR
   \   0001F0   E9           MOV     A,R1
   \   0001F1   F0           MOVX    @DPTR,A
   \   0001F2   E8           MOV     A,R0
   \   0001F3   49           ORL     A,R1
   \   0001F4   702F         JNZ     ??ZDO_ParseSimpleDescBuf_5
   3007              {
   3008                // malloc failed. free input cluster list memory if there is any
   3009                if ( desc->pAppInClusterList != NULL )
   \   0001F6   85..82       MOV     DPL,?V0 + 0
   \   0001F9   85..83       MOV     DPH,?V0 + 1
   \   0001FC   A3           INC     DPTR
   \   0001FD   A3           INC     DPTR
   \   0001FE   A3           INC     DPTR
   \   0001FF   A3           INC     DPTR
   \   000200   A3           INC     DPTR
   \   000201   A3           INC     DPTR
   \   000202   A3           INC     DPTR
   \   000203   E0           MOVX    A,@DPTR
   \   000204   F8           MOV     R0,A
   \   000205   A3           INC     DPTR
   \   000206   E0           MOVX    A,@DPTR
   \   000207   F9           MOV     R1,A
   \   000208   E8           MOV     A,R0
   \   000209   49           ORL     A,R1
   \   00020A   6015         JZ      ??ZDO_ParseSimpleDescBuf_6
   3010                {
   3011                  osal_mem_free(desc->pAppInClusterList);
   \   00020C                ; Setup parameters for call to function osal_mem_free
   \   00020C   85..82       MOV     DPL,?V0 + 0
   \   00020F   85..83       MOV     DPH,?V0 + 1
   \   000212   A3           INC     DPTR
   \   000213   A3           INC     DPTR
   \   000214   A3           INC     DPTR
   \   000215   A3           INC     DPTR
   \   000216   A3           INC     DPTR
   \   000217   A3           INC     DPTR
   \   000218   A3           INC     DPTR
   \   000219   E0           MOVX    A,@DPTR
   \   00021A   FA           MOV     R2,A
   \   00021B   A3           INC     DPTR
   \   00021C   E0           MOVX    A,@DPTR
   \   00021D   FB           MOV     R3,A
   \   00021E   12....       LCALL   ??osal_mem_free?relay
   3012                }
   3013                return 1;
   \                     ??ZDO_ParseSimpleDescBuf_6:
   \   000221   7901         MOV     R1,#0x1
   \   000223   806C         SJMP    ??ZDO_ParseSimpleDescBuf_2
   3014              }
   3015              for (i=0; i<num; ++i)
   \                     ??ZDO_ParseSimpleDescBuf_5:
   \   000225   75..00       MOV     ?V0 + 2,#0x0
   \                     ??ZDO_ParseSimpleDescBuf_7:
   \   000228   E5..         MOV     A,?V0 + 2
   \   00022A   C3           CLR     C
   \   00022B   95..         SUBB    A,?V0 + 3
   \   00022D   5060         JNC     ??ZDO_ParseSimpleDescBuf_4
   3016              {
   3017                desc->pAppOutClusterList[i] = BUILD_UINT16( buf[0], buf[1] );
   \   00022F   8E82         MOV     DPL,R6
   \   000231   8F83         MOV     DPH,R7
   \   000233   E0           MOVX    A,@DPTR
   \   000234   FA           MOV     R2,A
   \   000235   7B00         MOV     R3,#0x0
   \   000237   8E82         MOV     DPL,R6
   \   000239   8F83         MOV     DPH,R7
   \   00023B   A3           INC     DPTR
   \   00023C   E0           MOVX    A,@DPTR
   \   00023D   F8           MOV     R0,A
   \   00023E   7900         MOV     R1,#0x0
   \   000240   E4           CLR     A
   \   000241   C8           XCH     A,R0
   \   000242   F9           MOV     R1,A
   \   000243   EA           MOV     A,R2
   \   000244   28           ADD     A,R0
   \   000245   FA           MOV     R2,A
   \   000246   EB           MOV     A,R3
   \   000247   39           ADDC    A,R1
   \   000248   FB           MOV     R3,A
   \   000249   E5..         MOV     A,?V0 + 2
   \   00024B   A8..         MOV     R0,?V0 + 2
   \   00024D   7900         MOV     R1,#0x0
   \   00024F   E8           MOV     A,R0
   \   000250   75F002       MOV     B,#0x2
   \   000253   A4           MUL     AB
   \   000254   C8           XCH     A,R0
   \   000255   ACF0         MOV     R4,B
   \   000257   75F000       MOV     B,#0x0
   \   00025A   A4           MUL     AB
   \   00025B   2C           ADD     A,R4
   \   00025C   FC           MOV     R4,A
   \   00025D   75F002       MOV     B,#0x2
   \   000260   E9           MOV     A,R1
   \   000261   A4           MUL     AB
   \   000262   2C           ADD     A,R4
   \   000263   F9           MOV     R1,A
   \   000264   85..82       MOV     DPL,?V0 + 0
   \   000267   85..83       MOV     DPH,?V0 + 1
   \   00026A   A3           INC     DPTR
   \   00026B   A3           INC     DPTR
   \   00026C   A3           INC     DPTR
   \   00026D   A3           INC     DPTR
   \   00026E   A3           INC     DPTR
   \   00026F   A3           INC     DPTR
   \   000270   A3           INC     DPTR
   \   000271   A3           INC     DPTR
   \   000272   A3           INC     DPTR
   \   000273   A3           INC     DPTR
   \   000274   E0           MOVX    A,@DPTR
   \   000275   28           ADD     A,R0
   \   000276   FC           MOV     R4,A
   \   000277   A3           INC     DPTR
   \   000278   E0           MOVX    A,@DPTR
   \   000279   39           ADDC    A,R1
   \   00027A   8C82         MOV     DPL,R4
   \   00027C   F583         MOV     DPH,A
   \   00027E   EA           MOV     A,R2
   \   00027F   F0           MOVX    @DPTR,A
   \   000280   A3           INC     DPTR
   \   000281   EB           MOV     A,R3
   \   000282   F0           MOVX    @DPTR,A
   3018                buf += 2;
   \   000283   EE           MOV     A,R6
   \   000284   2402         ADD     A,#0x2
   \   000286   FE           MOV     R6,A
   \   000287   EF           MOV     A,R7
   \   000288   3400         ADDC    A,#0x0
   \   00028A   FF           MOV     R7,A
   3019              }
   \   00028B   05..         INC     ?V0 + 2
   \   00028D   8099         SJMP    ??ZDO_ParseSimpleDescBuf_7
   3020            }
   3021            return 0;
   \                     ??ZDO_ParseSimpleDescBuf_4:
   \   00028F   7900         MOV     R1,#0x0
   \                     ??ZDO_ParseSimpleDescBuf_2:
   \   000291   7F06         MOV     R7,#0x6
   \   000293   02....       LJMP    ?BANKED_LEAVE_XDATA
   3022          }
   3023          
   3024          /*********************************************************************
   3025           * @fn          ZDO_ParseDeviceAnnce
   3026           *
   3027           * @brief       Parse a Device Announce message.
   3028           *
   3029           * @param       inMsg - Incoming message
   3030           * @param       pAnnce - place to put the parsed information
   3031           *
   3032           * @return      none
   3033           */

   \                                 In  segment BANKED_CODE, align 1, keep-with-next
   3034          void ZDO_ParseDeviceAnnce( zdoIncomingMsg_t *inMsg, ZDO_DeviceAnnce_t *pAnnce )
   \                     ZDO_ParseDeviceAnnce:
   3035          {
   \   000000   74F4         MOV     A,#-0xc
   \   000002   12....       LCALL   ?BANKED_ENTER_XDATA
   \   000005                ; Saved register size: 12
   \   000005                ; Auto size: 0
   \   000005   8A..         MOV     ?V0 + 0,R2
   \   000007   8B..         MOV     ?V0 + 1,R3
   \   000009   8C..         MOV     ?V0 + 2,R4
   \   00000B   8D..         MOV     ?V0 + 3,R5
   3036            uint8 *msg;
   3037          
   3038            // Parse incoming message
   3039            msg = inMsg->asdu;
   \   00000D   E5..         MOV     A,?V0 + 0
   \   00000F   2413         ADD     A,#0x13
   \   000011   F582         MOV     DPL,A
   \   000013   E5..         MOV     A,?V0 + 1
   \   000015   3400         ADDC    A,#0x0
   \   000017   F583         MOV     DPH,A
   \   000019   E0           MOVX    A,@DPTR
   \   00001A   F8           MOV     R0,A
   \   00001B   A3           INC     DPTR
   \   00001C   E0           MOVX    A,@DPTR
   \   00001D   F9           MOV     R1,A
   \   00001E   E8           MOV     A,R0
   \   00001F   FE           MOV     R6,A
   \   000020   E9           MOV     A,R1
   \   000021   FF           MOV     R7,A
   3040            pAnnce->nwkAddr = BUILD_UINT16( msg[0], msg[1] );
   \   000022   8E82         MOV     DPL,R6
   \   000024   8F83         MOV     DPH,R7
   \   000026   E0           MOVX    A,@DPTR
   \   000027   FA           MOV     R2,A
   \   000028   7B00         MOV     R3,#0x0
   \   00002A   8E82         MOV     DPL,R6
   \   00002C   8F83         MOV     DPH,R7
   \   00002E   A3           INC     DPTR
   \   00002F   E0           MOVX    A,@DPTR
   \   000030   F8           MOV     R0,A
   \   000031   7900         MOV     R1,#0x0
   \   000033   E4           CLR     A
   \   000034   C8           XCH     A,R0
   \   000035   F9           MOV     R1,A
   \   000036   EA           MOV     A,R2
   \   000037   28           ADD     A,R0
   \   000038   F8           MOV     R0,A
   \   000039   EB           MOV     A,R3
   \   00003A   39           ADDC    A,R1
   \   00003B   F9           MOV     R1,A
   \   00003C   85..82       MOV     DPL,?V0 + 2
   \   00003F   85..83       MOV     DPH,?V0 + 3
   \   000042   E8           MOV     A,R0
   \   000043   F0           MOVX    @DPTR,A
   \   000044   A3           INC     DPTR
   \   000045   E9           MOV     A,R1
   \   000046   F0           MOVX    @DPTR,A
   3041            msg += 2;
   \   000047   EE           MOV     A,R6
   \   000048   2402         ADD     A,#0x2
   \   00004A   FE           MOV     R6,A
   \   00004B   EF           MOV     A,R7
   \   00004C   3400         ADDC    A,#0x0
   \   00004E   FF           MOV     R7,A
   3042            osal_cpyExtAddr( pAnnce->extAddr, msg );
   \   00004F                ; Setup parameters for call to function sAddrExtCpy
   \   00004F   EE           MOV     A,R6
   \   000050   FC           MOV     R4,A
   \   000051   EF           MOV     A,R7
   \   000052   FD           MOV     R5,A
   \   000053   E5..         MOV     A,?V0 + 2
   \   000055   2402         ADD     A,#0x2
   \   000057   FA           MOV     R2,A
   \   000058   E5..         MOV     A,?V0 + 3
   \   00005A   3400         ADDC    A,#0x0
   \   00005C   FB           MOV     R3,A
   \   00005D   12....       LCALL   ??sAddrExtCpy?relay
   3043            msg += Z_EXTADDR_LEN;
   \   000060   EE           MOV     A,R6
   \   000061   2408         ADD     A,#0x8
   \   000063   FE           MOV     R6,A
   \   000064   EF           MOV     A,R7
   \   000065   3400         ADDC    A,#0x0
   \   000067   FF           MOV     R7,A
   3044            pAnnce->capabilities = *msg;
   \   000068   8E82         MOV     DPL,R6
   \   00006A   8F83         MOV     DPH,R7
   \   00006C   E0           MOVX    A,@DPTR
   \   00006D   85..82       MOV     DPL,?V0 + 2
   \   000070   85..83       MOV     DPH,?V0 + 3
   \   000073   A3           INC     DPTR
   \   000074   A3           INC     DPTR
   \   000075   A3           INC     DPTR
   \   000076   A3           INC     DPTR
   \   000077   A3           INC     DPTR
   \   000078   A3           INC     DPTR
   \   000079   A3           INC     DPTR
   \   00007A   A3           INC     DPTR
   \   00007B   A3           INC     DPTR
   \   00007C   A3           INC     DPTR
   \   00007D   F0           MOVX    @DPTR,A
   3045          }
   \   00007E   7F04         MOV     R7,#0x4
   \   000080   02....       LJMP    ?BANKED_LEAVE_XDATA
   3046          
   3047          /*********************************************************************
   3048           * @fn          ZDO_ParseMgmtNwkUpdateNotify
   3049           *
   3050           * @brief       This function handles parsing of the incoming Management
   3051           *              Network Update notify.
   3052           *
   3053           * @param       inMsg - incoming message (request)
   3054           *
   3055           * @return      a pointer to parsed response structure (NULL if not allocated).
   3056           *          This structure was allocated using osal_mem_alloc, so it must be freed
   3057           *          by the calling function [osal_mem_free()].
   3058           */

   \                                 In  segment BANKED_CODE, align 1, keep-with-next
   3059          ZDO_MgmtNwkUpdateNotify_t *ZDO_ParseMgmtNwkUpdateNotify( zdoIncomingMsg_t *inMsg )
   \                     ZDO_ParseMgmtNwkUpdateNotify:
   3060          {
   \   000000   74E8         MOV     A,#-0x18
   \   000002   12....       LCALL   ?BANKED_ENTER_XDATA
   \   000005                ; Saved register size: 24
   \   000005                ; Auto size: 2
   \   000005   74FE         MOV     A,#-0x2
   \   000007   12....       LCALL   ?ALLOC_XSTACK8
   \   00000A   85..82       MOV     DPL,?XSP + 0
   \   00000D   85..83       MOV     DPH,?XSP + 1
   \   000010   EA           MOV     A,R2
   \   000011   F0           MOVX    @DPTR,A
   \   000012   A3           INC     DPTR
   \   000013   EB           MOV     A,R3
   \   000014   F0           MOVX    @DPTR,A
   3061            uint8 status;
   3062            uint32 scannedChannels = 0;
   \   000015   75..00       MOV     ?V0 + 4,#0x0
   \   000018   75..00       MOV     ?V0 + 5,#0x0
   \   00001B   75..00       MOV     ?V0 + 6,#0x0
   \   00001E   75..00       MOV     ?V0 + 7,#0x0
   3063            uint16 totalTransmissions = 0;
   \   000021   75..00       MOV     ?V0 + 14,#0x0
   \   000024   75..00       MOV     ?V0 + 15,#0x0
   3064            uint16 transmissionFailures = 0;
   \   000027   75..00       MOV     ?V0 + 12,#0x0
   \   00002A   75..00       MOV     ?V0 + 13,#0x0
   3065            uint8 listCount = 0;
   \   00002D   75..00       MOV     ?V0 + 8,#0x0
   3066            uint8 *msg = inMsg->asdu;
   \   000030   85..82       MOV     DPL,?XSP + 0
   \   000033   85..83       MOV     DPH,?XSP + 1
   \   000036   E0           MOVX    A,@DPTR
   \   000037   F8           MOV     R0,A
   \   000038   A3           INC     DPTR
   \   000039   E0           MOVX    A,@DPTR
   \   00003A   C8           XCH     A,R0
   \   00003B   2413         ADD     A,#0x13
   \   00003D   F582         MOV     DPL,A
   \   00003F   E8           MOV     A,R0
   \   000040   3400         ADDC    A,#0x0
   \   000042   F583         MOV     DPH,A
   \   000044   E0           MOVX    A,@DPTR
   \   000045   FE           MOV     R6,A
   \   000046   A3           INC     DPTR
   \   000047   E0           MOVX    A,@DPTR
   \   000048   FF           MOV     R7,A
   3067            ZDO_MgmtNwkUpdateNotify_t *pRsp;
   3068          
   3069            status = *msg++;
   \   000049   8E82         MOV     DPL,R6
   \   00004B   8F83         MOV     DPH,R7
   \   00004D   E0           MOVX    A,@DPTR
   \   00004E   F5..         MOV     ?V0 + 9,A
   \   000050   8E82         MOV     DPL,R6
   \   000052   8F83         MOV     DPH,R7
   \   000054   A3           INC     DPTR
   \   000055   AE82         MOV     R6,DPL
   \   000057   AF83         MOV     R7,DPH
   3070            if ( status == ZSuccess )
   \   000059   E5..         MOV     A,?V0 + 9
   \   00005B   6003         JZ      $+5
   \   00005D   02....       LJMP    ??ZDO_ParseMgmtNwkUpdateNotify_0 & 0xFFFF
   3071            {
   3072              scannedChannels = osal_build_uint32( msg, 4 );
   \   000060                ; Setup parameters for call to function osal_build_uint32
   \   000060   7904         MOV     R1,#0x4
   \   000062   EE           MOV     A,R6
   \   000063   FA           MOV     R2,A
   \   000064   EF           MOV     A,R7
   \   000065   FB           MOV     R3,A
   \   000066   12....       LCALL   ??osal_build_uint32?relay
   \   000069   8A..         MOV     ?V0 + 0,R2
   \   00006B   8B..         MOV     ?V0 + 1,R3
   \   00006D   8C..         MOV     ?V0 + 2,R4
   \   00006F   8D..         MOV     ?V0 + 3,R5
   \   000071   85....       MOV     ?V0 + 4,?V0 + 0
   \   000074   85....       MOV     ?V0 + 5,?V0 + 1
   \   000077   85....       MOV     ?V0 + 6,?V0 + 2
   \   00007A   85....       MOV     ?V0 + 7,?V0 + 3
   3073              msg += 4;
   \   00007D   EE           MOV     A,R6
   \   00007E   2404         ADD     A,#0x4
   \   000080   FE           MOV     R6,A
   \   000081   EF           MOV     A,R7
   \   000082   3400         ADDC    A,#0x0
   \   000084   FF           MOV     R7,A
   3074              totalTransmissions = BUILD_UINT16( msg[0], msg[1] );
   \   000085   8E82         MOV     DPL,R6
   \   000087   8F83         MOV     DPH,R7
   \   000089   E0           MOVX    A,@DPTR
   \   00008A   FA           MOV     R2,A
   \   00008B   7B00         MOV     R3,#0x0
   \   00008D   8E82         MOV     DPL,R6
   \   00008F   8F83         MOV     DPH,R7
   \   000091   A3           INC     DPTR
   \   000092   E0           MOVX    A,@DPTR
   \   000093   F8           MOV     R0,A
   \   000094   7900         MOV     R1,#0x0
   \   000096   E4           CLR     A
   \   000097   C8           XCH     A,R0
   \   000098   F9           MOV     R1,A
   \   000099   EA           MOV     A,R2
   \   00009A   28           ADD     A,R0
   \   00009B   F8           MOV     R0,A
   \   00009C   EB           MOV     A,R3
   \   00009D   39           ADDC    A,R1
   \   00009E   F9           MOV     R1,A
   \   00009F   88..         MOV     ?V0 + 14,R0
   \   0000A1   89..         MOV     ?V0 + 15,R1
   3075              msg += 2;
   \   0000A3   EE           MOV     A,R6
   \   0000A4   2402         ADD     A,#0x2
   \   0000A6   FE           MOV     R6,A
   \   0000A7   EF           MOV     A,R7
   \   0000A8   3400         ADDC    A,#0x0
   \   0000AA   FF           MOV     R7,A
   3076              transmissionFailures = BUILD_UINT16( msg[0], msg[1] );
   \   0000AB   8E82         MOV     DPL,R6
   \   0000AD   8F83         MOV     DPH,R7
   \   0000AF   E0           MOVX    A,@DPTR
   \   0000B0   FA           MOV     R2,A
   \   0000B1   7B00         MOV     R3,#0x0
   \   0000B3   8E82         MOV     DPL,R6
   \   0000B5   8F83         MOV     DPH,R7
   \   0000B7   A3           INC     DPTR
   \   0000B8   E0           MOVX    A,@DPTR
   \   0000B9   F8           MOV     R0,A
   \   0000BA   7900         MOV     R1,#0x0
   \   0000BC   E4           CLR     A
   \   0000BD   C8           XCH     A,R0
   \   0000BE   F9           MOV     R1,A
   \   0000BF   EA           MOV     A,R2
   \   0000C0   28           ADD     A,R0
   \   0000C1   F8           MOV     R0,A
   \   0000C2   EB           MOV     A,R3
   \   0000C3   39           ADDC    A,R1
   \   0000C4   F9           MOV     R1,A
   \   0000C5   88..         MOV     ?V0 + 12,R0
   \   0000C7   89..         MOV     ?V0 + 13,R1
   3077              msg += 2;
   \   0000C9   EE           MOV     A,R6
   \   0000CA   2402         ADD     A,#0x2
   \   0000CC   FE           MOV     R6,A
   \   0000CD   EF           MOV     A,R7
   \   0000CE   3400         ADDC    A,#0x0
   \   0000D0   FF           MOV     R7,A
   3078              listCount = *msg++;
   \   0000D1   8E82         MOV     DPL,R6
   \   0000D3   8F83         MOV     DPH,R7
   \   0000D5   E0           MOVX    A,@DPTR
   \   0000D6   F5..         MOV     ?V0 + 8,A
   \   0000D8   8E82         MOV     DPL,R6
   \   0000DA   8F83         MOV     DPH,R7
   \   0000DC   A3           INC     DPTR
   \   0000DD   AE82         MOV     R6,DPL
   \   0000DF   AF83         MOV     R7,DPH
   3079            }
   3080          
   3081            pRsp = (ZDO_MgmtNwkUpdateNotify_t *)osal_mem_alloc( sizeof ( ZDO_MgmtNwkUpdateNotify_t ) + listCount );
   \                     ??ZDO_ParseMgmtNwkUpdateNotify_0:
   \   0000E1                ; Setup parameters for call to function osal_mem_alloc
   \   0000E1   85....       MOV     ?V0 + 0,?V0 + 8
   \   0000E4   75..00       MOV     ?V0 + 1,#0x0
   \   0000E7   E5..         MOV     A,?V0 + 0
   \   0000E9   240A         ADD     A,#0xa
   \   0000EB   FA           MOV     R2,A
   \   0000EC   E5..         MOV     A,?V0 + 1
   \   0000EE   3400         ADDC    A,#0x0
   \   0000F0   FB           MOV     R3,A
   \   0000F1   12....       LCALL   ??osal_mem_alloc?relay
   \   0000F4   8A..         MOV     ?V0 + 0,R2
   \   0000F6   8B..         MOV     ?V0 + 1,R3
   \   0000F8   85....       MOV     ?V0 + 10,?V0 + 0
   \   0000FB   85....       MOV     ?V0 + 11,?V0 + 1
   3082          
   3083            if ( pRsp )
   \   0000FE   E5..         MOV     A,?V0 + 10
   \   000100   45..         ORL     A,?V0 + 11
   \   000102   7003         JNZ     $+5
   \   000104   02....       LJMP    ??ZDO_ParseMgmtNwkUpdateNotify_1 & 0xFFFF
   3084            {
   3085              pRsp->status = status;
   \   000107   E5..         MOV     A,?V0 + 9
   \   000109   85..82       MOV     DPL,?V0 + 10
   \   00010C   85..83       MOV     DPH,?V0 + 11
   \   00010F   E5..         MOV     A,?V0 + 9
   \   000111   F0           MOVX    @DPTR,A
   3086              pRsp->scannedChannels = scannedChannels;
   \   000112   85..82       MOV     DPL,?V0 + 10
   \   000115   85..83       MOV     DPH,?V0 + 11
   \   000118   A3           INC     DPTR
   \   000119   78..         MOV     R0,#?V0 + 4
   \   00011B   12....       LCALL   ?L_MOV_TO_X
   3087              pRsp->totalTransmissions = totalTransmissions;
   \   00011E   85..82       MOV     DPL,?V0 + 10
   \   000121   85..83       MOV     DPH,?V0 + 11
   \   000124   A3           INC     DPTR
   \   000125   A3           INC     DPTR
   \   000126   A3           INC     DPTR
   \   000127   A3           INC     DPTR
   \   000128   A3           INC     DPTR
   \   000129   E5..         MOV     A,?V0 + 14
   \   00012B   F0           MOVX    @DPTR,A
   \   00012C   A3           INC     DPTR
   \   00012D   E5..         MOV     A,?V0 + 15
   \   00012F   F0           MOVX    @DPTR,A
   3088              pRsp->transmissionFailures = transmissionFailures;
   \   000130   85..82       MOV     DPL,?V0 + 10
   \   000133   85..83       MOV     DPH,?V0 + 11
   \   000136   A3           INC     DPTR
   \   000137   A3           INC     DPTR
   \   000138   A3           INC     DPTR
   \   000139   A3           INC     DPTR
   \   00013A   A3           INC     DPTR
   \   00013B   A3           INC     DPTR
   \   00013C   A3           INC     DPTR
   \   00013D   E5..         MOV     A,?V0 + 12
   \   00013F   F0           MOVX    @DPTR,A
   \   000140   A3           INC     DPTR
   \   000141   E5..         MOV     A,?V0 + 13
   \   000143   F0           MOVX    @DPTR,A
   3089              pRsp->listCount = listCount;
   \   000144   E5..         MOV     A,?V0 + 8
   \   000146   85..82       MOV     DPL,?V0 + 10
   \   000149   85..83       MOV     DPH,?V0 + 11
   \   00014C   A3           INC     DPTR
   \   00014D   A3           INC     DPTR
   \   00014E   A3           INC     DPTR
   \   00014F   A3           INC     DPTR
   \   000150   A3           INC     DPTR
   \   000151   A3           INC     DPTR
   \   000152   A3           INC     DPTR
   \   000153   A3           INC     DPTR
   \   000154   A3           INC     DPTR
   \   000155   E5..         MOV     A,?V0 + 8
   \   000157   F0           MOVX    @DPTR,A
   3090          
   3091              // Allocate a buffer big enough to handle the list.
   3092              if ( listCount > 0 )
   \   000158   E5..         MOV     A,?V0 + 8
   \   00015A   C3           CLR     C
   \   00015B   9401         SUBB    A,#0x1
   \   00015D   4028         JC      ??ZDO_ParseMgmtNwkUpdateNotify_1
   3093                osal_memcpy( pRsp->energyValues, msg, listCount );
   \   00015F                ; Setup parameters for call to function osal_memcpy
   \   00015F   8E..         MOV     ?V0 + 0,R6
   \   000161   8F..         MOV     ?V0 + 1,R7
   \   000163   75..00       MOV     ?V0 + 2,#0x0
   \   000166   78..         MOV     R0,#?V0 + 0
   \   000168   12....       LCALL   ?PUSH_XSTACK_I_THREE
   \   00016B   85....       MOV     ?V0 + 0,?V0 + 8
   \   00016E   75..00       MOV     ?V0 + 1,#0x0
   \   000171   AC..         MOV     R4,?V0 + 0
   \   000173   AD..         MOV     R5,?V0 + 1
   \   000175   E5..         MOV     A,?V0 + 10
   \   000177   240A         ADD     A,#0xa
   \   000179   FA           MOV     R2,A
   \   00017A   E5..         MOV     A,?V0 + 11
   \   00017C   3400         ADDC    A,#0x0
   \   00017E   FB           MOV     R3,A
   \   00017F   12....       LCALL   ??osal_memcpy?relay
   \   000182   7403         MOV     A,#0x3
   \   000184   12....       LCALL   ?DEALLOC_XSTACK8
   3094            }
   3095          
   3096            return ( pRsp );
   \                     ??ZDO_ParseMgmtNwkUpdateNotify_1:
   \   000187   AA..         MOV     R2,?V0 + 10
   \   000189   AB..         MOV     R3,?V0 + 11
   \   00018B   7402         MOV     A,#0x2
   \   00018D   12....       LCALL   ?DEALLOC_XSTACK8
   \   000190   7F10         MOV     R7,#0x10
   \   000192   02....       LJMP    ?BANKED_LEAVE_XDATA
   3097          }
   3098          
   3099          /*********************************************************************
   3100           * @fn          ZDO_ParseMgmtNwkUpdateReq
   3101           *
   3102           * @brief       This function handles parsing the incoming Management
   3103           *              Network Update request and starts the request (if needed).
   3104           *
   3105           * @param       inMsg - incoming message (request)
   3106           * @param       pReq - pointer to place to parse message to
   3107           *
   3108           * @return      none
   3109           */

   \                                 In  segment BANKED_CODE, align 1, keep-with-next
   3110          void ZDO_ParseMgmtNwkUpdateReq( zdoIncomingMsg_t *inMsg, ZDO_MgmtNwkUpdateReq_t *pReq )
   \                     ZDO_ParseMgmtNwkUpdateReq:
   3111          {
   \   000000   74F4         MOV     A,#-0xc
   \   000002   12....       LCALL   ?BANKED_ENTER_XDATA
   \   000005                ; Saved register size: 12
   \   000005                ; Auto size: 0
   \   000005   8A..         MOV     ?V0 + 0,R2
   \   000007   8B..         MOV     ?V0 + 1,R3
   \   000009   8C..         MOV     ?V0 + 2,R4
   \   00000B   8D..         MOV     ?V0 + 3,R5
   3112            uint8 *msg = inMsg->asdu;
   \   00000D   E5..         MOV     A,?V0 + 0
   \   00000F   2413         ADD     A,#0x13
   \   000011   F582         MOV     DPL,A
   \   000013   E5..         MOV     A,?V0 + 1
   \   000015   3400         ADDC    A,#0x0
   \   000017   F583         MOV     DPH,A
   \   000019   E0           MOVX    A,@DPTR
   \   00001A   FE           MOV     R6,A
   \   00001B   A3           INC     DPTR
   \   00001C   E0           MOVX    A,@DPTR
   \   00001D   FF           MOV     R7,A
   3113          
   3114            pReq->channelMask = osal_build_uint32( msg, 4 );
   \   00001E                ; Setup parameters for call to function osal_build_uint32
   \   00001E   7904         MOV     R1,#0x4
   \   000020   EE           MOV     A,R6
   \   000021   FA           MOV     R2,A
   \   000022   EF           MOV     A,R7
   \   000023   FB           MOV     R3,A
   \   000024   12....       LCALL   ??osal_build_uint32?relay
   \   000027   85..82       MOV     DPL,?V0 + 2
   \   00002A   85..83       MOV     DPH,?V0 + 3
   \   00002D   12....       LCALL   ?XSTORE_R2345
   3115            msg += 4;
   \   000030   EE           MOV     A,R6
   \   000031   2404         ADD     A,#0x4
   \   000033   FE           MOV     R6,A
   \   000034   EF           MOV     A,R7
   \   000035   3400         ADDC    A,#0x0
   \   000037   FF           MOV     R7,A
   3116            pReq->scanDuration = *msg++;
   \   000038   8E82         MOV     DPL,R6
   \   00003A   8F83         MOV     DPH,R7
   \   00003C   E0           MOVX    A,@DPTR
   \   00003D   85..82       MOV     DPL,?V0 + 2
   \   000040   85..83       MOV     DPH,?V0 + 3
   \   000043   A3           INC     DPTR
   \   000044   A3           INC     DPTR
   \   000045   A3           INC     DPTR
   \   000046   A3           INC     DPTR
   \   000047   F0           MOVX    @DPTR,A
   \   000048   8E82         MOV     DPL,R6
   \   00004A   8F83         MOV     DPH,R7
   \   00004C   A3           INC     DPTR
   \   00004D   AE82         MOV     R6,DPL
   \   00004F   AF83         MOV     R7,DPH
   3117          
   3118            if ( pReq->scanDuration <= 0x05 )
   \   000051   85..82       MOV     DPL,?V0 + 2
   \   000054   85..83       MOV     DPH,?V0 + 3
   \   000057   A3           INC     DPTR
   \   000058   A3           INC     DPTR
   \   000059   A3           INC     DPTR
   \   00005A   A3           INC     DPTR
   \   00005B   E0           MOVX    A,@DPTR
   \   00005C   C3           CLR     C
   \   00005D   9406         SUBB    A,#0x6
   \   00005F   5013         JNC     ??ZDO_ParseMgmtNwkUpdateReq_0
   3119            {
   3120              // Request is to scan over channelMask
   3121              pReq->scanCount = *msg;
   \   000061   8E82         MOV     DPL,R6
   \   000063   8F83         MOV     DPH,R7
   \   000065   E0           MOVX    A,@DPTR
   \   000066   85..82       MOV     DPL,?V0 + 2
   \   000069   85..83       MOV     DPH,?V0 + 3
   \   00006C   A3           INC     DPTR
   \   00006D   A3           INC     DPTR
   \   00006E   A3           INC     DPTR
   \   00006F   A3           INC     DPTR
   \   000070   A3           INC     DPTR
   \   000071   F0           MOVX    @DPTR,A
   \   000072   8074         SJMP    ??ZDO_ParseMgmtNwkUpdateReq_1
   3122            }
   3123            else if ( ( pReq->scanDuration == 0xFE ) || ( pReq->scanDuration == 0xFF ) )
   \                     ??ZDO_ParseMgmtNwkUpdateReq_0:
   \   000074   85..82       MOV     DPL,?V0 + 2
   \   000077   85..83       MOV     DPH,?V0 + 3
   \   00007A   A3           INC     DPTR
   \   00007B   A3           INC     DPTR
   \   00007C   A3           INC     DPTR
   \   00007D   A3           INC     DPTR
   \   00007E   E0           MOVX    A,@DPTR
   \   00007F   64FE         XRL     A,#0xfe
   \   000081   600F         JZ      ??ZDO_ParseMgmtNwkUpdateReq_2
   \   000083   85..82       MOV     DPL,?V0 + 2
   \   000086   85..83       MOV     DPH,?V0 + 3
   \   000089   A3           INC     DPTR
   \   00008A   A3           INC     DPTR
   \   00008B   A3           INC     DPTR
   \   00008C   A3           INC     DPTR
   \   00008D   E0           MOVX    A,@DPTR
   \   00008E   64FF         XRL     A,#0xff
   \   000090   7056         JNZ     ??ZDO_ParseMgmtNwkUpdateReq_1
   3124            {
   3125              // Request is to change Channel (0xFE) or apsChannelMask and NwkManagerAddr (0xFF)
   3126              pReq->nwkUpdateId = *msg++;
   \                     ??ZDO_ParseMgmtNwkUpdateReq_2:
   \   000092   8E82         MOV     DPL,R6
   \   000094   8F83         MOV     DPH,R7
   \   000096   E0           MOVX    A,@DPTR
   \   000097   85..82       MOV     DPL,?V0 + 2
   \   00009A   85..83       MOV     DPH,?V0 + 3
   \   00009D   A3           INC     DPTR
   \   00009E   A3           INC     DPTR
   \   00009F   A3           INC     DPTR
   \   0000A0   A3           INC     DPTR
   \   0000A1   A3           INC     DPTR
   \   0000A2   A3           INC     DPTR
   \   0000A3   F0           MOVX    @DPTR,A
   \   0000A4   8E82         MOV     DPL,R6
   \   0000A6   8F83         MOV     DPH,R7
   \   0000A8   A3           INC     DPTR
   \   0000A9   AE82         MOV     R6,DPL
   \   0000AB   AF83         MOV     R7,DPH
   3127          
   3128              if ( pReq->scanDuration == 0xFF )
   \   0000AD   85..82       MOV     DPL,?V0 + 2
   \   0000B0   85..83       MOV     DPH,?V0 + 3
   \   0000B3   A3           INC     DPTR
   \   0000B4   A3           INC     DPTR
   \   0000B5   A3           INC     DPTR
   \   0000B6   A3           INC     DPTR
   \   0000B7   E0           MOVX    A,@DPTR
   \   0000B8   64FF         XRL     A,#0xff
   \   0000BA   702C         JNZ     ??ZDO_ParseMgmtNwkUpdateReq_1
   3129              {
   3130                pReq->nwkManagerAddr = BUILD_UINT16( msg[0], msg[1] );
   \   0000BC   8E82         MOV     DPL,R6
   \   0000BE   8F83         MOV     DPH,R7
   \   0000C0   E0           MOVX    A,@DPTR
   \   0000C1   FA           MOV     R2,A
   \   0000C2   7B00         MOV     R3,#0x0
   \   0000C4   8E82         MOV     DPL,R6
   \   0000C6   8F83         MOV     DPH,R7
   \   0000C8   A3           INC     DPTR
   \   0000C9   E0           MOVX    A,@DPTR
   \   0000CA   F8           MOV     R0,A
   \   0000CB   7900         MOV     R1,#0x0
   \   0000CD   E4           CLR     A
   \   0000CE   C8           XCH     A,R0
   \   0000CF   F9           MOV     R1,A
   \   0000D0   EA           MOV     A,R2
   \   0000D1   28           ADD     A,R0
   \   0000D2   F8           MOV     R0,A
   \   0000D3   EB           MOV     A,R3
   \   0000D4   39           ADDC    A,R1
   \   0000D5   F9           MOV     R1,A
   \   0000D6   85..82       MOV     DPL,?V0 + 2
   \   0000D9   85..83       MOV     DPH,?V0 + 3
   \   0000DC   A3           INC     DPTR
   \   0000DD   A3           INC     DPTR
   \   0000DE   A3           INC     DPTR
   \   0000DF   A3           INC     DPTR
   \   0000E0   A3           INC     DPTR
   \   0000E1   A3           INC     DPTR
   \   0000E2   A3           INC     DPTR
   \   0000E3   E8           MOV     A,R0
   \   0000E4   F0           MOVX    @DPTR,A
   \   0000E5   A3           INC     DPTR
   \   0000E6   E9           MOV     A,R1
   \   0000E7   F0           MOVX    @DPTR,A
   3131              }
   3132            }
   3133          }
   \                     ??ZDO_ParseMgmtNwkUpdateReq_1:
   \   0000E8   7F04         MOV     R7,#0x4
   \   0000EA   02....       LJMP    ?BANKED_LEAVE_XDATA

   \                                 In  segment BANK_RELAYS, align 1
   \                     ??ZDO_Init?relay:
   \   000000   12....       LCALL   ?BDISPATCH
   \   000003   ......       DC24    ZDO_Init

   \                                 In  segment BANK_RELAYS, align 1
   \                     ??ZDODeviceSetup?relay:
   \   000000   12....       LCALL   ?BDISPATCH
   \   000003   ......       DC24    ZDODeviceSetup

   \                                 In  segment BANK_RELAYS, align 1
   \                     ??ZDO_StartDevice?relay:
   \   000000   12....       LCALL   ?BDISPATCH
   \   000003   ......       DC24    ZDO_StartDevice

   \                                 In  segment BANK_RELAYS, align 1
   \                     ??zdoSendStateChangeMsg?relay:
   \   000000   12....       LCALL   ?BDISPATCH
   \   000003   ......       DC24    zdoSendStateChangeMsg

   \                                 In  segment BANK_RELAYS, align 1
   \                     ??ZDO_UpdateNwkStatus?relay:
   \   000000   12....       LCALL   ?BDISPATCH
   \   000003   ......       DC24    ZDO_UpdateNwkStatus

   \                                 In  segment BANK_RELAYS, align 1
   \                     ??ZDO_RemoveEndDeviceBind?relay:
   \   000000   12....       LCALL   ?BDISPATCH
   \   000003   ......       DC24    ZDO_RemoveEndDeviceBind

   \                                 In  segment BANK_RELAYS, align 1
   \                     ??ZDO_SendEDBindRsp?relay:
   \   000000   12....       LCALL   ?BDISPATCH
   \   000003   ......       DC24    ZDO_SendEDBindRsp

   \                                 In  segment BANK_RELAYS, align 1
   \                     ??ZDO_CompareClusterLists?relay:
   \   000000   12....       LCALL   ?BDISPATCH
   \   000003   ......       DC24    ZDO_CompareClusterLists

   \                                 In  segment BANK_RELAYS, align 1
   \                     ??ZDO_AnyClusterMatches?relay:
   \   000000   12....       LCALL   ?BDISPATCH
   \   000003   ......       DC24    ZDO_AnyClusterMatches

   \                                 In  segment BANK_RELAYS, align 1
   \                     ??ZDO_ProcessNodeDescReq?relay:
   \   000000   12....       LCALL   ?BDISPATCH
   \   000003   ......       DC24    ZDO_ProcessNodeDescReq

   \                                 In  segment BANK_RELAYS, align 1
   \                     ??ZDO_ProcessPowerDescReq?relay:
   \   000000   12....       LCALL   ?BDISPATCH
   \   000003   ......       DC24    ZDO_ProcessPowerDescReq

   \                                 In  segment BANK_RELAYS, align 1
   \                     ??ZDO_ProcessSimpleDescReq?relay:
   \   000000   12....       LCALL   ?BDISPATCH
   \   000003   ......       DC24    ZDO_ProcessSimpleDescReq

   \                                 In  segment BANK_RELAYS, align 1
   \                     ??ZDO_ProcessActiveEPReq?relay:
   \   000000   12....       LCALL   ?BDISPATCH
   \   000003   ......       DC24    ZDO_ProcessActiveEPReq

   \                                 In  segment BANK_RELAYS, align 1
   \                     ??ZDO_ConvertOTAClusters?relay:
   \   000000   12....       LCALL   ?BDISPATCH
   \   000003   ......       DC24    ZDO_ConvertOTAClusters

   \                                 In  segment BANK_RELAYS, align 1
   \                     ??ZDO_ProcessMatchDescReq?relay:
   \   000000   12....       LCALL   ?BDISPATCH
   \   000003   ......       DC24    ZDO_ProcessMatchDescReq

   \                                 In  segment BANK_RELAYS, align 1
   \                     ??ZDO_ProcessBindUnbindReq?relay:
   \   000000   12....       LCALL   ?BDISPATCH
   \   000003   ......       DC24    ZDO_ProcessBindUnbindReq

   \                                 In  segment BANK_RELAYS, align 1
   \                     ??ZDO_UpdateAddrManager?relay:
   \   000000   12....       LCALL   ?BDISPATCH
   \   000003   ......       DC24    ZDO_UpdateAddrManager

   \                                 In  segment BANK_RELAYS, align 1
   \                     ??ZDO_ProcessServerDiscReq?relay:
   \   000000   12....       LCALL   ?BDISPATCH
   \   000003   ......       DC24    ZDO_ProcessServerDiscReq

   \                                 In  segment BANK_RELAYS, align 1
   \                     ??ZDO_EndDeviceTimeoutCB?relay:
   \   000000   12....       LCALL   ?BDISPATCH
   \   000003   ......       DC24    ZDO_EndDeviceTimeoutCB

   \                                 In  segment BANK_RELAYS, align 1
   \                     ??ZDO_ProcessMgmtLqiReq?relay:
   \   000000   12....       LCALL   ?BDISPATCH
   \   000003   ......       DC24    ZDO_ProcessMgmtLqiReq

   \                                 In  segment BANK_RELAYS, align 1
   \                     ??ZDO_ProcessMgmtNwkDiscReq?relay:
   \   000000   12....       LCALL   ?BDISPATCH
   \   000003   ......       DC24    ZDO_ProcessMgmtNwkDiscReq

   \                                 In  segment BANK_RELAYS, align 1
   \                     ??ZDO_ProcessMgmtRtgReq?relay:
   \   000000   12....       LCALL   ?BDISPATCH
   \   000003   ......       DC24    ZDO_ProcessMgmtRtgReq

   \                                 In  segment BANK_RELAYS, align 1
   \                     ??ZDO_ProcessMgmtBindReq?relay:
   \   000000   12....       LCALL   ?BDISPATCH
   \   000003   ......       DC24    ZDO_ProcessMgmtBindReq

   \                                 In  segment BANK_RELAYS, align 1
   \                     ??ZDO_ProcessMgmtDirectJoinReq?relay:
   \   000000   12....       LCALL   ?BDISPATCH
   \   000003   ......       DC24    ZDO_ProcessMgmtDirectJoinReq

   \                                 In  segment BANK_RELAYS, align 1
   \                     ??ZDO_ProcessMgmtLeaveReq?relay:
   \   000000   12....       LCALL   ?BDISPATCH
   \   000003   ......       DC24    ZDO_ProcessMgmtLeaveReq

   \                                 In  segment BANK_RELAYS, align 1
   \                     ??ZDO_ProcessMgmtPermitJoinReq?relay:
   \   000000   12....       LCALL   ?BDISPATCH
   \   000003   ......       DC24    ZDO_ProcessMgmtPermitJoinReq

   \                                 In  segment BANK_RELAYS, align 1
   \                     ??NLME_PermitJoiningTimeout?relay:
   \   000000   12....       LCALL   ?BDISPATCH
   \   000003   ......       DC24    NLME_PermitJoiningTimeout

   \                                 In  segment BANK_RELAYS, align 1
   \                     ??ZDO_ProcessUserDescReq?relay:
   \   000000   12....       LCALL   ?BDISPATCH
   \   000003   ......       DC24    ZDO_ProcessUserDescReq

   \                                 In  segment BANK_RELAYS, align 1
   \                     ??ZDO_ProcessUserDescSet?relay:
   \   000000   12....       LCALL   ?BDISPATCH
   \   000003   ......       DC24    ZDO_ProcessUserDescSet

   \                                 In  segment BANK_RELAYS, align 1
   \                     ??ZDO_ProcessDeviceAnnce?relay:
   \   000000   12....       LCALL   ?BDISPATCH
   \   000003   ......       DC24    ZDO_ProcessDeviceAnnce

   \                                 In  segment BANK_RELAYS, align 1
   \                     ??ZDO_BuildSimpleDescBuf?relay:
   \   000000   12....       LCALL   ?BDISPATCH
   \   000003   ......       DC24    ZDO_BuildSimpleDescBuf

   \                                 In  segment BANK_RELAYS, align 1
   \                     ??ZDO_MatchEndDeviceBind?relay:
   \   000000   12....       LCALL   ?BDISPATCH
   \   000003   ......       DC24    ZDO_MatchEndDeviceBind

   \                                 In  segment BANK_RELAYS, align 1
   \                     ??ZDO_RemoveMatchMemory?relay:
   \   000000   12....       LCALL   ?BDISPATCH
   \   000003   ......       DC24    ZDO_RemoveMatchMemory

   \                                 In  segment BANK_RELAYS, align 1
   \                     ??ZDO_CopyMatchInfo?relay:
   \   000000   12....       LCALL   ?BDISPATCH
   \   000003   ......       DC24    ZDO_CopyMatchInfo

   \                                 In  segment BANK_RELAYS, align 1
   \                     ??ZDMatchSendState?relay:
   \   000000   12....       LCALL   ?BDISPATCH
   \   000003   ......       DC24    ZDMatchSendState

   \                                 In  segment BANK_RELAYS, align 1
   \                     ??ZDO_EndDeviceBindMatchTimeoutCB?relay:
   \   000000   12....       LCALL   ?BDISPATCH
   \   000003   ......       DC24    ZDO_EndDeviceBindMatchTimeoutCB

   \                                 In  segment BANK_RELAYS, align 1
   \                     ??ZDO_ParseEndDeviceBindReq?relay:
   \   000000   12....       LCALL   ?BDISPATCH
   \   000003   ......       DC24    ZDO_ParseEndDeviceBindReq

   \                                 In  segment BANK_RELAYS, align 1
   \                     ??ZDO_ParseBindUnbindReq?relay:
   \   000000   12....       LCALL   ?BDISPATCH
   \   000003   ......       DC24    ZDO_ParseBindUnbindReq

   \                                 In  segment BANK_RELAYS, align 1
   \                     ??ZDO_ParseAddrRsp?relay:
   \   000000   12....       LCALL   ?BDISPATCH
   \   000003   ......       DC24    ZDO_ParseAddrRsp

   \                                 In  segment BANK_RELAYS, align 1
   \                     ??ZDO_ParseNodeDescRsp?relay:
   \   000000   12....       LCALL   ?BDISPATCH
   \   000003   ......       DC24    ZDO_ParseNodeDescRsp

   \                                 In  segment BANK_RELAYS, align 1
   \                     ??ZDO_ParsePowerDescRsp?relay:
   \   000000   12....       LCALL   ?BDISPATCH
   \   000003   ......       DC24    ZDO_ParsePowerDescRsp

   \                                 In  segment BANK_RELAYS, align 1
   \                     ??ZDO_ParseSimpleDescRsp?relay:
   \   000000   12....       LCALL   ?BDISPATCH
   \   000003   ......       DC24    ZDO_ParseSimpleDescRsp

   \                                 In  segment BANK_RELAYS, align 1
   \                     ??ZDO_ParseEPListRsp?relay:
   \   000000   12....       LCALL   ?BDISPATCH
   \   000003   ......       DC24    ZDO_ParseEPListRsp

   \                                 In  segment BANK_RELAYS, align 1
   \                     ??ZDO_ParseServerDiscRsp?relay:
   \   000000   12....       LCALL   ?BDISPATCH
   \   000003   ......       DC24    ZDO_ParseServerDiscRsp

   \                                 In  segment BANK_RELAYS, align 1
   \                     ??ZDO_ParseMgmtLqiRsp?relay:
   \   000000   12....       LCALL   ?BDISPATCH
   \   000003   ......       DC24    ZDO_ParseMgmtLqiRsp

   \                                 In  segment BANK_RELAYS, align 1
   \                     ??ZDO_ParseMgmNwkDiscRsp?relay:
   \   000000   12....       LCALL   ?BDISPATCH
   \   000003   ......       DC24    ZDO_ParseMgmNwkDiscRsp

   \                                 In  segment BANK_RELAYS, align 1
   \                     ??ZDO_ParseMgmtRtgRsp?relay:
   \   000000   12....       LCALL   ?BDISPATCH
   \   000003   ......       DC24    ZDO_ParseMgmtRtgRsp

   \                                 In  segment BANK_RELAYS, align 1
   \                     ??ZDO_ParseMgmtBindRsp?relay:
   \   000000   12....       LCALL   ?BDISPATCH
   \   000003   ......       DC24    ZDO_ParseMgmtBindRsp

   \                                 In  segment BANK_RELAYS, align 1
   \                     ??ZDO_ParseUserDescRsp?relay:
   \   000000   12....       LCALL   ?BDISPATCH
   \   000003   ......       DC24    ZDO_ParseUserDescRsp

   \                                 In  segment BANK_RELAYS, align 1
   \                     ??ZDO_ParseSimpleDescBuf?relay:
   \   000000   12....       LCALL   ?BDISPATCH
   \   000003   ......       DC24    ZDO_ParseSimpleDescBuf

   \                                 In  segment BANK_RELAYS, align 1
   \                     ??ZDO_ParseDeviceAnnce?relay:
   \   000000   12....       LCALL   ?BDISPATCH
   \   000003   ......       DC24    ZDO_ParseDeviceAnnce

   \                                 In  segment BANK_RELAYS, align 1
   \                     ??ZDO_ParseMgmtNwkUpdateNotify?relay:
   \   000000   12....       LCALL   ?BDISPATCH
   \   000003   ......       DC24    ZDO_ParseMgmtNwkUpdateNotify

   \                                 In  segment BANK_RELAYS, align 1
   \                     ??ZDO_ParseMgmtNwkUpdateReq?relay:
   \   000000   12....       LCALL   ?BDISPATCH
   \   000003   ......       DC24    ZDO_ParseMgmtNwkUpdateReq

   \                                 In  segment XDATA_ROM_C, align 1
   \                     `?<Constant "StartDevice ERR">`:
   \   000000   53746172     DB "StartDevice ERR"
   \            74446576
   \            69636520
   \            45525200

   \                                 In  segment XDATA_ROM_C, align 1
   \                     `?<Constant "MODE unknown">`:
   \   000000   4D4F4445     DB "MODE unknown"
   \            20756E6B
   \            6E6F776E
   \            00      

   \                                 In  segment XDATA_ROM_C, align 1
   \                     `?<Constant "End Device Bind">`:
   \   000000   456E6420     DB "End Device Bind"
   \            44657669
   \            63652042
   \            696E6400

   \                                 In  segment XDATA_ROM_C, align 1
   \                     `?<Constant "Success Sent">`:
   \   000000   53756363     DB "Success Sent"
   \            65737320
   \            53656E74
   \            00      

   \                                 In  segment XDATA_ROM_C, align 1
   \                     `?<Constant "Timeout">`:
   \   000000   54696D65     DB "Timeout"
   \            6F757400

   \                                 In  segment XDATA_ROM_C, align 1
   \                     `?<Constant "Match Desc Req">`:
   \   000000   4D617463     DB "Match Desc Req"
   \            68204465
   \            73632052
   \            657100  

   \                                 In  segment XDATA_ROM_C, align 1
   \                     `?<Constant "Rsp Sent">`:
   \   000000   52737020     DB "Rsp Sent"
   \            53656E74
   \            00      

   \                                 In  segment XDATA_ROM_C, align 1
   \                     `?<Constant "Non Matched">`:
   \   000000   4E6F6E20     DB "Non Matched"
   \            4D617463
   \            68656400
   3134          
   3135          /*********************************************************************
   3136          *********************************************************************/
   3137          
   3138          

   Maximum stack usage in bytes:

   ISTACK PSTACK XSTACK Function
   ------ ------ ------ --------
       0      0      0  NLME_PermitJoiningTimeout
       1      0     72  ZDMatchSendState
                          0 0 39 -> APS_SetEndDeviceBindTimeout
                          0 0 39 -> ZDO_RemoveMatchMemory
                          0 0 47 -> ZDP_BindUnbindReq
                          0 0 44 -> ZDP_SendData
                          0 0 39 -> sAddrExtCpy
       2      0      0  ZDODeviceSetup
                          2 0  0 -> APS_ReflectorInit
                          2 0  0 -> NLME_CoordinatorInit
       0      0     49  ZDO_AnyClusterMatches
       1      0     10  ZDO_BuildSimpleDescBuf
       0      0     45  ZDO_CompareClusterLists
       0      0     45  ZDO_ConvertOTAClusters
       0      0     43  ZDO_CopyMatchInfo
                          0 0 15 -> osal_mem_alloc
                          0 0 15 -> osal_mem_free
                          0 0 18 -> osal_memcpy
       2      0      0  ZDO_EndDeviceBindMatchTimeoutCB
                          2 0  0 -> ZDMatchSendState
       0      0      9  ZDO_EndDeviceTimeoutCB
                          0 0  9 -> ZDO_RemoveEndDeviceBind
                          0 0  9 -> ZDO_SendEDBindRsp
       2      0      0  ZDO_Init
                          2 0  0 -> ZDODeviceSetup
                          2 0  0 -> sAddrExtCpy
       1      0     30  ZDO_MatchEndDeviceBind
                          0 0 25 -> APS_SetEndDeviceBindTimeout
                          0 0 25 -> ZDMatchSendState
                          0 0 29 -> ZDO_CompareClusterLists
                          0 0 25 -> ZDO_CopyMatchInfo
                          0 0 25 -> ZDO_RemoveMatchMemory
                          0 0 30 -> ZDP_SendData
                          0 0 25 -> osal_mem_alloc
                          0 0 28 -> osal_memcpy
                          0 0 25 -> osal_memset
       1      0     16  ZDO_ParseAddrRsp
                          0 0 16 -> osal_mem_alloc
                          0 0 16 -> sAddrExtCpy
       1      0     12  ZDO_ParseBindUnbindReq
                          0 0 12 -> sAddrExtCpy
       1      0     56  ZDO_ParseDeviceAnnce
                          0 0 12 -> sAddrExtCpy
       1      0     20  ZDO_ParseEPListRsp
                          0 0 17 -> osal_mem_alloc
                          0 0 20 -> osal_memcpy
       1      0     14  ZDO_ParseEndDeviceBindReq
                          0 0 14 -> ZDO_ConvertOTAClusters
                          0 0 14 -> osal_mem_alloc
                          0 0 14 -> sAddrExtCpy
       1      0     20  ZDO_ParseMgmNwkDiscRsp
                          0 0 20 -> osal_mem_alloc
                          0 0 20 -> sAddrExtCpy
       1      0     22  ZDO_ParseMgmtBindRsp
                          0 0 22 -> osal_mem_alloc
                          0 0 22 -> sAddrExtCpy
       1      0     20  ZDO_ParseMgmtLqiRsp
                          0 0 20 -> osal_mem_alloc
                          0 0 20 -> sAddrExtCpy
       1      0     29  ZDO_ParseMgmtNwkUpdateNotify
                          0 0 26 -> osal_build_uint32
                          0 0 26 -> osal_mem_alloc
                          0 0 29 -> osal_memcpy
       1      0     12  ZDO_ParseMgmtNwkUpdateReq
                          0 0 12 -> osal_build_uint32
       1      0     18  ZDO_ParseMgmtRtgRsp
                          0 0 18 -> osal_mem_alloc
       1      0     11  ZDO_ParseNodeDescRsp
       1      0     12  ZDO_ParsePowerDescRsp
       1      0      9  ZDO_ParseServerDiscRsp
       1      0     26  ZDO_ParseSimpleDescBuf
                          0 0 14 -> osal_mem_alloc
                          0 0 14 -> osal_mem_free
       1      0     12  ZDO_ParseSimpleDescRsp
                          0 0 12 -> ZDO_ParseSimpleDescBuf
       1      0     19  ZDO_ParseUserDescRsp
                          0 0 16 -> osal_mem_alloc
                          0 0 19 -> osal_memcpy
       0      0     21  ZDO_ProcessActiveEPReq
                          0 0 14 -> NLME_GetShortAddr
                          0 0 21 -> ZDP_EPRsp
                          0 0 14 -> afEndPoints
                          0 0 14 -> afNumEndPoints
       0      0     29  ZDO_ProcessBindUnbindReq
                          0 0 25 -> APSME_BindRequest
                          0 0 24 -> APSME_LookupNwkAddr
                          0 0 25 -> APSME_UnBindRequest
                          0 0 24 -> NLME_GetExtAddr
                          0 0 24 -> ZDApp_NVUpdate
                          0 0 24 -> ZDP_NwkAddrReq
                          0 0 29 -> ZDP_SendData
                          0 0 24 -> bindNumOfEntries
                          0 0 24 -> sAddrExtCmp
                          0 0 24 -> sAddrExtCpy
       2      0     44  ZDO_ProcessDeviceAnnce
                          0 0 44 -> AddrMgrEntryLookupNwk
                          0 0 44 -> AddrMgrEntryUpdate
                          0 0 44 -> AddrMgrExtAddrSet
                          0 0 44 -> AssocChangeNwkAddr
                          0 0 44 -> AssocGetWithExt
                          0 0 44 -> AssocRemove
                          0 0 44 -> NLME_CheckNewAddrSet
                          0 0 44 -> NLME_GetCoordExtAddr
                          0 0 44 -> NLME_GetCoordShortAddr
                          0 0 44 -> NLME_GetShortAddr
                          2 0 44 -> NLME_GetShortAddr
                          0 0 44 -> RTG_RemoveRtgEntry
                          0 0 44 -> ZDApp_NVUpdate
                          0 0 44 -> ZDO_ParseDeviceAnnce
                          0 0 44 -> ZMacSetReq
                          0 0 44 -> nwkNeighborRemoveAllStranded
                          0 0 44 -> nwkNeighborUpdateNwkAddr
                          0 0 44 -> osal_memset
                          0 0 44 -> sAddrExtCmp
       1      0     41  ZDO_ProcessMatchDescReq
                          0 0 34 -> HalLcdWriteScreen
                          0 0 34 -> NLME_IsAddressBroadcast
                          0 0 36 -> ZDO_AnyClusterMatches
                          0 0 34 -> ZDO_ConvertOTAClusters
                          0 0 41 -> ZDP_EPRsp
                          0 0 34 -> osal_mem_alloc
                          0 0 34 -> osal_mem_free
                          0 0 37 -> osal_memcpy
                          0 0 34 -> osal_msg_allocate
                          0 0 34 -> osal_msg_send
       0      0     29  ZDO_ProcessMgmtBindReq
                          0 0 24 -> APSME_GetRequest
                          0 0 29 -> ZDP_MgmtBindRsp
                          0 0 24 -> osal_mem_alloc
                          0 0 24 -> osal_mem_free
       1      0     19  ZDO_ProcessMgmtDirectJoinReq
                          0 0 14 -> NLME_DirectJoinRequest
                          0 0 19 -> ZDP_SendData
       1      0     25  ZDO_ProcessMgmtLeaveReq
                          0 0 20 -> AddrMgrExtAddrValid
                          0 0 20 -> NLME_GetExtAddr
                          0 0 20 -> NLME_LeaveReq
                          0 0 25 -> ZDP_SendData
                          0 0 20 -> sAddrExtCmp
       1      0     64  ZDO_ProcessMgmtLqiReq
                          0 0 59 -> AddrMgrEntryLookupNwk
                          0 0 59 -> AssocCount
                          0 0 59 -> AssocFindDevice
                          0 0 59 -> NLME_GetRequest
                          0 0 64 -> ZDP_MgmtLqiRsp
                          0 0 59 -> osal_mem_alloc
                          0 0 59 -> osal_mem_free
                          0 0 59 -> osal_memset
                          0 0 59 -> sAddrExtCpy
       1      0     18  ZDO_ProcessMgmtNwkDiscReq
                          0 0 18 -> NLME_NwkDiscReq2
                          0 0 18 -> NLME_NwkDiscTerm
                          0 0 18 -> osal_build_uint32
       1      0     18  ZDO_ProcessMgmtPermitJoinReq
                          0 0 13 -> NLME_PermitJoiningRequest
                          0 0 18 -> ZDP_SendData
       0      0     26  ZDO_ProcessMgmtRtgReq
                          0 0 21 -> NLME_GetRequest
                          0 0 26 -> ZDP_MgmtRtgRsp
                          0 0 21 -> osal_mem_alloc
                          0 0 21 -> osal_mem_free
       0      0     18  ZDO_ProcessNodeDescReq
                          0 0 18 -> ZDP_GenericRsp
                          0 0 16 -> ZDP_NodeDescMsg
       0      0     18  ZDO_ProcessPowerDescReq
                          0 0 18 -> ZDP_GenericRsp
                          0 0 16 -> ZDP_PowerDescMsg
       0      0     16  ZDO_ProcessServerDiscReq
                          0 0 16 -> ZDP_ServerDiscRsp
       0      0     15  ZDO_ProcessSimpleDescReq
                          0 0 15 -> ZDP_SimpleDescMsg
                          0 0 15 -> afFindSimpleDesc
                          0 0 15 -> osal_mem_free
       0      0     33  ZDO_ProcessUserDescReq
                          0 0 33 -> ZDP_GenericRsp
                          0 0 32 -> ZDP_UserDescRsp
                          0 0 33 -> osal_nv_read
       1      0     44  ZDO_ProcessUserDescSet
                          0 0 44 -> ZDP_SendData
                          0 0 42 -> osal_memcpy
                          0 0 43 -> osal_nv_write
       2      0      9  ZDO_RemoveEndDeviceBind
                          2 0  0 -> osal_mem_free
       2      0     39  ZDO_RemoveMatchMemory
                          2 0  0 -> osal_mem_free
       1      0     27  ZDO_SendEDBindRsp
                          0 0 13 -> HalLcdWriteString
                          0 0 18 -> ZDP_SendData
       0      0     19  ZDO_StartDevice
                          0 0 12 -> HalLcdWriteScreen
                          0 0 19 -> NLME_NetworkFormationRequest
                          0 0 12 -> NLME_StartRouterRequest
                          0 0 12 -> osal_start_timerEx
       0      0     23  ZDO_UpdateAddrManager
                          0 0 23 -> AddrMgrEntryUpdate
                          0 0 23 -> AddrMgrExtAddrSet
       0      0     12  ZDO_UpdateNwkStatus
                          0 0 12 -> NLME_GetExtAddr
                          0 0 12 -> NLME_GetShortAddr
                          0 0 12 -> zdoSendStateChangeMsg
       1      0     25  zdoSendStateChangeMsg
                          0 0 13 -> osal_msg_allocate
                          0 0 13 -> osal_msg_find
                          0 0 13 -> osal_msg_send
                          0 0 13 -> osal_set_event


   Segment part sizes:

   Bytes  Function/Label
   -----  --------------
      16  ?<Constant "End Device Bind">
      13  ?<Constant "MODE unknown">
      15  ?<Constant "Match Desc Req">
      12  ?<Constant "Non Matched">
       9  ?<Constant "Rsp Sent">
      16  ?<Constant "StartDevice ERR">
      13  ?<Constant "Success Sent">
       8  ?<Constant "Timeout">
       6  ??NLME_PermitJoiningTimeout?relay
       6  ??ZDMatchSendState?relay
       6  ??ZDODeviceSetup?relay
       6  ??ZDO_AnyClusterMatches?relay
       6  ??ZDO_BuildSimpleDescBuf?relay
       6  ??ZDO_CompareClusterLists?relay
       6  ??ZDO_ConvertOTAClusters?relay
       6  ??ZDO_CopyMatchInfo?relay
       6  ??ZDO_EndDeviceBindMatchTimeoutCB?relay
       6  ??ZDO_EndDeviceTimeoutCB?relay
       6  ??ZDO_Init?relay
       6  ??ZDO_MatchEndDeviceBind?relay
       6  ??ZDO_ParseAddrRsp?relay
       6  ??ZDO_ParseBindUnbindReq?relay
       6  ??ZDO_ParseDeviceAnnce?relay
       6  ??ZDO_ParseEPListRsp?relay
       6  ??ZDO_ParseEndDeviceBindReq?relay
       6  ??ZDO_ParseMgmNwkDiscRsp?relay
       6  ??ZDO_ParseMgmtBindRsp?relay
       6  ??ZDO_ParseMgmtLqiRsp?relay
       6  ??ZDO_ParseMgmtNwkUpdateNotify?relay
       6  ??ZDO_ParseMgmtNwkUpdateReq?relay
       6  ??ZDO_ParseMgmtRtgRsp?relay
       6  ??ZDO_ParseNodeDescRsp?relay
       6  ??ZDO_ParsePowerDescRsp?relay
       6  ??ZDO_ParseServerDiscRsp?relay
       6  ??ZDO_ParseSimpleDescBuf?relay
       6  ??ZDO_ParseSimpleDescRsp?relay
       6  ??ZDO_ParseUserDescRsp?relay
       6  ??ZDO_ProcessActiveEPReq?relay
       6  ??ZDO_ProcessBindUnbindReq?relay
       6  ??ZDO_ProcessDeviceAnnce?relay
       6  ??ZDO_ProcessMatchDescReq?relay
       6  ??ZDO_ProcessMgmtBindReq?relay
       6  ??ZDO_ProcessMgmtDirectJoinReq?relay
       6  ??ZDO_ProcessMgmtLeaveReq?relay
       6  ??ZDO_ProcessMgmtLqiReq?relay
       6  ??ZDO_ProcessMgmtNwkDiscReq?relay
       6  ??ZDO_ProcessMgmtPermitJoinReq?relay
       6  ??ZDO_ProcessMgmtRtgReq?relay
       6  ??ZDO_ProcessNodeDescReq?relay
       6  ??ZDO_ProcessPowerDescReq?relay
       6  ??ZDO_ProcessServerDiscReq?relay
       6  ??ZDO_ProcessSimpleDescReq?relay
       6  ??ZDO_ProcessUserDescReq?relay
       6  ??ZDO_ProcessUserDescSet?relay
       6  ??ZDO_RemoveEndDeviceBind?relay
       6  ??ZDO_RemoveMatchMemory?relay
       6  ??ZDO_SendEDBindRsp?relay
       6  ??ZDO_StartDevice?relay
       6  ??ZDO_UpdateAddrManager?relay
       6  ??ZDO_UpdateNwkStatus?relay
       6  ??zdoSendStateChangeMsg?relay
       3  NLME_PermitJoiningTimeout
    1166  ZDMatchSendState
      52  ZDOBuildBuf
      19  ZDODeviceSetup
     150  ZDO_AnyClusterMatches
     479  ZDO_BuildSimpleDescBuf
     231  ZDO_CompareClusterLists
     107  ZDO_ConvertOTAClusters
     533  ZDO_CopyMatchInfo
       2  ZDO_EDBind
      21  ZDO_EndDeviceBindMatchTimeoutCB
      93  ZDO_EndDeviceTimeoutCB
      35  ZDO_Init
    1229  ZDO_MatchEndDeviceBind
     432  ZDO_ParseAddrRsp
     281  ZDO_ParseBindUnbindReq
     131  ZDO_ParseDeviceAnnce
     219  ZDO_ParseEPListRsp
     636  ZDO_ParseEndDeviceBindReq
     509  ZDO_ParseMgmNwkDiscRsp
     570  ZDO_ParseMgmtBindRsp
     421  ZDO_ParseMgmtLqiRsp
     405  ZDO_ParseMgmtNwkUpdateNotify
     237  ZDO_ParseMgmtNwkUpdateReq
     376  ZDO_ParseMgmtRtgRsp
     585  ZDO_ParseNodeDescRsp
     381  ZDO_ParsePowerDescRsp
     100  ZDO_ParseServerDiscRsp
     662  ZDO_ParseSimpleDescBuf
     142  ZDO_ParseSimpleDescRsp
     210  ZDO_ParseUserDescRsp
     204  ZDO_ProcessActiveEPReq
     605  ZDO_ProcessBindUnbindReq
     488  ZDO_ProcessDeviceAnnce
    1639  ZDO_ProcessMatchDescReq
     364  ZDO_ProcessMgmtBindReq
     149  ZDO_ProcessMgmtDirectJoinReq
     231  ZDO_ProcessMgmtLeaveReq
    1079  ZDO_ProcessMgmtLqiReq
     193  ZDO_ProcessMgmtNwkDiscReq
     159  ZDO_ProcessMgmtPermitJoinReq
     390  ZDO_ProcessMgmtRtgReq
     185  ZDO_ProcessNodeDescReq
     185  ZDO_ProcessPowerDescReq
     144  ZDO_ProcessServerDiscReq
     249  ZDO_ProcessSimpleDescReq
     259  ZDO_ProcessUserDescReq
     402  ZDO_ProcessUserDescSet
     146  ZDO_RemoveEndDeviceBind
     353  ZDO_RemoveMatchMemory
     143  ZDO_SendEDBindRsp
     155  ZDO_StartDevice
      79  ZDO_UpdateAddrManager
     111  ZDO_UpdateNwkStatus
       4  apsChannelMask
       2  matchED
     127  zdoSendStateChangeMsg

 
 18 402 bytes in segment BANKED_CODE
    318 bytes in segment BANK_RELAYS
    102 bytes in segment XDATA_ROM_C
     60 bytes in segment XDATA_Z
 
 18 720 bytes of CODE  memory
    102 bytes of CONST memory
     60 bytes of XDATA memory

Errors: none
Warnings: none
