///////////////////////////////////////////////////////////////////////////////
//                                                                            /
// IAR C/C++ Compiler V8.20.2.41139 for 8051            11/Jan/2016  16:35:12 /
// Copyright 2004-2013 IAR Systems AB.                                        /
//                                                                            /
//    Core               =  plain                                             /
//    Code model         =  banked                                            /
//    Data model         =  large                                             /
//    Calling convention =  xdata reentrant                                   /
//    Constant location  =  data_rom                                          /
//    Dptr setup         =  1,16                                              /
//                                                                            /
//    Source file        =  C:\Users\ArnoldWorkStation\Desktop\ZigbeeTest\Pro /
//                          jects\zstack\Samples\SampleApp\Source\algorithman /
//                          dfilter.c                                         /
//    Command line       =  -f C:\Users\ArnoldWorkStation\Desktop\ZigbeeTest\ /
//                          Projects\zstack\Samples\SampleApp\CC2530DB\..\..\ /
//                          ..\Tools\CC2530DB\f8wCoord.cfg (-DCPU32MHZ        /
//                          -DROOT=__near_func -DMAC_CFG_APP_PENDING_QUEUE=TR /
//                          UE -DZDO_COORDINATOR -DRTR_NWK -DBLINK_LEDS) -f   /
//                          C:\Users\ArnoldWorkStation\Desktop\ZigbeeTest\Pro /
//                          jects\zstack\Samples\SampleApp\CC2530DB\..\..\..\ /
//                          Tools\CC2530DB\f8wConfig.cfg (-DSECURE=0          /
//                          -DZG_SECURE_DYNAMIC=0 -DREFLECTOR                 /
//                          -DDEFAULT_CHANLIST=0x00000800                     /
//                          -DZDAPP_CONFIG_PAN_ID=0xFFF1                      /
//                          -DNWK_START_DELAY=100 -DEXTENDED_JOINING_RANDOM_M /
//                          ASK=0x007F -DBEACON_REQUEST_DELAY=100             /
//                          -DBEACON_REQ_DELAY_MASK=0x00FF                    /
//                          -DROUTE_EXPIRY_TIME=30 -DAPSC_ACK_WAIT_DURATION_P /
//                          OLLED=3000 -DNWK_INDIRECT_MSG_TIMEOUT=7           /
//                          -DMAX_RREQ_ENTRIES=8 -DAPSC_MAX_FRAME_RETRIES=3   /
//                          -DNWK_MAX_DATA_RETRIES=2                          /
//                          -DMAX_POLL_FAILURE_RETRIES=2 -DMAX_BCAST=9        /
//                          -DAPS_MAX_GROUPS=16 -DMAX_RTG_ENTRIES=40          /
//                          -DNWK_MAX_BINDING_ENTRIES=4                       /
//                          -DMAX_BINDING_CLUSTER_IDS=4                       /
//                          "-DDEFAULT_KEY={0x01, 0x03, 0x05, 0x07, 0x09,     /
//                          0x0B, 0x0D, 0x0F, 0x00, 0x02, 0x04, 0x06, 0x08,   /
//                          0x0A, 0x0C, 0x0D}" -DMAC_MAX_FRAME_SIZE=116       /
//                          "-DCONST=const __code" -DGENERIC=__generic        /
//                          -DRFD_RCVC_ALWAYS_ON=TRUE -DPOLL_RATE=1000        /
//                          -DQUEUED_POLL_RATE=100 -DRESPONSE_POLL_RATE=100)  /
//                          -DREJOIN_POLL_RATE=440 C:\Users\ArnoldWorkStation /
//                          \Desktop\ZigbeeTest\Projects\zstack\Samples\Sampl /
//                          eApp\Source\algorithmandfilter.c -D ZIGBEEPRO -D  /
//                          ZTOOL_P1 -D xMT_TASK -D xMT_SYS_FUNC -D           /
//                          xMT_ZDO_FUNC -D LCD_SUPPORTED=DEBUG -lC           /
//                          C:\Users\ArnoldWorkStation\Desktop\ZigbeeTest\Pro /
//                          jects\zstack\Samples\SampleApp\CC2530DB\Coordinat /
//                          orEB-Pro\List\ -lA C:\Users\ArnoldWorkStation\Des /
//                          ktop\ZigbeeTest\Projects\zstack\Samples\SampleApp /
//                          \CC2530DB\CoordinatorEB-Pro\List\                 /
//                          --diag_suppress Pe001,Pa010 -o                    /
//                          C:\Users\ArnoldWorkStation\Desktop\ZigbeeTest\Pro /
//                          jects\zstack\Samples\SampleApp\CC2530DB\Coordinat /
//                          orEB-Pro\Obj\ -e --no_cse --no_unroll             /
//                          --no_inline --no_code_motion --no_tbaa --debug    /
//                          --core=plain --dptr=16,1 --data_model=large       /
//                          --code_model=banked --calling_convention=xdata_re /
//                          entrant --place_constants=data_rom                /
//                          --nr_virtual_regs 16 -I                           /
//                          C:\Users\ArnoldWorkStation\Desktop\ZigbeeTest\Pro /
//                          jects\zstack\Samples\SampleApp\CC2530DB\ -I       /
//                          C:\Users\ArnoldWorkStation\Desktop\ZigbeeTest\Pro /
//                          jects\zstack\Samples\SampleApp\CC2530DB\..\SOURCE /
//                          \ -I C:\Users\ArnoldWorkStation\Desktop\ZigbeeTes /
//                          t\Projects\zstack\Samples\SampleApp\CC2530DB\..\. /
//                          .\..\ZMAIN\TI2530DB\ -I                           /
//                          C:\Users\ArnoldWorkStation\Desktop\ZigbeeTest\Pro /
//                          jects\zstack\Samples\SampleApp\CC2530DB\..\..\..\ /
//                          ..\..\COMPONENTS\MT\ -I                           /
//                          C:\Users\ArnoldWorkStation\Desktop\ZigbeeTest\Pro /
//                          jects\zstack\Samples\SampleApp\CC2530DB\..\..\..\ /
//                          ..\..\COMPONENTS\HAL\INCLUDE\ -I                  /
//                          C:\Users\ArnoldWorkStation\Desktop\ZigbeeTest\Pro /
//                          jects\zstack\Samples\SampleApp\CC2530DB\..\..\..\ /
//                          ..\..\COMPONENTS\HAL\TARGET\CC2530EB\ -I          /
//                          C:\Users\ArnoldWorkStation\Desktop\ZigbeeTest\Pro /
//                          jects\zstack\Samples\SampleApp\CC2530DB\..\..\..\ /
//                          ..\..\COMPONENTS\OSAL\MCU\CCSOC\ -I               /
//                          C:\Users\ArnoldWorkStation\Desktop\ZigbeeTest\Pro /
//                          jects\zstack\Samples\SampleApp\CC2530DB\..\..\..\ /
//                          ..\..\COMPONENTS\OSAL\INCLUDE\ -I                 /
//                          C:\Users\ArnoldWorkStation\Desktop\ZigbeeTest\Pro /
//                          jects\zstack\Samples\SampleApp\CC2530DB\..\..\..\ /
//                          ..\..\COMPONENTS\STACK\AF\ -I                     /
//                          C:\Users\ArnoldWorkStation\Desktop\ZigbeeTest\Pro /
//                          jects\zstack\Samples\SampleApp\CC2530DB\..\..\..\ /
//                          ..\..\COMPONENTS\STACK\NWK\ -I                    /
//                          C:\Users\ArnoldWorkStation\Desktop\ZigbeeTest\Pro /
//                          jects\zstack\Samples\SampleApp\CC2530DB\..\..\..\ /
//                          ..\..\COMPONENTS\STACK\SEC\ -I                    /
//                          C:\Users\ArnoldWorkStation\Desktop\ZigbeeTest\Pro /
//                          jects\zstack\Samples\SampleApp\CC2530DB\..\..\..\ /
//                          ..\..\COMPONENTS\STACK\SAPI\ -I                   /
//                          C:\Users\ArnoldWorkStation\Desktop\ZigbeeTest\Pro /
//                          jects\zstack\Samples\SampleApp\CC2530DB\..\..\..\ /
//                          ..\..\COMPONENTS\STACK\SYS\ -I                    /
//                          C:\Users\ArnoldWorkStation\Desktop\ZigbeeTest\Pro /
//                          jects\zstack\Samples\SampleApp\CC2530DB\..\..\..\ /
//                          ..\..\COMPONENTS\STACK\ZDO\ -I                    /
//                          C:\Users\ArnoldWorkStation\Desktop\ZigbeeTest\Pro /
//                          jects\zstack\Samples\SampleApp\CC2530DB\..\..\..\ /
//                          ..\..\COMPONENTS\ZMAC\F8W\ -I                     /
//                          C:\Users\ArnoldWorkStation\Desktop\ZigbeeTest\Pro /
//                          jects\zstack\Samples\SampleApp\CC2530DB\..\..\..\ /
//                          ..\..\COMPONENTS\ZMAC\ -I                         /
//                          C:\Users\ArnoldWorkStation\Desktop\ZigbeeTest\Pro /
//                          jects\zstack\Samples\SampleApp\CC2530DB\..\..\..\ /
//                          ..\..\COMPONENTS\SERVICES\SADDR\ -I               /
//                          C:\Users\ArnoldWorkStation\Desktop\ZigbeeTest\Pro /
//                          jects\zstack\Samples\SampleApp\CC2530DB\..\..\..\ /
//                          ..\..\COMPONENTS\SERVICES\SDATA\ -I               /
//                          C:\Users\ArnoldWorkStation\Desktop\ZigbeeTest\Pro /
//                          jects\zstack\Samples\SampleApp\CC2530DB\..\..\..\ /
//                          ..\..\COMPONENTS\MAC\INCLUDE\ -I                  /
//                          C:\Users\ArnoldWorkStation\Desktop\ZigbeeTest\Pro /
//                          jects\zstack\Samples\SampleApp\CC2530DB\..\..\..\ /
//                          ..\..\COMPONENTS\MAC\HIGH_LEVEL\ -I               /
//                          C:\Users\ArnoldWorkStation\Desktop\ZigbeeTest\Pro /
//                          jects\zstack\Samples\SampleApp\CC2530DB\..\..\..\ /
//                          ..\..\COMPONENTS\MAC\LOW_LEVEL\srf04\ -I          /
//                          C:\Users\ArnoldWorkStation\Desktop\ZigbeeTest\Pro /
//                          jects\zstack\Samples\SampleApp\CC2530DB\..\..\..\ /
//                          ..\..\COMPONENTS\MAC\LOW_LEVEL\srf04\SINGLE_CHIP\ /
//                           -On --require_prototypes                         /
//    List file          =  C:\Users\ArnoldWorkStation\Desktop\ZigbeeTest\Pro /
//                          jects\zstack\Samples\SampleApp\CC2530DB\Coordinat /
//                          orEB-Pro\List\algorithmandfilter.s51              /
//                                                                            /
//                                                                            /
///////////////////////////////////////////////////////////////////////////////

        NAME algorithmandfilter

        RTMODEL "__SystemLibrary", "CLib"
        RTMODEL "__calling_convention", "xdata_reentrant"
        RTMODEL "__code_model", "banked"
        RTMODEL "__core", "plain"
        RTMODEL "__data_model", "large"
        RTMODEL "__dptr_size", "16"
        RTMODEL "__extended_stack", "disabled"
        RTMODEL "__location_for_constants", "data"
        RTMODEL "__number_of_dptrs", "1"
        RTMODEL "__rt_version", "1"

        RSEG DOVERLAY:DATA:NOROOT(0)
        RSEG IOVERLAY:IDATA:NOROOT(0)
        RSEG ISTACK:IDATA:NOROOT(0)
        RSEG PSTACK:XDATA:NOROOT(0)
        RSEG XSTACK:XDATA:NOROOT(0)

        EXTERN ?ALLOC_XSTACK8
        EXTERN ?BANKED_ENTER_XDATA
        EXTERN ?BANKED_LEAVE_XDATA
        EXTERN ?BDISPATCH
        EXTERN ?DEALLOC_XSTACK8
        EXTERN ?FLT_ADD
        EXTERN ?FLT_DIV
        EXTERN ?FLT_EQ
        EXTERN ?FLT_GE
        EXTERN ?FLT_LT
        EXTERN ?FLT_MUL
        EXTERN ?FLT_SUB
        EXTERN ?L_ADD
        EXTERN ?L_MOV_TO_X
        EXTERN ?L_MOV_X
        EXTERN ?L_TO_FLT
        EXTERN ?MOVE_LONG8_XDATA_XDATA
        EXTERN ?PUSH_XSTACK8_X_FOUR
        EXTERN ?PUSH_XSTACK_I_FOUR
        EXTERN ?SC_DIV_MOD
        EXTERN ?V0
        EXTERN ?XLOAD_R2345
        EXTERN ?XSP
        EXTERN ?XSTACK_DISP0_8
        EXTERN ?XSTORE_R2345

        PUBLIC ??SampleApp_MinMax_localization?relay
        FUNCTION ??SampleApp_MinMax_localization?relay,0203H
        PUBLIC ??SampleApp_WCL_localization?relay
        FUNCTION ??SampleApp_WCL_localization?relay,0203H
        PUBLIC ??averagefilter?relay
        FUNCTION ??averagefilter?relay,0203H
        PUBLIC ??calibrationN?relay
        FUNCTION ??calibrationN?relay,0203H
        PUBLIC ??gaussianfilter?relay
        FUNCTION ??gaussianfilter?relay,0203H
        PUBLIC ??moving_average?relay
        FUNCTION ??moving_average?relay,0203H
        PUBLIC ??moving_average_f?relay
        FUNCTION ??moving_average_f?relay,0203H
        PUBLIC ??printRSSIandLQI?relay
        FUNCTION ??printRSSIandLQI?relay,0203H
        PUBLIC SampleApp_MinMax_localization
        FUNCTION SampleApp_MinMax_localization,021203H
        ARGFRAME XSTACK, 14, STACK
        LOCFRAME ISTACK, 4, STACK
        LOCFRAME XSTACK, 68, STACK
        PUBLIC SampleApp_WCL_localization
        FUNCTION SampleApp_WCL_localization,021203H
        ARGFRAME XSTACK, 10, STACK
        LOCFRAME ISTACK, 2, STACK
        LOCFRAME XSTACK, 74, STACK
        PUBWEAK __Constant_3f000000
        PUBWEAK __Constant_3f800000
        PUBWEAK __Constant_40000000
        PUBWEAK __Constant_40800000
        PUBWEAK __Constant_41200000
        PUBLIC averagefilter
        FUNCTION averagefilter,0203H
        ARGFRAME XSTACK, 0, STACK
        LOCFRAME XSTACK, 26, STACK
        PUBLIC calibrationN
        FUNCTION calibrationN,021203H
        ARGFRAME XSTACK, 12, STACK
        LOCFRAME ISTACK, 4, STACK
        LOCFRAME XSTACK, 34, STACK
        PUBLIC gaussianfilter
        FUNCTION gaussianfilter,0203H
        ARGFRAME XSTACK, 0, STACK
        LOCFRAME ISTACK, 2, STACK
        LOCFRAME XSTACK, 42, STACK
        PUBLIC moving_average
        FUNCTION moving_average,0203H
        ARGFRAME XSTACK, 4, STACK
        LOCFRAME ISTACK, 1, STACK
        LOCFRAME XSTACK, 20, STACK
        PUBLIC moving_average_f
        FUNCTION moving_average_f,0203H
        ARGFRAME XSTACK, 8, STACK
        LOCFRAME XSTACK, 22, STACK
        PUBLIC printRSSIandLQI
        FUNCTION printRSSIandLQI,021203H
        ARGFRAME XSTACK, 0, STACK
        LOCFRAME ISTACK, 1, STACK
        LOCFRAME XSTACK, 13, STACK
        
          CFI Names cfiNames0
          CFI StackFrame CFA_SP SP IDATA
          CFI StackFrame CFA_PSP16 PSP16 XDATA
          CFI StackFrame CFA_XSP16 XSP16 XDATA
          CFI StaticOverlayFrame CFA_IOVERLAY IOVERLAY
          CFI StaticOverlayFrame CFA_DOVERLAY DOVERLAY
          CFI Resource `PSW.CY`:1, `B.BR0`:1, `B.BR1`:1, `B.BR2`:1, `B.BR3`:1
          CFI Resource `B.BR4`:1, `B.BR5`:1, `B.BR6`:1, `B.BR7`:1, `VB.BR8`:1
          CFI Resource `VB.BR9`:1, `VB.BR10`:1, `VB.BR11`:1, `VB.BR12`:1
          CFI Resource `VB.BR13`:1, `VB.BR14`:1, `VB.BR15`:1, VB:8, B:8, A:8
          CFI Resource PSW:8, DPL0:8, DPH0:8, R0:8, R1:8, R2:8, R3:8, R4:8, R5:8
          CFI Resource R6:8, R7:8, V0:8, V1:8, V2:8, V3:8, V4:8, V5:8, V6:8, V7:8
          CFI Resource V8:8, V9:8, V10:8, V11:8, V12:8, V13:8, V14:8, V15:8, SP:8
          CFI Resource PSPH:8, PSPL:8, PSP16:16, XSPH:8, XSPL:8, XSP16:16
          CFI VirtualResource ?RET:24
          CFI Resource ?BRET_EXT:8
          CFI VirtualResource ?RET_HIGH:8, ?RET_LOW:8
          CFI ResourceParts PSP16 PSPH, PSPL
          CFI ResourceParts XSP16 XSPH, XSPL
          CFI ResourceParts ?RET ?BRET_EXT, ?RET_HIGH, ?RET_LOW
          CFI EndNames cfiNames0
        
          CFI Common cfiCommon0 Using cfiNames0
          CFI CodeAlign 1
          CFI DataAlign -1
          CFI ReturnAddress ?RET CODE
          CFI CFA_DOVERLAY Used
          CFI CFA_IOVERLAY Used
          CFI CFA_SP SP+-3
          CFI CFA_PSP16 PSP16+0
          CFI CFA_XSP16 XSP16+0
          CFI `PSW.CY` SameValue
          CFI `B.BR0` SameValue
          CFI `B.BR1` SameValue
          CFI `B.BR2` SameValue
          CFI `B.BR3` SameValue
          CFI `B.BR4` SameValue
          CFI `B.BR5` SameValue
          CFI `B.BR6` SameValue
          CFI `B.BR7` SameValue
          CFI `VB.BR8` SameValue
          CFI `VB.BR9` SameValue
          CFI `VB.BR10` SameValue
          CFI `VB.BR11` SameValue
          CFI `VB.BR12` SameValue
          CFI `VB.BR13` SameValue
          CFI `VB.BR14` SameValue
          CFI `VB.BR15` SameValue
          CFI VB SameValue
          CFI B Undefined
          CFI A Undefined
          CFI PSW SameValue
          CFI DPL0 SameValue
          CFI DPH0 SameValue
          CFI R0 Undefined
          CFI R1 Undefined
          CFI R2 Undefined
          CFI R3 Undefined
          CFI R4 Undefined
          CFI R5 Undefined
          CFI R6 SameValue
          CFI R7 SameValue
          CFI V0 SameValue
          CFI V1 SameValue
          CFI V2 SameValue
          CFI V3 SameValue
          CFI V4 SameValue
          CFI V5 SameValue
          CFI V6 SameValue
          CFI V7 SameValue
          CFI V8 SameValue
          CFI V9 SameValue
          CFI V10 SameValue
          CFI V11 SameValue
          CFI V12 SameValue
          CFI V13 SameValue
          CFI V14 SameValue
          CFI V15 SameValue
          CFI PSPH Undefined
          CFI PSPL Undefined
          CFI XSPH Undefined
          CFI XSPL Undefined
          CFI ?RET Concat
          CFI ?BRET_EXT Frame(CFA_SP, 3)
          CFI ?RET_HIGH Frame(CFA_SP, 2)
          CFI ?RET_LOW Frame(CFA_SP, 1)
          CFI EndCommon cfiCommon0
        
HalUARTWrite        SYMBOL "HalUARTWrite"
??HalUARTWrite?relay SYMBOL "?relay", HalUARTWrite
log10               SYMBOL "log10"
??log10?relay       SYMBOL "?relay", log10
pow                 SYMBOL "pow"
??pow?relay         SYMBOL "?relay", pow
SampleApp_MinMax_localization SYMBOL "SampleApp_MinMax_localization"
??SampleApp_MinMax_localization?relay SYMBOL "?relay", SampleApp_MinMax_localization
SampleApp_WCL_localization SYMBOL "SampleApp_WCL_localization"
??SampleApp_WCL_localization?relay SYMBOL "?relay", SampleApp_WCL_localization
averagefilter       SYMBOL "averagefilter"
??averagefilter?relay SYMBOL "?relay", averagefilter
calibrationN        SYMBOL "calibrationN"
??calibrationN?relay SYMBOL "?relay", calibrationN
gaussianfilter      SYMBOL "gaussianfilter"
??gaussianfilter?relay SYMBOL "?relay", gaussianfilter
moving_average      SYMBOL "moving_average"
??moving_average?relay SYMBOL "?relay", moving_average
moving_average_f    SYMBOL "moving_average_f"
??moving_average_f?relay SYMBOL "?relay", moving_average_f
printRSSIandLQI     SYMBOL "printRSSIandLQI"
??printRSSIandLQI?relay SYMBOL "?relay", printRSSIandLQI

        EXTERN ??HalUARTWrite?relay
        FUNCTION ??HalUARTWrite?relay,00H
        EXTERN ??log10?relay
        FUNCTION ??log10?relay,00H
        EXTERN ??pow?relay
        FUNCTION ??pow?relay,00H
        EXTERN HalUARTWrite
        FUNCTION HalUARTWrite,0202H
        ARGFRAME ISTACK, 0, STACK
        ARGFRAME PSTACK, 0, STACK
        ARGFRAME XSTACK, 13, STACK
        ARGFRAME IOVERLAY, 0, STATIC
        ARGFRAME DOVERLAY, 0, STATIC
        EXTERN log10
        FUNCTION log10,010202H
        ARGFRAME ISTACK, 0, STACK
        ARGFRAME PSTACK, 0, STACK
        ARGFRAME XSTACK, 30, STACK
        ARGFRAME IOVERLAY, 0, STATIC
        ARGFRAME DOVERLAY, 0, STATIC
        EXTERN pow
        FUNCTION pow,010202H
        ARGFRAME ISTACK, 0, STACK
        ARGFRAME PSTACK, 0, STACK
        ARGFRAME XSTACK, 74, STACK
        ARGFRAME IOVERLAY, 0, STATIC
        ARGFRAME DOVERLAY, 0, STATIC

// C:\Users\ArnoldWorkStation\Desktop\ZigbeeTest\Projects\zstack\Samples\SampleApp\Source\algorithmandfilter.c
//    1 /**************************************************************************************************
//    2   Filename:       algorithmandfilter.c
//    3   Revised:        $Date: 2016-01-09  $
//    4   Revision:       $Revision: 1 $
//    5 
//    6   Description:    algorithmandfilter.
//    7 
//    8 
//    9 **************************************************************************************************/
//   10 
//   11 /*********************************************************************
//   12  * INCLUDES
//   13  */
//   14 #include "algorithmandfilter.h"
//   15 

        RSEG BANKED_CODE:CODE:NOROOT(0)
//   16 void printRSSIandLQI(afIncomingMSGPacket_t *pkt)
printRSSIandLQI:
          CFI Block cfiBlock0 Using cfiCommon0
          CFI Function printRSSIandLQI
        CODE
//   17 {
        FUNCALL printRSSIandLQI, HalUARTWrite
        LOCFRAME ISTACK, 0, STACK
        LOCFRAME PSTACK, 0, STACK
        LOCFRAME XSTACK, 13, STACK
        LOCFRAME IOVERLAY, 0, STATIC
        LOCFRAME DOVERLAY, 0, STATIC
        ARGFRAME ISTACK, 0, STACK
        ARGFRAME PSTACK, 0, STACK
        ARGFRAME XSTACK, 13, STACK
        ARGFRAME IOVERLAY, 0, STATIC
        ARGFRAME DOVERLAY, 0, STATIC
        FUNCALL printRSSIandLQI, HalUARTWrite
        LOCFRAME ISTACK, 0, STACK
        LOCFRAME PSTACK, 0, STACK
        LOCFRAME XSTACK, 13, STACK
        LOCFRAME IOVERLAY, 0, STATIC
        LOCFRAME DOVERLAY, 0, STATIC
        ARGFRAME ISTACK, 0, STACK
        ARGFRAME PSTACK, 0, STACK
        ARGFRAME XSTACK, 13, STACK
        ARGFRAME IOVERLAY, 0, STATIC
        ARGFRAME DOVERLAY, 0, STATIC
        FUNCALL printRSSIandLQI, HalUARTWrite
        LOCFRAME ISTACK, 0, STACK
        LOCFRAME PSTACK, 0, STACK
        LOCFRAME XSTACK, 13, STACK
        LOCFRAME IOVERLAY, 0, STATIC
        LOCFRAME DOVERLAY, 0, STATIC
        ARGFRAME ISTACK, 0, STACK
        ARGFRAME PSTACK, 0, STACK
        ARGFRAME XSTACK, 13, STACK
        ARGFRAME IOVERLAY, 0, STATIC
        ARGFRAME DOVERLAY, 0, STATIC
        MOV     A,#-0xa
        LCALL   ?BANKED_ENTER_XDATA
          CFI DPH0 load(1, XDATA, add(CFA_XSP16, literal(-1)))
          CFI DPL0 load(1, XDATA, add(CFA_XSP16, literal(-2)))
          CFI ?BRET_EXT load(1, XDATA, add(CFA_XSP16, literal(-3)))
          CFI ?RET_HIGH load(1, XDATA, add(CFA_XSP16, literal(-4)))
          CFI ?RET_LOW load(1, XDATA, add(CFA_XSP16, literal(-5)))
          CFI R7 load(1, XDATA, add(CFA_XSP16, literal(-6)))
          CFI V1 load(1, XDATA, add(CFA_XSP16, literal(-7)))
          CFI V0 load(1, XDATA, add(CFA_XSP16, literal(-8)))
          CFI VB load(1, XDATA, add(CFA_XSP16, literal(-9)))
          CFI R6 load(1, XDATA, add(CFA_XSP16, literal(-10)))
          CFI CFA_SP SP+0
          CFI CFA_XSP16 add(XSP16, 10)
        ; Saved register size: 10
        ; Auto size: 3
        MOV     A,#-0x3
        LCALL   ?ALLOC_XSTACK8
          CFI CFA_XSP16 add(XSP16, 13)
        MOV     ?V0 + 0,R2
        MOV     ?V0 + 1,R3
//   18          int8 rssivalue;
//   19         rssivalue=0xff-pkt->rssi;
        MOV     A,?V0 + 0
        ADD     A,#0x18
        MOV     DPL,A
        MOV     A,?V0 + 1
        ADDC    A,#0x0
        MOV     DPH,A
        MOVX    A,@DPTR
        MOV     R0,A
        MOV     A,#-0x1
        CLR     C
        SUBB    A,R0
        MOV     R6,A
//   20         unsigned char rssi_buf[3];
//   21         rssi_buf[0]='-';
        MOV     DPL,?XSP + 0
        MOV     DPH,?XSP + 1
        MOV     A,#0x2d
        MOVX    @DPTR,A
//   22         rssi_buf[1]=rssivalue/10+0x30;
        MOV     A,R6
        MOV     B,#0xa
        LCALL   ?SC_DIV_MOD
        ADD     A,#0x30
        PUSH    A
          CFI CFA_SP SP+-1
        MOV     A,#0x1
        LCALL   ?XSTACK_DISP0_8
        POP     A
          CFI CFA_SP SP+0
        MOVX    @DPTR,A
//   23         rssi_buf[2]=rssivalue%10+0x30;
        MOV     A,R6
        MOV     B,#0xa
        LCALL   ?SC_DIV_MOD
        MOV     A,B
        ADD     A,#0x30
        PUSH    A
          CFI CFA_SP SP+-1
        MOV     A,#0x2
        LCALL   ?XSTACK_DISP0_8
        POP     A
          CFI CFA_SP SP+0
        MOVX    @DPTR,A
//   24          HalUARTWrite(0, pkt->cmd.Data, pkt->cmd.DataLength); //输出接收到的数据
        ; Setup parameters for call to function HalUARTWrite
        MOV     A,?V0 + 0
        ADD     A,#0x1f
        MOV     DPL,A
        MOV     A,?V0 + 1
        ADDC    A,#0x0
        MOV     DPH,A
        MOVX    A,@DPTR
        MOV     R4,A
        INC     DPTR
        MOVX    A,@DPTR
        MOV     R5,A
        MOV     A,?V0 + 0
        ADD     A,#0x21
        MOV     DPL,A
        MOV     A,?V0 + 1
        ADDC    A,#0x0
        MOV     DPH,A
        MOVX    A,@DPTR
        MOV     R2,A
        INC     DPTR
        MOVX    A,@DPTR
        MOV     R3,A
        MOV     R1,#0x0
        LCALL   ??HalUARTWrite?relay
//   25   
//   26                 
//   27     //  HalUARTWrite(0, "\n", 1); 
//   28       HalUARTWrite(0, "RSSI:", 5);  
        ; Setup parameters for call to function HalUARTWrite
        MOV     R4,#0x5
        MOV     R5,#0x0
        MOV     R2,#`?<Constant "RSSI:">` & 0xff
        MOV     R3,#(`?<Constant "RSSI:">` >> 8) & 0xff
        MOV     R1,#0x0
        LCALL   ??HalUARTWrite?relay
//   29       HalUARTWrite(0,rssi_buf,3);
        ; Setup parameters for call to function HalUARTWrite
        MOV     R4,#0x3
        MOV     R5,#0x0
        MOV     DPL,?XSP + 0
        MOV     DPH,?XSP + 1
        MOV     R2,DPL
        MOV     R3,DPH
        MOV     R1,#0x0
        LCALL   ??HalUARTWrite?relay
//   30 //     HalUARTWrite(0, "\r\n", 2); 
//   31 ////     
//   32 //     uint8 lqivalue;
//   33 //     lqivalue=pkt->LinkQuality;
//   34 //     unsigned char lqi_buf[3];
//   35 //      lqi_buf[0]=lqivalue/100+0x30;
//   36 //        lqi_buf[1]=(lqivalue%100)/10+0x30;
//   37 //        lqi_buf[2]=lqivalue%10+0x30;
//   38 //      HalUARTWrite(0, "LQI:", 4);  
//   39 //      HalUARTWrite(0,lqi_buf,3);
//   40 //     HalUARTWrite(0, "\n", 1);         //回车换行
//   41       
//   42       
//   43                         
//   44                   
//   45 //                   unsigned char rssi_buf[3];
//   46 //                     rssi_buf[0]='-';
//   47 //                    rssi_buf[1]=(int32)sumRssi1/10+0x30;
//   48 //                    rssi_buf[2]=(int32)sumRssi1%10+0x30;
//   49 //                   HalUARTWrite(0,rssi_buf,3);
//   50 }
        MOV     A,#0x3
        LCALL   ?DEALLOC_XSTACK8
          CFI CFA_XSP16 add(XSP16, 10)
        MOV     R7,#0x2
        LJMP    ?BANKED_LEAVE_XDATA
          CFI EndBlock cfiBlock0
//   51 
//   52 
//   53 
//   54 /*********************************************************************
//   55  * @fn      SampleApp_MinMax_localization
//   56  *
//   57  * @brief   calculate the position of a quadrotor
//   58  *
//   59  * @param   rssi_i readings from different anchors, the result will be stored in xposition and yposition
//   60  *
//   61  * @return  none
//   62  */

        RSEG BANKED_CODE:CODE:NOROOT(0)
//   63 void SampleApp_MinMax_localization(float* xposition, float* yposition, float zposition, float nValue[4], float RssiValue[4],
SampleApp_MinMax_localization:
          CFI Block cfiBlock1 Using cfiCommon0
          CFI Function SampleApp_MinMax_localization
        CODE
//   64                                    float AValue[4], float AnchorX[4], float AnchorY[4])
//   65 {
        FUNCALL SampleApp_MinMax_localization, pow
        LOCFRAME ISTACK, 0, STACK
        LOCFRAME PSTACK, 0, STACK
        LOCFRAME XSTACK, 68, STACK
        LOCFRAME IOVERLAY, 0, STATIC
        LOCFRAME DOVERLAY, 0, STATIC
        ARGFRAME ISTACK, 0, STACK
        ARGFRAME PSTACK, 0, STACK
        ARGFRAME XSTACK, 68, STACK
        ARGFRAME IOVERLAY, 0, STATIC
        ARGFRAME DOVERLAY, 0, STATIC
        FUNCALL SampleApp_MinMax_localization, pow
        LOCFRAME ISTACK, 0, STACK
        LOCFRAME PSTACK, 0, STACK
        LOCFRAME XSTACK, 68, STACK
        LOCFRAME IOVERLAY, 0, STATIC
        LOCFRAME DOVERLAY, 0, STATIC
        ARGFRAME ISTACK, 0, STACK
        ARGFRAME PSTACK, 0, STACK
        ARGFRAME XSTACK, 68, STACK
        ARGFRAME IOVERLAY, 0, STATIC
        ARGFRAME DOVERLAY, 0, STATIC
        MOV     A,#-0x18
        LCALL   ?BANKED_ENTER_XDATA
          CFI DPH0 load(1, XDATA, add(CFA_XSP16, literal(-1)))
          CFI DPL0 load(1, XDATA, add(CFA_XSP16, literal(-2)))
          CFI ?BRET_EXT load(1, XDATA, add(CFA_XSP16, literal(-3)))
          CFI ?RET_HIGH load(1, XDATA, add(CFA_XSP16, literal(-4)))
          CFI ?RET_LOW load(1, XDATA, add(CFA_XSP16, literal(-5)))
          CFI R7 load(1, XDATA, add(CFA_XSP16, literal(-6)))
          CFI V15 load(1, XDATA, add(CFA_XSP16, literal(-7)))
          CFI V14 load(1, XDATA, add(CFA_XSP16, literal(-8)))
          CFI V13 load(1, XDATA, add(CFA_XSP16, literal(-9)))
          CFI V12 load(1, XDATA, add(CFA_XSP16, literal(-10)))
          CFI V11 load(1, XDATA, add(CFA_XSP16, literal(-11)))
          CFI V10 load(1, XDATA, add(CFA_XSP16, literal(-12)))
          CFI V9 load(1, XDATA, add(CFA_XSP16, literal(-13)))
          CFI V8 load(1, XDATA, add(CFA_XSP16, literal(-14)))
          CFI V7 load(1, XDATA, add(CFA_XSP16, literal(-15)))
          CFI V6 load(1, XDATA, add(CFA_XSP16, literal(-16)))
          CFI V5 load(1, XDATA, add(CFA_XSP16, literal(-17)))
          CFI V4 load(1, XDATA, add(CFA_XSP16, literal(-18)))
          CFI V3 load(1, XDATA, add(CFA_XSP16, literal(-19)))
          CFI V2 load(1, XDATA, add(CFA_XSP16, literal(-20)))
          CFI V1 load(1, XDATA, add(CFA_XSP16, literal(-21)))
          CFI V0 load(1, XDATA, add(CFA_XSP16, literal(-22)))
          CFI VB load(1, XDATA, add(CFA_XSP16, literal(-23)))
          CFI R6 load(1, XDATA, add(CFA_XSP16, literal(-24)))
          CFI CFA_SP SP+0
          CFI CFA_XSP16 add(XSP16, 24)
        ; Saved register size: 24
        ; Auto size: 40
        MOV     A,#-0x28
        LCALL   ?ALLOC_XSTACK8
          CFI CFA_XSP16 add(XSP16, 64)
        MOV     A,#0x12
        LCALL   ?XSTACK_DISP0_8
        MOV     A,R2
        MOVX    @DPTR,A
        INC     DPTR
        MOV     A,R3
        MOVX    @DPTR,A
        MOV     A,#0x10
        LCALL   ?XSTACK_DISP0_8
        MOV     A,R4
        MOVX    @DPTR,A
        INC     DPTR
        MOV     A,R5
        MOVX    @DPTR,A
        MOV     A,#0x40
        LCALL   ?XSTACK_DISP0_8
        MOV     R0,#?V0 + 0
        LCALL   ?L_MOV_X
//   66     //initial the parameter 
//   67     float x_left=-10;
        MOV     R4,#0x0
        MOV     R5,#0x0
        MOV     R6,#0x20
        MOV     R7,#-0x3f
        MOV     A,#0xc
        LCALL   ?XSTACK_DISP0_8
        MOV     A,R4
        MOVX    @DPTR,A
        INC     DPTR
        MOV     A,R5
        MOVX    @DPTR,A
        INC     DPTR
        MOV     A,R6
        MOVX    @DPTR,A
        INC     DPTR
        MOV     A,R7
        MOVX    @DPTR,A
//   68     float x_right=10;
        MOV     R4,#0x0
        MOV     R5,#0x0
        MOV     R6,#0x20
        MOV     R7,#0x41
        MOV     A,#0x8
        LCALL   ?XSTACK_DISP0_8
        MOV     A,R4
        MOVX    @DPTR,A
        INC     DPTR
        MOV     A,R5
        MOVX    @DPTR,A
        INC     DPTR
        MOV     A,R6
        MOVX    @DPTR,A
        INC     DPTR
        MOV     A,R7
        MOVX    @DPTR,A
//   69     float y_bottom=-10;
        MOV     ?V0 + 4,#0x0
        MOV     ?V0 + 5,#0x0
        MOV     ?V0 + 6,#0x20
        MOV     ?V0 + 7,#-0x3f
//   70     float y_top=10;
        MOV     R4,#0x0
        MOV     R5,#0x0
        MOV     R6,#0x20
        MOV     R7,#0x41
        MOV     A,#0x4
        LCALL   ?XSTACK_DISP0_8
        MOV     A,R4
        MOVX    @DPTR,A
        INC     DPTR
        MOV     A,R5
        MOVX    @DPTR,A
        INC     DPTR
        MOV     A,R6
        MOVX    @DPTR,A
        INC     DPTR
        MOV     A,R7
        MOVX    @DPTR,A
//   71     float gainconst=1.16f;
        MOV     R4,#-0x1f
        MOV     R5,#0x7a
        MOV     R6,#-0x6c
        MOV     R7,#0x3f
        MOV     A,#0x24
        LCALL   ?XSTACK_DISP0_8
        MOV     A,R4
        MOVX    @DPTR,A
        INC     DPTR
        MOV     A,R5
        MOVX    @DPTR,A
        INC     DPTR
        MOV     A,R6
        MOVX    @DPTR,A
        INC     DPTR
        MOV     A,R7
        MOVX    @DPTR,A
//   72     float naverage=0.0f;
        MOV     R4,#0x0
        MOV     R5,#0x0
        MOV     R6,#0x0
        MOV     R7,#0x0
        MOV     DPL,?XSP + 0
        MOV     DPH,?XSP + 1
        MOV     A,R4
        MOVX    @DPTR,A
        INC     DPTR
        MOV     A,R5
        MOVX    @DPTR,A
        INC     DPTR
        MOV     A,R6
        MOVX    @DPTR,A
        INC     DPTR
        MOV     A,R7
        MOVX    @DPTR,A
//   73     float distance[4]={0.0f};
        MOV     DPTR,#`?<Constant {(0.0F)}>`
        PUSH    DPL
          CFI CFA_SP SP+-1
        PUSH    DPH
          CFI CFA_SP SP+-2
        MOV     A,#0x14
        LCALL   ?XSTACK_DISP0_8
        MOV     R4,DPL
        MOV     R5,DPH
        POP     DPH
          CFI CFA_SP SP+-1
        POP     DPL
          CFI CFA_SP SP+0
        MOV     A,#0x10
        LCALL   ?MOVE_LONG8_XDATA_XDATA
//   74     for(int i=0;i<4;i++)
        MOV     R2,#0x0
        MOV     R3,#0x0
??SampleApp_MinMax_localization_0:
        CLR     C
        MOV     A,R2
        SUBB    A,#0x4
        MOV     A,R3
        SUBB    A,#0x0
        MOV     C,0xD0 /* PSW */.2
        XRL     A,PSW
        RLC     A
        JNC     ??SampleApp_MinMax_localization_1
//   75     {
//   76       naverage+=nValue[i];
        MOV     DPL,?XSP + 0
        MOV     DPH,?XSP + 1
        MOV     R0,#?V0 + 12
        LCALL   ?L_MOV_X
        MOV     A,R2
        MOV     R0,A
        MOV     A,R3
        MOV     R1,A
        MOV     A,R0
        MOV     B,#0x4
        MUL     AB
        XCH     A,R0
        MOV     R4,B
        MOV     B,#0x0
        MUL     AB
        ADD     A,R4
        MOV     R4,A
        MOV     B,#0x4
        MOV     A,R1
        MUL     AB
        ADD     A,R4
        MOV     R1,A
        MOV     A,#0x44
        LCALL   ?XSTACK_DISP0_8
        MOVX    A,@DPTR
        ADD     A,R0
        MOV     R4,A
        INC     DPTR
        MOVX    A,@DPTR
        ADDC    A,R1
        MOV     DPL,R4
        MOV     DPH,A
        MOV     R0,#?V0 + 8
        LCALL   ?L_MOV_X
        MOV     R0,#?V0 + 12
        MOV     R1,#?V0 + 8
        LCALL   ?FLT_ADD
        MOV     DPL,?XSP + 0
        MOV     DPH,?XSP + 1
        MOV     R0,#?V0 + 12
        LCALL   ?L_MOV_TO_X
//   77     }
        MOV     A,R2
        ADD     A,#0x1
        MOV     R2,A
        MOV     A,R3
        ADDC    A,#0x0
        MOV     R3,A
        SJMP    ??SampleApp_MinMax_localization_0
//   78     naverage=naverage/4.0f;
??SampleApp_MinMax_localization_1:
        MOV     DPL,?XSP + 0
        MOV     DPH,?XSP + 1
        MOV     R0,#?V0 + 8
        LCALL   ?L_MOV_X
        MOV     DPTR,#__Constant_40800000
        MOV     R0,#?V0 + 12
        LCALL   ?L_MOV_X
        MOV     R0,#?V0 + 8
        MOV     R1,#?V0 + 12
        LCALL   ?FLT_DIV
        MOV     DPL,?XSP + 0
        MOV     DPH,?XSP + 1
        MOV     R0,#?V0 + 8
        LCALL   ?L_MOV_TO_X
//   79     //calculate the distances based on the calibrated parameter n and A
//   80     for (int i=0; i<4; i++)
        MOV     R6,#0x0
        MOV     R7,#0x0
??SampleApp_MinMax_localization_2:
        CLR     C
        MOV     A,R6
        SUBB    A,#0x4
        MOV     A,R7
        SUBB    A,#0x0
        MOV     C,0xD0 /* PSW */.2
        XRL     A,PSW
        RLC     A
        JC      $+5
        LJMP    ??SampleApp_MinMax_localization_3 & 0xFFFF
//   81     {
//   82       distance[i]=pow(10,((RssiValue[i]/gainconst-AValue[i])/(10*naverage)));
        ; Setup parameters for call to function pow
        MOV     A,R6
        MOV     R0,A
        MOV     A,R7
        MOV     R1,A
        MOV     A,R0
        MOV     B,#0x4
        MUL     AB
        XCH     A,R0
        MOV     R2,B
        MOV     B,#0x0
        MUL     AB
        ADD     A,R2
        MOV     R2,A
        MOV     B,#0x4
        MOV     A,R1
        MUL     AB
        ADD     A,R2
        MOV     R1,A
        MOV     A,#0x46
        LCALL   ?XSTACK_DISP0_8
        MOVX    A,@DPTR
        ADD     A,R0
        MOV     R2,A
        INC     DPTR
        MOVX    A,@DPTR
        ADDC    A,R1
        MOV     DPL,R2
        MOV     DPH,A
        MOV     R0,#?V0 + 8
        LCALL   ?L_MOV_X
        MOV     A,#0x24
        LCALL   ?XSTACK_DISP0_8
        MOV     R0,#?V0 + 12
        LCALL   ?L_MOV_X
        MOV     R0,#?V0 + 8
        MOV     R1,#?V0 + 12
        LCALL   ?FLT_DIV
        MOV     A,R6
        MOV     R0,A
        MOV     A,R7
        MOV     R1,A
        MOV     A,R0
        MOV     B,#0x4
        MUL     AB
        XCH     A,R0
        MOV     R2,B
        MOV     B,#0x0
        MUL     AB
        ADD     A,R2
        MOV     R2,A
        MOV     B,#0x4
        MOV     A,R1
        MUL     AB
        ADD     A,R2
        MOV     R1,A
        MOV     A,#0x48
        LCALL   ?XSTACK_DISP0_8
        MOVX    A,@DPTR
        ADD     A,R0
        MOV     R2,A
        INC     DPTR
        MOVX    A,@DPTR
        ADDC    A,R1
        MOV     DPL,R2
        MOV     DPH,A
        MOV     R0,#?V0 + 12
        LCALL   ?L_MOV_X
        MOV     R0,#?V0 + 8
        MOV     R1,#?V0 + 12
        LCALL   ?FLT_SUB
        PUSH    ?V0 + 8
          CFI CFA_SP SP+-1
        PUSH    ?V0 + 9
          CFI CFA_SP SP+-2
        PUSH    ?V0 + 10
          CFI CFA_SP SP+-3
        PUSH    ?V0 + 11
          CFI CFA_SP SP+-4
        MOV     DPL,?XSP + 0
        MOV     DPH,?XSP + 1
        MOV     R0,#?V0 + 12
        LCALL   ?L_MOV_X
        MOV     DPTR,#__Constant_41200000
        MOV     R0,#?V0 + 8
        LCALL   ?L_MOV_X
        MOV     R0,#?V0 + 12
        MOV     R1,#?V0 + 8
        LCALL   ?FLT_MUL
        POP     ?V0 + 11
          CFI CFA_SP SP+-3
        POP     ?V0 + 10
          CFI CFA_SP SP+-2
        POP     ?V0 + 9
          CFI CFA_SP SP+-1
        POP     ?V0 + 8
          CFI CFA_SP SP+0
        MOV     R0,#?V0 + 8
        MOV     R1,#?V0 + 12
        LCALL   ?FLT_DIV
        MOV     R0,#?V0 + 8
        LCALL   ?PUSH_XSTACK_I_FOUR
          CFI CFA_XSP16 add(XSP16, 68)
        MOV     DPTR,#__Constant_41200000
        LCALL   ?XLOAD_R2345
        LCALL   ??pow?relay
        MOV     A,#0x4
        LCALL   ?DEALLOC_XSTACK8
          CFI CFA_XSP16 add(XSP16, 64)
        MOV     A,R6
        MOV     R0,A
        MOV     A,R7
        MOV     R1,A
        MOV     A,R0
        MOV     B,#0x4
        MUL     AB
        XCH     A,R0
        MOV     ?V0 + 8,B
        MOV     B,#0x0
        MUL     AB
        ADD     A,?V0 + 8
        MOV     ?V0 + 8,A
        MOV     B,#0x4
        MOV     A,R1
        MUL     AB
        ADD     A,?V0 + 8
        MOV     R1,A
        MOV     A,#0x14
        LCALL   ?XSTACK_DISP0_8
        MOV     A,DPL
        ADD     A,R0
        MOV     DPL,A
        MOV     A,DPH
        ADDC    A,R1
        MOV     DPH,A
        LCALL   ?XSTORE_R2345
//   83       distance[i]=pow((distance[i]*distance[i]-zposition*zposition),0.5);
        ; Setup parameters for call to function pow
        MOV     DPTR,#__Constant_3f000000
        LCALL   ?PUSH_XSTACK8_X_FOUR
          CFI CFA_XSP16 add(XSP16, 68)
        MOV     A,R6
        MOV     R0,A
        MOV     A,R7
        MOV     R1,A
        MOV     A,R0
        MOV     B,#0x4
        MUL     AB
        XCH     A,R0
        MOV     R2,B
        MOV     B,#0x0
        MUL     AB
        ADD     A,R2
        MOV     R2,A
        MOV     B,#0x4
        MOV     A,R1
        MUL     AB
        ADD     A,R2
        MOV     R1,A
        MOV     A,#0x18
        LCALL   ?XSTACK_DISP0_8
        MOV     A,DPL
        ADD     A,R0
        MOV     DPL,A
        MOV     A,DPH
        ADDC    A,R1
        MOV     DPH,A
        MOV     R0,#?V0 + 8
        LCALL   ?L_MOV_X
        MOV     A,R6
        MOV     R0,A
        MOV     A,R7
        MOV     R1,A
        MOV     A,R0
        MOV     B,#0x4
        MUL     AB
        XCH     A,R0
        MOV     R2,B
        MOV     B,#0x0
        MUL     AB
        ADD     A,R2
        MOV     R2,A
        MOV     B,#0x4
        MOV     A,R1
        MUL     AB
        ADD     A,R2
        MOV     R1,A
        MOV     A,#0x18
        LCALL   ?XSTACK_DISP0_8
        MOV     A,DPL
        ADD     A,R0
        MOV     DPL,A
        MOV     A,DPH
        ADDC    A,R1
        MOV     DPH,A
        MOV     R0,#?V0 + 12
        LCALL   ?L_MOV_X
        MOV     R0,#?V0 + 8
        MOV     R1,#?V0 + 12
        LCALL   ?FLT_MUL
        MOV     ?V0 + 12,?V0 + 0
        MOV     ?V0 + 13,?V0 + 1
        MOV     ?V0 + 14,?V0 + 2
        MOV     ?V0 + 15,?V0 + 3
        MOV     R0,#?V0 + 12
        MOV     R1,#?V0 + 0
        LCALL   ?FLT_MUL
        MOV     R0,#?V0 + 8
        MOV     R1,#?V0 + 12
        LCALL   ?FLT_SUB
        MOV     R2,?V0 + 8
        MOV     R3,?V0 + 9
        MOV     R4,?V0 + 10
        MOV     R5,?V0 + 11
        LCALL   ??pow?relay
        MOV     A,#0x4
        LCALL   ?DEALLOC_XSTACK8
          CFI CFA_XSP16 add(XSP16, 64)
        MOV     A,R6
        MOV     R0,A
        MOV     A,R7
        MOV     R1,A
        MOV     A,R0
        MOV     B,#0x4
        MUL     AB
        XCH     A,R0
        MOV     ?V0 + 8,B
        MOV     B,#0x0
        MUL     AB
        ADD     A,?V0 + 8
        MOV     ?V0 + 8,A
        MOV     B,#0x4
        MOV     A,R1
        MUL     AB
        ADD     A,?V0 + 8
        MOV     R1,A
        MOV     A,#0x14
        LCALL   ?XSTACK_DISP0_8
        MOV     A,DPL
        ADD     A,R0
        MOV     DPL,A
        MOV     A,DPH
        ADDC    A,R1
        MOV     DPH,A
        LCALL   ?XSTORE_R2345
//   84     }
        MOV     A,R6
        ADD     A,#0x1
        MOV     R6,A
        MOV     A,R7
        ADDC    A,#0x0
        MOV     R7,A
        LJMP    ??SampleApp_MinMax_localization_2 & 0xFFFF
//   85     
//   86     
//   87     for(int i=0; i<4; i++)
??SampleApp_MinMax_localization_3:
        MOV     R2,#0x0
        MOV     R3,#0x0
??SampleApp_MinMax_localization_4:
        CLR     C
        MOV     A,R2
        SUBB    A,#0x4
        MOV     A,R3
        SUBB    A,#0x0
        MOV     C,0xD0 /* PSW */.2
        XRL     A,PSW
        RLC     A
        JC      $+5
        LJMP    ??SampleApp_MinMax_localization_5 & 0xFFFF
//   88     {
//   89       
//   90         //max of  
//   91        if((AnchorX[i]-distance[i])>x_left)
        MOV     A,#0xc
        LCALL   ?XSTACK_DISP0_8
        MOV     R0,#?V0 + 8
        LCALL   ?L_MOV_X
        PUSH    ?V0 + 8
          CFI CFA_SP SP+-1
        PUSH    ?V0 + 9
          CFI CFA_SP SP+-2
        PUSH    ?V0 + 10
          CFI CFA_SP SP+-3
        PUSH    ?V0 + 11
          CFI CFA_SP SP+-4
        MOV     A,R2
        MOV     R0,A
        MOV     A,R3
        MOV     R1,A
        MOV     A,R0
        MOV     B,#0x4
        MUL     AB
        XCH     A,R0
        MOV     R4,B
        MOV     B,#0x0
        MUL     AB
        ADD     A,R4
        MOV     R4,A
        MOV     B,#0x4
        MOV     A,R1
        MUL     AB
        ADD     A,R4
        MOV     R1,A
        MOV     A,#0x4a
        LCALL   ?XSTACK_DISP0_8
        MOVX    A,@DPTR
        ADD     A,R0
        MOV     R4,A
        INC     DPTR
        MOVX    A,@DPTR
        ADDC    A,R1
        MOV     DPL,R4
        MOV     DPH,A
        MOV     R0,#?V0 + 12
        LCALL   ?L_MOV_X
        MOV     A,R2
        MOV     R0,A
        MOV     A,R3
        MOV     R1,A
        MOV     A,R0
        MOV     B,#0x4
        MUL     AB
        XCH     A,R0
        MOV     R4,B
        MOV     B,#0x0
        MUL     AB
        ADD     A,R4
        MOV     R4,A
        MOV     B,#0x4
        MOV     A,R1
        MUL     AB
        ADD     A,R4
        MOV     R1,A
        MOV     A,#0x14
        LCALL   ?XSTACK_DISP0_8
        MOV     A,DPL
        ADD     A,R0
        MOV     DPL,A
        MOV     A,DPH
        ADDC    A,R1
        MOV     DPH,A
        MOV     R0,#?V0 + 8
        LCALL   ?L_MOV_X
        MOV     R0,#?V0 + 12
        MOV     R1,#?V0 + 8
        LCALL   ?FLT_SUB
        POP     ?V0 + 11
          CFI CFA_SP SP+-3
        POP     ?V0 + 10
          CFI CFA_SP SP+-2
        POP     ?V0 + 9
          CFI CFA_SP SP+-1
        POP     ?V0 + 8
          CFI CFA_SP SP+0
        MOV     R0,#?V0 + 8
        MOV     R1,#?V0 + 12
        LCALL   ?FLT_LT
        JNC     ??SampleApp_MinMax_localization_6
//   92        {x_left=(AnchorX[i]+distance[i]);}
        MOV     A,R2
        MOV     R0,A
        MOV     A,R3
        MOV     R1,A
        MOV     A,R0
        MOV     B,#0x4
        MUL     AB
        XCH     A,R0
        MOV     R4,B
        MOV     B,#0x0
        MUL     AB
        ADD     A,R4
        MOV     R4,A
        MOV     B,#0x4
        MOV     A,R1
        MUL     AB
        ADD     A,R4
        MOV     R1,A
        MOV     A,#0x4a
        LCALL   ?XSTACK_DISP0_8
        MOVX    A,@DPTR
        ADD     A,R0
        MOV     R4,A
        INC     DPTR
        MOVX    A,@DPTR
        ADDC    A,R1
        MOV     DPL,R4
        MOV     DPH,A
        MOV     R0,#?V0 + 12
        LCALL   ?L_MOV_X
        MOV     A,R2
        MOV     R0,A
        MOV     A,R3
        MOV     R1,A
        MOV     A,R0
        MOV     B,#0x4
        MUL     AB
        XCH     A,R0
        MOV     R4,B
        MOV     B,#0x0
        MUL     AB
        ADD     A,R4
        MOV     R4,A
        MOV     B,#0x4
        MOV     A,R1
        MUL     AB
        ADD     A,R4
        MOV     R1,A
        MOV     A,#0x14
        LCALL   ?XSTACK_DISP0_8
        MOV     A,DPL
        ADD     A,R0
        MOV     DPL,A
        MOV     A,DPH
        ADDC    A,R1
        MOV     DPH,A
        MOV     R0,#?V0 + 8
        LCALL   ?L_MOV_X
        MOV     R0,#?V0 + 12
        MOV     R1,#?V0 + 8
        LCALL   ?FLT_ADD
        MOV     A,#0xc
        LCALL   ?XSTACK_DISP0_8
        MOV     R0,#?V0 + 12
        LCALL   ?L_MOV_TO_X
//   93        
//   94        if((AnchorX[i]+distance[i])<x_right)
??SampleApp_MinMax_localization_6:
        MOV     A,R2
        MOV     R0,A
        MOV     A,R3
        MOV     R1,A
        MOV     A,R0
        MOV     B,#0x4
        MUL     AB
        XCH     A,R0
        MOV     R4,B
        MOV     B,#0x0
        MUL     AB
        ADD     A,R4
        MOV     R4,A
        MOV     B,#0x4
        MOV     A,R1
        MUL     AB
        ADD     A,R4
        MOV     R1,A
        MOV     A,#0x4a
        LCALL   ?XSTACK_DISP0_8
        MOVX    A,@DPTR
        ADD     A,R0
        MOV     R4,A
        INC     DPTR
        MOVX    A,@DPTR
        ADDC    A,R1
        MOV     DPL,R4
        MOV     DPH,A
        MOV     R0,#?V0 + 8
        LCALL   ?L_MOV_X
        MOV     A,R2
        MOV     R0,A
        MOV     A,R3
        MOV     R1,A
        MOV     A,R0
        MOV     B,#0x4
        MUL     AB
        XCH     A,R0
        MOV     R4,B
        MOV     B,#0x0
        MUL     AB
        ADD     A,R4
        MOV     R4,A
        MOV     B,#0x4
        MOV     A,R1
        MUL     AB
        ADD     A,R4
        MOV     R1,A
        MOV     A,#0x14
        LCALL   ?XSTACK_DISP0_8
        MOV     A,DPL
        ADD     A,R0
        MOV     DPL,A
        MOV     A,DPH
        ADDC    A,R1
        MOV     DPH,A
        MOV     R0,#?V0 + 12
        LCALL   ?L_MOV_X
        MOV     R0,#?V0 + 8
        MOV     R1,#?V0 + 12
        LCALL   ?FLT_ADD
        MOV     A,#0x8
        LCALL   ?XSTACK_DISP0_8
        MOV     R0,#?V0 + 12
        LCALL   ?L_MOV_X
        MOV     R0,#?V0 + 8
        MOV     R1,#?V0 + 12
        LCALL   ?FLT_LT
        JNC     ??SampleApp_MinMax_localization_7
//   95        {x_right=(AnchorX[i]+distance[i]);}
        MOV     A,R2
        MOV     R0,A
        MOV     A,R3
        MOV     R1,A
        MOV     A,R0
        MOV     B,#0x4
        MUL     AB
        XCH     A,R0
        MOV     R4,B
        MOV     B,#0x0
        MUL     AB
        ADD     A,R4
        MOV     R4,A
        MOV     B,#0x4
        MOV     A,R1
        MUL     AB
        ADD     A,R4
        MOV     R1,A
        MOV     A,#0x4a
        LCALL   ?XSTACK_DISP0_8
        MOVX    A,@DPTR
        ADD     A,R0
        MOV     R4,A
        INC     DPTR
        MOVX    A,@DPTR
        ADDC    A,R1
        MOV     DPL,R4
        MOV     DPH,A
        MOV     R0,#?V0 + 12
        LCALL   ?L_MOV_X
        MOV     A,R2
        MOV     R0,A
        MOV     A,R3
        MOV     R1,A
        MOV     A,R0
        MOV     B,#0x4
        MUL     AB
        XCH     A,R0
        MOV     R4,B
        MOV     B,#0x0
        MUL     AB
        ADD     A,R4
        MOV     R4,A
        MOV     B,#0x4
        MOV     A,R1
        MUL     AB
        ADD     A,R4
        MOV     R1,A
        MOV     A,#0x14
        LCALL   ?XSTACK_DISP0_8
        MOV     A,DPL
        ADD     A,R0
        MOV     DPL,A
        MOV     A,DPH
        ADDC    A,R1
        MOV     DPH,A
        MOV     R0,#?V0 + 8
        LCALL   ?L_MOV_X
        MOV     R0,#?V0 + 12
        MOV     R1,#?V0 + 8
        LCALL   ?FLT_ADD
        MOV     A,#0x8
        LCALL   ?XSTACK_DISP0_8
        MOV     R0,#?V0 + 12
        LCALL   ?L_MOV_TO_X
//   96        
//   97        if((AnchorY[i]-distance[i])>y_bottom)
??SampleApp_MinMax_localization_7:
        MOV     A,R2
        MOV     R0,A
        MOV     A,R3
        MOV     R1,A
        MOV     A,R0
        MOV     B,#0x4
        MUL     AB
        XCH     A,R0
        MOV     R4,B
        MOV     B,#0x0
        MUL     AB
        ADD     A,R4
        MOV     R4,A
        MOV     B,#0x4
        MOV     A,R1
        MUL     AB
        ADD     A,R4
        MOV     R1,A
        MOV     A,#0x4c
        LCALL   ?XSTACK_DISP0_8
        MOVX    A,@DPTR
        ADD     A,R0
        MOV     R4,A
        INC     DPTR
        MOVX    A,@DPTR
        ADDC    A,R1
        MOV     DPL,R4
        MOV     DPH,A
        MOV     R0,#?V0 + 12
        LCALL   ?L_MOV_X
        MOV     A,R2
        MOV     R0,A
        MOV     A,R3
        MOV     R1,A
        MOV     A,R0
        MOV     B,#0x4
        MUL     AB
        XCH     A,R0
        MOV     R4,B
        MOV     B,#0x0
        MUL     AB
        ADD     A,R4
        MOV     R4,A
        MOV     B,#0x4
        MOV     A,R1
        MUL     AB
        ADD     A,R4
        MOV     R1,A
        MOV     A,#0x14
        LCALL   ?XSTACK_DISP0_8
        MOV     A,DPL
        ADD     A,R0
        MOV     DPL,A
        MOV     A,DPH
        ADDC    A,R1
        MOV     DPH,A
        MOV     R0,#?V0 + 8
        LCALL   ?L_MOV_X
        MOV     R0,#?V0 + 12
        MOV     R1,#?V0 + 8
        LCALL   ?FLT_SUB
        MOV     R0,#?V0 + 4
        MOV     R1,#?V0 + 12
        LCALL   ?FLT_LT
        JNC     ??SampleApp_MinMax_localization_8
//   98        {y_bottom=(AnchorY[i]+distance[i]);}
        MOV     A,R2
        MOV     R0,A
        MOV     A,R3
        MOV     R1,A
        MOV     A,R0
        MOV     B,#0x4
        MUL     AB
        XCH     A,R0
        MOV     R4,B
        MOV     B,#0x0
        MUL     AB
        ADD     A,R4
        MOV     R4,A
        MOV     B,#0x4
        MOV     A,R1
        MUL     AB
        ADD     A,R4
        MOV     R1,A
        MOV     A,#0x4c
        LCALL   ?XSTACK_DISP0_8
        MOVX    A,@DPTR
        ADD     A,R0
        MOV     R4,A
        INC     DPTR
        MOVX    A,@DPTR
        ADDC    A,R1
        MOV     DPL,R4
        MOV     DPH,A
        MOV     R0,#?V0 + 12
        LCALL   ?L_MOV_X
        MOV     A,R2
        MOV     R0,A
        MOV     A,R3
        MOV     R1,A
        MOV     A,R0
        MOV     B,#0x4
        MUL     AB
        XCH     A,R0
        MOV     R4,B
        MOV     B,#0x0
        MUL     AB
        ADD     A,R4
        MOV     R4,A
        MOV     B,#0x4
        MOV     A,R1
        MUL     AB
        ADD     A,R4
        MOV     R1,A
        MOV     A,#0x14
        LCALL   ?XSTACK_DISP0_8
        MOV     A,DPL
        ADD     A,R0
        MOV     DPL,A
        MOV     A,DPH
        ADDC    A,R1
        MOV     DPH,A
        MOV     R0,#?V0 + 8
        LCALL   ?L_MOV_X
        MOV     R0,#?V0 + 12
        MOV     R1,#?V0 + 8
        LCALL   ?FLT_ADD
        MOV     ?V0 + 4,?V0 + 12
        MOV     ?V0 + 5,?V0 + 13
        MOV     ?V0 + 6,?V0 + 14
        MOV     ?V0 + 7,?V0 + 15
//   99        
//  100        if((AnchorY[i]+distance[i])<y_top)
??SampleApp_MinMax_localization_8:
        MOV     A,R2
        MOV     R0,A
        MOV     A,R3
        MOV     R1,A
        MOV     A,R0
        MOV     B,#0x4
        MUL     AB
        XCH     A,R0
        MOV     R4,B
        MOV     B,#0x0
        MUL     AB
        ADD     A,R4
        MOV     R4,A
        MOV     B,#0x4
        MOV     A,R1
        MUL     AB
        ADD     A,R4
        MOV     R1,A
        MOV     A,#0x4c
        LCALL   ?XSTACK_DISP0_8
        MOVX    A,@DPTR
        ADD     A,R0
        MOV     R4,A
        INC     DPTR
        MOVX    A,@DPTR
        ADDC    A,R1
        MOV     DPL,R4
        MOV     DPH,A
        MOV     R0,#?V0 + 8
        LCALL   ?L_MOV_X
        MOV     A,R2
        MOV     R0,A
        MOV     A,R3
        MOV     R1,A
        MOV     A,R0
        MOV     B,#0x4
        MUL     AB
        XCH     A,R0
        MOV     R4,B
        MOV     B,#0x0
        MUL     AB
        ADD     A,R4
        MOV     R4,A
        MOV     B,#0x4
        MOV     A,R1
        MUL     AB
        ADD     A,R4
        MOV     R1,A
        MOV     A,#0x14
        LCALL   ?XSTACK_DISP0_8
        MOV     A,DPL
        ADD     A,R0
        MOV     DPL,A
        MOV     A,DPH
        ADDC    A,R1
        MOV     DPH,A
        MOV     R0,#?V0 + 12
        LCALL   ?L_MOV_X
        MOV     R0,#?V0 + 8
        MOV     R1,#?V0 + 12
        LCALL   ?FLT_ADD
        MOV     A,#0x4
        LCALL   ?XSTACK_DISP0_8
        MOV     R0,#?V0 + 12
        LCALL   ?L_MOV_X
        MOV     R0,#?V0 + 8
        MOV     R1,#?V0 + 12
        LCALL   ?FLT_LT
        JNC     ??SampleApp_MinMax_localization_9
//  101        {y_top=(AnchorY[i]+distance[i]);}
        MOV     A,R2
        MOV     R0,A
        MOV     A,R3
        MOV     R1,A
        MOV     A,R0
        MOV     B,#0x4
        MUL     AB
        XCH     A,R0
        MOV     R4,B
        MOV     B,#0x0
        MUL     AB
        ADD     A,R4
        MOV     R4,A
        MOV     B,#0x4
        MOV     A,R1
        MUL     AB
        ADD     A,R4
        MOV     R1,A
        MOV     A,#0x4c
        LCALL   ?XSTACK_DISP0_8
        MOVX    A,@DPTR
        ADD     A,R0
        MOV     R4,A
        INC     DPTR
        MOVX    A,@DPTR
        ADDC    A,R1
        MOV     DPL,R4
        MOV     DPH,A
        MOV     R0,#?V0 + 12
        LCALL   ?L_MOV_X
        MOV     A,R2
        MOV     R0,A
        MOV     A,R3
        MOV     R1,A
        MOV     A,R0
        MOV     B,#0x4
        MUL     AB
        XCH     A,R0
        MOV     R4,B
        MOV     B,#0x0
        MUL     AB
        ADD     A,R4
        MOV     R4,A
        MOV     B,#0x4
        MOV     A,R1
        MUL     AB
        ADD     A,R4
        MOV     R1,A
        MOV     A,#0x14
        LCALL   ?XSTACK_DISP0_8
        MOV     A,DPL
        ADD     A,R0
        MOV     DPL,A
        MOV     A,DPH
        ADDC    A,R1
        MOV     DPH,A
        MOV     R0,#?V0 + 8
        LCALL   ?L_MOV_X
        MOV     R0,#?V0 + 12
        MOV     R1,#?V0 + 8
        LCALL   ?FLT_ADD
        MOV     A,#0x4
        LCALL   ?XSTACK_DISP0_8
        MOV     R0,#?V0 + 12
        LCALL   ?L_MOV_TO_X
//  102     }
??SampleApp_MinMax_localization_9:
        MOV     A,R2
        ADD     A,#0x1
        MOV     R2,A
        MOV     A,R3
        ADDC    A,#0x0
        MOV     R3,A
        LJMP    ??SampleApp_MinMax_localization_4 & 0xFFFF
//  103     *xposition=(x_left+x_right)/2;
??SampleApp_MinMax_localization_5:
        MOV     A,#0xc
        LCALL   ?XSTACK_DISP0_8
        MOV     R0,#?V0 + 8
        LCALL   ?L_MOV_X
        MOV     A,#0x8
        LCALL   ?XSTACK_DISP0_8
        MOV     R0,#?V0 + 12
        LCALL   ?L_MOV_X
        MOV     R0,#?V0 + 8
        MOV     R1,#?V0 + 12
        LCALL   ?FLT_ADD
        MOV     DPTR,#__Constant_40000000
        MOV     R0,#?V0 + 12
        LCALL   ?L_MOV_X
        MOV     R0,#?V0 + 8
        MOV     R1,#?V0 + 12
        LCALL   ?FLT_DIV
        MOV     A,#0x12
        LCALL   ?XSTACK_DISP0_8
        MOVX    A,@DPTR
        MOV     R0,A
        INC     DPTR
        MOVX    A,@DPTR
        MOV     DPH,A
        MOV     DPL,R0
        MOV     R0,#?V0 + 8
        LCALL   ?L_MOV_TO_X
//  104     *yposition=(y_bottom+y_top)/2;
        MOV     ?V0 + 8,?V0 + 4
        MOV     ?V0 + 9,?V0 + 5
        MOV     ?V0 + 10,?V0 + 6
        MOV     ?V0 + 11,?V0 + 7
        MOV     A,#0x4
        LCALL   ?XSTACK_DISP0_8
        MOV     R0,#?V0 + 12
        LCALL   ?L_MOV_X
        MOV     R0,#?V0 + 8
        MOV     R1,#?V0 + 12
        LCALL   ?FLT_ADD
        MOV     DPTR,#__Constant_40000000
        MOV     R0,#?V0 + 12
        LCALL   ?L_MOV_X
        MOV     R0,#?V0 + 8
        MOV     R1,#?V0 + 12
        LCALL   ?FLT_DIV
        MOV     A,#0x10
        LCALL   ?XSTACK_DISP0_8
        MOVX    A,@DPTR
        MOV     R0,A
        INC     DPTR
        MOVX    A,@DPTR
        MOV     DPH,A
        MOV     DPL,R0
        MOV     R0,#?V0 + 8
        LCALL   ?L_MOV_TO_X
//  105     
//  106 }
        MOV     A,#0x28
        LCALL   ?DEALLOC_XSTACK8
          CFI CFA_XSP16 add(XSP16, 24)
        MOV     R7,#0x10
        LJMP    ?BANKED_LEAVE_XDATA
          CFI EndBlock cfiBlock1
//  107 
//  108 
//  109 /*********************************************************************
//  110  * @fn      SampleApp_WCL_localization
//  111  *
//  112  * @brief   calculate the position of a quadrotor
//  113  *
//  114  * @param   rssi_i readings from different anchors, the result will be stored in xposition and yposition
//  115  *
//  116  * @return  none
//  117  */

        RSEG BANKED_CODE:CODE:NOROOT(0)
//  118 void SampleApp_WCL_localization(float* xposition, float* yposition, float nValue[4], float RssiValue[4],
SampleApp_WCL_localization:
          CFI Block cfiBlock2 Using cfiCommon0
          CFI Function SampleApp_WCL_localization
        CODE
//  119                                    float AValue[4], float AnchorX[4], float AnchorY[4])
//  120 {
        FUNCALL SampleApp_WCL_localization, pow
        LOCFRAME ISTACK, 0, STACK
        LOCFRAME PSTACK, 0, STACK
        LOCFRAME XSTACK, 74, STACK
        LOCFRAME IOVERLAY, 0, STATIC
        LOCFRAME DOVERLAY, 0, STATIC
        ARGFRAME ISTACK, 0, STACK
        ARGFRAME PSTACK, 0, STACK
        ARGFRAME XSTACK, 74, STACK
        ARGFRAME IOVERLAY, 0, STATIC
        ARGFRAME DOVERLAY, 0, STATIC
        FUNCALL SampleApp_WCL_localization, pow
        LOCFRAME ISTACK, 0, STACK
        LOCFRAME PSTACK, 0, STACK
        LOCFRAME XSTACK, 74, STACK
        LOCFRAME IOVERLAY, 0, STATIC
        LOCFRAME DOVERLAY, 0, STATIC
        ARGFRAME ISTACK, 0, STACK
        ARGFRAME PSTACK, 0, STACK
        ARGFRAME XSTACK, 74, STACK
        ARGFRAME IOVERLAY, 0, STATIC
        ARGFRAME DOVERLAY, 0, STATIC
        MOV     A,#-0x18
        LCALL   ?BANKED_ENTER_XDATA
          CFI DPH0 load(1, XDATA, add(CFA_XSP16, literal(-1)))
          CFI DPL0 load(1, XDATA, add(CFA_XSP16, literal(-2)))
          CFI ?BRET_EXT load(1, XDATA, add(CFA_XSP16, literal(-3)))
          CFI ?RET_HIGH load(1, XDATA, add(CFA_XSP16, literal(-4)))
          CFI ?RET_LOW load(1, XDATA, add(CFA_XSP16, literal(-5)))
          CFI R7 load(1, XDATA, add(CFA_XSP16, literal(-6)))
          CFI V15 load(1, XDATA, add(CFA_XSP16, literal(-7)))
          CFI V14 load(1, XDATA, add(CFA_XSP16, literal(-8)))
          CFI V13 load(1, XDATA, add(CFA_XSP16, literal(-9)))
          CFI V12 load(1, XDATA, add(CFA_XSP16, literal(-10)))
          CFI V11 load(1, XDATA, add(CFA_XSP16, literal(-11)))
          CFI V10 load(1, XDATA, add(CFA_XSP16, literal(-12)))
          CFI V9 load(1, XDATA, add(CFA_XSP16, literal(-13)))
          CFI V8 load(1, XDATA, add(CFA_XSP16, literal(-14)))
          CFI V7 load(1, XDATA, add(CFA_XSP16, literal(-15)))
          CFI V6 load(1, XDATA, add(CFA_XSP16, literal(-16)))
          CFI V5 load(1, XDATA, add(CFA_XSP16, literal(-17)))
          CFI V4 load(1, XDATA, add(CFA_XSP16, literal(-18)))
          CFI V3 load(1, XDATA, add(CFA_XSP16, literal(-19)))
          CFI V2 load(1, XDATA, add(CFA_XSP16, literal(-20)))
          CFI V1 load(1, XDATA, add(CFA_XSP16, literal(-21)))
          CFI V0 load(1, XDATA, add(CFA_XSP16, literal(-22)))
          CFI VB load(1, XDATA, add(CFA_XSP16, literal(-23)))
          CFI R6 load(1, XDATA, add(CFA_XSP16, literal(-24)))
          CFI CFA_SP SP+0
          CFI CFA_XSP16 add(XSP16, 24)
        ; Saved register size: 24
        ; Auto size: 46
        MOV     A,#-0x2e
        LCALL   ?ALLOC_XSTACK8
          CFI CFA_XSP16 add(XSP16, 70)
        MOV     A,#0x8
        LCALL   ?XSTACK_DISP0_8
        MOV     A,R2
        MOVX    @DPTR,A
        INC     DPTR
        MOV     A,R3
        MOVX    @DPTR,A
        MOV     A,#0x6
        LCALL   ?XSTACK_DISP0_8
        MOV     A,R4
        MOVX    @DPTR,A
        INC     DPTR
        MOV     A,R5
        MOVX    @DPTR,A
//  121     //initial the parameter 
//  122     int g=4;   // const. parameter for WCL  2.78
        MOV     A,#0x4
        LCALL   ?XSTACK_DISP0_8
        MOV     A,#0x4
        MOVX    @DPTR,A
        INC     DPTR
        MOV     A,#0x0
        MOVX    @DPTR,A
//  123     float w[4]; //weight
//  124     float sumw=0.0f; // sum of weights
        MOV     ?V0 + 0,#0x0
        MOV     ?V0 + 1,#0x0
        MOV     ?V0 + 2,#0x0
        MOV     ?V0 + 3,#0x0
//  125     float naverage=0.0f;
        MOV     R4,#0x0
        MOV     R5,#0x0
        MOV     R6,#0x0
        MOV     R7,#0x0
        MOV     DPL,?XSP + 0
        MOV     DPH,?XSP + 1
        MOV     A,R4
        MOVX    @DPTR,A
        INC     DPTR
        MOV     A,R5
        MOVX    @DPTR,A
        INC     DPTR
        MOV     A,R6
        MOVX    @DPTR,A
        INC     DPTR
        MOV     A,R7
        MOVX    @DPTR,A
//  126     float distance[4]={0.0f, 0.0f, 0.0f, 0.0f};
        MOV     DPTR,#`?<Constant {(0.0F), (0.0F), (0.0F), (0.0F)}>`
        PUSH    DPL
          CFI CFA_SP SP+-1
        PUSH    DPH
          CFI CFA_SP SP+-2
        MOV     A,#0x1e
        LCALL   ?XSTACK_DISP0_8
        MOV     R4,DPL
        MOV     R5,DPH
        POP     DPH
          CFI CFA_SP SP+-1
        POP     DPL
          CFI CFA_SP SP+0
        MOV     A,#0x10
        LCALL   ?MOVE_LONG8_XDATA_XDATA
//  127     float rssigain=1.16f;
        MOV     R4,#-0x1f
        MOV     R5,#0x7a
        MOV     R6,#-0x6c
        MOV     R7,#0x3f
        MOV     A,#0xa
        LCALL   ?XSTACK_DISP0_8
        MOV     A,R4
        MOVX    @DPTR,A
        INC     DPTR
        MOV     A,R5
        MOVX    @DPTR,A
        INC     DPTR
        MOV     A,R6
        MOVX    @DPTR,A
        INC     DPTR
        MOV     A,R7
        MOVX    @DPTR,A
//  128     
//  129       //average n from 4 nodes
//  130     for(int i=0;i<4;i++)
        MOV     R2,#0x0
        MOV     R3,#0x0
??SampleApp_WCL_localization_0:
        CLR     C
        MOV     A,R2
        SUBB    A,#0x4
        MOV     A,R3
        SUBB    A,#0x0
        MOV     C,0xD0 /* PSW */.2
        XRL     A,PSW
        RLC     A
        JNC     ??SampleApp_WCL_localization_1
//  131     {
//  132       naverage+=nValue[i];
        MOV     DPL,?XSP + 0
        MOV     DPH,?XSP + 1
        MOV     R0,#?V0 + 4
        LCALL   ?L_MOV_X
        MOV     A,R2
        MOV     R0,A
        MOV     A,R3
        MOV     R1,A
        MOV     A,R0
        MOV     B,#0x4
        MUL     AB
        XCH     A,R0
        MOV     R4,B
        MOV     B,#0x0
        MUL     AB
        ADD     A,R4
        MOV     R4,A
        MOV     B,#0x4
        MOV     A,R1
        MUL     AB
        ADD     A,R4
        MOV     R1,A
        MOV     A,#0x46
        LCALL   ?XSTACK_DISP0_8
        MOVX    A,@DPTR
        ADD     A,R0
        MOV     R4,A
        INC     DPTR
        MOVX    A,@DPTR
        ADDC    A,R1
        MOV     DPL,R4
        MOV     DPH,A
        MOV     R0,#?V0 + 8
        LCALL   ?L_MOV_X
        MOV     R0,#?V0 + 4
        MOV     R1,#?V0 + 8
        LCALL   ?FLT_ADD
        MOV     DPL,?XSP + 0
        MOV     DPH,?XSP + 1
        MOV     R0,#?V0 + 4
        LCALL   ?L_MOV_TO_X
//  133     }
        MOV     A,R2
        ADD     A,#0x1
        MOV     R2,A
        MOV     A,R3
        ADDC    A,#0x0
        MOV     R3,A
        SJMP    ??SampleApp_WCL_localization_0
//  134     
//  135   
//  136     naverage=naverage/4.0f;
??SampleApp_WCL_localization_1:
        MOV     DPL,?XSP + 0
        MOV     DPH,?XSP + 1
        MOV     R0,#?V0 + 4
        LCALL   ?L_MOV_X
        MOV     DPTR,#__Constant_40800000
        MOV     R0,#?V0 + 8
        LCALL   ?L_MOV_X
        MOV     R0,#?V0 + 4
        MOV     R1,#?V0 + 8
        LCALL   ?FLT_DIV
        MOV     DPL,?XSP + 0
        MOV     DPH,?XSP + 1
        MOV     R0,#?V0 + 4
        LCALL   ?L_MOV_TO_X
//  137     
//  138     //calculate the distances based on the calibrated parameter n and A
//  139     for (int i=0; i<4; i++)
        MOV     R6,#0x0
        MOV     R7,#0x0
??SampleApp_WCL_localization_2:
        CLR     C
        MOV     A,R6
        SUBB    A,#0x4
        MOV     A,R7
        SUBB    A,#0x0
        MOV     C,0xD0 /* PSW */.2
        XRL     A,PSW
        RLC     A
        JC      $+5
        LJMP    ??SampleApp_WCL_localization_3 & 0xFFFF
//  140     {
//  141       distance[i]=pow(10,((RssiValue[i]/rssigain-AValue[i])/(10*naverage)));
        ; Setup parameters for call to function pow
        MOV     A,R6
        MOV     R0,A
        MOV     A,R7
        MOV     R1,A
        MOV     A,R0
        MOV     B,#0x4
        MUL     AB
        XCH     A,R0
        MOV     R2,B
        MOV     B,#0x0
        MUL     AB
        ADD     A,R2
        MOV     R2,A
        MOV     B,#0x4
        MOV     A,R1
        MUL     AB
        ADD     A,R2
        MOV     R1,A
        MOV     A,#0x48
        LCALL   ?XSTACK_DISP0_8
        MOVX    A,@DPTR
        ADD     A,R0
        MOV     R2,A
        INC     DPTR
        MOVX    A,@DPTR
        ADDC    A,R1
        MOV     DPL,R2
        MOV     DPH,A
        MOV     R0,#?V0 + 4
        LCALL   ?L_MOV_X
        MOV     A,#0xa
        LCALL   ?XSTACK_DISP0_8
        MOV     R0,#?V0 + 8
        LCALL   ?L_MOV_X
        MOV     R0,#?V0 + 4
        MOV     R1,#?V0 + 8
        LCALL   ?FLT_DIV
        MOV     A,R6
        MOV     R0,A
        MOV     A,R7
        MOV     R1,A
        MOV     A,R0
        MOV     B,#0x4
        MUL     AB
        XCH     A,R0
        MOV     R2,B
        MOV     B,#0x0
        MUL     AB
        ADD     A,R2
        MOV     R2,A
        MOV     B,#0x4
        MOV     A,R1
        MUL     AB
        ADD     A,R2
        MOV     R1,A
        MOV     A,#0x4a
        LCALL   ?XSTACK_DISP0_8
        MOVX    A,@DPTR
        ADD     A,R0
        MOV     R2,A
        INC     DPTR
        MOVX    A,@DPTR
        ADDC    A,R1
        MOV     DPL,R2
        MOV     DPH,A
        MOV     R0,#?V0 + 8
        LCALL   ?L_MOV_X
        MOV     R0,#?V0 + 4
        MOV     R1,#?V0 + 8
        LCALL   ?FLT_SUB
        MOV     DPL,?XSP + 0
        MOV     DPH,?XSP + 1
        MOV     R0,#?V0 + 12
        LCALL   ?L_MOV_X
        MOV     DPTR,#__Constant_41200000
        MOV     R0,#?V0 + 8
        LCALL   ?L_MOV_X
        MOV     R0,#?V0 + 12
        MOV     R1,#?V0 + 8
        LCALL   ?FLT_MUL
        MOV     R0,#?V0 + 4
        MOV     R1,#?V0 + 12
        LCALL   ?FLT_DIV
        MOV     R0,#?V0 + 4
        LCALL   ?PUSH_XSTACK_I_FOUR
          CFI CFA_XSP16 add(XSP16, 74)
        MOV     DPTR,#__Constant_41200000
        LCALL   ?XLOAD_R2345
        LCALL   ??pow?relay
        MOV     A,#0x4
        LCALL   ?DEALLOC_XSTACK8
          CFI CFA_XSP16 add(XSP16, 70)
        MOV     A,R6
        MOV     R0,A
        MOV     A,R7
        MOV     R1,A
        MOV     A,R0
        MOV     B,#0x4
        MUL     AB
        XCH     A,R0
        MOV     ?V0 + 4,B
        MOV     B,#0x0
        MUL     AB
        ADD     A,?V0 + 4
        MOV     ?V0 + 4,A
        MOV     B,#0x4
        MOV     A,R1
        MUL     AB
        ADD     A,?V0 + 4
        MOV     R1,A
        MOV     A,#0x1e
        LCALL   ?XSTACK_DISP0_8
        MOV     A,DPL
        ADD     A,R0
        MOV     DPL,A
        MOV     A,DPH
        ADDC    A,R1
        MOV     DPH,A
        LCALL   ?XSTORE_R2345
//  142       w[i]=pow(distance[i],-g);
        ; Setup parameters for call to function pow
        MOV     A,#0x4
        LCALL   ?XSTACK_DISP0_8
        MOVX    A,@DPTR
        MOV     R0,A
        INC     DPTR
        MOVX    A,@DPTR
        MOV     R1,A
        CLR     C
        CLR     A
        SUBB    A,R0
        MOV     ?V0 + 4,A
        CLR     A
        SUBB    A,R1
        MOV     ?V0 + 5,A
        MOV     A,?V0 + 5
        RLC     A
        SUBB    A,0xE0 /* A   */
        MOV     ?V0 + 6,A
        MOV     ?V0 + 7,A
        MOV     R0,#?V0 + 4
        LCALL   ?L_TO_FLT
        MOV     R0,#?V0 + 4
        LCALL   ?PUSH_XSTACK_I_FOUR
          CFI CFA_XSP16 add(XSP16, 74)
        MOV     A,R6
        MOV     R0,A
        MOV     A,R7
        MOV     R1,A
        MOV     A,R0
        MOV     B,#0x4
        MUL     AB
        XCH     A,R0
        MOV     R2,B
        MOV     B,#0x0
        MUL     AB
        ADD     A,R2
        MOV     R2,A
        MOV     B,#0x4
        MOV     A,R1
        MUL     AB
        ADD     A,R2
        MOV     R1,A
        MOV     A,#0x22
        LCALL   ?XSTACK_DISP0_8
        MOV     A,DPL
        ADD     A,R0
        MOV     DPL,A
        MOV     A,DPH
        ADDC    A,R1
        MOV     DPH,A
        LCALL   ?XLOAD_R2345
        LCALL   ??pow?relay
        MOV     A,#0x4
        LCALL   ?DEALLOC_XSTACK8
          CFI CFA_XSP16 add(XSP16, 70)
        MOV     A,R6
        MOV     R0,A
        MOV     A,R7
        MOV     R1,A
        MOV     A,R0
        MOV     B,#0x4
        MUL     AB
        XCH     A,R0
        MOV     ?V0 + 4,B
        MOV     B,#0x0
        MUL     AB
        ADD     A,?V0 + 4
        MOV     ?V0 + 4,A
        MOV     B,#0x4
        MOV     A,R1
        MUL     AB
        ADD     A,?V0 + 4
        MOV     R1,A
        MOV     A,#0xe
        LCALL   ?XSTACK_DISP0_8
        MOV     A,DPL
        ADD     A,R0
        MOV     DPL,A
        MOV     A,DPH
        ADDC    A,R1
        MOV     DPH,A
        LCALL   ?XSTORE_R2345
//  143       sumw+=w[i];
        MOV     A,R6
        MOV     R0,A
        MOV     A,R7
        MOV     R1,A
        MOV     A,R0
        MOV     B,#0x4
        MUL     AB
        XCH     A,R0
        MOV     R2,B
        MOV     B,#0x0
        MUL     AB
        ADD     A,R2
        MOV     R2,A
        MOV     B,#0x4
        MOV     A,R1
        MUL     AB
        ADD     A,R2
        MOV     R1,A
        MOV     A,#0xe
        LCALL   ?XSTACK_DISP0_8
        MOV     A,DPL
        ADD     A,R0
        MOV     DPL,A
        MOV     A,DPH
        ADDC    A,R1
        MOV     DPH,A
        MOV     R0,#?V0 + 4
        LCALL   ?L_MOV_X
        MOV     R0,#?V0 + 0
        MOV     R1,#?V0 + 4
        LCALL   ?FLT_ADD
//  144     }
        MOV     A,R6
        ADD     A,#0x1
        MOV     R6,A
        MOV     A,R7
        ADDC    A,#0x0
        MOV     R7,A
        LJMP    ??SampleApp_WCL_localization_2 & 0xFFFF
//  145 
//  146     
//  147      
//  148     *xposition=AnchorX[0]*w[0]/sumw+AnchorX[1]*w[1]/sumw+AnchorX[2]*w[2]/sumw+AnchorX[3]*w[3]/sumw;
??SampleApp_WCL_localization_3:
        MOV     A,#0x4c
        LCALL   ?XSTACK_DISP0_8
        MOVX    A,@DPTR
        MOV     R0,A
        INC     DPTR
        MOVX    A,@DPTR
        MOV     DPH,A
        MOV     DPL,R0
        MOV     R0,#?V0 + 4
        LCALL   ?L_MOV_X
        MOV     A,#0xe
        LCALL   ?XSTACK_DISP0_8
        MOV     R0,#?V0 + 8
        LCALL   ?L_MOV_X
        MOV     R0,#?V0 + 4
        MOV     R1,#?V0 + 8
        LCALL   ?FLT_MUL
        MOV     R0,#?V0 + 4
        MOV     R1,#?V0 + 0
        LCALL   ?FLT_DIV
        MOV     A,#0x4c
        LCALL   ?XSTACK_DISP0_8
        MOVX    A,@DPTR
        MOV     R0,A
        INC     DPTR
        MOVX    A,@DPTR
        MOV     DPH,A
        MOV     DPL,R0
        INC     DPTR
        INC     DPTR
        INC     DPTR
        INC     DPTR
        MOV     R0,#?V0 + 8
        LCALL   ?L_MOV_X
        MOV     A,#0x12
        LCALL   ?XSTACK_DISP0_8
        MOV     R0,#?V0 + 12
        LCALL   ?L_MOV_X
        MOV     R0,#?V0 + 8
        MOV     R1,#?V0 + 12
        LCALL   ?FLT_MUL
        MOV     R0,#?V0 + 8
        MOV     R1,#?V0 + 0
        LCALL   ?FLT_DIV
        MOV     R0,#?V0 + 4
        MOV     R1,#?V0 + 8
        LCALL   ?FLT_ADD
        MOV     A,#0x4c
        LCALL   ?XSTACK_DISP0_8
        MOVX    A,@DPTR
        MOV     R0,A
        INC     DPTR
        MOVX    A,@DPTR
        XCH     A,R0
        ADD     A,#0x8
        MOV     DPL,A
        MOV     A,R0
        ADDC    A,#0x0
        MOV     DPH,A
        MOV     R0,#?V0 + 8
        LCALL   ?L_MOV_X
        MOV     A,#0x16
        LCALL   ?XSTACK_DISP0_8
        MOV     R0,#?V0 + 12
        LCALL   ?L_MOV_X
        MOV     R0,#?V0 + 8
        MOV     R1,#?V0 + 12
        LCALL   ?FLT_MUL
        MOV     R0,#?V0 + 8
        MOV     R1,#?V0 + 0
        LCALL   ?FLT_DIV
        MOV     R0,#?V0 + 4
        MOV     R1,#?V0 + 8
        LCALL   ?FLT_ADD
        MOV     A,#0x4c
        LCALL   ?XSTACK_DISP0_8
        MOVX    A,@DPTR
        MOV     R0,A
        INC     DPTR
        MOVX    A,@DPTR
        XCH     A,R0
        ADD     A,#0xc
        MOV     DPL,A
        MOV     A,R0
        ADDC    A,#0x0
        MOV     DPH,A
        MOV     R0,#?V0 + 8
        LCALL   ?L_MOV_X
        MOV     A,#0x1a
        LCALL   ?XSTACK_DISP0_8
        MOV     R0,#?V0 + 12
        LCALL   ?L_MOV_X
        MOV     R0,#?V0 + 8
        MOV     R1,#?V0 + 12
        LCALL   ?FLT_MUL
        MOV     R0,#?V0 + 8
        MOV     R1,#?V0 + 0
        LCALL   ?FLT_DIV
        MOV     R0,#?V0 + 4
        MOV     R1,#?V0 + 8
        LCALL   ?FLT_ADD
        MOV     A,#0x8
        LCALL   ?XSTACK_DISP0_8
        MOVX    A,@DPTR
        MOV     R0,A
        INC     DPTR
        MOVX    A,@DPTR
        MOV     DPH,A
        MOV     DPL,R0
        MOV     R0,#?V0 + 4
        LCALL   ?L_MOV_TO_X
//  149     *yposition=AnchorY[0]*w[0]/sumw+AnchorY[1]*w[1]/sumw+AnchorY[2]*w[2]/sumw+AnchorY[3]*w[3]/sumw;
        MOV     A,#0x4e
        LCALL   ?XSTACK_DISP0_8
        MOVX    A,@DPTR
        MOV     R0,A
        INC     DPTR
        MOVX    A,@DPTR
        MOV     DPH,A
        MOV     DPL,R0
        MOV     R0,#?V0 + 4
        LCALL   ?L_MOV_X
        MOV     A,#0xe
        LCALL   ?XSTACK_DISP0_8
        MOV     R0,#?V0 + 8
        LCALL   ?L_MOV_X
        MOV     R0,#?V0 + 4
        MOV     R1,#?V0 + 8
        LCALL   ?FLT_MUL
        MOV     R0,#?V0 + 4
        MOV     R1,#?V0 + 0
        LCALL   ?FLT_DIV
        MOV     A,#0x4e
        LCALL   ?XSTACK_DISP0_8
        MOVX    A,@DPTR
        MOV     R0,A
        INC     DPTR
        MOVX    A,@DPTR
        MOV     DPH,A
        MOV     DPL,R0
        INC     DPTR
        INC     DPTR
        INC     DPTR
        INC     DPTR
        MOV     R0,#?V0 + 8
        LCALL   ?L_MOV_X
        MOV     A,#0x12
        LCALL   ?XSTACK_DISP0_8
        MOV     R0,#?V0 + 12
        LCALL   ?L_MOV_X
        MOV     R0,#?V0 + 8
        MOV     R1,#?V0 + 12
        LCALL   ?FLT_MUL
        MOV     R0,#?V0 + 8
        MOV     R1,#?V0 + 0
        LCALL   ?FLT_DIV
        MOV     R0,#?V0 + 4
        MOV     R1,#?V0 + 8
        LCALL   ?FLT_ADD
        MOV     A,#0x4e
        LCALL   ?XSTACK_DISP0_8
        MOVX    A,@DPTR
        MOV     R0,A
        INC     DPTR
        MOVX    A,@DPTR
        XCH     A,R0
        ADD     A,#0x8
        MOV     DPL,A
        MOV     A,R0
        ADDC    A,#0x0
        MOV     DPH,A
        MOV     R0,#?V0 + 8
        LCALL   ?L_MOV_X
        MOV     A,#0x16
        LCALL   ?XSTACK_DISP0_8
        MOV     R0,#?V0 + 12
        LCALL   ?L_MOV_X
        MOV     R0,#?V0 + 8
        MOV     R1,#?V0 + 12
        LCALL   ?FLT_MUL
        MOV     R0,#?V0 + 8
        MOV     R1,#?V0 + 0
        LCALL   ?FLT_DIV
        MOV     R0,#?V0 + 4
        MOV     R1,#?V0 + 8
        LCALL   ?FLT_ADD
        MOV     A,#0x4e
        LCALL   ?XSTACK_DISP0_8
        MOVX    A,@DPTR
        MOV     R0,A
        INC     DPTR
        MOVX    A,@DPTR
        XCH     A,R0
        ADD     A,#0xc
        MOV     DPL,A
        MOV     A,R0
        ADDC    A,#0x0
        MOV     DPH,A
        MOV     R0,#?V0 + 8
        LCALL   ?L_MOV_X
        MOV     A,#0x1a
        LCALL   ?XSTACK_DISP0_8
        MOV     R0,#?V0 + 12
        LCALL   ?L_MOV_X
        MOV     R0,#?V0 + 8
        MOV     R1,#?V0 + 12
        LCALL   ?FLT_MUL
        MOV     R0,#?V0 + 8
        MOV     R1,#?V0 + 0
        LCALL   ?FLT_DIV
        MOV     R0,#?V0 + 4
        MOV     R1,#?V0 + 8
        LCALL   ?FLT_ADD
        MOV     A,#0x6
        LCALL   ?XSTACK_DISP0_8
        MOVX    A,@DPTR
        MOV     R0,A
        INC     DPTR
        MOVX    A,@DPTR
        MOV     DPH,A
        MOV     DPL,R0
        MOV     R0,#?V0 + 4
        LCALL   ?L_MOV_TO_X
//  150     
//  151 }
        MOV     A,#0x2e
        LCALL   ?DEALLOC_XSTACK8
          CFI CFA_XSP16 add(XSP16, 24)
        MOV     R7,#0x10
        LJMP    ?BANKED_LEAVE_XDATA
          CFI EndBlock cfiBlock2
//  152 
//  153 /*********************************************************************
//  154  * @fn      moving_average
//  155  *
//  156  * @brief   filter for moving average
//  157  *
//  158  * @param   
//  159  *
//  160  * @return  none
//  161  */

        RSEG BANKED_CODE:CODE:NOROOT(0)
//  162 void moving_average(int8 in, int8 moavarray[], int length, int fil_cnt[2], float *out)
moving_average:
          CFI Block cfiBlock3 Using cfiCommon0
          CFI Function moving_average
        CODE
//  163 {
        MOV     A,#-0x14
        LCALL   ?BANKED_ENTER_XDATA
          CFI DPH0 load(1, XDATA, add(CFA_XSP16, literal(-1)))
          CFI DPL0 load(1, XDATA, add(CFA_XSP16, literal(-2)))
          CFI ?BRET_EXT load(1, XDATA, add(CFA_XSP16, literal(-3)))
          CFI ?RET_HIGH load(1, XDATA, add(CFA_XSP16, literal(-4)))
          CFI ?RET_LOW load(1, XDATA, add(CFA_XSP16, literal(-5)))
          CFI R7 load(1, XDATA, add(CFA_XSP16, literal(-6)))
          CFI V11 load(1, XDATA, add(CFA_XSP16, literal(-7)))
          CFI V10 load(1, XDATA, add(CFA_XSP16, literal(-8)))
          CFI V9 load(1, XDATA, add(CFA_XSP16, literal(-9)))
          CFI V8 load(1, XDATA, add(CFA_XSP16, literal(-10)))
          CFI V7 load(1, XDATA, add(CFA_XSP16, literal(-11)))
          CFI V6 load(1, XDATA, add(CFA_XSP16, literal(-12)))
          CFI V5 load(1, XDATA, add(CFA_XSP16, literal(-13)))
          CFI V4 load(1, XDATA, add(CFA_XSP16, literal(-14)))
          CFI V3 load(1, XDATA, add(CFA_XSP16, literal(-15)))
          CFI V2 load(1, XDATA, add(CFA_XSP16, literal(-16)))
          CFI V1 load(1, XDATA, add(CFA_XSP16, literal(-17)))
          CFI V0 load(1, XDATA, add(CFA_XSP16, literal(-18)))
          CFI VB load(1, XDATA, add(CFA_XSP16, literal(-19)))
          CFI R6 load(1, XDATA, add(CFA_XSP16, literal(-20)))
          CFI CFA_SP SP+0
          CFI CFA_XSP16 add(XSP16, 20)
        ; Saved register size: 20
        ; Auto size: 0
        MOV     A,R1
        MOV     R6,A
        MOV     ?V0 + 10,R2
        MOV     ?V0 + 11,R3
        MOV     A,#0x14
        LCALL   ?XSTACK_DISP0_8
        MOVX    A,@DPTR
        MOV     R2,A
        INC     DPTR
        MOVX    A,@DPTR
        MOV     R3,A
        MOV     A,#0x16
        LCALL   ?XSTACK_DISP0_8
        MOVX    A,@DPTR
        MOV     ?V0 + 8,A
        INC     DPTR
        MOVX    A,@DPTR
        MOV     ?V0 + 9,A
//  164   if(++fil_cnt[0]>length)
        MOV     DPL,R2
        MOV     DPH,R3
        MOVX    A,@DPTR
        ADD     A,#0x1
        MOV     R0,A
        INC     DPTR
        MOVX    A,@DPTR
        ADDC    A,#0x0
        MOV     R1,A
        MOV     DPL,R2
        MOV     DPH,R3
        MOV     A,R0
        MOVX    @DPTR,A
        INC     DPTR
        MOV     A,R1
        MOVX    @DPTR,A
        CLR     C
        MOV     A,R4
        SUBB    A,R0
        MOV     A,R5
        SUBB    A,R1
        MOV     C,0xD0 /* PSW */.2
        XRL     A,PSW
        RLC     A
        JNC     ??moving_average_0
//  165   {
//  166     fil_cnt[0]=0;
        MOV     DPL,R2
        MOV     DPH,R3
        MOV     A,#0x0
        MOVX    @DPTR,A
        INC     DPTR
        MOV     A,#0x0
        MOVX    @DPTR,A
//  167     fil_cnt[1]=1;
        MOV     DPL,R2
        MOV     DPH,R3
        INC     DPTR
        INC     DPTR
        MOV     A,#0x1
        MOVX    @DPTR,A
        INC     DPTR
        MOV     A,#0x0
        MOVX    @DPTR,A
        SJMP    ??moving_average_1
//  168   }
//  169   else  
//  170   {
//  171     fil_cnt[1]=(fil_cnt[0]==length)?0:(fil_cnt[0]+1);
??moving_average_0:
        MOV     DPL,R2
        MOV     DPH,R3
        MOVX    A,@DPTR
        XRL     A,R4
        JNZ     ??moving_average_2
        INC     DPTR
        MOVX    A,@DPTR
        XRL     A,R5
??moving_average_2:
        JNZ     ??moving_average_3
        MOV     R0,#0x0
        MOV     R1,#0x0
        SJMP    ??moving_average_4
??moving_average_3:
        MOV     DPL,R2
        MOV     DPH,R3
        MOVX    A,@DPTR
        ADD     A,#0x1
        MOV     R0,A
        INC     DPTR
        MOVX    A,@DPTR
        ADDC    A,#0x0
        MOV     R1,A
??moving_average_4:
        MOV     DPL,R2
        MOV     DPH,R3
        INC     DPTR
        INC     DPTR
        MOV     A,R0
        MOVX    @DPTR,A
        INC     DPTR
        MOV     A,R1
        MOVX    @DPTR,A
//  172   }
//  173   moavarray[fil_cnt[0]]=in;
??moving_average_1:
        MOV     A,R6
        PUSH    A
          CFI CFA_SP SP+-1
        MOV     DPL,R2
        MOV     DPH,R3
        MOVX    A,@DPTR
        MOV     R0,A
        INC     DPTR
        MOVX    A,@DPTR
        MOV     R1,A
        MOV     A,?V0 + 10
        ADD     A,R0
        MOV     DPL,A
        MOV     A,?V0 + 11
        ADDC    A,R1
        MOV     DPH,A
        POP     A
          CFI CFA_SP SP+0
        MOVX    @DPTR,A
//  174   *out+=(in-(moavarray[fil_cnt[1]]))/(float)(length);
        MOV     A,R6
        MOV     ?V0 + 0,A
        RLC     A
        SUBB    A,0xE0 /* A   */
        MOV     ?V0 + 1,A
        MOV     DPL,R2
        MOV     DPH,R3
        INC     DPTR
        INC     DPTR
        MOVX    A,@DPTR
        MOV     R0,A
        INC     DPTR
        MOVX    A,@DPTR
        MOV     R1,A
        MOV     A,?V0 + 10
        ADD     A,R0
        MOV     DPL,A
        MOV     A,?V0 + 11
        ADDC    A,R1
        MOV     DPH,A
        MOVX    A,@DPTR
        MOV     R0,A
        RLC     A
        SUBB    A,0xE0 /* A   */
        MOV     R1,A
        MOV     A,?V0 + 0
        CLR     C
        SUBB    A,R0
        MOV     ?V0 + 0,A
        MOV     A,?V0 + 1
        SUBB    A,R1
        MOV     ?V0 + 1,A
        MOV     A,?V0 + 1
        RLC     A
        SUBB    A,0xE0 /* A   */
        MOV     ?V0 + 2,A
        MOV     ?V0 + 3,A
        MOV     R0,#?V0 + 0
        LCALL   ?L_TO_FLT
        MOV     ?V0 + 4,R4
        MOV     A,R5
        MOV     ?V0 + 5,A
        RLC     A
        SUBB    A,0xE0 /* A   */
        MOV     ?V0 + 6,A
        MOV     ?V0 + 7,A
        MOV     R0,#?V0 + 4
        LCALL   ?L_TO_FLT
        MOV     R0,#?V0 + 0
        MOV     R1,#?V0 + 4
        LCALL   ?FLT_DIV
        MOV     DPL,?V0 + 8
        MOV     DPH,?V0 + 9
        MOV     R0,#?V0 + 4
        LCALL   ?L_MOV_X
        MOV     R0,#?V0 + 0
        MOV     R1,#?V0 + 4
        LCALL   ?FLT_ADD
        MOV     DPL,?V0 + 8
        MOV     DPH,?V0 + 9
        MOV     R0,#?V0 + 0
        LCALL   ?L_MOV_TO_X
//  175   
//  176   
//  177 }
        MOV     R7,#0xc
        LJMP    ?BANKED_LEAVE_XDATA
          CFI EndBlock cfiBlock3
//  178 
//  179 
//  180 /*********************************************************************
//  181  * @fn      moving_average
//  182  *
//  183  * @brief   filter for moving average
//  184  *
//  185  * @param   
//  186  *
//  187  * @return  none
//  188  */

        RSEG BANKED_CODE:CODE:NOROOT(0)
//  189 void moving_average_f(float in, float moavarray[], int length, int fil_cnt[2], float *out)
moving_average_f:
          CFI Block cfiBlock4 Using cfiCommon0
          CFI Function moving_average_f
        CODE
//  190 {
        MOV     A,#-0x16
        LCALL   ?BANKED_ENTER_XDATA
          CFI DPH0 load(1, XDATA, add(CFA_XSP16, literal(-1)))
          CFI DPL0 load(1, XDATA, add(CFA_XSP16, literal(-2)))
          CFI ?BRET_EXT load(1, XDATA, add(CFA_XSP16, literal(-3)))
          CFI ?RET_HIGH load(1, XDATA, add(CFA_XSP16, literal(-4)))
          CFI ?RET_LOW load(1, XDATA, add(CFA_XSP16, literal(-5)))
          CFI R7 load(1, XDATA, add(CFA_XSP16, literal(-6)))
          CFI V13 load(1, XDATA, add(CFA_XSP16, literal(-7)))
          CFI V12 load(1, XDATA, add(CFA_XSP16, literal(-8)))
          CFI V11 load(1, XDATA, add(CFA_XSP16, literal(-9)))
          CFI V10 load(1, XDATA, add(CFA_XSP16, literal(-10)))
          CFI V9 load(1, XDATA, add(CFA_XSP16, literal(-11)))
          CFI V8 load(1, XDATA, add(CFA_XSP16, literal(-12)))
          CFI V7 load(1, XDATA, add(CFA_XSP16, literal(-13)))
          CFI V6 load(1, XDATA, add(CFA_XSP16, literal(-14)))
          CFI V5 load(1, XDATA, add(CFA_XSP16, literal(-15)))
          CFI V4 load(1, XDATA, add(CFA_XSP16, literal(-16)))
          CFI V3 load(1, XDATA, add(CFA_XSP16, literal(-17)))
          CFI V2 load(1, XDATA, add(CFA_XSP16, literal(-18)))
          CFI V1 load(1, XDATA, add(CFA_XSP16, literal(-19)))
          CFI V0 load(1, XDATA, add(CFA_XSP16, literal(-20)))
          CFI VB load(1, XDATA, add(CFA_XSP16, literal(-21)))
          CFI R6 load(1, XDATA, add(CFA_XSP16, literal(-22)))
          CFI CFA_SP SP+0
          CFI CFA_XSP16 add(XSP16, 22)
        ; Saved register size: 22
        ; Auto size: 0
        MOV     ?V0 + 4,R2
        MOV     ?V0 + 5,R3
        MOV     ?V0 + 6,R4
        MOV     ?V0 + 7,R5
        MOV     A,#0x16
        LCALL   ?XSTACK_DISP0_8
        MOVX    A,@DPTR
        MOV     ?V0 + 12,A
        INC     DPTR
        MOVX    A,@DPTR
        MOV     ?V0 + 13,A
        MOV     A,#0x18
        LCALL   ?XSTACK_DISP0_8
        MOVX    A,@DPTR
        MOV     R2,A
        INC     DPTR
        MOVX    A,@DPTR
        MOV     R3,A
        MOV     A,#0x1a
        LCALL   ?XSTACK_DISP0_8
        MOVX    A,@DPTR
        MOV     R4,A
        INC     DPTR
        MOVX    A,@DPTR
        MOV     R5,A
        MOV     A,#0x1c
        LCALL   ?XSTACK_DISP0_8
        MOVX    A,@DPTR
        MOV     R6,A
        INC     DPTR
        MOVX    A,@DPTR
        MOV     R7,A
//  191   if(++fil_cnt[0]>length)
        MOV     DPL,R4
        MOV     DPH,R5
        MOVX    A,@DPTR
        ADD     A,#0x1
        MOV     R0,A
        INC     DPTR
        MOVX    A,@DPTR
        ADDC    A,#0x0
        MOV     R1,A
        MOV     DPL,R4
        MOV     DPH,R5
        MOV     A,R0
        MOVX    @DPTR,A
        INC     DPTR
        MOV     A,R1
        MOVX    @DPTR,A
        CLR     C
        MOV     A,R2
        SUBB    A,R0
        MOV     A,R3
        SUBB    A,R1
        MOV     C,0xD0 /* PSW */.2
        XRL     A,PSW
        RLC     A
        JNC     ??moving_average_f_0
//  192   {
//  193     fil_cnt[0]=0;
        MOV     DPL,R4
        MOV     DPH,R5
        MOV     A,#0x0
        MOVX    @DPTR,A
        INC     DPTR
        MOV     A,#0x0
        MOVX    @DPTR,A
//  194     fil_cnt[1]=1;
        MOV     DPL,R4
        MOV     DPH,R5
        INC     DPTR
        INC     DPTR
        MOV     A,#0x1
        MOVX    @DPTR,A
        INC     DPTR
        MOV     A,#0x0
        MOVX    @DPTR,A
        SJMP    ??moving_average_f_1
//  195   }
//  196   else  
//  197   {
//  198     fil_cnt[1]=(fil_cnt[0]==length)?0:(fil_cnt[0]+1);
??moving_average_f_0:
        MOV     DPL,R4
        MOV     DPH,R5
        MOVX    A,@DPTR
        XRL     A,R2
        JNZ     ??moving_average_f_2
        INC     DPTR
        MOVX    A,@DPTR
        XRL     A,R3
??moving_average_f_2:
        JNZ     ??moving_average_f_3
        MOV     R0,#0x0
        MOV     R1,#0x0
        SJMP    ??moving_average_f_4
??moving_average_f_3:
        MOV     DPL,R4
        MOV     DPH,R5
        MOVX    A,@DPTR
        ADD     A,#0x1
        MOV     R0,A
        INC     DPTR
        MOVX    A,@DPTR
        ADDC    A,#0x0
        MOV     R1,A
??moving_average_f_4:
        MOV     DPL,R4
        MOV     DPH,R5
        INC     DPTR
        INC     DPTR
        MOV     A,R0
        MOVX    @DPTR,A
        INC     DPTR
        MOV     A,R1
        MOVX    @DPTR,A
//  199   }
//  200   moavarray[fil_cnt[0]]=in;
??moving_average_f_1:
        MOV     DPL,R4
        MOV     DPH,R5
        MOVX    A,@DPTR
        MOV     R0,A
        INC     DPTR
        MOVX    A,@DPTR
        MOV     R1,A
        MOV     A,R0
        MOV     B,#0x4
        MUL     AB
        XCH     A,R0
        MOV     ?V0 + 0,B
        MOV     B,#0x0
        MUL     AB
        ADD     A,?V0 + 0
        MOV     ?V0 + 0,A
        MOV     B,#0x4
        MOV     A,R1
        MUL     AB
        ADD     A,?V0 + 0
        MOV     R1,A
        MOV     A,?V0 + 12
        ADD     A,R0
        MOV     DPL,A
        MOV     A,?V0 + 13
        ADDC    A,R1
        MOV     DPH,A
        MOV     R0,#?V0 + 4
        LCALL   ?L_MOV_TO_X
//  201   *out+=(in-(moavarray[fil_cnt[1]]))/(float)(length);
        MOV     ?V0 + 0,?V0 + 4
        MOV     ?V0 + 1,?V0 + 5
        MOV     ?V0 + 2,?V0 + 6
        MOV     ?V0 + 3,?V0 + 7
        MOV     DPL,R4
        MOV     DPH,R5
        INC     DPTR
        INC     DPTR
        MOVX    A,@DPTR
        MOV     R0,A
        INC     DPTR
        MOVX    A,@DPTR
        MOV     R1,A
        MOV     A,R0
        MOV     B,#0x4
        MUL     AB
        XCH     A,R0
        MOV     ?V0 + 8,B
        MOV     B,#0x0
        MUL     AB
        ADD     A,?V0 + 8
        MOV     ?V0 + 8,A
        MOV     B,#0x4
        MOV     A,R1
        MUL     AB
        ADD     A,?V0 + 8
        MOV     R1,A
        MOV     A,?V0 + 12
        ADD     A,R0
        MOV     DPL,A
        MOV     A,?V0 + 13
        ADDC    A,R1
        MOV     DPH,A
        MOV     R0,#?V0 + 8
        LCALL   ?L_MOV_X
        MOV     R0,#?V0 + 0
        MOV     R1,#?V0 + 8
        LCALL   ?FLT_SUB
        MOV     ?V0 + 8,R2
        MOV     A,R3
        MOV     ?V0 + 9,A
        RLC     A
        SUBB    A,0xE0 /* A   */
        MOV     ?V0 + 10,A
        MOV     ?V0 + 11,A
        MOV     R0,#?V0 + 8
        LCALL   ?L_TO_FLT
        MOV     R0,#?V0 + 0
        MOV     R1,#?V0 + 8
        LCALL   ?FLT_DIV
        MOV     DPL,R6
        MOV     DPH,R7
        MOV     R0,#?V0 + 8
        LCALL   ?L_MOV_X
        MOV     R0,#?V0 + 0
        MOV     R1,#?V0 + 8
        LCALL   ?FLT_ADD
        MOV     DPL,R6
        MOV     DPH,R7
        MOV     R0,#?V0 + 0
        LCALL   ?L_MOV_TO_X
//  202   
//  203   
//  204 }
        MOV     R7,#0xe
        LJMP    ?BANKED_LEAVE_XDATA
          CFI EndBlock cfiBlock4
//  205 
//  206 
//  207 
//  208 /*********************************************************************
//  209  * @fn      gaussianfilter
//  210  *
//  211  * @brief   filter for received rssi data
//  212  *
//  213  * @param   rssi rssi array, the result will be stored in xposition and yposition
//  214  *
//  215  * @return  none
//  216  */

        RSEG BANKED_CODE:CODE:NOROOT(0)
//  217 float gaussianfilter(int8* rssi, int length)
gaussianfilter:
          CFI Block cfiBlock5 Using cfiCommon0
          CFI Function gaussianfilter
        CODE
//  218 {
        MOV     A,#-0x18
        LCALL   ?BANKED_ENTER_XDATA
          CFI DPH0 load(1, XDATA, add(CFA_XSP16, literal(-1)))
          CFI DPL0 load(1, XDATA, add(CFA_XSP16, literal(-2)))
          CFI ?BRET_EXT load(1, XDATA, add(CFA_XSP16, literal(-3)))
          CFI ?RET_HIGH load(1, XDATA, add(CFA_XSP16, literal(-4)))
          CFI ?RET_LOW load(1, XDATA, add(CFA_XSP16, literal(-5)))
          CFI R7 load(1, XDATA, add(CFA_XSP16, literal(-6)))
          CFI V15 load(1, XDATA, add(CFA_XSP16, literal(-7)))
          CFI V14 load(1, XDATA, add(CFA_XSP16, literal(-8)))
          CFI V13 load(1, XDATA, add(CFA_XSP16, literal(-9)))
          CFI V12 load(1, XDATA, add(CFA_XSP16, literal(-10)))
          CFI V11 load(1, XDATA, add(CFA_XSP16, literal(-11)))
          CFI V10 load(1, XDATA, add(CFA_XSP16, literal(-12)))
          CFI V9 load(1, XDATA, add(CFA_XSP16, literal(-13)))
          CFI V8 load(1, XDATA, add(CFA_XSP16, literal(-14)))
          CFI V7 load(1, XDATA, add(CFA_XSP16, literal(-15)))
          CFI V6 load(1, XDATA, add(CFA_XSP16, literal(-16)))
          CFI V5 load(1, XDATA, add(CFA_XSP16, literal(-17)))
          CFI V4 load(1, XDATA, add(CFA_XSP16, literal(-18)))
          CFI V3 load(1, XDATA, add(CFA_XSP16, literal(-19)))
          CFI V2 load(1, XDATA, add(CFA_XSP16, literal(-20)))
          CFI V1 load(1, XDATA, add(CFA_XSP16, literal(-21)))
          CFI V0 load(1, XDATA, add(CFA_XSP16, literal(-22)))
          CFI VB load(1, XDATA, add(CFA_XSP16, literal(-23)))
          CFI R6 load(1, XDATA, add(CFA_XSP16, literal(-24)))
          CFI CFA_SP SP+0
          CFI CFA_XSP16 add(XSP16, 24)
        ; Saved register size: 24
        ; Auto size: 18
        MOV     A,#-0x12
        LCALL   ?ALLOC_XSTACK8
          CFI CFA_XSP16 add(XSP16, 42)
        MOV     A,#0x4
        LCALL   ?XSTACK_DISP0_8
        MOV     A,R2
        MOVX    @DPTR,A
        INC     DPTR
        MOV     A,R3
        MOVX    @DPTR,A
        MOV     DPL,?XSP + 0
        MOV     DPH,?XSP + 1
        MOV     A,R4
        MOVX    @DPTR,A
        INC     DPTR
        MOV     A,R5
        MOVX    @DPTR,A
//  219   float mu=0.0;
        MOV     ?V0 + 0,#0x0
        MOV     ?V0 + 1,#0x0
        MOV     ?V0 + 2,#0x0
        MOV     ?V0 + 3,#0x0
//  220   float variance=0.0;
        MOV     ?V0 + 4,#0x0
        MOV     ?V0 + 5,#0x0
        MOV     ?V0 + 6,#0x0
        MOV     ?V0 + 7,#0x0
//  221   float newmean=0.0;
        MOV     R4,#0x0
        MOV     R5,#0x0
        MOV     R6,#0x0
        MOV     R7,#0x0
        MOV     A,#0x6
        LCALL   ?XSTACK_DISP0_8
        MOV     A,R4
        MOVX    @DPTR,A
        INC     DPTR
        MOV     A,R5
        MOVX    @DPTR,A
        INC     DPTR
        MOV     A,R6
        MOVX    @DPTR,A
        INC     DPTR
        MOV     A,R7
        MOVX    @DPTR,A
//  222   
//  223   for (int i=0; i<length; i++)
        MOV     R2,#0x0
        MOV     R3,#0x0
??gaussianfilter_0:
        MOV     DPL,?XSP + 0
        MOV     DPH,?XSP + 1
        MOVX    A,@DPTR
        MOV     R0,A
        INC     DPTR
        MOVX    A,@DPTR
        MOV     R1,A
        CLR     C
        MOV     A,R2
        SUBB    A,R0
        MOV     A,R3
        SUBB    A,R1
        MOV     C,0xD0 /* PSW */.2
        XRL     A,PSW
        RLC     A
        JNC     ??gaussianfilter_1
//  224   {
//  225     mu+=*(rssi+i);
        MOV     A,#0x4
        LCALL   ?XSTACK_DISP0_8
        MOVX    A,@DPTR
        ADD     A,R2
        MOV     R0,A
        INC     DPTR
        MOVX    A,@DPTR
        ADDC    A,R3
        MOV     DPL,R0
        MOV     DPH,A
        MOVX    A,@DPTR
        MOV     ?V0 + 8,A
        RLC     A
        SUBB    A,0xE0 /* A   */
        MOV     ?V0 + 9,A
        MOV     ?V0 + 10,A
        MOV     ?V0 + 11,A
        MOV     R0,#?V0 + 8
        LCALL   ?L_TO_FLT
        MOV     R0,#?V0 + 8
        MOV     R1,#?V0 + 0
        LCALL   ?FLT_ADD
        MOV     ?V0 + 0,?V0 + 8
        MOV     ?V0 + 1,?V0 + 9
        MOV     ?V0 + 2,?V0 + 10
        MOV     ?V0 + 3,?V0 + 11
//  226   }
        MOV     A,R2
        ADD     A,#0x1
        MOV     R2,A
        MOV     A,R3
        ADDC    A,#0x0
        MOV     R3,A
        SJMP    ??gaussianfilter_0
//  227   mu=mu/length;
??gaussianfilter_1:
        MOV     DPL,?XSP + 0
        MOV     DPH,?XSP + 1
        MOVX    A,@DPTR
        MOV     ?V0 + 8,A
        INC     DPTR
        MOVX    A,@DPTR
        MOV     ?V0 + 9,A
        MOV     A,?V0 + 9
        RLC     A
        SUBB    A,0xE0 /* A   */
        MOV     ?V0 + 10,A
        MOV     ?V0 + 11,A
        MOV     R0,#?V0 + 8
        LCALL   ?L_TO_FLT
        MOV     R0,#?V0 + 0
        MOV     R1,#?V0 + 8
        LCALL   ?FLT_DIV
//  228   
//  229   for (int i=0; i<length; i++)
        MOV     R2,#0x0
        MOV     R3,#0x0
??gaussianfilter_2:
        MOV     DPL,?XSP + 0
        MOV     DPH,?XSP + 1
        MOVX    A,@DPTR
        MOV     R0,A
        INC     DPTR
        MOVX    A,@DPTR
        MOV     R1,A
        CLR     C
        MOV     A,R2
        SUBB    A,R0
        MOV     A,R3
        SUBB    A,R1
        MOV     C,0xD0 /* PSW */.2
        XRL     A,PSW
        RLC     A
        JNC     ??gaussianfilter_3
//  230   {
//  231     float temp=*(rssi+i);
        MOV     A,#0x4
        LCALL   ?XSTACK_DISP0_8
        MOVX    A,@DPTR
        ADD     A,R2
        MOV     R0,A
        INC     DPTR
        MOVX    A,@DPTR
        ADDC    A,R3
        MOV     DPL,R0
        MOV     DPH,A
        MOVX    A,@DPTR
        MOV     ?V0 + 8,A
        RLC     A
        SUBB    A,0xE0 /* A   */
        MOV     ?V0 + 9,A
        MOV     ?V0 + 10,A
        MOV     ?V0 + 11,A
        MOV     R0,#?V0 + 8
        LCALL   ?L_TO_FLT
        MOV     A,#0xa
        LCALL   ?XSTACK_DISP0_8
        MOV     R0,#?V0 + 8
        LCALL   ?L_MOV_TO_X
//  232     variance+=(float)pow((mu-temp),2);
        MOV     ?V0 + 8,?V0 + 0
        MOV     ?V0 + 9,?V0 + 1
        MOV     ?V0 + 10,?V0 + 2
        MOV     ?V0 + 11,?V0 + 3
        MOV     A,#0xa
        LCALL   ?XSTACK_DISP0_8
        MOV     R0,#?V0 + 12
        LCALL   ?L_MOV_X
        MOV     R0,#?V0 + 8
        MOV     R1,#?V0 + 12
        LCALL   ?FLT_SUB
        MOV     ?V0 + 12,?V0 + 8
        MOV     ?V0 + 13,?V0 + 9
        MOV     ?V0 + 14,?V0 + 10
        MOV     ?V0 + 15,?V0 + 11
        MOV     R0,#?V0 + 12
        MOV     R1,#?V0 + 8
        LCALL   ?FLT_MUL
        MOV     R0,#?V0 + 4
        MOV     R1,#?V0 + 12
        LCALL   ?FLT_ADD
//  233   }
        MOV     A,R2
        ADD     A,#0x1
        MOV     R2,A
        MOV     A,R3
        ADDC    A,#0x0
        MOV     R3,A
        LJMP    ??gaussianfilter_2 & 0xFFFF
//  234   variance=(float)(variance/length);
??gaussianfilter_3:
        MOV     DPL,?XSP + 0
        MOV     DPH,?XSP + 1
        MOVX    A,@DPTR
        MOV     ?V0 + 8,A
        INC     DPTR
        MOVX    A,@DPTR
        MOV     ?V0 + 9,A
        MOV     A,?V0 + 9
        RLC     A
        SUBB    A,0xE0 /* A   */
        MOV     ?V0 + 10,A
        MOV     ?V0 + 11,A
        MOV     R0,#?V0 + 8
        LCALL   ?L_TO_FLT
        MOV     R0,#?V0 + 4
        MOV     R1,#?V0 + 8
        LCALL   ?FLT_DIV
//  235   
//  236   float intervalmin=mu-variance;
        MOV     ?V0 + 8,?V0 + 0
        MOV     ?V0 + 9,?V0 + 1
        MOV     ?V0 + 10,?V0 + 2
        MOV     ?V0 + 11,?V0 + 3
        MOV     R0,#?V0 + 8
        MOV     R1,#?V0 + 4
        LCALL   ?FLT_SUB
        MOV     A,#0xa
        LCALL   ?XSTACK_DISP0_8
        MOV     R0,#?V0 + 8
        LCALL   ?L_MOV_TO_X
//  237   float intervalmax=mu+variance;
        MOV     ?V0 + 8,?V0 + 0
        MOV     ?V0 + 9,?V0 + 1
        MOV     ?V0 + 10,?V0 + 2
        MOV     ?V0 + 11,?V0 + 3
        MOV     R0,#?V0 + 8
        MOV     R1,#?V0 + 4
        LCALL   ?FLT_ADD
        MOV     A,#0xe
        LCALL   ?XSTACK_DISP0_8
        MOV     R0,#?V0 + 8
        LCALL   ?L_MOV_TO_X
//  238   
//  239   int index=0;
        MOV     R6,#0x0
        MOV     R7,#0x0
//  240   for (int i=0; i<length; i++)
        MOV     A,#0x2
        LCALL   ?XSTACK_DISP0_8
        MOV     A,#0x0
        MOVX    @DPTR,A
        INC     DPTR
        MOV     A,#0x0
        MOVX    @DPTR,A
??gaussianfilter_4:
        MOV     A,#0x2
        LCALL   ?XSTACK_DISP0_8
        PUSH    DPL
          CFI CFA_SP SP+-1
        PUSH    DPH
          CFI CFA_SP SP+-2
        MOV     DPL,?XSP + 0
        MOV     DPH,?XSP + 1
        MOVX    A,@DPTR
        MOV     R0,A
        INC     DPTR
        MOVX    A,@DPTR
        MOV     R1,A
        POP     DPH
          CFI CFA_SP SP+-1
        POP     DPL
          CFI CFA_SP SP+0
        CLR     C
        MOVX    A,@DPTR
        SUBB    A,R0
        INC     DPTR
        MOVX    A,@DPTR
        SUBB    A,R1
        MOV     C,0xD0 /* PSW */.2
        XRL     A,PSW
        RLC     A
        JC      $+5
        LJMP    ??gaussianfilter_5 & 0xFFFF
//  241   {
//  242     float temp=*(rssi+i);
        MOV     A,#0x2
        LCALL   ?XSTACK_DISP0_8
        MOVX    A,@DPTR
        MOV     R0,A
        INC     DPTR
        MOVX    A,@DPTR
        MOV     R1,A
        MOV     A,#0x4
        LCALL   ?XSTACK_DISP0_8
        MOVX    A,@DPTR
        ADD     A,R0
        MOV     R2,A
        INC     DPTR
        MOVX    A,@DPTR
        ADDC    A,R1
        MOV     DPL,R2
        MOV     DPH,A
        MOVX    A,@DPTR
        MOV     ?V0 + 8,A
        RLC     A
        SUBB    A,0xE0 /* A   */
        MOV     ?V0 + 9,A
        MOV     ?V0 + 10,A
        MOV     ?V0 + 11,A
        MOV     R0,#?V0 + 8
        LCALL   ?L_TO_FLT
//  243     if(temp<=intervalmax&&temp>=intervalmin)
        MOV     A,#0xe
        LCALL   ?XSTACK_DISP0_8
        MOV     R0,#?V0 + 12
        LCALL   ?L_MOV_X
        MOV     R0,#?V0 + 12
        MOV     R1,#?V0 + 8
        LCALL   ?FLT_GE
        JNC     ??gaussianfilter_6
        MOV     A,#0xa
        LCALL   ?XSTACK_DISP0_8
        MOV     R0,#?V0 + 12
        LCALL   ?L_MOV_X
        MOV     R0,#?V0 + 8
        MOV     R1,#?V0 + 12
        LCALL   ?FLT_GE
        JNC     ??gaussianfilter_6
//  244        {
//  245          index++;
        MOV     A,R6
        ADD     A,#0x1
        MOV     R6,A
        MOV     A,R7
        ADDC    A,#0x0
        MOV     R7,A
//  246          newmean+=temp;
        MOV     A,#0x6
        LCALL   ?XSTACK_DISP0_8
        MOV     R0,#?V0 + 12
        LCALL   ?L_MOV_X
        MOV     R0,#?V0 + 12
        MOV     R1,#?V0 + 8
        LCALL   ?FLT_ADD
        MOV     A,#0x6
        LCALL   ?XSTACK_DISP0_8
        MOV     R0,#?V0 + 12
        LCALL   ?L_MOV_TO_X
//  247        }
//  248   }
??gaussianfilter_6:
        MOV     A,#0x2
        LCALL   ?XSTACK_DISP0_8
        MOVX    A,@DPTR
        ADD     A,#0x1
        MOVX    @DPTR,A
        INC     DPTR
        MOVX    A,@DPTR
        ADDC    A,#0x0
        MOVX    @DPTR,A
        LJMP    ??gaussianfilter_4 & 0xFFFF
//  249   
//  250        if(index!=0)
??gaussianfilter_5:
        MOV     A,R6
        ORL     A,R7
        JZ      ??gaussianfilter_7
//  251        {
//  252          newmean=newmean/index;
        MOV     A,#0x6
        LCALL   ?XSTACK_DISP0_8
        MOV     R0,#?V0 + 12
        LCALL   ?L_MOV_X
        MOV     ?V0 + 8,R6
        MOV     A,R7
        MOV     ?V0 + 9,A
        RLC     A
        SUBB    A,0xE0 /* A   */
        MOV     ?V0 + 10,A
        MOV     ?V0 + 11,A
        MOV     R0,#?V0 + 8
        LCALL   ?L_TO_FLT
        MOV     R0,#?V0 + 12
        MOV     R1,#?V0 + 8
        LCALL   ?FLT_DIV
        MOV     A,#0x6
        LCALL   ?XSTACK_DISP0_8
        MOV     R0,#?V0 + 12
        LCALL   ?L_MOV_TO_X
//  253        }
//  254        
//  255   return newmean;
??gaussianfilter_7:
        MOV     A,#0x6
        LCALL   ?XSTACK_DISP0_8
        LCALL   ?XLOAD_R2345
        MOV     A,#0x12
        LCALL   ?DEALLOC_XSTACK8
          CFI CFA_XSP16 add(XSP16, 24)
        MOV     R7,#0x10
        LJMP    ?BANKED_LEAVE_XDATA
          CFI EndBlock cfiBlock5
//  256 }
//  257 
//  258 /*********************************************************************
//  259  * @fn      averagefilter
//  260  *
//  261  * @brief   filter for received rssi data
//  262  *
//  263  * @param   rssi rssi array
//  264  *
//  265  * @return  none
//  266  */

        RSEG BANKED_CODE:CODE:NOROOT(0)
//  267 float averagefilter(int8* rssi, int length)
averagefilter:
          CFI Block cfiBlock6 Using cfiCommon0
          CFI Function averagefilter
        CODE
//  268 {
        MOV     A,#-0x18
        LCALL   ?BANKED_ENTER_XDATA
          CFI DPH0 load(1, XDATA, add(CFA_XSP16, literal(-1)))
          CFI DPL0 load(1, XDATA, add(CFA_XSP16, literal(-2)))
          CFI ?BRET_EXT load(1, XDATA, add(CFA_XSP16, literal(-3)))
          CFI ?RET_HIGH load(1, XDATA, add(CFA_XSP16, literal(-4)))
          CFI ?RET_LOW load(1, XDATA, add(CFA_XSP16, literal(-5)))
          CFI R7 load(1, XDATA, add(CFA_XSP16, literal(-6)))
          CFI V15 load(1, XDATA, add(CFA_XSP16, literal(-7)))
          CFI V14 load(1, XDATA, add(CFA_XSP16, literal(-8)))
          CFI V13 load(1, XDATA, add(CFA_XSP16, literal(-9)))
          CFI V12 load(1, XDATA, add(CFA_XSP16, literal(-10)))
          CFI V11 load(1, XDATA, add(CFA_XSP16, literal(-11)))
          CFI V10 load(1, XDATA, add(CFA_XSP16, literal(-12)))
          CFI V9 load(1, XDATA, add(CFA_XSP16, literal(-13)))
          CFI V8 load(1, XDATA, add(CFA_XSP16, literal(-14)))
          CFI V7 load(1, XDATA, add(CFA_XSP16, literal(-15)))
          CFI V6 load(1, XDATA, add(CFA_XSP16, literal(-16)))
          CFI V5 load(1, XDATA, add(CFA_XSP16, literal(-17)))
          CFI V4 load(1, XDATA, add(CFA_XSP16, literal(-18)))
          CFI V3 load(1, XDATA, add(CFA_XSP16, literal(-19)))
          CFI V2 load(1, XDATA, add(CFA_XSP16, literal(-20)))
          CFI V1 load(1, XDATA, add(CFA_XSP16, literal(-21)))
          CFI V0 load(1, XDATA, add(CFA_XSP16, literal(-22)))
          CFI VB load(1, XDATA, add(CFA_XSP16, literal(-23)))
          CFI R6 load(1, XDATA, add(CFA_XSP16, literal(-24)))
          CFI CFA_SP SP+0
          CFI CFA_XSP16 add(XSP16, 24)
        ; Saved register size: 24
        ; Auto size: 2
        MOV     A,#-0x2
        LCALL   ?ALLOC_XSTACK8
          CFI CFA_XSP16 add(XSP16, 26)
        MOV     DPL,?XSP + 0
        MOV     DPH,?XSP + 1
        MOV     A,R2
        MOVX    @DPTR,A
        INC     DPTR
        MOV     A,R3
        MOVX    @DPTR,A
        MOV     A,R4
        MOV     R6,A
        MOV     A,R5
        MOV     R7,A
//  269   int32 mu=0;
        MOV     ?V0 + 0,#0x0
        MOV     ?V0 + 1,#0x0
        MOV     ?V0 + 2,#0x0
        MOV     ?V0 + 3,#0x0
//  270  
//  271   float newmean=0.0;
        MOV     ?V0 + 4,#0x0
        MOV     ?V0 + 5,#0x0
        MOV     ?V0 + 6,#0x0
        MOV     ?V0 + 7,#0x0
//  272   
//  273   for(int i=0; i<length; i++)
        MOV     R2,#0x0
        MOV     R3,#0x0
??averagefilter_0:
        CLR     C
        MOV     A,R2
        SUBB    A,R6
        MOV     A,R3
        SUBB    A,R7
        MOV     C,0xD0 /* PSW */.2
        XRL     A,PSW
        RLC     A
        JNC     ??averagefilter_1
//  274    {
//  275                   mu+=(int32)*(rssi+i);
        MOV     DPL,?XSP + 0
        MOV     DPH,?XSP + 1
        MOVX    A,@DPTR
        ADD     A,R2
        MOV     R0,A
        INC     DPTR
        MOVX    A,@DPTR
        ADDC    A,R3
        MOV     DPL,R0
        MOV     DPH,A
        MOVX    A,@DPTR
        MOV     ?V0 + 8,A
        RLC     A
        SUBB    A,0xE0 /* A   */
        MOV     ?V0 + 9,A
        MOV     ?V0 + 10,A
        MOV     ?V0 + 11,A
        MOV     R0,#?V0 + 0
        MOV     R1,#?V0 + 8
        LCALL   ?L_ADD
//  276    }
        MOV     A,R2
        ADD     A,#0x1
        MOV     R2,A
        MOV     A,R3
        ADDC    A,#0x0
        MOV     R3,A
        SJMP    ??averagefilter_0
//  277                  newmean=((float)mu)/((float)length);
??averagefilter_1:
        MOV     ?V0 + 12,?V0 + 0
        MOV     ?V0 + 13,?V0 + 1
        MOV     ?V0 + 14,?V0 + 2
        MOV     ?V0 + 15,?V0 + 3
        MOV     R0,#?V0 + 12
        LCALL   ?L_TO_FLT
        MOV     ?V0 + 8,R6
        MOV     A,R7
        MOV     ?V0 + 9,A
        RLC     A
        SUBB    A,0xE0 /* A   */
        MOV     ?V0 + 10,A
        MOV     ?V0 + 11,A
        MOV     R0,#?V0 + 8
        LCALL   ?L_TO_FLT
        MOV     R0,#?V0 + 12
        MOV     R1,#?V0 + 8
        LCALL   ?FLT_DIV
        MOV     ?V0 + 4,?V0 + 12
        MOV     ?V0 + 5,?V0 + 13
        MOV     ?V0 + 6,?V0 + 14
        MOV     ?V0 + 7,?V0 + 15
//  278              
//  279        
//  280   return newmean;
        MOV     R2,?V0 + 4
        MOV     R3,?V0 + 5
        MOV     R4,?V0 + 6
        MOV     R5,?V0 + 7
        MOV     A,#0x2
        LCALL   ?DEALLOC_XSTACK8
          CFI CFA_XSP16 add(XSP16, 24)
        MOV     R7,#0x10
        LJMP    ?BANKED_LEAVE_XDATA
          CFI EndBlock cfiBlock6
//  281 }
//  282 
//  283 /*********************************************************************
//  284  * @fn      calibrationN
//  285  *
//  286  * @brief   calibration of n
//  287  *
//  288  * @param   rssi rssi array
//  289  *
//  290  * @return  none
//  291  */

        RSEG BANKED_CODE:CODE:NOROOT(0)
//  292 float calibrationN(int localID, int index, float rssivalue_f[4], float nValue[4], float AnchorX[4], float AnchorY[4], float AnchorZ[4], float A[4])
calibrationN:
          CFI Block cfiBlock7 Using cfiCommon0
          CFI Function calibrationN
        CODE
//  293 {
        FUNCALL calibrationN, pow
        LOCFRAME ISTACK, 0, STACK
        LOCFRAME PSTACK, 0, STACK
        LOCFRAME XSTACK, 34, STACK
        LOCFRAME IOVERLAY, 0, STATIC
        LOCFRAME DOVERLAY, 0, STATIC
        ARGFRAME ISTACK, 0, STACK
        ARGFRAME PSTACK, 0, STACK
        ARGFRAME XSTACK, 34, STACK
        ARGFRAME IOVERLAY, 0, STATIC
        ARGFRAME DOVERLAY, 0, STATIC
        FUNCALL calibrationN, log10
        LOCFRAME ISTACK, 0, STACK
        LOCFRAME PSTACK, 0, STACK
        LOCFRAME XSTACK, 30, STACK
        LOCFRAME IOVERLAY, 0, STATIC
        LOCFRAME DOVERLAY, 0, STATIC
        ARGFRAME ISTACK, 0, STACK
        ARGFRAME PSTACK, 0, STACK
        ARGFRAME XSTACK, 30, STACK
        ARGFRAME IOVERLAY, 0, STATIC
        ARGFRAME DOVERLAY, 0, STATIC
        MOV     A,#-0x18
        LCALL   ?BANKED_ENTER_XDATA
          CFI DPH0 load(1, XDATA, add(CFA_XSP16, literal(-1)))
          CFI DPL0 load(1, XDATA, add(CFA_XSP16, literal(-2)))
          CFI ?BRET_EXT load(1, XDATA, add(CFA_XSP16, literal(-3)))
          CFI ?RET_HIGH load(1, XDATA, add(CFA_XSP16, literal(-4)))
          CFI ?RET_LOW load(1, XDATA, add(CFA_XSP16, literal(-5)))
          CFI R7 load(1, XDATA, add(CFA_XSP16, literal(-6)))
          CFI V15 load(1, XDATA, add(CFA_XSP16, literal(-7)))
          CFI V14 load(1, XDATA, add(CFA_XSP16, literal(-8)))
          CFI V13 load(1, XDATA, add(CFA_XSP16, literal(-9)))
          CFI V12 load(1, XDATA, add(CFA_XSP16, literal(-10)))
          CFI V11 load(1, XDATA, add(CFA_XSP16, literal(-11)))
          CFI V10 load(1, XDATA, add(CFA_XSP16, literal(-12)))
          CFI V9 load(1, XDATA, add(CFA_XSP16, literal(-13)))
          CFI V8 load(1, XDATA, add(CFA_XSP16, literal(-14)))
          CFI V7 load(1, XDATA, add(CFA_XSP16, literal(-15)))
          CFI V6 load(1, XDATA, add(CFA_XSP16, literal(-16)))
          CFI V5 load(1, XDATA, add(CFA_XSP16, literal(-17)))
          CFI V4 load(1, XDATA, add(CFA_XSP16, literal(-18)))
          CFI V3 load(1, XDATA, add(CFA_XSP16, literal(-19)))
          CFI V2 load(1, XDATA, add(CFA_XSP16, literal(-20)))
          CFI V1 load(1, XDATA, add(CFA_XSP16, literal(-21)))
          CFI V0 load(1, XDATA, add(CFA_XSP16, literal(-22)))
          CFI VB load(1, XDATA, add(CFA_XSP16, literal(-23)))
          CFI R6 load(1, XDATA, add(CFA_XSP16, literal(-24)))
          CFI CFA_SP SP+0
          CFI CFA_XSP16 add(XSP16, 24)
        ; Saved register size: 24
        ; Auto size: 6
        MOV     A,#-0x6
        LCALL   ?ALLOC_XSTACK8
          CFI CFA_XSP16 add(XSP16, 30)
        MOV     DPL,?XSP + 0
        MOV     DPH,?XSP + 1
        MOV     A,R2
        MOVX    @DPTR,A
        INC     DPTR
        MOV     A,R3
        MOVX    @DPTR,A
        MOV     A,R4
        MOV     R6,A
        MOV     A,R5
        MOV     R7,A
//  294   float n;
//  295   if(localID!=index)
        MOV     DPL,?XSP + 0
        MOV     DPH,?XSP + 1
        MOVX    A,@DPTR
        XRL     A,R6
        JNZ     ??calibrationN_0
        INC     DPTR
        MOVX    A,@DPTR
        XRL     A,R7
??calibrationN_0:
        JNZ     $+5
        LJMP    ??calibrationN_1 & 0xFFFF
//  296   {
//  297       
//  298       float d=0.0;
        MOV     ?V0 + 0,#0x0
        MOV     ?V0 + 1,#0x0
        MOV     ?V0 + 2,#0x0
        MOV     ?V0 + 3,#0x0
//  299       d=(AnchorX[localID-1]-AnchorX[index-1])*(AnchorX[localID-1]-AnchorX[index-1])+
//  300         (AnchorY[localID-1]-AnchorY[index-1])*(AnchorY[localID-1]-AnchorY[index-1])+
//  301           (AnchorZ[localID-1]-AnchorZ[index-1])*(AnchorZ[localID-1]-AnchorZ[index-1]);
        MOV     DPL,?XSP + 0
        MOV     DPH,?XSP + 1
        MOVX    A,@DPTR
        MOV     R0,A
        INC     DPTR
        MOVX    A,@DPTR
        MOV     R1,A
        MOV     A,R0
        MOV     B,#0x4
        MUL     AB
        XCH     A,R0
        MOV     R2,B
        MOV     B,#0x0
        MUL     AB
        ADD     A,R2
        MOV     R2,A
        MOV     B,#0x4
        MOV     A,R1
        MUL     AB
        ADD     A,R2
        MOV     R1,A
        MOV     A,#0x22
        LCALL   ?XSTACK_DISP0_8
        MOVX    A,@DPTR
        ADD     A,R0
        MOV     R0,A
        INC     DPTR
        MOVX    A,@DPTR
        ADDC    A,R1
        MOV     R1,A
        MOV     A,R0
        ADD     A,#-0x4
        MOV     DPL,A
        MOV     A,R1
        ADDC    A,#-0x1
        MOV     DPH,A
        MOV     R0,#?V0 + 4
        LCALL   ?L_MOV_X
        MOV     A,R6
        MOV     R0,A
        MOV     A,R7
        MOV     R1,A
        MOV     A,R0
        MOV     B,#0x4
        MUL     AB
        XCH     A,R0
        MOV     R2,B
        MOV     B,#0x0
        MUL     AB
        ADD     A,R2
        MOV     R2,A
        MOV     B,#0x4
        MOV     A,R1
        MUL     AB
        ADD     A,R2
        MOV     R1,A
        MOV     A,#0x22
        LCALL   ?XSTACK_DISP0_8
        MOVX    A,@DPTR
        ADD     A,R0
        MOV     R0,A
        INC     DPTR
        MOVX    A,@DPTR
        ADDC    A,R1
        MOV     R1,A
        MOV     A,R0
        ADD     A,#-0x4
        MOV     DPL,A
        MOV     A,R1
        ADDC    A,#-0x1
        MOV     DPH,A
        MOV     R0,#?V0 + 8
        LCALL   ?L_MOV_X
        MOV     R0,#?V0 + 4
        MOV     R1,#?V0 + 8
        LCALL   ?FLT_SUB
        MOV     DPL,?XSP + 0
        MOV     DPH,?XSP + 1
        MOVX    A,@DPTR
        MOV     R0,A
        INC     DPTR
        MOVX    A,@DPTR
        MOV     R1,A
        MOV     A,R0
        MOV     B,#0x4
        MUL     AB
        XCH     A,R0
        MOV     R2,B
        MOV     B,#0x0
        MUL     AB
        ADD     A,R2
        MOV     R2,A
        MOV     B,#0x4
        MOV     A,R1
        MUL     AB
        ADD     A,R2
        MOV     R1,A
        MOV     A,#0x22
        LCALL   ?XSTACK_DISP0_8
        MOVX    A,@DPTR
        ADD     A,R0
        MOV     R0,A
        INC     DPTR
        MOVX    A,@DPTR
        ADDC    A,R1
        MOV     R1,A
        MOV     A,R0
        ADD     A,#-0x4
        MOV     DPL,A
        MOV     A,R1
        ADDC    A,#-0x1
        MOV     DPH,A
        MOV     R0,#?V0 + 12
        LCALL   ?L_MOV_X
        MOV     A,R6
        MOV     R0,A
        MOV     A,R7
        MOV     R1,A
        MOV     A,R0
        MOV     B,#0x4
        MUL     AB
        XCH     A,R0
        MOV     R2,B
        MOV     B,#0x0
        MUL     AB
        ADD     A,R2
        MOV     R2,A
        MOV     B,#0x4
        MOV     A,R1
        MUL     AB
        ADD     A,R2
        MOV     R1,A
        MOV     A,#0x22
        LCALL   ?XSTACK_DISP0_8
        MOVX    A,@DPTR
        ADD     A,R0
        MOV     R0,A
        INC     DPTR
        MOVX    A,@DPTR
        ADDC    A,R1
        MOV     R1,A
        MOV     A,R0
        ADD     A,#-0x4
        MOV     DPL,A
        MOV     A,R1
        ADDC    A,#-0x1
        MOV     DPH,A
        MOV     R0,#?V0 + 8
        LCALL   ?L_MOV_X
        MOV     R0,#?V0 + 12
        MOV     R1,#?V0 + 8
        LCALL   ?FLT_SUB
        MOV     R0,#?V0 + 4
        MOV     R1,#?V0 + 12
        LCALL   ?FLT_MUL
        PUSH    ?V0 + 4
          CFI CFA_SP SP+-1
        PUSH    ?V0 + 5
          CFI CFA_SP SP+-2
        PUSH    ?V0 + 6
          CFI CFA_SP SP+-3
        PUSH    ?V0 + 7
          CFI CFA_SP SP+-4
        MOV     DPL,?XSP + 0
        MOV     DPH,?XSP + 1
        MOVX    A,@DPTR
        MOV     R0,A
        INC     DPTR
        MOVX    A,@DPTR
        MOV     R1,A
        MOV     A,R0
        MOV     B,#0x4
        MUL     AB
        XCH     A,R0
        MOV     R2,B
        MOV     B,#0x0
        MUL     AB
        ADD     A,R2
        MOV     R2,A
        MOV     B,#0x4
        MOV     A,R1
        MUL     AB
        ADD     A,R2
        MOV     R1,A
        MOV     A,#0x24
        LCALL   ?XSTACK_DISP0_8
        MOVX    A,@DPTR
        ADD     A,R0
        MOV     R0,A
        INC     DPTR
        MOVX    A,@DPTR
        ADDC    A,R1
        MOV     R1,A
        MOV     A,R0
        ADD     A,#-0x4
        MOV     DPL,A
        MOV     A,R1
        ADDC    A,#-0x1
        MOV     DPH,A
        MOV     R0,#?V0 + 4
        LCALL   ?L_MOV_X
        MOV     A,R6
        MOV     R0,A
        MOV     A,R7
        MOV     R1,A
        MOV     A,R0
        MOV     B,#0x4
        MUL     AB
        XCH     A,R0
        MOV     R2,B
        MOV     B,#0x0
        MUL     AB
        ADD     A,R2
        MOV     R2,A
        MOV     B,#0x4
        MOV     A,R1
        MUL     AB
        ADD     A,R2
        MOV     R1,A
        MOV     A,#0x24
        LCALL   ?XSTACK_DISP0_8
        MOVX    A,@DPTR
        ADD     A,R0
        MOV     R0,A
        INC     DPTR
        MOVX    A,@DPTR
        ADDC    A,R1
        MOV     R1,A
        MOV     A,R0
        ADD     A,#-0x4
        MOV     DPL,A
        MOV     A,R1
        ADDC    A,#-0x1
        MOV     DPH,A
        MOV     R0,#?V0 + 8
        LCALL   ?L_MOV_X
        MOV     R0,#?V0 + 4
        MOV     R1,#?V0 + 8
        LCALL   ?FLT_SUB
        MOV     DPL,?XSP + 0
        MOV     DPH,?XSP + 1
        MOVX    A,@DPTR
        MOV     R0,A
        INC     DPTR
        MOVX    A,@DPTR
        MOV     R1,A
        MOV     A,R0
        MOV     B,#0x4
        MUL     AB
        XCH     A,R0
        MOV     R2,B
        MOV     B,#0x0
        MUL     AB
        ADD     A,R2
        MOV     R2,A
        MOV     B,#0x4
        MOV     A,R1
        MUL     AB
        ADD     A,R2
        MOV     R1,A
        MOV     A,#0x24
        LCALL   ?XSTACK_DISP0_8
        MOVX    A,@DPTR
        ADD     A,R0
        MOV     R0,A
        INC     DPTR
        MOVX    A,@DPTR
        ADDC    A,R1
        MOV     R1,A
        MOV     A,R0
        ADD     A,#-0x4
        MOV     DPL,A
        MOV     A,R1
        ADDC    A,#-0x1
        MOV     DPH,A
        MOV     R0,#?V0 + 12
        LCALL   ?L_MOV_X
        MOV     A,R6
        MOV     R0,A
        MOV     A,R7
        MOV     R1,A
        MOV     A,R0
        MOV     B,#0x4
        MUL     AB
        XCH     A,R0
        MOV     R2,B
        MOV     B,#0x0
        MUL     AB
        ADD     A,R2
        MOV     R2,A
        MOV     B,#0x4
        MOV     A,R1
        MUL     AB
        ADD     A,R2
        MOV     R1,A
        MOV     A,#0x24
        LCALL   ?XSTACK_DISP0_8
        MOVX    A,@DPTR
        ADD     A,R0
        MOV     R0,A
        INC     DPTR
        MOVX    A,@DPTR
        ADDC    A,R1
        MOV     R1,A
        MOV     A,R0
        ADD     A,#-0x4
        MOV     DPL,A
        MOV     A,R1
        ADDC    A,#-0x1
        MOV     DPH,A
        MOV     R0,#?V0 + 8
        LCALL   ?L_MOV_X
        MOV     R0,#?V0 + 12
        MOV     R1,#?V0 + 8
        LCALL   ?FLT_SUB
        MOV     R0,#?V0 + 4
        MOV     R1,#?V0 + 12
        LCALL   ?FLT_MUL
        POP     ?V0 + 11
          CFI CFA_SP SP+-3
        POP     ?V0 + 10
          CFI CFA_SP SP+-2
        POP     ?V0 + 9
          CFI CFA_SP SP+-1
        POP     ?V0 + 8
          CFI CFA_SP SP+0
        MOV     R0,#?V0 + 8
        MOV     R1,#?V0 + 4
        LCALL   ?FLT_ADD
        PUSH    ?V0 + 8
          CFI CFA_SP SP+-1
        PUSH    ?V0 + 9
          CFI CFA_SP SP+-2
        PUSH    ?V0 + 10
          CFI CFA_SP SP+-3
        PUSH    ?V0 + 11
          CFI CFA_SP SP+-4
        MOV     DPL,?XSP + 0
        MOV     DPH,?XSP + 1
        MOVX    A,@DPTR
        MOV     R0,A
        INC     DPTR
        MOVX    A,@DPTR
        MOV     R1,A
        MOV     A,R0
        MOV     B,#0x4
        MUL     AB
        XCH     A,R0
        MOV     R2,B
        MOV     B,#0x0
        MUL     AB
        ADD     A,R2
        MOV     R2,A
        MOV     B,#0x4
        MOV     A,R1
        MUL     AB
        ADD     A,R2
        MOV     R1,A
        MOV     A,#0x26
        LCALL   ?XSTACK_DISP0_8
        MOVX    A,@DPTR
        ADD     A,R0
        MOV     R0,A
        INC     DPTR
        MOVX    A,@DPTR
        ADDC    A,R1
        MOV     R1,A
        MOV     A,R0
        ADD     A,#-0x4
        MOV     DPL,A
        MOV     A,R1
        ADDC    A,#-0x1
        MOV     DPH,A
        MOV     R0,#?V0 + 4
        LCALL   ?L_MOV_X
        MOV     A,R6
        MOV     R0,A
        MOV     A,R7
        MOV     R1,A
        MOV     A,R0
        MOV     B,#0x4
        MUL     AB
        XCH     A,R0
        MOV     R2,B
        MOV     B,#0x0
        MUL     AB
        ADD     A,R2
        MOV     R2,A
        MOV     B,#0x4
        MOV     A,R1
        MUL     AB
        ADD     A,R2
        MOV     R1,A
        MOV     A,#0x26
        LCALL   ?XSTACK_DISP0_8
        MOVX    A,@DPTR
        ADD     A,R0
        MOV     R0,A
        INC     DPTR
        MOVX    A,@DPTR
        ADDC    A,R1
        MOV     R1,A
        MOV     A,R0
        ADD     A,#-0x4
        MOV     DPL,A
        MOV     A,R1
        ADDC    A,#-0x1
        MOV     DPH,A
        MOV     R0,#?V0 + 8
        LCALL   ?L_MOV_X
        MOV     R0,#?V0 + 4
        MOV     R1,#?V0 + 8
        LCALL   ?FLT_SUB
        MOV     DPL,?XSP + 0
        MOV     DPH,?XSP + 1
        MOVX    A,@DPTR
        MOV     R0,A
        INC     DPTR
        MOVX    A,@DPTR
        MOV     R1,A
        MOV     A,R0
        MOV     B,#0x4
        MUL     AB
        XCH     A,R0
        MOV     R2,B
        MOV     B,#0x0
        MUL     AB
        ADD     A,R2
        MOV     R2,A
        MOV     B,#0x4
        MOV     A,R1
        MUL     AB
        ADD     A,R2
        MOV     R1,A
        MOV     A,#0x26
        LCALL   ?XSTACK_DISP0_8
        MOVX    A,@DPTR
        ADD     A,R0
        MOV     R0,A
        INC     DPTR
        MOVX    A,@DPTR
        ADDC    A,R1
        MOV     R1,A
        MOV     A,R0
        ADD     A,#-0x4
        MOV     DPL,A
        MOV     A,R1
        ADDC    A,#-0x1
        MOV     DPH,A
        MOV     R0,#?V0 + 12
        LCALL   ?L_MOV_X
        MOV     A,R6
        MOV     R0,A
        MOV     A,R7
        MOV     R1,A
        MOV     A,R0
        MOV     B,#0x4
        MUL     AB
        XCH     A,R0
        MOV     R2,B
        MOV     B,#0x0
        MUL     AB
        ADD     A,R2
        MOV     R2,A
        MOV     B,#0x4
        MOV     A,R1
        MUL     AB
        ADD     A,R2
        MOV     R1,A
        MOV     A,#0x26
        LCALL   ?XSTACK_DISP0_8
        MOVX    A,@DPTR
        ADD     A,R0
        MOV     R0,A
        INC     DPTR
        MOVX    A,@DPTR
        ADDC    A,R1
        MOV     R1,A
        MOV     A,R0
        ADD     A,#-0x4
        MOV     DPL,A
        MOV     A,R1
        ADDC    A,#-0x1
        MOV     DPH,A
        MOV     R0,#?V0 + 8
        LCALL   ?L_MOV_X
        MOV     R0,#?V0 + 12
        MOV     R1,#?V0 + 8
        LCALL   ?FLT_SUB
        MOV     R0,#?V0 + 4
        MOV     R1,#?V0 + 12
        LCALL   ?FLT_MUL
        POP     ?V0 + 11
          CFI CFA_SP SP+-3
        POP     ?V0 + 10
          CFI CFA_SP SP+-2
        POP     ?V0 + 9
          CFI CFA_SP SP+-1
        POP     ?V0 + 8
          CFI CFA_SP SP+0
        MOV     R0,#?V0 + 8
        MOV     R1,#?V0 + 4
        LCALL   ?FLT_ADD
        MOV     ?V0 + 0,?V0 + 8
        MOV     ?V0 + 1,?V0 + 9
        MOV     ?V0 + 2,?V0 + 10
        MOV     ?V0 + 3,?V0 + 11
//  302      // d+=pow((AnchorY[localID-1]-AnchorY[index-1]),2);
//  303      // d+=pow((AnchorZ[localID-1]-AnchorZ[index-1]),2);
//  304       d=pow(d,0.5);
        ; Setup parameters for call to function pow
        MOV     DPTR,#__Constant_3f000000
        LCALL   ?PUSH_XSTACK8_X_FOUR
          CFI CFA_XSP16 add(XSP16, 34)
        MOV     R2,?V0 + 0
        MOV     R3,?V0 + 1
        MOV     R4,?V0 + 2
        MOV     R5,?V0 + 3
        LCALL   ??pow?relay
        MOV     A,#0x4
        LCALL   ?DEALLOC_XSTACK8
          CFI CFA_XSP16 add(XSP16, 30)
        MOV     ?V0 + 4,R2
        MOV     ?V0 + 5,R3
        MOV     ?V0 + 6,R4
        MOV     ?V0 + 7,R5
        MOV     ?V0 + 0,?V0 + 4
        MOV     ?V0 + 1,?V0 + 5
        MOV     ?V0 + 2,?V0 + 6
        MOV     ?V0 + 3,?V0 + 7
//  305       if(d!=1)
        MOV     DPTR,#__Constant_3f800000
        MOV     R0,#?V0 + 4
        LCALL   ?L_MOV_X
        MOV     R0,#?V0 + 0
        MOV     R1,#?V0 + 4
        LCALL   ?FLT_EQ
        JNZ     $+5
        LJMP    ??calibrationN_2 & 0xFFFF
//  306         n=(rssivalue_f[index-1]-A[index-1])/10/(log10(d));
        MOV     A,R6
        MOV     R0,A
        MOV     A,R7
        MOV     R1,A
        MOV     A,R0
        MOV     B,#0x4
        MUL     AB
        XCH     A,R0
        MOV     R2,B
        MOV     B,#0x0
        MUL     AB
        ADD     A,R2
        MOV     R2,A
        MOV     B,#0x4
        MOV     A,R1
        MUL     AB
        ADD     A,R2
        MOV     R1,A
        MOV     A,#0x1e
        LCALL   ?XSTACK_DISP0_8
        MOVX    A,@DPTR
        ADD     A,R0
        MOV     R0,A
        INC     DPTR
        MOVX    A,@DPTR
        ADDC    A,R1
        MOV     R1,A
        MOV     A,R0
        ADD     A,#-0x4
        MOV     DPL,A
        MOV     A,R1
        ADDC    A,#-0x1
        MOV     DPH,A
        MOV     R0,#?V0 + 4
        LCALL   ?L_MOV_X
        MOV     A,R6
        MOV     R0,A
        MOV     A,R7
        MOV     R1,A
        MOV     A,R0
        MOV     B,#0x4
        MUL     AB
        XCH     A,R0
        MOV     R2,B
        MOV     B,#0x0
        MUL     AB
        ADD     A,R2
        MOV     R2,A
        MOV     B,#0x4
        MOV     A,R1
        MUL     AB
        ADD     A,R2
        MOV     R1,A
        MOV     A,#0x28
        LCALL   ?XSTACK_DISP0_8
        MOVX    A,@DPTR
        ADD     A,R0
        MOV     R0,A
        INC     DPTR
        MOVX    A,@DPTR
        ADDC    A,R1
        MOV     R1,A
        MOV     A,R0
        ADD     A,#-0x4
        MOV     DPL,A
        MOV     A,R1
        ADDC    A,#-0x1
        MOV     DPH,A
        MOV     R0,#?V0 + 8
        LCALL   ?L_MOV_X
        MOV     R0,#?V0 + 4
        MOV     R1,#?V0 + 8
        LCALL   ?FLT_SUB
        MOV     DPTR,#__Constant_41200000
        MOV     R0,#?V0 + 8
        LCALL   ?L_MOV_X
        MOV     R0,#?V0 + 4
        MOV     R1,#?V0 + 8
        LCALL   ?FLT_DIV
        ; Setup parameters for call to function log10
        MOV     R2,?V0 + 0
        MOV     R3,?V0 + 1
        MOV     R4,?V0 + 2
        MOV     R5,?V0 + 3
        LCALL   ??log10?relay
        MOV     ?V0 + 8,R2
        MOV     ?V0 + 9,R3
        MOV     ?V0 + 10,R4
        MOV     ?V0 + 11,R5
        MOV     R0,#?V0 + 4
        MOV     R1,#?V0 + 8
        LCALL   ?FLT_DIV
        MOV     A,#0x2
        LCALL   ?XSTACK_DISP0_8
        MOV     R0,#?V0 + 4
        LCALL   ?L_MOV_TO_X
        LJMP    ??calibrationN_3 & 0xFFFF
//  307       else
//  308         n=nValue[localID-1];
??calibrationN_2:
        MOV     DPL,?XSP + 0
        MOV     DPH,?XSP + 1
        MOVX    A,@DPTR
        MOV     R0,A
        INC     DPTR
        MOVX    A,@DPTR
        MOV     R1,A
        MOV     A,R0
        MOV     B,#0x4
        MUL     AB
        XCH     A,R0
        MOV     R2,B
        MOV     B,#0x0
        MUL     AB
        ADD     A,R2
        MOV     R2,A
        MOV     B,#0x4
        MOV     A,R1
        MUL     AB
        ADD     A,R2
        MOV     R1,A
        MOV     A,#0x20
        LCALL   ?XSTACK_DISP0_8
        MOVX    A,@DPTR
        ADD     A,R0
        MOV     R0,A
        INC     DPTR
        MOVX    A,@DPTR
        ADDC    A,R1
        MOV     R1,A
        MOV     A,R0
        ADD     A,#-0x4
        MOV     DPL,A
        MOV     A,R1
        ADDC    A,#-0x1
        MOV     DPH,A
        LCALL   ?XLOAD_R2345
        MOV     A,#0x2
        LCALL   ?XSTACK_DISP0_8
        LCALL   ?XSTORE_R2345
        SJMP    ??calibrationN_3
//  309   }
//  310   else
//  311   {
//  312     n=nValue[localID-1];
??calibrationN_1:
        MOV     DPL,?XSP + 0
        MOV     DPH,?XSP + 1
        MOVX    A,@DPTR
        MOV     R0,A
        INC     DPTR
        MOVX    A,@DPTR
        MOV     R1,A
        MOV     A,R0
        MOV     B,#0x4
        MUL     AB
        XCH     A,R0
        MOV     R2,B
        MOV     B,#0x0
        MUL     AB
        ADD     A,R2
        MOV     R2,A
        MOV     B,#0x4
        MOV     A,R1
        MUL     AB
        ADD     A,R2
        MOV     R1,A
        MOV     A,#0x20
        LCALL   ?XSTACK_DISP0_8
        MOVX    A,@DPTR
        ADD     A,R0
        MOV     R0,A
        INC     DPTR
        MOVX    A,@DPTR
        ADDC    A,R1
        MOV     R1,A
        MOV     A,R0
        ADD     A,#-0x4
        MOV     DPL,A
        MOV     A,R1
        ADDC    A,#-0x1
        MOV     DPH,A
        LCALL   ?XLOAD_R2345
        MOV     A,#0x2
        LCALL   ?XSTACK_DISP0_8
        LCALL   ?XSTORE_R2345
//  313   }
//  314   return n;
??calibrationN_3:
        MOV     A,#0x2
        LCALL   ?XSTACK_DISP0_8
        LCALL   ?XLOAD_R2345
        MOV     A,#0x6
        LCALL   ?DEALLOC_XSTACK8
          CFI CFA_XSP16 add(XSP16, 24)
        MOV     R7,#0x10
        LJMP    ?BANKED_LEAVE_XDATA
          CFI EndBlock cfiBlock7
//  315 }

        RSEG BANK_RELAYS:CODE:REORDER:NOROOT(0)
??printRSSIandLQI?relay:
        CODE
        LCALL   ?BDISPATCH
        DATA24
        DC24    printRSSIandLQI

        RSEG BANK_RELAYS:CODE:REORDER:NOROOT(0)
??SampleApp_MinMax_localization?relay:
        CODE
        LCALL   ?BDISPATCH
        DATA24
        DC24    SampleApp_MinMax_localization

        RSEG BANK_RELAYS:CODE:REORDER:NOROOT(0)
??SampleApp_WCL_localization?relay:
        CODE
        LCALL   ?BDISPATCH
        DATA24
        DC24    SampleApp_WCL_localization

        RSEG BANK_RELAYS:CODE:REORDER:NOROOT(0)
??moving_average?relay:
        CODE
        LCALL   ?BDISPATCH
        DATA24
        DC24    moving_average

        RSEG BANK_RELAYS:CODE:REORDER:NOROOT(0)
??moving_average_f?relay:
        CODE
        LCALL   ?BDISPATCH
        DATA24
        DC24    moving_average_f

        RSEG BANK_RELAYS:CODE:REORDER:NOROOT(0)
??gaussianfilter?relay:
        CODE
        LCALL   ?BDISPATCH
        DATA24
        DC24    gaussianfilter

        RSEG BANK_RELAYS:CODE:REORDER:NOROOT(0)
??averagefilter?relay:
        CODE
        LCALL   ?BDISPATCH
        DATA24
        DC24    averagefilter

        RSEG BANK_RELAYS:CODE:REORDER:NOROOT(0)
??calibrationN?relay:
        CODE
        LCALL   ?BDISPATCH
        DATA24
        DC24    calibrationN

        RSEG XDATA_ROM_C:CONST:REORDER:NOROOT(0)
        DATA8
`?<Constant "RSSI:">`:
        DB "RSSI:"

        RSEG XDATA_ROM_C:CONST:REORDER:NOROOT(0)
        DATA8
`?<Constant {(0.0F)}>`:
        DATA32
        DD 0H
        DB 0, 0, 0, 0, 0, 0, 0, 0
        DB 0, 0, 0, 0

        RSEG XDATA_ROM_C:CONST:REORDER:NOROOT(0)
        DATA8
`?<Constant {(0.0F), (0.0F), (0.0F), (0.0F)}>`:
        DATA32
        DD 0H
        DD 0H
        DD 0H
        DD 0H

        RSEG XDATA_ROM_C:CONST:REORDER:NOROOT(0)
        DATA32
__Constant_40800000:
        DD 40800000H

        RSEG XDATA_ROM_C:CONST:REORDER:NOROOT(0)
        DATA32
__Constant_41200000:
        DD 41200000H

        RSEG XDATA_ROM_C:CONST:REORDER:NOROOT(0)
        DATA32
__Constant_3f000000:
        DD 3F000000H

        RSEG XDATA_ROM_C:CONST:REORDER:NOROOT(0)
        DATA32
__Constant_40000000:
        DD 40000000H

        RSEG XDATA_ROM_C:CONST:REORDER:NOROOT(0)
        DATA32
__Constant_3f800000:
        DD 3F800000H

        END
//  316 
//  317 
//  318 /*********************************************************************
//  319 *********************************************************************/
// 
// 5 865 bytes in segment BANKED_CODE
//    48 bytes in segment BANK_RELAYS
//    58 bytes in segment XDATA_ROM_C
// 
// 5 913 bytes of CODE  memory
//    38 bytes of CONST memory (+ 20 bytes shared)
//
//Errors: none
//Warnings: none
