###############################################################################
#                                                                             #
# IAR C/C++ Compiler V8.20.2.41139 for 8051             01/Jan/2016  15:52:12 #
# Copyright 2004-2013 IAR Systems AB.                                         #
#                                                                             #
#    Core               =  plain                                              #
#    Code model         =  banked                                             #
#    Data model         =  large                                              #
#    Calling convention =  xdata reentrant                                    #
#    Constant location  =  data_rom                                           #
#    Dptr setup         =  1,16                                               #
#                                                                             #
#    Source file        =  C:\Users\ArnoldWorkStation\Desktop\ZigbeeTest\Comp #
#                          onents\hal\target\CC2530EB\hal_adc.c               #
#    Command line       =  -f C:\Users\ArnoldWorkStation\Desktop\ZigbeeTest\P #
#                          rojects\zstack\Samples\SampleApp\CC2530DB\..\..\.. #
#                          \Tools\CC2530DB\f8wCoord.cfg (-DCPU32MHZ           #
#                          -DROOT=__near_func -DMAC_CFG_APP_PENDING_QUEUE=TRU #
#                          E -DZDO_COORDINATOR -DRTR_NWK -DBLINK_LEDS) -f     #
#                          C:\Users\ArnoldWorkStation\Desktop\ZigbeeTest\Proj #
#                          ects\zstack\Samples\SampleApp\CC2530DB\..\..\..\To #
#                          ols\CC2530DB\f8wConfig.cfg (-DSECURE=0             #
#                          -DZG_SECURE_DYNAMIC=0 -DREFLECTOR                  #
#                          -DDEFAULT_CHANLIST=0x00000800                      #
#                          -DZDAPP_CONFIG_PAN_ID=0xFFF1                       #
#                          -DNWK_START_DELAY=100 -DEXTENDED_JOINING_RANDOM_MA #
#                          SK=0x007F -DBEACON_REQUEST_DELAY=100               #
#                          -DBEACON_REQ_DELAY_MASK=0x00FF                     #
#                          -DROUTE_EXPIRY_TIME=30 -DAPSC_ACK_WAIT_DURATION_PO #
#                          LLED=3000 -DNWK_INDIRECT_MSG_TIMEOUT=7             #
#                          -DMAX_RREQ_ENTRIES=8 -DAPSC_MAX_FRAME_RETRIES=3    #
#                          -DNWK_MAX_DATA_RETRIES=2                           #
#                          -DMAX_POLL_FAILURE_RETRIES=2 -DMAX_BCAST=9         #
#                          -DAPS_MAX_GROUPS=16 -DMAX_RTG_ENTRIES=40           #
#                          -DNWK_MAX_BINDING_ENTRIES=4                        #
#                          -DMAX_BINDING_CLUSTER_IDS=4 "-DDEFAULT_KEY={0x01,  #
#                          0x03, 0x05, 0x07, 0x09, 0x0B, 0x0D, 0x0F, 0x00,    #
#                          0x02, 0x04, 0x06, 0x08, 0x0A, 0x0C, 0x0D}"         #
#                          -DMAC_MAX_FRAME_SIZE=116 "-DCONST=const __code"    #
#                          -DGENERIC=__generic -DRFD_RCVC_ALWAYS_ON=TRUE      #
#                          -DPOLL_RATE=1000 -DQUEUED_POLL_RATE=100            #
#                          -DRESPONSE_POLL_RATE=100) -DREJOIN_POLL_RATE=440   #
#                          C:\Users\ArnoldWorkStation\Desktop\ZigbeeTest\Comp #
#                          onents\hal\target\CC2530EB\hal_adc.c -D ZIGBEEPRO  #
#                          -D ZTOOL_P1 -D xMT_TASK -D xMT_SYS_FUNC -D         #
#                          xMT_ZDO_FUNC -D LCD_SUPPORTED=DEBUG -lC            #
#                          C:\Users\ArnoldWorkStation\Desktop\ZigbeeTest\Proj #
#                          ects\zstack\Samples\SampleApp\CC2530DB\Coordinator #
#                          EB-Pro\List\ -lA C:\Users\ArnoldWorkStation\Deskto #
#                          p\ZigbeeTest\Projects\zstack\Samples\SampleApp\CC2 #
#                          530DB\CoordinatorEB-Pro\List\ --diag_suppress      #
#                          Pe001,Pa010 -o C:\Users\ArnoldWorkStation\Desktop\ #
#                          ZigbeeTest\Projects\zstack\Samples\SampleApp\CC253 #
#                          0DB\CoordinatorEB-Pro\Obj\ -e --no_cse             #
#                          --no_unroll --no_inline --no_code_motion           #
#                          --no_tbaa --debug --core=plain --dptr=16,1         #
#                          --data_model=large --code_model=banked             #
#                          --calling_convention=xdata_reentrant               #
#                          --place_constants=data_rom --nr_virtual_regs 16    #
#                          -I C:\Users\ArnoldWorkStation\Desktop\ZigbeeTest\P #
#                          rojects\zstack\Samples\SampleApp\CC2530DB\ -I      #
#                          C:\Users\ArnoldWorkStation\Desktop\ZigbeeTest\Proj #
#                          ects\zstack\Samples\SampleApp\CC2530DB\..\SOURCE\  #
#                          -I C:\Users\ArnoldWorkStation\Desktop\ZigbeeTest\P #
#                          rojects\zstack\Samples\SampleApp\CC2530DB\..\..\.. #
#                          \ZMAIN\TI2530DB\ -I C:\Users\ArnoldWorkStation\Des #
#                          ktop\ZigbeeTest\Projects\zstack\Samples\SampleApp\ #
#                          CC2530DB\..\..\..\..\..\COMPONENTS\MT\ -I          #
#                          C:\Users\ArnoldWorkStation\Desktop\ZigbeeTest\Proj #
#                          ects\zstack\Samples\SampleApp\CC2530DB\..\..\..\.. #
#                          \..\COMPONENTS\HAL\INCLUDE\ -I                     #
#                          C:\Users\ArnoldWorkStation\Desktop\ZigbeeTest\Proj #
#                          ects\zstack\Samples\SampleApp\CC2530DB\..\..\..\.. #
#                          \..\COMPONENTS\HAL\TARGET\CC2530EB\ -I             #
#                          C:\Users\ArnoldWorkStation\Desktop\ZigbeeTest\Proj #
#                          ects\zstack\Samples\SampleApp\CC2530DB\..\..\..\.. #
#                          \..\COMPONENTS\OSAL\MCU\CCSOC\ -I                  #
#                          C:\Users\ArnoldWorkStation\Desktop\ZigbeeTest\Proj #
#                          ects\zstack\Samples\SampleApp\CC2530DB\..\..\..\.. #
#                          \..\COMPONENTS\OSAL\INCLUDE\ -I                    #
#                          C:\Users\ArnoldWorkStation\Desktop\ZigbeeTest\Proj #
#                          ects\zstack\Samples\SampleApp\CC2530DB\..\..\..\.. #
#                          \..\COMPONENTS\STACK\AF\ -I                        #
#                          C:\Users\ArnoldWorkStation\Desktop\ZigbeeTest\Proj #
#                          ects\zstack\Samples\SampleApp\CC2530DB\..\..\..\.. #
#                          \..\COMPONENTS\STACK\NWK\ -I                       #
#                          C:\Users\ArnoldWorkStation\Desktop\ZigbeeTest\Proj #
#                          ects\zstack\Samples\SampleApp\CC2530DB\..\..\..\.. #
#                          \..\COMPONENTS\STACK\SEC\ -I                       #
#                          C:\Users\ArnoldWorkStation\Desktop\ZigbeeTest\Proj #
#                          ects\zstack\Samples\SampleApp\CC2530DB\..\..\..\.. #
#                          \..\COMPONENTS\STACK\SAPI\ -I                      #
#                          C:\Users\ArnoldWorkStation\Desktop\ZigbeeTest\Proj #
#                          ects\zstack\Samples\SampleApp\CC2530DB\..\..\..\.. #
#                          \..\COMPONENTS\STACK\SYS\ -I                       #
#                          C:\Users\ArnoldWorkStation\Desktop\ZigbeeTest\Proj #
#                          ects\zstack\Samples\SampleApp\CC2530DB\..\..\..\.. #
#                          \..\COMPONENTS\STACK\ZDO\ -I                       #
#                          C:\Users\ArnoldWorkStation\Desktop\ZigbeeTest\Proj #
#                          ects\zstack\Samples\SampleApp\CC2530DB\..\..\..\.. #
#                          \..\COMPONENTS\ZMAC\F8W\ -I                        #
#                          C:\Users\ArnoldWorkStation\Desktop\ZigbeeTest\Proj #
#                          ects\zstack\Samples\SampleApp\CC2530DB\..\..\..\.. #
#                          \..\COMPONENTS\ZMAC\ -I C:\Users\ArnoldWorkStation #
#                          \Desktop\ZigbeeTest\Projects\zstack\Samples\Sample #
#                          App\CC2530DB\..\..\..\..\..\COMPONENTS\SERVICES\SA #
#                          DDR\ -I C:\Users\ArnoldWorkStation\Desktop\ZigbeeT #
#                          est\Projects\zstack\Samples\SampleApp\CC2530DB\..\ #
#                          ..\..\..\..\COMPONENTS\SERVICES\SDATA\ -I          #
#                          C:\Users\ArnoldWorkStation\Desktop\ZigbeeTest\Proj #
#                          ects\zstack\Samples\SampleApp\CC2530DB\..\..\..\.. #
#                          \..\COMPONENTS\MAC\INCLUDE\ -I                     #
#                          C:\Users\ArnoldWorkStation\Desktop\ZigbeeTest\Proj #
#                          ects\zstack\Samples\SampleApp\CC2530DB\..\..\..\.. #
#                          \..\COMPONENTS\MAC\HIGH_LEVEL\ -I                  #
#                          C:\Users\ArnoldWorkStation\Desktop\ZigbeeTest\Proj #
#                          ects\zstack\Samples\SampleApp\CC2530DB\..\..\..\.. #
#                          \..\COMPONENTS\MAC\LOW_LEVEL\srf04\ -I             #
#                          C:\Users\ArnoldWorkStation\Desktop\ZigbeeTest\Proj #
#                          ects\zstack\Samples\SampleApp\CC2530DB\..\..\..\.. #
#                          \..\COMPONENTS\MAC\LOW_LEVEL\srf04\SINGLE_CHIP\    #
#                          -On --require_prototypes                           #
#    List file          =  C:\Users\ArnoldWorkStation\Desktop\ZigbeeTest\Proj #
#                          ects\zstack\Samples\SampleApp\CC2530DB\Coordinator #
#                          EB-Pro\List\hal_adc.lst                            #
#    Object file        =  C:\Users\ArnoldWorkStation\Desktop\ZigbeeTest\Proj #
#                          ects\zstack\Samples\SampleApp\CC2530DB\Coordinator #
#                          EB-Pro\Obj\hal_adc.r51                             #
#                                                                             #
#                                                                             #
###############################################################################

C:\Users\ArnoldWorkStation\Desktop\ZigbeeTest\Components\hal\target\CC2530EB\hal_adc.c
      1          /**************************************************************************************************
      2            Filename:       hal_adc.c
      3            Revised:        $Date: 2009-12-17 13:13:47 -0800 (Thu, 17 Dec 2009) $
      4            Revision:       $Revision: 21356 $
      5          
      6            Description:    This file contains the interface to the HAL ADC.
      7          
      8          
      9            Copyright 2006-2009 Texas Instruments Incorporated. All rights reserved.
     10          
     11            IMPORTANT: Your use of this Software is limited to those specific rights
     12            granted under the terms of a software license agreement between the user
     13            who downloaded the software, his/her employer (which must be your employer)
     14            and Texas Instruments Incorporated (the "License").  You may not use this
     15            Software unless you agree to abide by the terms of the License. The License
     16            limits your use, and you acknowledge, that the Software may not be modified,
     17            copied or distributed unless embedded on a Texas Instruments microcontroller
     18            or used solely and exclusively in conjunction with a Texas Instruments radio
     19            frequency transceiver, which is integrated into your product.  Other than for
     20            the foregoing purpose, you may not use, reproduce, copy, prepare derivative
     21            works of, modify, distribute, perform, display or sell this Software and/or
     22            its documentation for any purpose.
     23          
     24            YOU FURTHER ACKNOWLEDGE AND AGREE THAT THE SOFTWARE AND DOCUMENTATION ARE
     25            PROVIDED “AS IS” WITHOUT WARRANTY OF ANY KIND, EITHER EXPRESS OR IMPLIED,
     26            INCLUDING WITHOUT LIMITATION, ANY WARRANTY OF MERCHANTABILITY, TITLE,
     27            NON-INFRINGEMENT AND FITNESS FOR A PARTICULAR PURPOSE. IN NO EVENT SHALL
     28            TEXAS INSTRUMENTS OR ITS LICENSORS BE LIABLE OR OBLIGATED UNDER CONTRACT,
     29            NEGLIGENCE, STRICT LIABILITY, CONTRIBUTION, BREACH OF WARRANTY, OR OTHER
     30            LEGAL EQUITABLE THEORY ANY DIRECT OR INDIRECT DAMAGES OR EXPENSES
     31            INCLUDING BUT NOT LIMITED TO ANY INCIDENTAL, SPECIAL, INDIRECT, PUNITIVE
     32            OR CONSEQUENTIAL DAMAGES, LOST PROFITS OR LOST DATA, COST OF PROCUREMENT
     33            OF SUBSTITUTE GOODS, TECHNOLOGY, SERVICES, OR ANY CLAIMS BY THIRD PARTIES
     34            (INCLUDING BUT NOT LIMITED TO ANY DEFENSE THEREOF), OR OTHER SIMILAR COSTS.
     35          
     36            Should you have any questions regarding your right to use this Software,
     37            contact Texas Instruments Incorporated at www.TI.com.
     38          **************************************************************************************************/
     39          
     40          /**************************************************************************************************
     41           *                                           INCLUDES
     42           **************************************************************************************************/
     43          #include  "hal_mcu.h"

   \                                 In  segment SFR_AN, at 0x88
   \   union <unnamed> volatile __sfr _A_TCON
   \                     _A_TCON:
   \   000000                DS 1

   \                                 In  segment SFR_AN, at 0xb4
   \   unsigned char volatile __sfr ADCCON1
   \                     ADCCON1:
   \   000000                DS 1

   \                                 In  segment SFR_AN, at 0xb5
   \   unsigned char volatile __sfr ADCCON2
   \                     ADCCON2:
   \   000000                DS 1

   \                                 In  segment SFR_AN, at 0xb6
   \   unsigned char volatile __sfr ADCCON3
   \                     ADCCON3:
   \   000000                DS 1

   \                                 In  segment SFR_AN, at 0xba
   \   unsigned char volatile __sfr ADCL
   \                     ADCL:
   \   000000                DS 1

   \                                 In  segment SFR_AN, at 0xbb
   \   unsigned char volatile __sfr ADCH
   \                     ADCH:
   \   000000                DS 1

   \                                 In  segment SFR_AN, at 0xf2
   \   unsigned char volatile __sfr ADCCFG
   \                     ADCCFG:
   \   000000                DS 1
     44          #include  "hal_defs.h"
     45          #include  "hal_types.h"
     46          #include  "hal_adc.h"
     47          
     48          /**************************************************************************************************
     49           *                                            CONSTANTS
     50           **************************************************************************************************/
     51          #define HAL_ADC_EOC         0x80    /* End of Conversion bit */
     52          #define HAL_ADC_START       0x40    /* Starts Conversion */
     53          
     54          #define HAL_ADC_STSEL_EXT   0x00    /* External Trigger */
     55          #define HAL_ADC_STSEL_FULL  0x10    /* Full Speed, No Trigger */
     56          #define HAL_ADC_STSEL_T1C0  0x20    /* Timer1, Channel 0 Compare Event Trigger */
     57          #define HAL_ADC_STSEL_ST    0x30    /* ADCCON1.ST =1 Trigger */
     58          
     59          #define HAL_ADC_RAND_NORM   0x00    /* Normal Operation */
     60          #define HAL_ADC_RAND_LFSR   0x04    /* Clock LFSR */
     61          #define HAL_ADC_RAND_SEED   0x08    /* Seed Modulator */
     62          #define HAL_ADC_RAND_STOP   0x0c    /* Stop Random Generator */
     63          #define HAL_ADC_RAND_BITS   0x0c    /* Bits [3:2] */
     64          
     65          #define HAL_ADC_DEC_064     0x00    /* Decimate by 64 : 8-bit resolution */
     66          #define HAL_ADC_DEC_128     0x10    /* Decimate by 128 : 10-bit resolution */
     67          #define HAL_ADC_DEC_256     0x20    /* Decimate by 256 : 12-bit resolution */
     68          #define HAL_ADC_DEC_512     0x30    /* Decimate by 512 : 14-bit resolution */
     69          #define HAL_ADC_DEC_BITS    0x30    /* Bits [5:4] */
     70          
     71          #define HAL_ADC_STSEL       HAL_ADC_STSEL_ST
     72          #define HAL_ADC_RAND_GEN    HAL_ADC_RAND_STOP
     73          #define HAL_ADC_REF_VOLT    HAL_ADC_REF_AVDD
     74          #define HAL_ADC_DEC_RATE    HAL_ADC_DEC_064
     75          #define HAL_ADC_SCHN        HAL_ADC_CHN_VDD3
     76          #define HAL_ADC_ECHN        HAL_ADC_CHN_GND
     77          
     78          /* Vdd limit values */

   \                                 In  segment CODE_C, align 1
     79          static __code const uint16 HalAdcVddLimit[] =
   \                     HalAdcVddLimit:
   \   000000   9C36         DW 13980
   \   000002   063A         DW 14854
   \   000004   703D         DW 15728
   \   000006   D940         DW 16601
   \   000008   4344         DW 17475
   \   00000A   AD47         DW 18349
   \   00000C   174B         DW 19223
   \   00000E   814E         DW 20097
   \   000010   EA51         DW 20970
     80          {
     81            0x369C,       /*  VDD Limit - 1.6v  */
     82            0x3A06,       /*  VDD Limit - 1.7v  */
     83            0x3D70,       /*  VDD Limit - 1.8v  */
     84            0x40D9,       /*  VDD Limit - 1.9v  */
     85            0x4443,       /*  VDD Limit - 2.0v  */
     86            0x47AD,       /*  VDD Limit - 2.1v  */
     87            0x4B17,       /*  VDD Limit - 2.2v  */
     88            0x4E81,       /*  VDD Limit - 2.3v  */
     89            0x51EA,       /*  VDD Limit - 2.4v  */
     90          };
     91          
     92          /**************************************************************************************************
     93           *                                              MACROS
     94           **************************************************************************************************/
     95          #define HAL_ADC_CLR_EOC()   asm("PUSH A"); asm("MOV A,ADCL"); asm("MOV A,ADCH"); asm("POP A");
     96          
     97          /**************************************************************************************************
     98           *                                            TYPEDEFS
     99           **************************************************************************************************/
    100          
    101          /**************************************************************************************************
    102           *                                         GLOBAL VARIABLES
    103           **************************************************************************************************/
    104          
    105          /**************************************************************************************************
    106           *                                          FUNCTIONS - API
    107           **************************************************************************************************/
    108          extern bool HalAdcCheckVdd (uint8 limit);
    109          
    110          /**************************************************************************************************
    111           * @fn      HalAdcInit
    112           *
    113           * @brief   Initialize ADC Service
    114           *
    115           * @param   None
    116           *
    117           * @return  None
    118           **************************************************************************************************/

   \                                 In  segment BANKED_CODE, align 1, keep-with-next
    119          void HalAdcInit (void)
   \                     HalAdcInit:
    120          {
   \   000000   C082         PUSH    DPL
   \   000002   C083         PUSH    DPH
   \   000004                ; Saved register size: 2
   \   000004                ; Auto size: 1
   \   000004   74FF         MOV     A,#-0x1
   \   000006   12....       LCALL   ?ALLOC_XSTACK8
    121          #if (HAL_ADC == TRUE)
    122            volatile uint8  tmp;
    123          
    124            ADCCON1 = HAL_ADC_STSEL | HAL_ADC_RAND_GEN | 0x03;
   \   000009   75B43F       MOV     0xb4,#0x3f
    125            ADCCON2 = HAL_ADC_REF_VOLT | HAL_ADC_DEC_RATE | HAL_ADC_SCHN;
   \   00000C   75B58F       MOV     0xb5,#-0x71
    126            /*
    127            *  After reset, the first ADC reading of the extra conversion always reads GND level.
    128            *  We will do a few dummy conversions to bypass this bug.
    129            */
    130            tmp = ADCL;     /* read ADCL,ADCH to clear EOC */
   \   00000F   E5BA         MOV     A,0xba
   \   000011   85..82       MOV     DPL,?XSP + 0
   \   000014   85..83       MOV     DPH,?XSP + 1
   \   000017   F0           MOVX    @DPTR,A
    131            tmp = ADCH;
   \   000018   E5BB         MOV     A,0xbb
   \   00001A   85..82       MOV     DPL,?XSP + 0
   \   00001D   85..83       MOV     DPH,?XSP + 1
   \   000020   F0           MOVX    @DPTR,A
    132            ADCCON3 = HAL_ADC_REF_VOLT | HAL_ADC_DEC_RATE | HAL_ADC_ECHN;
   \   000021   75B68C       MOV     0xb6,#-0x74
    133            while ((ADCCON1 & HAL_ADC_EOC) != HAL_ADC_EOC);   /* Wait for conversion */
   \                     ??HalAdcInit_0:
   \   000024   E5B4         MOV     A,0xb4
   \   000026   A2E7         MOV     C,0xE0 /* A   */.7
   \   000028   50FA         JNC     ??HalAdcInit_0
    134            tmp = ADCL;     /* read ADCL,ADCH to clear EOC */
   \   00002A   E5BA         MOV     A,0xba
   \   00002C   85..82       MOV     DPL,?XSP + 0
   \   00002F   85..83       MOV     DPH,?XSP + 1
   \   000032   F0           MOVX    @DPTR,A
    135            tmp = ADCH;
   \   000033   E5BB         MOV     A,0xbb
   \   000035   85..82       MOV     DPL,?XSP + 0
   \   000038   85..83       MOV     DPH,?XSP + 1
   \   00003B   F0           MOVX    @DPTR,A
    136            ADCCON3 = HAL_ADC_REF_VOLT | HAL_ADC_DEC_RATE | HAL_ADC_ECHN;
   \   00003C   75B68C       MOV     0xb6,#-0x74
    137            while ((ADCCON1 & HAL_ADC_EOC) != HAL_ADC_EOC);   /* Wait for conversion */
   \                     ??HalAdcInit_1:
   \   00003F   E5B4         MOV     A,0xb4
   \   000041   A2E7         MOV     C,0xE0 /* A   */.7
   \   000043   50FA         JNC     ??HalAdcInit_1
    138            tmp = ADCL;     /* read ADCL,ADCH to clear EOC */
   \   000045   E5BA         MOV     A,0xba
   \   000047   85..82       MOV     DPL,?XSP + 0
   \   00004A   85..83       MOV     DPH,?XSP + 1
   \   00004D   F0           MOVX    @DPTR,A
    139            tmp = ADCH;
   \   00004E   E5BB         MOV     A,0xbb
   \   000050   85..82       MOV     DPL,?XSP + 0
   \   000053   85..83       MOV     DPH,?XSP + 1
   \   000056   F0           MOVX    @DPTR,A
    140          #endif
    141          }
   \   000057   7401         MOV     A,#0x1
   \   000059   12....       LCALL   ?DEALLOC_XSTACK8
   \   00005C   D083         POP     DPH
   \   00005E   D082         POP     DPL
   \   000060   02....       LJMP    ?BRET
   \   000063                REQUIRE ADCCON1
   \   000063                REQUIRE ADCCON2
   \   000063                REQUIRE ADCL
   \   000063                REQUIRE ADCH
   \   000063                REQUIRE ADCCON3
    142          
    143          /**************************************************************************************************
    144           * @fn      HalAdcRead
    145           *
    146           * @brief   Read the ADC based on given channel and resolution
    147           *
    148           * @param   channel - channel where ADC will be read
    149           * @param   resolution - the resolution of the value
    150           *
    151           * @return  16 bit value of the ADC in offset binary format.
    152           *
    153           *          Note that the ADC is "bipolar", which means the GND (0V) level is mid-scale.
    154           *          Note2: This function assumes that ADCCON3 contains the voltage reference.
    155           **************************************************************************************************/

   \                                 In  segment BANKED_CODE, align 1, keep-with-next
    156          uint16 HalAdcRead (uint8 channel, uint8 resolution)
   \                     HalAdcRead:
    157          {
   \   000000   74F2         MOV     A,#-0xe
   \   000002   12....       LCALL   ?BANKED_ENTER_XDATA
   \   000005                ; Saved register size: 14
   \   000005                ; Auto size: 1
   \   000005   74FF         MOV     A,#-0x1
   \   000007   12....       LCALL   ?ALLOC_XSTACK8
   \   00000A   EA           MOV     A,R2
   \   00000B   FC           MOV     R4,A
    158            int16  reading = 0;
   \   00000C   7A00         MOV     R2,#0x0
   \   00000E   7B00         MOV     R3,#0x0
    159          
    160          #if (HAL_ADC == TRUE)
    161          
    162            uint8   i, resbits;
    163            uint8   adctemp;
    164            volatile  uint8 tmp;
    165            uint8  adcChannel = 1;
   \   000010   75..01       MOV     ?V0 + 4,#0x1
    166            uint8  reference;
    167          
    168            /* store the previously set reference voltage selection */
    169            reference = ADCCON3 & HAL_ADC_REF_BITS;
   \   000013   E5B6         MOV     A,0xb6
   \   000015   54C0         ANL     A,#0xc0
   \   000017   F5..         MOV     ?V0 + 5,A
    170          
    171            /*
    172            * If Analog input channel is AIN0..AIN7, make sure corresponing P0 I/O pin is enabled.  The code
    173            * does NOT disable the pin at the end of this function.  I think it is better to leave the pin
    174            * enabled because the results will be more accurate.  Because of the inherent capacitance on the
    175            * pin, it takes time for the voltage on the pin to charge up to its steady-state level.  If
    176            * HalAdcRead() has to turn on the pin for every conversion, the results may show a lower voltage
    177            * than actuality because the pin did not have time to fully charge.
    178            */
    179            if (channel < 8)
   \   000019   E9           MOV     A,R1
   \   00001A   C3           CLR     C
   \   00001B   9408         SUBB    A,#0x8
   \   00001D   5010         JNC     ??HalAdcRead_0
    180            {
    181              for (i=0; i < channel; i++)
   \   00001F   7D00         MOV     R5,#0x0
   \                     ??HalAdcRead_1:
   \   000021   ED           MOV     A,R5
   \   000022   C3           CLR     C
   \   000023   99           SUBB    A,R1
   \   000024   5009         JNC     ??HalAdcRead_0
    182              {
    183                adcChannel <<= 1;
   \   000026   E5..         MOV     A,?V0 + 4
   \   000028   C3           CLR     C
   \   000029   33           RLC     A
   \   00002A   F5..         MOV     ?V0 + 4,A
    184              }
   \   00002C   0D           INC     R5
   \   00002D   80F2         SJMP    ??HalAdcRead_1
    185            }
    186          
    187            /* Enable channel */
    188            ADCCFG |= adcChannel;
   \                     ??HalAdcRead_0:
   \   00002F   E5..         MOV     A,?V0 + 4
   \   000031   42F2         ORL     0xf2,A
    189          
    190            /* Convert resolution to decimation rate */
    191            switch (resolution)
   \   000033   EC           MOV     A,R4
   \   000034   14           DEC     A
   \   000035   6008         JZ      ??HalAdcRead_2
   \   000037   14           DEC     A
   \   000038   600A         JZ      ??HalAdcRead_3
   \   00003A   14           DEC     A
   \   00003B   600C         JZ      ??HalAdcRead_4
   \   00003D   800F         SJMP    ??HalAdcRead_5
    192            {
    193              case HAL_ADC_RESOLUTION_8:
    194                resbits = HAL_ADC_DEC_064;
   \                     ??HalAdcRead_2:
   \   00003F   75..00       MOV     ?V0 + 3,#0x0
    195                break;
   \   000042   800D         SJMP    ??HalAdcRead_6
    196              case HAL_ADC_RESOLUTION_10:
    197                resbits = HAL_ADC_DEC_128;
   \                     ??HalAdcRead_3:
   \   000044   75..10       MOV     ?V0 + 3,#0x10
    198                break;
   \   000047   8008         SJMP    ??HalAdcRead_6
    199              case HAL_ADC_RESOLUTION_12:
    200                resbits = HAL_ADC_DEC_256;
   \                     ??HalAdcRead_4:
   \   000049   75..20       MOV     ?V0 + 3,#0x20
    201                break;
   \   00004C   8003         SJMP    ??HalAdcRead_6
    202              case HAL_ADC_RESOLUTION_14:
    203              default:
    204                resbits = HAL_ADC_DEC_512;
   \                     ??HalAdcRead_5:
   \   00004E   75..30       MOV     ?V0 + 3,#0x30
    205                break;
    206            }
    207          
    208            /* read ADCL,ADCH to clear EOC */
    209            tmp = ADCL;
   \                     ??HalAdcRead_6:
   \   000051   E5BA         MOV     A,0xba
   \   000053   85..82       MOV     DPL,?XSP + 0
   \   000056   85..83       MOV     DPH,?XSP + 1
   \   000059   F0           MOVX    @DPTR,A
    210            tmp = ADCH;
   \   00005A   E5BB         MOV     A,0xbb
   \   00005C   85..82       MOV     DPL,?XSP + 0
   \   00005F   85..83       MOV     DPH,?XSP + 1
   \   000062   F0           MOVX    @DPTR,A
    211          
    212            /* Setup Sample */
    213            adctemp = ADCCON3;
   \   000063   E5B6         MOV     A,0xb6
   \   000065   F5..         MOV     ?V0 + 2,A
    214            adctemp &= ~(HAL_ADC_CHN_BITS | HAL_ADC_DEC_BITS | HAL_ADC_REF_BITS);
   \   000067   75..00       MOV     ?V0 + 2,#0x0
    215            adctemp |= channel | resbits | (reference);
   \   00006A   E9           MOV     A,R1
   \   00006B   45..         ORL     A,?V0 + 3
   \   00006D   45..         ORL     A,?V0 + 5
   \   00006F   42..         ORL     ?V0 + 2,A
    216          
    217            /* writing to this register starts the extra conversion */
    218            ADCCON3 = adctemp;
   \   000071   85..B6       MOV     0xb6,?V0 + 2
    219          
    220            /* Wait for the conversion to be done */
    221            while (!(ADCCON1 & HAL_ADC_EOC));
   \                     ??HalAdcRead_7:
   \   000074   E5B4         MOV     A,0xb4
   \   000076   A2E7         MOV     C,0xE0 /* A   */.7
   \   000078   50FA         JNC     ??HalAdcRead_7
    222          
    223            /* Disable channel after done conversion */
    224            ADCCFG &= (adcChannel ^ 0xFF);
   \   00007A   74FF         MOV     A,#-0x1
   \   00007C   65..         XRL     A,?V0 + 4
   \   00007E   52F2         ANL     0xf2,A
    225          
    226            /* Read the result */
    227            reading = (int16) (ADCL);
   \   000080   E5BA         MOV     A,0xba
   \   000082   FE           MOV     R6,A
   \   000083   7F00         MOV     R7,#0x0
   \   000085   FA           MOV     R2,A
   \   000086   EF           MOV     A,R7
   \   000087   FB           MOV     R3,A
    228            reading |= (int16) (ADCH << 8);
   \   000088   E5BB         MOV     A,0xbb
   \   00008A   FE           MOV     R6,A
   \   00008B   7F00         MOV     R7,#0x0
   \   00008D   E4           CLR     A
   \   00008E   CE           XCH     A,R6
   \   00008F   FF           MOV     R7,A
   \   000090   EE           MOV     A,R6
   \   000091   4A           ORL     A,R2
   \   000092   FA           MOV     R2,A
   \   000093   EF           MOV     A,R7
   \   000094   4B           ORL     A,R3
   \   000095   FB           MOV     R3,A
    229          
    230            /* Treat small negative as 0 */
    231            if (reading < 0)
   \   000096   C3           CLR     C
   \   000097   EA           MOV     A,R2
   \   000098   9400         SUBB    A,#0x0
   \   00009A   EB           MOV     A,R3
   \   00009B   9400         SUBB    A,#0x0
   \   00009D   A2D2         MOV     C,0xD0 /* PSW */.2
   \   00009F   65D0         XRL     A,PSW
   \   0000A1   33           RLC     A
   \   0000A2   5004         JNC     ??HalAdcRead_8
    232              reading = 0;
   \   0000A4   7A00         MOV     R2,#0x0
   \   0000A6   7B00         MOV     R3,#0x0
    233          
    234            switch (resolution)
   \                     ??HalAdcRead_8:
   \   0000A8   EC           MOV     A,R4
   \   0000A9   14           DEC     A
   \   0000AA   6008         JZ      ??HalAdcRead_9
   \   0000AC   14           DEC     A
   \   0000AD   6016         JZ      ??HalAdcRead_10
   \   0000AF   14           DEC     A
   \   0000B0   6024         JZ      ??HalAdcRead_11
   \   0000B2   8033         SJMP    ??HalAdcRead_12
    235            {
    236              case HAL_ADC_RESOLUTION_8:
    237                reading >>= 8;
   \                     ??HalAdcRead_9:
   \   0000B4   8A..         MOV     ?V0 + 0,R2
   \   0000B6   8B..         MOV     ?V0 + 1,R3
   \   0000B8   7408         MOV     A,#0x8
   \   0000BA   78..         MOV     R0,#?V0 + 0
   \   0000BC   12....       LCALL   ?SS_SHR
   \   0000BF   AA..         MOV     R2,?V0 + 0
   \   0000C1   AB..         MOV     R3,?V0 + 1
    238                break;
   \   0000C3   8031         SJMP    ??HalAdcRead_13
    239              case HAL_ADC_RESOLUTION_10:
    240                reading >>= 6;
   \                     ??HalAdcRead_10:
   \   0000C5   8A..         MOV     ?V0 + 0,R2
   \   0000C7   8B..         MOV     ?V0 + 1,R3
   \   0000C9   7406         MOV     A,#0x6
   \   0000CB   78..         MOV     R0,#?V0 + 0
   \   0000CD   12....       LCALL   ?SS_SHR
   \   0000D0   AA..         MOV     R2,?V0 + 0
   \   0000D2   AB..         MOV     R3,?V0 + 1
    241                break;
   \   0000D4   8020         SJMP    ??HalAdcRead_13
    242              case HAL_ADC_RESOLUTION_12:
    243                reading >>= 4;
   \                     ??HalAdcRead_11:
   \   0000D6   8A..         MOV     ?V0 + 0,R2
   \   0000D8   8B..         MOV     ?V0 + 1,R3
   \   0000DA   7404         MOV     A,#0x4
   \   0000DC   78..         MOV     R0,#?V0 + 0
   \   0000DE   12....       LCALL   ?SS_SHR
   \   0000E1   AA..         MOV     R2,?V0 + 0
   \   0000E3   AB..         MOV     R3,?V0 + 1
    244                break;
   \   0000E5   800F         SJMP    ??HalAdcRead_13
    245              case HAL_ADC_RESOLUTION_14:
    246              default:
    247                reading >>= 2;
   \                     ??HalAdcRead_12:
   \   0000E7   8A..         MOV     ?V0 + 0,R2
   \   0000E9   8B..         MOV     ?V0 + 1,R3
   \   0000EB   7402         MOV     A,#0x2
   \   0000ED   78..         MOV     R0,#?V0 + 0
   \   0000EF   12....       LCALL   ?SS_SHR
   \   0000F2   AA..         MOV     R2,?V0 + 0
   \   0000F4   AB..         MOV     R3,?V0 + 1
    248              break;
    249            }
    250          #else
    251            // unused arguments
    252            (void) channel;
    253            (void) resolution;
    254          #endif
    255          
    256            return ((uint16)reading);
   \                     ??HalAdcRead_13:
   \   0000F6   7401         MOV     A,#0x1
   \   0000F8   12....       LCALL   ?DEALLOC_XSTACK8
   \   0000FB   7F06         MOV     R7,#0x6
   \   0000FD   02....       LJMP    ?BANKED_LEAVE_XDATA
   \   000100                REQUIRE ADCCON3
   \   000100                REQUIRE ADCCFG
   \   000100                REQUIRE ADCL
   \   000100                REQUIRE ADCH
   \   000100                REQUIRE ADCCON1
    257          }
    258          
    259          /**************************************************************************************************
    260           * @fn      HalAdcSetReference
    261           *
    262           * @brief   Sets the reference voltage for the ADC and initializes the service
    263           *
    264           * @param   reference - the reference voltage to be used by the ADC
    265           *
    266           * @return  none
    267           *
    268           **************************************************************************************************/

   \                                 In  segment BANKED_CODE, align 1, keep-with-next
    269          void HalAdcSetReference ( uint8 reference )
   \                     HalAdcSetReference:
    270          {
   \   000000   C082         PUSH    DPL
   \   000002   C083         PUSH    DPH
   \   000004                ; Saved register size: 2
   \   000004                ; Auto size: 1
   \   000004   74FF         MOV     A,#-0x1
   \   000006   12....       LCALL   ?ALLOC_XSTACK8
    271          #if (HAL_ADC == TRUE)
    272            volatile uint8 tmp;
    273          
    274            ADCCON1 = HAL_ADC_STSEL | HAL_ADC_RAND_GEN | 0x03;
   \   000009   75B43F       MOV     0xb4,#0x3f
    275            ADCCON2 = (reference) | HAL_ADC_DEC_RATE | HAL_ADC_SCHN;
   \   00000C   740F         MOV     A,#0xf
   \   00000E   49           ORL     A,R1
   \   00000F   F5B5         MOV     0xb5,A
    276            /*
    277            *  After reset, the first ADC reading of the extra conversion always reads GND level.
    278            *  We will do a few dummy conversions to bypass this bug.
    279            */
    280            tmp = ADCL;     /* read ADCL,ADCH to clear EOC */
   \   000011   E5BA         MOV     A,0xba
   \   000013   85..82       MOV     DPL,?XSP + 0
   \   000016   85..83       MOV     DPH,?XSP + 1
   \   000019   F0           MOVX    @DPTR,A
    281            tmp = ADCH;
   \   00001A   E5BB         MOV     A,0xbb
   \   00001C   85..82       MOV     DPL,?XSP + 0
   \   00001F   85..83       MOV     DPH,?XSP + 1
   \   000022   F0           MOVX    @DPTR,A
    282            ADCCON3 = (reference) | HAL_ADC_DEC_RATE | HAL_ADC_ECHN;
   \   000023   740C         MOV     A,#0xc
   \   000025   49           ORL     A,R1
   \   000026   F5B6         MOV     0xb6,A
    283            while ((ADCCON1 & HAL_ADC_EOC) != HAL_ADC_EOC);   /* Wait for conversion */
   \                     ??HalAdcSetReference_0:
   \   000028   E5B4         MOV     A,0xb4
   \   00002A   A2E7         MOV     C,0xE0 /* A   */.7
   \   00002C   50FA         JNC     ??HalAdcSetReference_0
    284            tmp = ADCL;     /* read ADCL,ADCH to clear EOC */
   \   00002E   E5BA         MOV     A,0xba
   \   000030   85..82       MOV     DPL,?XSP + 0
   \   000033   85..83       MOV     DPH,?XSP + 1
   \   000036   F0           MOVX    @DPTR,A
    285            tmp = ADCH;
   \   000037   E5BB         MOV     A,0xbb
   \   000039   85..82       MOV     DPL,?XSP + 0
   \   00003C   85..83       MOV     DPH,?XSP + 1
   \   00003F   F0           MOVX    @DPTR,A
    286            ADCCON3 = (reference) | HAL_ADC_DEC_RATE | HAL_ADC_ECHN;
   \   000040   740C         MOV     A,#0xc
   \   000042   49           ORL     A,R1
   \   000043   F5B6         MOV     0xb6,A
    287            while ((ADCCON1 & HAL_ADC_EOC) != HAL_ADC_EOC);   /* Wait for conversion */
   \                     ??HalAdcSetReference_1:
   \   000045   E5B4         MOV     A,0xb4
   \   000047   A2E7         MOV     C,0xE0 /* A   */.7
   \   000049   50FA         JNC     ??HalAdcSetReference_1
    288            tmp = ADCL;     /* read ADCL,ADCH to clear EOC */
   \   00004B   E5BA         MOV     A,0xba
   \   00004D   85..82       MOV     DPL,?XSP + 0
   \   000050   85..83       MOV     DPH,?XSP + 1
   \   000053   F0           MOVX    @DPTR,A
    289            tmp = ADCH;
   \   000054   E5BB         MOV     A,0xbb
   \   000056   85..82       MOV     DPL,?XSP + 0
   \   000059   85..83       MOV     DPH,?XSP + 1
   \   00005C   F0           MOVX    @DPTR,A
    290          #endif
    291          }
   \   00005D   7401         MOV     A,#0x1
   \   00005F   12....       LCALL   ?DEALLOC_XSTACK8
   \   000062   D083         POP     DPH
   \   000064   D082         POP     DPL
   \   000066   02....       LJMP    ?BRET
   \   000069                REQUIRE ADCCON1
   \   000069                REQUIRE ADCCON2
   \   000069                REQUIRE ADCL
   \   000069                REQUIRE ADCH
   \   000069                REQUIRE ADCCON3
    292          
    293          /**************************************************************************************************
    294           * @fn      HalAdcCheckVdd
    295           *
    296           * @brief   Check the Vdd and return TRUE if it greater than or equal the limit
    297           *
    298           * @param   limit - limit that needs to be checked with the Vdd
    299           *
    300           * @return  TRUE if Vdd >= limit, FALSE otherwise
    301           *
    302           **************************************************************************************************/

   \                                 In  segment BANKED_CODE, align 1, keep-with-next
    303          bool HalAdcCheckVdd (uint8 limit)
   \                     HalAdcCheckVdd:
    304          {
   \   000000   74F7         MOV     A,#-0x9
   \   000002   12....       LCALL   ?BANKED_ENTER_XDATA
   \   000005                ; Saved register size: 9
   \   000005                ; Auto size: 0
   \   000005   E9           MOV     A,R1
   \   000006   FD           MOV     R5,A
    305            uint16 value;
    306            uint8 tmpADCCON3 = ADCCON3;  // Save ADCCON3 to restore later
   \   000007   E5B6         MOV     A,0xb6
   \   000009   FE           MOV     R6,A
    307          
    308            /* Clear ADC interrupt flag */
    309            ADCIF = 0;
   \   00000A   C28D         CLR     0x88.5
    310          
    311            /* Setup the new value for conversion */
    312            ADCCON3 = (HAL_ADC_REF_125V | HAL_ADC_DEC_064 | HAL_ADC_CHN_VDD3);
   \   00000C   75B60F       MOV     0xb6,#0xf
    313          
    314            /* Wait for the conversion to finish */
    315            while ( !ADCIF );
   \                     ??HalAdcCheckVdd_0:
   \   00000F   A28D         MOV     C,0x88.5
   \   000011   50FC         JNC     ??HalAdcCheckVdd_0
    316          
    317            /* Get the result */
    318            value = ADCL;
   \   000013   E5BA         MOV     A,0xba
   \   000015   F8           MOV     R0,A
   \   000016   7900         MOV     R1,#0x0
   \   000018   FA           MOV     R2,A
   \   000019   E9           MOV     A,R1
   \   00001A   FB           MOV     R3,A
    319            value |= ((uint16) ADCH) << 8;
   \   00001B   E5BB         MOV     A,0xbb
   \   00001D   F8           MOV     R0,A
   \   00001E   7900         MOV     R1,#0x0
   \   000020   E4           CLR     A
   \   000021   C8           XCH     A,R0
   \   000022   F9           MOV     R1,A
   \   000023   E8           MOV     A,R0
   \   000024   4A           ORL     A,R2
   \   000025   FA           MOV     R2,A
   \   000026   E9           MOV     A,R1
   \   000027   4B           ORL     A,R3
   \   000028   FB           MOV     R3,A
    320          
    321            // Restore ADCCON3
    322            ADCCON3 = tmpADCCON3;
   \   000029   8EB6         MOV     0xb6,R6
    323            
    324            /* Check the limit and return */
    325            return ( value >= HalAdcVddLimit[limit] );
   \   00002B   ED           MOV     A,R5
   \   00002C   F8           MOV     R0,A
   \   00002D   7900         MOV     R1,#0x0
   \   00002F   E8           MOV     A,R0
   \   000030   75F002       MOV     B,#0x2
   \   000033   A4           MUL     AB
   \   000034   C8           XCH     A,R0
   \   000035   ACF0         MOV     R4,B
   \   000037   75F000       MOV     B,#0x0
   \   00003A   A4           MUL     AB
   \   00003B   2C           ADD     A,R4
   \   00003C   FC           MOV     R4,A
   \   00003D   75F002       MOV     B,#0x2
   \   000040   E9           MOV     A,R1
   \   000041   A4           MUL     AB
   \   000042   2C           ADD     A,R4
   \   000043   F9           MOV     R1,A
   \   000044   74..         MOV     A,#HalAdcVddLimit & 0xff
   \   000046   28           ADD     A,R0
   \   000047   F582         MOV     DPL,A
   \   000049   74..         MOV     A,#(HalAdcVddLimit >> 8) & 0xff
   \   00004B   39           ADDC    A,R1
   \   00004C   F583         MOV     DPH,A
   \   00004E   E4           CLR     A
   \   00004F   93           MOVC    A,@A+DPTR
   \   000050   F8           MOV     R0,A
   \   000051   7401         MOV     A,#0x1
   \   000053   93           MOVC    A,@A+DPTR
   \   000054   F9           MOV     R1,A
   \   000055   C3           CLR     C
   \   000056   EA           MOV     A,R2
   \   000057   98           SUBB    A,R0
   \   000058   EB           MOV     A,R3
   \   000059   99           SUBB    A,R1
   \   00005A   4004         JC      ??HalAdcCheckVdd_1
   \   00005C   7901         MOV     R1,#0x1
   \   00005E   8002         SJMP    ??HalAdcCheckVdd_2
   \                     ??HalAdcCheckVdd_1:
   \   000060   7900         MOV     R1,#0x0
   \                     ??HalAdcCheckVdd_2:
   \   000062   7F01         MOV     R7,#0x1
   \   000064   02....       LJMP    ?BANKED_LEAVE_XDATA
   \   000067                REQUIRE ADCCON3
   \   000067                REQUIRE _A_TCON
   \   000067                REQUIRE ADCL
   \   000067                REQUIRE ADCH
    326          }

   \                                 In  segment BANK_RELAYS, align 1
   \                     ??HalAdcInit?relay:
   \   000000   12....       LCALL   ?BDISPATCH
   \   000003   ......       DC24    HalAdcInit

   \                                 In  segment BANK_RELAYS, align 1
   \                     ??HalAdcRead?relay:
   \   000000   12....       LCALL   ?BDISPATCH
   \   000003   ......       DC24    HalAdcRead

   \                                 In  segment BANK_RELAYS, align 1
   \                     ??HalAdcSetReference?relay:
   \   000000   12....       LCALL   ?BDISPATCH
   \   000003   ......       DC24    HalAdcSetReference

   \                                 In  segment BANK_RELAYS, align 1
   \                     ??HalAdcCheckVdd?relay:
   \   000000   12....       LCALL   ?BDISPATCH
   \   000003   ......       DC24    HalAdcCheckVdd
    327          
    328          /**************************************************************************************************
    329          **************************************************************************************************/

   Maximum stack usage in bytes:

   ISTACK PSTACK XSTACK Function
   ------ ------ ------ --------
       0      0      9  HalAdcCheckVdd
       3      0      1  HalAdcInit
       1      0     15  HalAdcRead
       3      0      1  HalAdcSetReference


   Segment part sizes:

   Bytes  Function/Label
   -----  --------------
       6  ??HalAdcCheckVdd?relay
       6  ??HalAdcInit?relay
       6  ??HalAdcRead?relay
       6  ??HalAdcSetReference?relay
       1  ADCCFG
       1  ADCCON1
       1  ADCCON2
       1  ADCCON3
       1  ADCH
       1  ADCL
     103  HalAdcCheckVdd
      99  HalAdcInit
     256  HalAdcRead
     105  HalAdcSetReference
      18  HalAdcVddLimit
       1  _A_TCON

 
 563 bytes in segment BANKED_CODE
  24 bytes in segment BANK_RELAYS
  18 bytes in segment CODE_C
   7 bytes in segment SFR_AN
 
 605 bytes of CODE memory
   0 bytes of DATA memory (+ 7 bytes shared)

Errors: none
Warnings: none
