###############################################################################
#                                                                             #
# IAR C/C++ Compiler V8.20.2.41139 for 8051             01/Jan/2016  15:52:29 #
# Copyright 2004-2013 IAR Systems AB.                                         #
#                                                                             #
#    Core               =  plain                                              #
#    Code model         =  banked                                             #
#    Data model         =  large                                              #
#    Calling convention =  xdata reentrant                                    #
#    Constant location  =  data_rom                                           #
#    Dptr setup         =  1,16                                               #
#                                                                             #
#    Source file        =  C:\Users\ArnoldWorkStation\Desktop\ZigbeeTest\Comp #
#                          onents\mac\low_level\srf04\mac_rx.c                #
#    Command line       =  -f C:\Users\ArnoldWorkStation\Desktop\ZigbeeTest\P #
#                          rojects\zstack\Samples\SampleApp\CC2530DB\..\..\.. #
#                          \Tools\CC2530DB\f8wCoord.cfg (-DCPU32MHZ           #
#                          -DROOT=__near_func -DMAC_CFG_APP_PENDING_QUEUE=TRU #
#                          E -DZDO_COORDINATOR -DRTR_NWK -DBLINK_LEDS) -f     #
#                          C:\Users\ArnoldWorkStation\Desktop\ZigbeeTest\Proj #
#                          ects\zstack\Samples\SampleApp\CC2530DB\..\..\..\To #
#                          ols\CC2530DB\f8wConfig.cfg (-DSECURE=0             #
#                          -DZG_SECURE_DYNAMIC=0 -DREFLECTOR                  #
#                          -DDEFAULT_CHANLIST=0x00000800                      #
#                          -DZDAPP_CONFIG_PAN_ID=0xFFF1                       #
#                          -DNWK_START_DELAY=100 -DEXTENDED_JOINING_RANDOM_MA #
#                          SK=0x007F -DBEACON_REQUEST_DELAY=100               #
#                          -DBEACON_REQ_DELAY_MASK=0x00FF                     #
#                          -DROUTE_EXPIRY_TIME=30 -DAPSC_ACK_WAIT_DURATION_PO #
#                          LLED=3000 -DNWK_INDIRECT_MSG_TIMEOUT=7             #
#                          -DMAX_RREQ_ENTRIES=8 -DAPSC_MAX_FRAME_RETRIES=3    #
#                          -DNWK_MAX_DATA_RETRIES=2                           #
#                          -DMAX_POLL_FAILURE_RETRIES=2 -DMAX_BCAST=9         #
#                          -DAPS_MAX_GROUPS=16 -DMAX_RTG_ENTRIES=40           #
#                          -DNWK_MAX_BINDING_ENTRIES=4                        #
#                          -DMAX_BINDING_CLUSTER_IDS=4 "-DDEFAULT_KEY={0x01,  #
#                          0x03, 0x05, 0x07, 0x09, 0x0B, 0x0D, 0x0F, 0x00,    #
#                          0x02, 0x04, 0x06, 0x08, 0x0A, 0x0C, 0x0D}"         #
#                          -DMAC_MAX_FRAME_SIZE=116 "-DCONST=const __code"    #
#                          -DGENERIC=__generic -DRFD_RCVC_ALWAYS_ON=TRUE      #
#                          -DPOLL_RATE=1000 -DQUEUED_POLL_RATE=100            #
#                          -DRESPONSE_POLL_RATE=100) -DREJOIN_POLL_RATE=440   #
#                          C:\Users\ArnoldWorkStation\Desktop\ZigbeeTest\Comp #
#                          onents\mac\low_level\srf04\mac_rx.c -D ZIGBEEPRO   #
#                          -D ZTOOL_P1 -D xMT_TASK -D xMT_SYS_FUNC -D         #
#                          xMT_ZDO_FUNC -D LCD_SUPPORTED=DEBUG -lC            #
#                          C:\Users\ArnoldWorkStation\Desktop\ZigbeeTest\Proj #
#                          ects\zstack\Samples\SampleApp\CC2530DB\Coordinator #
#                          EB-Pro\List\ -lA C:\Users\ArnoldWorkStation\Deskto #
#                          p\ZigbeeTest\Projects\zstack\Samples\SampleApp\CC2 #
#                          530DB\CoordinatorEB-Pro\List\ --diag_suppress      #
#                          Pe001,Pa010 -o C:\Users\ArnoldWorkStation\Desktop\ #
#                          ZigbeeTest\Projects\zstack\Samples\SampleApp\CC253 #
#                          0DB\CoordinatorEB-Pro\Obj\ -e --no_cse             #
#                          --no_unroll --no_inline --no_code_motion           #
#                          --no_tbaa --debug --core=plain --dptr=16,1         #
#                          --data_model=large --code_model=banked             #
#                          --calling_convention=xdata_reentrant               #
#                          --place_constants=data_rom --nr_virtual_regs 16    #
#                          -I C:\Users\ArnoldWorkStation\Desktop\ZigbeeTest\P #
#                          rojects\zstack\Samples\SampleApp\CC2530DB\ -I      #
#                          C:\Users\ArnoldWorkStation\Desktop\ZigbeeTest\Proj #
#                          ects\zstack\Samples\SampleApp\CC2530DB\..\SOURCE\  #
#                          -I C:\Users\ArnoldWorkStation\Desktop\ZigbeeTest\P #
#                          rojects\zstack\Samples\SampleApp\CC2530DB\..\..\.. #
#                          \ZMAIN\TI2530DB\ -I C:\Users\ArnoldWorkStation\Des #
#                          ktop\ZigbeeTest\Projects\zstack\Samples\SampleApp\ #
#                          CC2530DB\..\..\..\..\..\COMPONENTS\MT\ -I          #
#                          C:\Users\ArnoldWorkStation\Desktop\ZigbeeTest\Proj #
#                          ects\zstack\Samples\SampleApp\CC2530DB\..\..\..\.. #
#                          \..\COMPONENTS\HAL\INCLUDE\ -I                     #
#                          C:\Users\ArnoldWorkStation\Desktop\ZigbeeTest\Proj #
#                          ects\zstack\Samples\SampleApp\CC2530DB\..\..\..\.. #
#                          \..\COMPONENTS\HAL\TARGET\CC2530EB\ -I             #
#                          C:\Users\ArnoldWorkStation\Desktop\ZigbeeTest\Proj #
#                          ects\zstack\Samples\SampleApp\CC2530DB\..\..\..\.. #
#                          \..\COMPONENTS\OSAL\MCU\CCSOC\ -I                  #
#                          C:\Users\ArnoldWorkStation\Desktop\ZigbeeTest\Proj #
#                          ects\zstack\Samples\SampleApp\CC2530DB\..\..\..\.. #
#                          \..\COMPONENTS\OSAL\INCLUDE\ -I                    #
#                          C:\Users\ArnoldWorkStation\Desktop\ZigbeeTest\Proj #
#                          ects\zstack\Samples\SampleApp\CC2530DB\..\..\..\.. #
#                          \..\COMPONENTS\STACK\AF\ -I                        #
#                          C:\Users\ArnoldWorkStation\Desktop\ZigbeeTest\Proj #
#                          ects\zstack\Samples\SampleApp\CC2530DB\..\..\..\.. #
#                          \..\COMPONENTS\STACK\NWK\ -I                       #
#                          C:\Users\ArnoldWorkStation\Desktop\ZigbeeTest\Proj #
#                          ects\zstack\Samples\SampleApp\CC2530DB\..\..\..\.. #
#                          \..\COMPONENTS\STACK\SEC\ -I                       #
#                          C:\Users\ArnoldWorkStation\Desktop\ZigbeeTest\Proj #
#                          ects\zstack\Samples\SampleApp\CC2530DB\..\..\..\.. #
#                          \..\COMPONENTS\STACK\SAPI\ -I                      #
#                          C:\Users\ArnoldWorkStation\Desktop\ZigbeeTest\Proj #
#                          ects\zstack\Samples\SampleApp\CC2530DB\..\..\..\.. #
#                          \..\COMPONENTS\STACK\SYS\ -I                       #
#                          C:\Users\ArnoldWorkStation\Desktop\ZigbeeTest\Proj #
#                          ects\zstack\Samples\SampleApp\CC2530DB\..\..\..\.. #
#                          \..\COMPONENTS\STACK\ZDO\ -I                       #
#                          C:\Users\ArnoldWorkStation\Desktop\ZigbeeTest\Proj #
#                          ects\zstack\Samples\SampleApp\CC2530DB\..\..\..\.. #
#                          \..\COMPONENTS\ZMAC\F8W\ -I                        #
#                          C:\Users\ArnoldWorkStation\Desktop\ZigbeeTest\Proj #
#                          ects\zstack\Samples\SampleApp\CC2530DB\..\..\..\.. #
#                          \..\COMPONENTS\ZMAC\ -I C:\Users\ArnoldWorkStation #
#                          \Desktop\ZigbeeTest\Projects\zstack\Samples\Sample #
#                          App\CC2530DB\..\..\..\..\..\COMPONENTS\SERVICES\SA #
#                          DDR\ -I C:\Users\ArnoldWorkStation\Desktop\ZigbeeT #
#                          est\Projects\zstack\Samples\SampleApp\CC2530DB\..\ #
#                          ..\..\..\..\COMPONENTS\SERVICES\SDATA\ -I          #
#                          C:\Users\ArnoldWorkStation\Desktop\ZigbeeTest\Proj #
#                          ects\zstack\Samples\SampleApp\CC2530DB\..\..\..\.. #
#                          \..\COMPONENTS\MAC\INCLUDE\ -I                     #
#                          C:\Users\ArnoldWorkStation\Desktop\ZigbeeTest\Proj #
#                          ects\zstack\Samples\SampleApp\CC2530DB\..\..\..\.. #
#                          \..\COMPONENTS\MAC\HIGH_LEVEL\ -I                  #
#                          C:\Users\ArnoldWorkStation\Desktop\ZigbeeTest\Proj #
#                          ects\zstack\Samples\SampleApp\CC2530DB\..\..\..\.. #
#                          \..\COMPONENTS\MAC\LOW_LEVEL\srf04\ -I             #
#                          C:\Users\ArnoldWorkStation\Desktop\ZigbeeTest\Proj #
#                          ects\zstack\Samples\SampleApp\CC2530DB\..\..\..\.. #
#                          \..\COMPONENTS\MAC\LOW_LEVEL\srf04\SINGLE_CHIP\    #
#                          -On --require_prototypes                           #
#    List file          =  C:\Users\ArnoldWorkStation\Desktop\ZigbeeTest\Proj #
#                          ects\zstack\Samples\SampleApp\CC2530DB\Coordinator #
#                          EB-Pro\List\mac_rx.lst                             #
#    Object file        =  C:\Users\ArnoldWorkStation\Desktop\ZigbeeTest\Proj #
#                          ects\zstack\Samples\SampleApp\CC2530DB\Coordinator #
#                          EB-Pro\Obj\mac_rx.r51                              #
#                                                                             #
#                                                                             #
###############################################################################

C:\Users\ArnoldWorkStation\Desktop\ZigbeeTest\Components\mac\low_level\srf04\mac_rx.c
      1          /**************************************************************************************************
      2            Filename:       mac_rx.c
      3            Revised:        $Date: 2007-10-08 14:05:36 -0700 (Mon, 08 Oct 2007) $
      4            Revision:       $Revision: 15624 $
      5          
      6            Description:    Describe the purpose and contents of the file.
      7          
      8          
      9            Copyright 2006-2009 Texas Instruments Incorporated. All rights reserved.
     10          
     11            IMPORTANT: Your use of this Software is limited to those specific rights
     12            granted under the terms of a software license agreement between the user
     13            who downloaded the software, his/her employer (which must be your employer)
     14            and Texas Instruments Incorporated (the "License").  You may not use this
     15            Software unless you agree to abide by the terms of the License. The License
     16            limits your use, and you acknowledge, that the Software may not be modified,
     17            copied or distributed unless embedded on a Texas Instruments microcontroller
     18            or used solely and exclusively in conjunction with a Texas Instruments radio
     19            frequency transceiver, which is integrated into your product.  Other than for
     20            the foregoing purpose, you may not use, reproduce, copy, prepare derivative
     21            works of, modify, distribute, perform, display or sell this Software and/or
     22            its documentation for any purpose.
     23          
     24            YOU FURTHER ACKNOWLEDGE AND AGREE THAT THE SOFTWARE AND DOCUMENTATION ARE
     25            PROVIDED “AS IS” WITHOUT WARRANTY OF ANY KIND, EITHER EXPRESS OR IMPLIED,
     26            INCLUDING WITHOUT LIMITATION, ANY WARRANTY OF MERCHANTABILITY, TITLE,
     27            NON-INFRINGEMENT AND FITNESS FOR A PARTICULAR PURPOSE. IN NO EVENT SHALL
     28            TEXAS INSTRUMENTS OR ITS LICENSORS BE LIABLE OR OBLIGATED UNDER CONTRACT,
     29            NEGLIGENCE, STRICT LIABILITY, CONTRIBUTION, BREACH OF WARRANTY, OR OTHER
     30            LEGAL EQUITABLE THEORY ANY DIRECT OR INDIRECT DAMAGES OR EXPENSES
     31            INCLUDING BUT NOT LIMITED TO ANY INCIDENTAL, SPECIAL, INDIRECT, PUNITIVE
     32            OR CONSEQUENTIAL DAMAGES, LOST PROFITS OR LOST DATA, COST OF PROCUREMENT
     33            OF SUBSTITUTE GOODS, TECHNOLOGY, SERVICES, OR ANY CLAIMS BY THIRD PARTIES
     34            (INCLUDING BUT NOT LIMITED TO ANY DEFENSE THEREOF), OR OTHER SIMILAR COSTS.
     35          
     36            Should you have any questions regarding your right to use this Software,
     37            contact Texas Instruments Incorporated at www.TI.com.
     38          **************************************************************************************************/
     39          
     40          /* ------------------------------------------------------------------------------------------------
     41           *                                          Includes
     42           * ------------------------------------------------------------------------------------------------
     43           */
     44          
     45          /* hal */
     46          #include "hal_defs.h"
     47          #include "hal_types.h"
     48          
     49          /* high-level */
     50          #include "mac_high_level.h"
     51          #include "mac_spec.h"
     52          
     53          /* exported low-level */
     54          #include "mac_low_level.h"
     55          
     56          /* low-level specific */
     57          #include "mac_rx.h"
     58          #include "mac_tx.h"
     59          #include "mac_rx_onoff.h"
     60          #include "mac_radio.h"
     61          
     62          /* target specific */
     63          #include "mac_radio_defs.h"

   \                                 In  segment SFR_AN, at 0x91
   \   unsigned char volatile __sfr RFIRQF1
   \                     RFIRQF1:
   \   000000                DS 1

   \                                 In  segment SFR_AN, at 0x9b
   \   unsigned char volatile __sfr S1CON
   \                     S1CON:
   \   000000                DS 1

   \                                 In  segment SFR_AN, at 0xa8
   \   union <unnamed> volatile __sfr _A_IEN0
   \                     _A_IEN0:
   \   000000                DS 1

   \                                 In  segment SFR_AN, at 0xe1
   \   unsigned char volatile __sfr RFST
   \                     RFST:
   \   000000                DS 1

   \                                 In  segment SFR_AN, at 0xe9
   \   unsigned char volatile __sfr RFIRQF0
   \                     RFIRQF0:
   \   000000                DS 1
     64          #include "mac_autopend.h"
     65          
     66          /* debug */
     67          #include "mac_assert.h"
     68          
     69          
     70          /* ------------------------------------------------------------------------------------------------
     71           *                                            Defines
     72           * ------------------------------------------------------------------------------------------------
     73           */
     74          #define MAX_PAYLOAD_BYTES_READ_PER_INTERRUPT   16   /* adjustable to tune performance */
     75          
     76          /* receive FIFO bytes needed to start a valid receive (see function rxStartIsr for details) */
     77          #define RX_THRESHOLD_START_LEN    (MAC_PHY_PHR_LEN        +  \
     78                                             MAC_FCF_FIELD_LEN      +  \
     79                                             MAC_SEQ_NUM_FIELD_LEN  +  \
     80                                             MAC_FCS_FIELD_LEN)
     81          
     82          /* maximum size of addressing fields (note: command frame identifier processed as part of address) */
     83          #define MAX_ADDR_FIELDS_LEN  ((MAC_EXT_ADDR_FIELD_LEN + MAC_PAN_ID_FIELD_LEN) * 2)
     84          
     85          /* addressing mode reserved value */
     86          #define ADDR_MODE_RESERVERED  1
     87          
     88          /* length of command frame identifier */
     89          #define CMD_FRAME_ID_LEN      1
     90          
     91          /* packet size mask is equal to the maximum value */
     92          #define PHY_PACKET_SIZE_MASK  0x7F
     93          
     94          /* value for promiscuous off, must not conflict with other mode variants from separate include files */
     95          #define PROMISCUOUS_MODE_OFF  0x00
     96          
     97          /* bit of proprietary FCS format that indicates if the CRC is OK */
     98          #define PROPRIETARY_FCS_CRC_OK_BIT  0x80
     99          
    100          /* dummy length value for unused entry in lookup table */
    101          #define DUMMY_LEN   0xBE
    102          
    103          /* value for rxThresholdIntState */
    104          #define RX_THRESHOLD_INT_STATE_INACTIVE   0
    105          #define RX_THRESHOLD_INT_STATE_ACTIVE     1
    106          #define RX_THRESHOLD_INT_STATE_RESET      2
    107          
    108          
    109          /* ------------------------------------------------------------------------------------------------
    110           *                                             Macros
    111           * ------------------------------------------------------------------------------------------------
    112           */
    113          #define MEM_ALLOC(x)   macDataRxMemAlloc(x)
    114          #define MEM_FREE(x)    macDataRxMemFree((uint8 **)x)
    115          
    116          /*
    117           *  Macro for encoding frame control information into internal flags format.
    118           *  Parameter is pointer to the frame.  NOTE!  If either the internal frame
    119           *  format *or* the specification changes, this macro will need to be modified.
    120           */
    121          #define INTERNAL_FCF_FLAGS(p)  ((((p)[1] >> 4) & 0x03) | ((p)[0] & 0x78))
    122          
    123          /*
    124           *  The radio replaces the actual FCS with different information.  This proprietary FCS is
    125           *  the same length as the original and includes:
    126           *    1) the RSSI value
    127           *    2) the average correlation value (used for LQI)
    128           *    3) a CRC passed bit
    129           *
    130           *  These macros decode the proprietary FCS.  The macro parameter is a pointer to the two byte FCS.
    131           */
    132          #define PROPRIETARY_FCS_RSSI(p)                 ((int8)((p)[0]))
    133          #define PROPRIETARY_FCS_CRC_OK(p)               ((p)[1] & PROPRIETARY_FCS_CRC_OK_BIT)
    134          #define PROPRIETARY_FCS_CORRELATION_VALUE(p)    ((p)[1] & ~PROPRIETARY_FCS_CRC_OK_BIT)
    135          
    136          
    137          /* ------------------------------------------------------------------------------------------------
    138           *                                       Global Variables
    139           * ------------------------------------------------------------------------------------------------
    140           */

   \                                 In  segment XDATA_Z, align 1, keep-with-next
    141          uint8 macRxActive;
   \                     macRxActive:
   \   000000                DS 1
   \   000001                REQUIRE __INIT_XDATA_Z

   \                                 In  segment XDATA_Z, align 1, keep-with-next
    142          uint8 macRxFilter;
   \                     macRxFilter:
   \   000000                DS 1
   \   000001                REQUIRE __INIT_XDATA_Z

   \                                 In  segment XDATA_Z, align 1, keep-with-next
    143          uint8 macRxOutgoingAckFlag;
   \                     macRxOutgoingAckFlag:
   \   000000                DS 1
   \   000001                REQUIRE __INIT_XDATA_Z
    144          
    145          
    146          /* ------------------------------------------------------------------------------------------------
    147           *                                       Local Constants
    148           * ------------------------------------------------------------------------------------------------
    149           */

   \                                 In  segment CODE_C, align 1
    150          static const uint8 CODE macRxAddrLen[] =
   \                     macRxAddrLen:
   \   000000   00           DB 0
   \   000001   BE           DB 190
   \   000002   04           DB 4
   \   000003   0A           DB 10
    151          {
    152            0,                                                /* no address */
    153            DUMMY_LEN,                                        /* reserved */
    154            MAC_PAN_ID_FIELD_LEN + MAC_SHORT_ADDR_FIELD_LEN,  /* short address + pan id */
    155            MAC_PAN_ID_FIELD_LEN + MAC_EXT_ADDR_FIELD_LEN     /* extended address + pan id */
    156          };
    157          
    158          
    159          /* ------------------------------------------------------------------------------------------------
    160           *                                       Local Prototypes
    161           * ------------------------------------------------------------------------------------------------
    162           */
    163          static void rxHaltCleanupFinalStep(void);
    164          
    165          static void rxStartIsr(void);
    166          static void rxAddrIsr(void);
    167          static void rxPayloadIsr(void);
    168          static void rxDiscardIsr(void);
    169          static void rxFcsIsr(void);
    170          
    171          static void rxPrepPayload(void);
    172          static void rxDiscardFrame(void);
    173          static void rxDone(void);
    174          static void rxPostRxUpdates(void);
    175          
    176          
    177          /* ------------------------------------------------------------------------------------------------
    178           *                                         Local Variables
    179           * ------------------------------------------------------------------------------------------------
    180           */

   \                                 In  segment XDATA_Z, align 1, keep-with-next
    181          static void    (* pFuncRxState)(void);
   \                     pFuncRxState:
   \   000000                DS 2
   \   000002                REQUIRE __INIT_XDATA_Z

   \                                 In  segment XDATA_Z, align 1, keep-with-next
    182          static macRx_t  * pRxBuf;
   \                     pRxBuf:
   \   000000                DS 2
   \   000002                REQUIRE __INIT_XDATA_Z
    183          

   \                                 In  segment XDATA_Z, align 1, keep-with-next
    184          static uint8  rxBuf[MAC_PHY_PHR_LEN + MAC_FCF_FIELD_LEN + MAC_SEQ_NUM_FIELD_LEN];
   \                     rxBuf:
   \   000000                DS 4
   \   000004                REQUIRE __INIT_XDATA_Z

   \                                 In  segment XDATA_Z, align 1, keep-with-next
    185          static uint8  rxUnreadLen;
   \                     rxUnreadLen:
   \   000000                DS 1
   \   000001                REQUIRE __INIT_XDATA_Z

   \                                 In  segment XDATA_Z, align 1, keep-with-next
    186          static uint8  rxNextLen;
   \                     rxNextLen:
   \   000000                DS 1
   \   000001                REQUIRE __INIT_XDATA_Z

   \                                 In  segment XDATA_Z, align 1, keep-with-next
    187          static uint8  rxPayloadLen;
   \                     rxPayloadLen:
   \   000000                DS 1
   \   000001                REQUIRE __INIT_XDATA_Z

   \                                 In  segment XDATA_Z, align 1, keep-with-next
    188          static uint8  rxFilter;
   \                     rxFilter:
   \   000000                DS 1
   \   000001                REQUIRE __INIT_XDATA_Z

   \                                 In  segment XDATA_Z, align 1, keep-with-next
    189          static uint8  rxPromiscuousMode;
   \                     rxPromiscuousMode:
   \   000000                DS 1
   \   000001                REQUIRE __INIT_XDATA_Z

   \                                 In  segment XDATA_Z, align 1, keep-with-next
    190          static uint8  rxIsrActiveFlag;
   \                     rxIsrActiveFlag:
   \   000000                DS 1
   \   000001                REQUIRE __INIT_XDATA_Z

   \                                 In  segment XDATA_Z, align 1, keep-with-next
    191          static uint8  rxResetFlag;
   \                     rxResetFlag:
   \   000000                DS 1
   \   000001                REQUIRE __INIT_XDATA_Z

   \                                 In  segment XDATA_Z, align 1, keep-with-next
    192          static uint8  rxFifoOverflowCount;
   \                     rxFifoOverflowCount:
   \   000000                DS 1
   \   000001                REQUIRE __INIT_XDATA_Z
    193          
    194          
    195          /**************************************************************************************************
    196           * @fn          macRxInit
    197           *
    198           * @brief       Initialize receive variable states.
    199           *
    200           * @param       none
    201           *
    202           * @return      none
    203           **************************************************************************************************
    204           */

   \                                 In  segment BANKED_CODE, align 1, keep-with-next
    205          MAC_INTERNAL_API void macRxInit(void)
   \                     macRxInit:
    206          {
   \   000000   C082         PUSH    DPL
   \   000002   C083         PUSH    DPH
   \   000004                ; Saved register size: 2
   \   000004                ; Auto size: 0
    207            macRxFilter          = RX_FILTER_OFF;
   \   000004   90....       MOV     DPTR,#macRxFilter
   \   000007   7400         MOV     A,#0x0
   \   000009   F0           MOVX    @DPTR,A
    208            rxPromiscuousMode    = PROMISCUOUS_MODE_OFF;
   \   00000A   90....       MOV     DPTR,#rxPromiscuousMode
   \   00000D   7400         MOV     A,#0x0
   \   00000F   F0           MOVX    @DPTR,A
    209            pRxBuf               = NULL; /* required for macRxReset() to function correctly */
   \   000010   90....       MOV     DPTR,#pRxBuf
   \   000013   7400         MOV     A,#0x0
   \   000015   F0           MOVX    @DPTR,A
   \   000016   A3           INC     DPTR
   \   000017   7400         MOV     A,#0x0
   \   000019   F0           MOVX    @DPTR,A
    210            macRxActive          = MAC_RX_ACTIVE_NO_ACTIVITY;
   \   00001A   90....       MOV     DPTR,#macRxActive
   \   00001D   7400         MOV     A,#0x0
   \   00001F   F0           MOVX    @DPTR,A
    211            pFuncRxState         = &rxStartIsr;
   \   000020   90....       MOV     DPTR,#pFuncRxState
   \   000023   74..         MOV     A,#??rxStartIsr?relay & 0xff
   \   000025   F0           MOVX    @DPTR,A
   \   000026   A3           INC     DPTR
   \   000027   74..         MOV     A,#(??rxStartIsr?relay >> 8) & 0xff
   \   000029   F0           MOVX    @DPTR,A
    212            macRxOutgoingAckFlag = 0;
   \   00002A   90....       MOV     DPTR,#macRxOutgoingAckFlag
   \   00002D   7400         MOV     A,#0x0
   \   00002F   F0           MOVX    @DPTR,A
    213            rxIsrActiveFlag      = 0;
   \   000030   90....       MOV     DPTR,#rxIsrActiveFlag
   \   000033   7400         MOV     A,#0x0
   \   000035   F0           MOVX    @DPTR,A
    214            rxResetFlag          = 0;
   \   000036   90....       MOV     DPTR,#rxResetFlag
   \   000039   7400         MOV     A,#0x0
   \   00003B   F0           MOVX    @DPTR,A
    215            rxFifoOverflowCount  = 0;
   \   00003C   90....       MOV     DPTR,#rxFifoOverflowCount
   \   00003F   7400         MOV     A,#0x0
   \   000041   F0           MOVX    @DPTR,A
    216          }
   \   000042   D083         POP     DPH
   \   000044   D082         POP     DPL
   \   000046   02....       LJMP    ?BRET
    217          
    218          
    219          /**************************************************************************************************
    220           * @fn          macRxRadioPowerUpInit
    221           *
    222           * @brief       Initialization for after radio first powers up.
    223           *
    224           * @param       none
    225           *
    226           * @return      none
    227           **************************************************************************************************
    228           */

   \                                 In  segment BANKED_CODE, align 1, keep-with-next
    229          MAC_INTERNAL_API void macRxRadioPowerUpInit(void)
   \                     macRxRadioPowerUpInit:
    230          {
   \   000000   C082         PUSH    DPL
   \   000002   C083         PUSH    DPH
   \   000004                ; Saved register size: 2
   \   000004                ; Auto size: 0
    231            /* set threshold at initial value */
    232            MAC_RADIO_SET_RX_THRESHOLD(RX_THRESHOLD_START_LEN);
   \   000004   906194       MOV     DPTR,#0x6194
   \   000007   7405         MOV     A,#0x5
   \   000009   F0           MOVX    @DPTR,A
    233          
    234            /* clear any accidental threshold interrupt that happened as part of power up sequence */
    235            MAC_RADIO_CLEAR_RX_THRESHOLD_INTERRUPT_FLAG();
   \   00000A   A2AF         MOV     C,0xa8.7
   \   00000C   E4           CLR     A
   \   00000D   33           RLC     A
   \   00000E   F8           MOV     R0,A
   \   00000F   C2AF         CLR     0xa8.7
   \   000011   759B00       MOV     0x9b,#0x0
   \   000014   75E9FB       MOV     0xe9,#-0x5
   \   000017   E8           MOV     A,R0
   \   000018   F9           MOV     R1,A
   \   000019   E8           MOV     A,R0
   \   00001A   A2E0         MOV     C,0xE0 /* A   */.0
   \   00001C   92AF         MOV     0xa8.7,C
    236          
    237            /* enable threshold interrupts */
    238            MAC_RADIO_ENABLE_RX_THRESHOLD_INTERRUPT();
   \   00001E   9061A3       MOV     DPTR,#0x61a3
   \   000021   E0           MOVX    A,@DPTR
   \   000022   D2E2         SETB    0xE0 /* A   */.2
   \   000024   F0           MOVX    @DPTR,A
    239          }
   \   000025   D083         POP     DPH
   \   000027   D082         POP     DPL
   \   000029   02....       LJMP    ?BRET
   \   00002C                REQUIRE _A_IEN0
   \   00002C                REQUIRE S1CON
   \   00002C                REQUIRE RFIRQF0
    240          
    241          
    242          /**************************************************************************************************
    243           * @fn          macRxTxReset
    244           *
    245           * @brief       Reset the receive state.
    246           *
    247           * @param       none
    248           *
    249           * @return      none
    250           **************************************************************************************************
    251           */

   \                                 In  segment BANKED_CODE, align 1, keep-with-next
    252          MAC_INTERNAL_API void macRxTxReset(void)
   \                     macRxTxReset:
    253          {
   \   000000   C082         PUSH    DPL
   \   000002   C083         PUSH    DPH
   \   000004                ; Saved register size: 2
   \   000004                ; Auto size: 0
    254            /* forces receiver off, cleans up by calling macRxHaltCleanup() and macTxHaltCleanup() */
    255            macRxHardDisable();
   \   000004                ; Setup parameters for call to function macRxHardDisable
   \   000004   12....       LCALL   ??macRxHardDisable?relay
    256          
    257            /*
    258             *   Note : transmit does not require any reset logic
    259             *          beyond what macRxHardDisable() provides.
    260             */
    261          
    262            /* restore deault filter mode to off */
    263            macRxFilter = RX_FILTER_OFF;
   \   000007   90....       MOV     DPTR,#macRxFilter
   \   00000A   7400         MOV     A,#0x0
   \   00000C   F0           MOVX    @DPTR,A
    264          
    265            /* return promiscuous mode to default off state */
    266            macRxPromiscuousMode(MAC_PROMISCUOUS_MODE_OFF);
   \   00000D                ; Setup parameters for call to function macRxPromiscuousMode
   \   00000D   7900         MOV     R1,#0x0
   \   00000F   12....       LCALL   ??macRxPromiscuousMode?relay
    267          }
   \   000012   D083         POP     DPH
   \   000014   D082         POP     DPL
   \   000016   02....       LJMP    ?BRET
    268          
    269          
    270          /**************************************************************************************************
    271           * @fn          macRxHaltCleanup
    272           *
    273           * @brief       Cleanup up the receive logic after receiver is forced off.
    274           *
    275           * @param       none
    276           *
    277           * @return      none
    278           **************************************************************************************************
    279           */

   \                                 In  segment BANKED_CODE, align 1, keep-with-next
    280          MAC_INTERNAL_API void macRxHaltCleanup(void)
   \                     macRxHaltCleanup:
    281          {
   \   000000   C082         PUSH    DPL
   \   000002   C083         PUSH    DPH
   \   000004                ; Saved register size: 2
   \   000004                ; Auto size: 0
    282            rxResetFlag = 1;
   \   000004   90....       MOV     DPTR,#rxResetFlag
   \   000007   7401         MOV     A,#0x1
   \   000009   F0           MOVX    @DPTR,A
    283            if (!rxIsrActiveFlag)
   \   00000A   90....       MOV     DPTR,#rxIsrActiveFlag
   \   00000D   E0           MOVX    A,@DPTR
   \   00000E   7009         JNZ     ??macRxHaltCleanup_0
    284            {
    285              rxHaltCleanupFinalStep();
   \   000010                ; Setup parameters for call to function rxHaltCleanupFinalStep
   \   000010   12....       LCALL   ??rxHaltCleanupFinalStep?relay
    286              rxResetFlag = 0;
   \   000013   90....       MOV     DPTR,#rxResetFlag
   \   000016   7400         MOV     A,#0x0
   \   000018   F0           MOVX    @DPTR,A
    287            }
    288          }
   \                     ??macRxHaltCleanup_0:
   \   000019   D083         POP     DPH
   \   00001B   D082         POP     DPL
   \   00001D   02....       LJMP    ?BRET
    289          
    290          
    291          /*=================================================================================================
    292           * @fn          rxHaltCleanupFinalStep
    293           *
    294           * @brief       Required cleanup if receiver is halted in the middle of a receive.
    295           *
    296           * @param       none
    297           *
    298           * @return      none
    299           *=================================================================================================
    300           */

   \                                 In  segment BANKED_CODE, align 1, keep-with-next
    301          static void rxHaltCleanupFinalStep(void)
   \                     rxHaltCleanupFinalStep:
    302          {
   \   000000   74F7         MOV     A,#-0x9
   \   000002   12....       LCALL   ?BANKED_ENTER_XDATA
   \   000005                ; Saved register size: 9
   \   000005                ; Auto size: 0
    303            /* cancel any upcoming ACK transmit complete callback */
    304            MAC_RADIO_CANCEL_ACK_TX_DONE_CALLBACK();
   \   000005   9061A4       MOV     DPTR,#0x61a4
   \   000008   E0           MOVX    A,@DPTR
   \   000009   C2E0         CLR     0xE0 /* A   */.0
   \   00000B   F0           MOVX    @DPTR,A
    305          
    306            /* set start of frame threshold */
    307            MAC_RADIO_SET_RX_THRESHOLD(RX_THRESHOLD_START_LEN);
   \   00000C   906194       MOV     DPTR,#0x6194
   \   00000F   7405         MOV     A,#0x5
   \   000011   F0           MOVX    @DPTR,A
    308          
    309            /* flush the receive FIFO */
    310            MAC_RADIO_FLUSH_RX_FIFO();
   \   000012   75E1ED       MOV     0xe1,#-0x13
   \   000015   75E1ED       MOV     0xe1,#-0x13
    311          
    312            /* clear any receive interrupt that happened to squeak through */
    313            MAC_RADIO_CLEAR_RX_THRESHOLD_INTERRUPT_FLAG();
   \   000018   A2AF         MOV     C,0xa8.7
   \   00001A   E4           CLR     A
   \   00001B   33           RLC     A
   \   00001C   FA           MOV     R2,A
   \   00001D   C2AF         CLR     0xa8.7
   \   00001F   759B00       MOV     0x9b,#0x0
   \   000022   75E9FB       MOV     0xe9,#-0x5
   \   000025   EA           MOV     A,R2
   \   000026   FE           MOV     R6,A
   \   000027   EA           MOV     A,R2
   \   000028   A2E0         MOV     C,0xE0 /* A   */.0
   \   00002A   92AF         MOV     0xa8.7,C
    314          
    315            /* if data buffer has been allocated, free it */
    316            if (pRxBuf != NULL)
   \   00002C   90....       MOV     DPTR,#pRxBuf
   \   00002F   E0           MOVX    A,@DPTR
   \   000030   F8           MOV     R0,A
   \   000031   A3           INC     DPTR
   \   000032   E0           MOVX    A,@DPTR
   \   000033   F9           MOV     R1,A
   \   000034   E8           MOV     A,R0
   \   000035   49           ORL     A,R1
   \   000036   6008         JZ      ??rxHaltCleanupFinalStep_0
    317            {
    318              MEM_FREE((uint8 **)&pRxBuf);
   \   000038                ; Setup parameters for call to function macDataRxMemFree
   \   000038   7A..         MOV     R2,#pRxBuf & 0xff
   \   00003A   7B..         MOV     R3,#(pRxBuf >> 8) & 0xff
   \   00003C   12....       LCALL   ??macDataRxMemFree?relay
   \   00003F   E9           MOV     A,R1
    319            }
    320            pRxBuf = NULL; /* needed to indicate buffer is no longer allocated */
   \                     ??rxHaltCleanupFinalStep_0:
   \   000040   90....       MOV     DPTR,#pRxBuf
   \   000043   7400         MOV     A,#0x0
   \   000045   F0           MOVX    @DPTR,A
   \   000046   A3           INC     DPTR
   \   000047   7400         MOV     A,#0x0
   \   000049   F0           MOVX    @DPTR,A
    321          
    322            pFuncRxState = &rxStartIsr;
   \   00004A   90....       MOV     DPTR,#pFuncRxState
   \   00004D   74..         MOV     A,#??rxStartIsr?relay & 0xff
   \   00004F   F0           MOVX    @DPTR,A
   \   000050   A3           INC     DPTR
   \   000051   74..         MOV     A,#(??rxStartIsr?relay >> 8) & 0xff
   \   000053   F0           MOVX    @DPTR,A
    323          
    324            /* if receive was active, perform the post receive updates */
    325            if (macRxActive || macRxOutgoingAckFlag)
   \   000054   90....       MOV     DPTR,#macRxActive
   \   000057   E0           MOVX    A,@DPTR
   \   000058   7006         JNZ     ??rxHaltCleanupFinalStep_1
   \   00005A   90....       MOV     DPTR,#macRxOutgoingAckFlag
   \   00005D   E0           MOVX    A,@DPTR
   \   00005E   600F         JZ      ??rxHaltCleanupFinalStep_2
    326            {
    327              macRxActive = MAC_RX_ACTIVE_NO_ACTIVITY;
   \                     ??rxHaltCleanupFinalStep_1:
   \   000060   90....       MOV     DPTR,#macRxActive
   \   000063   7400         MOV     A,#0x0
   \   000065   F0           MOVX    @DPTR,A
    328              macRxOutgoingAckFlag = 0;
   \   000066   90....       MOV     DPTR,#macRxOutgoingAckFlag
   \   000069   7400         MOV     A,#0x0
   \   00006B   F0           MOVX    @DPTR,A
    329          
    330              rxPostRxUpdates();
   \   00006C                ; Setup parameters for call to function rxPostRxUpdates
   \   00006C   12....       LCALL   ??rxPostRxUpdates?relay
    331            }
    332          }
   \                     ??rxHaltCleanupFinalStep_2:
   \   00006F   7F01         MOV     R7,#0x1
   \   000071   02....       LJMP    ?BANKED_LEAVE_XDATA
   \   000074                REQUIRE RFST
   \   000074                REQUIRE _A_IEN0
   \   000074                REQUIRE S1CON
   \   000074                REQUIRE RFIRQF0
    333          
    334          
    335          /**************************************************************************************************
    336           * @fn          macRxThresholdIsr
    337           *
    338           * @brief       Interrupt service routine called when bytes in FIFO reach threshold value.
    339           *              It implements a state machine for receiving a packet.
    340           *
    341           * @param       none
    342           *
    343           * @return      none
    344           **************************************************************************************************
    345           */

   \                                 In  segment BANKED_CODE, align 1, keep-with-next
    346          MAC_INTERNAL_API void macRxThresholdIsr(void)
   \                     macRxThresholdIsr:
    347          {
   \   000000   C082         PUSH    DPL
   \   000002   C083         PUSH    DPH
   \   000004                ; Saved register size: 2
   \   000004                ; Auto size: 0
    348            /* if currently reseting, do not execute receive ISR logic */
    349            if (rxResetFlag)
   \   000004   90....       MOV     DPTR,#rxResetFlag
   \   000007   E0           MOVX    A,@DPTR
   \   000008   7029         JNZ     ??macRxThresholdIsr_0
    350            {
    351              return;
    352            }
    353          
    354            /*
    355             *  Call the function that handles the current receive state.
    356             *  A flag is set for the duration of the call to indicate
    357             *  the ISR is executing.  This is necessary for the reset
    358             *  logic so it does not perform a reset in the middle of
    359             *  executing the ISR.
    360             */
    361            rxIsrActiveFlag = 1;
   \   00000A   90....       MOV     DPTR,#rxIsrActiveFlag
   \   00000D   7401         MOV     A,#0x1
   \   00000F   F0           MOVX    @DPTR,A
    362            (*pFuncRxState)();
   \   000010                ; Setup parameters for indirect call
   \   000010   90....       MOV     DPTR,#pFuncRxState
   \   000013   E0           MOVX    A,@DPTR
   \   000014   F8           MOV     R0,A
   \   000015   A3           INC     DPTR
   \   000016   E0           MOVX    A,@DPTR
   \   000017   F583         MOV     DPH,A
   \   000019   8882         MOV     DPL,R0
   \   00001B   12....       LCALL   ?CALL_IND
    363            rxIsrActiveFlag = 0;
   \   00001E   90....       MOV     DPTR,#rxIsrActiveFlag
   \   000021   7400         MOV     A,#0x0
   \   000023   F0           MOVX    @DPTR,A
    364          
    365            /* if a reset occurred during the ISR, peform cleanup here */
    366            if (rxResetFlag)
   \   000024   90....       MOV     DPTR,#rxResetFlag
   \   000027   E0           MOVX    A,@DPTR
   \   000028   6009         JZ      ??macRxThresholdIsr_0
    367            {
    368              rxHaltCleanupFinalStep();
   \   00002A                ; Setup parameters for call to function rxHaltCleanupFinalStep
   \   00002A   12....       LCALL   ??rxHaltCleanupFinalStep?relay
    369              rxResetFlag = 0;
   \   00002D   90....       MOV     DPTR,#rxResetFlag
   \   000030   7400         MOV     A,#0x0
   \   000032   F0           MOVX    @DPTR,A
    370            }
    371          }
   \                     ??macRxThresholdIsr_0:
   \   000033   D083         POP     DPH
   \   000035   D082         POP     DPL
   \   000037   02....       LJMP    ?BRET
    372          
    373          
    374          /*=================================================================================================
    375           * @fn          rxStartIsr
    376           *
    377           * @brief       First ISR state for receiving a packet - compute packet length, allocate
    378           *              buffer, initialize buffer.  Acknowledgements are handled immediately without
    379           *              allocating a buffer.
    380           *
    381           * @param       none
    382           *
    383           * @return      none
    384           *=================================================================================================
    385           */

   \                                 In  segment BANKED_CODE, align 1, keep-with-next
    386          static void rxStartIsr(void)
   \                     rxStartIsr:
    387          {
   \   000000   74EE         MOV     A,#-0x12
   \   000002   12....       LCALL   ?BANKED_ENTER_XDATA
   \   000005                ; Saved register size: 18
   \   000005                ; Auto size: 2
   \   000005   74FE         MOV     A,#-0x2
   \   000007   12....       LCALL   ?ALLOC_XSTACK8
    388            uint8  addrLen;
    389            uint8  ackWithPending;
    390            uint8  dstAddrMode;
    391            uint8  srcAddrMode;
    392          
    393            MAC_ASSERT(!macRxActive); /* receive on top of receive */
   \   00000A   90....       MOV     DPTR,#macRxActive
   \   00000D   E0           MOVX    A,@DPTR
   \   00000E   6003         JZ      ??rxStartIsr_0
   \   000010                ; Setup parameters for call to function halAssertHandler
   \   000010   12....       LCALL   ??halAssertHandler?relay
    394          
    395            /* indicate rx is active */
    396            macRxActive = MAC_RX_ACTIVE_STARTED;
   \                     ??rxStartIsr_0:
   \   000013   90....       MOV     DPTR,#macRxActive
   \   000016   7481         MOV     A,#-0x7f
   \   000018   F0           MOVX    @DPTR,A
    397          
    398            /*
    399             *  For bullet proof functionality, need to see if the receiver was just turned off.
    400             *  The logic to request turning off the receiver, disables interrupts and then checks
    401             *  the value of macRxActive.  If it is TRUE, the receiver will not be turned off.
    402             *
    403             *  There is a small hole though.  It's possible to attempt turning off the receiver
    404             *  in the window from when the receive interrupt fires and the point where macRxActive
    405             *  is set to TRUE.  To plug this hole, the on/off status must be tested *after*
    406             *  macRxActive has been set.  If the receiver is off at this point, there is nothing
    407             *  in the RX fifo and the receive is simply aborted.
    408             *
    409             *  Also, there are some considerations in case a hard disable just happened.  Usually,
    410             *  the receiver will just be off at this point after a hard disable.  The check described
    411             *  above will account for this case too.  However, if a hard disable were immediately
    412             *  followed by an enable, the receiver would be on.  To catch this case, the receive
    413             *  FIFO is also tested to see if it is empty.  Recovery is identical to the other cases.
    414             */
    415            if (!macRxOnFlag || MAC_RADIO_RX_FIFO_IS_EMPTY())
   \   000019   90....       MOV     DPTR,#macRxOnFlag
   \   00001C   E0           MOVX    A,@DPTR
   \   00001D   6010         JZ      ??rxStartIsr_1
   \   00001F   906193       MOV     DPTR,#0x6193
   \   000022   E0           MOVX    A,@DPTR
   \   000023   A2E7         MOV     C,0xE0 /* A   */.7
   \   000025   4014         JC      ??rxStartIsr_2
   \   000027   906193       MOV     DPTR,#0x6193
   \   00002A   E0           MOVX    A,@DPTR
   \   00002B   A2E6         MOV     C,0xE0 /* A   */.6
   \   00002D   400C         JC      ??rxStartIsr_2
    416            {
    417              /* reset active flag */
    418              macRxActive = MAC_RX_ACTIVE_NO_ACTIVITY;
   \                     ??rxStartIsr_1:
   \   00002F   90....       MOV     DPTR,#macRxActive
   \   000032   7400         MOV     A,#0x0
   \   000034   F0           MOVX    @DPTR,A
    419          
    420              /*
    421               *  To be absolutely bulletproof, must make sure no transmit queue'ed up during
    422               *  the tiny, tiny window when macRxActive was not zero.
    423               */
    424              rxPostRxUpdates();
   \   000035                ; Setup parameters for call to function rxPostRxUpdates
   \   000035   12....       LCALL   ??rxPostRxUpdates?relay
    425          
    426              /* return immediately from here */
    427              return;
   \   000038   02....       LJMP    ??rxStartIsr_3 & 0xFFFF
    428            }
    429          
    430            /*
    431             *  If interrupts are held off for too long it's possible the previous "transmit done"
    432             *  callback is pending.  If this is the case, it needs to be completed before
    433             *  continuing with the receive logic.
    434             */
    435            MAC_RADIO_FORCE_TX_DONE_IF_PENDING();
   \                     ??rxStartIsr_2:
   \   00003B                ; Setup parameters for call to function macCspForceTxDoneIfPending
   \   00003B   12....       LCALL   ??macCspForceTxDoneIfPending?relay
    436          
    437            /*
    438             *  It's possible receive logic is still waiting for confirmation of an ACK that went out
    439             *  for the previous receive.  This is OK but the callback needs to be canceled at this point.
    440             *  That callback execute receive cleanup logic that will run at the completion
    441             *  of *this* receive.  Also, it is important the flag for the outgoing ACK to be cleared.
    442             */
    443            MAC_RADIO_CANCEL_ACK_TX_DONE_CALLBACK();
   \   00003E   9061A4       MOV     DPTR,#0x61a4
   \   000041   E0           MOVX    A,@DPTR
   \   000042   C2E0         CLR     0xE0 /* A   */.0
   \   000044   F0           MOVX    @DPTR,A
    444            macRxOutgoingAckFlag = 0;
   \   000045   90....       MOV     DPTR,#macRxOutgoingAckFlag
   \   000048   7400         MOV     A,#0x0
   \   00004A   F0           MOVX    @DPTR,A
    445          
    446            /*
    447             *  Make a module-local copy of macRxFilter.  This prevents the selected
    448             *  filter from changing in the middle of a receive.
    449             */
    450            rxFilter = macRxFilter;
   \   00004B   90....       MOV     DPTR,#macRxFilter
   \   00004E   E0           MOVX    A,@DPTR
   \   00004F   90....       MOV     DPTR,#rxFilter
   \   000052   F0           MOVX    @DPTR,A
    451          
    452            /*-------------------------------------------------------------------------------
    453             *  Read initial frame information from FIFO.
    454             *
    455             *   This code is not triggered until the following are in the RX FIFO:
    456             *     frame length          - one byte containing length of MAC frame (excludes this field)
    457             *     frame control field   - two bytes defining frame type, addressing fields, control flags
    458             *     sequence number       - one byte unique sequence identifier
    459             *     additional two bytes  - these bytes are available in case the received frame is an ACK,
    460             *                             if so, the frame can be verified and responded to immediately,
    461             *                             if not an ACK, these bytes will be processed normally
    462             */
    463          
    464            /* read frame length, frame control field, and sequence number from FIFO */
    465            MAC_RADIO_READ_RX_FIFO(rxBuf, MAC_PHY_PHR_LEN + MAC_FCF_FIELD_LEN + MAC_SEQ_NUM_FIELD_LEN);
   \   000053                ; Setup parameters for call to function macMemReadRxFifo
   \   000053   7904         MOV     R1,#0x4
   \   000055   7A..         MOV     R2,#rxBuf & 0xff
   \   000057   7B..         MOV     R3,#(rxBuf >> 8) & 0xff
   \   000059   12....       LCALL   ??macMemReadRxFifo?relay
    466          
    467            /* bytes to read from FIFO equals frame length minus length of MHR fields just read from FIFO */
    468            rxUnreadLen = (rxBuf[0] & PHY_PACKET_SIZE_MASK) - MAC_FCF_FIELD_LEN - MAC_SEQ_NUM_FIELD_LEN;
   \   00005C   90....       MOV     DPTR,#rxBuf
   \   00005F   E0           MOVX    A,@DPTR
   \   000060   547F         ANL     A,#0x7f
   \   000062   24FD         ADD     A,#-0x3
   \   000064   90....       MOV     DPTR,#rxUnreadLen
   \   000067   F0           MOVX    @DPTR,A
    469          
    470            /*
    471             *  Workaround for chip bug #1547.  The receive buffer can sometimes be corrupted by hardware.
    472             *  This usually occurs under heavy traffic.  If a corrupted receive buffer is detected
    473             *  the entire receive buffer is flushed.
    474             *
    475             *  In the case that this workaround is not needed, an assert is used to make sure the
    476             *  receive length field is not corrupted.  This is important because a corrupted receive
    477             *  length field is utterly fatal and, if not caught here, extremely hard to track down.
    478             */
    479            if (macChipVersion == REV_A)
   \   000068   90....       MOV     DPTR,#macChipVersion
   \   00006B   E0           MOVX    A,@DPTR
   \   00006C   7020         JNZ     ??rxStartIsr_4
    480            {
    481              if ((rxUnreadLen > (MAC_A_MAX_PHY_PACKET_SIZE - MAC_FCF_FIELD_LEN - MAC_SEQ_NUM_FIELD_LEN)) ||
    482                  (MAC_FRAME_TYPE(&rxBuf[1]) > MAC_FRAME_TYPE_MAX_VALID))
   \   00006E   90....       MOV     DPTR,#rxUnreadLen
   \   000071   E0           MOVX    A,@DPTR
   \   000072   C3           CLR     C
   \   000073   947D         SUBB    A,#0x7d
   \   000075   500B         JNC     ??rxStartIsr_5
   \   000077   90....       MOV     DPTR,#rxBuf + 1
   \   00007A   E0           MOVX    A,@DPTR
   \   00007B   5407         ANL     A,#0x7
   \   00007D   C3           CLR     C
   \   00007E   9404         SUBB    A,#0x4
   \   000080   4018         JC      ??rxStartIsr_6
    483              {
    484                MAC_RADIO_FLUSH_RX_FIFO();
   \                     ??rxStartIsr_5:
   \   000082   75E1ED       MOV     0xe1,#-0x13
   \   000085   75E1ED       MOV     0xe1,#-0x13
    485                rxDone();
   \   000088                ; Setup parameters for call to function rxDone
   \   000088   12....       LCALL   ??rxDone?relay
    486                return;
   \   00008B   02....       LJMP    ??rxStartIsr_3 & 0xFFFF
    487              }
    488            }
    489            else
    490            {
    491              /* radio supplied a corrupted receive buffer length */
    492              MAC_ASSERT(rxUnreadLen <= (MAC_A_MAX_PHY_PACKET_SIZE - MAC_FCF_FIELD_LEN - MAC_SEQ_NUM_FIELD_LEN));
   \                     ??rxStartIsr_4:
   \   00008E   90....       MOV     DPTR,#rxUnreadLen
   \   000091   E0           MOVX    A,@DPTR
   \   000092   C3           CLR     C
   \   000093   947D         SUBB    A,#0x7d
   \   000095   4003         JC      ??rxStartIsr_6
   \   000097                ; Setup parameters for call to function halAssertHandler
   \   000097   12....       LCALL   ??halAssertHandler?relay
    493            }
    494          
    495          
    496          
    497            /*-------------------------------------------------------------------------------
    498             *  Process ACKs.
    499             *
    500             *  If this frame is an ACK, process it immediately and exit from here.
    501             *  If this frame is not an ACK and transmit is listening for an ACK, let
    502             *  the transmit logic know an non-ACK was received so transmit can complete.
    503             *
    504             *  In promiscuous mode ACKs are treated like any other frame.
    505             */
    506            if ((MAC_FRAME_TYPE(&rxBuf[1]) == MAC_FRAME_TYPE_ACK) && (rxPromiscuousMode == PROMISCUOUS_MODE_OFF))
   \                     ??rxStartIsr_6:
   \   00009A   90....       MOV     DPTR,#rxBuf + 1
   \   00009D   E0           MOVX    A,@DPTR
   \   00009E   5407         ANL     A,#0x7
   \   0000A0   6402         XRL     A,#0x2
   \   0000A2   6003         JZ      $+5
   \   0000A4   02....       LJMP    ??rxStartIsr_7 & 0xFFFF
   \   0000A7   90....       MOV     DPTR,#rxPromiscuousMode
   \   0000AA   E0           MOVX    A,@DPTR
   \   0000AB   6003         JZ      $+5
   \   0000AD   02....       LJMP    ??rxStartIsr_7 & 0xFFFF
    507            {
    508              halIntState_t  s;
    509              uint8 fcsBuf[MAC_FCF_FIELD_LEN];
    510              /*
    511               *  There are guaranteed to be two unread bytes in the FIFO.  By defintion, for ACK frames
    512               *  these two bytes will be the FCS.
    513               */
    514          
    515              /* read FCS from FIFO (threshold set so bytes are guaranteed to be there) */
    516              MAC_RADIO_READ_RX_FIFO(fcsBuf, MAC_FCS_FIELD_LEN);
   \   0000B0                ; Setup parameters for call to function macMemReadRxFifo
   \   0000B0   7902         MOV     R1,#0x2
   \   0000B2   85..82       MOV     DPL,?XSP + 0
   \   0000B5   85..83       MOV     DPH,?XSP + 1
   \   0000B8   AA82         MOV     R2,DPL
   \   0000BA   AB83         MOV     R3,DPH
   \   0000BC   12....       LCALL   ??macMemReadRxFifo?relay
    517          
    518              /*
    519               *  This critical section ensures that the ACK timeout won't be triggered in the
    520               *  millde of receiving the ACK frame.
    521               */
    522              HAL_ENTER_CRITICAL_SECTION(s);
   \   0000BF   A2AF         MOV     C,0xa8.7
   \   0000C1   E4           CLR     A
   \   0000C2   33           RLC     A
   \   0000C3   F5..         MOV     ?V0 + 2,A
   \   0000C5   C2AF         CLR     0xa8.7
    523          
    524              /* see if transmit is listening for an ACK */
    525              if (macTxActive == MAC_TX_ACTIVE_LISTEN_FOR_ACK)
   \   0000C7   90....       MOV     DPTR,#macTxActive
   \   0000CA   E0           MOVX    A,@DPTR
   \   0000CB   6486         XRL     A,#0x86
   \   0000CD   6003         JZ      $+5
   \   0000CF   02....       LJMP    ??rxStartIsr_8 & 0xFFFF
    526              {
    527                MAC_ASSERT(pMacDataTx != NULL); /* transmit buffer must be present */
   \   0000D2   90....       MOV     DPTR,#pMacDataTx
   \   0000D5   E0           MOVX    A,@DPTR
   \   0000D6   F8           MOV     R0,A
   \   0000D7   A3           INC     DPTR
   \   0000D8   E0           MOVX    A,@DPTR
   \   0000D9   F9           MOV     R1,A
   \   0000DA   E8           MOV     A,R0
   \   0000DB   49           ORL     A,R1
   \   0000DC   7003         JNZ     ??rxStartIsr_9
   \   0000DE                ; Setup parameters for call to function halAssertHandler
   \   0000DE   12....       LCALL   ??halAssertHandler?relay
    528          
    529                /* record link quality metrics for the receive ACK */
    530                {
    531                  int8 rssiDbm;
    532                  uint8 corr;
    533          
    534                  rssiDbm = PROPRIETARY_FCS_RSSI(fcsBuf) + MAC_RADIO_RSSI_OFFSET;
   \                     ??rxStartIsr_9:
   \   0000E1   85..82       MOV     DPL,?XSP + 0
   \   0000E4   85..83       MOV     DPH,?XSP + 1
   \   0000E7   E0           MOVX    A,@DPTR
   \   0000E8   24B7         ADD     A,#-0x49
   \   0000EA   F5..         MOV     ?V0 + 1,A
    535                  MAC_RADIO_RSSI_LNA_OFFSET(rssiDbm);
    536                  corr = PROPRIETARY_FCS_CORRELATION_VALUE(fcsBuf);
   \   0000EC   7401         MOV     A,#0x1
   \   0000EE   12....       LCALL   ?XSTACK_DISP0_8
   \   0000F1   E0           MOVX    A,@DPTR
   \   0000F2   547F         ANL     A,#0x7f
   \   0000F4   F5..         MOV     ?V0 + 0,A
    537          
    538                  pMacDataTx->internal.mpduLinkQuality = macRadioComputeLQI(rssiDbm, corr);
   \   0000F6                ; Setup parameters for call to function macRadioComputeLQI
   \   0000F6   AA..         MOV     R2,?V0 + 0
   \   0000F8   A9..         MOV     R1,?V0 + 1
   \   0000FA   12....       LCALL   ??macRadioComputeLQI?relay
   \   0000FD   E9           MOV     A,R1
   \   0000FE   C0E0         PUSH    A
   \   000100   90....       MOV     DPTR,#pMacDataTx
   \   000103   E0           MOVX    A,@DPTR
   \   000104   F8           MOV     R0,A
   \   000105   A3           INC     DPTR
   \   000106   E0           MOVX    A,@DPTR
   \   000107   C8           XCH     A,R0
   \   000108   2414         ADD     A,#0x14
   \   00010A   F582         MOV     DPL,A
   \   00010C   E8           MOV     A,R0
   \   00010D   3400         ADDC    A,#0x0
   \   00010F   F583         MOV     DPH,A
   \   000111   D0E0         POP     A
   \   000113   F0           MOVX    @DPTR,A
    539                  pMacDataTx->internal.correlation = corr;
   \   000114   E5..         MOV     A,?V0 + 0
   \   000116   90....       MOV     DPTR,#pMacDataTx
   \   000119   E0           MOVX    A,@DPTR
   \   00011A   F8           MOV     R0,A
   \   00011B   A3           INC     DPTR
   \   00011C   E0           MOVX    A,@DPTR
   \   00011D   C8           XCH     A,R0
   \   00011E   2415         ADD     A,#0x15
   \   000120   F582         MOV     DPL,A
   \   000122   E8           MOV     A,R0
   \   000123   3400         ADDC    A,#0x0
   \   000125   F583         MOV     DPH,A
   \   000127   E5..         MOV     A,?V0 + 0
   \   000129   F0           MOVX    @DPTR,A
    540                  pMacDataTx->internal.rssi= rssiDbm;
   \   00012A   E5..         MOV     A,?V0 + 1
   \   00012C   90....       MOV     DPTR,#pMacDataTx
   \   00012F   E0           MOVX    A,@DPTR
   \   000130   F8           MOV     R0,A
   \   000131   A3           INC     DPTR
   \   000132   E0           MOVX    A,@DPTR
   \   000133   C8           XCH     A,R0
   \   000134   2416         ADD     A,#0x16
   \   000136   F582         MOV     DPL,A
   \   000138   E8           MOV     A,R0
   \   000139   3400         ADDC    A,#0x0
   \   00013B   F583         MOV     DPH,A
   \   00013D   E5..         MOV     A,?V0 + 1
   \   00013F   F0           MOVX    @DPTR,A
    541                }
    542          
    543                /*
    544                 *  It's okay if the ACK timeout is triggered here. The callbacks for ACK received
    545                 *  or ACK not received will check "macTxActive" flag before taking any actions.
    546                 */
    547                HAL_EXIT_CRITICAL_SECTION(s);
   \   000140   85....       MOV     ?V0 + 9,?V0 + 2
   \   000143   E5..         MOV     A,?V0 + 2
   \   000145   A2E0         MOV     C,0xE0 /* A   */.0
   \   000147   92AF         MOV     0xa8.7,C
    548          
    549                /*
    550                 *  An ACK was received so transmit logic needs to know.  If the FCS failed,
    551                 *  the transmit logic still needs to know.  In that case, treat the frame
    552                 *  as a non-ACK to complete the active transmit.
    553                 */
    554                if (PROPRIETARY_FCS_CRC_OK(fcsBuf))
   \   000149   7401         MOV     A,#0x1
   \   00014B   12....       LCALL   ?XSTACK_DISP0_8
   \   00014E   E0           MOVX    A,@DPTR
   \   00014F   A2E7         MOV     C,0xE0 /* A   */.7
   \   000151   5011         JNC     ??rxStartIsr_10
    555                {
    556                  /* call transmit logic to indicate ACK was received */
    557                  macTxAckReceivedCallback(MAC_SEQ_NUMBER(&rxBuf[1]), MAC_FRAME_PENDING(&rxBuf[1]));
   \   000153                ; Setup parameters for call to function macTxAckReceivedCallback
   \   000153   90....       MOV     DPTR,#rxBuf + 1
   \   000156   E0           MOVX    A,@DPTR
   \   000157   5410         ANL     A,#0x10
   \   000159   FA           MOV     R2,A
   \   00015A   90....       MOV     DPTR,#rxBuf + 3
   \   00015D   E0           MOVX    A,@DPTR
   \   00015E   F9           MOV     R1,A
   \   00015F   12....       LCALL   ??macTxAckReceivedCallback?relay
   \   000162   800E         SJMP    ??rxStartIsr_11
    558                }
    559                else
    560                {
    561                  macTxAckNotReceivedCallback();
   \                     ??rxStartIsr_10:
   \   000164                ; Setup parameters for call to function macTxAckNotReceivedCallback
   \   000164   12....       LCALL   ??macTxAckNotReceivedCallback?relay
   \   000167   8009         SJMP    ??rxStartIsr_11
    562                }
    563              }
    564              else
    565              {
    566                HAL_EXIT_CRITICAL_SECTION(s);
   \                     ??rxStartIsr_8:
   \   000169   85....       MOV     ?V0 + 8,?V0 + 2
   \   00016C   E5..         MOV     A,?V0 + 2
   \   00016E   A2E0         MOV     C,0xE0 /* A   */.0
   \   000170   92AF         MOV     0xa8.7,C
    567              }
    568          
    569              /* receive is done, exit from here */
    570              rxDone();
   \                     ??rxStartIsr_11:
   \   000172                ; Setup parameters for call to function rxDone
   \   000172   12....       LCALL   ??rxDone?relay
    571              return;
   \   000175   02....       LJMP    ??rxStartIsr_3 & 0xFFFF
    572            }
    573            else if (macTxActive == MAC_TX_ACTIVE_LISTEN_FOR_ACK)
   \                     ??rxStartIsr_7:
   \   000178   90....       MOV     DPTR,#macTxActive
   \   00017B   E0           MOVX    A,@DPTR
   \   00017C   6486         XRL     A,#0x86
   \   00017E   7003         JNZ     ??rxStartIsr_12
    574            {
    575              macTxAckNotReceivedCallback();
   \   000180                ; Setup parameters for call to function macTxAckNotReceivedCallback
   \   000180   12....       LCALL   ??macTxAckNotReceivedCallback?relay
    576            }
    577          
    578            /*-------------------------------------------------------------------------------
    579             *  Apply filtering.
    580             *
    581             *  For efficiency, see if filtering is even 'on' before processing.  Also test
    582             *  to make sure promiscuous mode is disabled.  If promiscuous mode is enabled,
    583             *  do not apply filtering.
    584             */
    585            if ((rxFilter != RX_FILTER_OFF) && !rxPromiscuousMode)
   \                     ??rxStartIsr_12:
   \   000183   90....       MOV     DPTR,#rxFilter
   \   000186   E0           MOVX    A,@DPTR
   \   000187   6036         JZ      ??rxStartIsr_13
   \   000189   90....       MOV     DPTR,#rxPromiscuousMode
   \   00018C   E0           MOVX    A,@DPTR
   \   00018D   7030         JNZ     ??rxStartIsr_13
    586            {
    587              if (/* filter all frames */
    588                   (rxFilter == RX_FILTER_ALL) ||
    589          
    590                   /* filter non-beacon frames */
    591                   ((rxFilter == RX_FILTER_NON_BEACON_FRAMES) &&
    592                    (MAC_FRAME_TYPE(&rxBuf[1]) != MAC_FRAME_TYPE_BEACON)) ||
    593          
    594                   /* filter non-command frames */
    595                   ((rxFilter == RX_FILTER_NON_COMMAND_FRAMES) &&
    596                    ((MAC_FRAME_TYPE(&rxBuf[1]) != MAC_FRAME_TYPE_COMMAND))))
   \   00018F   90....       MOV     DPTR,#rxFilter
   \   000192   E0           MOVX    A,@DPTR
   \   000193   6401         XRL     A,#0x1
   \   000195   6022         JZ      ??rxStartIsr_14
   \   000197   90....       MOV     DPTR,#rxFilter
   \   00019A   E0           MOVX    A,@DPTR
   \   00019B   6402         XRL     A,#0x2
   \   00019D   7008         JNZ     ??rxStartIsr_15
   \   00019F   90....       MOV     DPTR,#rxBuf + 1
   \   0001A2   E0           MOVX    A,@DPTR
   \   0001A3   5407         ANL     A,#0x7
   \   0001A5   7012         JNZ     ??rxStartIsr_14
   \                     ??rxStartIsr_15:
   \   0001A7   90....       MOV     DPTR,#rxFilter
   \   0001AA   E0           MOVX    A,@DPTR
   \   0001AB   6403         XRL     A,#0x3
   \   0001AD   7010         JNZ     ??rxStartIsr_13
   \   0001AF   90....       MOV     DPTR,#rxBuf + 1
   \   0001B2   E0           MOVX    A,@DPTR
   \   0001B3   5407         ANL     A,#0x7
   \   0001B5   6403         XRL     A,#0x3
   \   0001B7   6006         JZ      ??rxStartIsr_13
    597              {
    598                /* discard rest of frame */
    599                rxDiscardFrame();
   \                     ??rxStartIsr_14:
   \   0001B9                ; Setup parameters for call to function rxDiscardFrame
   \   0001B9   12....       LCALL   ??rxDiscardFrame?relay
    600                return;
   \   0001BC   02....       LJMP    ??rxStartIsr_3 & 0xFFFF
    601              }
    602            }
    603          
    604            /*-------------------------------------------------------------------------------
    605             *  Compute length of addressing fields.  Compute payload length.
    606             */
    607          
    608            /* decode addressing modes */
    609            dstAddrMode = MAC_DEST_ADDR_MODE(&rxBuf[1]);
   \                     ??rxStartIsr_13:
   \   0001BF   90....       MOV     DPTR,#rxBuf + 2
   \   0001C2   E0           MOVX    A,@DPTR
   \   0001C3   13           RRC     A
   \   0001C4   13           RRC     A
   \   0001C5   543F         ANL     A,#0x3f
   \   0001C7   5403         ANL     A,#0x3
   \   0001C9   F5..         MOV     ?V0 + 5,A
    610            srcAddrMode = MAC_SRC_ADDR_MODE(&rxBuf[1]);
   \   0001CB   90....       MOV     DPTR,#rxBuf + 2
   \   0001CE   E0           MOVX    A,@DPTR
   \   0001CF   C4           SWAP    A
   \   0001D0   13           RRC     A
   \   0001D1   13           RRC     A
   \   0001D2   5403         ANL     A,#0x3
   \   0001D4   F5..         MOV     ?V0 + 4,A
    611          
    612            /*
    613            *  Workaround for chip bug #1547.  The receive buffer can sometimes be corrupted by hardware.
    614             *  This usually occurs under heavy traffic.  If a corrupted receive buffer is detected
    615             *  the entire receive buffer is flushed.
    616             */
    617            if (macChipVersion == REV_A)
   \   0001D6   90....       MOV     DPTR,#macChipVersion
   \   0001D9   E0           MOVX    A,@DPTR
   \   0001DA   7018         JNZ     ??rxStartIsr_16
    618            {
    619              if ((srcAddrMode == ADDR_MODE_RESERVERED) || (dstAddrMode == ADDR_MODE_RESERVERED))
   \   0001DC   7401         MOV     A,#0x1
   \   0001DE   65..         XRL     A,?V0 + 4
   \   0001E0   6006         JZ      ??rxStartIsr_17
   \   0001E2   7401         MOV     A,#0x1
   \   0001E4   65..         XRL     A,?V0 + 5
   \   0001E6   700C         JNZ     ??rxStartIsr_16
    620              {
    621                MAC_RADIO_FLUSH_RX_FIFO();
   \                     ??rxStartIsr_17:
   \   0001E8   75E1ED       MOV     0xe1,#-0x13
   \   0001EB   75E1ED       MOV     0xe1,#-0x13
    622                rxDone();
   \   0001EE                ; Setup parameters for call to function rxDone
   \   0001EE   12....       LCALL   ??rxDone?relay
    623                return;
   \   0001F1   02....       LJMP    ??rxStartIsr_3 & 0xFFFF
    624              }
    625            }
    626          
    627            /*
    628             *  Compute the addressing field length.  A lookup table based on addressing
    629             *  mode is used for efficiency.  If the source address is present and the
    630             *  frame is intra-PAN, the PAN Id is not repeated.  In this case, the address
    631             *  length is adjusted to match the smaller length.
    632             */
    633            addrLen = macRxAddrLen[dstAddrMode] + macRxAddrLen[srcAddrMode];
   \                     ??rxStartIsr_16:
   \   0001F4   85....       MOV     ?V0 + 0,?V0 + 4
   \   0001F7   75..00       MOV     ?V0 + 1,#0x0
   \   0001FA   74..         MOV     A,#macRxAddrLen & 0xff
   \   0001FC   25..         ADD     A,?V0 + 0
   \   0001FE   F582         MOV     DPL,A
   \   000200   74..         MOV     A,#(macRxAddrLen >> 8) & 0xff
   \   000202   35..         ADDC    A,?V0 + 1
   \   000204   F583         MOV     DPH,A
   \   000206   E4           CLR     A
   \   000207   93           MOVC    A,@A+DPTR
   \   000208   F8           MOV     R0,A
   \   000209   85....       MOV     ?V0 + 0,?V0 + 5
   \   00020C   75..00       MOV     ?V0 + 1,#0x0
   \   00020F   74..         MOV     A,#macRxAddrLen & 0xff
   \   000211   25..         ADD     A,?V0 + 0
   \   000213   F582         MOV     DPL,A
   \   000215   74..         MOV     A,#(macRxAddrLen >> 8) & 0xff
   \   000217   35..         ADDC    A,?V0 + 1
   \   000219   F583         MOV     DPH,A
   \   00021B   E4           CLR     A
   \   00021C   93           MOVC    A,@A+DPTR
   \   00021D   28           ADD     A,R0
   \   00021E   FE           MOV     R6,A
    634            if ((srcAddrMode != SADDR_MODE_NONE) && MAC_INTRA_PAN(&rxBuf[1]))
   \   00021F   E5..         MOV     A,?V0 + 4
   \   000221   600C         JZ      ??rxStartIsr_18
   \   000223   90....       MOV     DPTR,#rxBuf + 1
   \   000226   E0           MOVX    A,@DPTR
   \   000227   A2E6         MOV     C,0xE0 /* A   */.6
   \   000229   5004         JNC     ??rxStartIsr_18
    635            {
    636              addrLen -= MAC_PAN_ID_FIELD_LEN;
   \   00022B   74FE         MOV     A,#-0x2
   \   00022D   2E           ADD     A,R6
   \   00022E   FE           MOV     R6,A
    637            }
    638          
    639            /*
    640             *  If there are not enough unread bytes to include the computed address
    641             *  plus FCS field, the frame is corrupted and must be discarded.
    642             */
    643            if ((addrLen + MAC_FCS_FIELD_LEN) > rxUnreadLen)
   \                     ??rxStartIsr_18:
   \   00022F   90....       MOV     DPTR,#rxUnreadLen
   \   000232   E0           MOVX    A,@DPTR
   \   000233   FA           MOV     R2,A
   \   000234   7B00         MOV     R3,#0x0
   \   000236   8E..         MOV     ?V0 + 0,R6
   \   000238   75..00       MOV     ?V0 + 1,#0x0
   \   00023B   E5..         MOV     A,?V0 + 0
   \   00023D   2402         ADD     A,#0x2
   \   00023F   F8           MOV     R0,A
   \   000240   E5..         MOV     A,?V0 + 1
   \   000242   3400         ADDC    A,#0x0
   \   000244   F9           MOV     R1,A
   \   000245   C3           CLR     C
   \   000246   EA           MOV     A,R2
   \   000247   98           SUBB    A,R0
   \   000248   EB           MOV     A,R3
   \   000249   99           SUBB    A,R1
   \   00024A   A2D2         MOV     C,0xD0 /* PSW */.2
   \   00024C   65D0         XRL     A,PSW
   \   00024E   33           RLC     A
   \   00024F   5006         JNC     ??rxStartIsr_19
    644            {
    645              /* discard frame and exit */
    646              rxDiscardFrame();
   \   000251                ; Setup parameters for call to function rxDiscardFrame
   \   000251   12....       LCALL   ??rxDiscardFrame?relay
    647              return;
   \   000254   02....       LJMP    ??rxStartIsr_3 & 0xFFFF
    648            }
    649          
    650            /* payload length is equal to unread bytes minus address length, minus the FCS */
    651            rxPayloadLen = rxUnreadLen - addrLen - MAC_FCS_FIELD_LEN;
   \                     ??rxStartIsr_19:
   \   000257   90....       MOV     DPTR,#rxUnreadLen
   \   00025A   E0           MOVX    A,@DPTR
   \   00025B   C3           CLR     C
   \   00025C   9E           SUBB    A,R6
   \   00025D   24FE         ADD     A,#-0x2
   \   00025F   90....       MOV     DPTR,#rxPayloadLen
   \   000262   F0           MOVX    @DPTR,A
    652          
    653            /*-------------------------------------------------------------------------------
    654             *  Allocate memory for the incoming frame.
    655             */
    656            pRxBuf = (macRx_t *) MEM_ALLOC(sizeof(macRx_t) + rxPayloadLen);
   \   000263                ; Setup parameters for call to function macDataRxMemAlloc
   \   000263   90....       MOV     DPTR,#rxPayloadLen
   \   000266   E0           MOVX    A,@DPTR
   \   000267   F8           MOV     R0,A
   \   000268   7900         MOV     R1,#0x0
   \   00026A   2432         ADD     A,#0x32
   \   00026C   FA           MOV     R2,A
   \   00026D   E9           MOV     A,R1
   \   00026E   3400         ADDC    A,#0x0
   \   000270   FB           MOV     R3,A
   \   000271   12....       LCALL   ??macDataRxMemAlloc?relay
   \   000274   90....       MOV     DPTR,#pRxBuf
   \   000277   EA           MOV     A,R2
   \   000278   F0           MOVX    @DPTR,A
   \   000279   A3           INC     DPTR
   \   00027A   EB           MOV     A,R3
   \   00027B   F0           MOVX    @DPTR,A
    657            if (pRxBuf == NULL)
   \   00027C   90....       MOV     DPTR,#pRxBuf
   \   00027F   E0           MOVX    A,@DPTR
   \   000280   F8           MOV     R0,A
   \   000281   A3           INC     DPTR
   \   000282   E0           MOVX    A,@DPTR
   \   000283   F9           MOV     R1,A
   \   000284   E8           MOV     A,R0
   \   000285   49           ORL     A,R1
   \   000286   7009         JNZ     ??rxStartIsr_20
    658            {
    659              /* Cancel the outgoing TX ACK */
    660              MAC_RADIO_CANCEL_TX_ACK();
   \   000288   75E1E8       MOV     0xe1,#-0x18
    661          
    662              /* buffer allocation failed, discard the frame and exit*/
    663              rxDiscardFrame();
   \   00028B                ; Setup parameters for call to function rxDiscardFrame
   \   00028B   12....       LCALL   ??rxDiscardFrame?relay
    664              return;
   \   00028E   02....       LJMP    ??rxStartIsr_3 & 0xFFFF
    665            }
    666          
    667            /*-------------------------------------------------------------------------------
    668             *  Set up to process ACK request.  Do not ACK if in promiscuous mode.
    669             */
    670            ackWithPending = 0;
   \                     ??rxStartIsr_20:
   \   000291   7F00         MOV     R7,#0x0
    671            if (!rxPromiscuousMode)
   \   000293   90....       MOV     DPTR,#rxPromiscuousMode
   \   000296   E0           MOVX    A,@DPTR
   \   000297   700A         JNZ     ??rxStartIsr_21
    672            {
    673              macRxOutgoingAckFlag = MAC_ACK_REQUEST(&rxBuf[1]);
   \   000299   90....       MOV     DPTR,#rxBuf + 1
   \   00029C   E0           MOVX    A,@DPTR
   \   00029D   5420         ANL     A,#0x20
   \   00029F   90....       MOV     DPTR,#macRxOutgoingAckFlag
   \   0002A2   F0           MOVX    @DPTR,A
    674            }
    675          
    676            /*-------------------------------------------------------------------------------
    677             *  Process any ACK request.
    678             */
    679            if (macRxOutgoingAckFlag)
   \                     ??rxStartIsr_21:
   \   0002A3   90....       MOV     DPTR,#macRxOutgoingAckFlag
   \   0002A6   E0           MOVX    A,@DPTR
   \   0002A7   606F         JZ      ??rxStartIsr_22
    680            {
    681              halIntState_t  s;
    682          
    683              /*
    684               *  This critical section ensures that the callback ISR is initiated within time
    685               *  to guarantee correlation with the strobe.
    686               */
    687              HAL_ENTER_CRITICAL_SECTION(s);
   \   0002A9   A2AF         MOV     C,0xa8.7
   \   0002AB   E4           CLR     A
   \   0002AC   33           RLC     A
   \   0002AD   F5..         MOV     ?V0 + 0,A
   \   0002AF   C2AF         CLR     0xa8.7
    688          
    689              /* Do not ack data packet with pending more data */
    690              if( MAC_FRAME_TYPE(&rxBuf[1]) == MAC_FRAME_TYPE_COMMAND )
   \   0002B1   90....       MOV     DPTR,#rxBuf + 1
   \   0002B4   E0           MOVX    A,@DPTR
   \   0002B5   5407         ANL     A,#0x7
   \   0002B7   6403         XRL     A,#0x3
   \   0002B9   7024         JNZ     ??rxStartIsr_23
    691              {
    692                if( macRxCheckMACPendingCallback())
   \   0002BB                ; Setup parameters for call to function macRxCheckMACPendingCallback
   \   0002BB   12....       LCALL   ??macRxCheckMACPendingCallback?relay
   \   0002BE   E9           MOV     A,R1
   \   0002BF   6004         JZ      ??rxStartIsr_24
    693                {
    694                  /* Check is any mac data pending for end devices */
    695                  ackWithPending = MAC_RX_FLAG_ACK_PENDING;
   \   0002C1   7F04         MOV     R7,#0x4
   \   0002C3   801A         SJMP    ??rxStartIsr_23
    696                }
    697                else
    698                {
    699                  if( macSrcMatchIsEnabled )
   \                     ??rxStartIsr_24:
   \   0002C5   90....       MOV     DPTR,#macSrcMatchIsEnabled
   \   0002C8   E0           MOVX    A,@DPTR
   \   0002C9   600C         JZ      ??rxStartIsr_25
    700                  {
    701                    /* When autopend is enabled, check if allpending is set to true */
    702                    if( MAC_SrcMatchCheckAllPending() == MAC_AUTOACK_PENDING_ALL_ON )
   \   0002CB                ; Setup parameters for call to function MAC_SrcMatchCheckAllPending
   \   0002CB   12....       LCALL   ??MAC_SrcMatchCheckAllPending?relay
   \   0002CE   E9           MOV     A,R1
   \   0002CF   64FE         XRL     A,#0xfe
   \   0002D1   700C         JNZ     ??rxStartIsr_23
    703                    {
    704                      ackWithPending = MAC_RX_FLAG_ACK_PENDING;
   \   0002D3   7F04         MOV     R7,#0x4
   \   0002D5   8008         SJMP    ??rxStartIsr_23
    705                    }
    706                  }
    707                  else
    708                  {
    709                    /* When autopend is disabled, check the application pending callback */
    710                    if( macRxCheckPendingCallback() )
   \                     ??rxStartIsr_25:
   \   0002D7                ; Setup parameters for call to function macRxCheckPendingCallback
   \   0002D7   12....       LCALL   ??macRxCheckPendingCallback?relay
   \   0002DA   E9           MOV     A,R1
   \   0002DB   6002         JZ      ??rxStartIsr_23
    711                    {
    712                      ackWithPending = MAC_RX_FLAG_ACK_PENDING;
   \   0002DD   7F04         MOV     R7,#0x4
    713                    }
    714                  }
    715                }
    716              }
    717          
    718              if( ackWithPending == MAC_RX_FLAG_ACK_PENDING )
   \                     ??rxStartIsr_23:
   \   0002DF   7404         MOV     A,#0x4
   \   0002E1   6F           XRL     A,R7
   \   0002E2   7009         JNZ     ??rxStartIsr_26
    719              {
    720                MAC_RADIO_TX_ACK_PEND();
   \   0002E4   90618A       MOV     DPTR,#0x618a
   \   0002E7   E0           MOVX    A,@DPTR
   \   0002E8   D2E2         SETB    0xE0 /* A   */.2
   \   0002EA   F0           MOVX    @DPTR,A
   \   0002EB   8007         SJMP    ??rxStartIsr_27
    721              }
    722              else
    723              {
    724                MAC_RADIO_TX_ACK();
   \                     ??rxStartIsr_26:
   \   0002ED   90618A       MOV     DPTR,#0x618a
   \   0002F0   E0           MOVX    A,@DPTR
   \   0002F1   C2E2         CLR     0xE0 /* A   */.2
   \   0002F3   F0           MOVX    @DPTR,A
    725              }
    726          
    727          
    728              /* request a callback to macRxAckTxDoneCallback() when the ACK transmit has finished */
    729              MAC_RADIO_REQUEST_ACK_TX_DONE_CALLBACK();
   \                     ??rxStartIsr_27:
   \   0002F4   A2AF         MOV     C,0xa8.7
   \   0002F6   E4           CLR     A
   \   0002F7   33           RLC     A
   \   0002F8   F8           MOV     R0,A
   \   0002F9   C2AF         CLR     0xa8.7
   \   0002FB   759B00       MOV     0x9b,#0x0
   \   0002FE   7591FE       MOV     0x91,#-0x2
   \   000301   88..         MOV     ?V0 + 7,R0
   \   000303   E8           MOV     A,R0
   \   000304   A2E0         MOV     C,0xE0 /* A   */.0
   \   000306   92AF         MOV     0xa8.7,C
   \   000308   9061A4       MOV     DPTR,#0x61a4
   \   00030B   E0           MOVX    A,@DPTR
   \   00030C   D2E0         SETB    0xE0 /* A   */.0
   \   00030E   F0           MOVX    @DPTR,A
    730              HAL_EXIT_CRITICAL_SECTION(s);
   \   00030F   85....       MOV     ?V0 + 6,?V0 + 0
   \   000312   E5..         MOV     A,?V0 + 0
   \   000314   A2E0         MOV     C,0xE0 /* A   */.0
   \   000316   92AF         MOV     0xa8.7,C
    731            }
    732          
    733           /*-------------------------------------------------------------------------------
    734            *  Populate the receive buffer going up to high-level.
    735            */
    736          
    737            /* configure the payload buffer */
    738            pRxBuf->msdu.p = (uint8 *) (pRxBuf + 1);
   \                     ??rxStartIsr_22:
   \   000318   90....       MOV     DPTR,#pRxBuf
   \   00031B   E0           MOVX    A,@DPTR
   \   00031C   2432         ADD     A,#0x32
   \   00031E   FA           MOV     R2,A
   \   00031F   A3           INC     DPTR
   \   000320   E0           MOVX    A,@DPTR
   \   000321   3400         ADDC    A,#0x0
   \   000323   FB           MOV     R3,A
   \   000324   90....       MOV     DPTR,#pRxBuf
   \   000327   E0           MOVX    A,@DPTR
   \   000328   F8           MOV     R0,A
   \   000329   A3           INC     DPTR
   \   00032A   E0           MOVX    A,@DPTR
   \   00032B   F583         MOV     DPH,A
   \   00032D   8882         MOV     DPL,R0
   \   00032F   A3           INC     DPTR
   \   000330   A3           INC     DPTR
   \   000331   EA           MOV     A,R2
   \   000332   F0           MOVX    @DPTR,A
   \   000333   A3           INC     DPTR
   \   000334   EB           MOV     A,R3
   \   000335   F0           MOVX    @DPTR,A
    739            pRxBuf->msdu.len = rxPayloadLen;
   \   000336   90....       MOV     DPTR,#rxPayloadLen
   \   000339   E0           MOVX    A,@DPTR
   \   00033A   C0E0         PUSH    A
   \   00033C   90....       MOV     DPTR,#pRxBuf
   \   00033F   E0           MOVX    A,@DPTR
   \   000340   F8           MOV     R0,A
   \   000341   A3           INC     DPTR
   \   000342   E0           MOVX    A,@DPTR
   \   000343   F583         MOV     DPH,A
   \   000345   8882         MOV     DPL,R0
   \   000347   A3           INC     DPTR
   \   000348   A3           INC     DPTR
   \   000349   A3           INC     DPTR
   \   00034A   A3           INC     DPTR
   \   00034B   D0E0         POP     A
   \   00034D   F0           MOVX    @DPTR,A
    740          
    741            /* set internal values */
    742            pRxBuf->mac.srcAddr.addrMode  = srcAddrMode;
   \   00034E   E5..         MOV     A,?V0 + 4
   \   000350   90....       MOV     DPTR,#pRxBuf
   \   000353   E0           MOVX    A,@DPTR
   \   000354   F8           MOV     R0,A
   \   000355   A3           INC     DPTR
   \   000356   E0           MOVX    A,@DPTR
   \   000357   C8           XCH     A,R0
   \   000358   241A         ADD     A,#0x1a
   \   00035A   F582         MOV     DPL,A
   \   00035C   E8           MOV     A,R0
   \   00035D   3400         ADDC    A,#0x0
   \   00035F   F583         MOV     DPH,A
   \   000361   E5..         MOV     A,?V0 + 4
   \   000363   F0           MOVX    @DPTR,A
    743            pRxBuf->mac.dstAddr.addrMode  = dstAddrMode;
   \   000364   E5..         MOV     A,?V0 + 5
   \   000366   90....       MOV     DPTR,#pRxBuf
   \   000369   E0           MOVX    A,@DPTR
   \   00036A   F8           MOV     R0,A
   \   00036B   A3           INC     DPTR
   \   00036C   E0           MOVX    A,@DPTR
   \   00036D   C8           XCH     A,R0
   \   00036E   2423         ADD     A,#0x23
   \   000370   F582         MOV     DPL,A
   \   000372   E8           MOV     A,R0
   \   000373   3400         ADDC    A,#0x0
   \   000375   F583         MOV     DPH,A
   \   000377   E5..         MOV     A,?V0 + 5
   \   000379   F0           MOVX    @DPTR,A
    744            pRxBuf->mac.timestamp         = MAC_RADIO_BACKOFF_CAPTURE();
   \   00037A                ; Setup parameters for call to function macMcuOverflowCapture
   \   00037A   12....       LCALL   ??macMcuOverflowCapture?relay
   \   00037D   8A..         MOV     ?V0 + 0,R2
   \   00037F   8B..         MOV     ?V0 + 1,R3
   \   000381   8C..         MOV     ?V0 + 2,R4
   \   000383   8D..         MOV     ?V0 + 3,R5
   \   000385   90....       MOV     DPTR,#pRxBuf
   \   000388   E0           MOVX    A,@DPTR
   \   000389   F8           MOV     R0,A
   \   00038A   A3           INC     DPTR
   \   00038B   E0           MOVX    A,@DPTR
   \   00038C   C8           XCH     A,R0
   \   00038D   2424         ADD     A,#0x24
   \   00038F   F582         MOV     DPL,A
   \   000391   E8           MOV     A,R0
   \   000392   3400         ADDC    A,#0x0
   \   000394   F583         MOV     DPH,A
   \   000396   78..         MOV     R0,#?V0 + 0
   \   000398   12....       LCALL   ?L_MOV_TO_X
    745            pRxBuf->mac.timestamp2        = MAC_RADIO_TIMER_CAPTURE();
   \   00039B                ; Setup parameters for call to function macMcuTimerCapture
   \   00039B   12....       LCALL   ??macMcuTimerCapture?relay
   \   00039E   8A..         MOV     ?V0 + 0,R2
   \   0003A0   8B..         MOV     ?V0 + 1,R3
   \   0003A2   AA..         MOV     R2,?V0 + 0
   \   0003A4   AB..         MOV     R3,?V0 + 1
   \   0003A6   90....       MOV     DPTR,#pRxBuf
   \   0003A9   E0           MOVX    A,@DPTR
   \   0003AA   F8           MOV     R0,A
   \   0003AB   A3           INC     DPTR
   \   0003AC   E0           MOVX    A,@DPTR
   \   0003AD   C8           XCH     A,R0
   \   0003AE   2428         ADD     A,#0x28
   \   0003B0   F582         MOV     DPL,A
   \   0003B2   E8           MOV     A,R0
   \   0003B3   3400         ADDC    A,#0x0
   \   0003B5   F583         MOV     DPH,A
   \   0003B7   E5..         MOV     A,?V0 + 0
   \   0003B9   F0           MOVX    @DPTR,A
   \   0003BA   A3           INC     DPTR
   \   0003BB   E5..         MOV     A,?V0 + 1
   \   0003BD   F0           MOVX    @DPTR,A
    746            pRxBuf->internal.frameType    = MAC_FRAME_TYPE(&rxBuf[1]);
   \   0003BE   90....       MOV     DPTR,#rxBuf + 1
   \   0003C1   E0           MOVX    A,@DPTR
   \   0003C2   5407         ANL     A,#0x7
   \   0003C4   C0E0         PUSH    A
   \   0003C6   90....       MOV     DPTR,#pRxBuf
   \   0003C9   E0           MOVX    A,@DPTR
   \   0003CA   F8           MOV     R0,A
   \   0003CB   A3           INC     DPTR
   \   0003CC   E0           MOVX    A,@DPTR
   \   0003CD   F583         MOV     DPH,A
   \   0003CF   8882         MOV     DPL,R0
   \   0003D1   A3           INC     DPTR
   \   0003D2   A3           INC     DPTR
   \   0003D3   A3           INC     DPTR
   \   0003D4   A3           INC     DPTR
   \   0003D5   A3           INC     DPTR
   \   0003D6   D0E0         POP     A
   \   0003D8   F0           MOVX    @DPTR,A
    747            pRxBuf->mac.dsn               = MAC_SEQ_NUMBER(&rxBuf[1]);
   \   0003D9   90....       MOV     DPTR,#rxBuf + 3
   \   0003DC   E0           MOVX    A,@DPTR
   \   0003DD   C0E0         PUSH    A
   \   0003DF   90....       MOV     DPTR,#pRxBuf
   \   0003E2   E0           MOVX    A,@DPTR
   \   0003E3   F8           MOV     R0,A
   \   0003E4   A3           INC     DPTR
   \   0003E5   E0           MOVX    A,@DPTR
   \   0003E6   C8           XCH     A,R0
   \   0003E7   2431         ADD     A,#0x31
   \   0003E9   F582         MOV     DPL,A
   \   0003EB   E8           MOV     A,R0
   \   0003EC   3400         ADDC    A,#0x0
   \   0003EE   F583         MOV     DPH,A
   \   0003F0   D0E0         POP     A
   \   0003F2   F0           MOVX    @DPTR,A
    748            pRxBuf->internal.flags        = INTERNAL_FCF_FLAGS(&rxBuf[1]) | ackWithPending;
   \   0003F3   90....       MOV     DPTR,#rxBuf + 1
   \   0003F6   E0           MOVX    A,@DPTR
   \   0003F7   5478         ANL     A,#0x78
   \   0003F9   F8           MOV     R0,A
   \   0003FA   90....       MOV     DPTR,#rxBuf + 2
   \   0003FD   E0           MOVX    A,@DPTR
   \   0003FE   C4           SWAP    A
   \   0003FF   540F         ANL     A,#0xf
   \   000401   5403         ANL     A,#0x3
   \   000403   48           ORL     A,R0
   \   000404   4F           ORL     A,R7
   \   000405   C0E0         PUSH    A
   \   000407   90....       MOV     DPTR,#pRxBuf
   \   00040A   E0           MOVX    A,@DPTR
   \   00040B   F8           MOV     R0,A
   \   00040C   A3           INC     DPTR
   \   00040D   E0           MOVX    A,@DPTR
   \   00040E   C8           XCH     A,R0
   \   00040F   2406         ADD     A,#0x6
   \   000411   F582         MOV     DPL,A
   \   000413   E8           MOV     A,R0
   \   000414   3400         ADDC    A,#0x0
   \   000416   F583         MOV     DPH,A
   \   000418   D0E0         POP     A
   \   00041A   F0           MOVX    @DPTR,A
    749            pRxBuf->sec.securityLevel     = MAC_SEC_LEVEL_NONE;
   \   00041B   90....       MOV     DPTR,#pRxBuf
   \   00041E   E0           MOVX    A,@DPTR
   \   00041F   F8           MOV     R0,A
   \   000420   A3           INC     DPTR
   \   000421   E0           MOVX    A,@DPTR
   \   000422   C8           XCH     A,R0
   \   000423   240F         ADD     A,#0xf
   \   000425   F582         MOV     DPL,A
   \   000427   E8           MOV     A,R0
   \   000428   3400         ADDC    A,#0x0
   \   00042A   F583         MOV     DPH,A
   \   00042C   7400         MOV     A,#0x0
   \   00042E   F0           MOVX    @DPTR,A
    750          
    751            /*-------------------------------------------------------------------------------
    752             *  If the processing the addressing fields does not require more bytes from
    753             *  the FIFO go directly address processing function.  Otherwise, configure
    754             *  interrupt to jump there once bytes are received.
    755             */
    756            if (addrLen == 0)
   \   00042F   EE           MOV     A,R6
   \   000430   700F         JNZ     ??rxStartIsr_28
    757            {
    758              /* no addressing fields to read, prepare for payload interrupts */
    759              pFuncRxState = &rxPayloadIsr;
   \   000432   90....       MOV     DPTR,#pFuncRxState
   \   000435   74..         MOV     A,#??rxPayloadIsr?relay & 0xff
   \   000437   F0           MOVX    @DPTR,A
   \   000438   A3           INC     DPTR
   \   000439   74..         MOV     A,#(??rxPayloadIsr?relay >> 8) & 0xff
   \   00043B   F0           MOVX    @DPTR,A
    760              rxPrepPayload();
   \   00043C                ; Setup parameters for call to function rxPrepPayload
   \   00043C   12....       LCALL   ??rxPrepPayload?relay
   \   00043F   8019         SJMP    ??rxStartIsr_3
    761            }
    762            else
    763            {
    764              /* need to read and process addressing fields, prepare for address interrupt */
    765              rxNextLen = addrLen;
   \                     ??rxStartIsr_28:
   \   000441   EE           MOV     A,R6
   \   000442   90....       MOV     DPTR,#rxNextLen
   \   000445   F0           MOVX    @DPTR,A
    766              MAC_RADIO_SET_RX_THRESHOLD(rxNextLen);
   \   000446   90....       MOV     DPTR,#rxNextLen
   \   000449   E0           MOVX    A,@DPTR
   \   00044A   24FF         ADD     A,#-0x1
   \   00044C   906194       MOV     DPTR,#0x6194
   \   00044F   F0           MOVX    @DPTR,A
    767              pFuncRxState = &rxAddrIsr;
   \   000450   90....       MOV     DPTR,#pFuncRxState
   \   000453   74..         MOV     A,#??rxAddrIsr?relay & 0xff
   \   000455   F0           MOVX    @DPTR,A
   \   000456   A3           INC     DPTR
   \   000457   74..         MOV     A,#(??rxAddrIsr?relay >> 8) & 0xff
   \   000459   F0           MOVX    @DPTR,A
    768            }
    769          }
   \                     ??rxStartIsr_3:
   \   00045A   7402         MOV     A,#0x2
   \   00045C   12....       LCALL   ?DEALLOC_XSTACK8
   \   00045F   7F0A         MOV     R7,#0xa
   \   000461   02....       LJMP    ?BANKED_LEAVE_XDATA
   \   000464                REQUIRE RFST
   \   000464                REQUIRE _A_IEN0
   \   000464                REQUIRE S1CON
   \   000464                REQUIRE RFIRQF1
    770          
    771          
    772          /*=================================================================================================
    773           * @fn          rxAddrIsr
    774           *
    775           * @brief       Receive ISR state for decoding address.  Reads and stores the address information
    776           *              from the incoming packet.
    777           *
    778           * @param       none
    779           *
    780           * @return      none
    781           *=================================================================================================
    782           */

   \                                 In  segment BANKED_CODE, align 1, keep-with-next
    783          static void rxAddrIsr(void)
   \                     rxAddrIsr:
    784          {
   \   000000   74F6         MOV     A,#-0xa
   \   000002   12....       LCALL   ?BANKED_ENTER_XDATA
   \   000005                ; Saved register size: 10
   \   000005                ; Auto size: 20
   \   000005   74EC         MOV     A,#-0x14
   \   000007   12....       LCALL   ?ALLOC_XSTACK8
    785            uint8 buf[MAX_ADDR_FIELDS_LEN];
    786            uint8 dstAddrMode;
    787            uint8 srcAddrMode;
    788            uint8  * p;
    789          
    790            MAC_ASSERT(rxNextLen != 0); /* logic assumes at least one address byte in buffer */
   \   00000A   90....       MOV     DPTR,#rxNextLen
   \   00000D   E0           MOVX    A,@DPTR
   \   00000E   7003         JNZ     ??rxAddrIsr_0
   \   000010                ; Setup parameters for call to function halAssertHandler
   \   000010   12....       LCALL   ??halAssertHandler?relay
    791          
    792            /*  read out address fields into local buffer in one shot */
    793            MAC_RADIO_READ_RX_FIFO(buf, rxNextLen);
   \                     ??rxAddrIsr_0:
   \   000013                ; Setup parameters for call to function macMemReadRxFifo
   \   000013   90....       MOV     DPTR,#rxNextLen
   \   000016   E0           MOVX    A,@DPTR
   \   000017   F9           MOV     R1,A
   \   000018   85..82       MOV     DPL,?XSP + 0
   \   00001B   85..83       MOV     DPH,?XSP + 1
   \   00001E   AA82         MOV     R2,DPL
   \   000020   AB83         MOV     R3,DPH
   \   000022   12....       LCALL   ??macMemReadRxFifo?relay
    794          
    795            /* set pointer to buffer with addressing fields */
    796            p = buf;
   \   000025   85..82       MOV     DPL,?XSP + 0
   \   000028   85..83       MOV     DPH,?XSP + 1
   \   00002B   AE82         MOV     R6,DPL
   \   00002D   AF83         MOV     R7,DPH
    797          
    798            /* destination address */
    799            dstAddrMode = MAC_DEST_ADDR_MODE(&rxBuf[1]);
   \   00002F   90....       MOV     DPTR,#rxBuf + 2
   \   000032   E0           MOVX    A,@DPTR
   \   000033   13           RRC     A
   \   000034   13           RRC     A
   \   000035   543F         ANL     A,#0x3f
   \   000037   5403         ANL     A,#0x3
   \   000039   F5..         MOV     ?V0 + 0,A
    800            if (dstAddrMode != SADDR_MODE_NONE)
   \   00003B   E5..         MOV     A,?V0 + 0
   \   00003D   7003         JNZ     $+5
   \   00003F   02....       LJMP    ??rxAddrIsr_1 & 0xFFFF
    801            {
    802              pRxBuf->mac.srcPanId = pRxBuf->mac.dstPanId = BUILD_UINT16(p[0], p[1]);
   \   000042   8E82         MOV     DPL,R6
   \   000044   8F83         MOV     DPH,R7
   \   000046   E0           MOVX    A,@DPTR
   \   000047   FA           MOV     R2,A
   \   000048   7B00         MOV     R3,#0x0
   \   00004A   8E82         MOV     DPL,R6
   \   00004C   8F83         MOV     DPH,R7
   \   00004E   A3           INC     DPTR
   \   00004F   E0           MOVX    A,@DPTR
   \   000050   F8           MOV     R0,A
   \   000051   7900         MOV     R1,#0x0
   \   000053   E4           CLR     A
   \   000054   C8           XCH     A,R0
   \   000055   F9           MOV     R1,A
   \   000056   EA           MOV     A,R2
   \   000057   28           ADD     A,R0
   \   000058   F8           MOV     R0,A
   \   000059   EB           MOV     A,R3
   \   00005A   39           ADDC    A,R1
   \   00005B   F9           MOV     R1,A
   \   00005C   90....       MOV     DPTR,#pRxBuf
   \   00005F   E0           MOVX    A,@DPTR
   \   000060   FA           MOV     R2,A
   \   000061   A3           INC     DPTR
   \   000062   E0           MOVX    A,@DPTR
   \   000063   CA           XCH     A,R2
   \   000064   242C         ADD     A,#0x2c
   \   000066   F582         MOV     DPL,A
   \   000068   EA           MOV     A,R2
   \   000069   3400         ADDC    A,#0x0
   \   00006B   F583         MOV     DPH,A
   \   00006D   E8           MOV     A,R0
   \   00006E   F0           MOVX    @DPTR,A
   \   00006F   A3           INC     DPTR
   \   000070   E9           MOV     A,R1
   \   000071   F0           MOVX    @DPTR,A
   \   000072   90....       MOV     DPTR,#pRxBuf
   \   000075   E0           MOVX    A,@DPTR
   \   000076   FA           MOV     R2,A
   \   000077   A3           INC     DPTR
   \   000078   E0           MOVX    A,@DPTR
   \   000079   CA           XCH     A,R2
   \   00007A   242A         ADD     A,#0x2a
   \   00007C   F582         MOV     DPL,A
   \   00007E   EA           MOV     A,R2
   \   00007F   3400         ADDC    A,#0x0
   \   000081   F583         MOV     DPH,A
   \   000083   E8           MOV     A,R0
   \   000084   F0           MOVX    @DPTR,A
   \   000085   A3           INC     DPTR
   \   000086   E9           MOV     A,R1
   \   000087   F0           MOVX    @DPTR,A
    803              p += MAC_PAN_ID_FIELD_LEN;
   \   000088   EE           MOV     A,R6
   \   000089   2402         ADD     A,#0x2
   \   00008B   FE           MOV     R6,A
   \   00008C   EF           MOV     A,R7
   \   00008D   3400         ADDC    A,#0x0
   \   00008F   FF           MOV     R7,A
    804              if (dstAddrMode == SADDR_MODE_EXT)
   \   000090   7403         MOV     A,#0x3
   \   000092   65..         XRL     A,?V0 + 0
   \   000094   701D         JNZ     ??rxAddrIsr_2
    805              {
    806                sAddrExtCpy(pRxBuf->mac.dstAddr.addr.extAddr, p);
   \   000096                ; Setup parameters for call to function sAddrExtCpy
   \   000096   EE           MOV     A,R6
   \   000097   FC           MOV     R4,A
   \   000098   EF           MOV     A,R7
   \   000099   FD           MOV     R5,A
   \   00009A   90....       MOV     DPTR,#pRxBuf
   \   00009D   E0           MOVX    A,@DPTR
   \   00009E   241B         ADD     A,#0x1b
   \   0000A0   FA           MOV     R2,A
   \   0000A1   A3           INC     DPTR
   \   0000A2   E0           MOVX    A,@DPTR
   \   0000A3   3400         ADDC    A,#0x0
   \   0000A5   FB           MOV     R3,A
   \   0000A6   12....       LCALL   ??sAddrExtCpy?relay
    807                p += MAC_EXT_ADDR_FIELD_LEN;
   \   0000A9   EE           MOV     A,R6
   \   0000AA   2408         ADD     A,#0x8
   \   0000AC   FE           MOV     R6,A
   \   0000AD   EF           MOV     A,R7
   \   0000AE   3400         ADDC    A,#0x0
   \   0000B0   FF           MOV     R7,A
   \   0000B1   8038         SJMP    ??rxAddrIsr_1
    808              }
    809              else
    810              {
    811                pRxBuf->mac.dstAddr.addr.shortAddr = BUILD_UINT16(p[0], p[1]);
   \                     ??rxAddrIsr_2:
   \   0000B3   8E82         MOV     DPL,R6
   \   0000B5   8F83         MOV     DPH,R7
   \   0000B7   E0           MOVX    A,@DPTR
   \   0000B8   FA           MOV     R2,A
   \   0000B9   7B00         MOV     R3,#0x0
   \   0000BB   8E82         MOV     DPL,R6
   \   0000BD   8F83         MOV     DPH,R7
   \   0000BF   A3           INC     DPTR
   \   0000C0   E0           MOVX    A,@DPTR
   \   0000C1   F8           MOV     R0,A
   \   0000C2   7900         MOV     R1,#0x0
   \   0000C4   E4           CLR     A
   \   0000C5   C8           XCH     A,R0
   \   0000C6   F9           MOV     R1,A
   \   0000C7   EA           MOV     A,R2
   \   0000C8   28           ADD     A,R0
   \   0000C9   F8           MOV     R0,A
   \   0000CA   EB           MOV     A,R3
   \   0000CB   39           ADDC    A,R1
   \   0000CC   F9           MOV     R1,A
   \   0000CD   90....       MOV     DPTR,#pRxBuf
   \   0000D0   E0           MOVX    A,@DPTR
   \   0000D1   FA           MOV     R2,A
   \   0000D2   A3           INC     DPTR
   \   0000D3   E0           MOVX    A,@DPTR
   \   0000D4   CA           XCH     A,R2
   \   0000D5   241B         ADD     A,#0x1b
   \   0000D7   F582         MOV     DPL,A
   \   0000D9   EA           MOV     A,R2
   \   0000DA   3400         ADDC    A,#0x0
   \   0000DC   F583         MOV     DPH,A
   \   0000DE   E8           MOV     A,R0
   \   0000DF   F0           MOVX    @DPTR,A
   \   0000E0   A3           INC     DPTR
   \   0000E1   E9           MOV     A,R1
   \   0000E2   F0           MOVX    @DPTR,A
    812                p += MAC_SHORT_ADDR_FIELD_LEN;
   \   0000E3   EE           MOV     A,R6
   \   0000E4   2402         ADD     A,#0x2
   \   0000E6   FE           MOV     R6,A
   \   0000E7   EF           MOV     A,R7
   \   0000E8   3400         ADDC    A,#0x0
   \   0000EA   FF           MOV     R7,A
    813              }
    814            }
    815          
    816            /* sources address */
    817            srcAddrMode = MAC_SRC_ADDR_MODE(&rxBuf[1]);
   \                     ??rxAddrIsr_1:
   \   0000EB   90....       MOV     DPTR,#rxBuf + 2
   \   0000EE   E0           MOVX    A,@DPTR
   \   0000EF   C4           SWAP    A
   \   0000F0   13           RRC     A
   \   0000F1   13           RRC     A
   \   0000F2   5403         ANL     A,#0x3
   \   0000F4   F5..         MOV     ?V0 + 1,A
    818            if (srcAddrMode != SADDR_MODE_NONE)
   \   0000F6   E5..         MOV     A,?V0 + 1
   \   0000F8   7003         JNZ     $+5
   \   0000FA   02....       LJMP    ??rxAddrIsr_3 & 0xFFFF
    819            {
    820              if (!(pRxBuf->internal.flags & MAC_RX_FLAG_INTRA_PAN))
   \   0000FD   90....       MOV     DPTR,#pRxBuf
   \   000100   E0           MOVX    A,@DPTR
   \   000101   F8           MOV     R0,A
   \   000102   A3           INC     DPTR
   \   000103   E0           MOVX    A,@DPTR
   \   000104   C8           XCH     A,R0
   \   000105   2406         ADD     A,#0x6
   \   000107   F582         MOV     DPL,A
   \   000109   E8           MOV     A,R0
   \   00010A   3400         ADDC    A,#0x0
   \   00010C   F583         MOV     DPH,A
   \   00010E   E0           MOVX    A,@DPTR
   \   00010F   A2E6         MOV     C,0xE0 /* A   */.6
   \   000111   4038         JC      ??rxAddrIsr_4
    821              {
    822                pRxBuf->mac.srcPanId = BUILD_UINT16(p[0], p[1]);
   \   000113   8E82         MOV     DPL,R6
   \   000115   8F83         MOV     DPH,R7
   \   000117   E0           MOVX    A,@DPTR
   \   000118   FA           MOV     R2,A
   \   000119   7B00         MOV     R3,#0x0
   \   00011B   8E82         MOV     DPL,R6
   \   00011D   8F83         MOV     DPH,R7
   \   00011F   A3           INC     DPTR
   \   000120   E0           MOVX    A,@DPTR
   \   000121   F8           MOV     R0,A
   \   000122   7900         MOV     R1,#0x0
   \   000124   E4           CLR     A
   \   000125   C8           XCH     A,R0
   \   000126   F9           MOV     R1,A
   \   000127   EA           MOV     A,R2
   \   000128   28           ADD     A,R0
   \   000129   F8           MOV     R0,A
   \   00012A   EB           MOV     A,R3
   \   00012B   39           ADDC    A,R1
   \   00012C   F9           MOV     R1,A
   \   00012D   90....       MOV     DPTR,#pRxBuf
   \   000130   E0           MOVX    A,@DPTR
   \   000131   FA           MOV     R2,A
   \   000132   A3           INC     DPTR
   \   000133   E0           MOVX    A,@DPTR
   \   000134   CA           XCH     A,R2
   \   000135   242A         ADD     A,#0x2a
   \   000137   F582         MOV     DPL,A
   \   000139   EA           MOV     A,R2
   \   00013A   3400         ADDC    A,#0x0
   \   00013C   F583         MOV     DPH,A
   \   00013E   E8           MOV     A,R0
   \   00013F   F0           MOVX    @DPTR,A
   \   000140   A3           INC     DPTR
   \   000141   E9           MOV     A,R1
   \   000142   F0           MOVX    @DPTR,A
    823                p += MAC_PAN_ID_FIELD_LEN;
   \   000143   EE           MOV     A,R6
   \   000144   2402         ADD     A,#0x2
   \   000146   FE           MOV     R6,A
   \   000147   EF           MOV     A,R7
   \   000148   3400         ADDC    A,#0x0
   \   00014A   FF           MOV     R7,A
    824              }
    825              if (srcAddrMode == SADDR_MODE_EXT)
   \                     ??rxAddrIsr_4:
   \   00014B   7403         MOV     A,#0x3
   \   00014D   65..         XRL     A,?V0 + 1
   \   00014F   7015         JNZ     ??rxAddrIsr_5
    826              {
    827                sAddrExtCpy(pRxBuf->mac.srcAddr.addr.extAddr, p);
   \   000151                ; Setup parameters for call to function sAddrExtCpy
   \   000151   EE           MOV     A,R6
   \   000152   FC           MOV     R4,A
   \   000153   EF           MOV     A,R7
   \   000154   FD           MOV     R5,A
   \   000155   90....       MOV     DPTR,#pRxBuf
   \   000158   E0           MOVX    A,@DPTR
   \   000159   2412         ADD     A,#0x12
   \   00015B   FA           MOV     R2,A
   \   00015C   A3           INC     DPTR
   \   00015D   E0           MOVX    A,@DPTR
   \   00015E   3400         ADDC    A,#0x0
   \   000160   FB           MOV     R3,A
   \   000161   12....       LCALL   ??sAddrExtCpy?relay
   \   000164   8030         SJMP    ??rxAddrIsr_3
    828              }
    829              else
    830              {
    831                pRxBuf->mac.srcAddr.addr.shortAddr = BUILD_UINT16(p[0], p[1]);
   \                     ??rxAddrIsr_5:
   \   000166   8E82         MOV     DPL,R6
   \   000168   8F83         MOV     DPH,R7
   \   00016A   E0           MOVX    A,@DPTR
   \   00016B   FA           MOV     R2,A
   \   00016C   7B00         MOV     R3,#0x0
   \   00016E   8E82         MOV     DPL,R6
   \   000170   8F83         MOV     DPH,R7
   \   000172   A3           INC     DPTR
   \   000173   E0           MOVX    A,@DPTR
   \   000174   F8           MOV     R0,A
   \   000175   7900         MOV     R1,#0x0
   \   000177   E4           CLR     A
   \   000178   C8           XCH     A,R0
   \   000179   F9           MOV     R1,A
   \   00017A   EA           MOV     A,R2
   \   00017B   28           ADD     A,R0
   \   00017C   F8           MOV     R0,A
   \   00017D   EB           MOV     A,R3
   \   00017E   39           ADDC    A,R1
   \   00017F   F9           MOV     R1,A
   \   000180   90....       MOV     DPTR,#pRxBuf
   \   000183   E0           MOVX    A,@DPTR
   \   000184   FA           MOV     R2,A
   \   000185   A3           INC     DPTR
   \   000186   E0           MOVX    A,@DPTR
   \   000187   CA           XCH     A,R2
   \   000188   2412         ADD     A,#0x12
   \   00018A   F582         MOV     DPL,A
   \   00018C   EA           MOV     A,R2
   \   00018D   3400         ADDC    A,#0x0
   \   00018F   F583         MOV     DPH,A
   \   000191   E8           MOV     A,R0
   \   000192   F0           MOVX    @DPTR,A
   \   000193   A3           INC     DPTR
   \   000194   E9           MOV     A,R1
   \   000195   F0           MOVX    @DPTR,A
    832              }
    833            }
    834          
    835            /*-------------------------------------------------------------------------------
    836             *  Prepare for payload interrupts.
    837             */
    838            pFuncRxState = &rxPayloadIsr;
   \                     ??rxAddrIsr_3:
   \   000196   90....       MOV     DPTR,#pFuncRxState
   \   000199   74..         MOV     A,#??rxPayloadIsr?relay & 0xff
   \   00019B   F0           MOVX    @DPTR,A
   \   00019C   A3           INC     DPTR
   \   00019D   74..         MOV     A,#(??rxPayloadIsr?relay >> 8) & 0xff
   \   00019F   F0           MOVX    @DPTR,A
    839            rxPrepPayload();
   \   0001A0                ; Setup parameters for call to function rxPrepPayload
   \   0001A0   12....       LCALL   ??rxPrepPayload?relay
    840          }
   \   0001A3   7414         MOV     A,#0x14
   \   0001A5   12....       LCALL   ?DEALLOC_XSTACK8
   \   0001A8   7F02         MOV     R7,#0x2
   \   0001AA   02....       LJMP    ?BANKED_LEAVE_XDATA
    841          
    842          
    843          /*=================================================================================================
    844           * @fn          rxPrepPayload
    845           *
    846           * @brief       Common code to prepare for the payload ISR.
    847           *
    848           * @param       none
    849           *
    850           * @return      none
    851           *=================================================================================================
    852           */

   \                                 In  segment BANKED_CODE, align 1, keep-with-next
    853          static void rxPrepPayload(void)
   \                     rxPrepPayload:
    854          {
   \   000000   C082         PUSH    DPL
   \   000002   C083         PUSH    DPH
   \   000004                ; Saved register size: 2
   \   000004                ; Auto size: 0
    855            if (rxPayloadLen == 0)
   \   000004   90....       MOV     DPTR,#rxPayloadLen
   \   000007   E0           MOVX    A,@DPTR
   \   000008   7012         JNZ     ??rxPrepPayload_0
    856            {
    857              MAC_RADIO_SET_RX_THRESHOLD(MAC_FCS_FIELD_LEN);
   \   00000A   906194       MOV     DPTR,#0x6194
   \   00000D   7401         MOV     A,#0x1
   \   00000F   F0           MOVX    @DPTR,A
    858              pFuncRxState = &rxFcsIsr;
   \   000010   90....       MOV     DPTR,#pFuncRxState
   \   000013   74..         MOV     A,#??rxFcsIsr?relay & 0xff
   \   000015   F0           MOVX    @DPTR,A
   \   000016   A3           INC     DPTR
   \   000017   74..         MOV     A,#(??rxFcsIsr?relay >> 8) & 0xff
   \   000019   F0           MOVX    @DPTR,A
   \   00001A   801F         SJMP    ??rxPrepPayload_1
    859            }
    860            else
    861            {
    862              rxNextLen = MIN(rxPayloadLen, MAX_PAYLOAD_BYTES_READ_PER_INTERRUPT);
   \                     ??rxPrepPayload_0:
   \   00001C   90....       MOV     DPTR,#rxPayloadLen
   \   00001F   E0           MOVX    A,@DPTR
   \   000020   C3           CLR     C
   \   000021   9410         SUBB    A,#0x10
   \   000023   5006         JNC     ??rxPrepPayload_2
   \   000025   90....       MOV     DPTR,#rxPayloadLen
   \   000028   E0           MOVX    A,@DPTR
   \   000029   8002         SJMP    ??rxPrepPayload_3
   \                     ??rxPrepPayload_2:
   \   00002B   7410         MOV     A,#0x10
   \                     ??rxPrepPayload_3:
   \   00002D   90....       MOV     DPTR,#rxNextLen
   \   000030   F0           MOVX    @DPTR,A
    863              MAC_RADIO_SET_RX_THRESHOLD(rxNextLen);
   \   000031   90....       MOV     DPTR,#rxNextLen
   \   000034   E0           MOVX    A,@DPTR
   \   000035   24FF         ADD     A,#-0x1
   \   000037   906194       MOV     DPTR,#0x6194
   \   00003A   F0           MOVX    @DPTR,A
    864            }
    865          }
   \                     ??rxPrepPayload_1:
   \   00003B   D083         POP     DPH
   \   00003D   D082         POP     DPL
   \   00003F   02....       LJMP    ?BRET
    866          
    867          
    868          /*=================================================================================================
    869           * @fn          rxPayloadIsr
    870           *
    871           * @brief       Receive ISR state for reading out and storing the packet payload.
    872           *
    873           * @param       none
    874           *
    875           * @return      none
    876           *=================================================================================================
    877           */

   \                                 In  segment BANKED_CODE, align 1, keep-with-next
    878          static void rxPayloadIsr(void)
   \                     rxPayloadIsr:
    879          {
   \   000000   C082         PUSH    DPL
   \   000002   C083         PUSH    DPH
   \   000004                ; Saved register size: 2
   \   000004                ; Auto size: 0
    880            MAC_RADIO_READ_RX_FIFO(pRxBuf->msdu.p, rxNextLen);
   \   000004                ; Setup parameters for call to function macMemReadRxFifo
   \   000004   90....       MOV     DPTR,#rxNextLen
   \   000007   E0           MOVX    A,@DPTR
   \   000008   F9           MOV     R1,A
   \   000009   90....       MOV     DPTR,#pRxBuf
   \   00000C   E0           MOVX    A,@DPTR
   \   00000D   F8           MOV     R0,A
   \   00000E   A3           INC     DPTR
   \   00000F   E0           MOVX    A,@DPTR
   \   000010   F583         MOV     DPH,A
   \   000012   8882         MOV     DPL,R0
   \   000014   A3           INC     DPTR
   \   000015   A3           INC     DPTR
   \   000016   E0           MOVX    A,@DPTR
   \   000017   FA           MOV     R2,A
   \   000018   A3           INC     DPTR
   \   000019   E0           MOVX    A,@DPTR
   \   00001A   FB           MOV     R3,A
   \   00001B   12....       LCALL   ??macMemReadRxFifo?relay
    881            pRxBuf->msdu.p += rxNextLen;
   \   00001E   90....       MOV     DPTR,#rxNextLen
   \   000021   E0           MOVX    A,@DPTR
   \   000022   F8           MOV     R0,A
   \   000023   7900         MOV     R1,#0x0
   \   000025   90....       MOV     DPTR,#pRxBuf
   \   000028   E0           MOVX    A,@DPTR
   \   000029   FA           MOV     R2,A
   \   00002A   A3           INC     DPTR
   \   00002B   E0           MOVX    A,@DPTR
   \   00002C   F583         MOV     DPH,A
   \   00002E   8A82         MOV     DPL,R2
   \   000030   A3           INC     DPTR
   \   000031   A3           INC     DPTR
   \   000032   E0           MOVX    A,@DPTR
   \   000033   28           ADD     A,R0
   \   000034   F8           MOV     R0,A
   \   000035   A3           INC     DPTR
   \   000036   E0           MOVX    A,@DPTR
   \   000037   39           ADDC    A,R1
   \   000038   F9           MOV     R1,A
   \   000039   90....       MOV     DPTR,#pRxBuf
   \   00003C   E0           MOVX    A,@DPTR
   \   00003D   FA           MOV     R2,A
   \   00003E   A3           INC     DPTR
   \   00003F   E0           MOVX    A,@DPTR
   \   000040   F583         MOV     DPH,A
   \   000042   8A82         MOV     DPL,R2
   \   000044   A3           INC     DPTR
   \   000045   A3           INC     DPTR
   \   000046   E8           MOV     A,R0
   \   000047   F0           MOVX    @DPTR,A
   \   000048   A3           INC     DPTR
   \   000049   E9           MOV     A,R1
   \   00004A   F0           MOVX    @DPTR,A
    882            rxPayloadLen -= rxNextLen;
   \   00004B   90....       MOV     DPTR,#rxNextLen
   \   00004E   E0           MOVX    A,@DPTR
   \   00004F   F8           MOV     R0,A
   \   000050   90....       MOV     DPTR,#rxPayloadLen
   \   000053   E0           MOVX    A,@DPTR
   \   000054   C3           CLR     C
   \   000055   98           SUBB    A,R0
   \   000056   F0           MOVX    @DPTR,A
    883          
    884            rxPrepPayload();
   \   000057                ; Setup parameters for call to function rxPrepPayload
   \   000057   12....       LCALL   ??rxPrepPayload?relay
    885          }
   \   00005A   D083         POP     DPH
   \   00005C   D082         POP     DPL
   \   00005E   02....       LJMP    ?BRET
    886          
    887          
    888          /*=================================================================================================
    889           * @fn          rxFcsIsr
    890           *
    891           * @brief       Receive ISR state for handling the FCS.
    892           *
    893           * @param       none
    894           *
    895           * @return      none
    896           *=================================================================================================
    897           */

   \                                 In  segment BANKED_CODE, align 1, keep-with-next
    898          static void rxFcsIsr(void)
   \                     rxFcsIsr:
    899          {
   \   000000   74F6         MOV     A,#-0xa
   \   000002   12....       LCALL   ?BANKED_ENTER_XDATA
   \   000005                ; Saved register size: 10
   \   000005                ; Auto size: 0
    900            uint8 crcOK;
    901            uint8 ackWithPending = 0;
   \   000005   75..00       MOV     ?V0 + 1,#0x0
    902          
    903            /* read FCS, rxBuf is now available storage */
    904            MAC_RADIO_READ_RX_FIFO(rxBuf, MAC_FCS_FIELD_LEN);
   \   000008                ; Setup parameters for call to function macMemReadRxFifo
   \   000008   7902         MOV     R1,#0x2
   \   00000A   7A..         MOV     R2,#rxBuf & 0xff
   \   00000C   7B..         MOV     R3,#(rxBuf >> 8) & 0xff
   \   00000E   12....       LCALL   ??macMemReadRxFifo?relay
    905          
    906            /*
    907             *  The FCS has actually been replaced within the radio by a proprietary version of the FCS.
    908             *  This proprietary FCS is two bytes (same length as the real FCS) and contains:
    909             *    1) the RSSI value
    910             *    2) the average correlation value (used for LQI)
    911             *    3) a CRC passed bit
    912             */
    913          
    914            /* save the "CRC-is-OK" status */
    915            crcOK = PROPRIETARY_FCS_CRC_OK(rxBuf);
   \   000011   90....       MOV     DPTR,#rxBuf + 1
   \   000014   E0           MOVX    A,@DPTR
   \   000015   5480         ANL     A,#0x80
   \   000017   F5..         MOV     ?V0 + 0,A
    916          
    917            /*
    918             *  See if the frame should be passed up to high-level MAC.  If the CRC is OK, the
    919             *  the frame is always passed up.  Frames with a bad CRC are also passed up *if*
    920             *  a special variant of promiscuous mode is active.
    921             */
    922            if (crcOK || (rxPromiscuousMode == MAC_PROMISCUOUS_MODE_WITH_BAD_CRC))
   \   000019   E5..         MOV     A,?V0 + 0
   \   00001B   700B         JNZ     ??rxFcsIsr_0
   \   00001D   90....       MOV     DPTR,#rxPromiscuousMode
   \   000020   E0           MOVX    A,@DPTR
   \   000021   6402         XRL     A,#0x2
   \   000023   6003         JZ      $+5
   \   000025   02....       LJMP    ??rxFcsIsr_1 & 0xFFFF
    923            {
    924              int8 rssiDbm;
    925              uint8 corr;
    926          
    927              /*
    928               *  As power saving optimization, set state variable to indicate physical receive
    929               *  has completed and then request turning of the receiver.  This means the receiver
    930               *  can be off (if other conditions permit) during execution of the callback function.
    931               *
    932               *  The receiver will be requested to turn off once again at the end of the receive
    933               *  logic.  There is no harm in doing this.
    934               */
    935              macRxActive = MAC_RX_ACTIVE_DONE;
   \                     ??rxFcsIsr_0:
   \   000028   90....       MOV     DPTR,#macRxActive
   \   00002B   7402         MOV     A,#0x2
   \   00002D   F0           MOVX    @DPTR,A
    936              macRxOffRequest();
   \   00002E                ; Setup parameters for call to function macRxOffRequest
   \   00002E   12....       LCALL   ??macRxOffRequest?relay
    937          
    938              /* decode RSSI and correlation values */
    939              rssiDbm = PROPRIETARY_FCS_RSSI(rxBuf) + MAC_RADIO_RSSI_OFFSET;
   \   000031   90....       MOV     DPTR,#rxBuf
   \   000034   E0           MOVX    A,@DPTR
   \   000035   24B7         ADD     A,#-0x49
   \   000037   FF           MOV     R7,A
    940              MAC_RADIO_RSSI_LNA_OFFSET(rssiDbm);
    941              corr = PROPRIETARY_FCS_CORRELATION_VALUE(rxBuf);
   \   000038   90....       MOV     DPTR,#rxBuf + 1
   \   00003B   E0           MOVX    A,@DPTR
   \   00003C   547F         ANL     A,#0x7f
   \   00003E   FE           MOV     R6,A
    942          
    943              /* Read the source matching result back */
    944              if( macSrcMatchIsEnabled && MAC_RADIO_SRC_MATCH_RESULT() )
   \   00003F   90....       MOV     DPTR,#macSrcMatchIsEnabled
   \   000042   E0           MOVX    A,@DPTR
   \   000043   6009         JZ      ??rxFcsIsr_2
   \   000045                ; Setup parameters for call to function MAC_SrcMatchCheckResult
   \   000045   12....       LCALL   ??MAC_SrcMatchCheckResult?relay
   \   000048   E9           MOV     A,R1
   \   000049   6003         JZ      ??rxFcsIsr_2
    945              {
    946                /* This result will not overwrite the previously determined pRxBuf->internal.flags */
    947                ackWithPending = MAC_RX_FLAG_ACK_PENDING;
   \   00004B   75..04       MOV     ?V0 + 1,#0x4
    948              }
    949          
    950              /* record parameters that get passed up to high-level */
    951              pRxBuf->internal.flags |= ( crcOK | ackWithPending );
   \                     ??rxFcsIsr_2:
   \   00004E   E5..         MOV     A,?V0 + 0
   \   000050   45..         ORL     A,?V0 + 1
   \   000052   F8           MOV     R0,A
   \   000053   90....       MOV     DPTR,#pRxBuf
   \   000056   E0           MOVX    A,@DPTR
   \   000057   F9           MOV     R1,A
   \   000058   A3           INC     DPTR
   \   000059   E0           MOVX    A,@DPTR
   \   00005A   C9           XCH     A,R1
   \   00005B   2406         ADD     A,#0x6
   \   00005D   F582         MOV     DPL,A
   \   00005F   E9           MOV     A,R1
   \   000060   3400         ADDC    A,#0x0
   \   000062   F583         MOV     DPH,A
   \   000064   E0           MOVX    A,@DPTR
   \   000065   48           ORL     A,R0
   \   000066   F0           MOVX    @DPTR,A
    952              pRxBuf->mac.mpduLinkQuality = macRadioComputeLQI(rssiDbm, corr);
   \   000067                ; Setup parameters for call to function macRadioComputeLQI
   \   000067   EE           MOV     A,R6
   \   000068   FA           MOV     R2,A
   \   000069   EF           MOV     A,R7
   \   00006A   F9           MOV     R1,A
   \   00006B   12....       LCALL   ??macRadioComputeLQI?relay
   \   00006E   E9           MOV     A,R1
   \   00006F   C0E0         PUSH    A
   \   000071   90....       MOV     DPTR,#pRxBuf
   \   000074   E0           MOVX    A,@DPTR
   \   000075   F8           MOV     R0,A
   \   000076   A3           INC     DPTR
   \   000077   E0           MOVX    A,@DPTR
   \   000078   C8           XCH     A,R0
   \   000079   242E         ADD     A,#0x2e
   \   00007B   F582         MOV     DPL,A
   \   00007D   E8           MOV     A,R0
   \   00007E   3400         ADDC    A,#0x0
   \   000080   F583         MOV     DPH,A
   \   000082   D0E0         POP     A
   \   000084   F0           MOVX    @DPTR,A
    953              pRxBuf->mac.rssi = rssiDbm;
   \   000085   EF           MOV     A,R7
   \   000086   C0E0         PUSH    A
   \   000088   90....       MOV     DPTR,#pRxBuf
   \   00008B   E0           MOVX    A,@DPTR
   \   00008C   F8           MOV     R0,A
   \   00008D   A3           INC     DPTR
   \   00008E   E0           MOVX    A,@DPTR
   \   00008F   C8           XCH     A,R0
   \   000090   2430         ADD     A,#0x30
   \   000092   F582         MOV     DPL,A
   \   000094   E8           MOV     A,R0
   \   000095   3400         ADDC    A,#0x0
   \   000097   F583         MOV     DPH,A
   \   000099   D0E0         POP     A
   \   00009B   F0           MOVX    @DPTR,A
    954              pRxBuf->mac.correlation = corr;
   \   00009C   EE           MOV     A,R6
   \   00009D   C0E0         PUSH    A
   \   00009F   90....       MOV     DPTR,#pRxBuf
   \   0000A2   E0           MOVX    A,@DPTR
   \   0000A3   F8           MOV     R0,A
   \   0000A4   A3           INC     DPTR
   \   0000A5   E0           MOVX    A,@DPTR
   \   0000A6   C8           XCH     A,R0
   \   0000A7   242F         ADD     A,#0x2f
   \   0000A9   F582         MOV     DPL,A
   \   0000AB   E8           MOV     A,R0
   \   0000AC   3400         ADDC    A,#0x0
   \   0000AE   F583         MOV     DPH,A
   \   0000B0   D0E0         POP     A
   \   0000B2   F0           MOVX    @DPTR,A
    955          
    956              /* set the MSDU pointer to point at start of data */
    957              pRxBuf->msdu.p = (uint8 *) (pRxBuf + 1);
   \   0000B3   90....       MOV     DPTR,#pRxBuf
   \   0000B6   E0           MOVX    A,@DPTR
   \   0000B7   2432         ADD     A,#0x32
   \   0000B9   F8           MOV     R0,A
   \   0000BA   A3           INC     DPTR
   \   0000BB   E0           MOVX    A,@DPTR
   \   0000BC   3400         ADDC    A,#0x0
   \   0000BE   F9           MOV     R1,A
   \   0000BF   90....       MOV     DPTR,#pRxBuf
   \   0000C2   E0           MOVX    A,@DPTR
   \   0000C3   FA           MOV     R2,A
   \   0000C4   A3           INC     DPTR
   \   0000C5   E0           MOVX    A,@DPTR
   \   0000C6   F583         MOV     DPH,A
   \   0000C8   8A82         MOV     DPL,R2
   \   0000CA   A3           INC     DPTR
   \   0000CB   A3           INC     DPTR
   \   0000CC   E8           MOV     A,R0
   \   0000CD   F0           MOVX    @DPTR,A
   \   0000CE   A3           INC     DPTR
   \   0000CF   E9           MOV     A,R1
   \   0000D0   F0           MOVX    @DPTR,A
    958          
    959              /* finally... execute callback function */
    960              macRxCompleteCallback(pRxBuf);
   \   0000D1                ; Setup parameters for call to function macRxCompleteCallback
   \   0000D1   90....       MOV     DPTR,#pRxBuf
   \   0000D4   E0           MOVX    A,@DPTR
   \   0000D5   FA           MOV     R2,A
   \   0000D6   A3           INC     DPTR
   \   0000D7   E0           MOVX    A,@DPTR
   \   0000D8   FB           MOV     R3,A
   \   0000D9   12....       LCALL   ??macRxCompleteCallback?relay
    961              pRxBuf = NULL; /* needed to indicate buffer is no longer allocated */
   \   0000DC   90....       MOV     DPTR,#pRxBuf
   \   0000DF   7400         MOV     A,#0x0
   \   0000E1   F0           MOVX    @DPTR,A
   \   0000E2   A3           INC     DPTR
   \   0000E3   7400         MOV     A,#0x0
   \   0000E5   F0           MOVX    @DPTR,A
   \   0000E6   801F         SJMP    ??rxFcsIsr_3
    962            }
    963            else
    964            {
    965              /*
    966               *  The CRC is bad so no ACK was sent.  Cancel any callback and clear the flag.
    967               *  (It's OK to cancel the outgoing ACK even if an ACK was not requested.  It's
    968               *  slightly more efficient to do so.)
    969               */
    970              MAC_RADIO_CANCEL_ACK_TX_DONE_CALLBACK();
   \                     ??rxFcsIsr_1:
   \   0000E8   9061A4       MOV     DPTR,#0x61a4
   \   0000EB   E0           MOVX    A,@DPTR
   \   0000EC   C2E0         CLR     0xE0 /* A   */.0
   \   0000EE   F0           MOVX    @DPTR,A
    971              macRxOutgoingAckFlag = 0;
   \   0000EF   90....       MOV     DPTR,#macRxOutgoingAckFlag
   \   0000F2   7400         MOV     A,#0x0
   \   0000F4   F0           MOVX    @DPTR,A
    972          
    973              /* the CRC failed so the packet must be discarded */
    974              MEM_FREE((uint8 **)&pRxBuf);
   \   0000F5                ; Setup parameters for call to function macDataRxMemFree
   \   0000F5   7A..         MOV     R2,#pRxBuf & 0xff
   \   0000F7   7B..         MOV     R3,#(pRxBuf >> 8) & 0xff
   \   0000F9   12....       LCALL   ??macDataRxMemFree?relay
   \   0000FC   E9           MOV     A,R1
    975              pRxBuf = NULL;  /* needed to indicate buffer is no longer allocated */
   \   0000FD   90....       MOV     DPTR,#pRxBuf
   \   000100   7400         MOV     A,#0x0
   \   000102   F0           MOVX    @DPTR,A
   \   000103   A3           INC     DPTR
   \   000104   7400         MOV     A,#0x0
   \   000106   F0           MOVX    @DPTR,A
    976            }
    977          
    978            /* reset threshold level, reset receive state, and complete receive logic */
    979            MAC_RADIO_SET_RX_THRESHOLD(RX_THRESHOLD_START_LEN);
   \                     ??rxFcsIsr_3:
   \   000107   906194       MOV     DPTR,#0x6194
   \   00010A   7405         MOV     A,#0x5
   \   00010C   F0           MOVX    @DPTR,A
    980            pFuncRxState = &rxStartIsr;
   \   00010D   90....       MOV     DPTR,#pFuncRxState
   \   000110   74..         MOV     A,#??rxStartIsr?relay & 0xff
   \   000112   F0           MOVX    @DPTR,A
   \   000113   A3           INC     DPTR
   \   000114   74..         MOV     A,#(??rxStartIsr?relay >> 8) & 0xff
   \   000116   F0           MOVX    @DPTR,A
    981            rxDone();
   \   000117                ; Setup parameters for call to function rxDone
   \   000117   12....       LCALL   ??rxDone?relay
    982          }
   \   00011A   7F02         MOV     R7,#0x2
   \   00011C   02....       LJMP    ?BANKED_LEAVE_XDATA
    983          
    984          
    985          /*=================================================================================================
    986           * @fn          rxDone
    987           *
    988           * @brief       Common exit point for receive.
    989           *
    990           * @param       none
    991           *
    992           * @return      none
    993           *=================================================================================================
    994           */

   \                                 In  segment BANKED_CODE, align 1, keep-with-next
    995          static void rxDone(void)
   \                     rxDone:
    996          {
   \   000000   C082         PUSH    DPL
   \   000002   C083         PUSH    DPH
   \   000004                ; Saved register size: 2
   \   000004                ; Auto size: 0
    997            /* if the receive FIFO has overflowed, flush it here */
    998            if (MAC_RADIO_RX_FIFO_HAS_OVERFLOWED())
   \   000004   906193       MOV     DPTR,#0x6193
   \   000007   E0           MOVX    A,@DPTR
   \   000008   A2E6         MOV     C,0xE0 /* A   */.6
   \   00000A   500E         JNC     ??rxDone_0
   \   00000C   906193       MOV     DPTR,#0x6193
   \   00000F   E0           MOVX    A,@DPTR
   \   000010   A2E7         MOV     C,0xE0 /* A   */.7
   \   000012   4006         JC      ??rxDone_0
    999            {
   1000              MAC_RADIO_FLUSH_RX_FIFO();
   \   000014   75E1ED       MOV     0xe1,#-0x13
   \   000017   75E1ED       MOV     0xe1,#-0x13
   1001            }
   1002          
   1003            /* mark receive as inactive */
   1004            macRxActive = MAC_RX_ACTIVE_NO_ACTIVITY;
   \                     ??rxDone_0:
   \   00001A   90....       MOV     DPTR,#macRxActive
   \   00001D   7400         MOV     A,#0x0
   \   00001F   F0           MOVX    @DPTR,A
   1005          
   1006            /* if there is no outgoing ACK, run the post receive updates */
   1007            if (!macRxOutgoingAckFlag)
   \   000020   90....       MOV     DPTR,#macRxOutgoingAckFlag
   \   000023   E0           MOVX    A,@DPTR
   \   000024   7003         JNZ     ??rxDone_1
   1008            {
   1009              rxPostRxUpdates();
   \   000026                ; Setup parameters for call to function rxPostRxUpdates
   \   000026   12....       LCALL   ??rxPostRxUpdates?relay
   1010            }
   1011          }
   \                     ??rxDone_1:
   \   000029   D083         POP     DPH
   \   00002B   D082         POP     DPL
   \   00002D   02....       LJMP    ?BRET
   \   000030                REQUIRE RFST
   1012          
   1013          
   1014          /**************************************************************************************************
   1015           * @fn          macRxAckTxDoneCallback
   1016           *
   1017           * @brief       Function called when the outoing ACK has completed transmitting.
   1018           *
   1019           * @param       none
   1020           *
   1021           * @return      none
   1022           **************************************************************************************************
   1023           */

   \                                 In  segment BANKED_CODE, align 1, keep-with-next
   1024          void macRxAckTxDoneCallback(void)
   \                     macRxAckTxDoneCallback:
   1025          {
   \   000000   C082         PUSH    DPL
   \   000002   C083         PUSH    DPH
   \   000004                ; Saved register size: 2
   \   000004                ; Auto size: 0
   1026            macRxOutgoingAckFlag = 0;
   \   000004   90....       MOV     DPTR,#macRxOutgoingAckFlag
   \   000007   7400         MOV     A,#0x0
   \   000009   F0           MOVX    @DPTR,A
   1027          
   1028            /*
   1029             *  With certain interrupt priorities and timing conditions, it is possible this callback
   1030             *  could be executed before the primary receive logic completes.  To prevent this, the
   1031             *  post updates are only executed if receive logic is no longer active.  In the case the
   1032             *  post updates are not executed here, they will execute when the main receive logic
   1033             *  completes.
   1034             */
   1035            if (!macRxActive)
   \   00000A   90....       MOV     DPTR,#macRxActive
   \   00000D   E0           MOVX    A,@DPTR
   \   00000E   7003         JNZ     ??macRxAckTxDoneCallback_0
   1036            {
   1037              rxPostRxUpdates();
   \   000010                ; Setup parameters for call to function rxPostRxUpdates
   \   000010   12....       LCALL   ??rxPostRxUpdates?relay
   1038            }
   1039          }
   \                     ??macRxAckTxDoneCallback_0:
   \   000013   D083         POP     DPH
   \   000015   D082         POP     DPL
   \   000017   02....       LJMP    ?BRET
   1040          
   1041          
   1042          /*=================================================================================================
   1043           * @fn          rxPostRxUpdates
   1044           *
   1045           * @brief       Updates that need to be performed once receive is complete.
   1046           *
   1047           *              It is not fatal to execute this function if somehow receive is active.  Under
   1048           *              certain timing/interrupt conditions a new receive may have started before this
   1049           *              function executes.  This should happen very rarely (if it happens at all) and
   1050           *              would cause no problems.
   1051           *
   1052           * @param       none
   1053           *
   1054           * @return      none
   1055           *=================================================================================================
   1056           */

   \                                 In  segment BANKED_CODE, align 1, keep-with-next
   1057          static void rxPostRxUpdates(void)
   \                     rxPostRxUpdates:
   1058          {
   \   000000   C082         PUSH    DPL
   \   000002   C083         PUSH    DPH
   \   000004                ; Saved register size: 2
   \   000004                ; Auto size: 0
   1059            /* turn off receiver if permitted */
   1060            macRxOffRequest();
   \   000004                ; Setup parameters for call to function macRxOffRequest
   \   000004   12....       LCALL   ??macRxOffRequest?relay
   1061          
   1062            /* update the transmit power, update may have been blocked by transmit of outgoing ACK */
   1063            macRadioUpdateTxPower();
   \   000007                ; Setup parameters for call to function macRadioUpdateTxPower
   \   000007   12....       LCALL   ??macRadioUpdateTxPower?relay
   1064          
   1065            /* initiate and transmit that was queued during receive */
   1066            macTxStartQueuedFrame();
   \   00000A                ; Setup parameters for call to function macTxStartQueuedFrame
   \   00000A   12....       LCALL   ??macTxStartQueuedFrame?relay
   1067          }
   \   00000D   D083         POP     DPH
   \   00000F   D082         POP     DPL
   \   000011   02....       LJMP    ?BRET
   1068          
   1069          
   1070          /*=================================================================================================
   1071           * @fn          rxDiscardFrame
   1072           *
   1073           * @brief       Initializes for discarding a packet.  Must be called before ACK is strobed.
   1074           *
   1075           * @param       none
   1076           *
   1077           * @return      none
   1078           *=================================================================================================
   1079           */

   \                                 In  segment BANKED_CODE, align 1, keep-with-next
   1080          static void rxDiscardFrame(void)
   \                     rxDiscardFrame:
   1081          {
   \   000000   C082         PUSH    DPL
   \   000002   C083         PUSH    DPH
   \   000004                ; Saved register size: 2
   \   000004                ; Auto size: 0
   1082            MAC_ASSERT(pFuncRxState == &rxStartIsr); /* illegal state for calling discard frame function */
   \   000004   90....       MOV     DPTR,#pFuncRxState
   \   000007   E0           MOVX    A,@DPTR
   \   000008   64..         XRL     A,#??rxStartIsr?relay & 0xff
   \   00000A   7004         JNZ     ??rxDiscardFrame_0
   \   00000C   A3           INC     DPTR
   \   00000D   E0           MOVX    A,@DPTR
   \   00000E   64..         XRL     A,#(??rxStartIsr?relay >> 8) & 0xff
   \                     ??rxDiscardFrame_0:
   \   000010   6003         JZ      ??rxDiscardFrame_1
   \   000012                ; Setup parameters for call to function halAssertHandler
   \   000012   12....       LCALL   ??halAssertHandler?relay
   1083          
   1084            if (rxUnreadLen == 0)
   \                     ??rxDiscardFrame_1:
   \   000015   90....       MOV     DPTR,#rxUnreadLen
   \   000018   E0           MOVX    A,@DPTR
   \   000019   7005         JNZ     ??rxDiscardFrame_2
   1085            {
   1086              rxDone();
   \   00001B                ; Setup parameters for call to function rxDone
   \   00001B   12....       LCALL   ??rxDone?relay
   \   00001E   8029         SJMP    ??rxDiscardFrame_3
   1087            }
   1088            else
   1089            {
   1090              rxNextLen = MIN(rxUnreadLen, MAX_PAYLOAD_BYTES_READ_PER_INTERRUPT);
   \                     ??rxDiscardFrame_2:
   \   000020   90....       MOV     DPTR,#rxUnreadLen
   \   000023   E0           MOVX    A,@DPTR
   \   000024   C3           CLR     C
   \   000025   9410         SUBB    A,#0x10
   \   000027   5006         JNC     ??rxDiscardFrame_4
   \   000029   90....       MOV     DPTR,#rxUnreadLen
   \   00002C   E0           MOVX    A,@DPTR
   \   00002D   8002         SJMP    ??rxDiscardFrame_5
   \                     ??rxDiscardFrame_4:
   \   00002F   7410         MOV     A,#0x10
   \                     ??rxDiscardFrame_5:
   \   000031   90....       MOV     DPTR,#rxNextLen
   \   000034   F0           MOVX    @DPTR,A
   1091              MAC_RADIO_SET_RX_THRESHOLD(rxNextLen);
   \   000035   90....       MOV     DPTR,#rxNextLen
   \   000038   E0           MOVX    A,@DPTR
   \   000039   24FF         ADD     A,#-0x1
   \   00003B   906194       MOV     DPTR,#0x6194
   \   00003E   F0           MOVX    @DPTR,A
   1092              pFuncRxState = &rxDiscardIsr;
   \   00003F   90....       MOV     DPTR,#pFuncRxState
   \   000042   74..         MOV     A,#??rxDiscardIsr?relay & 0xff
   \   000044   F0           MOVX    @DPTR,A
   \   000045   A3           INC     DPTR
   \   000046   74..         MOV     A,#(??rxDiscardIsr?relay >> 8) & 0xff
   \   000048   F0           MOVX    @DPTR,A
   1093            }
   1094          }
   \                     ??rxDiscardFrame_3:
   \   000049   D083         POP     DPH
   \   00004B   D082         POP     DPL
   \   00004D   02....       LJMP    ?BRET
   1095          
   1096          
   1097          /*=================================================================================================
   1098           * @fn          rxDiscardIsr
   1099           *
   1100           * @brief       Receive ISR state for discarding a packet.
   1101           *
   1102           * @param       none
   1103           *
   1104           * @return      none
   1105           *=================================================================================================
   1106           */

   \                                 In  segment BANKED_CODE, align 1, keep-with-next
   1107          static void rxDiscardIsr(void)
   \                     rxDiscardIsr:
   1108          {
   \   000000   C082         PUSH    DPL
   \   000002   C083         PUSH    DPH
   \   000004                ; Saved register size: 2
   \   000004                ; Auto size: 16
   \   000004   74F0         MOV     A,#-0x10
   \   000006   12....       LCALL   ?ALLOC_XSTACK8
   1109            uint8 buf[MAX_PAYLOAD_BYTES_READ_PER_INTERRUPT];
   1110          
   1111            MAC_RADIO_READ_RX_FIFO(buf, rxNextLen);
   \   000009                ; Setup parameters for call to function macMemReadRxFifo
   \   000009   90....       MOV     DPTR,#rxNextLen
   \   00000C   E0           MOVX    A,@DPTR
   \   00000D   F9           MOV     R1,A
   \   00000E   85..82       MOV     DPL,?XSP + 0
   \   000011   85..83       MOV     DPH,?XSP + 1
   \   000014   AA82         MOV     R2,DPL
   \   000016   AB83         MOV     R3,DPH
   \   000018   12....       LCALL   ??macMemReadRxFifo?relay
   1112            rxUnreadLen -= rxNextLen;
   \   00001B   90....       MOV     DPTR,#rxNextLen
   \   00001E   E0           MOVX    A,@DPTR
   \   00001F   F8           MOV     R0,A
   \   000020   90....       MOV     DPTR,#rxUnreadLen
   \   000023   E0           MOVX    A,@DPTR
   \   000024   C3           CLR     C
   \   000025   98           SUBB    A,R0
   \   000026   F0           MOVX    @DPTR,A
   1113          
   1114            /* read out and discard bytes until all bytes of packet are disposed of */
   1115            if (rxUnreadLen != 0)
   \   000027   90....       MOV     DPTR,#rxUnreadLen
   \   00002A   E0           MOVX    A,@DPTR
   \   00002B   601D         JZ      ??rxDiscardIsr_0
   1116            {
   1117              if (rxUnreadLen < MAX_PAYLOAD_BYTES_READ_PER_INTERRUPT)
   \   00002D   90....       MOV     DPTR,#rxUnreadLen
   \   000030   E0           MOVX    A,@DPTR
   \   000031   C3           CLR     C
   \   000032   9410         SUBB    A,#0x10
   \   000034   5027         JNC     ??rxDiscardIsr_1
   1118              {
   1119                rxNextLen = rxUnreadLen;
   \   000036   90....       MOV     DPTR,#rxUnreadLen
   \   000039   E0           MOVX    A,@DPTR
   \   00003A   90....       MOV     DPTR,#rxNextLen
   \   00003D   F0           MOVX    @DPTR,A
   1120                MAC_RADIO_SET_RX_THRESHOLD(rxNextLen);
   \   00003E   90....       MOV     DPTR,#rxNextLen
   \   000041   E0           MOVX    A,@DPTR
   \   000042   24FF         ADD     A,#-0x1
   \   000044   906194       MOV     DPTR,#0x6194
   \   000047   F0           MOVX    @DPTR,A
   \   000048   8013         SJMP    ??rxDiscardIsr_1
   1121              }
   1122            }
   1123            else
   1124            {
   1125              /* reset threshold level, reset receive state, and complete receive logic */
   1126              MAC_RADIO_SET_RX_THRESHOLD(RX_THRESHOLD_START_LEN);
   \                     ??rxDiscardIsr_0:
   \   00004A   906194       MOV     DPTR,#0x6194
   \   00004D   7405         MOV     A,#0x5
   \   00004F   F0           MOVX    @DPTR,A
   1127              pFuncRxState = &rxStartIsr;
   \   000050   90....       MOV     DPTR,#pFuncRxState
   \   000053   74..         MOV     A,#??rxStartIsr?relay & 0xff
   \   000055   F0           MOVX    @DPTR,A
   \   000056   A3           INC     DPTR
   \   000057   74..         MOV     A,#(??rxStartIsr?relay >> 8) & 0xff
   \   000059   F0           MOVX    @DPTR,A
   1128              rxDone();
   \   00005A                ; Setup parameters for call to function rxDone
   \   00005A   12....       LCALL   ??rxDone?relay
   1129            }
   1130          }
   \                     ??rxDiscardIsr_1:
   \   00005D   7410         MOV     A,#0x10
   \   00005F   12....       LCALL   ?DEALLOC_XSTACK8
   \   000062   D083         POP     DPH
   \   000064   D082         POP     DPL
   \   000066   02....       LJMP    ?BRET
   1131          
   1132          
   1133          /**************************************************************************************************
   1134           * @fn          maxRxRifoOverflowIsr
   1135           *
   1136           * @brief       This interrupt service routine is called when RX FIFO overflow. Note that this
   1137           *              exception does not retrieve the good frames that are trapped in the RX FIFO.
   1138           *              It simply halts and cleanup the RX.
   1139           *
   1140           * @param       none
   1141           *
   1142           * @return      none
   1143           **************************************************************************************************
   1144           */

   \                                 In  segment BANKED_CODE, align 1, keep-with-next
   1145          MAC_INTERNAL_API void macRxFifoOverflowIsr(void)
   \                     macRxFifoOverflowIsr:
   1146          {
   \   000000   C082         PUSH    DPL
   \   000002   C083         PUSH    DPH
   \   000004                ; Saved register size: 2
   \   000004                ; Auto size: 0
   1147            rxFifoOverflowCount++; /* This flag is used for debug purpose only */
   \   000004   90....       MOV     DPTR,#rxFifoOverflowCount
   \   000007   E0           MOVX    A,@DPTR
   \   000008   2401         ADD     A,#0x1
   \   00000A   F0           MOVX    @DPTR,A
   1148            macRxHaltCleanup();
   \   00000B                ; Setup parameters for call to function macRxHaltCleanup
   \   00000B   12....       LCALL   ??macRxHaltCleanup?relay
   1149          }
   \   00000E   D083         POP     DPH
   \   000010   D082         POP     DPL
   \   000012   02....       LJMP    ?BRET
   1150          
   1151          
   1152          /**************************************************************************************************
   1153           * @fn          macRxPromiscuousMode
   1154           *
   1155           * @brief       Sets promiscuous mode - enabling or disabling it.
   1156           *
   1157           * @param       none
   1158           *
   1159           * @return      none
   1160           **************************************************************************************************
   1161           */

   \                                 In  segment BANKED_CODE, align 1, keep-with-next
   1162          MAC_INTERNAL_API void macRxPromiscuousMode(uint8 mode)
   \                     macRxPromiscuousMode:
   1163          {
   \   000000   74F7         MOV     A,#-0x9
   \   000002   12....       LCALL   ?BANKED_ENTER_XDATA
   \   000005                ; Saved register size: 9
   \   000005                ; Auto size: 0
   \   000005   E9           MOV     A,R1
   \   000006   FE           MOV     R6,A
   1164            rxPromiscuousMode = mode;
   \   000007   EE           MOV     A,R6
   \   000008   90....       MOV     DPTR,#rxPromiscuousMode
   \   00000B   F0           MOVX    @DPTR,A
   1165          
   1166            if (rxPromiscuousMode == MAC_PROMISCUOUS_MODE_OFF)
   \   00000C   90....       MOV     DPTR,#rxPromiscuousMode
   \   00000F   E0           MOVX    A,@DPTR
   \   000010   7009         JNZ     ??macRxPromiscuousMode_0
   1167            {
   1168                MAC_RADIO_TURN_ON_RX_FRAME_FILTERING();
   \   000012   906180       MOV     DPTR,#0x6180
   \   000015   E0           MOVX    A,@DPTR
   \   000016   D2E0         SETB    0xE0 /* A   */.0
   \   000018   F0           MOVX    @DPTR,A
   \   000019   8014         SJMP    ??macRxPromiscuousMode_1
   1169            }
   1170            else
   1171            {
   1172              MAC_ASSERT((mode == MAC_PROMISCUOUS_MODE_WITH_BAD_CRC)   ||
   1173                         (mode == MAC_PROMISCUOUS_MODE_COMPLIANT));  /* invalid mode */
   \                     ??macRxPromiscuousMode_0:
   \   00001B   7402         MOV     A,#0x2
   \   00001D   6E           XRL     A,R6
   \   00001E   6008         JZ      ??macRxPromiscuousMode_2
   \   000020   7401         MOV     A,#0x1
   \   000022   6E           XRL     A,R6
   \   000023   6003         JZ      ??macRxPromiscuousMode_2
   \   000025                ; Setup parameters for call to function halAssertHandler
   \   000025   12....       LCALL   ??halAssertHandler?relay
   1174          
   1175              MAC_RADIO_TURN_OFF_RX_FRAME_FILTERING();
   \                     ??macRxPromiscuousMode_2:
   \   000028   906180       MOV     DPTR,#0x6180
   \   00002B   E0           MOVX    A,@DPTR
   \   00002C   C2E0         CLR     0xE0 /* A   */.0
   \   00002E   F0           MOVX    @DPTR,A
   1176            }
   1177          }
   \                     ??macRxPromiscuousMode_1:
   \   00002F   7F01         MOV     R7,#0x1
   \   000031   02....       LJMP    ?BANKED_LEAVE_XDATA

   \                                 In  segment BANK_RELAYS, align 1
   \                     ??macRxInit?relay:
   \   000000   12....       LCALL   ?BDISPATCH
   \   000003   ......       DC24    macRxInit

   \                                 In  segment BANK_RELAYS, align 1
   \                     ??macRxRadioPowerUpInit?relay:
   \   000000   12....       LCALL   ?BDISPATCH
   \   000003   ......       DC24    macRxRadioPowerUpInit

   \                                 In  segment BANK_RELAYS, align 1
   \                     ??macRxTxReset?relay:
   \   000000   12....       LCALL   ?BDISPATCH
   \   000003   ......       DC24    macRxTxReset

   \                                 In  segment BANK_RELAYS, align 1
   \                     ??macRxHaltCleanup?relay:
   \   000000   12....       LCALL   ?BDISPATCH
   \   000003   ......       DC24    macRxHaltCleanup

   \                                 In  segment BANK_RELAYS, align 1
   \                     ??rxHaltCleanupFinalStep?relay:
   \   000000   12....       LCALL   ?BDISPATCH
   \   000003   ......       DC24    rxHaltCleanupFinalStep

   \                                 In  segment BANK_RELAYS, align 1
   \                     ??macRxThresholdIsr?relay:
   \   000000   12....       LCALL   ?BDISPATCH
   \   000003   ......       DC24    macRxThresholdIsr

   \                                 In  segment BANK_RELAYS, align 1
   \                     ??rxStartIsr?relay:
   \   000000   12....       LCALL   ?BDISPATCH
   \   000003   ......       DC24    rxStartIsr

   \                                 In  segment BANK_RELAYS, align 1
   \                     ??rxAddrIsr?relay:
   \   000000   12....       LCALL   ?BDISPATCH
   \   000003   ......       DC24    rxAddrIsr

   \                                 In  segment BANK_RELAYS, align 1
   \                     ??rxPrepPayload?relay:
   \   000000   12....       LCALL   ?BDISPATCH
   \   000003   ......       DC24    rxPrepPayload

   \                                 In  segment BANK_RELAYS, align 1
   \                     ??rxPayloadIsr?relay:
   \   000000   12....       LCALL   ?BDISPATCH
   \   000003   ......       DC24    rxPayloadIsr

   \                                 In  segment BANK_RELAYS, align 1
   \                     ??rxFcsIsr?relay:
   \   000000   12....       LCALL   ?BDISPATCH
   \   000003   ......       DC24    rxFcsIsr

   \                                 In  segment BANK_RELAYS, align 1
   \                     ??rxDone?relay:
   \   000000   12....       LCALL   ?BDISPATCH
   \   000003   ......       DC24    rxDone

   \                                 In  segment BANK_RELAYS, align 1
   \                     ??macRxAckTxDoneCallback?relay:
   \   000000   12....       LCALL   ?BDISPATCH
   \   000003   ......       DC24    macRxAckTxDoneCallback

   \                                 In  segment BANK_RELAYS, align 1
   \                     ??rxPostRxUpdates?relay:
   \   000000   12....       LCALL   ?BDISPATCH
   \   000003   ......       DC24    rxPostRxUpdates

   \                                 In  segment BANK_RELAYS, align 1
   \                     ??rxDiscardFrame?relay:
   \   000000   12....       LCALL   ?BDISPATCH
   \   000003   ......       DC24    rxDiscardFrame

   \                                 In  segment BANK_RELAYS, align 1
   \                     ??rxDiscardIsr?relay:
   \   000000   12....       LCALL   ?BDISPATCH
   \   000003   ......       DC24    rxDiscardIsr

   \                                 In  segment BANK_RELAYS, align 1
   \                     ??macRxFifoOverflowIsr?relay:
   \   000000   12....       LCALL   ?BDISPATCH
   \   000003   ......       DC24    macRxFifoOverflowIsr

   \                                 In  segment BANK_RELAYS, align 1
   \                     ??macRxPromiscuousMode?relay:
   \   000000   12....       LCALL   ?BDISPATCH
   \   000003   ......       DC24    macRxPromiscuousMode
   1178          
   1179          
   1180          
   1181          /**************************************************************************************************
   1182           *                                  Compile Time Integrity Checks
   1183           **************************************************************************************************
   1184           */
   1185          
   1186          /* check for changes to the spec that would affect the source code */
   1187          #if ((MAC_A_MAX_PHY_PACKET_SIZE   !=  0x7F )   ||  \
   1188               (MAC_FCF_FIELD_LEN           !=  2    )   ||  \
   1189               (MAC_FCF_FRAME_TYPE_POS      !=  0    )   ||  \
   1190               (MAC_FCF_FRAME_PENDING_POS   !=  4    )   ||  \
   1191               (MAC_FCF_ACK_REQUEST_POS     !=  5    )   ||  \
   1192               (MAC_FCF_INTRA_PAN_POS       !=  6    )   ||  \
   1193               (MAC_FCF_DST_ADDR_MODE_POS   !=  10   )   ||  \
   1194               (MAC_FCF_FRAME_VERSION_POS   !=  12   )   ||  \
   1195               (MAC_FCF_SRC_ADDR_MODE_POS   !=  14   ))
   1196          #error "ERROR!  Change to the spec that requires modification of source code."
   1197          #endif
   1198          
   1199          /* check for changes to the internal flags format */
   1200          #if ((MAC_RX_FLAG_VERSION      !=  0x03)  ||  \
   1201               (MAC_RX_FLAG_ACK_PENDING  !=  0x04)  ||  \
   1202               (MAC_RX_FLAG_SECURITY     !=  0x08)  ||  \
   1203               (MAC_RX_FLAG_PENDING      !=  0x10)  ||  \
   1204               (MAC_RX_FLAG_ACK_REQUEST  !=  0x20)  ||  \
   1205               (MAC_RX_FLAG_INTRA_PAN    !=  0x40))
   1206          #error "ERROR!  Change to the internal RX flags format.  Requires modification of source code."
   1207          #endif
   1208          
   1209          /* validate CRC OK bit optimization */
   1210          #if (MAC_RX_FLAG_CRC_OK != PROPRIETARY_FCS_CRC_OK_BIT)
   1211          #error "ERROR!  Optimization relies on these bits having the same position."
   1212          #endif
   1213          
   1214          #if (MAC_RX_ACTIVE_NO_ACTIVITY != 0x00)
   1215          #error "ERROR! Zero is reserved value of macRxActive. Allows boolean operations, e.g !macRxActive."
   1216          #endif
   1217          
   1218          #if (MAC_PROMISCUOUS_MODE_OFF != 0x00)
   1219          #error "ERROR! Zero is reserved value of rxPromiscuousMode. Allows boolean operations, e.g !rxPromiscuousMode."
   1220          #endif
   1221          
   1222          
   1223          /**************************************************************************************************
   1224          */

   Maximum stack usage in bytes:

   ISTACK PSTACK XSTACK Function
   ------ ------ ------ --------
       2      0      0  macRxAckTxDoneCallback
                          2 0  0 -> rxPostRxUpdates
       2      0      0  macRxFifoOverflowIsr
                          2 0  0 -> macRxHaltCleanup
       2      0      0  macRxHaltCleanup
                          2 0  0 -> rxHaltCleanupFinalStep
       2      0      0  macRxInit
       0      0      9  macRxPromiscuousMode
                          0 0  9 -> halAssertHandler
       2      0      0  macRxRadioPowerUpInit
       2      0      0  macRxThresholdIsr
                          2 0  0 -> rxHaltCleanupFinalStep
       2      0      0  macRxTxReset
                          2 0  0 -> macRxHardDisable
                          2 0  0 -> macRxPromiscuousMode
       0      0     30  rxAddrIsr
                          0 0 30 -> halAssertHandler
                          0 0 30 -> macMemReadRxFifo
                          0 0 30 -> rxPrepPayload
                          0 0 30 -> sAddrExtCpy
       2      0     20  rxDiscardFrame
                          2 0  0 -> halAssertHandler
                          2 0  0 -> rxDone
       2      0     16  rxDiscardIsr
                          2 0 16 -> macMemReadRxFifo
                          2 0 16 -> rxDone
       2      0     20  rxDone
                          2 0  0 -> rxPostRxUpdates
       1      0     10  rxFcsIsr
                          0 0 10 -> MAC_SrcMatchCheckResult
                          0 0 10 -> macDataRxMemFree
                          0 0 10 -> macMemReadRxFifo
                          0 0 10 -> macRadioComputeLQI
                          0 0 10 -> macRxCompleteCallback
                          0 0 10 -> macRxOffRequest
                          0 0 10 -> rxDone
       0      0      9  rxHaltCleanupFinalStep
                          0 0  9 -> macDataRxMemFree
                          0 0  9 -> rxPostRxUpdates
       2      0      0  rxPayloadIsr
                          2 0  0 -> macMemReadRxFifo
                          2 0  0 -> rxPrepPayload
       2      0     20  rxPostRxUpdates
                          2 0  0 -> macRadioUpdateTxPower
                          2 0  0 -> macRxOffRequest
                          2 0  0 -> macTxStartQueuedFrame
       2      0     30  rxPrepPayload
       1      0     20  rxStartIsr
                          0 0 20 -> MAC_SrcMatchCheckAllPending
                          0 0 20 -> halAssertHandler
                          0 0 20 -> macCspForceTxDoneIfPending
                          0 0 20 -> macDataRxMemAlloc
                          0 0 20 -> macMcuOverflowCapture
                          0 0 20 -> macMcuTimerCapture
                          0 0 20 -> macMemReadRxFifo
                          0 0 20 -> macRadioComputeLQI
                          0 0 20 -> macRxCheckMACPendingCallback
                          0 0 20 -> macRxCheckPendingCallback
                          0 0 20 -> macTxAckNotReceivedCallback
                          0 0 20 -> macTxAckReceivedCallback
                          0 0 20 -> rxDiscardFrame
                          0 0 20 -> rxDone
                          0 0 20 -> rxPostRxUpdates
                          0 0 20 -> rxPrepPayload


   Segment part sizes:

   Bytes  Function/Label
   -----  --------------
       6  ??macRxAckTxDoneCallback?relay
       6  ??macRxFifoOverflowIsr?relay
       6  ??macRxHaltCleanup?relay
       6  ??macRxInit?relay
       6  ??macRxPromiscuousMode?relay
       6  ??macRxRadioPowerUpInit?relay
       6  ??macRxThresholdIsr?relay
       6  ??macRxTxReset?relay
       6  ??rxAddrIsr?relay
       6  ??rxDiscardFrame?relay
       6  ??rxDiscardIsr?relay
       6  ??rxDone?relay
       6  ??rxFcsIsr?relay
       6  ??rxHaltCleanupFinalStep?relay
       6  ??rxPayloadIsr?relay
       6  ??rxPostRxUpdates?relay
       6  ??rxPrepPayload?relay
       6  ??rxStartIsr?relay
       1  RFIRQF0
       1  RFIRQF1
       1  RFST
       1  S1CON
       1  _A_IEN0
      26  macRxAckTxDoneCallback
       1  macRxActive
       4  macRxAddrLen
      21  macRxFifoOverflowIsr
       1  macRxFilter
      32  macRxHaltCleanup
      73  macRxInit
       1  macRxOutgoingAckFlag
      52  macRxPromiscuousMode
      44  macRxRadioPowerUpInit
      58  macRxThresholdIsr
      25  macRxTxReset
       2  pFuncRxState
       2  pRxBuf
     429  rxAddrIsr
       4  rxBuf
      80  rxDiscardFrame
     105  rxDiscardIsr
      48  rxDone
     287  rxFcsIsr
       1  rxFifoOverflowCount
       1  rxFilter
     116  rxHaltCleanupFinalStep
       1  rxIsrActiveFlag
       1  rxNextLen
      97  rxPayloadIsr
       1  rxPayloadLen
      20  rxPostRxUpdates
      66  rxPrepPayload
       1  rxPromiscuousMode
       1  rxResetFlag
    1124  rxStartIsr
       1  rxUnreadLen

 
 2 703 bytes in segment BANKED_CODE
   108 bytes in segment BANK_RELAYS
     4 bytes in segment CODE_C
     5 bytes in segment SFR_AN
    19 bytes in segment XDATA_Z
 
 2 815 bytes of CODE  memory
     0 bytes of DATA  memory (+ 5 bytes shared)
    19 bytes of XDATA memory

Errors: none
Warnings: none
