###############################################################################
#                                                                             #
# IAR C/C++ Compiler V8.20.2.41139 for 8051             01/Jan/2016  15:52:15 #
# Copyright 2004-2013 IAR Systems AB.                                         #
#                                                                             #
#    Core               =  plain                                              #
#    Code model         =  banked                                             #
#    Data model         =  large                                              #
#    Calling convention =  xdata reentrant                                    #
#    Constant location  =  data_rom                                           #
#    Dptr setup         =  1,16                                               #
#                                                                             #
#    Source file        =  C:\Users\ArnoldWorkStation\Desktop\ZigbeeTest\Comp #
#                          onents\osal\mcu\cc2530\OSAL_Nv.c                   #
#    Command line       =  -f C:\Users\ArnoldWorkStation\Desktop\ZigbeeTest\P #
#                          rojects\zstack\Samples\SampleApp\CC2530DB\..\..\.. #
#                          \Tools\CC2530DB\f8wCoord.cfg (-DCPU32MHZ           #
#                          -DROOT=__near_func -DMAC_CFG_APP_PENDING_QUEUE=TRU #
#                          E -DZDO_COORDINATOR -DRTR_NWK -DBLINK_LEDS) -f     #
#                          C:\Users\ArnoldWorkStation\Desktop\ZigbeeTest\Proj #
#                          ects\zstack\Samples\SampleApp\CC2530DB\..\..\..\To #
#                          ols\CC2530DB\f8wConfig.cfg (-DSECURE=0             #
#                          -DZG_SECURE_DYNAMIC=0 -DREFLECTOR                  #
#                          -DDEFAULT_CHANLIST=0x00000800                      #
#                          -DZDAPP_CONFIG_PAN_ID=0xFFF1                       #
#                          -DNWK_START_DELAY=100 -DEXTENDED_JOINING_RANDOM_MA #
#                          SK=0x007F -DBEACON_REQUEST_DELAY=100               #
#                          -DBEACON_REQ_DELAY_MASK=0x00FF                     #
#                          -DROUTE_EXPIRY_TIME=30 -DAPSC_ACK_WAIT_DURATION_PO #
#                          LLED=3000 -DNWK_INDIRECT_MSG_TIMEOUT=7             #
#                          -DMAX_RREQ_ENTRIES=8 -DAPSC_MAX_FRAME_RETRIES=3    #
#                          -DNWK_MAX_DATA_RETRIES=2                           #
#                          -DMAX_POLL_FAILURE_RETRIES=2 -DMAX_BCAST=9         #
#                          -DAPS_MAX_GROUPS=16 -DMAX_RTG_ENTRIES=40           #
#                          -DNWK_MAX_BINDING_ENTRIES=4                        #
#                          -DMAX_BINDING_CLUSTER_IDS=4 "-DDEFAULT_KEY={0x01,  #
#                          0x03, 0x05, 0x07, 0x09, 0x0B, 0x0D, 0x0F, 0x00,    #
#                          0x02, 0x04, 0x06, 0x08, 0x0A, 0x0C, 0x0D}"         #
#                          -DMAC_MAX_FRAME_SIZE=116 "-DCONST=const __code"    #
#                          -DGENERIC=__generic -DRFD_RCVC_ALWAYS_ON=TRUE      #
#                          -DPOLL_RATE=1000 -DQUEUED_POLL_RATE=100            #
#                          -DRESPONSE_POLL_RATE=100) -DREJOIN_POLL_RATE=440   #
#                          C:\Users\ArnoldWorkStation\Desktop\ZigbeeTest\Comp #
#                          onents\osal\mcu\cc2530\OSAL_Nv.c -D ZIGBEEPRO -D   #
#                          ZTOOL_P1 -D xMT_TASK -D xMT_SYS_FUNC -D            #
#                          xMT_ZDO_FUNC -D LCD_SUPPORTED=DEBUG -lC            #
#                          C:\Users\ArnoldWorkStation\Desktop\ZigbeeTest\Proj #
#                          ects\zstack\Samples\SampleApp\CC2530DB\Coordinator #
#                          EB-Pro\List\ -lA C:\Users\ArnoldWorkStation\Deskto #
#                          p\ZigbeeTest\Projects\zstack\Samples\SampleApp\CC2 #
#                          530DB\CoordinatorEB-Pro\List\ --diag_suppress      #
#                          Pe001,Pa010 -o C:\Users\ArnoldWorkStation\Desktop\ #
#                          ZigbeeTest\Projects\zstack\Samples\SampleApp\CC253 #
#                          0DB\CoordinatorEB-Pro\Obj\ -e --no_cse             #
#                          --no_unroll --no_inline --no_code_motion           #
#                          --no_tbaa --debug --core=plain --dptr=16,1         #
#                          --data_model=large --code_model=banked             #
#                          --calling_convention=xdata_reentrant               #
#                          --place_constants=data_rom --nr_virtual_regs 16    #
#                          -I C:\Users\ArnoldWorkStation\Desktop\ZigbeeTest\P #
#                          rojects\zstack\Samples\SampleApp\CC2530DB\ -I      #
#                          C:\Users\ArnoldWorkStation\Desktop\ZigbeeTest\Proj #
#                          ects\zstack\Samples\SampleApp\CC2530DB\..\SOURCE\  #
#                          -I C:\Users\ArnoldWorkStation\Desktop\ZigbeeTest\P #
#                          rojects\zstack\Samples\SampleApp\CC2530DB\..\..\.. #
#                          \ZMAIN\TI2530DB\ -I C:\Users\ArnoldWorkStation\Des #
#                          ktop\ZigbeeTest\Projects\zstack\Samples\SampleApp\ #
#                          CC2530DB\..\..\..\..\..\COMPONENTS\MT\ -I          #
#                          C:\Users\ArnoldWorkStation\Desktop\ZigbeeTest\Proj #
#                          ects\zstack\Samples\SampleApp\CC2530DB\..\..\..\.. #
#                          \..\COMPONENTS\HAL\INCLUDE\ -I                     #
#                          C:\Users\ArnoldWorkStation\Desktop\ZigbeeTest\Proj #
#                          ects\zstack\Samples\SampleApp\CC2530DB\..\..\..\.. #
#                          \..\COMPONENTS\HAL\TARGET\CC2530EB\ -I             #
#                          C:\Users\ArnoldWorkStation\Desktop\ZigbeeTest\Proj #
#                          ects\zstack\Samples\SampleApp\CC2530DB\..\..\..\.. #
#                          \..\COMPONENTS\OSAL\MCU\CCSOC\ -I                  #
#                          C:\Users\ArnoldWorkStation\Desktop\ZigbeeTest\Proj #
#                          ects\zstack\Samples\SampleApp\CC2530DB\..\..\..\.. #
#                          \..\COMPONENTS\OSAL\INCLUDE\ -I                    #
#                          C:\Users\ArnoldWorkStation\Desktop\ZigbeeTest\Proj #
#                          ects\zstack\Samples\SampleApp\CC2530DB\..\..\..\.. #
#                          \..\COMPONENTS\STACK\AF\ -I                        #
#                          C:\Users\ArnoldWorkStation\Desktop\ZigbeeTest\Proj #
#                          ects\zstack\Samples\SampleApp\CC2530DB\..\..\..\.. #
#                          \..\COMPONENTS\STACK\NWK\ -I                       #
#                          C:\Users\ArnoldWorkStation\Desktop\ZigbeeTest\Proj #
#                          ects\zstack\Samples\SampleApp\CC2530DB\..\..\..\.. #
#                          \..\COMPONENTS\STACK\SEC\ -I                       #
#                          C:\Users\ArnoldWorkStation\Desktop\ZigbeeTest\Proj #
#                          ects\zstack\Samples\SampleApp\CC2530DB\..\..\..\.. #
#                          \..\COMPONENTS\STACK\SAPI\ -I                      #
#                          C:\Users\ArnoldWorkStation\Desktop\ZigbeeTest\Proj #
#                          ects\zstack\Samples\SampleApp\CC2530DB\..\..\..\.. #
#                          \..\COMPONENTS\STACK\SYS\ -I                       #
#                          C:\Users\ArnoldWorkStation\Desktop\ZigbeeTest\Proj #
#                          ects\zstack\Samples\SampleApp\CC2530DB\..\..\..\.. #
#                          \..\COMPONENTS\STACK\ZDO\ -I                       #
#                          C:\Users\ArnoldWorkStation\Desktop\ZigbeeTest\Proj #
#                          ects\zstack\Samples\SampleApp\CC2530DB\..\..\..\.. #
#                          \..\COMPONENTS\ZMAC\F8W\ -I                        #
#                          C:\Users\ArnoldWorkStation\Desktop\ZigbeeTest\Proj #
#                          ects\zstack\Samples\SampleApp\CC2530DB\..\..\..\.. #
#                          \..\COMPONENTS\ZMAC\ -I C:\Users\ArnoldWorkStation #
#                          \Desktop\ZigbeeTest\Projects\zstack\Samples\Sample #
#                          App\CC2530DB\..\..\..\..\..\COMPONENTS\SERVICES\SA #
#                          DDR\ -I C:\Users\ArnoldWorkStation\Desktop\ZigbeeT #
#                          est\Projects\zstack\Samples\SampleApp\CC2530DB\..\ #
#                          ..\..\..\..\COMPONENTS\SERVICES\SDATA\ -I          #
#                          C:\Users\ArnoldWorkStation\Desktop\ZigbeeTest\Proj #
#                          ects\zstack\Samples\SampleApp\CC2530DB\..\..\..\.. #
#                          \..\COMPONENTS\MAC\INCLUDE\ -I                     #
#                          C:\Users\ArnoldWorkStation\Desktop\ZigbeeTest\Proj #
#                          ects\zstack\Samples\SampleApp\CC2530DB\..\..\..\.. #
#                          \..\COMPONENTS\MAC\HIGH_LEVEL\ -I                  #
#                          C:\Users\ArnoldWorkStation\Desktop\ZigbeeTest\Proj #
#                          ects\zstack\Samples\SampleApp\CC2530DB\..\..\..\.. #
#                          \..\COMPONENTS\MAC\LOW_LEVEL\srf04\ -I             #
#                          C:\Users\ArnoldWorkStation\Desktop\ZigbeeTest\Proj #
#                          ects\zstack\Samples\SampleApp\CC2530DB\..\..\..\.. #
#                          \..\COMPONENTS\MAC\LOW_LEVEL\srf04\SINGLE_CHIP\    #
#                          -On --require_prototypes                           #
#    List file          =  C:\Users\ArnoldWorkStation\Desktop\ZigbeeTest\Proj #
#                          ects\zstack\Samples\SampleApp\CC2530DB\Coordinator #
#                          EB-Pro\List\OSAL_Nv.lst                            #
#    Object file        =  C:\Users\ArnoldWorkStation\Desktop\ZigbeeTest\Proj #
#                          ects\zstack\Samples\SampleApp\CC2530DB\Coordinator #
#                          EB-Pro\Obj\OSAL_Nv.r51                             #
#                                                                             #
#                                                                             #
###############################################################################

C:\Users\ArnoldWorkStation\Desktop\ZigbeeTest\Components\osal\mcu\cc2530\OSAL_Nv.c
      1          /**************************************************************************************************
      2            Filename:       OSAL_Nv.c
      3            Revised:        $Date: 2008-08-06 17:17:11 -0700 (Wed, 06 Aug 2008) $
      4            Revision:       $Revision: 17715 $
      5          
      6            Description:    This module contains the OSAL non-volatile memory functions.
      7          
      8          
      9            Copyright 2006-2009 Texas Instruments Incorporated. All rights reserved.
     10          
     11            IMPORTANT: Your use of this Software is limited to those specific rights
     12            granted under the terms of a software license agreement between the user
     13            who downloaded the software, his/her employer (which must be your employer)
     14            and Texas Instruments Incorporated (the "License").  You may not use this
     15            Software unless you agree to abide by the terms of the License. The License
     16            limits your use, and you acknowledge, that the Software may not be modified,
     17            copied or distributed unless embedded on a Texas Instruments microcontroller
     18            or used solely and exclusively in conjunction with a Texas Instruments radio
     19            frequency transceiver, which is integrated into your product.  Other than for
     20            the foregoing purpose, you may not use, reproduce, copy, prepare derivative
     21            works of, modify, distribute, perform, display or sell this Software and/or
     22            its documentation for any purpose.
     23          
     24            YOU FURTHER ACKNOWLEDGE AND AGREE THAT THE SOFTWARE AND DOCUMENTATION ARE
     25            PROVIDED “AS IS” WITHOUT WARRANTY OF ANY KIND, EITHER EXPRESS OR IMPLIED,
     26            INCLUDING WITHOUT LIMITATION, ANY WARRANTY OF MERCHANTABILITY, TITLE,
     27            NON-INFRINGEMENT AND FITNESS FOR A PARTICULAR PURPOSE. IN NO EVENT SHALL
     28            TEXAS INSTRUMENTS OR ITS LICENSORS BE LIABLE OR OBLIGATED UNDER CONTRACT,
     29            NEGLIGENCE, STRICT LIABILITY, CONTRIBUTION, BREACH OF WARRANTY, OR OTHER
     30            LEGAL EQUITABLE THEORY ANY DIRECT OR INDIRECT DAMAGES OR EXPENSES
     31            INCLUDING BUT NOT LIMITED TO ANY INCIDENTAL, SPECIAL, INDIRECT, PUNITIVE
     32            OR CONSEQUENTIAL DAMAGES, LOST PROFITS OR LOST DATA, COST OF PROCUREMENT
     33            OF SUBSTITUTE GOODS, TECHNOLOGY, SERVICES, OR ANY CLAIMS BY THIRD PARTIES
     34            (INCLUDING BUT NOT LIMITED TO ANY DEFENSE THEREOF), OR OTHER SIMILAR COSTS.
     35          
     36            Should you have any questions regarding your right to use this Software,
     37            contact Texas Instruments Incorporated at www.TI.com.
     38          **************************************************************************************************/
     39          
     40          /**************************************************************************************************
     41            Notes:
     42              - A trick buried deep in initPage() requires that the MSB of the NV Item Id is to
     43                be reserved for use by this module.
     44          **************************************************************************************************/
     45          
     46          /*********************************************************************
     47           * INCLUDES
     48           */
     49          
     50          #include "hal_adc.h"
     51          #include "hal_flash.h"
     52          #include "hal_types.h"
     53          #include "ZComdef.h"
     54          #include "OSAL_Nv.h"
     55          
     56          /*********************************************************************
     57           * CONSTANTS
     58           */
     59          
     60          #define OSAL_NV_PAGE_SIZE       HAL_FLASH_PAGE_SIZE
     61          #define OSAL_NV_PAGES_USED      HAL_NV_PAGE_CNT
     62          #define OSAL_NV_PAGE_BEG        HAL_NV_PAGE_BEG
     63          #define OSAL_NV_PAGE_END       (OSAL_NV_PAGE_BEG + OSAL_NV_PAGES_USED - 1)
     64          
     65          #define OSAL_NV_ACTIVE          0x00
     66          #define OSAL_NV_ERASED          0xFF
     67          #define OSAL_NV_ERASED_ID       0xFFFF
     68          #define OSAL_NV_ZEROED_ID       0x0000
     69          // Reserve MSB of Id to signal a search for the "old" source copy (new write interrupted/failed.)
     70          #define OSAL_NV_SOURCE_ID       0x8000
     71          
     72          #define OSAL_NV_PAGE_FREE       HAL_FLASH_PAGE_SIZE
     73          
     74          // In case pages 0-1 are ever used, define a null page value.
     75          #define OSAL_NV_PAGE_NULL       0
     76          
     77          // In case item Id 0 is ever used, define a null item value.
     78          #define OSAL_NV_ITEM_NULL       0
     79          
     80          #define OSAL_NV_WORD_SIZE       HAL_FLASH_WORD_SIZE
     81          
     82          #define OSAL_NV_PAGE_HDR_OFFSET 0
     83          
     84          /*********************************************************************
     85           * MACROS
     86           */
     87          
     88          #define  OSAL_NV_CHECK_BUS_VOLTAGE  (HalAdcCheckVdd( HAL_ADC_VDD_LIMIT_4 ))
     89          
     90          #define OSAL_NV_DATA_SIZE( LEN )  \
     91             ((((LEN) + OSAL_NV_WORD_SIZE - 1) / OSAL_NV_WORD_SIZE) * OSAL_NV_WORD_SIZE)
     92          
     93          #define OSAL_NV_ITEM_SIZE( LEN )  \
     94            (((((LEN) + OSAL_NV_WORD_SIZE - 1) / OSAL_NV_WORD_SIZE) * OSAL_NV_WORD_SIZE) + OSAL_NV_HDR_SIZE)
     95          
     96          /*********************************************************************
     97           * TYPEDEFS
     98           */
     99          
    100          typedef struct
    101          {
    102            uint16 id;
    103            uint16 len;   // Enforce Flash-WORD size on len.
    104            uint16 chk;   // Byte-wise checksum of the 'len' data bytes of the item.
    105            uint16 stat;  // Item status.
    106          } osalNvHdr_t;
    107          // Struct member offsets.
    108          #define OSAL_NV_HDR_ID    0
    109          #define OSAL_NV_HDR_LEN   2
    110          #define OSAL_NV_HDR_CHK   4
    111          #define OSAL_NV_HDR_STAT  6
    112          
    113          #define OSAL_NV_HDR_ITEM  2  // Length of any item of a header struct.
    114          #define OSAL_NV_HDR_SIZE  8
    115          #define OSAL_NV_HDR_HALF (OSAL_NV_HDR_SIZE / 2)
    116          
    117          typedef struct
    118          {
    119            uint16 active;
    120            uint16 inUse;
    121            uint16 xfer;
    122            uint16 spare;
    123          } osalNvPgHdr_t;
    124          // Struct member offsets.
    125          #define OSAL_NV_PG_ACTIVE 0
    126          #define OSAL_NV_PG_INUSE  2
    127          #define OSAL_NV_PG_XFER   4
    128          #define OSAL_NV_PG_SPARE  6
    129          
    130          #define OSAL_NV_PAGE_HDR_SIZE  8
    131          #define OSAL_NV_PAGE_HDR_HALF (OSAL_NV_PAGE_HDR_SIZE / 2)
    132          
    133          typedef enum
    134          {
    135            eNvXfer,
    136            eNvZero
    137          } eNvHdrEnum;
    138          
    139          typedef enum
    140          {
    141            ePgActive,
    142            ePgInUse,
    143            ePgXfer,
    144            ePgSpare
    145          } ePgHdrEnum;
    146          
    147          /*********************************************************************
    148           * EXTERNAL FUNCTIONS
    149           */
    150          
    151          extern bool HalAdcCheckVdd(uint8 limit);
    152          
    153          /*********************************************************************
    154           * GLOBAL VARIABLES
    155           */
    156          
    157          #ifndef OAD_KEEP_NV_PAGES
    158          // When NV pages are to remain intact during OAD download,
    159          // the image itself should not include NV pages.
    160          #pragma location="ZIGNV_ADDRESS_SPACE"

   \                                 In  segment ZIGNV_ADDRESS_SPACE, align 1
    161          __no_init uint8 _nvBuf[OSAL_NV_PAGES_USED * OSAL_NV_PAGE_SIZE];
   \                     _nvBuf:
   \   000000                DS 12288
    162          #pragma required=_nvBuf
    163          #pragma location="IEEE_ADDRESS_SPACE"

   \                                 In  segment IEEE_ADDRESS_SPACE, align 1
    164          __no_init uint8 _nvIEEE[Z_EXTADDR_LEN];
   \                     _nvIEEE:
   \   000000                DS 8
   \   000008                REQUIRE _nvBuf
    165          #pragma required=_nvIEEE
    166          #endif // OAD_KEEP_NV_PAGES
    167          
    168          /*********************************************************************
    169           * LOCAL VARIABLES
    170           */
    171          
    172          // Offset into the page of the first available erased space.

   \                                 In  segment XDATA_Z, align 1, keep-with-next
    173          static uint16 pgOff[OSAL_NV_PAGES_USED];
   \                     pgOff:
   \   000000                DS 12
   \   00000C                REQUIRE __INIT_XDATA_Z
   \   00000C                REQUIRE _nvIEEE
    174          
    175          // Count of the bytes lost for the zeroed-out items.

   \                                 In  segment XDATA_Z, align 1, keep-with-next
    176          static uint16 pgLost[OSAL_NV_PAGES_USED];
   \                     pgLost:
   \   000000                DS 12
   \   00000C                REQUIRE __INIT_XDATA_Z
    177          

   \                                 In  segment XDATA_Z, align 1, keep-with-next
    178          static uint8 pgRes;  // Page reserved for item compacting transfer.
   \                     pgRes:
   \   000000                DS 1
   \   000001                REQUIRE __INIT_XDATA_Z
    179          
    180          // Saving ~100 code bytes to move a uint8* parameter/return value from findItem() to a global.

   \                                 In  segment XDATA_Z, align 1, keep-with-next
    181          static uint8 findPg;
   \                     findPg:
   \   000000                DS 1
   \   000001                REQUIRE __INIT_XDATA_Z
    182          
    183          /* Immediately before the voltage critical operations of a page erase or
    184           * a word write, check bus voltage. If less than min, set global flag & abort.
    185           * Since this is to be done at the lowest level, many void functions would have to be changed to
    186           * return a value and code added to check that value before proceeding, resulting in a very
    187           * expensive code size hit for implementing this properly. Therefore, use this global as follows:
    188           * at the start of osal_nv_item_init/osal_nv_write, set to FALSE, and at the end, before returning,
    189           * check the value. Thus, the global is an accumulator of any error that occurred in any of the
    190           * attempts to modify Flash with a low bus voltage during the complicated sequence of events that
    191           * may occur on any item init or write. This is much more expedient and code saving than adding
    192           * return values and checking return values to early out. No matter which method is used, an NV
    193           * data record may end up mangled due to the low VCC conditions. The strategy is that the headers
    194           * and checksums will detect and allow recovery from such a condition.
    195           *
    196           * One unfortunate side-effect of using the global fail flag vice adding and checking return
    197           * values, is that when setting an item Id to zero has failed due to the low VCC check,
    198           * the page lost-bytes counter is still updated. Having an artificially high lost-byte
    199           * count makes it look like there are more bytes to recover from compacting a page than there may
    200           * actually be. The easy work-around implemented is it to invoke initNV() from osal_nv_item_init or
    201           * osal_nv_write anytime that the failF gets set - this will re-walk all of the pages and set the
    202           * page offset count and page lost bytes count to their actual values.
    203           */

   \                                 In  segment XDATA_Z, align 1, keep-with-next
    204          static uint8 failF;
   \                     failF:
   \   000000                DS 1
   \   000001                REQUIRE __INIT_XDATA_Z
    205          
    206          /*********************************************************************
    207           * LOCAL FUNCTIONS
    208           */
    209          
    210          static uint8  initNV( void );
    211          
    212          static void   setPageUse( uint8 pg, uint8 inUse );
    213          static uint16 initPage( uint8 pg, uint16 id, uint8 findDups );
    214          static void   erasePage( uint8 pg );
    215          static void   compactPage( uint8 pg );
    216          
    217          static uint16 findItem( uint16 id );
    218          static uint8  initItem( uint8 flag, uint16 id, uint16 len, void *buf );
    219          static void   setItem( uint8 pg, uint16 offset, eNvHdrEnum stat );
    220          
    221          static uint16 calcChkB( uint16 len, uint8 *buf );
    222          static uint16 calcChkF( byte pg, uint16 offset, uint16 len );
    223          
    224          static void   writeWord( uint8 pg, uint16 offset, uint8 *buf );
    225          static void   writeWordH( uint8 pg, uint16 offset, uint8 *buf );
    226          static void   writeWordM( uint8 pg, uint16 offset, uint8 *buf, uint16 cnt );
    227          static void   writeBuf( uint8 pg, uint16 offset, uint16 len, uint8 *buf );
    228          static void   xferBuf( uint8 srcPg, uint16 srcOff, uint8 dstPg, uint16 dstOff, uint16 len );
    229          
    230          static uint8  writeItem( uint8 pg, uint16 id, uint16 len, void *buf, uint8 flag );
    231          
    232          /*********************************************************************
    233           * @fn      initNV
    234           *
    235           * @brief   Initialize the NV flash pages.
    236           *
    237           * @param   none
    238           *
    239           * @return  TRUE
    240           */

   \                                 In  segment BANKED_CODE, align 1, keep-with-next
    241          static uint8 initNV( void )
   \                     initNV:
    242          {
   \   000000   74F4         MOV     A,#-0xc
   \   000002   12....       LCALL   ?BANKED_ENTER_XDATA
   \   000005                ; Saved register size: 12
   \   000005                ; Auto size: 8
   \   000005   74F8         MOV     A,#-0x8
   \   000007   12....       LCALL   ?ALLOC_XSTACK8
    243            osalNvPgHdr_t pgHdr;
    244            uint8 oldPg = OSAL_NV_PAGE_NULL;
   \   00000A   75..00       MOV     ?V0 + 1,#0x0
    245            uint8 newPg = OSAL_NV_PAGE_NULL;
   \   00000D   75..00       MOV     ?V0 + 0,#0x0
    246            uint8 findDups = FALSE;
   \   000010   7F00         MOV     R7,#0x0
    247            uint8 pg;
    248          
    249            pgRes = OSAL_NV_PAGE_NULL;
   \   000012   90....       MOV     DPTR,#pgRes
   \   000015   7400         MOV     A,#0x0
   \   000017   F0           MOVX    @DPTR,A
    250          
    251            for ( pg = OSAL_NV_PAGE_BEG; pg <= OSAL_NV_PAGE_END; pg++ )
   \   000018   7E79         MOV     R6,#0x79
   \                     ??initNV_0:
   \   00001A   EE           MOV     A,R6
   \   00001B   C3           CLR     C
   \   00001C   947F         SUBB    A,#0x7f
   \   00001E   4003         JC      $+5
   \   000020   02....       LJMP    ??initNV_1 & 0xFFFF
    252            {
    253              HalFlashRead(pg, OSAL_NV_PAGE_HDR_OFFSET, (uint8 *)(&pgHdr), OSAL_NV_HDR_SIZE);
   \   000023                ; Setup parameters for call to function HalFlashRead
   \   000023   75..08       MOV     ?V0 + 2,#0x8
   \   000026   75..00       MOV     ?V0 + 3,#0x0
   \   000029   78..         MOV     R0,#?V0 + 2
   \   00002B   12....       LCALL   ?PUSH_XSTACK_I_TWO
   \   00002E   7402         MOV     A,#0x2
   \   000030   12....       LCALL   ?XSTACK_DISP0_8
   \   000033   AC82         MOV     R4,DPL
   \   000035   AD83         MOV     R5,DPH
   \   000037   7A00         MOV     R2,#0x0
   \   000039   7B00         MOV     R3,#0x0
   \   00003B   EE           MOV     A,R6
   \   00003C   F9           MOV     R1,A
   \   00003D   12....       LCALL   ??HalFlashRead?relay
   \   000040   7402         MOV     A,#0x2
   \   000042   12....       LCALL   ?DEALLOC_XSTACK8
    254          
    255              if ( pgHdr.active == OSAL_NV_ERASED_ID )
   \   000045   85..82       MOV     DPL,?XSP + 0
   \   000048   85..83       MOV     DPH,?XSP + 1
   \   00004B   E0           MOVX    A,@DPTR
   \   00004C   64FF         XRL     A,#0xff
   \   00004E   7004         JNZ     ??initNV_2
   \   000050   A3           INC     DPTR
   \   000051   E0           MOVX    A,@DPTR
   \   000052   64FF         XRL     A,#0xff
   \                     ??initNV_2:
   \   000054   7016         JNZ     ??initNV_3
    256              {
    257                if ( pgRes == OSAL_NV_PAGE_NULL )
   \   000056   90....       MOV     DPTR,#pgRes
   \   000059   E0           MOVX    A,@DPTR
   \   00005A   7007         JNZ     ??initNV_4
    258                {
    259                  pgRes = pg;
   \   00005C   EE           MOV     A,R6
   \   00005D   90....       MOV     DPTR,#pgRes
   \   000060   F0           MOVX    @DPTR,A
   \   000061   802F         SJMP    ??initNV_5
    260                }
    261                else
    262                {
    263                  setPageUse( pg, TRUE );
   \                     ??initNV_4:
   \   000063                ; Setup parameters for call to function setPageUse
   \   000063   7A01         MOV     R2,#0x1
   \   000065   EE           MOV     A,R6
   \   000066   F9           MOV     R1,A
   \   000067   12....       LCALL   ??setPageUse?relay
   \   00006A   8026         SJMP    ??initNV_5
    264                }
    265              }
    266              else  // Page is active.
    267              {
    268                // If the page is not yet in use, it is the tgt of items from an xfer.
    269                if ( pgHdr.inUse == OSAL_NV_ERASED_ID )
   \                     ??initNV_3:
   \   00006C   7402         MOV     A,#0x2
   \   00006E   12....       LCALL   ?XSTACK_DISP0_8
   \   000071   E0           MOVX    A,@DPTR
   \   000072   64FF         XRL     A,#0xff
   \   000074   7004         JNZ     ??initNV_6
   \   000076   A3           INC     DPTR
   \   000077   E0           MOVX    A,@DPTR
   \   000078   64FF         XRL     A,#0xff
   \                     ??initNV_6:
   \   00007A   7004         JNZ     ??initNV_7
    270                {
    271                  newPg = pg;
   \   00007C   8E..         MOV     ?V0 + 0,R6
   \   00007E   8012         SJMP    ??initNV_5
    272                }
    273                // An Xfer from this page was in progress.
    274                else if ( pgHdr.xfer != OSAL_NV_ERASED_ID )
   \                     ??initNV_7:
   \   000080   7404         MOV     A,#0x4
   \   000082   12....       LCALL   ?XSTACK_DISP0_8
   \   000085   E0           MOVX    A,@DPTR
   \   000086   64FF         XRL     A,#0xff
   \   000088   7004         JNZ     ??initNV_8
   \   00008A   A3           INC     DPTR
   \   00008B   E0           MOVX    A,@DPTR
   \   00008C   64FF         XRL     A,#0xff
   \                     ??initNV_8:
   \   00008E   6002         JZ      ??initNV_5
    275                {
    276                  oldPg = pg;
   \   000090   8E..         MOV     ?V0 + 1,R6
    277                }
    278              }
    279          
    280              // Calculate page offset and lost bytes - any "old" item triggers an N^2 re-scan from start.
    281              if ( initPage( pg, OSAL_NV_ITEM_NULL, findDups ) != OSAL_NV_ITEM_NULL )
   \                     ??initNV_5:
   \   000092                ; Setup parameters for call to function initPage
   \   000092   EF           MOV     A,R7
   \   000093   FC           MOV     R4,A
   \   000094   7A00         MOV     R2,#0x0
   \   000096   7B00         MOV     R3,#0x0
   \   000098   EE           MOV     A,R6
   \   000099   F9           MOV     R1,A
   \   00009A   12....       LCALL   ??initPage?relay
   \   00009D   8A..         MOV     ?V0 + 2,R2
   \   00009F   8B..         MOV     ?V0 + 3,R3
   \   0000A1   E5..         MOV     A,?V0 + 2
   \   0000A3   45..         ORL     A,?V0 + 3
   \   0000A5   6004         JZ      ??initNV_9
    282              {
    283                findDups = TRUE;
   \   0000A7   7F01         MOV     R7,#0x1
    284                pg = OSAL_NV_PAGE_BEG-1;
   \   0000A9   7E78         MOV     R6,#0x78
    285                continue;
    286              }
    287            }  // for ( pg = OSAL_NV_PAGE_BEG; pg <= OSAL_NV_PAGE_END; pg++ )
   \                     ??initNV_9:
   \   0000AB   0E           INC     R6
   \   0000AC   02....       LJMP    ??initNV_0 & 0xFFFF
    288          
    289            /* First the old page is erased, and then the new page is put into use.
    290             * So if a transfer was in progress, the new page will always not yet be
    291             * marked as in use, since that is the last step to ending a transfer.
    292             */
    293            if ( newPg != OSAL_NV_PAGE_NULL )
   \                     ??initNV_1:
   \   0000AF   E5..         MOV     A,?V0 + 0
   \   0000B1   6022         JZ      ??initNV_10
    294            {
    295              /* If there is already a fallow page reserved, keep it and put the newPg in use.
    296               * An unfinished compaction will finish to the new reserve page and the old page
    297               * will be erased and reserved.
    298               */
    299              if ( pgRes != OSAL_NV_PAGE_NULL )
   \   0000B3   90....       MOV     DPTR,#pgRes
   \   0000B6   E0           MOVX    A,@DPTR
   \   0000B7   6009         JZ      ??initNV_11
    300              {
    301                setPageUse( newPg, TRUE );
   \   0000B9                ; Setup parameters for call to function setPageUse
   \   0000B9   7A01         MOV     R2,#0x1
   \   0000BB   A9..         MOV     R1,?V0 + 0
   \   0000BD   12....       LCALL   ??setPageUse?relay
   \   0000C0   800A         SJMP    ??initNV_12
    302              }
    303              else if ( oldPg != OSAL_NV_PAGE_NULL )
   \                     ??initNV_11:
   \   0000C2   E5..         MOV     A,?V0 + 1
   \   0000C4   6006         JZ      ??initNV_12
    304              {
    305                pgRes = newPg;
   \   0000C6   E5..         MOV     A,?V0 + 0
   \   0000C8   90....       MOV     DPTR,#pgRes
   \   0000CB   F0           MOVX    @DPTR,A
    306              }
    307          
    308              /* If a page compaction was interrupted and the page being compacted is not
    309               * yet erased, then there may be items remaining to xfer before erasing.
    310               */
    311              if ( oldPg != OSAL_NV_PAGE_NULL )
   \                     ??initNV_12:
   \   0000CC   E5..         MOV     A,?V0 + 1
   \   0000CE   6005         JZ      ??initNV_10
    312              {
    313                compactPage( oldPg );
   \   0000D0                ; Setup parameters for call to function compactPage
   \   0000D0   A9..         MOV     R1,?V0 + 1
   \   0000D2   12....       LCALL   ??compactPage?relay
    314              }
    315            }
    316          
    317            /* If no page met the criteria to be the reserve page:
    318             *  - A compactPage() failed or board reset before doing so.
    319             *  - Perhaps the user changed which Flash pages are dedicated to NV and downloaded the code
    320             *    without erasing Flash?
    321             */
    322            if ( pgRes == OSAL_NV_PAGE_NULL )
   \                     ??initNV_10:
   \   0000D5   90....       MOV     DPTR,#pgRes
   \   0000D8   E0           MOVX    A,@DPTR
   \   0000D9   7014         JNZ     ??initNV_13
    323            {
    324              for ( pg = OSAL_NV_PAGE_BEG; pg <= OSAL_NV_PAGE_END; pg++ )
   \   0000DB   7E79         MOV     R6,#0x79
   \                     ??initNV_14:
   \   0000DD   EE           MOV     A,R6
   \   0000DE   C3           CLR     C
   \   0000DF   947F         SUBB    A,#0x7f
   \   0000E1   5008         JNC     ??initNV_15
    325              {
    326                erasePage( pg );
   \   0000E3                ; Setup parameters for call to function erasePage
   \   0000E3   EE           MOV     A,R6
   \   0000E4   F9           MOV     R1,A
   \   0000E5   12....       LCALL   ??erasePage?relay
    327              }
   \   0000E8   0E           INC     R6
   \   0000E9   80F2         SJMP    ??initNV_14
    328              initNV();
   \                     ??initNV_15:
   \   0000EB                ; Setup parameters for call to function initNV
   \   0000EB   12....       LCALL   ??initNV?relay
   \   0000EE   E9           MOV     A,R1
    329            }
    330          
    331            return TRUE;
   \                     ??initNV_13:
   \   0000EF   7901         MOV     R1,#0x1
   \   0000F1   7408         MOV     A,#0x8
   \   0000F3   12....       LCALL   ?DEALLOC_XSTACK8
   \   0000F6   7F04         MOV     R7,#0x4
   \   0000F8   02....       LJMP    ?BANKED_LEAVE_XDATA
    332          }
    333          
    334          /*********************************************************************
    335           * @fn      setPageUse
    336           *
    337           * @brief   Set page header active/inUse state according to 'inUse'.
    338           *
    339           * @param   pg - Valid NV page to verify and init.
    340           * @param   inUse - Boolean TRUE if inUse, FALSE if only active.
    341           *
    342           * @return  none
    343           */

   \                                 In  segment BANKED_CODE, align 1, keep-with-next
    344          static void setPageUse( uint8 pg, uint8 inUse )
   \                     setPageUse:
    345          {
   \   000000   74F7         MOV     A,#-0x9
   \   000002   12....       LCALL   ?BANKED_ENTER_XDATA
   \   000005                ; Saved register size: 9
   \   000005                ; Auto size: 8
   \   000005   74F8         MOV     A,#-0x8
   \   000007   12....       LCALL   ?ALLOC_XSTACK8
   \   00000A   E9           MOV     A,R1
   \   00000B   FE           MOV     R6,A
   \   00000C   EA           MOV     A,R2
   \   00000D   FF           MOV     R7,A
    346            osalNvPgHdr_t pgHdr;
    347          
    348            pgHdr.active = OSAL_NV_ZEROED_ID;
   \   00000E   85..82       MOV     DPL,?XSP + 0
   \   000011   85..83       MOV     DPH,?XSP + 1
   \   000014   7400         MOV     A,#0x0
   \   000016   F0           MOVX    @DPTR,A
   \   000017   A3           INC     DPTR
   \   000018   7400         MOV     A,#0x0
   \   00001A   F0           MOVX    @DPTR,A
    349          
    350            if ( inUse )
   \   00001B   EF           MOV     A,R7
   \   00001C   600E         JZ      ??setPageUse_0
    351            {
    352              pgHdr.inUse = OSAL_NV_ZEROED_ID;
   \   00001E   7402         MOV     A,#0x2
   \   000020   12....       LCALL   ?XSTACK_DISP0_8
   \   000023   7400         MOV     A,#0x0
   \   000025   F0           MOVX    @DPTR,A
   \   000026   A3           INC     DPTR
   \   000027   7400         MOV     A,#0x0
   \   000029   F0           MOVX    @DPTR,A
   \   00002A   800C         SJMP    ??setPageUse_1
    353            }
    354            else
    355            {
    356              pgHdr.inUse = OSAL_NV_ERASED_ID;
   \                     ??setPageUse_0:
   \   00002C   7402         MOV     A,#0x2
   \   00002E   12....       LCALL   ?XSTACK_DISP0_8
   \   000031   74FF         MOV     A,#-0x1
   \   000033   F0           MOVX    @DPTR,A
   \   000034   A3           INC     DPTR
   \   000035   74FF         MOV     A,#-0x1
   \   000037   F0           MOVX    @DPTR,A
    357            }
    358          
    359            writeWord( pg, OSAL_NV_PAGE_HDR_OFFSET, (uint8*)(&pgHdr) );
   \                     ??setPageUse_1:
   \   000038                ; Setup parameters for call to function writeWord
   \   000038   85..82       MOV     DPL,?XSP + 0
   \   00003B   85..83       MOV     DPH,?XSP + 1
   \   00003E   AC82         MOV     R4,DPL
   \   000040   AD83         MOV     R5,DPH
   \   000042   7A00         MOV     R2,#0x0
   \   000044   7B00         MOV     R3,#0x0
   \   000046   EE           MOV     A,R6
   \   000047   F9           MOV     R1,A
   \   000048   12....       LCALL   ??writeWord?relay
    360          }
   \   00004B   7408         MOV     A,#0x8
   \   00004D   12....       LCALL   ?DEALLOC_XSTACK8
   \   000050   7F01         MOV     R7,#0x1
   \   000052   02....       LJMP    ?BANKED_LEAVE_XDATA
    361          
    362          /*********************************************************************
    363           * @fn      initPage
    364           *
    365           * @brief   Walk the page items; calculate checksums, lost bytes & page offset.
    366           *
    367           * @param   pg - Valid NV page to verify and init.
    368           * @param   id - Valid NV item Id to use function as a "findItem".
    369           *               If set to NULL then just perform the page initialization.
    370           *
    371           * @return  If 'id' is non-NULL and good checksums are found, return the offset
    372           *          of the data corresponding to item Id; else OSAL_NV_ITEM_NULL.
    373           */

   \                                 In  segment BANKED_CODE, align 1, keep-with-next
    374          static uint16 initPage( uint8 pg, uint16 id, uint8 findDups )
   \                     initPage:
    375          {
   \   000000   74EC         MOV     A,#-0x14
   \   000002   12....       LCALL   ?BANKED_ENTER_XDATA
   \   000005                ; Saved register size: 20
   \   000005                ; Auto size: 8
   \   000005   74F8         MOV     A,#-0x8
   \   000007   12....       LCALL   ?ALLOC_XSTACK8
   \   00000A   89..         MOV     ?V0 + 2,R1
   \   00000C   8A..         MOV     ?V0 + 8,R2
   \   00000E   8B..         MOV     ?V0 + 9,R3
   \   000010   8C..         MOV     ?V0 + 3,R4
    376            uint16 offset = OSAL_NV_PAGE_HDR_SIZE;
   \   000012   75..08       MOV     ?V0 + 0,#0x8
   \   000015   75..00       MOV     ?V0 + 1,#0x0
    377            uint16 sz, lost = 0;
   \   000018   7E00         MOV     R6,#0x0
   \   00001A   7F00         MOV     R7,#0x0
    378            osalNvHdr_t hdr;
    379          
    380            do
    381            {
    382              HalFlashRead(pg, offset, (uint8 *)(&hdr), OSAL_NV_HDR_SIZE);
   \                     ??initPage_0:
   \   00001C                ; Setup parameters for call to function HalFlashRead
   \   00001C   75..08       MOV     ?V0 + 6,#0x8
   \   00001F   75..00       MOV     ?V0 + 7,#0x0
   \   000022   78..         MOV     R0,#?V0 + 6
   \   000024   12....       LCALL   ?PUSH_XSTACK_I_TWO
   \   000027   7402         MOV     A,#0x2
   \   000029   12....       LCALL   ?XSTACK_DISP0_8
   \   00002C   AC82         MOV     R4,DPL
   \   00002E   AD83         MOV     R5,DPH
   \   000030   AA..         MOV     R2,?V0 + 0
   \   000032   AB..         MOV     R3,?V0 + 1
   \   000034   A9..         MOV     R1,?V0 + 2
   \   000036   12....       LCALL   ??HalFlashRead?relay
   \   000039   7402         MOV     A,#0x2
   \   00003B   12....       LCALL   ?DEALLOC_XSTACK8
    383          
    384              if ( hdr.id == OSAL_NV_ERASED_ID )
   \   00003E   85..82       MOV     DPL,?XSP + 0
   \   000041   85..83       MOV     DPH,?XSP + 1
   \   000044   E0           MOVX    A,@DPTR
   \   000045   64FF         XRL     A,#0xff
   \   000047   7004         JNZ     ??initPage_1
   \   000049   A3           INC     DPTR
   \   00004A   E0           MOVX    A,@DPTR
   \   00004B   64FF         XRL     A,#0xff
   \                     ??initPage_1:
   \   00004D   7003         JNZ     $+5
   \   00004F   02....       LJMP    ??initPage_2 & 0xFFFF
    385              {
    386                break;
    387              }
    388              offset += OSAL_NV_HDR_SIZE;
   \   000052   E5..         MOV     A,?V0 + 0
   \   000054   2408         ADD     A,#0x8
   \   000056   F5..         MOV     ?V0 + 0,A
   \   000058   E5..         MOV     A,?V0 + 1
   \   00005A   3400         ADDC    A,#0x0
   \   00005C   F5..         MOV     ?V0 + 1,A
    389              sz = OSAL_NV_DATA_SIZE( hdr.len );
   \   00005E   7402         MOV     A,#0x2
   \   000060   12....       LCALL   ?XSTACK_DISP0_8
   \   000063   E0           MOVX    A,@DPTR
   \   000064   2403         ADD     A,#0x3
   \   000066   F5..         MOV     ?V0 + 6,A
   \   000068   A3           INC     DPTR
   \   000069   E0           MOVX    A,@DPTR
   \   00006A   3400         ADDC    A,#0x0
   \   00006C   F5..         MOV     ?V0 + 7,A
   \   00006E   7402         MOV     A,#0x2
   \   000070   78..         MOV     R0,#?V0 + 6
   \   000072   12....       LCALL   ?US_SHR
   \   000075   E5..         MOV     A,?V0 + 6
   \   000077   75F004       MOV     B,#0x4
   \   00007A   A4           MUL     AB
   \   00007B   C5..         XCH     A,?V0 + 6
   \   00007D   A8F0         MOV     R0,B
   \   00007F   75F000       MOV     B,#0x0
   \   000082   A4           MUL     AB
   \   000083   28           ADD     A,R0
   \   000084   F8           MOV     R0,A
   \   000085   75F004       MOV     B,#0x4
   \   000088   E5..         MOV     A,?V0 + 7
   \   00008A   A4           MUL     AB
   \   00008B   28           ADD     A,R0
   \   00008C   F5..         MOV     ?V0 + 7,A
   \   00008E   85....       MOV     ?V0 + 4,?V0 + 6
   \   000091   85....       MOV     ?V0 + 5,?V0 + 7
    390          
    391              // A bad 'len' write has blown away the rest of the page.
    392              if ( (offset + sz) > OSAL_NV_PAGE_FREE )
   \   000094   E5..         MOV     A,?V0 + 0
   \   000096   25..         ADD     A,?V0 + 4
   \   000098   F8           MOV     R0,A
   \   000099   E5..         MOV     A,?V0 + 1
   \   00009B   35..         ADDC    A,?V0 + 5
   \   00009D   F9           MOV     R1,A
   \   00009E   C3           CLR     C
   \   00009F   E8           MOV     A,R0
   \   0000A0   9401         SUBB    A,#0x1
   \   0000A2   E9           MOV     A,R1
   \   0000A3   9408         SUBB    A,#0x8
   \   0000A5   401A         JC      ??initPage_3
    393              {
    394                lost += (OSAL_NV_PAGE_FREE - offset + OSAL_NV_HDR_SIZE);
   \   0000A7   EE           MOV     A,R6
   \   0000A8   2408         ADD     A,#0x8
   \   0000AA   F8           MOV     R0,A
   \   0000AB   EF           MOV     A,R7
   \   0000AC   3408         ADDC    A,#0x8
   \   0000AE   F9           MOV     R1,A
   \   0000AF   E8           MOV     A,R0
   \   0000B0   C3           CLR     C
   \   0000B1   95..         SUBB    A,?V0 + 0
   \   0000B3   FE           MOV     R6,A
   \   0000B4   E9           MOV     A,R1
   \   0000B5   95..         SUBB    A,?V0 + 1
   \   0000B7   FF           MOV     R7,A
    395                offset = OSAL_NV_PAGE_FREE;
   \   0000B8   75..00       MOV     ?V0 + 0,#0x0
   \   0000BB   75..08       MOV     ?V0 + 1,#0x8
    396                break;
   \   0000BE   02....       LJMP    ??initPage_2 & 0xFFFF
    397              }
    398          
    399              if ( hdr.id != OSAL_NV_ZEROED_ID )
   \                     ??initPage_3:
   \   0000C1   85..82       MOV     DPL,?XSP + 0
   \   0000C4   85..83       MOV     DPH,?XSP + 1
   \   0000C7   E0           MOVX    A,@DPTR
   \   0000C8   F8           MOV     R0,A
   \   0000C9   A3           INC     DPTR
   \   0000CA   E0           MOVX    A,@DPTR
   \   0000CB   F9           MOV     R1,A
   \   0000CC   E8           MOV     A,R0
   \   0000CD   49           ORL     A,R1
   \   0000CE   7003         JNZ     $+5
   \   0000D0   02....       LJMP    ??initPage_4 & 0xFFFF
    400              {
    401                /* This trick allows function to do double duty for findItem() without
    402                 * compromising its essential functionality at powerup initialization.
    403                 */
    404                if ( id != OSAL_NV_ITEM_NULL )
   \   0000D3   E5..         MOV     A,?V0 + 8
   \   0000D5   45..         ORL     A,?V0 + 9
   \   0000D7   6065         JZ      ??initPage_5
    405                {
    406                  /* This trick allows asking to find the old/transferred item in case
    407                   * of a successful new item write that gets interrupted before the
    408                   * old item can be zeroed out.
    409                   */
    410                  if ( (id & 0x7fff) == hdr.id )
   \   0000D9   E5..         MOV     A,?V0 + 8
   \   0000DB   54FF         ANL     A,#0xff
   \   0000DD   F8           MOV     R0,A
   \   0000DE   E5..         MOV     A,?V0 + 9
   \   0000E0   547F         ANL     A,#0x7f
   \   0000E2   F9           MOV     R1,A
   \   0000E3   85..82       MOV     DPL,?XSP + 0
   \   0000E6   85..83       MOV     DPH,?XSP + 1
   \   0000E9   E0           MOVX    A,@DPTR
   \   0000EA   68           XRL     A,R0
   \   0000EB   7003         JNZ     ??initPage_6
   \   0000ED   A3           INC     DPTR
   \   0000EE   E0           MOVX    A,@DPTR
   \   0000EF   69           XRL     A,R1
   \                     ??initPage_6:
   \   0000F0   6003         JZ      $+5
   \   0000F2   02....       LJMP    ??initPage_7 & 0xFFFF
    411                  {
    412                    if ( (((id & OSAL_NV_SOURCE_ID) == 0) && (hdr.stat == OSAL_NV_ERASED_ID)) ||
    413                         (((id & OSAL_NV_SOURCE_ID) != 0) && (hdr.stat != OSAL_NV_ERASED_ID)) )
   \   0000F5   E5..         MOV     A,?V0 + 8
   \   0000F7   5400         ANL     A,#0x0
   \   0000F9   F8           MOV     R0,A
   \   0000FA   E5..         MOV     A,?V0 + 9
   \   0000FC   5480         ANL     A,#0x80
   \   0000FE   F9           MOV     R1,A
   \   0000FF   E8           MOV     A,R0
   \   000100   49           ORL     A,R1
   \   000101   7010         JNZ     ??initPage_8
   \   000103   7406         MOV     A,#0x6
   \   000105   12....       LCALL   ?XSTACK_DISP0_8
   \   000108   E0           MOVX    A,@DPTR
   \   000109   64FF         XRL     A,#0xff
   \   00010B   7004         JNZ     ??initPage_9
   \   00010D   A3           INC     DPTR
   \   00010E   E0           MOVX    A,@DPTR
   \   00010F   64FF         XRL     A,#0xff
   \                     ??initPage_9:
   \   000111   6024         JZ      ??initPage_10
   \                     ??initPage_8:
   \   000113   E5..         MOV     A,?V0 + 8
   \   000115   5400         ANL     A,#0x0
   \   000117   F8           MOV     R0,A
   \   000118   E5..         MOV     A,?V0 + 9
   \   00011A   5480         ANL     A,#0x80
   \   00011C   F9           MOV     R1,A
   \   00011D   E8           MOV     A,R0
   \   00011E   49           ORL     A,R1
   \   00011F   7003         JNZ     $+5
   \   000121   02....       LJMP    ??initPage_7 & 0xFFFF
   \   000124   7406         MOV     A,#0x6
   \   000126   12....       LCALL   ?XSTACK_DISP0_8
   \   000129   E0           MOVX    A,@DPTR
   \   00012A   64FF         XRL     A,#0xff
   \   00012C   7004         JNZ     ??initPage_11
   \   00012E   A3           INC     DPTR
   \   00012F   E0           MOVX    A,@DPTR
   \   000130   64FF         XRL     A,#0xff
   \                     ??initPage_11:
   \   000132   7003         JNZ     $+5
   \   000134   02....       LJMP    ??initPage_7 & 0xFFFF
    414                    {
    415                      return offset;
   \                     ??initPage_10:
   \   000137   AA..         MOV     R2,?V0 + 0
   \   000139   AB..         MOV     R3,?V0 + 1
   \   00013B   02....       LJMP    ??initPage_12 & 0xFFFF
    416                    }
    417                  }
    418                }
    419                // When invoked from the osal_nv_init(), verify checksums and find & zero any duplicates.
    420                else
    421                {
    422                  if ( hdr.chk == calcChkF( pg, offset, hdr.len ) )
   \                     ??initPage_5:
   \   00013E                ; Setup parameters for call to function calcChkF
   \   00013E   7402         MOV     A,#0x2
   \   000140   12....       LCALL   ?XSTACK_DISP0_8
   \   000143   E0           MOVX    A,@DPTR
   \   000144   FC           MOV     R4,A
   \   000145   A3           INC     DPTR
   \   000146   E0           MOVX    A,@DPTR
   \   000147   FD           MOV     R5,A
   \   000148   AA..         MOV     R2,?V0 + 0
   \   00014A   AB..         MOV     R3,?V0 + 1
   \   00014C   A9..         MOV     R1,?V0 + 2
   \   00014E   12....       LCALL   ??calcChkF?relay
   \   000151   8A..         MOV     ?V0 + 6,R2
   \   000153   8B..         MOV     ?V0 + 7,R3
   \   000155   A8..         MOV     R0,?V0 + 6
   \   000157   A9..         MOV     R1,?V0 + 7
   \   000159   7404         MOV     A,#0x4
   \   00015B   12....       LCALL   ?XSTACK_DISP0_8
   \   00015E   E0           MOVX    A,@DPTR
   \   00015F   68           XRL     A,R0
   \   000160   7003         JNZ     ??initPage_13
   \   000162   A3           INC     DPTR
   \   000163   E0           MOVX    A,@DPTR
   \   000164   69           XRL     A,R1
   \                     ??initPage_13:
   \   000165   705D         JNZ     ??initPage_14
    423                  {
    424                    if ( findDups )
   \   000167   E5..         MOV     A,?V0 + 3
   \   000169   6042         JZ      ??initPage_15
    425                    {
    426                      if ( hdr.stat == OSAL_NV_ERASED_ID )
   \   00016B   7406         MOV     A,#0x6
   \   00016D   12....       LCALL   ?XSTACK_DISP0_8
   \   000170   E0           MOVX    A,@DPTR
   \   000171   64FF         XRL     A,#0xff
   \   000173   7004         JNZ     ??initPage_16
   \   000175   A3           INC     DPTR
   \   000176   E0           MOVX    A,@DPTR
   \   000177   64FF         XRL     A,#0xff
   \                     ??initPage_16:
   \   000179   7076         JNZ     ??initPage_7
    427                      {
    428                        /* The trick of setting the MSB of the item Id causes the logic
    429                         * immediately above to return a valid page only if the header 'stat'
    430                         * indicates that it was the older item being transferred.
    431                         */
    432                        uint16 off = findItem( (hdr.id | OSAL_NV_SOURCE_ID) );
   \   00017B                ; Setup parameters for call to function findItem
   \   00017B   85..82       MOV     DPL,?XSP + 0
   \   00017E   85..83       MOV     DPH,?XSP + 1
   \   000181   E0           MOVX    A,@DPTR
   \   000182   4400         ORL     A,#0x0
   \   000184   FA           MOV     R2,A
   \   000185   A3           INC     DPTR
   \   000186   E0           MOVX    A,@DPTR
   \   000187   4480         ORL     A,#0x80
   \   000189   FB           MOV     R3,A
   \   00018A   12....       LCALL   ??findItem?relay
   \   00018D   8A..         MOV     ?V0 + 10,R2
   \   00018F   8B..         MOV     ?V0 + 11,R3
   \   000191   85....       MOV     ?V0 + 6,?V0 + 10
   \   000194   85....       MOV     ?V0 + 7,?V0 + 11
    433          
    434                        if ( off != OSAL_NV_ITEM_NULL )
   \   000197   E5..         MOV     A,?V0 + 6
   \   000199   45..         ORL     A,?V0 + 7
   \   00019B   6054         JZ      ??initPage_7
    435                        {
    436                          setItem( findPg, off, eNvZero );  // Mark old duplicate as invalid.
   \   00019D                ; Setup parameters for call to function setItem
   \   00019D   7C01         MOV     R4,#0x1
   \   00019F   AA..         MOV     R2,?V0 + 6
   \   0001A1   AB..         MOV     R3,?V0 + 7
   \   0001A3   90....       MOV     DPTR,#findPg
   \   0001A6   E0           MOVX    A,@DPTR
   \   0001A7   F9           MOV     R1,A
   \   0001A8   12....       LCALL   ??setItem?relay
   \   0001AB   8044         SJMP    ??initPage_7
    437                        }
    438                      }
    439                    }
    440                    // Any "old" item immediately exits and triggers the N^2 exhaustive initialization.
    441                    else if ( hdr.stat != OSAL_NV_ERASED_ID )
   \                     ??initPage_15:
   \   0001AD   7406         MOV     A,#0x6
   \   0001AF   12....       LCALL   ?XSTACK_DISP0_8
   \   0001B2   E0           MOVX    A,@DPTR
   \   0001B3   64FF         XRL     A,#0xff
   \   0001B5   7004         JNZ     ??initPage_17
   \   0001B7   A3           INC     DPTR
   \   0001B8   E0           MOVX    A,@DPTR
   \   0001B9   64FF         XRL     A,#0xff
   \                     ??initPage_17:
   \   0001BB   6034         JZ      ??initPage_7
    442                    {
    443                      return OSAL_NV_ERASED_ID;
   \   0001BD   7AFF         MOV     R2,#-0x1
   \   0001BF   7BFF         MOV     R3,#-0x1
   \   0001C1   02....       LJMP    ??initPage_12 & 0xFFFF
    444                    }
    445                  }
    446                  else
    447                  {
    448                    setItem( pg, offset, eNvZero );  // Mark bad checksum as invalid.
   \                     ??initPage_14:
   \   0001C4                ; Setup parameters for call to function setItem
   \   0001C4   7C01         MOV     R4,#0x1
   \   0001C6   AA..         MOV     R2,?V0 + 0
   \   0001C8   AB..         MOV     R3,?V0 + 1
   \   0001CA   A9..         MOV     R1,?V0 + 2
   \   0001CC   12....       LCALL   ??setItem?relay
    449                    lost += (OSAL_NV_HDR_SIZE + sz);
   \   0001CF   E5..         MOV     A,?V0 + 4
   \   0001D1   2408         ADD     A,#0x8
   \   0001D3   F8           MOV     R0,A
   \   0001D4   E5..         MOV     A,?V0 + 5
   \   0001D6   3400         ADDC    A,#0x0
   \   0001D8   F9           MOV     R1,A
   \   0001D9   EE           MOV     A,R6
   \   0001DA   28           ADD     A,R0
   \   0001DB   FE           MOV     R6,A
   \   0001DC   EF           MOV     A,R7
   \   0001DD   39           ADDC    A,R1
   \   0001DE   FF           MOV     R7,A
   \   0001DF   8010         SJMP    ??initPage_7
    450                  }
    451                }
    452              }
    453              else
    454              {
    455                lost += (OSAL_NV_HDR_SIZE + sz);
   \                     ??initPage_4:
   \   0001E1   E5..         MOV     A,?V0 + 4
   \   0001E3   2408         ADD     A,#0x8
   \   0001E5   F8           MOV     R0,A
   \   0001E6   E5..         MOV     A,?V0 + 5
   \   0001E8   3400         ADDC    A,#0x0
   \   0001EA   F9           MOV     R1,A
   \   0001EB   EE           MOV     A,R6
   \   0001EC   28           ADD     A,R0
   \   0001ED   FE           MOV     R6,A
   \   0001EE   EF           MOV     A,R7
   \   0001EF   39           ADDC    A,R1
   \   0001F0   FF           MOV     R7,A
    456              }
    457              offset += sz;
   \                     ??initPage_7:
   \   0001F1   E5..         MOV     A,?V0 + 0
   \   0001F3   25..         ADD     A,?V0 + 4
   \   0001F5   F5..         MOV     ?V0 + 0,A
   \   0001F7   E5..         MOV     A,?V0 + 1
   \   0001F9   35..         ADDC    A,?V0 + 5
   \   0001FB   F5..         MOV     ?V0 + 1,A
    458          
    459            } while ( TRUE );
   \   0001FD   02....       LJMP    ??initPage_0 & 0xFFFF
    460          
    461            pgOff[pg - OSAL_NV_PAGE_BEG] = offset;
   \                     ??initPage_2:
   \   000200   E5..         MOV     A,?V0 + 2
   \   000202   A8..         MOV     R0,?V0 + 2
   \   000204   7900         MOV     R1,#0x0
   \   000206   E8           MOV     A,R0
   \   000207   75F002       MOV     B,#0x2
   \   00020A   A4           MUL     AB
   \   00020B   C8           XCH     A,R0
   \   00020C   AAF0         MOV     R2,B
   \   00020E   75F000       MOV     B,#0x0
   \   000211   A4           MUL     AB
   \   000212   2A           ADD     A,R2
   \   000213   FA           MOV     R2,A
   \   000214   75F002       MOV     B,#0x2
   \   000217   E9           MOV     A,R1
   \   000218   A4           MUL     AB
   \   000219   2A           ADD     A,R2
   \   00021A   F9           MOV     R1,A
   \   00021B   74..         MOV     A,#(pgOff + 14) & 0xff
   \   00021D   28           ADD     A,R0
   \   00021E   F582         MOV     DPL,A
   \   000220   74..         MOV     A,#((pgOff - 242) >> 8) & 0xff
   \   000222   39           ADDC    A,R1
   \   000223   F583         MOV     DPH,A
   \   000225   E5..         MOV     A,?V0 + 0
   \   000227   F0           MOVX    @DPTR,A
   \   000228   A3           INC     DPTR
   \   000229   E5..         MOV     A,?V0 + 1
   \   00022B   F0           MOVX    @DPTR,A
    462            pgLost[pg - OSAL_NV_PAGE_BEG] = lost;
   \   00022C   E5..         MOV     A,?V0 + 2
   \   00022E   A8..         MOV     R0,?V0 + 2
   \   000230   7900         MOV     R1,#0x0
   \   000232   E8           MOV     A,R0
   \   000233   75F002       MOV     B,#0x2
   \   000236   A4           MUL     AB
   \   000237   C8           XCH     A,R0
   \   000238   AAF0         MOV     R2,B
   \   00023A   75F000       MOV     B,#0x0
   \   00023D   A4           MUL     AB
   \   00023E   2A           ADD     A,R2
   \   00023F   FA           MOV     R2,A
   \   000240   75F002       MOV     B,#0x2
   \   000243   E9           MOV     A,R1
   \   000244   A4           MUL     AB
   \   000245   2A           ADD     A,R2
   \   000246   F9           MOV     R1,A
   \   000247   74..         MOV     A,#(pgLost + 14) & 0xff
   \   000249   28           ADD     A,R0
   \   00024A   F582         MOV     DPL,A
   \   00024C   74..         MOV     A,#((pgLost - 242) >> 8) & 0xff
   \   00024E   39           ADDC    A,R1
   \   00024F   F583         MOV     DPH,A
   \   000251   EE           MOV     A,R6
   \   000252   F0           MOVX    @DPTR,A
   \   000253   A3           INC     DPTR
   \   000254   EF           MOV     A,R7
   \   000255   F0           MOVX    @DPTR,A
    463          
    464            return OSAL_NV_ITEM_NULL;
   \   000256   7A00         MOV     R2,#0x0
   \   000258   7B00         MOV     R3,#0x0
   \                     ??initPage_12:
   \   00025A   7408         MOV     A,#0x8
   \   00025C   12....       LCALL   ?DEALLOC_XSTACK8
   \   00025F   7F0C         MOV     R7,#0xc
   \   000261   02....       LJMP    ?BANKED_LEAVE_XDATA
    465          }
    466          
    467          /*********************************************************************
    468           * @fn      erasePage
    469           *
    470           * @brief   Erases a page in Flash.
    471           *
    472           * @param   pg - Valid NV page to erase.
    473           *
    474           * @return  none
    475           */

   \                                 In  segment BANKED_CODE, align 1, keep-with-next
    476          static void erasePage( uint8 pg )
   \                     erasePage:
    477          {
   \   000000   74F7         MOV     A,#-0x9
   \   000002   12....       LCALL   ?BANKED_ENTER_XDATA
   \   000005                ; Saved register size: 9
   \   000005                ; Auto size: 0
   \   000005   E9           MOV     A,R1
   \   000006   FE           MOV     R6,A
    478            if ( !OSAL_NV_CHECK_BUS_VOLTAGE )
   \   000007                ; Setup parameters for call to function HalAdcCheckVdd
   \   000007   7904         MOV     R1,#0x4
   \   000009   12....       LCALL   ??HalAdcCheckVdd?relay
   \   00000C   E9           MOV     A,R1
   \   00000D   7008         JNZ     ??erasePage_0
    479            {
    480              failF = TRUE;
   \   00000F   90....       MOV     DPTR,#failF
   \   000012   7401         MOV     A,#0x1
   \   000014   F0           MOVX    @DPTR,A
    481              return;
   \   000015   8059         SJMP    ??erasePage_1
    482            }
    483          
    484            HalFlashErase(pg);
   \                     ??erasePage_0:
   \   000017                ; Setup parameters for call to function HalFlashErase
   \   000017   EE           MOV     A,R6
   \   000018   F9           MOV     R1,A
   \   000019   12....       LCALL   ??HalFlashErase?relay
    485          
    486            pgOff[pg - OSAL_NV_PAGE_BEG] = OSAL_NV_PAGE_HDR_SIZE;
   \   00001C   EE           MOV     A,R6
   \   00001D   F8           MOV     R0,A
   \   00001E   7900         MOV     R1,#0x0
   \   000020   E8           MOV     A,R0
   \   000021   75F002       MOV     B,#0x2
   \   000024   A4           MUL     AB
   \   000025   C8           XCH     A,R0
   \   000026   AAF0         MOV     R2,B
   \   000028   75F000       MOV     B,#0x0
   \   00002B   A4           MUL     AB
   \   00002C   2A           ADD     A,R2
   \   00002D   FA           MOV     R2,A
   \   00002E   75F002       MOV     B,#0x2
   \   000031   E9           MOV     A,R1
   \   000032   A4           MUL     AB
   \   000033   2A           ADD     A,R2
   \   000034   F9           MOV     R1,A
   \   000035   74..         MOV     A,#(pgOff + 14) & 0xff
   \   000037   28           ADD     A,R0
   \   000038   F582         MOV     DPL,A
   \   00003A   74..         MOV     A,#((pgOff - 242) >> 8) & 0xff
   \   00003C   39           ADDC    A,R1
   \   00003D   F583         MOV     DPH,A
   \   00003F   7408         MOV     A,#0x8
   \   000041   F0           MOVX    @DPTR,A
   \   000042   A3           INC     DPTR
   \   000043   7400         MOV     A,#0x0
   \   000045   F0           MOVX    @DPTR,A
    487            pgLost[pg - OSAL_NV_PAGE_BEG] = 0;
   \   000046   EE           MOV     A,R6
   \   000047   F8           MOV     R0,A
   \   000048   7900         MOV     R1,#0x0
   \   00004A   E8           MOV     A,R0
   \   00004B   75F002       MOV     B,#0x2
   \   00004E   A4           MUL     AB
   \   00004F   C8           XCH     A,R0
   \   000050   AAF0         MOV     R2,B
   \   000052   75F000       MOV     B,#0x0
   \   000055   A4           MUL     AB
   \   000056   2A           ADD     A,R2
   \   000057   FA           MOV     R2,A
   \   000058   75F002       MOV     B,#0x2
   \   00005B   E9           MOV     A,R1
   \   00005C   A4           MUL     AB
   \   00005D   2A           ADD     A,R2
   \   00005E   F9           MOV     R1,A
   \   00005F   74..         MOV     A,#(pgLost + 14) & 0xff
   \   000061   28           ADD     A,R0
   \   000062   F582         MOV     DPL,A
   \   000064   74..         MOV     A,#((pgLost - 242) >> 8) & 0xff
   \   000066   39           ADDC    A,R1
   \   000067   F583         MOV     DPH,A
   \   000069   7400         MOV     A,#0x0
   \   00006B   F0           MOVX    @DPTR,A
   \   00006C   A3           INC     DPTR
   \   00006D   7400         MOV     A,#0x0
   \   00006F   F0           MOVX    @DPTR,A
    488          }
   \                     ??erasePage_1:
   \   000070   7F01         MOV     R7,#0x1
   \   000072   02....       LJMP    ?BANKED_LEAVE_XDATA
    489          
    490          /*********************************************************************
    491           * @fn      compactPage
    492           *
    493           * @brief   Compacts the page specified.
    494           *
    495           * @param   srcPg - Valid NV page to erase.
    496           *
    497           * @return  none
    498           */

   \                                 In  segment BANKED_CODE, align 1, keep-with-next
    499          static void compactPage( uint8 srcPg )
   \                     compactPage:
    500          {
   \   000000   74F2         MOV     A,#-0xe
   \   000002   12....       LCALL   ?BANKED_ENTER_XDATA
   \   000005                ; Saved register size: 14
   \   000005                ; Auto size: 10
   \   000005   74F6         MOV     A,#-0xa
   \   000007   12....       LCALL   ?ALLOC_XSTACK8
   \   00000A   E9           MOV     A,R1
   \   00000B   FE           MOV     R6,A
    501            uint16 dstOff = pgOff[pgRes-OSAL_NV_PAGE_BEG];
   \   00000C   90....       MOV     DPTR,#pgRes
   \   00000F   E0           MOVX    A,@DPTR
   \   000010   F8           MOV     R0,A
   \   000011   7900         MOV     R1,#0x0
   \   000013   E8           MOV     A,R0
   \   000014   75F002       MOV     B,#0x2
   \   000017   A4           MUL     AB
   \   000018   C8           XCH     A,R0
   \   000019   AAF0         MOV     R2,B
   \   00001B   75F000       MOV     B,#0x0
   \   00001E   A4           MUL     AB
   \   00001F   2A           ADD     A,R2
   \   000020   FA           MOV     R2,A
   \   000021   75F002       MOV     B,#0x2
   \   000024   E9           MOV     A,R1
   \   000025   A4           MUL     AB
   \   000026   2A           ADD     A,R2
   \   000027   F9           MOV     R1,A
   \   000028   74..         MOV     A,#(pgOff + 14) & 0xff
   \   00002A   28           ADD     A,R0
   \   00002B   F582         MOV     DPL,A
   \   00002D   74..         MOV     A,#((pgOff - 242) >> 8) & 0xff
   \   00002F   39           ADDC    A,R1
   \   000030   F583         MOV     DPH,A
   \   000032   E0           MOVX    A,@DPTR
   \   000033   F5..         MOV     ?V0 + 0,A
   \   000035   A3           INC     DPTR
   \   000036   E0           MOVX    A,@DPTR
   \   000037   F5..         MOV     ?V0 + 1,A
    502            uint16 srcOff = OSAL_NV_ZEROED_ID;
   \   000039   85..82       MOV     DPL,?XSP + 0
   \   00003C   85..83       MOV     DPH,?XSP + 1
   \   00003F   7400         MOV     A,#0x0
   \   000041   F0           MOVX    @DPTR,A
   \   000042   A3           INC     DPTR
   \   000043   7400         MOV     A,#0x0
   \   000045   F0           MOVX    @DPTR,A
    503            osalNvHdr_t hdr;
    504          
    505            // Mark page as being in process of compaction.
    506            writeWordH( srcPg, OSAL_NV_PG_XFER, (uint8*)(&srcOff) );
   \   000046                ; Setup parameters for call to function writeWordH
   \   000046   85..82       MOV     DPL,?XSP + 0
   \   000049   85..83       MOV     DPH,?XSP + 1
   \   00004C   AC82         MOV     R4,DPL
   \   00004E   AD83         MOV     R5,DPH
   \   000050   7A04         MOV     R2,#0x4
   \   000052   7B00         MOV     R3,#0x0
   \   000054   EE           MOV     A,R6
   \   000055   F9           MOV     R1,A
   \   000056   12....       LCALL   ??writeWordH?relay
    507          
    508            srcOff = OSAL_NV_PAGE_HDR_SIZE;
   \   000059   85..82       MOV     DPL,?XSP + 0
   \   00005C   85..83       MOV     DPH,?XSP + 1
   \   00005F   7408         MOV     A,#0x8
   \   000061   F0           MOVX    @DPTR,A
   \   000062   A3           INC     DPTR
   \   000063   7400         MOV     A,#0x0
   \   000065   F0           MOVX    @DPTR,A
    509          
    510            do
    511            {
    512              uint16 sz;
    513              HalFlashRead(srcPg, srcOff, (uint8 *)(&hdr), OSAL_NV_HDR_SIZE);
   \                     ??compactPage_0:
   \   000066                ; Setup parameters for call to function HalFlashRead
   \   000066   75..08       MOV     ?V0 + 2,#0x8
   \   000069   75..00       MOV     ?V0 + 3,#0x0
   \   00006C   78..         MOV     R0,#?V0 + 2
   \   00006E   12....       LCALL   ?PUSH_XSTACK_I_TWO
   \   000071   7404         MOV     A,#0x4
   \   000073   12....       LCALL   ?XSTACK_DISP0_8
   \   000076   AC82         MOV     R4,DPL
   \   000078   AD83         MOV     R5,DPH
   \   00007A   7402         MOV     A,#0x2
   \   00007C   12....       LCALL   ?XSTACK_DISP0_8
   \   00007F   E0           MOVX    A,@DPTR
   \   000080   FA           MOV     R2,A
   \   000081   A3           INC     DPTR
   \   000082   E0           MOVX    A,@DPTR
   \   000083   FB           MOV     R3,A
   \   000084   EE           MOV     A,R6
   \   000085   F9           MOV     R1,A
   \   000086   12....       LCALL   ??HalFlashRead?relay
   \   000089   7402         MOV     A,#0x2
   \   00008B   12....       LCALL   ?DEALLOC_XSTACK8
    514          
    515              if ( hdr.id == OSAL_NV_ERASED_ID )
   \   00008E   7402         MOV     A,#0x2
   \   000090   12....       LCALL   ?XSTACK_DISP0_8
   \   000093   E0           MOVX    A,@DPTR
   \   000094   64FF         XRL     A,#0xff
   \   000096   7004         JNZ     ??compactPage_1
   \   000098   A3           INC     DPTR
   \   000099   E0           MOVX    A,@DPTR
   \   00009A   64FF         XRL     A,#0xff
   \                     ??compactPage_1:
   \   00009C   7003         JNZ     $+5
   \   00009E   02....       LJMP    ??compactPage_2 & 0xFFFF
    516              {
    517                break;
    518              }
    519          
    520              srcOff += OSAL_NV_HDR_SIZE;
   \   0000A1   85..82       MOV     DPL,?XSP + 0
   \   0000A4   85..83       MOV     DPH,?XSP + 1
   \   0000A7   E0           MOVX    A,@DPTR
   \   0000A8   2408         ADD     A,#0x8
   \   0000AA   F0           MOVX    @DPTR,A
   \   0000AB   A3           INC     DPTR
   \   0000AC   E0           MOVX    A,@DPTR
   \   0000AD   3400         ADDC    A,#0x0
   \   0000AF   F0           MOVX    @DPTR,A
    521          
    522              if ( (srcOff + hdr.len) > OSAL_NV_PAGE_FREE )
   \   0000B0   85..82       MOV     DPL,?XSP + 0
   \   0000B3   85..83       MOV     DPH,?XSP + 1
   \   0000B6   E0           MOVX    A,@DPTR
   \   0000B7   F8           MOV     R0,A
   \   0000B8   A3           INC     DPTR
   \   0000B9   E0           MOVX    A,@DPTR
   \   0000BA   F9           MOV     R1,A
   \   0000BB   7404         MOV     A,#0x4
   \   0000BD   12....       LCALL   ?XSTACK_DISP0_8
   \   0000C0   E0           MOVX    A,@DPTR
   \   0000C1   28           ADD     A,R0
   \   0000C2   F8           MOV     R0,A
   \   0000C3   A3           INC     DPTR
   \   0000C4   E0           MOVX    A,@DPTR
   \   0000C5   39           ADDC    A,R1
   \   0000C6   F9           MOV     R1,A
   \   0000C7   C3           CLR     C
   \   0000C8   E8           MOV     A,R0
   \   0000C9   9401         SUBB    A,#0x1
   \   0000CB   E9           MOV     A,R1
   \   0000CC   9408         SUBB    A,#0x8
   \   0000CE   4003         JC      $+5
   \   0000D0   02....       LJMP    ??compactPage_2 & 0xFFFF
    523              {
    524                break;
    525              }
    526          
    527              sz = OSAL_NV_DATA_SIZE( hdr.len );
   \   0000D3   7404         MOV     A,#0x4
   \   0000D5   12....       LCALL   ?XSTACK_DISP0_8
   \   0000D8   E0           MOVX    A,@DPTR
   \   0000D9   2403         ADD     A,#0x3
   \   0000DB   F5..         MOV     ?V0 + 2,A
   \   0000DD   A3           INC     DPTR
   \   0000DE   E0           MOVX    A,@DPTR
   \   0000DF   3400         ADDC    A,#0x0
   \   0000E1   F5..         MOV     ?V0 + 3,A
   \   0000E3   7402         MOV     A,#0x2
   \   0000E5   78..         MOV     R0,#?V0 + 2
   \   0000E7   12....       LCALL   ?US_SHR
   \   0000EA   E5..         MOV     A,?V0 + 2
   \   0000EC   75F004       MOV     B,#0x4
   \   0000EF   A4           MUL     AB
   \   0000F0   C5..         XCH     A,?V0 + 2
   \   0000F2   A8F0         MOV     R0,B
   \   0000F4   75F000       MOV     B,#0x0
   \   0000F7   A4           MUL     AB
   \   0000F8   28           ADD     A,R0
   \   0000F9   F8           MOV     R0,A
   \   0000FA   75F004       MOV     B,#0x4
   \   0000FD   E5..         MOV     A,?V0 + 3
   \   0000FF   A4           MUL     AB
   \   000100   28           ADD     A,R0
   \   000101   F5..         MOV     ?V0 + 3,A
   \   000103   85....       MOV     ?V0 + 4,?V0 + 2
   \   000106   85....       MOV     ?V0 + 5,?V0 + 3
    528          
    529              if ( hdr.id != OSAL_NV_ZEROED_ID )
   \   000109   7402         MOV     A,#0x2
   \   00010B   12....       LCALL   ?XSTACK_DISP0_8
   \   00010E   E0           MOVX    A,@DPTR
   \   00010F   F8           MOV     R0,A
   \   000110   A3           INC     DPTR
   \   000111   E0           MOVX    A,@DPTR
   \   000112   F9           MOV     R1,A
   \   000113   E8           MOV     A,R0
   \   000114   49           ORL     A,R1
   \   000115   7003         JNZ     $+5
   \   000117   02....       LJMP    ??compactPage_3 & 0xFFFF
    530              {
    531                if ( hdr.chk == calcChkF( srcPg, srcOff, hdr.len ) )
   \   00011A                ; Setup parameters for call to function calcChkF
   \   00011A   7404         MOV     A,#0x4
   \   00011C   12....       LCALL   ?XSTACK_DISP0_8
   \   00011F   E0           MOVX    A,@DPTR
   \   000120   FC           MOV     R4,A
   \   000121   A3           INC     DPTR
   \   000122   E0           MOVX    A,@DPTR
   \   000123   FD           MOV     R5,A
   \   000124   85..82       MOV     DPL,?XSP + 0
   \   000127   85..83       MOV     DPH,?XSP + 1
   \   00012A   E0           MOVX    A,@DPTR
   \   00012B   FA           MOV     R2,A
   \   00012C   A3           INC     DPTR
   \   00012D   E0           MOVX    A,@DPTR
   \   00012E   FB           MOV     R3,A
   \   00012F   EE           MOV     A,R6
   \   000130   F9           MOV     R1,A
   \   000131   12....       LCALL   ??calcChkF?relay
   \   000134   8A..         MOV     ?V0 + 2,R2
   \   000136   8B..         MOV     ?V0 + 3,R3
   \   000138   A8..         MOV     R0,?V0 + 2
   \   00013A   A9..         MOV     R1,?V0 + 3
   \   00013C   7406         MOV     A,#0x6
   \   00013E   12....       LCALL   ?XSTACK_DISP0_8
   \   000141   E0           MOVX    A,@DPTR
   \   000142   68           XRL     A,R0
   \   000143   7003         JNZ     ??compactPage_4
   \   000145   A3           INC     DPTR
   \   000146   E0           MOVX    A,@DPTR
   \   000147   69           XRL     A,R1
   \                     ??compactPage_4:
   \   000148   7072         JNZ     ??compactPage_5
    532                {
    533                  setItem( srcPg, srcOff, eNvXfer );
   \   00014A                ; Setup parameters for call to function setItem
   \   00014A   7C00         MOV     R4,#0x0
   \   00014C   85..82       MOV     DPL,?XSP + 0
   \   00014F   85..83       MOV     DPH,?XSP + 1
   \   000152   E0           MOVX    A,@DPTR
   \   000153   FA           MOV     R2,A
   \   000154   A3           INC     DPTR
   \   000155   E0           MOVX    A,@DPTR
   \   000156   FB           MOV     R3,A
   \   000157   EE           MOV     A,R6
   \   000158   F9           MOV     R1,A
   \   000159   12....       LCALL   ??setItem?relay
    534                  writeBuf( pgRes, dstOff, OSAL_NV_HDR_SIZE, (byte *)(&hdr) );
   \   00015C                ; Setup parameters for call to function writeBuf
   \   00015C   7402         MOV     A,#0x2
   \   00015E   12....       LCALL   ?XSTACK_DISP0_8
   \   000161   8582..       MOV     ?V0 + 2,DPL
   \   000164   8583..       MOV     ?V0 + 3,DPH
   \   000167   78..         MOV     R0,#?V0 + 2
   \   000169   12....       LCALL   ?PUSH_XSTACK_I_TWO
   \   00016C   7C08         MOV     R4,#0x8
   \   00016E   7D00         MOV     R5,#0x0
   \   000170   AA..         MOV     R2,?V0 + 0
   \   000172   AB..         MOV     R3,?V0 + 1
   \   000174   90....       MOV     DPTR,#pgRes
   \   000177   E0           MOVX    A,@DPTR
   \   000178   F9           MOV     R1,A
   \   000179   12....       LCALL   ??writeBuf?relay
   \   00017C   7402         MOV     A,#0x2
   \   00017E   12....       LCALL   ?DEALLOC_XSTACK8
    535                  dstOff += OSAL_NV_HDR_SIZE;
   \   000181   E5..         MOV     A,?V0 + 0
   \   000183   2408         ADD     A,#0x8
   \   000185   F5..         MOV     ?V0 + 0,A
   \   000187   E5..         MOV     A,?V0 + 1
   \   000189   3400         ADDC    A,#0x0
   \   00018B   F5..         MOV     ?V0 + 1,A
    536                  xferBuf( srcPg, srcOff, pgRes, dstOff, sz );
   \   00018D                ; Setup parameters for call to function xferBuf
   \   00018D   78..         MOV     R0,#?V0 + 4
   \   00018F   12....       LCALL   ?PUSH_XSTACK_I_TWO
   \   000192   78..         MOV     R0,#?V0 + 0
   \   000194   12....       LCALL   ?PUSH_XSTACK_I_TWO
   \   000197   90....       MOV     DPTR,#pgRes
   \   00019A   E0           MOVX    A,@DPTR
   \   00019B   FC           MOV     R4,A
   \   00019C   7404         MOV     A,#0x4
   \   00019E   12....       LCALL   ?XSTACK_DISP0_8
   \   0001A1   E0           MOVX    A,@DPTR
   \   0001A2   FA           MOV     R2,A
   \   0001A3   A3           INC     DPTR
   \   0001A4   E0           MOVX    A,@DPTR
   \   0001A5   FB           MOV     R3,A
   \   0001A6   EE           MOV     A,R6
   \   0001A7   F9           MOV     R1,A
   \   0001A8   12....       LCALL   ??xferBuf?relay
   \   0001AB   7404         MOV     A,#0x4
   \   0001AD   12....       LCALL   ?DEALLOC_XSTACK8
    537                  dstOff += sz;
   \   0001B0   E5..         MOV     A,?V0 + 0
   \   0001B2   25..         ADD     A,?V0 + 4
   \   0001B4   F5..         MOV     ?V0 + 0,A
   \   0001B6   E5..         MOV     A,?V0 + 1
   \   0001B8   35..         ADDC    A,?V0 + 5
   \   0001BA   F5..         MOV     ?V0 + 1,A
    538                }
    539          
    540                setItem( srcPg, srcOff, eNvZero );  // Mark old location as invalid.
   \                     ??compactPage_5:
   \   0001BC                ; Setup parameters for call to function setItem
   \   0001BC   7C01         MOV     R4,#0x1
   \   0001BE   85..82       MOV     DPL,?XSP + 0
   \   0001C1   85..83       MOV     DPH,?XSP + 1
   \   0001C4   E0           MOVX    A,@DPTR
   \   0001C5   FA           MOV     R2,A
   \   0001C6   A3           INC     DPTR
   \   0001C7   E0           MOVX    A,@DPTR
   \   0001C8   FB           MOV     R3,A
   \   0001C9   EE           MOV     A,R6
   \   0001CA   F9           MOV     R1,A
   \   0001CB   12....       LCALL   ??setItem?relay
    541              }
    542          
    543              srcOff += sz;
   \                     ??compactPage_3:
   \   0001CE   85..82       MOV     DPL,?XSP + 0
   \   0001D1   85..83       MOV     DPH,?XSP + 1
   \   0001D4   E0           MOVX    A,@DPTR
   \   0001D5   25..         ADD     A,?V0 + 4
   \   0001D7   F0           MOVX    @DPTR,A
   \   0001D8   A3           INC     DPTR
   \   0001D9   E0           MOVX    A,@DPTR
   \   0001DA   35..         ADDC    A,?V0 + 5
   \   0001DC   F0           MOVX    @DPTR,A
    544          
    545            } while ( TRUE );
   \   0001DD   02....       LJMP    ??compactPage_0 & 0xFFFF
    546          
    547            pgOff[pgRes-OSAL_NV_PAGE_BEG] = dstOff;
   \                     ??compactPage_2:
   \   0001E0   90....       MOV     DPTR,#pgRes
   \   0001E3   E0           MOVX    A,@DPTR
   \   0001E4   F8           MOV     R0,A
   \   0001E5   7900         MOV     R1,#0x0
   \   0001E7   E8           MOV     A,R0
   \   0001E8   75F002       MOV     B,#0x2
   \   0001EB   A4           MUL     AB
   \   0001EC   C8           XCH     A,R0
   \   0001ED   AAF0         MOV     R2,B
   \   0001EF   75F000       MOV     B,#0x0
   \   0001F2   A4           MUL     AB
   \   0001F3   2A           ADD     A,R2
   \   0001F4   FA           MOV     R2,A
   \   0001F5   75F002       MOV     B,#0x2
   \   0001F8   E9           MOV     A,R1
   \   0001F9   A4           MUL     AB
   \   0001FA   2A           ADD     A,R2
   \   0001FB   F9           MOV     R1,A
   \   0001FC   74..         MOV     A,#(pgOff + 14) & 0xff
   \   0001FE   28           ADD     A,R0
   \   0001FF   F582         MOV     DPL,A
   \   000201   74..         MOV     A,#((pgOff - 242) >> 8) & 0xff
   \   000203   39           ADDC    A,R1
   \   000204   F583         MOV     DPH,A
   \   000206   E5..         MOV     A,?V0 + 0
   \   000208   F0           MOVX    @DPTR,A
   \   000209   A3           INC     DPTR
   \   00020A   E5..         MOV     A,?V0 + 1
   \   00020C   F0           MOVX    @DPTR,A
    548          
    549            /* In order to recover from a page compaction that is interrupted,
    550             * the logic in osal_nv_init() depends upon the following order:
    551             * 1. Compacted page is erased.
    552             * 2. State of the target of compaction is changed ePgActive to ePgInUse.
    553             */
    554            erasePage( srcPg );
   \   00020D                ; Setup parameters for call to function erasePage
   \   00020D   EE           MOV     A,R6
   \   00020E   F9           MOV     R1,A
   \   00020F   12....       LCALL   ??erasePage?relay
    555          
    556            // Mark the reserve page as being in use.
    557            setPageUse( pgRes, TRUE );
   \   000212                ; Setup parameters for call to function setPageUse
   \   000212   7A01         MOV     R2,#0x1
   \   000214   90....       MOV     DPTR,#pgRes
   \   000217   E0           MOVX    A,@DPTR
   \   000218   F9           MOV     R1,A
   \   000219   12....       LCALL   ??setPageUse?relay
    558          
    559            // Set the reserve page to be the newly erased page.
    560            pgRes = srcPg;
   \   00021C   EE           MOV     A,R6
   \   00021D   90....       MOV     DPTR,#pgRes
   \   000220   F0           MOVX    @DPTR,A
    561          }
   \   000221   740A         MOV     A,#0xa
   \   000223   12....       LCALL   ?DEALLOC_XSTACK8
   \   000226   7F06         MOV     R7,#0x6
   \   000228   02....       LJMP    ?BANKED_LEAVE_XDATA
    562          
    563          /*********************************************************************
    564           * @fn      findItem
    565           *
    566           * @brief   Find an item Id in NV and return the page and offset to its data.
    567           *
    568           * @param   id - Valid NV item Id.
    569           *
    570           * @return  Offset of data corresponding to item Id, if found;
    571           *          otherwise OSAL_NV_ITEM_NULL.
    572           *
    573           *          The page containing the item, if found;
    574           *          otherwise no valid assignment made - left equal to item Id.
    575           *
    576           */

   \                                 In  segment BANKED_CODE, align 1, keep-with-next
    577          static uint16 findItem( uint16 id )
   \                     findItem:
    578          {
   \   000000   74F2         MOV     A,#-0xe
   \   000002   12....       LCALL   ?BANKED_ENTER_XDATA
   \   000005                ; Saved register size: 14
   \   000005                ; Auto size: 0
   \   000005   EA           MOV     A,R2
   \   000006   FE           MOV     R6,A
   \   000007   EB           MOV     A,R3
   \   000008   FF           MOV     R7,A
    579            uint16 off;
    580            uint8 pg;
    581          
    582            for ( pg = OSAL_NV_PAGE_BEG; pg <= OSAL_NV_PAGE_END; pg++ )
   \   000009   75..79       MOV     ?V0 + 2,#0x79
   \                     ??findItem_0:
   \   00000C   E5..         MOV     A,?V0 + 2
   \   00000E   C3           CLR     C
   \   00000F   947F         SUBB    A,#0x7f
   \   000011   502B         JNC     ??findItem_1
    583            {
    584              if ( (off = initPage( pg, id, FALSE )) != OSAL_NV_ITEM_NULL )
   \   000013                ; Setup parameters for call to function initPage
   \   000013   7C00         MOV     R4,#0x0
   \   000015   EE           MOV     A,R6
   \   000016   FA           MOV     R2,A
   \   000017   EF           MOV     A,R7
   \   000018   FB           MOV     R3,A
   \   000019   A9..         MOV     R1,?V0 + 2
   \   00001B   12....       LCALL   ??initPage?relay
   \   00001E   8A..         MOV     ?V0 + 4,R2
   \   000020   8B..         MOV     ?V0 + 5,R3
   \   000022   A8..         MOV     R0,?V0 + 4
   \   000024   A9..         MOV     R1,?V0 + 5
   \   000026   88..         MOV     ?V0 + 0,R0
   \   000028   89..         MOV     ?V0 + 1,R1
   \   00002A   E8           MOV     A,R0
   \   00002B   49           ORL     A,R1
   \   00002C   600C         JZ      ??findItem_2
    585              {
    586                findPg = pg;
   \   00002E   E5..         MOV     A,?V0 + 2
   \   000030   90....       MOV     DPTR,#findPg
   \   000033   F0           MOVX    @DPTR,A
    587                return off;
   \   000034   AA..         MOV     R2,?V0 + 0
   \   000036   AB..         MOV     R3,?V0 + 1
   \   000038   8027         SJMP    ??findItem_3
    588              }
    589            }
   \                     ??findItem_2:
   \   00003A   05..         INC     ?V0 + 2
   \   00003C   80CE         SJMP    ??findItem_0
    590          
    591            // Now attempt to find the item as the "old" item of a failed/interrupted NV write.
    592            if ( (id & OSAL_NV_SOURCE_ID) == 0 )
   \                     ??findItem_1:
   \   00003E   EE           MOV     A,R6
   \   00003F   5400         ANL     A,#0x0
   \   000041   F8           MOV     R0,A
   \   000042   EF           MOV     A,R7
   \   000043   5480         ANL     A,#0x80
   \   000045   F9           MOV     R1,A
   \   000046   E8           MOV     A,R0
   \   000047   49           ORL     A,R1
   \   000048   700D         JNZ     ??findItem_4
    593            {
    594              return findItem( id | OSAL_NV_SOURCE_ID );
   \   00004A                ; Setup parameters for call to function findItem
   \   00004A   EE           MOV     A,R6
   \   00004B   4400         ORL     A,#0x0
   \   00004D   FA           MOV     R2,A
   \   00004E   EF           MOV     A,R7
   \   00004F   4480         ORL     A,#0x80
   \   000051   FB           MOV     R3,A
   \   000052   12....       LCALL   ??findItem?relay
   \   000055   800A         SJMP    ??findItem_3
    595            }
    596            else
    597            {
    598              findPg = OSAL_NV_PAGE_NULL;
   \                     ??findItem_4:
   \   000057   90....       MOV     DPTR,#findPg
   \   00005A   7400         MOV     A,#0x0
   \   00005C   F0           MOVX    @DPTR,A
    599              return OSAL_NV_ITEM_NULL;
   \   00005D   7A00         MOV     R2,#0x0
   \   00005F   7B00         MOV     R3,#0x0
   \                     ??findItem_3:
   \   000061   7F06         MOV     R7,#0x6
   \   000063   02....       LJMP    ?BANKED_LEAVE_XDATA
    600            }
    601          }
    602          
    603          /*********************************************************************
    604           * @fn      initItem
    605           *
    606           * @brief   An NV item is created and initialized with the data passed to the function, if any.
    607           *
    608           * @param   id  - Valid NV item Id.
    609           * @param   len - Item data length.
    610           * @param  *buf - Pointer to item initalization data. Set to NULL if none.
    611           *
    612           * @return  TRUE if item write and read back checksums ok; FALSE otherwise.
    613           */

   \                                 In  segment BANKED_CODE, align 1, keep-with-next
    614          static uint8 initItem( uint8 flag, uint16 id, uint16 len, void *buf )
   \                     initItem:
    615          {
   \   000000   74EC         MOV     A,#-0x14
   \   000002   12....       LCALL   ?BANKED_ENTER_XDATA
   \   000005                ; Saved register size: 20
   \   000005                ; Auto size: 0
   \   000005   89..         MOV     ?V0 + 3,R1
   \   000007   8A..         MOV     ?V0 + 10,R2
   \   000009   8B..         MOV     ?V0 + 11,R3
   \   00000B   8C..         MOV     ?V0 + 0,R4
   \   00000D   8D..         MOV     ?V0 + 1,R5
   \   00000F   7414         MOV     A,#0x14
   \   000011   12....       LCALL   ?XSTACK_DISP0_8
   \   000014   E0           MOVX    A,@DPTR
   \   000015   F5..         MOV     ?V0 + 8,A
   \   000017   A3           INC     DPTR
   \   000018   E0           MOVX    A,@DPTR
   \   000019   F5..         MOV     ?V0 + 9,A
    616            uint16 sz = OSAL_NV_ITEM_SIZE( len );
   \   00001B   E5..         MOV     A,?V0 + 0
   \   00001D   2403         ADD     A,#0x3
   \   00001F   F5..         MOV     ?V0 + 4,A
   \   000021   E5..         MOV     A,?V0 + 1
   \   000023   3400         ADDC    A,#0x0
   \   000025   F5..         MOV     ?V0 + 5,A
   \   000027   7402         MOV     A,#0x2
   \   000029   78..         MOV     R0,#?V0 + 4
   \   00002B   12....       LCALL   ?US_SHR
   \   00002E   E5..         MOV     A,?V0 + 4
   \   000030   75F004       MOV     B,#0x4
   \   000033   A4           MUL     AB
   \   000034   C5..         XCH     A,?V0 + 4
   \   000036   A8F0         MOV     R0,B
   \   000038   75F000       MOV     B,#0x0
   \   00003B   A4           MUL     AB
   \   00003C   28           ADD     A,R0
   \   00003D   F8           MOV     R0,A
   \   00003E   75F004       MOV     B,#0x4
   \   000041   E5..         MOV     A,?V0 + 5
   \   000043   A4           MUL     AB
   \   000044   28           ADD     A,R0
   \   000045   F5..         MOV     ?V0 + 5,A
   \   000047   E5..         MOV     A,?V0 + 4
   \   000049   2408         ADD     A,#0x8
   \   00004B   FE           MOV     R6,A
   \   00004C   E5..         MOV     A,?V0 + 5
   \   00004E   3400         ADDC    A,#0x0
   \   000050   FF           MOV     R7,A
    617            uint8 rtrn = FALSE;
   \   000051   75..00       MOV     ?V0 + 2,#0x0
    618            uint8 cnt = OSAL_NV_PAGES_USED;
   \   000054   75..06       MOV     ?V0 + 4,#0x6
    619            uint8 pg = pgRes+1;  // Set to 1 after the reserve page to even wear across all available pages.
   \   000057   90....       MOV     DPTR,#pgRes
   \   00005A   E0           MOVX    A,@DPTR
   \   00005B   2401         ADD     A,#0x1
   \   00005D   F5..         MOV     ?V0 + 6,A
    620            uint8 idx = 0;
   \   00005F   75..00       MOV     ?V0 + 5,#0x0
    621          
    622            do {
    623              if (pg >= OSAL_NV_PAGE_BEG+OSAL_NV_PAGES_USED)
   \                     ??initItem_0:
   \   000062   E5..         MOV     A,?V0 + 6
   \   000064   C3           CLR     C
   \   000065   947F         SUBB    A,#0x7f
   \   000067   4003         JC      ??initItem_1
    624              {
    625                pg = OSAL_NV_PAGE_BEG;
   \   000069   75..79       MOV     ?V0 + 6,#0x79
    626              }
    627              if ( pg != pgRes )
   \                     ??initItem_1:
   \   00006C   90....       MOV     DPTR,#pgRes
   \   00006F   E0           MOVX    A,@DPTR
   \   000070   65..         XRL     A,?V0 + 6
   \   000072   6074         JZ      ??initItem_2
    628              {
    629                idx = pg - OSAL_NV_PAGE_BEG;
   \   000074   7487         MOV     A,#-0x79
   \   000076   25..         ADD     A,?V0 + 6
   \   000078   F5..         MOV     ?V0 + 5,A
    630                if ( (pgOff[idx] - pgLost[idx] + sz) <= OSAL_NV_PAGE_FREE )
   \   00007A   E5..         MOV     A,?V0 + 5
   \   00007C   A8..         MOV     R0,?V0 + 5
   \   00007E   7900         MOV     R1,#0x0
   \   000080   E8           MOV     A,R0
   \   000081   75F002       MOV     B,#0x2
   \   000084   A4           MUL     AB
   \   000085   C8           XCH     A,R0
   \   000086   AAF0         MOV     R2,B
   \   000088   75F000       MOV     B,#0x0
   \   00008B   A4           MUL     AB
   \   00008C   2A           ADD     A,R2
   \   00008D   FA           MOV     R2,A
   \   00008E   75F002       MOV     B,#0x2
   \   000091   E9           MOV     A,R1
   \   000092   A4           MUL     AB
   \   000093   2A           ADD     A,R2
   \   000094   F9           MOV     R1,A
   \   000095   74..         MOV     A,#pgOff & 0xff
   \   000097   28           ADD     A,R0
   \   000098   F582         MOV     DPL,A
   \   00009A   74..         MOV     A,#(pgOff >> 8) & 0xff
   \   00009C   39           ADDC    A,R1
   \   00009D   F583         MOV     DPH,A
   \   00009F   C082         PUSH    DPL
   \   0000A1   C083         PUSH    DPH
   \   0000A3   E5..         MOV     A,?V0 + 5
   \   0000A5   A8..         MOV     R0,?V0 + 5
   \   0000A7   7900         MOV     R1,#0x0
   \   0000A9   E8           MOV     A,R0
   \   0000AA   75F002       MOV     B,#0x2
   \   0000AD   A4           MUL     AB
   \   0000AE   C8           XCH     A,R0
   \   0000AF   AAF0         MOV     R2,B
   \   0000B1   75F000       MOV     B,#0x0
   \   0000B4   A4           MUL     AB
   \   0000B5   2A           ADD     A,R2
   \   0000B6   FA           MOV     R2,A
   \   0000B7   75F002       MOV     B,#0x2
   \   0000BA   E9           MOV     A,R1
   \   0000BB   A4           MUL     AB
   \   0000BC   2A           ADD     A,R2
   \   0000BD   F9           MOV     R1,A
   \   0000BE   74..         MOV     A,#pgLost & 0xff
   \   0000C0   28           ADD     A,R0
   \   0000C1   F582         MOV     DPL,A
   \   0000C3   74..         MOV     A,#(pgLost >> 8) & 0xff
   \   0000C5   39           ADDC    A,R1
   \   0000C6   F583         MOV     DPH,A
   \   0000C8   E0           MOVX    A,@DPTR
   \   0000C9   F8           MOV     R0,A
   \   0000CA   A3           INC     DPTR
   \   0000CB   E0           MOVX    A,@DPTR
   \   0000CC   F9           MOV     R1,A
   \   0000CD   D083         POP     DPH
   \   0000CF   D082         POP     DPL
   \   0000D1   E0           MOVX    A,@DPTR
   \   0000D2   C3           CLR     C
   \   0000D3   98           SUBB    A,R0
   \   0000D4   F8           MOV     R0,A
   \   0000D5   A3           INC     DPTR
   \   0000D6   E0           MOVX    A,@DPTR
   \   0000D7   99           SUBB    A,R1
   \   0000D8   F9           MOV     R1,A
   \   0000D9   E8           MOV     A,R0
   \   0000DA   2E           ADD     A,R6
   \   0000DB   F8           MOV     R0,A
   \   0000DC   E9           MOV     A,R1
   \   0000DD   3F           ADDC    A,R7
   \   0000DE   F9           MOV     R1,A
   \   0000DF   C3           CLR     C
   \   0000E0   E8           MOV     A,R0
   \   0000E1   9401         SUBB    A,#0x1
   \   0000E3   E9           MOV     A,R1
   \   0000E4   9408         SUBB    A,#0x8
   \   0000E6   400F         JC      ??initItem_3
    631                {
    632                  break;
    633                }
    634              }
    635              pg++;
   \                     ??initItem_2:
   \   0000E8   05..         INC     ?V0 + 6
    636            } while (--cnt);
   \   0000EA   74FF         MOV     A,#-0x1
   \   0000EC   25..         ADD     A,?V0 + 4
   \   0000EE   F8           MOV     R0,A
   \   0000EF   88..         MOV     ?V0 + 4,R0
   \   0000F1   E8           MOV     A,R0
   \   0000F2   6003         JZ      $+5
   \   0000F4   02....       LJMP    ??initItem_0 & 0xFFFF
    637          
    638            if (cnt)
   \                     ??initItem_3:
   \   0000F7   E5..         MOV     A,?V0 + 4
   \   0000F9   607F         JZ      ??initItem_4
    639            {
    640              // Item fits if an old page is compacted.
    641              if ( (pgOff[idx] + sz) > OSAL_NV_PAGE_FREE )
   \   0000FB   E5..         MOV     A,?V0 + 5
   \   0000FD   A8..         MOV     R0,?V0 + 5
   \   0000FF   7900         MOV     R1,#0x0
   \   000101   E8           MOV     A,R0
   \   000102   75F002       MOV     B,#0x2
   \   000105   A4           MUL     AB
   \   000106   C8           XCH     A,R0
   \   000107   AAF0         MOV     R2,B
   \   000109   75F000       MOV     B,#0x0
   \   00010C   A4           MUL     AB
   \   00010D   2A           ADD     A,R2
   \   00010E   FA           MOV     R2,A
   \   00010F   75F002       MOV     B,#0x2
   \   000112   E9           MOV     A,R1
   \   000113   A4           MUL     AB
   \   000114   2A           ADD     A,R2
   \   000115   F9           MOV     R1,A
   \   000116   74..         MOV     A,#pgOff & 0xff
   \   000118   28           ADD     A,R0
   \   000119   F582         MOV     DPL,A
   \   00011B   74..         MOV     A,#(pgOff >> 8) & 0xff
   \   00011D   39           ADDC    A,R1
   \   00011E   F583         MOV     DPH,A
   \   000120   E0           MOVX    A,@DPTR
   \   000121   2E           ADD     A,R6
   \   000122   F8           MOV     R0,A
   \   000123   A3           INC     DPTR
   \   000124   E0           MOVX    A,@DPTR
   \   000125   3F           ADDC    A,R7
   \   000126   F9           MOV     R1,A
   \   000127   C3           CLR     C
   \   000128   E8           MOV     A,R0
   \   000129   9401         SUBB    A,#0x1
   \   00012B   E9           MOV     A,R1
   \   00012C   9408         SUBB    A,#0x8
   \   00012E   4006         JC      ??initItem_5
    642              {
    643                pg = pgRes;
   \   000130   90....       MOV     DPTR,#pgRes
   \   000133   E0           MOVX    A,@DPTR
   \   000134   F5..         MOV     ?V0 + 6,A
    644              }
    645          
    646              // New item is the first one written to the reserved page, then the old page is compacted.
    647              rtrn = writeItem( pg, id, len, buf, flag );
   \                     ??initItem_5:
   \   000136                ; Setup parameters for call to function writeItem
   \   000136   E5..         MOV     A,?V0 + 3
   \   000138   F5..         MOV     ?V0 + 7,A
   \   00013A   78..         MOV     R0,#?V0 + 7
   \   00013C   12....       LCALL   ?PUSH_XSTACK_I_ONE
   \   00013F   78..         MOV     R0,#?V0 + 8
   \   000141   12....       LCALL   ?PUSH_XSTACK_I_TWO
   \   000144   AC..         MOV     R4,?V0 + 0
   \   000146   AD..         MOV     R5,?V0 + 1
   \   000148   AA..         MOV     R2,?V0 + 10
   \   00014A   AB..         MOV     R3,?V0 + 11
   \   00014C   A9..         MOV     R1,?V0 + 6
   \   00014E   12....       LCALL   ??writeItem?relay
   \   000151   7403         MOV     A,#0x3
   \   000153   12....       LCALL   ?DEALLOC_XSTACK8
   \   000156   E9           MOV     A,R1
   \   000157   F5..         MOV     ?V0 + 2,A
    648          
    649              if ( pg == pgRes )
   \   000159   90....       MOV     DPTR,#pgRes
   \   00015C   E0           MOVX    A,@DPTR
   \   00015D   65..         XRL     A,?V0 + 6
   \   00015F   7019         JNZ     ??initItem_4
    650              {
    651                if ( flag )
   \   000161   E5..         MOV     A,?V0 + 3
   \   000163   600A         JZ      ??initItem_6
    652                {
    653                  compactPage( OSAL_NV_PAGE_BEG+idx );
   \   000165                ; Setup parameters for call to function compactPage
   \   000165   7479         MOV     A,#0x79
   \   000167   25..         ADD     A,?V0 + 5
   \   000169   F9           MOV     R1,A
   \   00016A   12....       LCALL   ??compactPage?relay
   \   00016D   800B         SJMP    ??initItem_4
    654                }
    655                else
    656                {
    657                  *(uint8 *)buf = OSAL_NV_PAGE_BEG+idx;
   \                     ??initItem_6:
   \   00016F   7479         MOV     A,#0x79
   \   000171   25..         ADD     A,?V0 + 5
   \   000173   85..82       MOV     DPL,?V0 + 8
   \   000176   85..83       MOV     DPH,?V0 + 9
   \   000179   F0           MOVX    @DPTR,A
    658                }
    659              }
    660            }
    661          
    662            return rtrn;
   \                     ??initItem_4:
   \   00017A   A9..         MOV     R1,?V0 + 2
   \   00017C   7F0C         MOV     R7,#0xc
   \   00017E   02....       LJMP    ?BANKED_LEAVE_XDATA
    663          }
    664          
    665          /*********************************************************************
    666           * @fn      setItem
    667           *
    668           * @brief   Set an item Id or status to mark its state.
    669           *
    670           * @param   pg - Valid NV page.
    671           * @param   offset - Valid offset into the page of the item data - the header
    672           *                   offset is calculated from this.
    673           * @param   stat - Valid enum value for the item status.
    674           *
    675           * @return  none
    676           */

   \                                 In  segment BANKED_CODE, align 1, keep-with-next
    677          static void setItem( uint8 pg, uint16 offset, eNvHdrEnum stat )
   \                     setItem:
    678          {
   \   000000   74F4         MOV     A,#-0xc
   \   000002   12....       LCALL   ?BANKED_ENTER_XDATA
   \   000005                ; Saved register size: 12
   \   000005                ; Auto size: 8
   \   000005   74F8         MOV     A,#-0x8
   \   000007   12....       LCALL   ?ALLOC_XSTACK8
   \   00000A   89..         MOV     ?V0 + 2,R1
   \   00000C   EA           MOV     A,R2
   \   00000D   FE           MOV     R6,A
   \   00000E   EB           MOV     A,R3
   \   00000F   FF           MOV     R7,A
   \   000010   8C..         MOV     ?V0 + 3,R4
    679            osalNvHdr_t hdr;
    680          
    681            offset -= OSAL_NV_HDR_SIZE;
   \   000012   EE           MOV     A,R6
   \   000013   24F8         ADD     A,#-0x8
   \   000015   FE           MOV     R6,A
   \   000016   EF           MOV     A,R7
   \   000017   34FF         ADDC    A,#-0x1
   \   000019   FF           MOV     R7,A
    682            HalFlashRead(pg, offset, (uint8 *)(&hdr), OSAL_NV_HDR_SIZE);
   \   00001A                ; Setup parameters for call to function HalFlashRead
   \   00001A   75..08       MOV     ?V0 + 0,#0x8
   \   00001D   75..00       MOV     ?V0 + 1,#0x0
   \   000020   78..         MOV     R0,#?V0 + 0
   \   000022   12....       LCALL   ?PUSH_XSTACK_I_TWO
   \   000025   7402         MOV     A,#0x2
   \   000027   12....       LCALL   ?XSTACK_DISP0_8
   \   00002A   AC82         MOV     R4,DPL
   \   00002C   AD83         MOV     R5,DPH
   \   00002E   EE           MOV     A,R6
   \   00002F   FA           MOV     R2,A
   \   000030   EF           MOV     A,R7
   \   000031   FB           MOV     R3,A
   \   000032   A9..         MOV     R1,?V0 + 2
   \   000034   12....       LCALL   ??HalFlashRead?relay
   \   000037   7402         MOV     A,#0x2
   \   000039   12....       LCALL   ?DEALLOC_XSTACK8
    683          
    684            if ( stat == eNvXfer )
   \   00003C   E5..         MOV     A,?V0 + 3
   \   00003E   7025         JNZ     ??setItem_0
    685            {
    686              hdr.stat = OSAL_NV_ACTIVE;
   \   000040   7406         MOV     A,#0x6
   \   000042   12....       LCALL   ?XSTACK_DISP0_8
   \   000045   7400         MOV     A,#0x0
   \   000047   F0           MOVX    @DPTR,A
   \   000048   A3           INC     DPTR
   \   000049   7400         MOV     A,#0x0
   \   00004B   F0           MOVX    @DPTR,A
    687              writeWord( pg, offset+OSAL_NV_HDR_CHK, (uint8*)(&(hdr.chk)) );
   \   00004C                ; Setup parameters for call to function writeWord
   \   00004C   7404         MOV     A,#0x4
   \   00004E   12....       LCALL   ?XSTACK_DISP0_8
   \   000051   AC82         MOV     R4,DPL
   \   000053   AD83         MOV     R5,DPH
   \   000055   EE           MOV     A,R6
   \   000056   2404         ADD     A,#0x4
   \   000058   FA           MOV     R2,A
   \   000059   EF           MOV     A,R7
   \   00005A   3400         ADDC    A,#0x0
   \   00005C   FB           MOV     R3,A
   \   00005D   A9..         MOV     R1,?V0 + 2
   \   00005F   12....       LCALL   ??writeWord?relay
   \   000062   02....       LJMP    ??setItem_1 & 0xFFFF
    688          }
    689            else // if ( stat == eNvZero )
    690            {
    691              uint16 sz = ((hdr.len + (OSAL_NV_WORD_SIZE-1)) / OSAL_NV_WORD_SIZE) * OSAL_NV_WORD_SIZE +
    692                                                                                    OSAL_NV_HDR_SIZE;
   \                     ??setItem_0:
   \   000065   7402         MOV     A,#0x2
   \   000067   12....       LCALL   ?XSTACK_DISP0_8
   \   00006A   E0           MOVX    A,@DPTR
   \   00006B   2403         ADD     A,#0x3
   \   00006D   F5..         MOV     ?V0 + 0,A
   \   00006F   A3           INC     DPTR
   \   000070   E0           MOVX    A,@DPTR
   \   000071   3400         ADDC    A,#0x0
   \   000073   F5..         MOV     ?V0 + 1,A
   \   000075   7402         MOV     A,#0x2
   \   000077   78..         MOV     R0,#?V0 + 0
   \   000079   12....       LCALL   ?US_SHR
   \   00007C   E5..         MOV     A,?V0 + 0
   \   00007E   75F004       MOV     B,#0x4
   \   000081   A4           MUL     AB
   \   000082   C5..         XCH     A,?V0 + 0
   \   000084   A8F0         MOV     R0,B
   \   000086   75F000       MOV     B,#0x0
   \   000089   A4           MUL     AB
   \   00008A   28           ADD     A,R0
   \   00008B   F8           MOV     R0,A
   \   00008C   75F004       MOV     B,#0x4
   \   00008F   E5..         MOV     A,?V0 + 1
   \   000091   A4           MUL     AB
   \   000092   28           ADD     A,R0
   \   000093   F5..         MOV     ?V0 + 1,A
   \   000095   E5..         MOV     A,?V0 + 0
   \   000097   2408         ADD     A,#0x8
   \   000099   F5..         MOV     ?V0 + 0,A
   \   00009B   E5..         MOV     A,?V0 + 1
   \   00009D   3400         ADDC    A,#0x0
   \   00009F   F5..         MOV     ?V0 + 1,A
    693              hdr.id = 0;
   \   0000A1   85..82       MOV     DPL,?XSP + 0
   \   0000A4   85..83       MOV     DPH,?XSP + 1
   \   0000A7   7400         MOV     A,#0x0
   \   0000A9   F0           MOVX    @DPTR,A
   \   0000AA   A3           INC     DPTR
   \   0000AB   7400         MOV     A,#0x0
   \   0000AD   F0           MOVX    @DPTR,A
    694              writeWord( pg, offset, (uint8 *)(&hdr) );
   \   0000AE                ; Setup parameters for call to function writeWord
   \   0000AE   85..82       MOV     DPL,?XSP + 0
   \   0000B1   85..83       MOV     DPH,?XSP + 1
   \   0000B4   AC82         MOV     R4,DPL
   \   0000B6   AD83         MOV     R5,DPH
   \   0000B8   EE           MOV     A,R6
   \   0000B9   FA           MOV     R2,A
   \   0000BA   EF           MOV     A,R7
   \   0000BB   FB           MOV     R3,A
   \   0000BC   A9..         MOV     R1,?V0 + 2
   \   0000BE   12....       LCALL   ??writeWord?relay
    695              pgLost[pg-OSAL_NV_PAGE_BEG] += sz;
   \   0000C1   E5..         MOV     A,?V0 + 2
   \   0000C3   A8..         MOV     R0,?V0 + 2
   \   0000C5   7900         MOV     R1,#0x0
   \   0000C7   E8           MOV     A,R0
   \   0000C8   75F002       MOV     B,#0x2
   \   0000CB   A4           MUL     AB
   \   0000CC   C8           XCH     A,R0
   \   0000CD   AAF0         MOV     R2,B
   \   0000CF   75F000       MOV     B,#0x0
   \   0000D2   A4           MUL     AB
   \   0000D3   2A           ADD     A,R2
   \   0000D4   FA           MOV     R2,A
   \   0000D5   75F002       MOV     B,#0x2
   \   0000D8   E9           MOV     A,R1
   \   0000D9   A4           MUL     AB
   \   0000DA   2A           ADD     A,R2
   \   0000DB   F9           MOV     R1,A
   \   0000DC   74..         MOV     A,#(pgLost + 14) & 0xff
   \   0000DE   28           ADD     A,R0
   \   0000DF   F582         MOV     DPL,A
   \   0000E1   74..         MOV     A,#((pgLost - 242) >> 8) & 0xff
   \   0000E3   39           ADDC    A,R1
   \   0000E4   F583         MOV     DPH,A
   \   0000E6   E0           MOVX    A,@DPTR
   \   0000E7   25..         ADD     A,?V0 + 0
   \   0000E9   F0           MOVX    @DPTR,A
   \   0000EA   A3           INC     DPTR
   \   0000EB   E0           MOVX    A,@DPTR
   \   0000EC   35..         ADDC    A,?V0 + 1
   \   0000EE   F0           MOVX    @DPTR,A
    696            }
    697          }
   \                     ??setItem_1:
   \   0000EF   7408         MOV     A,#0x8
   \   0000F1   12....       LCALL   ?DEALLOC_XSTACK8
   \   0000F4   7F04         MOV     R7,#0x4
   \   0000F6   02....       LJMP    ?BANKED_LEAVE_XDATA
    698          
    699          /*********************************************************************
    700           * @fn      calcChkB
    701           *
    702           * @brief   Calculates the data checksum over the 'buf' parameter.
    703           *
    704           * @param   pg - A valid NV Flash page.
    705           * @param   offset - A valid offset into the page.
    706           * @param   len - Byte count of the data to be checksummed.
    707           *
    708           * @return  Calculated checksum of the data bytes.
    709           */

   \                                 In  segment BANKED_CODE, align 1, keep-with-next
    710          static uint16 calcChkB( uint16 len, uint8 *buf )
   \                     calcChkB:
    711          {
   \   000000   74F6         MOV     A,#-0xa
   \   000002   12....       LCALL   ?BANKED_ENTER_XDATA
   \   000005                ; Saved register size: 10
   \   000005                ; Auto size: 0
   \   000005   EA           MOV     A,R2
   \   000006   FE           MOV     R6,A
   \   000007   EB           MOV     A,R3
   \   000008   FF           MOV     R7,A
   \   000009   8C82         MOV     DPL,R4
   \   00000B   8D83         MOV     DPH,R5
    712            uint8 fill = len % OSAL_NV_WORD_SIZE;
   \   00000D   EE           MOV     A,R6
   \   00000E   F8           MOV     R0,A
   \   00000F   EF           MOV     A,R7
   \   000010   F9           MOV     R1,A
   \   000011   7A04         MOV     R2,#0x4
   \   000013   7B00         MOV     R3,#0x0
   \   000015   12....       LCALL   ?US_DIV_MOD
   \   000018   EA           MOV     A,R2
   \   000019   FD           MOV     R5,A
    713            uint16 chk;
    714          
    715            if ( !buf )
   \   00001A   E582         MOV     A,DPL
   \   00001C   4583         ORL     A,DPH
   \   00001E   701F         JNZ     ??calcChkB_0
    716            {
    717              chk = len * OSAL_NV_ERASED;
   \   000020   EE           MOV     A,R6
   \   000021   F8           MOV     R0,A
   \   000022   EF           MOV     A,R7
   \   000023   F9           MOV     R1,A
   \   000024   E8           MOV     A,R0
   \   000025   75F0FF       MOV     B,#-0x1
   \   000028   A4           MUL     AB
   \   000029   C8           XCH     A,R0
   \   00002A   ACF0         MOV     R4,B
   \   00002C   75F000       MOV     B,#0x0
   \   00002F   A4           MUL     AB
   \   000030   2C           ADD     A,R4
   \   000031   FC           MOV     R4,A
   \   000032   75F0FF       MOV     B,#-0x1
   \   000035   E9           MOV     A,R1
   \   000036   A4           MUL     AB
   \   000037   2C           ADD     A,R4
   \   000038   F9           MOV     R1,A
   \   000039   E8           MOV     A,R0
   \   00003A   FA           MOV     R2,A
   \   00003B   E9           MOV     A,R1
   \   00003C   FB           MOV     R3,A
   \   00003D   8021         SJMP    ??calcChkB_1
    718            }
    719            else
    720            {
    721              chk = 0;
   \                     ??calcChkB_0:
   \   00003F   7A00         MOV     R2,#0x0
   \   000041   7B00         MOV     R3,#0x0
    722              while ( len-- )
   \                     ??calcChkB_2:
   \   000043   EE           MOV     A,R6
   \   000044   F8           MOV     R0,A
   \   000045   EF           MOV     A,R7
   \   000046   F9           MOV     R1,A
   \   000047   E8           MOV     A,R0
   \   000048   24FF         ADD     A,#-0x1
   \   00004A   FE           MOV     R6,A
   \   00004B   E9           MOV     A,R1
   \   00004C   34FF         ADDC    A,#-0x1
   \   00004E   FF           MOV     R7,A
   \   00004F   E8           MOV     A,R0
   \   000050   49           ORL     A,R1
   \   000051   600D         JZ      ??calcChkB_1
    723              {
    724                chk += *buf++;
   \   000053   E0           MOVX    A,@DPTR
   \   000054   F8           MOV     R0,A
   \   000055   7900         MOV     R1,#0x0
   \   000057   EA           MOV     A,R2
   \   000058   28           ADD     A,R0
   \   000059   FA           MOV     R2,A
   \   00005A   EB           MOV     A,R3
   \   00005B   39           ADDC    A,R1
   \   00005C   FB           MOV     R3,A
   \   00005D   A3           INC     DPTR
   \   00005E   80E3         SJMP    ??calcChkB_2
    725              }
    726            }
    727          
    728            // calcChkF() will calculate over OSAL_NV_WORD_SIZE alignment.
    729            if ( fill )
   \                     ??calcChkB_1:
   \   000060   ED           MOV     A,R5
   \   000061   602B         JZ      ??calcChkB_3
    730            {
    731              chk += (OSAL_NV_WORD_SIZE - fill) * OSAL_NV_ERASED;
   \   000063   8D..         MOV     ?V0 + 0,R5
   \   000065   75..00       MOV     ?V0 + 1,#0x0
   \   000068   7404         MOV     A,#0x4
   \   00006A   C3           CLR     C
   \   00006B   95..         SUBB    A,?V0 + 0
   \   00006D   F8           MOV     R0,A
   \   00006E   7400         MOV     A,#0x0
   \   000070   95..         SUBB    A,?V0 + 1
   \   000072   F9           MOV     R1,A
   \   000073   E8           MOV     A,R0
   \   000074   75F0FF       MOV     B,#-0x1
   \   000077   A4           MUL     AB
   \   000078   C8           XCH     A,R0
   \   000079   ACF0         MOV     R4,B
   \   00007B   75F000       MOV     B,#0x0
   \   00007E   A4           MUL     AB
   \   00007F   2C           ADD     A,R4
   \   000080   FC           MOV     R4,A
   \   000081   75F0FF       MOV     B,#-0x1
   \   000084   E9           MOV     A,R1
   \   000085   A4           MUL     AB
   \   000086   2C           ADD     A,R4
   \   000087   F9           MOV     R1,A
   \   000088   EA           MOV     A,R2
   \   000089   28           ADD     A,R0
   \   00008A   FA           MOV     R2,A
   \   00008B   EB           MOV     A,R3
   \   00008C   39           ADDC    A,R1
   \   00008D   FB           MOV     R3,A
    732            }
    733          
    734            return chk;
   \                     ??calcChkB_3:
   \   00008E   7F02         MOV     R7,#0x2
   \   000090   02....       LJMP    ?BANKED_LEAVE_XDATA
    735          }
    736          
    737          /*********************************************************************
    738           * @fn      calcChkF
    739           *
    740           * @brief   Calculates the data checksum by reading the data bytes from NV.
    741           *
    742           * @param   pg - A valid NV Flash page.
    743           * @param   offset - A valid offset into the page.
    744           * @param   len - Byte count of the data to be checksummed.
    745           *
    746           * @return  Calculated checksum of the data bytes.
    747           */

   \                                 In  segment BANKED_CODE, align 1, keep-with-next
    748          static uint16 calcChkF( byte pg, uint16 offset, uint16 len )
   \                     calcChkF:
    749          {
   \   000000   74F0         MOV     A,#-0x10
   \   000002   12....       LCALL   ?BANKED_ENTER_XDATA
   \   000005                ; Saved register size: 16
   \   000005                ; Auto size: 4
   \   000005   74FC         MOV     A,#-0x4
   \   000007   12....       LCALL   ?ALLOC_XSTACK8
   \   00000A   89..         MOV     ?V0 + 4,R1
   \   00000C   8A..         MOV     ?V0 + 2,R2
   \   00000E   8B..         MOV     ?V0 + 3,R3
   \   000010   EC           MOV     A,R4
   \   000011   FE           MOV     R6,A
   \   000012   ED           MOV     A,R5
   \   000013   FF           MOV     R7,A
    750            uint16 chk = 0;
   \   000014   75..00       MOV     ?V0 + 0,#0x0
   \   000017   75..00       MOV     ?V0 + 1,#0x0
    751          
    752            len = (len + (OSAL_NV_WORD_SIZE-1)) / OSAL_NV_WORD_SIZE;
   \   00001A   EE           MOV     A,R6
   \   00001B   2403         ADD     A,#0x3
   \   00001D   F5..         MOV     ?V0 + 6,A
   \   00001F   EF           MOV     A,R7
   \   000020   3400         ADDC    A,#0x0
   \   000022   F5..         MOV     ?V0 + 7,A
   \   000024   7402         MOV     A,#0x2
   \   000026   78..         MOV     R0,#?V0 + 6
   \   000028   12....       LCALL   ?US_SHR
   \   00002B   AE..         MOV     R6,?V0 + 6
   \   00002D   AF..         MOV     R7,?V0 + 7
    753          
    754            while ( len-- )
   \                     ??calcChkF_0:
   \   00002F   EE           MOV     A,R6
   \   000030   F8           MOV     R0,A
   \   000031   EF           MOV     A,R7
   \   000032   F9           MOV     R1,A
   \   000033   E8           MOV     A,R0
   \   000034   24FF         ADD     A,#-0x1
   \   000036   FE           MOV     R6,A
   \   000037   E9           MOV     A,R1
   \   000038   34FF         ADDC    A,#-0x1
   \   00003A   FF           MOV     R7,A
   \   00003B   E8           MOV     A,R0
   \   00003C   49           ORL     A,R1
   \   00003D   6062         JZ      ??calcChkF_1
    755            {
    756              uint8 cnt, tmp[OSAL_NV_WORD_SIZE];
    757          
    758              HalFlashRead(pg, offset, tmp, OSAL_NV_WORD_SIZE);
   \   00003F                ; Setup parameters for call to function HalFlashRead
   \   00003F   75..04       MOV     ?V0 + 6,#0x4
   \   000042   75..00       MOV     ?V0 + 7,#0x0
   \   000045   78..         MOV     R0,#?V0 + 6
   \   000047   12....       LCALL   ?PUSH_XSTACK_I_TWO
   \   00004A   7402         MOV     A,#0x2
   \   00004C   12....       LCALL   ?XSTACK_DISP0_8
   \   00004F   AC82         MOV     R4,DPL
   \   000051   AD83         MOV     R5,DPH
   \   000053   AA..         MOV     R2,?V0 + 2
   \   000055   AB..         MOV     R3,?V0 + 3
   \   000057   A9..         MOV     R1,?V0 + 4
   \   000059   12....       LCALL   ??HalFlashRead?relay
   \   00005C   7402         MOV     A,#0x2
   \   00005E   12....       LCALL   ?DEALLOC_XSTACK8
    759              offset += OSAL_NV_WORD_SIZE;
   \   000061   E5..         MOV     A,?V0 + 2
   \   000063   2404         ADD     A,#0x4
   \   000065   F5..         MOV     ?V0 + 2,A
   \   000067   E5..         MOV     A,?V0 + 3
   \   000069   3400         ADDC    A,#0x0
   \   00006B   F5..         MOV     ?V0 + 3,A
    760          
    761              for ( cnt = 0; cnt < OSAL_NV_WORD_SIZE; cnt++ )
   \   00006D   75..00       MOV     ?V0 + 5,#0x0
   \                     ??calcChkF_2:
   \   000070   E5..         MOV     A,?V0 + 5
   \   000072   C3           CLR     C
   \   000073   9404         SUBB    A,#0x4
   \   000075   50B8         JNC     ??calcChkF_0
    762              {
    763                chk += tmp[cnt];
   \   000077   85....       MOV     ?V0 + 6,?V0 + 5
   \   00007A   75..00       MOV     ?V0 + 7,#0x0
   \   00007D   85..82       MOV     DPL,?XSP + 0
   \   000080   85..83       MOV     DPH,?XSP + 1
   \   000083   E582         MOV     A,DPL
   \   000085   25..         ADD     A,?V0 + 6
   \   000087   F582         MOV     DPL,A
   \   000089   E583         MOV     A,DPH
   \   00008B   35..         ADDC    A,?V0 + 7
   \   00008D   F583         MOV     DPH,A
   \   00008F   E0           MOVX    A,@DPTR
   \   000090   F8           MOV     R0,A
   \   000091   7900         MOV     R1,#0x0
   \   000093   E5..         MOV     A,?V0 + 0
   \   000095   28           ADD     A,R0
   \   000096   F5..         MOV     ?V0 + 0,A
   \   000098   E5..         MOV     A,?V0 + 1
   \   00009A   39           ADDC    A,R1
   \   00009B   F5..         MOV     ?V0 + 1,A
    764              }
   \   00009D   05..         INC     ?V0 + 5
   \   00009F   80CF         SJMP    ??calcChkF_2
    765            }
    766          
    767            return chk;
   \                     ??calcChkF_1:
   \   0000A1   AA..         MOV     R2,?V0 + 0
   \   0000A3   AB..         MOV     R3,?V0 + 1
   \   0000A5   7404         MOV     A,#0x4
   \   0000A7   12....       LCALL   ?DEALLOC_XSTACK8
   \   0000AA   7F08         MOV     R7,#0x8
   \   0000AC   02....       LJMP    ?BANKED_LEAVE_XDATA
    768          }
    769          
    770          /*********************************************************************
    771           * @fn      writeWord
    772           *
    773           * @brief   Writes a Flash-WORD to NV.
    774           *
    775           * @param   pg - A valid NV Flash page.
    776           * @param   offset - A valid offset into the page.
    777           * @param   buf - Pointer to source buffer.
    778           *
    779           * @return  none
    780           */

   \                                 In  segment BANKED_CODE, align 1, keep-with-next
    781          static void writeWord( uint8 pg, uint16 offset, uint8 *buf )
   \                     writeWord:
    782          {
   \   000000   74F3         MOV     A,#-0xd
   \   000002   12....       LCALL   ?BANKED_ENTER_XDATA
   \   000005                ; Saved register size: 13
   \   000005                ; Auto size: 0
   \   000005   89..         MOV     ?V0 + 4,R1
   \   000007   8A..         MOV     ?V0 + 2,R2
   \   000009   8B..         MOV     ?V0 + 3,R3
   \   00000B   EC           MOV     A,R4
   \   00000C   FE           MOV     R6,A
   \   00000D   ED           MOV     A,R5
   \   00000E   FF           MOV     R7,A
    783            offset = (offset >> 2) + ((uint16)pg << 9);
   \   00000F   7402         MOV     A,#0x2
   \   000011   78..         MOV     R0,#?V0 + 2
   \   000013   12....       LCALL   ?US_SHR
   \   000016   85....       MOV     ?V0 + 0,?V0 + 4
   \   000019   75..00       MOV     ?V0 + 1,#0x0
   \   00001C   7409         MOV     A,#0x9
   \   00001E   78..         MOV     R0,#?V0 + 0
   \   000020   12....       LCALL   ?S_SHL
   \   000023   E5..         MOV     A,?V0 + 2
   \   000025   25..         ADD     A,?V0 + 0
   \   000027   F5..         MOV     ?V0 + 2,A
   \   000029   E5..         MOV     A,?V0 + 3
   \   00002B   35..         ADDC    A,?V0 + 1
   \   00002D   F5..         MOV     ?V0 + 3,A
    784          
    785            if ( OSAL_NV_CHECK_BUS_VOLTAGE )
   \   00002F                ; Setup parameters for call to function HalAdcCheckVdd
   \   00002F   7904         MOV     R1,#0x4
   \   000031   12....       LCALL   ??HalAdcCheckVdd?relay
   \   000034   E9           MOV     A,R1
   \   000035   601D         JZ      ??writeWord_0
    786            {
    787              HalFlashWrite(offset, buf, 1);
   \   000037                ; Setup parameters for call to function HalFlashWrite
   \   000037   75..01       MOV     ?V0 + 0,#0x1
   \   00003A   75..00       MOV     ?V0 + 1,#0x0
   \   00003D   78..         MOV     R0,#?V0 + 0
   \   00003F   12....       LCALL   ?PUSH_XSTACK_I_TWO
   \   000042   EE           MOV     A,R6
   \   000043   FC           MOV     R4,A
   \   000044   EF           MOV     A,R7
   \   000045   FD           MOV     R5,A
   \   000046   AA..         MOV     R2,?V0 + 2
   \   000048   AB..         MOV     R3,?V0 + 3
   \   00004A   12....       LCALL   ??HalFlashWrite?relay
   \   00004D   7402         MOV     A,#0x2
   \   00004F   12....       LCALL   ?DEALLOC_XSTACK8
   \   000052   8006         SJMP    ??writeWord_1
    788            }
    789            else
    790            {
    791              failF = TRUE;
   \                     ??writeWord_0:
   \   000054   90....       MOV     DPTR,#failF
   \   000057   7401         MOV     A,#0x1
   \   000059   F0           MOVX    @DPTR,A
    792            }
    793          }
   \                     ??writeWord_1:
   \   00005A   7F05         MOV     R7,#0x5
   \   00005C   02....       LJMP    ?BANKED_LEAVE_XDATA
    794          
    795          /*********************************************************************
    796           * @fn      writeWordM
    797           *
    798           * @brief   Writes multiple Flash-WORDs to NV.
    799           *
    800           * @param   pg - A valid NV Flash page.
    801           * @param   offset - A valid offset into the page.
    802           * @param   buf - Pointer to source buffer.
    803           * @param   cnt - Number of 4-byte blocks to write.
    804           *
    805           * @return  none
    806           */

   \                                 In  segment BANKED_CODE, align 1, keep-with-next
    807          static void writeWordM( uint8 pg, uint16 offset, uint8 *buf, uint16 cnt )
   \                     writeWordM:
    808          {
   \   000000   74F1         MOV     A,#-0xf
   \   000002   12....       LCALL   ?BANKED_ENTER_XDATA
   \   000005                ; Saved register size: 15
   \   000005                ; Auto size: 0
   \   000005   89..         MOV     ?V0 + 6,R1
   \   000007   8A..         MOV     ?V0 + 4,R2
   \   000009   8B..         MOV     ?V0 + 5,R3
   \   00000B   EC           MOV     A,R4
   \   00000C   FE           MOV     R6,A
   \   00000D   ED           MOV     A,R5
   \   00000E   FF           MOV     R7,A
   \   00000F   740F         MOV     A,#0xf
   \   000011   12....       LCALL   ?XSTACK_DISP0_8
   \   000014   E0           MOVX    A,@DPTR
   \   000015   F5..         MOV     ?V0 + 0,A
   \   000017   A3           INC     DPTR
   \   000018   E0           MOVX    A,@DPTR
   \   000019   F5..         MOV     ?V0 + 1,A
    809            offset = (offset >> 2) + ((uint16)pg << 9);
   \   00001B   7402         MOV     A,#0x2
   \   00001D   78..         MOV     R0,#?V0 + 4
   \   00001F   12....       LCALL   ?US_SHR
   \   000022   85....       MOV     ?V0 + 2,?V0 + 6
   \   000025   75..00       MOV     ?V0 + 3,#0x0
   \   000028   7409         MOV     A,#0x9
   \   00002A   78..         MOV     R0,#?V0 + 2
   \   00002C   12....       LCALL   ?S_SHL
   \   00002F   E5..         MOV     A,?V0 + 4
   \   000031   25..         ADD     A,?V0 + 2
   \   000033   F5..         MOV     ?V0 + 4,A
   \   000035   E5..         MOV     A,?V0 + 5
   \   000037   35..         ADDC    A,?V0 + 3
   \   000039   F5..         MOV     ?V0 + 5,A
    810          
    811            if ( OSAL_NV_CHECK_BUS_VOLTAGE )
   \   00003B                ; Setup parameters for call to function HalAdcCheckVdd
   \   00003B   7904         MOV     R1,#0x4
   \   00003D   12....       LCALL   ??HalAdcCheckVdd?relay
   \   000040   E9           MOV     A,R1
   \   000041   6017         JZ      ??writeWordM_0
    812            {
    813              HalFlashWrite(offset, buf, cnt);
   \   000043                ; Setup parameters for call to function HalFlashWrite
   \   000043   78..         MOV     R0,#?V0 + 0
   \   000045   12....       LCALL   ?PUSH_XSTACK_I_TWO
   \   000048   EE           MOV     A,R6
   \   000049   FC           MOV     R4,A
   \   00004A   EF           MOV     A,R7
   \   00004B   FD           MOV     R5,A
   \   00004C   AA..         MOV     R2,?V0 + 4
   \   00004E   AB..         MOV     R3,?V0 + 5
   \   000050   12....       LCALL   ??HalFlashWrite?relay
   \   000053   7402         MOV     A,#0x2
   \   000055   12....       LCALL   ?DEALLOC_XSTACK8
   \   000058   8006         SJMP    ??writeWordM_1
    814            }
    815            else
    816            {
    817              failF = TRUE;
   \                     ??writeWordM_0:
   \   00005A   90....       MOV     DPTR,#failF
   \   00005D   7401         MOV     A,#0x1
   \   00005F   F0           MOVX    @DPTR,A
    818            }
    819          }
   \                     ??writeWordM_1:
   \   000060   7F07         MOV     R7,#0x7
   \   000062   02....       LJMP    ?BANKED_LEAVE_XDATA
    820          
    821          /*********************************************************************
    822           * @fn      writeWordH
    823           *
    824           * @brief   Writes the 1st half of a Flash-WORD to NV (filling 2nd half with 0xffff).
    825           *
    826           * @param   pg - A valid NV Flash page.
    827           * @param   offset - A valid offset into the page.
    828           * @param   buf - Pointer to source buffer.
    829           *
    830           * @return  none
    831           */

   \                                 In  segment BANKED_CODE, align 1, keep-with-next
    832          static void writeWordH( uint8 pg, uint16 offset, uint8 *buf )
   \                     writeWordH:
    833          {
   \   000000   74F5         MOV     A,#-0xb
   \   000002   12....       LCALL   ?BANKED_ENTER_XDATA
   \   000005                ; Saved register size: 11
   \   000005                ; Auto size: 4
   \   000005   74FC         MOV     A,#-0x4
   \   000007   12....       LCALL   ?ALLOC_XSTACK8
   \   00000A   89..         MOV     ?V0 + 2,R1
   \   00000C   EA           MOV     A,R2
   \   00000D   FE           MOV     R6,A
   \   00000E   EB           MOV     A,R3
   \   00000F   FF           MOV     R7,A
   \   000010   8C..         MOV     ?V0 + 0,R4
   \   000012   8D..         MOV     ?V0 + 1,R5
    834            uint8 tmp[4];
    835          
    836            tmp[0] = buf[0];
   \   000014   85..82       MOV     DPL,?V0 + 0
   \   000017   85..83       MOV     DPH,?V0 + 1
   \   00001A   E0           MOVX    A,@DPTR
   \   00001B   85..82       MOV     DPL,?XSP + 0
   \   00001E   85..83       MOV     DPH,?XSP + 1
   \   000021   F0           MOVX    @DPTR,A
    837            tmp[1] = buf[1];
   \   000022   85..82       MOV     DPL,?V0 + 0
   \   000025   85..83       MOV     DPH,?V0 + 1
   \   000028   A3           INC     DPTR
   \   000029   E0           MOVX    A,@DPTR
   \   00002A   C0E0         PUSH    A
   \   00002C   7401         MOV     A,#0x1
   \   00002E   12....       LCALL   ?XSTACK_DISP0_8
   \   000031   D0E0         POP     A
   \   000033   F0           MOVX    @DPTR,A
    838            tmp[2] = OSAL_NV_ERASED;
   \   000034   7402         MOV     A,#0x2
   \   000036   12....       LCALL   ?XSTACK_DISP0_8
   \   000039   74FF         MOV     A,#-0x1
   \   00003B   F0           MOVX    @DPTR,A
    839            tmp[3] = OSAL_NV_ERASED;
   \   00003C   7403         MOV     A,#0x3
   \   00003E   12....       LCALL   ?XSTACK_DISP0_8
   \   000041   74FF         MOV     A,#-0x1
   \   000043   F0           MOVX    @DPTR,A
    840          
    841            writeWord( pg, offset, tmp );
   \   000044                ; Setup parameters for call to function writeWord
   \   000044   85..82       MOV     DPL,?XSP + 0
   \   000047   85..83       MOV     DPH,?XSP + 1
   \   00004A   AC82         MOV     R4,DPL
   \   00004C   AD83         MOV     R5,DPH
   \   00004E   EE           MOV     A,R6
   \   00004F   FA           MOV     R2,A
   \   000050   EF           MOV     A,R7
   \   000051   FB           MOV     R3,A
   \   000052   A9..         MOV     R1,?V0 + 2
   \   000054   12....       LCALL   ??writeWord?relay
    842          }
   \   000057   7404         MOV     A,#0x4
   \   000059   12....       LCALL   ?DEALLOC_XSTACK8
   \   00005C   7F03         MOV     R7,#0x3
   \   00005E   02....       LJMP    ?BANKED_LEAVE_XDATA
    843          
    844          /*********************************************************************
    845           * @fn      writeBuf
    846           *
    847           * @brief   Writes a data buffer to NV.
    848           *
    849           * @param   dstPg - A valid NV Flash page.
    850           * @param   offset - A valid offset into the page.
    851           * @param   len  - Byte count of the data to write.
    852           * @param   buf  - The data to write.
    853           *
    854           * @return  TRUE if data buf checksum matches read back checksum, else FALSE.
    855           */

   \                                 In  segment BANKED_CODE, align 1, keep-with-next
    856          static void writeBuf( uint8 dstPg, uint16 dstOff, uint16 len, uint8 *buf )
   \                     writeBuf:
    857          {
   \   000000   74EE         MOV     A,#-0x12
   \   000002   12....       LCALL   ?BANKED_ENTER_XDATA
   \   000005                ; Saved register size: 18
   \   000005                ; Auto size: 4
   \   000005   74FC         MOV     A,#-0x4
   \   000007   12....       LCALL   ?ALLOC_XSTACK8
   \   00000A   E9           MOV     A,R1
   \   00000B   FF           MOV     R7,A
   \   00000C   8A..         MOV     ?V0 + 4,R2
   \   00000E   8B..         MOV     ?V0 + 5,R3
   \   000010   8C..         MOV     ?V0 + 6,R4
   \   000012   8D..         MOV     ?V0 + 7,R5
   \   000014   7416         MOV     A,#0x16
   \   000016   12....       LCALL   ?XSTACK_DISP0_8
   \   000019   E0           MOVX    A,@DPTR
   \   00001A   F5..         MOV     ?V0 + 0,A
   \   00001C   A3           INC     DPTR
   \   00001D   E0           MOVX    A,@DPTR
   \   00001E   F5..         MOV     ?V0 + 1,A
    858            uint8 rem = dstOff % OSAL_NV_WORD_SIZE;
   \   000020   A8..         MOV     R0,?V0 + 4
   \   000022   A9..         MOV     R1,?V0 + 5
   \   000024   7A04         MOV     R2,#0x4
   \   000026   7B00         MOV     R3,#0x0
   \   000028   12....       LCALL   ?US_DIV_MOD
   \   00002B   EA           MOV     A,R2
   \   00002C   FE           MOV     R6,A
    859            uint8 tmp[OSAL_NV_WORD_SIZE];
    860          
    861            if ( rem )
   \   00002D   EE           MOV     A,R6
   \   00002E   7003         JNZ     $+5
   \   000030   02....       LJMP    ??writeBuf_0 & 0xFFFF
    862            {
    863              dstOff = (dstOff / OSAL_NV_WORD_SIZE) * OSAL_NV_WORD_SIZE;
   \   000033   7402         MOV     A,#0x2
   \   000035   78..         MOV     R0,#?V0 + 4
   \   000037   12....       LCALL   ?US_SHR
   \   00003A   E5..         MOV     A,?V0 + 4
   \   00003C   75F004       MOV     B,#0x4
   \   00003F   A4           MUL     AB
   \   000040   C5..         XCH     A,?V0 + 4
   \   000042   A8F0         MOV     R0,B
   \   000044   75F000       MOV     B,#0x0
   \   000047   A4           MUL     AB
   \   000048   28           ADD     A,R0
   \   000049   F8           MOV     R0,A
   \   00004A   75F004       MOV     B,#0x4
   \   00004D   E5..         MOV     A,?V0 + 5
   \   00004F   A4           MUL     AB
   \   000050   28           ADD     A,R0
   \   000051   F5..         MOV     ?V0 + 5,A
    864              HalFlashRead(dstPg, dstOff, tmp, OSAL_NV_WORD_SIZE);
   \   000053                ; Setup parameters for call to function HalFlashRead
   \   000053   75..04       MOV     ?V0 + 2,#0x4
   \   000056   75..00       MOV     ?V0 + 3,#0x0
   \   000059   78..         MOV     R0,#?V0 + 2
   \   00005B   12....       LCALL   ?PUSH_XSTACK_I_TWO
   \   00005E   7402         MOV     A,#0x2
   \   000060   12....       LCALL   ?XSTACK_DISP0_8
   \   000063   AC82         MOV     R4,DPL
   \   000065   AD83         MOV     R5,DPH
   \   000067   AA..         MOV     R2,?V0 + 4
   \   000069   AB..         MOV     R3,?V0 + 5
   \   00006B   EF           MOV     A,R7
   \   00006C   F9           MOV     R1,A
   \   00006D   12....       LCALL   ??HalFlashRead?relay
   \   000070   7402         MOV     A,#0x2
   \   000072   12....       LCALL   ?DEALLOC_XSTACK8
    865          
    866              while ( (rem < OSAL_NV_WORD_SIZE) && len )
   \                     ??writeBuf_1:
   \   000075   EE           MOV     A,R6
   \   000076   C3           CLR     C
   \   000077   9404         SUBB    A,#0x4
   \   000079   5045         JNC     ??writeBuf_2
   \   00007B   E5..         MOV     A,?V0 + 6
   \   00007D   45..         ORL     A,?V0 + 7
   \   00007F   603F         JZ      ??writeBuf_2
    867              {
    868                tmp[rem++] = *buf++;
   \   000081   85..82       MOV     DPL,?V0 + 0
   \   000084   85..83       MOV     DPH,?V0 + 1
   \   000087   E0           MOVX    A,@DPTR
   \   000088   C0E0         PUSH    A
   \   00008A   8E..         MOV     ?V0 + 2,R6
   \   00008C   75..00       MOV     ?V0 + 3,#0x0
   \   00008F   85..82       MOV     DPL,?XSP + 0
   \   000092   85..83       MOV     DPH,?XSP + 1
   \   000095   E582         MOV     A,DPL
   \   000097   25..         ADD     A,?V0 + 2
   \   000099   F582         MOV     DPL,A
   \   00009B   E583         MOV     A,DPH
   \   00009D   35..         ADDC    A,?V0 + 3
   \   00009F   F583         MOV     DPH,A
   \   0000A1   D0E0         POP     A
   \   0000A3   F0           MOVX    @DPTR,A
   \   0000A4   85..82       MOV     DPL,?V0 + 0
   \   0000A7   85..83       MOV     DPH,?V0 + 1
   \   0000AA   A3           INC     DPTR
   \   0000AB   8582..       MOV     ?V0 + 0,DPL
   \   0000AE   8583..       MOV     ?V0 + 1,DPH
   \   0000B1   0E           INC     R6
    869                len--;
   \   0000B2   E5..         MOV     A,?V0 + 6
   \   0000B4   24FF         ADD     A,#-0x1
   \   0000B6   F5..         MOV     ?V0 + 6,A
   \   0000B8   E5..         MOV     A,?V0 + 7
   \   0000BA   34FF         ADDC    A,#-0x1
   \   0000BC   F5..         MOV     ?V0 + 7,A
   \   0000BE   80B5         SJMP    ??writeBuf_1
    870              }
    871          
    872              writeWord( dstPg, dstOff, tmp );
   \                     ??writeBuf_2:
   \   0000C0                ; Setup parameters for call to function writeWord
   \   0000C0   85..82       MOV     DPL,?XSP + 0
   \   0000C3   85..83       MOV     DPH,?XSP + 1
   \   0000C6   AC82         MOV     R4,DPL
   \   0000C8   AD83         MOV     R5,DPH
   \   0000CA   AA..         MOV     R2,?V0 + 4
   \   0000CC   AB..         MOV     R3,?V0 + 5
   \   0000CE   EF           MOV     A,R7
   \   0000CF   F9           MOV     R1,A
   \   0000D0   12....       LCALL   ??writeWord?relay
    873              dstOff += OSAL_NV_WORD_SIZE;
   \   0000D3   E5..         MOV     A,?V0 + 4
   \   0000D5   2404         ADD     A,#0x4
   \   0000D7   F5..         MOV     ?V0 + 4,A
   \   0000D9   E5..         MOV     A,?V0 + 5
   \   0000DB   3400         ADDC    A,#0x0
   \   0000DD   F5..         MOV     ?V0 + 5,A
    874            }
    875          
    876            rem = len % OSAL_NV_WORD_SIZE;
   \                     ??writeBuf_0:
   \   0000DF   A8..         MOV     R0,?V0 + 6
   \   0000E1   A9..         MOV     R1,?V0 + 7
   \   0000E3   7A04         MOV     R2,#0x4
   \   0000E5   7B00         MOV     R3,#0x0
   \   0000E7   12....       LCALL   ?US_DIV_MOD
   \   0000EA   EA           MOV     A,R2
   \   0000EB   FE           MOV     R6,A
    877            len /= OSAL_NV_WORD_SIZE;
   \   0000EC   85....       MOV     ?V0 + 2,?V0 + 6
   \   0000EF   85....       MOV     ?V0 + 3,?V0 + 7
   \   0000F2   7402         MOV     A,#0x2
   \   0000F4   78..         MOV     R0,#?V0 + 2
   \   0000F6   12....       LCALL   ?US_SHR
   \   0000F9   85....       MOV     ?V0 + 6,?V0 + 2
   \   0000FC   85....       MOV     ?V0 + 7,?V0 + 3
    878          
    879            if ( len )
   \   0000FF   E5..         MOV     A,?V0 + 6
   \   000101   45..         ORL     A,?V0 + 7
   \   000103   605F         JZ      ??writeBuf_3
    880            {
    881              writeWordM( dstPg, dstOff, buf, len );
   \   000105                ; Setup parameters for call to function writeWordM
   \   000105   78..         MOV     R0,#?V0 + 6
   \   000107   12....       LCALL   ?PUSH_XSTACK_I_TWO
   \   00010A   AC..         MOV     R4,?V0 + 0
   \   00010C   AD..         MOV     R5,?V0 + 1
   \   00010E   AA..         MOV     R2,?V0 + 4
   \   000110   AB..         MOV     R3,?V0 + 5
   \   000112   EF           MOV     A,R7
   \   000113   F9           MOV     R1,A
   \   000114   12....       LCALL   ??writeWordM?relay
   \   000117   7402         MOV     A,#0x2
   \   000119   12....       LCALL   ?DEALLOC_XSTACK8
    882              dstOff += OSAL_NV_WORD_SIZE * len;
   \   00011C   A8..         MOV     R0,?V0 + 6
   \   00011E   A9..         MOV     R1,?V0 + 7
   \   000120   E8           MOV     A,R0
   \   000121   75F004       MOV     B,#0x4
   \   000124   A4           MUL     AB
   \   000125   C8           XCH     A,R0
   \   000126   AAF0         MOV     R2,B
   \   000128   75F000       MOV     B,#0x0
   \   00012B   A4           MUL     AB
   \   00012C   2A           ADD     A,R2
   \   00012D   FA           MOV     R2,A
   \   00012E   75F004       MOV     B,#0x4
   \   000131   E5..         MOV     A,?V0 + 7
   \   000133   A4           MUL     AB
   \   000134   2A           ADD     A,R2
   \   000135   F9           MOV     R1,A
   \   000136   E5..         MOV     A,?V0 + 4
   \   000138   28           ADD     A,R0
   \   000139   F5..         MOV     ?V0 + 4,A
   \   00013B   E5..         MOV     A,?V0 + 5
   \   00013D   39           ADDC    A,R1
   \   00013E   F5..         MOV     ?V0 + 5,A
    883              buf += OSAL_NV_WORD_SIZE * len;
   \   000140   A8..         MOV     R0,?V0 + 6
   \   000142   A9..         MOV     R1,?V0 + 7
   \   000144   E8           MOV     A,R0
   \   000145   75F004       MOV     B,#0x4
   \   000148   A4           MUL     AB
   \   000149   C8           XCH     A,R0
   \   00014A   AAF0         MOV     R2,B
   \   00014C   75F000       MOV     B,#0x0
   \   00014F   A4           MUL     AB
   \   000150   2A           ADD     A,R2
   \   000151   FA           MOV     R2,A
   \   000152   75F004       MOV     B,#0x4
   \   000155   E5..         MOV     A,?V0 + 7
   \   000157   A4           MUL     AB
   \   000158   2A           ADD     A,R2
   \   000159   F9           MOV     R1,A
   \   00015A   E5..         MOV     A,?V0 + 0
   \   00015C   28           ADD     A,R0
   \   00015D   F5..         MOV     ?V0 + 0,A
   \   00015F   E5..         MOV     A,?V0 + 1
   \   000161   39           ADDC    A,R1
   \   000162   F5..         MOV     ?V0 + 1,A
    884            }
    885          
    886            if ( rem )
   \                     ??writeBuf_3:
   \   000164   EE           MOV     A,R6
   \   000165   6078         JZ      ??writeBuf_4
    887            {
    888              uint8 idx = 0;
   \   000167   75..00       MOV     ?V0 + 2,#0x0
    889              HalFlashRead(dstPg, dstOff, tmp, OSAL_NV_WORD_SIZE);
   \   00016A                ; Setup parameters for call to function HalFlashRead
   \   00016A   75..04       MOV     ?V0 + 8,#0x4
   \   00016D   75..00       MOV     ?V0 + 9,#0x0
   \   000170   78..         MOV     R0,#?V0 + 8
   \   000172   12....       LCALL   ?PUSH_XSTACK_I_TWO
   \   000175   7402         MOV     A,#0x2
   \   000177   12....       LCALL   ?XSTACK_DISP0_8
   \   00017A   AC82         MOV     R4,DPL
   \   00017C   AD83         MOV     R5,DPH
   \   00017E   AA..         MOV     R2,?V0 + 4
   \   000180   AB..         MOV     R3,?V0 + 5
   \   000182   EF           MOV     A,R7
   \   000183   F9           MOV     R1,A
   \   000184   12....       LCALL   ??HalFlashRead?relay
   \   000187   7402         MOV     A,#0x2
   \   000189   12....       LCALL   ?DEALLOC_XSTACK8
    890              while ( rem-- )
   \                     ??writeBuf_5:
   \   00018C   8E..         MOV     ?V0 + 3,R6
   \   00018E   74FF         MOV     A,#-0x1
   \   000190   25..         ADD     A,?V0 + 3
   \   000192   FE           MOV     R6,A
   \   000193   E5..         MOV     A,?V0 + 3
   \   000195   6035         JZ      ??writeBuf_6
    891              {
    892                tmp[idx++] = *buf++;
   \   000197   85..82       MOV     DPL,?V0 + 0
   \   00019A   85..83       MOV     DPH,?V0 + 1
   \   00019D   E0           MOVX    A,@DPTR
   \   00019E   C0E0         PUSH    A
   \   0001A0   85....       MOV     ?V0 + 8,?V0 + 2
   \   0001A3   75..00       MOV     ?V0 + 9,#0x0
   \   0001A6   85..82       MOV     DPL,?XSP + 0
   \   0001A9   85..83       MOV     DPH,?XSP + 1
   \   0001AC   E582         MOV     A,DPL
   \   0001AE   25..         ADD     A,?V0 + 8
   \   0001B0   F582         MOV     DPL,A
   \   0001B2   E583         MOV     A,DPH
   \   0001B4   35..         ADDC    A,?V0 + 9
   \   0001B6   F583         MOV     DPH,A
   \   0001B8   D0E0         POP     A
   \   0001BA   F0           MOVX    @DPTR,A
   \   0001BB   85..82       MOV     DPL,?V0 + 0
   \   0001BE   85..83       MOV     DPH,?V0 + 1
   \   0001C1   A3           INC     DPTR
   \   0001C2   8582..       MOV     ?V0 + 0,DPL
   \   0001C5   8583..       MOV     ?V0 + 1,DPH
   \   0001C8   05..         INC     ?V0 + 2
   \   0001CA   80C0         SJMP    ??writeBuf_5
    893              }
    894              writeWord( dstPg, dstOff, tmp );
   \                     ??writeBuf_6:
   \   0001CC                ; Setup parameters for call to function writeWord
   \   0001CC   85..82       MOV     DPL,?XSP + 0
   \   0001CF   85..83       MOV     DPH,?XSP + 1
   \   0001D2   AC82         MOV     R4,DPL
   \   0001D4   AD83         MOV     R5,DPH
   \   0001D6   AA..         MOV     R2,?V0 + 4
   \   0001D8   AB..         MOV     R3,?V0 + 5
   \   0001DA   EF           MOV     A,R7
   \   0001DB   F9           MOV     R1,A
   \   0001DC   12....       LCALL   ??writeWord?relay
    895            }
    896          }
   \                     ??writeBuf_4:
   \   0001DF   7404         MOV     A,#0x4
   \   0001E1   12....       LCALL   ?DEALLOC_XSTACK8
   \   0001E4   7F0A         MOV     R7,#0xa
   \   0001E6   02....       LJMP    ?BANKED_LEAVE_XDATA
    897          
    898          /*********************************************************************
    899           * @fn      xferBuf
    900           *
    901           * @brief   Xfers an NV buffer from one location to another, enforcing OSAL_NV_WORD_SIZE writes.
    902           *
    903           * @return  none
    904           */

   \                                 In  segment BANKED_CODE, align 1, keep-with-next
    905          static void xferBuf( uint8 srcPg, uint16 srcOff, uint8 dstPg, uint16 dstOff, uint16 len )
   \                     xferBuf:
    906          {
   \   000000   74ED         MOV     A,#-0x13
   \   000002   12....       LCALL   ?BANKED_ENTER_XDATA
   \   000005                ; Saved register size: 19
   \   000005                ; Auto size: 4
   \   000005   74FC         MOV     A,#-0x4
   \   000007   12....       LCALL   ?ALLOC_XSTACK8
   \   00000A   89..         MOV     ?V0 + 10,R1
   \   00000C   8A..         MOV     ?V0 + 4,R2
   \   00000E   8B..         MOV     ?V0 + 5,R3
   \   000010   8C..         MOV     ?V0 + 7,R4
   \   000012   7417         MOV     A,#0x17
   \   000014   12....       LCALL   ?XSTACK_DISP0_8
   \   000017   E0           MOVX    A,@DPTR
   \   000018   F5..         MOV     ?V0 + 0,A
   \   00001A   A3           INC     DPTR
   \   00001B   E0           MOVX    A,@DPTR
   \   00001C   F5..         MOV     ?V0 + 1,A
   \   00001E   7419         MOV     A,#0x19
   \   000020   12....       LCALL   ?XSTACK_DISP0_8
   \   000023   E0           MOVX    A,@DPTR
   \   000024   FE           MOV     R6,A
   \   000025   A3           INC     DPTR
   \   000026   E0           MOVX    A,@DPTR
   \   000027   FF           MOV     R7,A
    907            uint8 rem = dstOff % OSAL_NV_WORD_SIZE;
   \   000028   A8..         MOV     R0,?V0 + 0
   \   00002A   A9..         MOV     R1,?V0 + 1
   \   00002C   7A04         MOV     R2,#0x4
   \   00002E   7B00         MOV     R3,#0x0
   \   000030   12....       LCALL   ?US_DIV_MOD
   \   000033   EA           MOV     A,R2
   \   000034   F5..         MOV     ?V0 + 2,A
    908            uint8 tmp[OSAL_NV_WORD_SIZE];
    909          
    910            if ( rem )
   \   000036   E5..         MOV     A,?V0 + 2
   \   000038   7003         JNZ     $+5
   \   00003A   02....       LJMP    ??xferBuf_0 & 0xFFFF
    911            {
    912              dstOff -= rem;
   \   00003D   85....       MOV     ?V0 + 8,?V0 + 2
   \   000040   75..00       MOV     ?V0 + 9,#0x0
   \   000043   C3           CLR     C
   \   000044   E5..         MOV     A,?V0 + 0
   \   000046   95..         SUBB    A,?V0 + 8
   \   000048   F5..         MOV     ?V0 + 0,A
   \   00004A   E5..         MOV     A,?V0 + 1
   \   00004C   95..         SUBB    A,?V0 + 9
   \   00004E   F5..         MOV     ?V0 + 1,A
    913              HalFlashRead(dstPg, dstOff, tmp, OSAL_NV_WORD_SIZE);
   \   000050                ; Setup parameters for call to function HalFlashRead
   \   000050   75..04       MOV     ?V0 + 8,#0x4
   \   000053   75..00       MOV     ?V0 + 9,#0x0
   \   000056   78..         MOV     R0,#?V0 + 8
   \   000058   12....       LCALL   ?PUSH_XSTACK_I_TWO
   \   00005B   7402         MOV     A,#0x2
   \   00005D   12....       LCALL   ?XSTACK_DISP0_8
   \   000060   AC82         MOV     R4,DPL
   \   000062   AD83         MOV     R5,DPH
   \   000064   AA..         MOV     R2,?V0 + 0
   \   000066   AB..         MOV     R3,?V0 + 1
   \   000068   A9..         MOV     R1,?V0 + 7
   \   00006A   12....       LCALL   ??HalFlashRead?relay
   \   00006D   7402         MOV     A,#0x2
   \   00006F   12....       LCALL   ?DEALLOC_XSTACK8
    914          
    915              while ( (rem < OSAL_NV_WORD_SIZE) && len )
   \                     ??xferBuf_1:
   \   000072   E5..         MOV     A,?V0 + 2
   \   000074   C3           CLR     C
   \   000075   9404         SUBB    A,#0x4
   \   000077   504A         JNC     ??xferBuf_2
   \   000079   EE           MOV     A,R6
   \   00007A   4F           ORL     A,R7
   \   00007B   6046         JZ      ??xferBuf_2
    916              {
    917                HalFlashRead(srcPg, srcOff, tmp+rem, 1);
   \   00007D                ; Setup parameters for call to function HalFlashRead
   \   00007D   75..01       MOV     ?V0 + 8,#0x1
   \   000080   75..00       MOV     ?V0 + 9,#0x0
   \   000083   78..         MOV     R0,#?V0 + 8
   \   000085   12....       LCALL   ?PUSH_XSTACK_I_TWO
   \   000088   85....       MOV     ?V0 + 8,?V0 + 2
   \   00008B   75..00       MOV     ?V0 + 9,#0x0
   \   00008E   7402         MOV     A,#0x2
   \   000090   12....       LCALL   ?XSTACK_DISP0_8
   \   000093   E582         MOV     A,DPL
   \   000095   25..         ADD     A,?V0 + 8
   \   000097   FC           MOV     R4,A
   \   000098   E583         MOV     A,DPH
   \   00009A   35..         ADDC    A,?V0 + 9
   \   00009C   FD           MOV     R5,A
   \   00009D   AA..         MOV     R2,?V0 + 4
   \   00009F   AB..         MOV     R3,?V0 + 5
   \   0000A1   A9..         MOV     R1,?V0 + 10
   \   0000A3   12....       LCALL   ??HalFlashRead?relay
   \   0000A6   7402         MOV     A,#0x2
   \   0000A8   12....       LCALL   ?DEALLOC_XSTACK8
    918                srcOff++;
   \   0000AB   E5..         MOV     A,?V0 + 4
   \   0000AD   2401         ADD     A,#0x1
   \   0000AF   F5..         MOV     ?V0 + 4,A
   \   0000B1   E5..         MOV     A,?V0 + 5
   \   0000B3   3400         ADDC    A,#0x0
   \   0000B5   F5..         MOV     ?V0 + 5,A
    919                rem++;
   \   0000B7   05..         INC     ?V0 + 2
    920                len--;
   \   0000B9   EE           MOV     A,R6
   \   0000BA   24FF         ADD     A,#-0x1
   \   0000BC   FE           MOV     R6,A
   \   0000BD   EF           MOV     A,R7
   \   0000BE   34FF         ADDC    A,#-0x1
   \   0000C0   FF           MOV     R7,A
   \   0000C1   80AF         SJMP    ??xferBuf_1
    921              }
    922          
    923              writeWord( dstPg, dstOff, tmp );
   \                     ??xferBuf_2:
   \   0000C3                ; Setup parameters for call to function writeWord
   \   0000C3   85..82       MOV     DPL,?XSP + 0
   \   0000C6   85..83       MOV     DPH,?XSP + 1
   \   0000C9   AC82         MOV     R4,DPL
   \   0000CB   AD83         MOV     R5,DPH
   \   0000CD   AA..         MOV     R2,?V0 + 0
   \   0000CF   AB..         MOV     R3,?V0 + 1
   \   0000D1   A9..         MOV     R1,?V0 + 7
   \   0000D3   12....       LCALL   ??writeWord?relay
    924              dstOff += OSAL_NV_WORD_SIZE;
   \   0000D6   E5..         MOV     A,?V0 + 0
   \   0000D8   2404         ADD     A,#0x4
   \   0000DA   F5..         MOV     ?V0 + 0,A
   \   0000DC   E5..         MOV     A,?V0 + 1
   \   0000DE   3400         ADDC    A,#0x0
   \   0000E0   F5..         MOV     ?V0 + 1,A
    925            }
    926          
    927            rem = len % OSAL_NV_WORD_SIZE;
   \                     ??xferBuf_0:
   \   0000E2   EE           MOV     A,R6
   \   0000E3   F8           MOV     R0,A
   \   0000E4   EF           MOV     A,R7
   \   0000E5   F9           MOV     R1,A
   \   0000E6   7A04         MOV     R2,#0x4
   \   0000E8   7B00         MOV     R3,#0x0
   \   0000EA   12....       LCALL   ?US_DIV_MOD
   \   0000ED   EA           MOV     A,R2
   \   0000EE   F5..         MOV     ?V0 + 2,A
    928            len /= OSAL_NV_WORD_SIZE;
   \   0000F0   8E..         MOV     ?V0 + 8,R6
   \   0000F2   8F..         MOV     ?V0 + 9,R7
   \   0000F4   7402         MOV     A,#0x2
   \   0000F6   78..         MOV     R0,#?V0 + 8
   \   0000F8   12....       LCALL   ?US_SHR
   \   0000FB   AE..         MOV     R6,?V0 + 8
   \   0000FD   AF..         MOV     R7,?V0 + 9
    929          
    930            while ( len-- )
   \                     ??xferBuf_3:
   \   0000FF   EE           MOV     A,R6
   \   000100   F8           MOV     R0,A
   \   000101   EF           MOV     A,R7
   \   000102   F9           MOV     R1,A
   \   000103   E8           MOV     A,R0
   \   000104   24FF         ADD     A,#-0x1
   \   000106   FE           MOV     R6,A
   \   000107   E9           MOV     A,R1
   \   000108   34FF         ADDC    A,#-0x1
   \   00010A   FF           MOV     R7,A
   \   00010B   E8           MOV     A,R0
   \   00010C   49           ORL     A,R1
   \   00010D   604F         JZ      ??xferBuf_4
    931            {
    932              HalFlashRead(srcPg, srcOff, tmp, OSAL_NV_WORD_SIZE);
   \   00010F                ; Setup parameters for call to function HalFlashRead
   \   00010F   75..04       MOV     ?V0 + 8,#0x4
   \   000112   75..00       MOV     ?V0 + 9,#0x0
   \   000115   78..         MOV     R0,#?V0 + 8
   \   000117   12....       LCALL   ?PUSH_XSTACK_I_TWO
   \   00011A   7402         MOV     A,#0x2
   \   00011C   12....       LCALL   ?XSTACK_DISP0_8
   \   00011F   AC82         MOV     R4,DPL
   \   000121   AD83         MOV     R5,DPH
   \   000123   AA..         MOV     R2,?V0 + 4
   \   000125   AB..         MOV     R3,?V0 + 5
   \   000127   A9..         MOV     R1,?V0 + 10
   \   000129   12....       LCALL   ??HalFlashRead?relay
   \   00012C   7402         MOV     A,#0x2
   \   00012E   12....       LCALL   ?DEALLOC_XSTACK8
    933              srcOff += OSAL_NV_WORD_SIZE;
   \   000131   E5..         MOV     A,?V0 + 4
   \   000133   2404         ADD     A,#0x4
   \   000135   F5..         MOV     ?V0 + 4,A
   \   000137   E5..         MOV     A,?V0 + 5
   \   000139   3400         ADDC    A,#0x0
   \   00013B   F5..         MOV     ?V0 + 5,A
    934              writeWord( dstPg, dstOff, tmp );
   \   00013D                ; Setup parameters for call to function writeWord
   \   00013D   85..82       MOV     DPL,?XSP + 0
   \   000140   85..83       MOV     DPH,?XSP + 1
   \   000143   AC82         MOV     R4,DPL
   \   000145   AD83         MOV     R5,DPH
   \   000147   AA..         MOV     R2,?V0 + 0
   \   000149   AB..         MOV     R3,?V0 + 1
   \   00014B   A9..         MOV     R1,?V0 + 7
   \   00014D   12....       LCALL   ??writeWord?relay
    935              dstOff += OSAL_NV_WORD_SIZE;
   \   000150   E5..         MOV     A,?V0 + 0
   \   000152   2404         ADD     A,#0x4
   \   000154   F5..         MOV     ?V0 + 0,A
   \   000156   E5..         MOV     A,?V0 + 1
   \   000158   3400         ADDC    A,#0x0
   \   00015A   F5..         MOV     ?V0 + 1,A
   \   00015C   80A1         SJMP    ??xferBuf_3
    936            }
    937          
    938            if ( rem )
   \                     ??xferBuf_4:
   \   00015E   E5..         MOV     A,?V0 + 2
   \   000160   7003         JNZ     $+5
   \   000162   02....       LJMP    ??xferBuf_5 & 0xFFFF
    939            {
    940              uint8 idx = 0;
   \   000165   75..00       MOV     ?V0 + 3,#0x0
    941              HalFlashRead(dstPg, dstOff, tmp, OSAL_NV_WORD_SIZE);
   \   000168                ; Setup parameters for call to function HalFlashRead
   \   000168   75..04       MOV     ?V0 + 8,#0x4
   \   00016B   75..00       MOV     ?V0 + 9,#0x0
   \   00016E   78..         MOV     R0,#?V0 + 8
   \   000170   12....       LCALL   ?PUSH_XSTACK_I_TWO
   \   000173   7402         MOV     A,#0x2
   \   000175   12....       LCALL   ?XSTACK_DISP0_8
   \   000178   AC82         MOV     R4,DPL
   \   00017A   AD83         MOV     R5,DPH
   \   00017C   AA..         MOV     R2,?V0 + 0
   \   00017E   AB..         MOV     R3,?V0 + 1
   \   000180   A9..         MOV     R1,?V0 + 7
   \   000182   12....       LCALL   ??HalFlashRead?relay
   \   000185   7402         MOV     A,#0x2
   \   000187   12....       LCALL   ?DEALLOC_XSTACK8
    942              while ( rem-- )
   \                     ??xferBuf_6:
   \   00018A   85....       MOV     ?V0 + 6,?V0 + 2
   \   00018D   74FF         MOV     A,#-0x1
   \   00018F   25..         ADD     A,?V0 + 6
   \   000191   F5..         MOV     ?V0 + 2,A
   \   000193   E5..         MOV     A,?V0 + 6
   \   000195   603E         JZ      ??xferBuf_7
    943              {
    944                HalFlashRead(srcPg, srcOff, tmp+idx, 1);
   \   000197                ; Setup parameters for call to function HalFlashRead
   \   000197   75..01       MOV     ?V0 + 8,#0x1
   \   00019A   75..00       MOV     ?V0 + 9,#0x0
   \   00019D   78..         MOV     R0,#?V0 + 8
   \   00019F   12....       LCALL   ?PUSH_XSTACK_I_TWO
   \   0001A2   85....       MOV     ?V0 + 8,?V0 + 3
   \   0001A5   75..00       MOV     ?V0 + 9,#0x0
   \   0001A8   7402         MOV     A,#0x2
   \   0001AA   12....       LCALL   ?XSTACK_DISP0_8
   \   0001AD   E582         MOV     A,DPL
   \   0001AF   25..         ADD     A,?V0 + 8
   \   0001B1   FC           MOV     R4,A
   \   0001B2   E583         MOV     A,DPH
   \   0001B4   35..         ADDC    A,?V0 + 9
   \   0001B6   FD           MOV     R5,A
   \   0001B7   AA..         MOV     R2,?V0 + 4
   \   0001B9   AB..         MOV     R3,?V0 + 5
   \   0001BB   A9..         MOV     R1,?V0 + 10
   \   0001BD   12....       LCALL   ??HalFlashRead?relay
   \   0001C0   7402         MOV     A,#0x2
   \   0001C2   12....       LCALL   ?DEALLOC_XSTACK8
    945                srcOff++;
   \   0001C5   E5..         MOV     A,?V0 + 4
   \   0001C7   2401         ADD     A,#0x1
   \   0001C9   F5..         MOV     ?V0 + 4,A
   \   0001CB   E5..         MOV     A,?V0 + 5
   \   0001CD   3400         ADDC    A,#0x0
   \   0001CF   F5..         MOV     ?V0 + 5,A
    946                idx++;
   \   0001D1   05..         INC     ?V0 + 3
   \   0001D3   80B5         SJMP    ??xferBuf_6
    947              }
    948              writeWord( dstPg, dstOff, tmp );
   \                     ??xferBuf_7:
   \   0001D5                ; Setup parameters for call to function writeWord
   \   0001D5   85..82       MOV     DPL,?XSP + 0
   \   0001D8   85..83       MOV     DPH,?XSP + 1
   \   0001DB   AC82         MOV     R4,DPL
   \   0001DD   AD83         MOV     R5,DPH
   \   0001DF   AA..         MOV     R2,?V0 + 0
   \   0001E1   AB..         MOV     R3,?V0 + 1
   \   0001E3   A9..         MOV     R1,?V0 + 7
   \   0001E5   12....       LCALL   ??writeWord?relay
    949            }
    950          }
   \                     ??xferBuf_5:
   \   0001E8   7404         MOV     A,#0x4
   \   0001EA   12....       LCALL   ?DEALLOC_XSTACK8
   \   0001ED   7F0B         MOV     R7,#0xb
   \   0001EF   02....       LJMP    ?BANKED_LEAVE_XDATA
    951          
    952          /*********************************************************************
    953           * @fn      writeItem
    954           *
    955           * @brief   Writes an item header/data combo to the specified NV page.
    956           *
    957           * @param   pg - Valid NV Flash page.
    958           * @param   id - Valid NV item Id.
    959           * @param   len  - Byte count of the data to write.
    960           * @param   buf  - The data to write. If NULL, no data/checksum write.
    961           * @param   flag - TRUE if the checksum should be written, FALSE otherwise.
    962           *
    963           * @return  TRUE if header/data to write matches header/data read back, else FALSE.
    964           */

   \                                 In  segment BANKED_CODE, align 1, keep-with-next
    965          static uint8 writeItem( uint8 pg, uint16 id, uint16 len, void *buf, uint8 flag )
   \                     writeItem:
    966          {
   \   000000   74EC         MOV     A,#-0x14
   \   000002   12....       LCALL   ?BANKED_ENTER_XDATA
   \   000005                ; Saved register size: 20
   \   000005                ; Auto size: 10
   \   000005   74F6         MOV     A,#-0xa
   \   000007   12....       LCALL   ?ALLOC_XSTACK8
   \   00000A   89..         MOV     ?V0 + 0,R1
   \   00000C   8A..         MOV     ?V0 + 6,R2
   \   00000E   8B..         MOV     ?V0 + 7,R3
   \   000010   8C..         MOV     ?V0 + 2,R4
   \   000012   8D..         MOV     ?V0 + 3,R5
   \   000014   741E         MOV     A,#0x1e
   \   000016   12....       LCALL   ?XSTACK_DISP0_8
   \   000019   E0           MOVX    A,@DPTR
   \   00001A   F5..         MOV     ?V0 + 8,A
   \   00001C   A3           INC     DPTR
   \   00001D   E0           MOVX    A,@DPTR
   \   00001E   F5..         MOV     ?V0 + 9,A
   \   000020   7420         MOV     A,#0x20
   \   000022   12....       LCALL   ?XSTACK_DISP0_8
   \   000025   E0           MOVX    A,@DPTR
   \   000026   F5..         MOV     ?V0 + 4,A
    967            uint16 offset = pgOff[pg-OSAL_NV_PAGE_BEG];
   \   000028   E5..         MOV     A,?V0 + 0
   \   00002A   A8..         MOV     R0,?V0 + 0
   \   00002C   7900         MOV     R1,#0x0
   \   00002E   E8           MOV     A,R0
   \   00002F   75F002       MOV     B,#0x2
   \   000032   A4           MUL     AB
   \   000033   C8           XCH     A,R0
   \   000034   AAF0         MOV     R2,B
   \   000036   75F000       MOV     B,#0x0
   \   000039   A4           MUL     AB
   \   00003A   2A           ADD     A,R2
   \   00003B   FA           MOV     R2,A
   \   00003C   75F002       MOV     B,#0x2
   \   00003F   E9           MOV     A,R1
   \   000040   A4           MUL     AB
   \   000041   2A           ADD     A,R2
   \   000042   F9           MOV     R1,A
   \   000043   74..         MOV     A,#(pgOff + 14) & 0xff
   \   000045   28           ADD     A,R0
   \   000046   F582         MOV     DPL,A
   \   000048   74..         MOV     A,#((pgOff - 242) >> 8) & 0xff
   \   00004A   39           ADDC    A,R1
   \   00004B   F583         MOV     DPH,A
   \   00004D   E0           MOVX    A,@DPTR
   \   00004E   FE           MOV     R6,A
   \   00004F   A3           INC     DPTR
   \   000050   E0           MOVX    A,@DPTR
   \   000051   FF           MOV     R7,A
    968            uint8 rtrn = FALSE;
   \   000052   75..00       MOV     ?V0 + 1,#0x0
    969            osalNvHdr_t hdr;
    970          
    971            if ( pg == pgRes )
   \   000055   90....       MOV     DPTR,#pgRes
   \   000058   E0           MOVX    A,@DPTR
   \   000059   65..         XRL     A,?V0 + 0
   \   00005B   7007         JNZ     ??writeItem_0
    972            {
    973              /* Mark reserve page as being active, in process of receiving items.
    974               * Invoking function must effect a page compaction.
    975               */
    976              setPageUse( pg, FALSE );
   \   00005D                ; Setup parameters for call to function setPageUse
   \   00005D   7A00         MOV     R2,#0x0
   \   00005F   A9..         MOV     R1,?V0 + 0
   \   000061   12....       LCALL   ??setPageUse?relay
    977            }
    978          
    979            hdr.id = id;
   \                     ??writeItem_0:
   \   000064   7402         MOV     A,#0x2
   \   000066   12....       LCALL   ?XSTACK_DISP0_8
   \   000069   E5..         MOV     A,?V0 + 6
   \   00006B   F0           MOVX    @DPTR,A
   \   00006C   A3           INC     DPTR
   \   00006D   E5..         MOV     A,?V0 + 7
   \   00006F   F0           MOVX    @DPTR,A
    980            hdr.len = len;
   \   000070   7404         MOV     A,#0x4
   \   000072   12....       LCALL   ?XSTACK_DISP0_8
   \   000075   E5..         MOV     A,?V0 + 2
   \   000077   F0           MOVX    @DPTR,A
   \   000078   A3           INC     DPTR
   \   000079   E5..         MOV     A,?V0 + 3
   \   00007B   F0           MOVX    @DPTR,A
    981          
    982            writeWord( pg, offset, (uint8 *)&hdr );
   \   00007C                ; Setup parameters for call to function writeWord
   \   00007C   7402         MOV     A,#0x2
   \   00007E   12....       LCALL   ?XSTACK_DISP0_8
   \   000081   AC82         MOV     R4,DPL
   \   000083   AD83         MOV     R5,DPH
   \   000085   EE           MOV     A,R6
   \   000086   FA           MOV     R2,A
   \   000087   EF           MOV     A,R7
   \   000088   FB           MOV     R3,A
   \   000089   A9..         MOV     R1,?V0 + 0
   \   00008B   12....       LCALL   ??writeWord?relay
    983            HalFlashRead(pg, offset, (uint8 *)(&hdr), OSAL_NV_HDR_SIZE);
   \   00008E                ; Setup parameters for call to function HalFlashRead
   \   00008E   75..08       MOV     ?V0 + 10,#0x8
   \   000091   75..00       MOV     ?V0 + 11,#0x0
   \   000094   78..         MOV     R0,#?V0 + 10
   \   000096   12....       LCALL   ?PUSH_XSTACK_I_TWO
   \   000099   7404         MOV     A,#0x4
   \   00009B   12....       LCALL   ?XSTACK_DISP0_8
   \   00009E   AC82         MOV     R4,DPL
   \   0000A0   AD83         MOV     R5,DPH
   \   0000A2   EE           MOV     A,R6
   \   0000A3   FA           MOV     R2,A
   \   0000A4   EF           MOV     A,R7
   \   0000A5   FB           MOV     R3,A
   \   0000A6   A9..         MOV     R1,?V0 + 0
   \   0000A8   12....       LCALL   ??HalFlashRead?relay
   \   0000AB   7402         MOV     A,#0x2
   \   0000AD   12....       LCALL   ?DEALLOC_XSTACK8
    984          
    985            if ( (hdr.id == id) && (hdr.len == len) )
   \   0000B0   7402         MOV     A,#0x2
   \   0000B2   12....       LCALL   ?XSTACK_DISP0_8
   \   0000B5   E0           MOVX    A,@DPTR
   \   0000B6   65..         XRL     A,?V0 + 6
   \   0000B8   7004         JNZ     ??writeItem_1
   \   0000BA   A3           INC     DPTR
   \   0000BB   E0           MOVX    A,@DPTR
   \   0000BC   65..         XRL     A,?V0 + 7
   \                     ??writeItem_1:
   \   0000BE   6003         JZ      $+5
   \   0000C0   02....       LJMP    ??writeItem_2 & 0xFFFF
   \   0000C3   7404         MOV     A,#0x4
   \   0000C5   12....       LCALL   ?XSTACK_DISP0_8
   \   0000C8   E0           MOVX    A,@DPTR
   \   0000C9   65..         XRL     A,?V0 + 2
   \   0000CB   7004         JNZ     ??writeItem_3
   \   0000CD   A3           INC     DPTR
   \   0000CE   E0           MOVX    A,@DPTR
   \   0000CF   65..         XRL     A,?V0 + 3
   \                     ??writeItem_3:
   \   0000D1   6003         JZ      $+5
   \   0000D3   02....       LJMP    ??writeItem_2 & 0xFFFF
    986            {
    987              if ( flag )
   \   0000D6   E5..         MOV     A,?V0 + 4
   \   0000D8   7003         JNZ     $+5
   \   0000DA   02....       LJMP    ??writeItem_4 & 0xFFFF
    988              {
    989                uint16 chk = calcChkB( len, buf );
   \   0000DD                ; Setup parameters for call to function calcChkB
   \   0000DD   AC..         MOV     R4,?V0 + 8
   \   0000DF   AD..         MOV     R5,?V0 + 9
   \   0000E1   AA..         MOV     R2,?V0 + 2
   \   0000E3   AB..         MOV     R3,?V0 + 3
   \   0000E5   12....       LCALL   ??calcChkB?relay
   \   0000E8   85..82       MOV     DPL,?XSP + 0
   \   0000EB   85..83       MOV     DPH,?XSP + 1
   \   0000EE   EA           MOV     A,R2
   \   0000EF   F0           MOVX    @DPTR,A
   \   0000F0   A3           INC     DPTR
   \   0000F1   EB           MOV     A,R3
   \   0000F2   F0           MOVX    @DPTR,A
    990          
    991                offset += OSAL_NV_HDR_SIZE;
   \   0000F3   EE           MOV     A,R6
   \   0000F4   2408         ADD     A,#0x8
   \   0000F6   FE           MOV     R6,A
   \   0000F7   EF           MOV     A,R7
   \   0000F8   3400         ADDC    A,#0x0
   \   0000FA   FF           MOV     R7,A
    992                if ( buf != NULL )
   \   0000FB   E5..         MOV     A,?V0 + 8
   \   0000FD   45..         ORL     A,?V0 + 9
   \   0000FF   6017         JZ      ??writeItem_5
    993                {
    994                  writeBuf( pg, offset, len, buf );
   \   000101                ; Setup parameters for call to function writeBuf
   \   000101   78..         MOV     R0,#?V0 + 8
   \   000103   12....       LCALL   ?PUSH_XSTACK_I_TWO
   \   000106   AC..         MOV     R4,?V0 + 2
   \   000108   AD..         MOV     R5,?V0 + 3
   \   00010A   EE           MOV     A,R6
   \   00010B   FA           MOV     R2,A
   \   00010C   EF           MOV     A,R7
   \   00010D   FB           MOV     R3,A
   \   00010E   A9..         MOV     R1,?V0 + 0
   \   000110   12....       LCALL   ??writeBuf?relay
   \   000113   7402         MOV     A,#0x2
   \   000115   12....       LCALL   ?DEALLOC_XSTACK8
    995                }
    996          
    997                if ( chk == calcChkF( pg, offset, len ) )
   \                     ??writeItem_5:
   \   000118                ; Setup parameters for call to function calcChkF
   \   000118   AC..         MOV     R4,?V0 + 2
   \   00011A   AD..         MOV     R5,?V0 + 3
   \   00011C   EE           MOV     A,R6
   \   00011D   FA           MOV     R2,A
   \   00011E   EF           MOV     A,R7
   \   00011F   FB           MOV     R3,A
   \   000120   A9..         MOV     R1,?V0 + 0
   \   000122   12....       LCALL   ??calcChkF?relay
   \   000125   8A..         MOV     ?V0 + 10,R2
   \   000127   8B..         MOV     ?V0 + 11,R3
   \   000129   A8..         MOV     R0,?V0 + 10
   \   00012B   A9..         MOV     R1,?V0 + 11
   \   00012D   85..82       MOV     DPL,?XSP + 0
   \   000130   85..83       MOV     DPH,?XSP + 1
   \   000133   E0           MOVX    A,@DPTR
   \   000134   68           XRL     A,R0
   \   000135   7003         JNZ     ??writeItem_6
   \   000137   A3           INC     DPTR
   \   000138   E0           MOVX    A,@DPTR
   \   000139   69           XRL     A,R1
   \                     ??writeItem_6:
   \   00013A   705E         JNZ     ??writeItem_2
    998                {
    999                  writeWordH(pg, (offset-OSAL_NV_WORD_SIZE), (uint8 *)&chk);
   \   00013C                ; Setup parameters for call to function writeWordH
   \   00013C   85..82       MOV     DPL,?XSP + 0
   \   00013F   85..83       MOV     DPH,?XSP + 1
   \   000142   AC82         MOV     R4,DPL
   \   000144   AD83         MOV     R5,DPH
   \   000146   EE           MOV     A,R6
   \   000147   24FC         ADD     A,#-0x4
   \   000149   FA           MOV     R2,A
   \   00014A   EF           MOV     A,R7
   \   00014B   34FF         ADDC    A,#-0x1
   \   00014D   FB           MOV     R3,A
   \   00014E   A9..         MOV     R1,?V0 + 0
   \   000150   12....       LCALL   ??writeWordH?relay
   1000                  HalFlashRead(pg, (offset-OSAL_NV_HDR_SIZE), (uint8 *)(&hdr), OSAL_NV_HDR_SIZE);
   \   000153                ; Setup parameters for call to function HalFlashRead
   \   000153   75..08       MOV     ?V0 + 10,#0x8
   \   000156   75..00       MOV     ?V0 + 11,#0x0
   \   000159   78..         MOV     R0,#?V0 + 10
   \   00015B   12....       LCALL   ?PUSH_XSTACK_I_TWO
   \   00015E   7404         MOV     A,#0x4
   \   000160   12....       LCALL   ?XSTACK_DISP0_8
   \   000163   AC82         MOV     R4,DPL
   \   000165   AD83         MOV     R5,DPH
   \   000167   EE           MOV     A,R6
   \   000168   24F8         ADD     A,#-0x8
   \   00016A   FA           MOV     R2,A
   \   00016B   EF           MOV     A,R7
   \   00016C   34FF         ADDC    A,#-0x1
   \   00016E   FB           MOV     R3,A
   \   00016F   A9..         MOV     R1,?V0 + 0
   \   000171   12....       LCALL   ??HalFlashRead?relay
   \   000174   7402         MOV     A,#0x2
   \   000176   12....       LCALL   ?DEALLOC_XSTACK8
   1001          
   1002                  if ( chk == hdr.chk )
   \   000179   85..82       MOV     DPL,?XSP + 0
   \   00017C   85..83       MOV     DPH,?XSP + 1
   \   00017F   E0           MOVX    A,@DPTR
   \   000180   F8           MOV     R0,A
   \   000181   A3           INC     DPTR
   \   000182   E0           MOVX    A,@DPTR
   \   000183   F9           MOV     R1,A
   \   000184   7406         MOV     A,#0x6
   \   000186   12....       LCALL   ?XSTACK_DISP0_8
   \   000189   E0           MOVX    A,@DPTR
   \   00018A   68           XRL     A,R0
   \   00018B   7003         JNZ     ??writeItem_7
   \   00018D   A3           INC     DPTR
   \   00018E   E0           MOVX    A,@DPTR
   \   00018F   69           XRL     A,R1
   \                     ??writeItem_7:
   \   000190   7008         JNZ     ??writeItem_2
   1003                  {
   1004                    rtrn = pg;
   \   000192   85....       MOV     ?V0 + 1,?V0 + 0
   \   000195   8003         SJMP    ??writeItem_2
   1005                  }
   1006                }
   1007              }
   1008              else
   1009              {
   1010                rtrn = pg;
   \                     ??writeItem_4:
   \   000197   85....       MOV     ?V0 + 1,?V0 + 0
   1011              }
   1012            }
   1013          
   1014            len = OSAL_NV_ITEM_SIZE( hdr.len );
   \                     ??writeItem_2:
   \   00019A   7404         MOV     A,#0x4
   \   00019C   12....       LCALL   ?XSTACK_DISP0_8
   \   00019F   E0           MOVX    A,@DPTR
   \   0001A0   2403         ADD     A,#0x3
   \   0001A2   F5..         MOV     ?V0 + 10,A
   \   0001A4   A3           INC     DPTR
   \   0001A5   E0           MOVX    A,@DPTR
   \   0001A6   3400         ADDC    A,#0x0
   \   0001A8   F5..         MOV     ?V0 + 11,A
   \   0001AA   7402         MOV     A,#0x2
   \   0001AC   78..         MOV     R0,#?V0 + 10
   \   0001AE   12....       LCALL   ?US_SHR
   \   0001B1   E5..         MOV     A,?V0 + 10
   \   0001B3   75F004       MOV     B,#0x4
   \   0001B6   A4           MUL     AB
   \   0001B7   C5..         XCH     A,?V0 + 10
   \   0001B9   A8F0         MOV     R0,B
   \   0001BB   75F000       MOV     B,#0x0
   \   0001BE   A4           MUL     AB
   \   0001BF   28           ADD     A,R0
   \   0001C0   F8           MOV     R0,A
   \   0001C1   75F004       MOV     B,#0x4
   \   0001C4   E5..         MOV     A,?V0 + 11
   \   0001C6   A4           MUL     AB
   \   0001C7   28           ADD     A,R0
   \   0001C8   F5..         MOV     ?V0 + 11,A
   \   0001CA   E5..         MOV     A,?V0 + 10
   \   0001CC   2408         ADD     A,#0x8
   \   0001CE   F8           MOV     R0,A
   \   0001CF   E5..         MOV     A,?V0 + 11
   \   0001D1   3400         ADDC    A,#0x0
   \   0001D3   F9           MOV     R1,A
   \   0001D4   88..         MOV     ?V0 + 2,R0
   \   0001D6   89..         MOV     ?V0 + 3,R1
   1015            pgOff[pg-OSAL_NV_PAGE_BEG] += len;
   \   0001D8   E5..         MOV     A,?V0 + 0
   \   0001DA   A8..         MOV     R0,?V0 + 0
   \   0001DC   7900         MOV     R1,#0x0
   \   0001DE   E8           MOV     A,R0
   \   0001DF   75F002       MOV     B,#0x2
   \   0001E2   A4           MUL     AB
   \   0001E3   C8           XCH     A,R0
   \   0001E4   AAF0         MOV     R2,B
   \   0001E6   75F000       MOV     B,#0x0
   \   0001E9   A4           MUL     AB
   \   0001EA   2A           ADD     A,R2
   \   0001EB   FA           MOV     R2,A
   \   0001EC   75F002       MOV     B,#0x2
   \   0001EF   E9           MOV     A,R1
   \   0001F0   A4           MUL     AB
   \   0001F1   2A           ADD     A,R2
   \   0001F2   F9           MOV     R1,A
   \   0001F3   74..         MOV     A,#(pgOff + 14) & 0xff
   \   0001F5   28           ADD     A,R0
   \   0001F6   F582         MOV     DPL,A
   \   0001F8   74..         MOV     A,#((pgOff - 242) >> 8) & 0xff
   \   0001FA   39           ADDC    A,R1
   \   0001FB   F583         MOV     DPH,A
   \   0001FD   E0           MOVX    A,@DPTR
   \   0001FE   25..         ADD     A,?V0 + 2
   \   000200   F0           MOVX    @DPTR,A
   \   000201   A3           INC     DPTR
   \   000202   E0           MOVX    A,@DPTR
   \   000203   35..         ADDC    A,?V0 + 3
   \   000205   F0           MOVX    @DPTR,A
   1016          
   1017            return rtrn;
   \   000206   A9..         MOV     R1,?V0 + 1
   \   000208   740A         MOV     A,#0xa
   \   00020A   12....       LCALL   ?DEALLOC_XSTACK8
   \   00020D   7F0C         MOV     R7,#0xc
   \   00020F   02....       LJMP    ?BANKED_LEAVE_XDATA
   1018          }
   1019          
   1020          /*********************************************************************
   1021           * @fn      osal_nv_init
   1022           *
   1023           * @brief   Initialize NV service.
   1024           *
   1025           * @param   p - Not used.
   1026           *
   1027           * @return  none
   1028           */

   \                                 In  segment BANKED_CODE, align 1, keep-with-next
   1029          void osal_nv_init( void *p )
   \                     osal_nv_init:
   1030          {
   \   000000   74F7         MOV     A,#-0x9
   \   000002   12....       LCALL   ?BANKED_ENTER_XDATA
   \   000005                ; Saved register size: 9
   \   000005                ; Auto size: 0
   \   000005   EA           MOV     A,R2
   \   000006   FE           MOV     R6,A
   \   000007   EB           MOV     A,R3
   \   000008   FF           MOV     R7,A
   1031            (void)p;  // Suppress Lint warning.
   1032            (void)initNV();  // Always returns TRUE after pages have been erased.
   \   000009                ; Setup parameters for call to function initNV
   \   000009   12....       LCALL   ??initNV?relay
   \   00000C   E9           MOV     A,R1
   1033          }
   \   00000D   7F01         MOV     R7,#0x1
   \   00000F   02....       LJMP    ?BANKED_LEAVE_XDATA
   1034          
   1035          /*********************************************************************
   1036           * @fn      osal_nv_item_init
   1037           *
   1038           * @brief   If the NV item does not already exist, it is created and
   1039           *          initialized with the data passed to the function, if any.
   1040           *          This function must be called before calling osal_nv_read() or
   1041           *          osal_nv_write().
   1042           *
   1043           * @param   id  - Valid NV item Id.
   1044           * @param   len - Item length.
   1045           * @param  *buf - Pointer to item initalization data. Set to NULL if none.
   1046           *
   1047           * @return  NV_ITEM_UNINIT - Id did not exist and was created successfully.
   1048           *          ZSUCCESS       - Id already existed, no action taken.
   1049           *          NV_OPER_FAILED - Failure to find or create Id.
   1050           */

   \                                 In  segment BANKED_CODE, align 1, keep-with-next
   1051          uint8 osal_nv_item_init( uint16 id, uint16 len, void *buf )
   \                     osal_nv_item_init:
   1052          {
   \   000000   74F2         MOV     A,#-0xe
   \   000002   12....       LCALL   ?BANKED_ENTER_XDATA
   \   000005                ; Saved register size: 14
   \   000005                ; Auto size: 0
   \   000005   EA           MOV     A,R2
   \   000006   FE           MOV     R6,A
   \   000007   EB           MOV     A,R3
   \   000008   FF           MOV     R7,A
   \   000009   8C..         MOV     ?V0 + 0,R4
   \   00000B   8D..         MOV     ?V0 + 1,R5
   \   00000D   740E         MOV     A,#0xe
   \   00000F   12....       LCALL   ?XSTACK_DISP0_8
   \   000012   E0           MOVX    A,@DPTR
   \   000013   F5..         MOV     ?V0 + 2,A
   \   000015   A3           INC     DPTR
   \   000016   E0           MOVX    A,@DPTR
   \   000017   F5..         MOV     ?V0 + 3,A
   1053            /* Global fail flag for fail due to low bus voltage has less impact on code
   1054             * size than passing back a return value all the way from the lowest level.
   1055             */
   1056            failF = FALSE;
   \   000019   90....       MOV     DPTR,#failF
   \   00001C   7400         MOV     A,#0x0
   \   00001E   F0           MOVX    @DPTR,A
   1057          
   1058            if ( (findItem( id ) != OSAL_NV_ITEM_NULL) )
   \   00001F                ; Setup parameters for call to function findItem
   \   00001F   EE           MOV     A,R6
   \   000020   FA           MOV     R2,A
   \   000021   EF           MOV     A,R7
   \   000022   FB           MOV     R3,A
   \   000023   12....       LCALL   ??findItem?relay
   \   000026   8A..         MOV     ?V0 + 4,R2
   \   000028   8B..         MOV     ?V0 + 5,R3
   \   00002A   E5..         MOV     A,?V0 + 4
   \   00002C   45..         ORL     A,?V0 + 5
   \   00002E   6004         JZ      ??osal_nv_item_init_0
   1059            {
   1060              return ZSUCCESS;
   \   000030   7900         MOV     R1,#0x0
   \   000032   802E         SJMP    ??osal_nv_item_init_1
   1061            }
   1062            else if ( initItem( TRUE, id, len, buf ) )
   \                     ??osal_nv_item_init_0:
   \   000034                ; Setup parameters for call to function initItem
   \   000034   78..         MOV     R0,#?V0 + 2
   \   000036   12....       LCALL   ?PUSH_XSTACK_I_TWO
   \   000039   AC..         MOV     R4,?V0 + 0
   \   00003B   AD..         MOV     R5,?V0 + 1
   \   00003D   EE           MOV     A,R6
   \   00003E   FA           MOV     R2,A
   \   00003F   EF           MOV     A,R7
   \   000040   FB           MOV     R3,A
   \   000041   7901         MOV     R1,#0x1
   \   000043   12....       LCALL   ??initItem?relay
   \   000046   7402         MOV     A,#0x2
   \   000048   12....       LCALL   ?DEALLOC_XSTACK8
   \   00004B   E9           MOV     A,R1
   \   00004C   6012         JZ      ??osal_nv_item_init_2
   1063            {
   1064              if ( failF )
   \   00004E   90....       MOV     DPTR,#failF
   \   000051   E0           MOVX    A,@DPTR
   \   000052   6008         JZ      ??osal_nv_item_init_3
   1065              {
   1066                (void)initNV();  // See comment at the declaration of failF.
   \   000054                ; Setup parameters for call to function initNV
   \   000054   12....       LCALL   ??initNV?relay
   \   000057   E9           MOV     A,R1
   1067                return NV_OPER_FAILED;
   \   000058   790A         MOV     R1,#0xa
   \   00005A   8006         SJMP    ??osal_nv_item_init_1
   1068              }
   1069              else
   1070              {
   1071                return NV_ITEM_UNINIT;
   \                     ??osal_nv_item_init_3:
   \   00005C   7909         MOV     R1,#0x9
   \   00005E   8002         SJMP    ??osal_nv_item_init_1
   1072              }
   1073            }
   1074            else
   1075            {
   1076              return NV_OPER_FAILED;
   \                     ??osal_nv_item_init_2:
   \   000060   790A         MOV     R1,#0xa
   \                     ??osal_nv_item_init_1:
   \   000062   7F06         MOV     R7,#0x6
   \   000064   02....       LJMP    ?BANKED_LEAVE_XDATA
   1077            }
   1078          }
   1079          
   1080          /*********************************************************************
   1081           * @fn      osal_nv_item_len
   1082           *
   1083           * @brief   Get the data length of the item stored in NV memory.
   1084           *
   1085           * @param   id  - Valid NV item Id.
   1086           *
   1087           * @return  Item length, if found; zero otherwise.
   1088           */

   \                                 In  segment BANKED_CODE, align 1, keep-with-next
   1089          uint16 osal_nv_item_len( uint16 id )
   \                     osal_nv_item_len:
   1090          {
   \   000000   74F4         MOV     A,#-0xc
   \   000002   12....       LCALL   ?BANKED_ENTER_XDATA
   \   000005                ; Saved register size: 12
   \   000005                ; Auto size: 8
   \   000005   74F8         MOV     A,#-0x8
   \   000007   12....       LCALL   ?ALLOC_XSTACK8
   \   00000A   8A..         MOV     ?V0 + 0,R2
   \   00000C   8B..         MOV     ?V0 + 1,R3
   1091            uint16 offset = findItem( id );
   \   00000E                ; Setup parameters for call to function findItem
   \   00000E   AA..         MOV     R2,?V0 + 0
   \   000010   AB..         MOV     R3,?V0 + 1
   \   000012   12....       LCALL   ??findItem?relay
   \   000015   8A..         MOV     ?V0 + 2,R2
   \   000017   8B..         MOV     ?V0 + 3,R3
   \   000019   AE..         MOV     R6,?V0 + 2
   \   00001B   AF..         MOV     R7,?V0 + 3
   1092          
   1093            if ( offset == OSAL_NV_ITEM_NULL )
   \   00001D   EE           MOV     A,R6
   \   00001E   4F           ORL     A,R7
   \   00001F   7006         JNZ     ??osal_nv_item_len_0
   1094            {
   1095              return 0;
   \   000021   7A00         MOV     R2,#0x0
   \   000023   7B00         MOV     R3,#0x0
   \   000025   8033         SJMP    ??osal_nv_item_len_1
   1096            }
   1097            else
   1098            {
   1099              osalNvHdr_t hdr;
   1100              HalFlashRead(findPg, (offset - OSAL_NV_HDR_SIZE), (uint8 *)(&hdr), OSAL_NV_HDR_SIZE);
   \                     ??osal_nv_item_len_0:
   \   000027                ; Setup parameters for call to function HalFlashRead
   \   000027   75..08       MOV     ?V0 + 2,#0x8
   \   00002A   75..00       MOV     ?V0 + 3,#0x0
   \   00002D   78..         MOV     R0,#?V0 + 2
   \   00002F   12....       LCALL   ?PUSH_XSTACK_I_TWO
   \   000032   7402         MOV     A,#0x2
   \   000034   12....       LCALL   ?XSTACK_DISP0_8
   \   000037   AC82         MOV     R4,DPL
   \   000039   AD83         MOV     R5,DPH
   \   00003B   EE           MOV     A,R6
   \   00003C   24F8         ADD     A,#-0x8
   \   00003E   FA           MOV     R2,A
   \   00003F   EF           MOV     A,R7
   \   000040   34FF         ADDC    A,#-0x1
   \   000042   FB           MOV     R3,A
   \   000043   90....       MOV     DPTR,#findPg
   \   000046   E0           MOVX    A,@DPTR
   \   000047   F9           MOV     R1,A
   \   000048   12....       LCALL   ??HalFlashRead?relay
   \   00004B   7402         MOV     A,#0x2
   \   00004D   12....       LCALL   ?DEALLOC_XSTACK8
   1101              return hdr.len;
   \   000050   7402         MOV     A,#0x2
   \   000052   12....       LCALL   ?XSTACK_DISP0_8
   \   000055   E0           MOVX    A,@DPTR
   \   000056   FA           MOV     R2,A
   \   000057   A3           INC     DPTR
   \   000058   E0           MOVX    A,@DPTR
   \   000059   FB           MOV     R3,A
   \                     ??osal_nv_item_len_1:
   \   00005A   7408         MOV     A,#0x8
   \   00005C   12....       LCALL   ?DEALLOC_XSTACK8
   \   00005F   7F04         MOV     R7,#0x4
   \   000061   02....       LJMP    ?BANKED_LEAVE_XDATA
   1102            }
   1103          }
   1104          
   1105          /*********************************************************************
   1106           * @fn      osal_nv_write
   1107           *
   1108           * @brief   Write a data item to NV. Function can write an entire item to NV or
   1109           *          an element of an item by indexing into the item with an offset.
   1110           *
   1111           * @param   id  - Valid NV item Id.
   1112           * @param   ndx - Index offset into item
   1113           * @param   len - Length of data to write.
   1114           * @param  *buf - Data to write.
   1115           *
   1116           * @return  ZSUCCESS if successful, NV_ITEM_UNINIT if item did not
   1117           *          exist in NV and offset is non-zero, NV_OPER_FAILED if failure.
   1118           */

   \                                 In  segment BANKED_CODE, align 1, keep-with-next
   1119          uint8 osal_nv_write( uint16 id, uint16 ndx, uint16 len, void *buf )
   \                     osal_nv_write:
   1120          {
   \   000000   74E8         MOV     A,#-0x18
   \   000002   12....       LCALL   ?BANKED_ENTER_XDATA
   \   000005                ; Saved register size: 24
   \   000005                ; Auto size: 16
   \   000005   74F0         MOV     A,#-0x10
   \   000007   12....       LCALL   ?ALLOC_XSTACK8
   \   00000A   7406         MOV     A,#0x6
   \   00000C   12....       LCALL   ?XSTACK_DISP0_8
   \   00000F   EA           MOV     A,R2
   \   000010   F0           MOVX    @DPTR,A
   \   000011   A3           INC     DPTR
   \   000012   EB           MOV     A,R3
   \   000013   F0           MOVX    @DPTR,A
   \   000014   8C..         MOV     ?V0 + 4,R4
   \   000016   8D..         MOV     ?V0 + 5,R5
   \   000018   7428         MOV     A,#0x28
   \   00001A   12....       LCALL   ?XSTACK_DISP0_8
   \   00001D   E0           MOVX    A,@DPTR
   \   00001E   F5..         MOV     ?V0 + 8,A
   \   000020   A3           INC     DPTR
   \   000021   E0           MOVX    A,@DPTR
   \   000022   F5..         MOV     ?V0 + 9,A
   1121            uint8 rtrn = ZSUCCESS;
   \   000024   75..00       MOV     ?V0 + 3,#0x0
   1122          
   1123            /* Global fail flag for fail due to low bus voltage has less impact on code
   1124             * size than passing back a return value all the way from the lowest level.
   1125             */
   1126            failF = FALSE;
   \   000027   90....       MOV     DPTR,#failF
   \   00002A   7400         MOV     A,#0x0
   \   00002C   F0           MOVX    @DPTR,A
   1127          
   1128            if ( len != 0 )
   \   00002D   E5..         MOV     A,?V0 + 8
   \   00002F   45..         ORL     A,?V0 + 9
   \   000031   7003         JNZ     $+5
   \   000033   02....       LJMP    ??osal_nv_write_0 & 0xFFFF
   1129            {
   1130              osalNvHdr_t hdr;
   1131              uint16 origOff, srcOff;
   1132              uint16 cnt;
   1133              uint8 *ptr;
   1134          
   1135              origOff = srcOff = findItem( id );
   \   000036                ; Setup parameters for call to function findItem
   \   000036   7406         MOV     A,#0x6
   \   000038   12....       LCALL   ?XSTACK_DISP0_8
   \   00003B   E0           MOVX    A,@DPTR
   \   00003C   FA           MOV     R2,A
   \   00003D   A3           INC     DPTR
   \   00003E   E0           MOVX    A,@DPTR
   \   00003F   FB           MOV     R3,A
   \   000040   12....       LCALL   ??findItem?relay
   \   000043   8A..         MOV     ?V0 + 6,R2
   \   000045   8B..         MOV     ?V0 + 7,R3
   \   000047   A8..         MOV     R0,?V0 + 6
   \   000049   A9..         MOV     R1,?V0 + 7
   \   00004B   88..         MOV     ?V0 + 0,R0
   \   00004D   89..         MOV     ?V0 + 1,R1
   \   00004F   7404         MOV     A,#0x4
   \   000051   12....       LCALL   ?XSTACK_DISP0_8
   \   000054   E8           MOV     A,R0
   \   000055   F0           MOVX    @DPTR,A
   \   000056   A3           INC     DPTR
   \   000057   E9           MOV     A,R1
   \   000058   F0           MOVX    @DPTR,A
   1136              if ( srcOff == OSAL_NV_ITEM_NULL )
   \   000059   E5..         MOV     A,?V0 + 0
   \   00005B   45..         ORL     A,?V0 + 1
   \   00005D   7005         JNZ     ??osal_nv_write_1
   1137              {
   1138                return NV_ITEM_UNINIT;
   \   00005F   7909         MOV     R1,#0x9
   \   000061   02....       LJMP    ??osal_nv_write_2 & 0xFFFF
   1139              }
   1140          
   1141              HalFlashRead(findPg, (srcOff - OSAL_NV_HDR_SIZE), (uint8 *)(&hdr), OSAL_NV_HDR_SIZE);
   \                     ??osal_nv_write_1:
   \   000064                ; Setup parameters for call to function HalFlashRead
   \   000064   75..08       MOV     ?V0 + 6,#0x8
   \   000067   75..00       MOV     ?V0 + 7,#0x0
   \   00006A   78..         MOV     R0,#?V0 + 6
   \   00006C   12....       LCALL   ?PUSH_XSTACK_I_TWO
   \   00006F   740A         MOV     A,#0xa
   \   000071   12....       LCALL   ?XSTACK_DISP0_8
   \   000074   AC82         MOV     R4,DPL
   \   000076   AD83         MOV     R5,DPH
   \   000078   E5..         MOV     A,?V0 + 0
   \   00007A   24F8         ADD     A,#-0x8
   \   00007C   FA           MOV     R2,A
   \   00007D   E5..         MOV     A,?V0 + 1
   \   00007F   34FF         ADDC    A,#-0x1
   \   000081   FB           MOV     R3,A
   \   000082   90....       MOV     DPTR,#findPg
   \   000085   E0           MOVX    A,@DPTR
   \   000086   F9           MOV     R1,A
   \   000087   12....       LCALL   ??HalFlashRead?relay
   \   00008A   7402         MOV     A,#0x2
   \   00008C   12....       LCALL   ?DEALLOC_XSTACK8
   1142              if ( hdr.len < (ndx + len) )
   \   00008F   740A         MOV     A,#0xa
   \   000091   12....       LCALL   ?XSTACK_DISP0_8
   \   000094   E5..         MOV     A,?V0 + 4
   \   000096   25..         ADD     A,?V0 + 8
   \   000098   F8           MOV     R0,A
   \   000099   E5..         MOV     A,?V0 + 5
   \   00009B   35..         ADDC    A,?V0 + 9
   \   00009D   F9           MOV     R1,A
   \   00009E   C3           CLR     C
   \   00009F   E0           MOVX    A,@DPTR
   \   0000A0   98           SUBB    A,R0
   \   0000A1   A3           INC     DPTR
   \   0000A2   E0           MOVX    A,@DPTR
   \   0000A3   99           SUBB    A,R1
   \   0000A4   5005         JNC     ??osal_nv_write_3
   1143              {
   1144                return NV_OPER_FAILED;
   \   0000A6   790A         MOV     R1,#0xa
   \   0000A8   02....       LJMP    ??osal_nv_write_2 & 0xFFFF
   1145              }
   1146          
   1147              srcOff += ndx;
   \                     ??osal_nv_write_3:
   \   0000AB   E5..         MOV     A,?V0 + 0
   \   0000AD   25..         ADD     A,?V0 + 4
   \   0000AF   F5..         MOV     ?V0 + 0,A
   \   0000B1   E5..         MOV     A,?V0 + 1
   \   0000B3   35..         ADDC    A,?V0 + 5
   \   0000B5   F5..         MOV     ?V0 + 1,A
   1148              ptr = buf;
   \   0000B7   742A         MOV     A,#0x2a
   \   0000B9   12....       LCALL   ?XSTACK_DISP0_8
   \   0000BC   E0           MOVX    A,@DPTR
   \   0000BD   F8           MOV     R0,A
   \   0000BE   A3           INC     DPTR
   \   0000BF   E0           MOVX    A,@DPTR
   \   0000C0   F9           MOV     R1,A
   \   0000C1   88..         MOV     ?V0 + 14,R0
   \   0000C3   89..         MOV     ?V0 + 15,R1
   1149              cnt = len;
   \   0000C5   85....       MOV     ?V0 + 12,?V0 + 8
   \   0000C8   85....       MOV     ?V0 + 13,?V0 + 9
   1150              while ( cnt )
   \                     ??osal_nv_write_4:
   \   0000CB   E5..         MOV     A,?V0 + 12
   \   0000CD   45..         ORL     A,?V0 + 13
   \   0000CF   605D         JZ      ??osal_nv_write_5
   1151              {
   1152                uint8 tmp;
   1153                HalFlashRead(findPg, srcOff++, &tmp, 1);
   \   0000D1                ; Setup parameters for call to function HalFlashRead
   \   0000D1   75..01       MOV     ?V0 + 6,#0x1
   \   0000D4   75..00       MOV     ?V0 + 7,#0x0
   \   0000D7   78..         MOV     R0,#?V0 + 6
   \   0000D9   12....       LCALL   ?PUSH_XSTACK_I_TWO
   \   0000DC   7405         MOV     A,#0x5
   \   0000DE   12....       LCALL   ?XSTACK_DISP0_8
   \   0000E1   AC82         MOV     R4,DPL
   \   0000E3   AD83         MOV     R5,DPH
   \   0000E5   AA..         MOV     R2,?V0 + 0
   \   0000E7   AB..         MOV     R3,?V0 + 1
   \   0000E9   90....       MOV     DPTR,#findPg
   \   0000EC   E0           MOVX    A,@DPTR
   \   0000ED   F9           MOV     R1,A
   \   0000EE   12....       LCALL   ??HalFlashRead?relay
   \   0000F1   7402         MOV     A,#0x2
   \   0000F3   12....       LCALL   ?DEALLOC_XSTACK8
   \   0000F6   E5..         MOV     A,?V0 + 0
   \   0000F8   2401         ADD     A,#0x1
   \   0000FA   F5..         MOV     ?V0 + 0,A
   \   0000FC   E5..         MOV     A,?V0 + 1
   \   0000FE   3400         ADDC    A,#0x0
   \   000100   F5..         MOV     ?V0 + 1,A
   1154                if ( tmp != *ptr++ )
   \   000102   A8..         MOV     R0,?V0 + 14
   \   000104   A9..         MOV     R1,?V0 + 15
   \   000106   8882         MOV     DPL,R0
   \   000108   8983         MOV     DPH,R1
   \   00010A   A3           INC     DPTR
   \   00010B   8582..       MOV     ?V0 + 14,DPL
   \   00010E   8583..       MOV     ?V0 + 15,DPH
   \   000111   7403         MOV     A,#0x3
   \   000113   12....       LCALL   ?XSTACK_DISP0_8
   \   000116   E0           MOVX    A,@DPTR
   \   000117   FA           MOV     R2,A
   \   000118   8882         MOV     DPL,R0
   \   00011A   8983         MOV     DPH,R1
   \   00011C   E0           MOVX    A,@DPTR
   \   00011D   6A           XRL     A,R2
   \   00011E   700E         JNZ     ??osal_nv_write_5
   1155                {
   1156                  break;
   1157                }
   1158                cnt--;
   \   000120   E5..         MOV     A,?V0 + 12
   \   000122   24FF         ADD     A,#-0x1
   \   000124   F5..         MOV     ?V0 + 12,A
   \   000126   E5..         MOV     A,?V0 + 13
   \   000128   34FF         ADDC    A,#-0x1
   \   00012A   F5..         MOV     ?V0 + 13,A
   \   00012C   809D         SJMP    ??osal_nv_write_4
   1159              }
   1160          
   1161              if ( cnt != 0 )  // If the buffer to write is different in one or more bytes.
   \                     ??osal_nv_write_5:
   \   00012E   E5..         MOV     A,?V0 + 12
   \   000130   45..         ORL     A,?V0 + 13
   \   000132   7003         JNZ     $+5
   \   000134   02....       LJMP    ??osal_nv_write_0 & 0xFFFF
   1162              {
   1163                uint8 comPg, dstPg = initItem( FALSE, id, hdr.len, &comPg );
   \   000137                ; Setup parameters for call to function initItem
   \   000137   7402         MOV     A,#0x2
   \   000139   12....       LCALL   ?XSTACK_DISP0_8
   \   00013C   8582..       MOV     ?V0 + 6,DPL
   \   00013F   8583..       MOV     ?V0 + 7,DPH
   \   000142   78..         MOV     R0,#?V0 + 6
   \   000144   12....       LCALL   ?PUSH_XSTACK_I_TWO
   \   000147   740C         MOV     A,#0xc
   \   000149   12....       LCALL   ?XSTACK_DISP0_8
   \   00014C   E0           MOVX    A,@DPTR
   \   00014D   FC           MOV     R4,A
   \   00014E   A3           INC     DPTR
   \   00014F   E0           MOVX    A,@DPTR
   \   000150   FD           MOV     R5,A
   \   000151   7408         MOV     A,#0x8
   \   000153   12....       LCALL   ?XSTACK_DISP0_8
   \   000156   E0           MOVX    A,@DPTR
   \   000157   FA           MOV     R2,A
   \   000158   A3           INC     DPTR
   \   000159   E0           MOVX    A,@DPTR
   \   00015A   FB           MOV     R3,A
   \   00015B   7900         MOV     R1,#0x0
   \   00015D   12....       LCALL   ??initItem?relay
   \   000160   7402         MOV     A,#0x2
   \   000162   12....       LCALL   ?DEALLOC_XSTACK8
   \   000165   E9           MOV     A,R1
   \   000166   F5..         MOV     ?V0 + 2,A
   1164          
   1165                if ( dstPg != OSAL_NV_PAGE_NULL )
   \   000168   E5..         MOV     A,?V0 + 2
   \   00016A   7003         JNZ     $+5
   \   00016C   02....       LJMP    ??osal_nv_write_6 & 0xFFFF
   1166                {
   1167                  uint16 tmp = OSAL_NV_DATA_SIZE( hdr.len );
   \   00016F   740A         MOV     A,#0xa
   \   000171   12....       LCALL   ?XSTACK_DISP0_8
   \   000174   E0           MOVX    A,@DPTR
   \   000175   2403         ADD     A,#0x3
   \   000177   F5..         MOV     ?V0 + 6,A
   \   000179   A3           INC     DPTR
   \   00017A   E0           MOVX    A,@DPTR
   \   00017B   3400         ADDC    A,#0x0
   \   00017D   F5..         MOV     ?V0 + 7,A
   \   00017F   7402         MOV     A,#0x2
   \   000181   78..         MOV     R0,#?V0 + 6
   \   000183   12....       LCALL   ?US_SHR
   \   000186   E5..         MOV     A,?V0 + 6
   \   000188   75F004       MOV     B,#0x4
   \   00018B   A4           MUL     AB
   \   00018C   C5..         XCH     A,?V0 + 6
   \   00018E   A8F0         MOV     R0,B
   \   000190   75F000       MOV     B,#0x0
   \   000193   A4           MUL     AB
   \   000194   28           ADD     A,R0
   \   000195   F8           MOV     R0,A
   \   000196   75F004       MOV     B,#0x4
   \   000199   E5..         MOV     A,?V0 + 7
   \   00019B   A4           MUL     AB
   \   00019C   28           ADD     A,R0
   \   00019D   F5..         MOV     ?V0 + 7,A
   \   00019F   85..82       MOV     DPL,?XSP + 0
   \   0001A2   85..83       MOV     DPH,?XSP + 1
   \   0001A5   E5..         MOV     A,?V0 + 6
   \   0001A7   F0           MOVX    @DPTR,A
   \   0001A8   A3           INC     DPTR
   \   0001A9   E5..         MOV     A,?V0 + 7
   \   0001AB   F0           MOVX    @DPTR,A
   1168                  uint16 dstOff = pgOff[dstPg-OSAL_NV_PAGE_BEG] - tmp;
   \   0001AC   E5..         MOV     A,?V0 + 2
   \   0001AE   A8..         MOV     R0,?V0 + 2
   \   0001B0   7900         MOV     R1,#0x0
   \   0001B2   E8           MOV     A,R0
   \   0001B3   75F002       MOV     B,#0x2
   \   0001B6   A4           MUL     AB
   \   0001B7   C8           XCH     A,R0
   \   0001B8   AAF0         MOV     R2,B
   \   0001BA   75F000       MOV     B,#0x0
   \   0001BD   A4           MUL     AB
   \   0001BE   2A           ADD     A,R2
   \   0001BF   FA           MOV     R2,A
   \   0001C0   75F002       MOV     B,#0x2
   \   0001C3   E9           MOV     A,R1
   \   0001C4   A4           MUL     AB
   \   0001C5   2A           ADD     A,R2
   \   0001C6   F9           MOV     R1,A
   \   0001C7   74..         MOV     A,#(pgOff + 14) & 0xff
   \   0001C9   28           ADD     A,R0
   \   0001CA   F582         MOV     DPL,A
   \   0001CC   74..         MOV     A,#((pgOff - 242) >> 8) & 0xff
   \   0001CE   39           ADDC    A,R1
   \   0001CF   F583         MOV     DPH,A
   \   0001D1   C082         PUSH    DPL
   \   0001D3   C083         PUSH    DPH
   \   0001D5   85..82       MOV     DPL,?XSP + 0
   \   0001D8   85..83       MOV     DPH,?XSP + 1
   \   0001DB   E0           MOVX    A,@DPTR
   \   0001DC   F8           MOV     R0,A
   \   0001DD   A3           INC     DPTR
   \   0001DE   E0           MOVX    A,@DPTR
   \   0001DF   F9           MOV     R1,A
   \   0001E0   D083         POP     DPH
   \   0001E2   D082         POP     DPL
   \   0001E4   E0           MOVX    A,@DPTR
   \   0001E5   C3           CLR     C
   \   0001E6   98           SUBB    A,R0
   \   0001E7   FE           MOV     R6,A
   \   0001E8   A3           INC     DPTR
   \   0001E9   E0           MOVX    A,@DPTR
   \   0001EA   99           SUBB    A,R1
   \   0001EB   FF           MOV     R7,A
   1169                  uint8 srcPg = findPg;
   \   0001EC   90....       MOV     DPTR,#findPg
   \   0001EF   E0           MOVX    A,@DPTR
   \   0001F0   F5..         MOV     ?V0 + 6,A
   1170                  srcOff = origOff;
   \   0001F2   7404         MOV     A,#0x4
   \   0001F4   12....       LCALL   ?XSTACK_DISP0_8
   \   0001F7   E0           MOVX    A,@DPTR
   \   0001F8   F5..         MOV     ?V0 + 0,A
   \   0001FA   A3           INC     DPTR
   \   0001FB   E0           MOVX    A,@DPTR
   \   0001FC   F5..         MOV     ?V0 + 1,A
   1171          
   1172                  setItem( srcPg, srcOff, eNvXfer );
   \   0001FE                ; Setup parameters for call to function setItem
   \   0001FE   7C00         MOV     R4,#0x0
   \   000200   AA..         MOV     R2,?V0 + 0
   \   000202   AB..         MOV     R3,?V0 + 1
   \   000204   A9..         MOV     R1,?V0 + 6
   \   000206   12....       LCALL   ??setItem?relay
   1173          
   1174                  xferBuf( srcPg, srcOff, dstPg, dstOff, ndx );
   \   000209                ; Setup parameters for call to function xferBuf
   \   000209   78..         MOV     R0,#?V0 + 4
   \   00020B   12....       LCALL   ?PUSH_XSTACK_I_TWO
   \   00020E   8E..         MOV     ?V0 + 10,R6
   \   000210   8F..         MOV     ?V0 + 11,R7
   \   000212   78..         MOV     R0,#?V0 + 10
   \   000214   12....       LCALL   ?PUSH_XSTACK_I_TWO
   \   000217   AC..         MOV     R4,?V0 + 2
   \   000219   AA..         MOV     R2,?V0 + 0
   \   00021B   AB..         MOV     R3,?V0 + 1
   \   00021D   A9..         MOV     R1,?V0 + 6
   \   00021F   12....       LCALL   ??xferBuf?relay
   \   000222   7404         MOV     A,#0x4
   \   000224   12....       LCALL   ?DEALLOC_XSTACK8
   1175                  srcOff += ndx;
   \   000227   E5..         MOV     A,?V0 + 0
   \   000229   25..         ADD     A,?V0 + 4
   \   00022B   F5..         MOV     ?V0 + 0,A
   \   00022D   E5..         MOV     A,?V0 + 1
   \   00022F   35..         ADDC    A,?V0 + 5
   \   000231   F5..         MOV     ?V0 + 1,A
   1176                  dstOff += ndx;
   \   000233   EE           MOV     A,R6
   \   000234   25..         ADD     A,?V0 + 4
   \   000236   FE           MOV     R6,A
   \   000237   EF           MOV     A,R7
   \   000238   35..         ADDC    A,?V0 + 5
   \   00023A   FF           MOV     R7,A
   1177          
   1178                  writeBuf( dstPg, dstOff, len, buf );
   \   00023B                ; Setup parameters for call to function writeBuf
   \   00023B   742A         MOV     A,#0x2a
   \   00023D   12....       LCALL   ?XSTACK_DISP0_8
   \   000240   12....       LCALL   ?PUSH_XSTACK8_X_TWO
   \   000243   AC..         MOV     R4,?V0 + 8
   \   000245   AD..         MOV     R5,?V0 + 9
   \   000247   EE           MOV     A,R6
   \   000248   FA           MOV     R2,A
   \   000249   EF           MOV     A,R7
   \   00024A   FB           MOV     R3,A
   \   00024B   A9..         MOV     R1,?V0 + 2
   \   00024D   12....       LCALL   ??writeBuf?relay
   \   000250   7402         MOV     A,#0x2
   \   000252   12....       LCALL   ?DEALLOC_XSTACK8
   1179                  srcOff += len;
   \   000255   E5..         MOV     A,?V0 + 0
   \   000257   25..         ADD     A,?V0 + 8
   \   000259   F5..         MOV     ?V0 + 0,A
   \   00025B   E5..         MOV     A,?V0 + 1
   \   00025D   35..         ADDC    A,?V0 + 9
   \   00025F   F5..         MOV     ?V0 + 1,A
   1180                  dstOff += len;
   \   000261   EE           MOV     A,R6
   \   000262   25..         ADD     A,?V0 + 8
   \   000264   FE           MOV     R6,A
   \   000265   EF           MOV     A,R7
   \   000266   35..         ADDC    A,?V0 + 9
   \   000268   FF           MOV     R7,A
   1181          
   1182                  xferBuf( srcPg, srcOff, dstPg, dstOff, (hdr.len-ndx-len) );
   \   000269                ; Setup parameters for call to function xferBuf
   \   000269   740A         MOV     A,#0xa
   \   00026B   12....       LCALL   ?XSTACK_DISP0_8
   \   00026E   E0           MOVX    A,@DPTR
   \   00026F   C3           CLR     C
   \   000270   95..         SUBB    A,?V0 + 4
   \   000272   F8           MOV     R0,A
   \   000273   A3           INC     DPTR
   \   000274   E0           MOVX    A,@DPTR
   \   000275   95..         SUBB    A,?V0 + 5
   \   000277   F9           MOV     R1,A
   \   000278   E8           MOV     A,R0
   \   000279   C3           CLR     C
   \   00027A   95..         SUBB    A,?V0 + 8
   \   00027C   F5..         MOV     ?V0 + 10,A
   \   00027E   E9           MOV     A,R1
   \   00027F   95..         SUBB    A,?V0 + 9
   \   000281   F5..         MOV     ?V0 + 11,A
   \   000283   78..         MOV     R0,#?V0 + 10
   \   000285   12....       LCALL   ?PUSH_XSTACK_I_TWO
   \   000288   8E..         MOV     ?V0 + 10,R6
   \   00028A   8F..         MOV     ?V0 + 11,R7
   \   00028C   78..         MOV     R0,#?V0 + 10
   \   00028E   12....       LCALL   ?PUSH_XSTACK_I_TWO
   \   000291   AC..         MOV     R4,?V0 + 2
   \   000293   AA..         MOV     R2,?V0 + 0
   \   000295   AB..         MOV     R3,?V0 + 1
   \   000297   A9..         MOV     R1,?V0 + 6
   \   000299   12....       LCALL   ??xferBuf?relay
   \   00029C   7404         MOV     A,#0x4
   \   00029E   12....       LCALL   ?DEALLOC_XSTACK8
   1183          
   1184                  // Calculate and write the new checksum.
   1185                  dstOff = pgOff[dstPg-OSAL_NV_PAGE_BEG] - tmp;
   \   0002A1   E5..         MOV     A,?V0 + 2
   \   0002A3   A8..         MOV     R0,?V0 + 2
   \   0002A5   7900         MOV     R1,#0x0
   \   0002A7   E8           MOV     A,R0
   \   0002A8   75F002       MOV     B,#0x2
   \   0002AB   A4           MUL     AB
   \   0002AC   C8           XCH     A,R0
   \   0002AD   AAF0         MOV     R2,B
   \   0002AF   75F000       MOV     B,#0x0
   \   0002B2   A4           MUL     AB
   \   0002B3   2A           ADD     A,R2
   \   0002B4   FA           MOV     R2,A
   \   0002B5   75F002       MOV     B,#0x2
   \   0002B8   E9           MOV     A,R1
   \   0002B9   A4           MUL     AB
   \   0002BA   2A           ADD     A,R2
   \   0002BB   F9           MOV     R1,A
   \   0002BC   74..         MOV     A,#(pgOff + 14) & 0xff
   \   0002BE   28           ADD     A,R0
   \   0002BF   F582         MOV     DPL,A
   \   0002C1   74..         MOV     A,#((pgOff - 242) >> 8) & 0xff
   \   0002C3   39           ADDC    A,R1
   \   0002C4   F583         MOV     DPH,A
   \   0002C6   C082         PUSH    DPL
   \   0002C8   C083         PUSH    DPH
   \   0002CA   85..82       MOV     DPL,?XSP + 0
   \   0002CD   85..83       MOV     DPH,?XSP + 1
   \   0002D0   E0           MOVX    A,@DPTR
   \   0002D1   F8           MOV     R0,A
   \   0002D2   A3           INC     DPTR
   \   0002D3   E0           MOVX    A,@DPTR
   \   0002D4   F9           MOV     R1,A
   \   0002D5   D083         POP     DPH
   \   0002D7   D082         POP     DPL
   \   0002D9   E0           MOVX    A,@DPTR
   \   0002DA   C3           CLR     C
   \   0002DB   98           SUBB    A,R0
   \   0002DC   F8           MOV     R0,A
   \   0002DD   A3           INC     DPTR
   \   0002DE   E0           MOVX    A,@DPTR
   \   0002DF   99           SUBB    A,R1
   \   0002E0   F9           MOV     R1,A
   \   0002E1   E8           MOV     A,R0
   \   0002E2   FE           MOV     R6,A
   \   0002E3   E9           MOV     A,R1
   \   0002E4   FF           MOV     R7,A
   1186                  tmp = calcChkF( dstPg, dstOff, hdr.len );
   \   0002E5                ; Setup parameters for call to function calcChkF
   \   0002E5   740A         MOV     A,#0xa
   \   0002E7   12....       LCALL   ?XSTACK_DISP0_8
   \   0002EA   E0           MOVX    A,@DPTR
   \   0002EB   FC           MOV     R4,A
   \   0002EC   A3           INC     DPTR
   \   0002ED   E0           MOVX    A,@DPTR
   \   0002EE   FD           MOV     R5,A
   \   0002EF   EE           MOV     A,R6
   \   0002F0   FA           MOV     R2,A
   \   0002F1   EF           MOV     A,R7
   \   0002F2   FB           MOV     R3,A
   \   0002F3   A9..         MOV     R1,?V0 + 2
   \   0002F5   12....       LCALL   ??calcChkF?relay
   \   0002F8   85..82       MOV     DPL,?XSP + 0
   \   0002FB   85..83       MOV     DPH,?XSP + 1
   \   0002FE   EA           MOV     A,R2
   \   0002FF   F0           MOVX    @DPTR,A
   \   000300   A3           INC     DPTR
   \   000301   EB           MOV     A,R3
   \   000302   F0           MOVX    @DPTR,A
   1187                  dstOff -= OSAL_NV_HDR_SIZE;
   \   000303   EE           MOV     A,R6
   \   000304   24F8         ADD     A,#-0x8
   \   000306   FE           MOV     R6,A
   \   000307   EF           MOV     A,R7
   \   000308   34FF         ADDC    A,#-0x1
   \   00030A   FF           MOV     R7,A
   1188                  writeWordH( dstPg, (dstOff+OSAL_NV_HDR_CHK), (uint8 *)&tmp );
   \   00030B                ; Setup parameters for call to function writeWordH
   \   00030B   85..82       MOV     DPL,?XSP + 0
   \   00030E   85..83       MOV     DPH,?XSP + 1
   \   000311   AC82         MOV     R4,DPL
   \   000313   AD83         MOV     R5,DPH
   \   000315   EE           MOV     A,R6
   \   000316   2404         ADD     A,#0x4
   \   000318   FA           MOV     R2,A
   \   000319   EF           MOV     A,R7
   \   00031A   3400         ADDC    A,#0x0
   \   00031C   FB           MOV     R3,A
   \   00031D   A9..         MOV     R1,?V0 + 2
   \   00031F   12....       LCALL   ??writeWordH?relay
   1189                  HalFlashRead(dstPg, dstOff, (uint8 *)(&hdr), OSAL_NV_HDR_SIZE);
   \   000322                ; Setup parameters for call to function HalFlashRead
   \   000322   75..08       MOV     ?V0 + 10,#0x8
   \   000325   75..00       MOV     ?V0 + 11,#0x0
   \   000328   78..         MOV     R0,#?V0 + 10
   \   00032A   12....       LCALL   ?PUSH_XSTACK_I_TWO
   \   00032D   740A         MOV     A,#0xa
   \   00032F   12....       LCALL   ?XSTACK_DISP0_8
   \   000332   AC82         MOV     R4,DPL
   \   000334   AD83         MOV     R5,DPH
   \   000336   EE           MOV     A,R6
   \   000337   FA           MOV     R2,A
   \   000338   EF           MOV     A,R7
   \   000339   FB           MOV     R3,A
   \   00033A   A9..         MOV     R1,?V0 + 2
   \   00033C   12....       LCALL   ??HalFlashRead?relay
   \   00033F   7402         MOV     A,#0x2
   \   000341   12....       LCALL   ?DEALLOC_XSTACK8
   1190          
   1191                  if ( tmp == hdr.chk )
   \   000344   85..82       MOV     DPL,?XSP + 0
   \   000347   85..83       MOV     DPH,?XSP + 1
   \   00034A   E0           MOVX    A,@DPTR
   \   00034B   F8           MOV     R0,A
   \   00034C   A3           INC     DPTR
   \   00034D   E0           MOVX    A,@DPTR
   \   00034E   F9           MOV     R1,A
   \   00034F   740C         MOV     A,#0xc
   \   000351   12....       LCALL   ?XSTACK_DISP0_8
   \   000354   E0           MOVX    A,@DPTR
   \   000355   68           XRL     A,R0
   \   000356   7003         JNZ     ??osal_nv_write_7
   \   000358   A3           INC     DPTR
   \   000359   E0           MOVX    A,@DPTR
   \   00035A   69           XRL     A,R1
   \                     ??osal_nv_write_7:
   \   00035B   7013         JNZ     ??osal_nv_write_8
   1192                  {
   1193                    setItem( srcPg, origOff, eNvZero );
   \   00035D                ; Setup parameters for call to function setItem
   \   00035D   7C01         MOV     R4,#0x1
   \   00035F   7404         MOV     A,#0x4
   \   000361   12....       LCALL   ?XSTACK_DISP0_8
   \   000364   E0           MOVX    A,@DPTR
   \   000365   FA           MOV     R2,A
   \   000366   A3           INC     DPTR
   \   000367   E0           MOVX    A,@DPTR
   \   000368   FB           MOV     R3,A
   \   000369   A9..         MOV     R1,?V0 + 6
   \   00036B   12....       LCALL   ??setItem?relay
   \   00036E   8003         SJMP    ??osal_nv_write_9
   1194                  }
   1195                  else
   1196                  {
   1197                    rtrn = NV_OPER_FAILED;
   \                     ??osal_nv_write_8:
   \   000370   75..0A       MOV     ?V0 + 3,#0xa
   1198                  }
   1199          
   1200                  if ( dstPg == pgRes )
   \                     ??osal_nv_write_9:
   \   000373   90....       MOV     DPTR,#pgRes
   \   000376   E0           MOVX    A,@DPTR
   \   000377   65..         XRL     A,?V0 + 2
   \   000379   700F         JNZ     ??osal_nv_write_0
   1201                  {
   1202                    compactPage( comPg );
   \   00037B                ; Setup parameters for call to function compactPage
   \   00037B   7402         MOV     A,#0x2
   \   00037D   12....       LCALL   ?XSTACK_DISP0_8
   \   000380   E0           MOVX    A,@DPTR
   \   000381   F9           MOV     R1,A
   \   000382   12....       LCALL   ??compactPage?relay
   \   000385   8003         SJMP    ??osal_nv_write_0
   1203                  }
   1204                }
   1205                else
   1206                {
   1207                  rtrn = NV_OPER_FAILED;
   \                     ??osal_nv_write_6:
   \   000387   75..0A       MOV     ?V0 + 3,#0xa
   1208                }
   1209              }
   1210            }
   1211          
   1212            if ( failF )
   \                     ??osal_nv_write_0:
   \   00038A   90....       MOV     DPTR,#failF
   \   00038D   E0           MOVX    A,@DPTR
   \   00038E   6007         JZ      ??osal_nv_write_10
   1213            {
   1214              (void)initNV();  // See comment at the declaration of failF.
   \   000390                ; Setup parameters for call to function initNV
   \   000390   12....       LCALL   ??initNV?relay
   \   000393   E9           MOV     A,R1
   1215              rtrn = NV_OPER_FAILED;
   \   000394   75..0A       MOV     ?V0 + 3,#0xa
   1216            }
   1217          
   1218            return rtrn;
   \                     ??osal_nv_write_10:
   \   000397   A9..         MOV     R1,?V0 + 3
   \                     ??osal_nv_write_2:
   \   000399   7410         MOV     A,#0x10
   \   00039B   12....       LCALL   ?DEALLOC_XSTACK8
   \   00039E   7F10         MOV     R7,#0x10
   \   0003A0   02....       LJMP    ?BANKED_LEAVE_XDATA
   1219          }
   1220          
   1221          /*********************************************************************
   1222           * @fn      osal_nv_read
   1223           *
   1224           * @brief   Read data from NV. This function can be used to read an entire item from NV or
   1225           *          an element of an item by indexing into the item with an offset.
   1226           *          Read data is copied into *buf.
   1227           *
   1228           * @param   id  - Valid NV item Id.
   1229           * @param   ndx - Index offset into item
   1230           * @param   len - Length of data to read.
   1231           * @param  *buf - Data is read into this buffer.
   1232           *
   1233           * @return  ZSUCCESS if NV data was copied to the parameter 'buf'.
   1234           *          Otherwise, NV_OPER_FAILED for failure.
   1235           */

   \                                 In  segment BANKED_CODE, align 1, keep-with-next
   1236          uint8 osal_nv_read( uint16 id, uint16 ndx, uint16 len, void *buf )
   \                     osal_nv_read:
   1237          {
   \   000000   74EE         MOV     A,#-0x12
   \   000002   12....       LCALL   ?BANKED_ENTER_XDATA
   \   000005                ; Saved register size: 18
   \   000005                ; Auto size: 0
   \   000005   8A..         MOV     ?V0 + 2,R2
   \   000007   8B..         MOV     ?V0 + 3,R3
   \   000009   8C..         MOV     ?V0 + 0,R4
   \   00000B   8D..         MOV     ?V0 + 1,R5
   \   00000D   7412         MOV     A,#0x12
   \   00000F   12....       LCALL   ?XSTACK_DISP0_8
   \   000012   E0           MOVX    A,@DPTR
   \   000013   F5..         MOV     ?V0 + 6,A
   \   000015   A3           INC     DPTR
   \   000016   E0           MOVX    A,@DPTR
   \   000017   F5..         MOV     ?V0 + 7,A
   \   000019   7414         MOV     A,#0x14
   \   00001B   12....       LCALL   ?XSTACK_DISP0_8
   \   00001E   E0           MOVX    A,@DPTR
   \   00001F   F5..         MOV     ?V0 + 4,A
   \   000021   A3           INC     DPTR
   \   000022   E0           MOVX    A,@DPTR
   \   000023   F5..         MOV     ?V0 + 5,A
   1238            uint16 offset;
   1239          
   1240            offset = findItem( id );
   \   000025                ; Setup parameters for call to function findItem
   \   000025   AA..         MOV     R2,?V0 + 2
   \   000027   AB..         MOV     R3,?V0 + 3
   \   000029   12....       LCALL   ??findItem?relay
   \   00002C   8A..         MOV     ?V0 + 8,R2
   \   00002E   8B..         MOV     ?V0 + 9,R3
   \   000030   AE..         MOV     R6,?V0 + 8
   \   000032   AF..         MOV     R7,?V0 + 9
   1241            if ( offset == OSAL_NV_ITEM_NULL )
   \   000034   EE           MOV     A,R6
   \   000035   4F           ORL     A,R7
   \   000036   7004         JNZ     ??osal_nv_read_0
   1242            {
   1243              return NV_OPER_FAILED;
   \   000038   790A         MOV     R1,#0xa
   \   00003A   8020         SJMP    ??osal_nv_read_1
   1244            }
   1245          
   1246            HalFlashRead(findPg, offset+ndx, buf, len);
   \                     ??osal_nv_read_0:
   \   00003C                ; Setup parameters for call to function HalFlashRead
   \   00003C   78..         MOV     R0,#?V0 + 6
   \   00003E   12....       LCALL   ?PUSH_XSTACK_I_TWO
   \   000041   AC..         MOV     R4,?V0 + 4
   \   000043   AD..         MOV     R5,?V0 + 5
   \   000045   EE           MOV     A,R6
   \   000046   25..         ADD     A,?V0 + 0
   \   000048   FA           MOV     R2,A
   \   000049   EF           MOV     A,R7
   \   00004A   35..         ADDC    A,?V0 + 1
   \   00004C   FB           MOV     R3,A
   \   00004D   90....       MOV     DPTR,#findPg
   \   000050   E0           MOVX    A,@DPTR
   \   000051   F9           MOV     R1,A
   \   000052   12....       LCALL   ??HalFlashRead?relay
   \   000055   7402         MOV     A,#0x2
   \   000057   12....       LCALL   ?DEALLOC_XSTACK8
   1247          
   1248            return ZSUCCESS;
   \   00005A   7900         MOV     R1,#0x0
   \                     ??osal_nv_read_1:
   \   00005C   7F0A         MOV     R7,#0xa
   \   00005E   02....       LJMP    ?BANKED_LEAVE_XDATA
   1249          }

   \                                 In  segment BANK_RELAYS, align 1
   \                     ??initNV?relay:
   \   000000   12....       LCALL   ?BDISPATCH
   \   000003   ......       DC24    initNV

   \                                 In  segment BANK_RELAYS, align 1
   \                     ??setPageUse?relay:
   \   000000   12....       LCALL   ?BDISPATCH
   \   000003   ......       DC24    setPageUse

   \                                 In  segment BANK_RELAYS, align 1
   \                     ??initPage?relay:
   \   000000   12....       LCALL   ?BDISPATCH
   \   000003   ......       DC24    initPage

   \                                 In  segment BANK_RELAYS, align 1
   \                     ??erasePage?relay:
   \   000000   12....       LCALL   ?BDISPATCH
   \   000003   ......       DC24    erasePage

   \                                 In  segment BANK_RELAYS, align 1
   \                     ??compactPage?relay:
   \   000000   12....       LCALL   ?BDISPATCH
   \   000003   ......       DC24    compactPage

   \                                 In  segment BANK_RELAYS, align 1
   \                     ??findItem?relay:
   \   000000   12....       LCALL   ?BDISPATCH
   \   000003   ......       DC24    findItem

   \                                 In  segment BANK_RELAYS, align 1
   \                     ??initItem?relay:
   \   000000   12....       LCALL   ?BDISPATCH
   \   000003   ......       DC24    initItem

   \                                 In  segment BANK_RELAYS, align 1
   \                     ??setItem?relay:
   \   000000   12....       LCALL   ?BDISPATCH
   \   000003   ......       DC24    setItem

   \                                 In  segment BANK_RELAYS, align 1
   \                     ??calcChkB?relay:
   \   000000   12....       LCALL   ?BDISPATCH
   \   000003   ......       DC24    calcChkB

   \                                 In  segment BANK_RELAYS, align 1
   \                     ??calcChkF?relay:
   \   000000   12....       LCALL   ?BDISPATCH
   \   000003   ......       DC24    calcChkF

   \                                 In  segment BANK_RELAYS, align 1
   \                     ??writeWord?relay:
   \   000000   12....       LCALL   ?BDISPATCH
   \   000003   ......       DC24    writeWord

   \                                 In  segment BANK_RELAYS, align 1
   \                     ??writeWordM?relay:
   \   000000   12....       LCALL   ?BDISPATCH
   \   000003   ......       DC24    writeWordM

   \                                 In  segment BANK_RELAYS, align 1
   \                     ??writeWordH?relay:
   \   000000   12....       LCALL   ?BDISPATCH
   \   000003   ......       DC24    writeWordH

   \                                 In  segment BANK_RELAYS, align 1
   \                     ??writeBuf?relay:
   \   000000   12....       LCALL   ?BDISPATCH
   \   000003   ......       DC24    writeBuf

   \                                 In  segment BANK_RELAYS, align 1
   \                     ??xferBuf?relay:
   \   000000   12....       LCALL   ?BDISPATCH
   \   000003   ......       DC24    xferBuf

   \                                 In  segment BANK_RELAYS, align 1
   \                     ??writeItem?relay:
   \   000000   12....       LCALL   ?BDISPATCH
   \   000003   ......       DC24    writeItem

   \                                 In  segment BANK_RELAYS, align 1
   \                     ??osal_nv_init?relay:
   \   000000   12....       LCALL   ?BDISPATCH
   \   000003   ......       DC24    osal_nv_init

   \                                 In  segment BANK_RELAYS, align 1
   \                     ??osal_nv_item_init?relay:
   \   000000   12....       LCALL   ?BDISPATCH
   \   000003   ......       DC24    osal_nv_item_init

   \                                 In  segment BANK_RELAYS, align 1
   \                     ??osal_nv_item_len?relay:
   \   000000   12....       LCALL   ?BDISPATCH
   \   000003   ......       DC24    osal_nv_item_len

   \                                 In  segment BANK_RELAYS, align 1
   \                     ??osal_nv_write?relay:
   \   000000   12....       LCALL   ?BDISPATCH
   \   000003   ......       DC24    osal_nv_write

   \                                 In  segment BANK_RELAYS, align 1
   \                     ??osal_nv_read?relay:
   \   000000   12....       LCALL   ?BDISPATCH
   \   000003   ......       DC24    osal_nv_read
   1250          
   1251          /*********************************************************************
   1252          *********************************************************************/

   Maximum stack usage in bytes:

   ISTACK PSTACK XSTACK Function
   ------ ------ ------ --------
       0      0     40  calcChkB
       0      0     62  calcChkF
                          0 0 22 -> HalFlashRead
       0      0     68  compactPage
                          0 0 26 -> HalFlashRead
                          0 0 24 -> calcChkF
                          0 0 24 -> erasePage
                          0 0 24 -> setItem
                          0 0 24 -> setPageUse
                          0 0 26 -> writeBuf
                          0 0 24 -> writeWordH
                          0 0 28 -> xferBuf
       0      0     33  erasePage
                          0 0  9 -> HalAdcCheckVdd
                          0 0  9 -> HalFlashErase
       0      0     54  findItem
                          0 0 14 -> findItem
                          0 0 14 -> initPage
       2      0     65  initItem
                          0 0 20 -> compactPage
                          0 0 23 -> writeItem
       0      0     62  initNV
                          0 0 22 -> HalFlashRead
                          0 0 20 -> compactPage
                          0 0 20 -> erasePage
                          0 0 20 -> initNV
                          0 0 20 -> initPage
                          0 0 20 -> setPageUse
       0      0     50  initPage
                          0 0 30 -> HalFlashRead
                          0 0 28 -> calcChkF
                          0 0 28 -> findItem
                          0 0 28 -> setItem
       0      0      9  osal_nv_init
                          0 0  9 -> initNV
       0      0     18  osal_nv_item_init
                          0 0 14 -> findItem
                          0 0 16 -> initItem
                          0 0 14 -> initNV
       0      0     22  osal_nv_item_len
                          0 0 22 -> HalFlashRead
                          0 0 20 -> findItem
       0      0     24  osal_nv_read
                          0 0 20 -> HalFlashRead
                          0 0 18 -> findItem
       2      0     48  osal_nv_write
                          0 0 42 -> HalFlashRead
                          0 0 40 -> calcChkF
                          0 0 40 -> compactPage
                          0 0 40 -> findItem
                          0 0 42 -> initItem
                          0 0 40 -> initNV
                          0 0 40 -> setItem
                          0 0 42 -> writeBuf
                          0 0 40 -> writeWordH
                          0 0 44 -> xferBuf
       0      0     62  setItem
                          0 0 22 -> HalFlashRead
                          0 0 20 -> writeWord
       0      0     47  setPageUse
                          0 0 17 -> writeWord
       1      0     66  writeBuf
                          0 0 24 -> HalFlashRead
                          0 0 22 -> writeWord
                          0 0 24 -> writeWordM
       0      0     55  writeItem
                          0 0 32 -> HalFlashRead
                          0 0 30 -> calcChkB
                          0 0 30 -> calcChkF
                          0 0 30 -> setPageUse
                          0 0 32 -> writeBuf
                          0 0 30 -> writeWord
                          0 0 30 -> writeWordH
       0      0     45  writeWord
                          0 0 13 -> HalAdcCheckVdd
                          0 0 15 -> HalFlashWrite
       1      0     55  writeWordH
                          0 0 15 -> writeWord
       0      0     41  writeWordM
                          0 0 15 -> HalAdcCheckVdd
                          0 0 17 -> HalFlashWrite
       0      0     69  xferBuf
                          0 0 25 -> HalFlashRead
                          0 0 23 -> writeWord


   Segment part sizes:

   Bytes  Function/Label
   -----  --------------
       6  ??calcChkB?relay
       6  ??calcChkF?relay
       6  ??compactPage?relay
       6  ??erasePage?relay
       6  ??findItem?relay
       6  ??initItem?relay
       6  ??initNV?relay
       6  ??initPage?relay
       6  ??osal_nv_init?relay
       6  ??osal_nv_item_init?relay
       6  ??osal_nv_item_len?relay
       6  ??osal_nv_read?relay
       6  ??osal_nv_write?relay
       6  ??setItem?relay
       6  ??setPageUse?relay
       6  ??writeBuf?relay
       6  ??writeItem?relay
       6  ??writeWord?relay
       6  ??writeWordH?relay
       6  ??writeWordM?relay
       6  ??xferBuf?relay
   12288  _nvBuf
       8  _nvIEEE
     147  calcChkB
     175  calcChkF
     555  compactPage
     117  erasePage
       1  failF
     102  findItem
       1  findPg
     385  initItem
     251  initNV
     612  initPage
      18  osal_nv_init
     103  osal_nv_item_init
     100  osal_nv_item_len
      97  osal_nv_read
     931  osal_nv_write
      12  pgLost
      12  pgOff
       1  pgRes
     249  setItem
      85  setPageUse
     489  writeBuf
     530  writeItem
      95  writeWord
      97  writeWordH
     101  writeWordM
     498  xferBuf

 
  5 737 bytes in segment BANKED_CODE
    126 bytes in segment BANK_RELAYS
      8 bytes in segment IEEE_ADDRESS_SPACE
     27 bytes in segment XDATA_Z
 12 288 bytes in segment ZIGNV_ADDRESS_SPACE
 
  5 863 bytes of CODE  memory
 12 323 bytes of XDATA memory

Errors: none
Warnings: none
