///////////////////////////////////////////////////////////////////////////////
//                                                                            /
// IAR C/C++ Compiler V8.20.2.41139 for 8051            11/Jan/2016  16:35:10 /
// Copyright 2004-2013 IAR Systems AB.                                        /
//                                                                            /
//    Core               =  plain                                             /
//    Code model         =  banked                                            /
//    Data model         =  large                                             /
//    Calling convention =  xdata reentrant                                   /
//    Constant location  =  data_rom                                          /
//    Dptr setup         =  1,16                                              /
//                                                                            /
//    Source file        =  C:\Users\ArnoldWorkStation\Desktop\ZigbeeTest\Com /
//                          ponents\stack\zdo\ZDSecMgr.c                      /
//    Command line       =  -f C:\Users\ArnoldWorkStation\Desktop\ZigbeeTest\ /
//                          Projects\zstack\Samples\SampleApp\CC2530DB\..\..\ /
//                          ..\Tools\CC2530DB\f8wCoord.cfg (-DCPU32MHZ        /
//                          -DROOT=__near_func -DMAC_CFG_APP_PENDING_QUEUE=TR /
//                          UE -DZDO_COORDINATOR -DRTR_NWK -DBLINK_LEDS) -f   /
//                          C:\Users\ArnoldWorkStation\Desktop\ZigbeeTest\Pro /
//                          jects\zstack\Samples\SampleApp\CC2530DB\..\..\..\ /
//                          Tools\CC2530DB\f8wConfig.cfg (-DSECURE=0          /
//                          -DZG_SECURE_DYNAMIC=0 -DREFLECTOR                 /
//                          -DDEFAULT_CHANLIST=0x00000800                     /
//                          -DZDAPP_CONFIG_PAN_ID=0xFFF1                      /
//                          -DNWK_START_DELAY=100 -DEXTENDED_JOINING_RANDOM_M /
//                          ASK=0x007F -DBEACON_REQUEST_DELAY=100             /
//                          -DBEACON_REQ_DELAY_MASK=0x00FF                    /
//                          -DROUTE_EXPIRY_TIME=30 -DAPSC_ACK_WAIT_DURATION_P /
//                          OLLED=3000 -DNWK_INDIRECT_MSG_TIMEOUT=7           /
//                          -DMAX_RREQ_ENTRIES=8 -DAPSC_MAX_FRAME_RETRIES=3   /
//                          -DNWK_MAX_DATA_RETRIES=2                          /
//                          -DMAX_POLL_FAILURE_RETRIES=2 -DMAX_BCAST=9        /
//                          -DAPS_MAX_GROUPS=16 -DMAX_RTG_ENTRIES=40          /
//                          -DNWK_MAX_BINDING_ENTRIES=4                       /
//                          -DMAX_BINDING_CLUSTER_IDS=4                       /
//                          "-DDEFAULT_KEY={0x01, 0x03, 0x05, 0x07, 0x09,     /
//                          0x0B, 0x0D, 0x0F, 0x00, 0x02, 0x04, 0x06, 0x08,   /
//                          0x0A, 0x0C, 0x0D}" -DMAC_MAX_FRAME_SIZE=116       /
//                          "-DCONST=const __code" -DGENERIC=__generic        /
//                          -DRFD_RCVC_ALWAYS_ON=TRUE -DPOLL_RATE=1000        /
//                          -DQUEUED_POLL_RATE=100 -DRESPONSE_POLL_RATE=100)  /
//                          -DREJOIN_POLL_RATE=440 C:\Users\ArnoldWorkStation /
//                          \Desktop\ZigbeeTest\Components\stack\zdo\ZDSecMgr /
//                          .c -D ZIGBEEPRO -D ZTOOL_P1 -D xMT_TASK -D        /
//                          xMT_SYS_FUNC -D xMT_ZDO_FUNC -D                   /
//                          LCD_SUPPORTED=DEBUG -lC                           /
//                          C:\Users\ArnoldWorkStation\Desktop\ZigbeeTest\Pro /
//                          jects\zstack\Samples\SampleApp\CC2530DB\Coordinat /
//                          orEB-Pro\List\ -lA C:\Users\ArnoldWorkStation\Des /
//                          ktop\ZigbeeTest\Projects\zstack\Samples\SampleApp /
//                          \CC2530DB\CoordinatorEB-Pro\List\                 /
//                          --diag_suppress Pe001,Pa010 -o                    /
//                          C:\Users\ArnoldWorkStation\Desktop\ZigbeeTest\Pro /
//                          jects\zstack\Samples\SampleApp\CC2530DB\Coordinat /
//                          orEB-Pro\Obj\ -e --no_cse --no_unroll             /
//                          --no_inline --no_code_motion --no_tbaa --debug    /
//                          --core=plain --dptr=16,1 --data_model=large       /
//                          --code_model=banked --calling_convention=xdata_re /
//                          entrant --place_constants=data_rom                /
//                          --nr_virtual_regs 16 -I                           /
//                          C:\Users\ArnoldWorkStation\Desktop\ZigbeeTest\Pro /
//                          jects\zstack\Samples\SampleApp\CC2530DB\ -I       /
//                          C:\Users\ArnoldWorkStation\Desktop\ZigbeeTest\Pro /
//                          jects\zstack\Samples\SampleApp\CC2530DB\..\SOURCE /
//                          \ -I C:\Users\ArnoldWorkStation\Desktop\ZigbeeTes /
//                          t\Projects\zstack\Samples\SampleApp\CC2530DB\..\. /
//                          .\..\ZMAIN\TI2530DB\ -I                           /
//                          C:\Users\ArnoldWorkStation\Desktop\ZigbeeTest\Pro /
//                          jects\zstack\Samples\SampleApp\CC2530DB\..\..\..\ /
//                          ..\..\COMPONENTS\MT\ -I                           /
//                          C:\Users\ArnoldWorkStation\Desktop\ZigbeeTest\Pro /
//                          jects\zstack\Samples\SampleApp\CC2530DB\..\..\..\ /
//                          ..\..\COMPONENTS\HAL\INCLUDE\ -I                  /
//                          C:\Users\ArnoldWorkStation\Desktop\ZigbeeTest\Pro /
//                          jects\zstack\Samples\SampleApp\CC2530DB\..\..\..\ /
//                          ..\..\COMPONENTS\HAL\TARGET\CC2530EB\ -I          /
//                          C:\Users\ArnoldWorkStation\Desktop\ZigbeeTest\Pro /
//                          jects\zstack\Samples\SampleApp\CC2530DB\..\..\..\ /
//                          ..\..\COMPONENTS\OSAL\MCU\CCSOC\ -I               /
//                          C:\Users\ArnoldWorkStation\Desktop\ZigbeeTest\Pro /
//                          jects\zstack\Samples\SampleApp\CC2530DB\..\..\..\ /
//                          ..\..\COMPONENTS\OSAL\INCLUDE\ -I                 /
//                          C:\Users\ArnoldWorkStation\Desktop\ZigbeeTest\Pro /
//                          jects\zstack\Samples\SampleApp\CC2530DB\..\..\..\ /
//                          ..\..\COMPONENTS\STACK\AF\ -I                     /
//                          C:\Users\ArnoldWorkStation\Desktop\ZigbeeTest\Pro /
//                          jects\zstack\Samples\SampleApp\CC2530DB\..\..\..\ /
//                          ..\..\COMPONENTS\STACK\NWK\ -I                    /
//                          C:\Users\ArnoldWorkStation\Desktop\ZigbeeTest\Pro /
//                          jects\zstack\Samples\SampleApp\CC2530DB\..\..\..\ /
//                          ..\..\COMPONENTS\STACK\SEC\ -I                    /
//                          C:\Users\ArnoldWorkStation\Desktop\ZigbeeTest\Pro /
//                          jects\zstack\Samples\SampleApp\CC2530DB\..\..\..\ /
//                          ..\..\COMPONENTS\STACK\SAPI\ -I                   /
//                          C:\Users\ArnoldWorkStation\Desktop\ZigbeeTest\Pro /
//                          jects\zstack\Samples\SampleApp\CC2530DB\..\..\..\ /
//                          ..\..\COMPONENTS\STACK\SYS\ -I                    /
//                          C:\Users\ArnoldWorkStation\Desktop\ZigbeeTest\Pro /
//                          jects\zstack\Samples\SampleApp\CC2530DB\..\..\..\ /
//                          ..\..\COMPONENTS\STACK\ZDO\ -I                    /
//                          C:\Users\ArnoldWorkStation\Desktop\ZigbeeTest\Pro /
//                          jects\zstack\Samples\SampleApp\CC2530DB\..\..\..\ /
//                          ..\..\COMPONENTS\ZMAC\F8W\ -I                     /
//                          C:\Users\ArnoldWorkStation\Desktop\ZigbeeTest\Pro /
//                          jects\zstack\Samples\SampleApp\CC2530DB\..\..\..\ /
//                          ..\..\COMPONENTS\ZMAC\ -I                         /
//                          C:\Users\ArnoldWorkStation\Desktop\ZigbeeTest\Pro /
//                          jects\zstack\Samples\SampleApp\CC2530DB\..\..\..\ /
//                          ..\..\COMPONENTS\SERVICES\SADDR\ -I               /
//                          C:\Users\ArnoldWorkStation\Desktop\ZigbeeTest\Pro /
//                          jects\zstack\Samples\SampleApp\CC2530DB\..\..\..\ /
//                          ..\..\COMPONENTS\SERVICES\SDATA\ -I               /
//                          C:\Users\ArnoldWorkStation\Desktop\ZigbeeTest\Pro /
//                          jects\zstack\Samples\SampleApp\CC2530DB\..\..\..\ /
//                          ..\..\COMPONENTS\MAC\INCLUDE\ -I                  /
//                          C:\Users\ArnoldWorkStation\Desktop\ZigbeeTest\Pro /
//                          jects\zstack\Samples\SampleApp\CC2530DB\..\..\..\ /
//                          ..\..\COMPONENTS\MAC\HIGH_LEVEL\ -I               /
//                          C:\Users\ArnoldWorkStation\Desktop\ZigbeeTest\Pro /
//                          jects\zstack\Samples\SampleApp\CC2530DB\..\..\..\ /
//                          ..\..\COMPONENTS\MAC\LOW_LEVEL\srf04\ -I          /
//                          C:\Users\ArnoldWorkStation\Desktop\ZigbeeTest\Pro /
//                          jects\zstack\Samples\SampleApp\CC2530DB\..\..\..\ /
//                          ..\..\COMPONENTS\MAC\LOW_LEVEL\srf04\SINGLE_CHIP\ /
//                           -On --require_prototypes                         /
//    List file          =  C:\Users\ArnoldWorkStation\Desktop\ZigbeeTest\Pro /
//                          jects\zstack\Samples\SampleApp\CC2530DB\Coordinat /
//                          orEB-Pro\List\ZDSecMgr.s51                        /
//                                                                            /
//                                                                            /
///////////////////////////////////////////////////////////////////////////////

        NAME ZDSecMgr

        RTMODEL "__SystemLibrary", "CLib"
        RTMODEL "__calling_convention", "xdata_reentrant"
        RTMODEL "__code_model", "banked"
        RTMODEL "__core", "plain"
        RTMODEL "__data_model", "large"
        RTMODEL "__dptr_size", "16"
        RTMODEL "__extended_stack", "disabled"
        RTMODEL "__location_for_constants", "data"
        RTMODEL "__number_of_dptrs", "1"
        RTMODEL "__rt_version", "1"

        RSEG DOVERLAY:DATA:NOROOT(0)
        RSEG IOVERLAY:IDATA:NOROOT(0)
        RSEG ISTACK:IDATA:NOROOT(0)
        RSEG PSTACK:XDATA:NOROOT(0)
        RSEG XSTACK:XDATA:NOROOT(0)

        EXTERN ?ALLOC_XSTACK8
        EXTERN ?BANKED_ENTER_XDATA
        EXTERN ?BANKED_LEAVE_XDATA
        EXTERN ?BDISPATCH
        EXTERN ?BRET
        EXTERN ?DEALLOC_XSTACK8
        EXTERN ?L_ADD_TO_X
        EXTERN ?L_ADD_X
        EXTERN ?L_MOV_X
        EXTERN ?PUSH_XSTACK8_X_TWO
        EXTERN ?PUSH_XSTACK_I_THREE
        EXTERN ?PUSH_XSTACK_I_TWO
        EXTERN ?UL_GT_X
        EXTERN ?V0
        EXTERN ?XLOAD_R2345
        EXTERN ?XSP
        EXTERN ?XSTACK_DISP0_8
        EXTERN ?XSTORE_R2345
        EXTERN __INIT_XDATA_I
        EXTERN __INIT_XDATA_Z

        PUBLIC ??APSME_IsDefaultTCLK?relay
        FUNCTION ??APSME_IsDefaultTCLK?relay,0203H
        PUBLIC ??APSME_KeyFwdToChild?relay
        FUNCTION ??APSME_KeyFwdToChild?relay,0203H
        PUBLIC ??APSME_LinkKeyDataGet?relay
        FUNCTION ??APSME_LinkKeyDataGet?relay,0203H
        PUBLIC ??APSME_LinkKeySet?relay
        FUNCTION ??APSME_LinkKeySet?relay,0203H
        PUBLIC ??APSME_MasterKeyGet?relay
        FUNCTION ??APSME_MasterKeyGet?relay,0203H
        PUBLIC ??APSME_SKA_TimerExpired?relay
        FUNCTION ??APSME_SKA_TimerExpired?relay,0203H
        PUBLIC ??APSME_TCLinkKeyInit?relay
        FUNCTION ??APSME_TCLinkKeyInit?relay,0203H
        PUBLIC ??APSME_TCLinkKeyLoad?relay
        FUNCTION ??APSME_TCLinkKeyLoad?relay,0203H
        PUBLIC ??APSME_TCLinkKeySync?relay
        FUNCTION ??APSME_TCLinkKeySync?relay,0203H
        PUBLIC ??ZDSecMgrAPSRemove?relay
        FUNCTION ??ZDSecMgrAPSRemove?relay,0203H
        PUBLIC ??ZDSecMgrAddLinkKey?relay
        FUNCTION ??ZDSecMgrAddLinkKey?relay,0203H
        PUBLIC ??ZDSecMgrAddrMgrUpdate?relay
        FUNCTION ??ZDSecMgrAddrMgrUpdate?relay,0203H
        PUBLIC ??ZDSecMgrAddrStore?relay
        FUNCTION ??ZDSecMgrAddrStore?relay,0203H
        PUBLIC ??ZDSecMgrAppKeyGet?relay
        FUNCTION ??ZDSecMgrAppKeyGet?relay,0203H
        PUBLIC ??ZDSecMgrAppKeyReq?relay
        FUNCTION ??ZDSecMgrAppKeyReq?relay,0203H
        PUBLIC ??ZDSecMgrAppKeyTypeSet?relay
        FUNCTION ??ZDSecMgrAppKeyTypeSet?relay,0203H
        PUBLIC ??ZDSecMgrAssocDeviceAuth?relay
        FUNCTION ??ZDSecMgrAssocDeviceAuth?relay,0203H
        PUBLIC ??ZDSecMgrAuthInitiate?relay
        FUNCTION ??ZDSecMgrAuthInitiate?relay,0203H
        PUBLIC ??ZDSecMgrAuthNwkKey?relay
        FUNCTION ??ZDSecMgrAuthNwkKey?relay,0203H
        PUBLIC ??ZDSecMgrAuthenticateCfm?relay
        FUNCTION ??ZDSecMgrAuthenticateCfm?relay,0203H
        PUBLIC ??ZDSecMgrAuthenticateInd?relay
        FUNCTION ??ZDSecMgrAuthenticateInd?relay,0203H
        PUBLIC ??ZDSecMgrAuthenticationCheck?relay
        FUNCTION ??ZDSecMgrAuthenticationCheck?relay,0203H
        PUBLIC ??ZDSecMgrAuthenticationSet?relay
        FUNCTION ??ZDSecMgrAuthenticationSet?relay,0203H
        PUBLIC ??ZDSecMgrConfig?relay
        FUNCTION ??ZDSecMgrConfig?relay,0203H
        PUBLIC ??ZDSecMgrCtrlAdd?relay
        FUNCTION ??ZDSecMgrCtrlAdd?relay,0203H
        PUBLIC ??ZDSecMgrCtrlInit?relay
        FUNCTION ??ZDSecMgrCtrlInit?relay,0203H
        PUBLIC ??ZDSecMgrCtrlLookup?relay
        FUNCTION ??ZDSecMgrCtrlLookup?relay,0203H
        PUBLIC ??ZDSecMgrCtrlRelease?relay
        FUNCTION ??ZDSecMgrCtrlRelease?relay,0203H
        PUBLIC ??ZDSecMgrCtrlReset?relay
        FUNCTION ??ZDSecMgrCtrlReset?relay,0203H
        PUBLIC ??ZDSecMgrCtrlSet?relay
        FUNCTION ??ZDSecMgrCtrlSet?relay,0203H
        PUBLIC ??ZDSecMgrCtrlTerm?relay
        FUNCTION ??ZDSecMgrCtrlTerm?relay,0203H
        PUBLIC ??ZDSecMgrDeviceCtrlHandler?relay
        FUNCTION ??ZDSecMgrDeviceCtrlHandler?relay,0203H
        PUBLIC ??ZDSecMgrDeviceCtrlSetup?relay
        FUNCTION ??ZDSecMgrDeviceCtrlSetup?relay,0203H
        PUBLIC ??ZDSecMgrDeviceCtrlUpdate?relay
        FUNCTION ??ZDSecMgrDeviceCtrlUpdate?relay,0203H
        PUBLIC ??ZDSecMgrDeviceEntryAdd?relay
        FUNCTION ??ZDSecMgrDeviceEntryAdd?relay,0203H
        PUBLIC ??ZDSecMgrDeviceEntryRemove?relay
        FUNCTION ??ZDSecMgrDeviceEntryRemove?relay,0203H
        PUBLIC ??ZDSecMgrDeviceJoin?relay
        FUNCTION ??ZDSecMgrDeviceJoin?relay,0203H
        PUBLIC ??ZDSecMgrDeviceJoinDirect?relay
        FUNCTION ??ZDSecMgrDeviceJoinDirect?relay,0203H
        PUBLIC ??ZDSecMgrDeviceJoinFwd?relay
        FUNCTION ??ZDSecMgrDeviceJoinFwd?relay,0203H
        PUBLIC ??ZDSecMgrDeviceNew?relay
        FUNCTION ??ZDSecMgrDeviceNew?relay,0203H
        PUBLIC ??ZDSecMgrDeviceRemove?relay
        FUNCTION ??ZDSecMgrDeviceRemove?relay,0203H
        PUBLIC ??ZDSecMgrDeviceRemoveByExtAddr?relay
        FUNCTION ??ZDSecMgrDeviceRemoveByExtAddr?relay,0203H
        PUBLIC ??ZDSecMgrDeviceValidate?relay
        FUNCTION ??ZDSecMgrDeviceValidate?relay,0203H
        PUBLIC ??ZDSecMgrDeviceValidateCM?relay
        FUNCTION ??ZDSecMgrDeviceValidateCM?relay,0203H
        PUBLIC ??ZDSecMgrDeviceValidateRM?relay
        FUNCTION ??ZDSecMgrDeviceValidateRM?relay,0203H
        PUBLIC ??ZDSecMgrDeviceValidateSKKE?relay
        FUNCTION ??ZDSecMgrDeviceValidateSKKE?relay,0203H
        PUBLIC ??ZDSecMgrEntryFree?relay
        FUNCTION ??ZDSecMgrEntryFree?relay,0203H
        PUBLIC ??ZDSecMgrEntryInit?relay
        FUNCTION ??ZDSecMgrEntryInit?relay,0203H
        PUBLIC ??ZDSecMgrEntryLookup?relay
        FUNCTION ??ZDSecMgrEntryLookup?relay,0203H
        PUBLIC ??ZDSecMgrEntryLookupAMI?relay
        FUNCTION ??ZDSecMgrEntryLookupAMI?relay,0203H
        PUBLIC ??ZDSecMgrEntryLookupExt?relay
        FUNCTION ??ZDSecMgrEntryLookupExt?relay,0203H
        PUBLIC ??ZDSecMgrEntryNew?relay
        FUNCTION ??ZDSecMgrEntryNew?relay,0203H
        PUBLIC ??ZDSecMgrEstablishKey?relay
        FUNCTION ??ZDSecMgrEstablishKey?relay,0203H
        PUBLIC ??ZDSecMgrEstablishKeyCfm?relay
        FUNCTION ??ZDSecMgrEstablishKeyCfm?relay,0203H
        PUBLIC ??ZDSecMgrEstablishKeyInd?relay
        FUNCTION ??ZDSecMgrEstablishKeyInd?relay,0203H
        PUBLIC ??ZDSecMgrEvent?relay
        FUNCTION ??ZDSecMgrEvent?relay,0203H
        PUBLIC ??ZDSecMgrExtAddrLookup?relay
        FUNCTION ??ZDSecMgrExtAddrLookup?relay,0203H
        PUBLIC ??ZDSecMgrExtAddrStore?relay
        FUNCTION ??ZDSecMgrExtAddrStore?relay,0203H
        PUBLIC ??ZDSecMgrInit?relay
        FUNCTION ??ZDSecMgrInit?relay,0203H
        PUBLIC ??ZDSecMgrMasterKeyInit?relay
        FUNCTION ??ZDSecMgrMasterKeyInit?relay,0203H
        PUBLIC ??ZDSecMgrMasterKeyLoad?relay
        FUNCTION ??ZDSecMgrMasterKeyLoad?relay,0203H
        PUBLIC ??ZDSecMgrMasterKeyLookup?relay
        FUNCTION ??ZDSecMgrMasterKeyLookup?relay,0203H
        PUBLIC ??ZDSecMgrMasterKeyStore?relay
        FUNCTION ??ZDSecMgrMasterKeyStore?relay,0203H
        PUBLIC ??ZDSecMgrNewDeviceEvent?relay
        FUNCTION ??ZDSecMgrNewDeviceEvent?relay,0203H
        PUBLIC ??ZDSecMgrPermitJoining?relay
        FUNCTION ??ZDSecMgrPermitJoining?relay,0203H
        PUBLIC ??ZDSecMgrPermitJoiningTimeout?relay
        FUNCTION ??ZDSecMgrPermitJoiningTimeout?relay,0203H
        PUBLIC ??ZDSecMgrRemoveDeviceInd?relay
        FUNCTION ??ZDSecMgrRemoveDeviceInd?relay,0203H
        PUBLIC ??ZDSecMgrRequestKeyInd?relay
        FUNCTION ??ZDSecMgrRequestKeyInd?relay,0203H
        PUBLIC ??ZDSecMgrSendMasterKey?relay
        FUNCTION ??ZDSecMgrSendMasterKey?relay,0203H
        PUBLIC ??ZDSecMgrSendNwkKey?relay
        FUNCTION ??ZDSecMgrSendNwkKey?relay,0203H
        PUBLIC ??ZDSecMgrSwitchKeyInd?relay
        FUNCTION ??ZDSecMgrSwitchKeyInd?relay,0203H
        PUBLIC ??ZDSecMgrSwitchNwkKey?relay
        FUNCTION ??ZDSecMgrSwitchNwkKey?relay,0203H
        PUBLIC ??ZDSecMgrTCDataLoad?relay
        FUNCTION ??ZDSecMgrTCDataLoad?relay,0203H
        PUBLIC ??ZDSecMgrTCExtAddrCheck?relay
        FUNCTION ??ZDSecMgrTCExtAddrCheck?relay,0203H
        PUBLIC ??ZDSecMgrTransportKeyInd?relay
        FUNCTION ??ZDSecMgrTransportKeyInd?relay,0203H
        PUBLIC ??ZDSecMgrUpdateDeviceInd?relay
        FUNCTION ??ZDSecMgrUpdateDeviceInd?relay,0203H
        PUBLIC ??ZDSecMgrUpdateNwkKey?relay
        FUNCTION ??ZDSecMgrUpdateNwkKey?relay,0203H
        PUBLIC APSME_IsDefaultTCLK
        FUNCTION APSME_IsDefaultTCLK,0203H
        ARGFRAME XSTACK, 61, STACK
        ARGFRAME IOVERLAY, 0, STATIC
        ARGFRAME DOVERLAY, 0, STATIC
        LOCFRAME XSTACK, 9, STACK
        PUBLIC APSME_KeyFwdToChild
        FUNCTION APSME_KeyFwdToChild,021203H
        ARGFRAME XSTACK, 0, STACK
        LOCFRAME XSTACK, 9, STACK
        PUBLIC APSME_LinkKeyDataGet
        FUNCTION APSME_LinkKeyDataGet,021203H
        ARGFRAME XSTACK, 0, STACK
        LOCFRAME XSTACK, 13, STACK
        PUBLIC APSME_LinkKeySet
        FUNCTION APSME_LinkKeySet,021203H
        ARGFRAME XSTACK, 18, STACK
        ARGFRAME IOVERLAY, 0, STATIC
        ARGFRAME DOVERLAY, 0, STATIC
        LOCFRAME XSTACK, 20, STACK
        PUBLIC APSME_MasterKeyGet
        FUNCTION APSME_MasterKeyGet,021203H
        ARGFRAME XSTACK, 0, STACK
        LOCFRAME XSTACK, 13, STACK
        PUBLIC APSME_SKA_TimerExpired
        FUNCTION APSME_SKA_TimerExpired,021203H
        ARGFRAME XSTACK, 0, STACK
        LOCFRAME XSTACK, 9, STACK
        PUBLIC APSME_TCLinkKeyInit
        FUNCTION APSME_TCLinkKeyInit,021203H
        ARGFRAME XSTACK, 0, STACK
        LOCFRAME XSTACK, 46, STACK
        PUBLIC APSME_TCLinkKeyLoad
        FUNCTION APSME_TCLinkKeyLoad,021203H
        ARGFRAME XSTACK, 0, STACK
        LOCFRAME XSTACK, 65, STACK
        PUBLIC APSME_TCLinkKeySync
        FUNCTION APSME_TCLinkKeySync,021203H
        ARGFRAME XSTACK, 0, STACK
        LOCFRAME XSTACK, 54, STACK
        PUBLIC TrustCenterLinkKey
        PUBLIC ZDSecMgrAPSRemove
        FUNCTION ZDSecMgrAPSRemove,021203H
        ARGFRAME XSTACK, 2, STACK
        LOCFRAME XSTACK, 22, STACK
        PUBLIC ZDSecMgrAddLinkKey
        FUNCTION ZDSecMgrAddLinkKey,021203H
        ARGFRAME XSTACK, 2, STACK
        LOCFRAME XSTACK, 20, STACK
        PUBLIC ZDSecMgrAddrMgrUpdate
        FUNCTION ZDSecMgrAddrMgrUpdate,021203H
        ARGFRAME XSTACK, 13, STACK
        ARGFRAME IOVERLAY, 0, STATIC
        ARGFRAME DOVERLAY, 0, STATIC
        LOCFRAME XSTACK, 23, STACK
        PUBLIC ZDSecMgrAddrStore
        FUNCTION ZDSecMgrAddrStore,021203H
        ARGFRAME XSTACK, 20, STACK
        ARGFRAME IOVERLAY, 0, STATIC
        ARGFRAME DOVERLAY, 0, STATIC
        LOCFRAME XSTACK, 26, STACK
        PUBLIC ZDSecMgrAppKeyGet
        FUNCTION ZDSecMgrAppKeyGet,021203H
        ARGFRAME XSTACK, 57, STACK
        ARGFRAME IOVERLAY, 0, STATIC
        ARGFRAME DOVERLAY, 0, STATIC
        LOCFRAME ISTACK, 1, STACK
        LOCFRAME XSTACK, 18, STACK
        PUBLIC ZDSecMgrAppKeyReq
        FUNCTION ZDSecMgrAppKeyReq,021203H
        ARGFRAME XSTACK, 9, STACK
        ARGFRAME IOVERLAY, 0, STATIC
        ARGFRAME DOVERLAY, 0, STATIC
        LOCFRAME XSTACK, 57, STACK
        PUBLIC ZDSecMgrAppKeyType
        PUBLIC ZDSecMgrAppKeyTypeSet
        FUNCTION ZDSecMgrAppKeyTypeSet,0203H
        ARGFRAME XSTACK, 0, STACK
        LOCFRAME ISTACK, 2, STACK
        PUBLIC ZDSecMgrAssocDeviceAuth
        FUNCTION ZDSecMgrAssocDeviceAuth,0203H
        ARGFRAME XSTACK, 35, STACK
        ARGFRAME IOVERLAY, 0, STATIC
        ARGFRAME DOVERLAY, 0, STATIC
        LOCFRAME ISTACK, 2, STACK
        PUBLIC ZDSecMgrAuthInitiate
        FUNCTION ZDSecMgrAuthInitiate,021203H
        ARGFRAME XSTACK, 0, STACK
        LOCFRAME XSTACK, 16, STACK
        PUBLIC ZDSecMgrAuthNwkKey
        FUNCTION ZDSecMgrAuthNwkKey,021203H
        ARGFRAME XSTACK, 11, STACK
        ARGFRAME IOVERLAY, 0, STATIC
        ARGFRAME DOVERLAY, 0, STATIC
        LOCFRAME ISTACK, 2, STACK
        PUBLIC ZDSecMgrAuthenticateCfm
        FUNCTION ZDSecMgrAuthenticateCfm,021203H
        ARGFRAME XSTACK, 0, STACK
        LOCFRAME XSTACK, 9, STACK
        PUBLIC ZDSecMgrAuthenticateInd
        FUNCTION ZDSecMgrAuthenticateInd,021203H
        ARGFRAME XSTACK, 0, STACK
        LOCFRAME XSTACK, 29, STACK
        PUBLIC ZDSecMgrAuthenticationCheck
        FUNCTION ZDSecMgrAuthenticationCheck,0203H
        ARGFRAME XSTACK, 0, STACK
        PUBLIC ZDSecMgrAuthenticationSet
        FUNCTION ZDSecMgrAuthenticationSet,021203H
        ARGFRAME XSTACK, 0, STACK
        LOCFRAME ISTACK, 1, STACK
        LOCFRAME XSTACK, 12, STACK
        PUBLIC ZDSecMgrConfig
        FUNCTION ZDSecMgrConfig,021203H
        ARGFRAME XSTACK, 9, STACK
        ARGFRAME IOVERLAY, 0, STATIC
        ARGFRAME DOVERLAY, 0, STATIC
        LOCFRAME ISTACK, 2, STACK
        PUBLIC ZDSecMgrCtrlAdd
        FUNCTION ZDSecMgrCtrlAdd,021203H
        ARGFRAME XSTACK, 13, STACK
        ARGFRAME IOVERLAY, 0, STATIC
        ARGFRAME DOVERLAY, 0, STATIC
        LOCFRAME XSTACK, 18, STACK
        PUBLIC ZDSecMgrCtrlData
        PUBLIC ZDSecMgrCtrlInit
        FUNCTION ZDSecMgrCtrlInit,021203H
        ARGFRAME XSTACK, 0, STACK
        LOCFRAME XSTACK, 10, STACK
        PUBLIC ZDSecMgrCtrlLookup
        FUNCTION ZDSecMgrCtrlLookup,0203H
        ARGFRAME XSTACK, 13, STACK
        ARGFRAME IOVERLAY, 0, STATIC
        ARGFRAME DOVERLAY, 0, STATIC
        LOCFRAME XSTACK, 9, STACK
        PUBLIC ZDSecMgrCtrlRelease
        FUNCTION ZDSecMgrCtrlRelease,0203H
        ARGFRAME XSTACK, 11, STACK
        ARGFRAME IOVERLAY, 0, STATIC
        ARGFRAME DOVERLAY, 0, STATIC
        LOCFRAME ISTACK, 2, STACK
        PUBLIC ZDSecMgrCtrlReset
        FUNCTION ZDSecMgrCtrlReset,021203H
        ARGFRAME XSTACK, 13, STACK
        ARGFRAME IOVERLAY, 0, STATIC
        ARGFRAME DOVERLAY, 0, STATIC
        LOCFRAME XSTACK, 15, STACK
        PUBLIC ZDSecMgrCtrlSet
        FUNCTION ZDSecMgrCtrlSet,0203H
        ARGFRAME XSTACK, 18, STACK
        ARGFRAME IOVERLAY, 0, STATIC
        ARGFRAME DOVERLAY, 0, STATIC
        LOCFRAME ISTACK, 1, STACK
        LOCFRAME XSTACK, 9, STACK
        PUBLIC ZDSecMgrCtrlTerm
        FUNCTION ZDSecMgrCtrlTerm,021203H
        ARGFRAME XSTACK, 9, STACK
        ARGFRAME IOVERLAY, 0, STATIC
        ARGFRAME DOVERLAY, 0, STATIC
        LOCFRAME XSTACK, 11, STACK
        PUBLIC ZDSecMgrDeviceCtrlHandler
        FUNCTION ZDSecMgrDeviceCtrlHandler,021203H
        ARGFRAME XSTACK, 33, STACK
        ARGFRAME IOVERLAY, 0, STATIC
        ARGFRAME DOVERLAY, 0, STATIC
        LOCFRAME ISTACK, 1, STACK
        LOCFRAME XSTACK, 10, STACK
        PUBLIC ZDSecMgrDeviceCtrlSetup
        FUNCTION ZDSecMgrDeviceCtrlSetup,021203H
        ARGFRAME XSTACK, 0, STACK
        LOCFRAME XSTACK, 9, STACK
        PUBLIC ZDSecMgrDeviceCtrlUpdate
        FUNCTION ZDSecMgrDeviceCtrlUpdate,021203H
        ARGFRAME XSTACK, 9, STACK
        ARGFRAME IOVERLAY, 0, STATIC
        ARGFRAME DOVERLAY, 0, STATIC
        LOCFRAME XSTACK, 13, STACK
        PUBLIC ZDSecMgrDeviceEntryAdd
        FUNCTION ZDSecMgrDeviceEntryAdd,021203H
        ARGFRAME XSTACK, 15, STACK
        ARGFRAME IOVERLAY, 0, STATIC
        ARGFRAME DOVERLAY, 0, STATIC
        LOCFRAME XSTACK, 13, STACK
        PUBLIC ZDSecMgrDeviceEntryRemove
        FUNCTION ZDSecMgrDeviceEntryRemove,021203H
        ARGFRAME XSTACK, 13, STACK
        ARGFRAME IOVERLAY, 0, STATIC
        ARGFRAME DOVERLAY, 0, STATIC
        LOCFRAME XSTACK, 9, STACK
        PUBLIC ZDSecMgrDeviceJoin
        FUNCTION ZDSecMgrDeviceJoin,021203H
        ARGFRAME XSTACK, 19, STACK
        ARGFRAME IOVERLAY, 0, STATIC
        ARGFRAME DOVERLAY, 0, STATIC
        LOCFRAME XSTACK, 15, STACK
        PUBLIC ZDSecMgrDeviceJoinDirect
        FUNCTION ZDSecMgrDeviceJoinDirect,021203H
        ARGFRAME XSTACK, 9, STACK
        ARGFRAME IOVERLAY, 0, STATIC
        ARGFRAME DOVERLAY, 0, STATIC
        LOCFRAME XSTACK, 9, STACK
        PUBLIC ZDSecMgrDeviceJoinFwd
        FUNCTION ZDSecMgrDeviceJoinFwd,021203H
        ARGFRAME XSTACK, 0, STACK
        LOCFRAME XSTACK, 17, STACK
        PUBLIC ZDSecMgrDeviceNew
        FUNCTION ZDSecMgrDeviceNew,021203H
        ARGFRAME XSTACK, 35, STACK
        ARGFRAME IOVERLAY, 0, STATIC
        ARGFRAME DOVERLAY, 0, STATIC
        LOCFRAME XSTACK, 9, STACK
        PUBLIC ZDSecMgrDeviceRemove
        FUNCTION ZDSecMgrDeviceRemove,021203H
        ARGFRAME XSTACK, 22, STACK
        ARGFRAME IOVERLAY, 0, STATIC
        ARGFRAME DOVERLAY, 0, STATIC
        LOCFRAME ISTACK, 2, STACK
        LOCFRAME XSTACK, 21, STACK
        PUBLIC ZDSecMgrDeviceRemoveByExtAddr
        FUNCTION ZDSecMgrDeviceRemoveByExtAddr,021203H
        ARGFRAME XSTACK, 0, STACK
        LOCFRAME XSTACK, 11, STACK
        PUBLIC ZDSecMgrDeviceValidate
        FUNCTION ZDSecMgrDeviceValidate,021203H
        ARGFRAME XSTACK, 13, STACK
        ARGFRAME IOVERLAY, 0, STATIC
        ARGFRAME DOVERLAY, 0, STATIC
        LOCFRAME XSTACK, 9, STACK
        PUBLIC ZDSecMgrDeviceValidateCM
        FUNCTION ZDSecMgrDeviceValidateCM,021203H
        ARGFRAME XSTACK, 0, STACK
        LOCFRAME XSTACK, 17, STACK
        PUBLIC ZDSecMgrDeviceValidateRM
        FUNCTION ZDSecMgrDeviceValidateRM,0203H
        ARGFRAME XSTACK, 9, STACK
        ARGFRAME IOVERLAY, 0, STATIC
        ARGFRAME DOVERLAY, 0, STATIC
        LOCFRAME ISTACK, 2, STACK
        PUBLIC ZDSecMgrDeviceValidateSKKE
        FUNCTION ZDSecMgrDeviceValidateSKKE,021203H
        ARGFRAME XSTACK, 26, STACK
        ARGFRAME IOVERLAY, 0, STATIC
        ARGFRAME DOVERLAY, 0, STATIC
        LOCFRAME XSTACK, 13, STACK
        PUBLIC ZDSecMgrEntries
        PUBLIC ZDSecMgrEntryFree
        FUNCTION ZDSecMgrEntryFree,0203H
        ARGFRAME XSTACK, 9, STACK
        ARGFRAME IOVERLAY, 0, STATIC
        ARGFRAME DOVERLAY, 0, STATIC
        LOCFRAME ISTACK, 2, STACK
        PUBLIC ZDSecMgrEntryInit
        FUNCTION ZDSecMgrEntryInit,021203H
        ARGFRAME XSTACK, 0, STACK
        LOCFRAME XSTACK, 12, STACK
        PUBLIC ZDSecMgrEntryLookup
        FUNCTION ZDSecMgrEntryLookup,021203H
        ARGFRAME XSTACK, 13, STACK
        ARGFRAME IOVERLAY, 0, STATIC
        ARGFRAME DOVERLAY, 0, STATIC
        LOCFRAME XSTACK, 26, STACK
        PUBLIC ZDSecMgrEntryLookupAMI
        FUNCTION ZDSecMgrEntryLookupAMI,0203H
        ARGFRAME XSTACK, 18, STACK
        ARGFRAME IOVERLAY, 0, STATIC
        ARGFRAME DOVERLAY, 0, STATIC
        LOCFRAME XSTACK, 10, STACK
        PUBLIC ZDSecMgrEntryLookupExt
        FUNCTION ZDSecMgrEntryLookupExt,021203H
        ARGFRAME XSTACK, 17, STACK
        ARGFRAME IOVERLAY, 0, STATIC
        ARGFRAME DOVERLAY, 0, STATIC
        LOCFRAME XSTACK, 13, STACK
        PUBLIC ZDSecMgrEntryNew
        FUNCTION ZDSecMgrEntryNew,0203H
        ARGFRAME XSTACK, 18, STACK
        ARGFRAME IOVERLAY, 0, STATIC
        ARGFRAME DOVERLAY, 0, STATIC
        LOCFRAME XSTACK, 9, STACK
        PUBLIC ZDSecMgrEstablishKey
        FUNCTION ZDSecMgrEstablishKey,021203H
        ARGFRAME XSTACK, 10, STACK
        ARGFRAME IOVERLAY, 0, STATIC
        ARGFRAME DOVERLAY, 0, STATIC
        LOCFRAME ISTACK, 2, STACK
        LOCFRAME XSTACK, 19, STACK
        PUBLIC ZDSecMgrEstablishKeyCfm
        FUNCTION ZDSecMgrEstablishKeyCfm,021203H
        ARGFRAME XSTACK, 0, STACK
        LOCFRAME XSTACK, 9, STACK
        PUBLIC ZDSecMgrEstablishKeyInd
        FUNCTION ZDSecMgrEstablishKeyInd,021203H
        ARGFRAME XSTACK, 0, STACK
        LOCFRAME ISTACK, 1, STACK
        LOCFRAME XSTACK, 26, STACK
        PUBLIC ZDSecMgrEvent
        FUNCTION ZDSecMgrEvent,021203H
        ARGFRAME XSTACK, 0, STACK
        LOCFRAME ISTACK, 1, STACK
        LOCFRAME XSTACK, 33, STACK
        PUBLIC ZDSecMgrExtAddrLookup
        FUNCTION ZDSecMgrExtAddrLookup,021203H
        ARGFRAME XSTACK, 19, STACK
        ARGFRAME IOVERLAY, 0, STATIC
        ARGFRAME DOVERLAY, 0, STATIC
        LOCFRAME XSTACK, 24, STACK
        PUBLIC ZDSecMgrExtAddrStore
        FUNCTION ZDSecMgrExtAddrStore,021203H
        ARGFRAME XSTACK, 2, STACK
        LOCFRAME XSTACK, 26, STACK
        PUBLIC ZDSecMgrInit
        FUNCTION ZDSecMgrInit,021203H
        ARGFRAME XSTACK, 0, STACK
        LOCFRAME XSTACK, 9, STACK
        PUBLIC ZDSecMgrMasterKeyData
        PUBLIC ZDSecMgrMasterKeyInit
        FUNCTION ZDSecMgrMasterKeyInit,021203H
        ARGFRAME XSTACK, 0, STACK
        LOCFRAME XSTACK, 10, STACK
        PUBLIC ZDSecMgrMasterKeyLoad
        FUNCTION ZDSecMgrMasterKeyLoad,021203H
        ARGFRAME XSTACK, 15, STACK
        ARGFRAME IOVERLAY, 0, STATIC
        ARGFRAME DOVERLAY, 0, STATIC
        LOCFRAME XSTACK, 22, STACK
        PUBLIC ZDSecMgrMasterKeyLookup
        FUNCTION ZDSecMgrMasterKeyLookup,0203H
        ARGFRAME XSTACK, 25, STACK
        ARGFRAME IOVERLAY, 0, STATIC
        ARGFRAME DOVERLAY, 0, STATIC
        LOCFRAME XSTACK, 10, STACK
        PUBLIC ZDSecMgrMasterKeyStore
        FUNCTION ZDSecMgrMasterKeyStore,021203H
        ARGFRAME XSTACK, 19, STACK
        ARGFRAME IOVERLAY, 0, STATIC
        ARGFRAME DOVERLAY, 0, STATIC
        LOCFRAME XSTACK, 21, STACK
        PUBLIC ZDSecMgrNewDeviceEvent
        FUNCTION ZDSecMgrNewDeviceEvent,021203H
        ARGFRAME XSTACK, 0, STACK
        LOCFRAME ISTACK, 1, STACK
        LOCFRAME XSTACK, 35, STACK
        PUBLIC ZDSecMgrPermitJoining
        FUNCTION ZDSecMgrPermitJoining,0203H
        ARGFRAME XSTACK, 0, STACK
        LOCFRAME ISTACK, 2, STACK
        PUBLIC ZDSecMgrPermitJoiningEnabled
        PUBLIC ZDSecMgrPermitJoiningTimed
        PUBLIC ZDSecMgrPermitJoiningTimeout
        FUNCTION ZDSecMgrPermitJoiningTimeout,0203H
        ARGFRAME XSTACK, 0, STACK
        LOCFRAME ISTACK, 2, STACK
        PUBLIC ZDSecMgrRemoveDeviceInd
        FUNCTION ZDSecMgrRemoveDeviceInd,021203H
        ARGFRAME XSTACK, 0, STACK
        LOCFRAME XSTACK, 19, STACK
        PUBLIC ZDSecMgrRequestKeyInd
        FUNCTION ZDSecMgrRequestKeyInd,021203H
        ARGFRAME XSTACK, 0, STACK
        LOCFRAME XSTACK, 9, STACK
        PUBLIC ZDSecMgrSendMasterKey
        FUNCTION ZDSecMgrSendMasterKey,021203H
        ARGFRAME XSTACK, 10, STACK
        ARGFRAME IOVERLAY, 0, STATIC
        ARGFRAME DOVERLAY, 0, STATIC
        LOCFRAME ISTACK, 2, STACK
        LOCFRAME XSTACK, 25, STACK
        PUBLIC ZDSecMgrSendNwkKey
        FUNCTION ZDSecMgrSendNwkKey,021203H
        ARGFRAME XSTACK, 13, STACK
        ARGFRAME IOVERLAY, 0, STATIC
        ARGFRAME DOVERLAY, 0, STATIC
        LOCFRAME ISTACK, 2, STACK
        LOCFRAME XSTACK, 25, STACK
        PUBLIC ZDSecMgrSwitchKeyInd
        FUNCTION ZDSecMgrSwitchKeyInd,021203H
        ARGFRAME XSTACK, 0, STACK
        LOCFRAME XSTACK, 9, STACK
        PUBLIC ZDSecMgrSwitchNwkKey
        FUNCTION ZDSecMgrSwitchNwkKey,021203H
        ARGFRAME XSTACK, 0, STACK
        LOCFRAME ISTACK, 1, STACK
        LOCFRAME XSTACK, 13, STACK
        PUBLIC ZDSecMgrTCAuthenticated
        PUBLIC ZDSecMgrTCDataLoad
        FUNCTION ZDSecMgrTCDataLoad,021203H
        ARGFRAME XSTACK, 26, STACK
        ARGFRAME IOVERLAY, 0, STATIC
        ARGFRAME DOVERLAY, 0, STATIC
        LOCFRAME XSTACK, 16, STACK
        PUBLIC ZDSecMgrTCDataLoaded
        PUBLIC ZDSecMgrTCExtAddr
        PUBLIC ZDSecMgrTCExtAddrCheck
        FUNCTION ZDSecMgrTCExtAddrCheck,021203H
        ARGFRAME XSTACK, 26, STACK
        ARGFRAME IOVERLAY, 0, STATIC
        ARGFRAME DOVERLAY, 0, STATIC
        LOCFRAME XSTACK, 17, STACK
        PUBLIC ZDSecMgrTCMasterKey
        PUBLIC ZDSecMgrTransportKeyInd
        FUNCTION ZDSecMgrTransportKeyInd,021203H
        ARGFRAME XSTACK, 0, STACK
        LOCFRAME XSTACK, 11, STACK
        PUBLIC ZDSecMgrUpdateDeviceInd
        FUNCTION ZDSecMgrUpdateDeviceInd,021203H
        ARGFRAME XSTACK, 0, STACK
        LOCFRAME XSTACK, 19, STACK
        PUBLIC ZDSecMgrUpdateNwkKey
        FUNCTION ZDSecMgrUpdateNwkKey,021203H
        ARGFRAME XSTACK, 0, STACK
        LOCFRAME ISTACK, 1, STACK
        LOCFRAME XSTACK, 25, STACK
        PUBWEAK __Constant_1
        
          CFI Names cfiNames0
          CFI StackFrame CFA_SP SP IDATA
          CFI StackFrame CFA_PSP16 PSP16 XDATA
          CFI StackFrame CFA_XSP16 XSP16 XDATA
          CFI StaticOverlayFrame CFA_IOVERLAY IOVERLAY
          CFI StaticOverlayFrame CFA_DOVERLAY DOVERLAY
          CFI Resource `PSW.CY`:1, `B.BR0`:1, `B.BR1`:1, `B.BR2`:1, `B.BR3`:1
          CFI Resource `B.BR4`:1, `B.BR5`:1, `B.BR6`:1, `B.BR7`:1, `VB.BR8`:1
          CFI Resource `VB.BR9`:1, `VB.BR10`:1, `VB.BR11`:1, `VB.BR12`:1
          CFI Resource `VB.BR13`:1, `VB.BR14`:1, `VB.BR15`:1, VB:8, B:8, A:8
          CFI Resource PSW:8, DPL0:8, DPH0:8, R0:8, R1:8, R2:8, R3:8, R4:8, R5:8
          CFI Resource R6:8, R7:8, V0:8, V1:8, V2:8, V3:8, V4:8, V5:8, V6:8, V7:8
          CFI Resource V8:8, V9:8, V10:8, V11:8, V12:8, V13:8, V14:8, V15:8, SP:8
          CFI Resource PSPH:8, PSPL:8, PSP16:16, XSPH:8, XSPL:8, XSP16:16
          CFI VirtualResource ?RET:24
          CFI Resource ?BRET_EXT:8
          CFI VirtualResource ?RET_HIGH:8, ?RET_LOW:8
          CFI ResourceParts PSP16 PSPH, PSPL
          CFI ResourceParts XSP16 XSPH, XSPL
          CFI ResourceParts ?RET ?BRET_EXT, ?RET_HIGH, ?RET_LOW
          CFI EndNames cfiNames0
        
          CFI Common cfiCommon0 Using cfiNames0
          CFI CodeAlign 1
          CFI DataAlign -1
          CFI ReturnAddress ?RET CODE
          CFI CFA_DOVERLAY Used
          CFI CFA_IOVERLAY Used
          CFI CFA_SP SP+-3
          CFI CFA_PSP16 PSP16+0
          CFI CFA_XSP16 XSP16+0
          CFI `PSW.CY` SameValue
          CFI `B.BR0` SameValue
          CFI `B.BR1` SameValue
          CFI `B.BR2` SameValue
          CFI `B.BR3` SameValue
          CFI `B.BR4` SameValue
          CFI `B.BR5` SameValue
          CFI `B.BR6` SameValue
          CFI `B.BR7` SameValue
          CFI `VB.BR8` SameValue
          CFI `VB.BR9` SameValue
          CFI `VB.BR10` SameValue
          CFI `VB.BR11` SameValue
          CFI `VB.BR12` SameValue
          CFI `VB.BR13` SameValue
          CFI `VB.BR14` SameValue
          CFI `VB.BR15` SameValue
          CFI VB SameValue
          CFI B Undefined
          CFI A Undefined
          CFI PSW SameValue
          CFI DPL0 SameValue
          CFI DPH0 SameValue
          CFI R0 Undefined
          CFI R1 Undefined
          CFI R2 Undefined
          CFI R3 Undefined
          CFI R4 Undefined
          CFI R5 Undefined
          CFI R6 SameValue
          CFI R7 SameValue
          CFI V0 SameValue
          CFI V1 SameValue
          CFI V2 SameValue
          CFI V3 SameValue
          CFI V4 SameValue
          CFI V5 SameValue
          CFI V6 SameValue
          CFI V7 SameValue
          CFI V8 SameValue
          CFI V9 SameValue
          CFI V10 SameValue
          CFI V11 SameValue
          CFI V12 SameValue
          CFI V13 SameValue
          CFI V14 SameValue
          CFI V15 SameValue
          CFI PSPH Undefined
          CFI PSPL Undefined
          CFI XSPH Undefined
          CFI XSPL Undefined
          CFI ?RET Concat
          CFI ?BRET_EXT Frame(CFA_SP, 3)
          CFI ?RET_HIGH Frame(CFA_SP, 2)
          CFI ?RET_LOW Frame(CFA_SP, 1)
          CFI EndCommon cfiCommon0
        
APSME_AuthenticateReq SYMBOL "APSME_AuthenticateReq"
??APSME_AuthenticateReq?relay SYMBOL "?relay", APSME_AuthenticateReq
APSME_EstablishKeyReq SYMBOL "APSME_EstablishKeyReq"
??APSME_EstablishKeyReq?relay SYMBOL "?relay", APSME_EstablishKeyReq
APSME_EstablishKeyRsp SYMBOL "APSME_EstablishKeyRsp"
??APSME_EstablishKeyRsp?relay SYMBOL "?relay", APSME_EstablishKeyRsp
APSME_LookupExtAddr SYMBOL "APSME_LookupExtAddr"
??APSME_LookupExtAddr?relay SYMBOL "?relay", APSME_LookupExtAddr
APSME_LookupNwkAddr SYMBOL "APSME_LookupNwkAddr"
??APSME_LookupNwkAddr?relay SYMBOL "?relay", APSME_LookupNwkAddr
APSME_RemoveDeviceReq SYMBOL "APSME_RemoveDeviceReq"
??APSME_RemoveDeviceReq?relay SYMBOL "?relay", APSME_RemoveDeviceReq
APSME_SecurityNM    SYMBOL "APSME_SecurityNM"
??APSME_SecurityNM?relay SYMBOL "?relay", APSME_SecurityNM
APSME_SwitchKeyReq  SYMBOL "APSME_SwitchKeyReq"
??APSME_SwitchKeyReq?relay SYMBOL "?relay", APSME_SwitchKeyReq
APSME_TransportKeyReq SYMBOL "APSME_TransportKeyReq"
??APSME_TransportKeyReq?relay SYMBOL "?relay", APSME_TransportKeyReq
APSME_UpdateDeviceReq SYMBOL "APSME_UpdateDeviceReq"
??APSME_UpdateDeviceReq?relay SYMBOL "?relay", APSME_UpdateDeviceReq
AddrMgrEntryGet     SYMBOL "AddrMgrEntryGet"
??AddrMgrEntryGet?relay SYMBOL "?relay", AddrMgrEntryGet
AddrMgrEntryLookupExt SYMBOL "AddrMgrEntryLookupExt"
??AddrMgrEntryLookupExt?relay SYMBOL "?relay", AddrMgrEntryLookupExt
AddrMgrEntryLookupNwk SYMBOL "AddrMgrEntryLookupNwk"
??AddrMgrEntryLookupNwk?relay SYMBOL "?relay", AddrMgrEntryLookupNwk
AddrMgrEntryRelease SYMBOL "AddrMgrEntryRelease"
??AddrMgrEntryRelease?relay SYMBOL "?relay", AddrMgrEntryRelease
AddrMgrEntryUpdate  SYMBOL "AddrMgrEntryUpdate"
??AddrMgrEntryUpdate?relay SYMBOL "?relay", AddrMgrEntryUpdate
AddrMgrExtAddrEqual SYMBOL "AddrMgrExtAddrEqual"
??AddrMgrExtAddrEqual?relay SYMBOL "?relay", AddrMgrExtAddrEqual
AddrMgrExtAddrLookup SYMBOL "AddrMgrExtAddrLookup"
??AddrMgrExtAddrLookup?relay SYMBOL "?relay", AddrMgrExtAddrLookup
AddrMgrExtAddrSet   SYMBOL "AddrMgrExtAddrSet"
??AddrMgrExtAddrSet?relay SYMBOL "?relay", AddrMgrExtAddrSet
AddrMgrExtAddrValid SYMBOL "AddrMgrExtAddrValid"
??AddrMgrExtAddrValid?relay SYMBOL "?relay", AddrMgrExtAddrValid
AssocGetWithExt     SYMBOL "AssocGetWithExt"
??AssocGetWithExt?relay SYMBOL "?relay", AssocGetWithExt
AssocGetWithShort   SYMBOL "AssocGetWithShort"
??AssocGetWithShort?relay SYMBOL "?relay", AssocGetWithShort
AssocMatchDeviceStatus SYMBOL "AssocMatchDeviceStatus"
??AssocMatchDeviceStatus?relay SYMBOL "?relay", AssocMatchDeviceStatus
AssocRemove         SYMBOL "AssocRemove"
??AssocRemove?relay SYMBOL "?relay", AssocRemove
NLME_GetShortAddr   SYMBOL "NLME_GetShortAddr"
??NLME_GetShortAddr?relay SYMBOL "?relay", NLME_GetShortAddr
NLME_LeaveReq       SYMBOL "NLME_LeaveReq"
??NLME_LeaveReq?relay SYMBOL "?relay", NLME_LeaveReq
SSP_GetTrueRand     SYMBOL "SSP_GetTrueRand"
??SSP_GetTrueRand?relay SYMBOL "?relay", SSP_GetTrueRand
SSP_SwitchNwkKey    SYMBOL "SSP_SwitchNwkKey"
??SSP_SwitchNwkKey?relay SYMBOL "?relay", SSP_SwitchNwkKey
SSP_UpdateNwkKey    SYMBOL "SSP_UpdateNwkKey"
??SSP_UpdateNwkKey?relay SYMBOL "?relay", SSP_UpdateNwkKey
ZDApp_NVUpdate      SYMBOL "ZDApp_NVUpdate"
??ZDApp_NVUpdate?relay SYMBOL "?relay", ZDApp_NVUpdate
osal_mem_alloc      SYMBOL "osal_mem_alloc"
??osal_mem_alloc?relay SYMBOL "?relay", osal_mem_alloc
osal_memcpy         SYMBOL "osal_memcpy"
??osal_memcpy?relay SYMBOL "?relay", osal_memcpy
osal_memset         SYMBOL "osal_memset"
??osal_memset?relay SYMBOL "?relay", osal_memset
osal_nv_item_init   SYMBOL "osal_nv_item_init"
??osal_nv_item_init?relay SYMBOL "?relay", osal_nv_item_init
osal_nv_read        SYMBOL "osal_nv_read"
??osal_nv_read?relay SYMBOL "?relay", osal_nv_read
osal_nv_write       SYMBOL "osal_nv_write"
??osal_nv_write?relay SYMBOL "?relay", osal_nv_write
osal_set_event      SYMBOL "osal_set_event"
??osal_set_event?relay SYMBOL "?relay", osal_set_event
osal_start_timerEx  SYMBOL "osal_start_timerEx"
??osal_start_timerEx?relay SYMBOL "?relay", osal_start_timerEx
APSME_IsDefaultTCLK SYMBOL "APSME_IsDefaultTCLK"
??APSME_IsDefaultTCLK?relay SYMBOL "?relay", APSME_IsDefaultTCLK
APSME_KeyFwdToChild SYMBOL "APSME_KeyFwdToChild"
??APSME_KeyFwdToChild?relay SYMBOL "?relay", APSME_KeyFwdToChild
APSME_LinkKeyDataGet SYMBOL "APSME_LinkKeyDataGet"
??APSME_LinkKeyDataGet?relay SYMBOL "?relay", APSME_LinkKeyDataGet
APSME_LinkKeySet    SYMBOL "APSME_LinkKeySet"
??APSME_LinkKeySet?relay SYMBOL "?relay", APSME_LinkKeySet
APSME_MasterKeyGet  SYMBOL "APSME_MasterKeyGet"
??APSME_MasterKeyGet?relay SYMBOL "?relay", APSME_MasterKeyGet
APSME_SKA_TimerExpired SYMBOL "APSME_SKA_TimerExpired"
??APSME_SKA_TimerExpired?relay SYMBOL "?relay", APSME_SKA_TimerExpired
APSME_TCLinkKeyInit SYMBOL "APSME_TCLinkKeyInit"
??APSME_TCLinkKeyInit?relay SYMBOL "?relay", APSME_TCLinkKeyInit
APSME_TCLinkKeyLoad SYMBOL "APSME_TCLinkKeyLoad"
??APSME_TCLinkKeyLoad?relay SYMBOL "?relay", APSME_TCLinkKeyLoad
APSME_TCLinkKeySync SYMBOL "APSME_TCLinkKeySync"
??APSME_TCLinkKeySync?relay SYMBOL "?relay", APSME_TCLinkKeySync
ZDSecMgrAPSRemove   SYMBOL "ZDSecMgrAPSRemove"
??ZDSecMgrAPSRemove?relay SYMBOL "?relay", ZDSecMgrAPSRemove
ZDSecMgrAddLinkKey  SYMBOL "ZDSecMgrAddLinkKey"
??ZDSecMgrAddLinkKey?relay SYMBOL "?relay", ZDSecMgrAddLinkKey
ZDSecMgrAddrMgrUpdate SYMBOL "ZDSecMgrAddrMgrUpdate"
??ZDSecMgrAddrMgrUpdate?relay SYMBOL "?relay", ZDSecMgrAddrMgrUpdate
ZDSecMgrAddrStore   SYMBOL "ZDSecMgrAddrStore"
??ZDSecMgrAddrStore?relay SYMBOL "?relay", ZDSecMgrAddrStore
ZDSecMgrAppKeyGet   SYMBOL "ZDSecMgrAppKeyGet"
??ZDSecMgrAppKeyGet?relay SYMBOL "?relay", ZDSecMgrAppKeyGet
ZDSecMgrAppKeyReq   SYMBOL "ZDSecMgrAppKeyReq"
??ZDSecMgrAppKeyReq?relay SYMBOL "?relay", ZDSecMgrAppKeyReq
ZDSecMgrAppKeyTypeSet SYMBOL "ZDSecMgrAppKeyTypeSet"
??ZDSecMgrAppKeyTypeSet?relay SYMBOL "?relay", ZDSecMgrAppKeyTypeSet
ZDSecMgrAssocDeviceAuth SYMBOL "ZDSecMgrAssocDeviceAuth"
??ZDSecMgrAssocDeviceAuth?relay SYMBOL "?relay", ZDSecMgrAssocDeviceAuth
ZDSecMgrAuthInitiate SYMBOL "ZDSecMgrAuthInitiate"
??ZDSecMgrAuthInitiate?relay SYMBOL "?relay", ZDSecMgrAuthInitiate
ZDSecMgrAuthNwkKey  SYMBOL "ZDSecMgrAuthNwkKey"
??ZDSecMgrAuthNwkKey?relay SYMBOL "?relay", ZDSecMgrAuthNwkKey
ZDSecMgrAuthenticateCfm SYMBOL "ZDSecMgrAuthenticateCfm"
??ZDSecMgrAuthenticateCfm?relay SYMBOL "?relay", ZDSecMgrAuthenticateCfm
ZDSecMgrAuthenticateInd SYMBOL "ZDSecMgrAuthenticateInd"
??ZDSecMgrAuthenticateInd?relay SYMBOL "?relay", ZDSecMgrAuthenticateInd
ZDSecMgrAuthenticationCheck SYMBOL "ZDSecMgrAuthenticationCheck"
??ZDSecMgrAuthenticationCheck?relay SYMBOL "?relay", ZDSecMgrAuthenticationCheck
ZDSecMgrAuthenticationSet SYMBOL "ZDSecMgrAuthenticationSet"
??ZDSecMgrAuthenticationSet?relay SYMBOL "?relay", ZDSecMgrAuthenticationSet
ZDSecMgrConfig      SYMBOL "ZDSecMgrConfig"
??ZDSecMgrConfig?relay SYMBOL "?relay", ZDSecMgrConfig
ZDSecMgrCtrlAdd     SYMBOL "ZDSecMgrCtrlAdd"
??ZDSecMgrCtrlAdd?relay SYMBOL "?relay", ZDSecMgrCtrlAdd
ZDSecMgrCtrlInit    SYMBOL "ZDSecMgrCtrlInit"
??ZDSecMgrCtrlInit?relay SYMBOL "?relay", ZDSecMgrCtrlInit
ZDSecMgrCtrlLookup  SYMBOL "ZDSecMgrCtrlLookup"
??ZDSecMgrCtrlLookup?relay SYMBOL "?relay", ZDSecMgrCtrlLookup
ZDSecMgrCtrlRelease SYMBOL "ZDSecMgrCtrlRelease"
??ZDSecMgrCtrlRelease?relay SYMBOL "?relay", ZDSecMgrCtrlRelease
ZDSecMgrCtrlReset   SYMBOL "ZDSecMgrCtrlReset"
??ZDSecMgrCtrlReset?relay SYMBOL "?relay", ZDSecMgrCtrlReset
ZDSecMgrCtrlSet     SYMBOL "ZDSecMgrCtrlSet"
??ZDSecMgrCtrlSet?relay SYMBOL "?relay", ZDSecMgrCtrlSet
ZDSecMgrCtrlTerm    SYMBOL "ZDSecMgrCtrlTerm"
??ZDSecMgrCtrlTerm?relay SYMBOL "?relay", ZDSecMgrCtrlTerm
ZDSecMgrDeviceCtrlHandler SYMBOL "ZDSecMgrDeviceCtrlHandler"
??ZDSecMgrDeviceCtrlHandler?relay SYMBOL "?relay", ZDSecMgrDeviceCtrlHandler
ZDSecMgrDeviceCtrlSetup SYMBOL "ZDSecMgrDeviceCtrlSetup"
??ZDSecMgrDeviceCtrlSetup?relay SYMBOL "?relay", ZDSecMgrDeviceCtrlSetup
ZDSecMgrDeviceCtrlUpdate SYMBOL "ZDSecMgrDeviceCtrlUpdate"
??ZDSecMgrDeviceCtrlUpdate?relay SYMBOL "?relay", ZDSecMgrDeviceCtrlUpdate
ZDSecMgrDeviceEntryAdd SYMBOL "ZDSecMgrDeviceEntryAdd"
??ZDSecMgrDeviceEntryAdd?relay SYMBOL "?relay", ZDSecMgrDeviceEntryAdd
ZDSecMgrDeviceEntryRemove SYMBOL "ZDSecMgrDeviceEntryRemove"
??ZDSecMgrDeviceEntryRemove?relay SYMBOL "?relay", ZDSecMgrDeviceEntryRemove
ZDSecMgrDeviceJoin  SYMBOL "ZDSecMgrDeviceJoin"
??ZDSecMgrDeviceJoin?relay SYMBOL "?relay", ZDSecMgrDeviceJoin
ZDSecMgrDeviceJoinDirect SYMBOL "ZDSecMgrDeviceJoinDirect"
??ZDSecMgrDeviceJoinDirect?relay SYMBOL "?relay", ZDSecMgrDeviceJoinDirect
ZDSecMgrDeviceJoinFwd SYMBOL "ZDSecMgrDeviceJoinFwd"
??ZDSecMgrDeviceJoinFwd?relay SYMBOL "?relay", ZDSecMgrDeviceJoinFwd
ZDSecMgrDeviceNew   SYMBOL "ZDSecMgrDeviceNew"
??ZDSecMgrDeviceNew?relay SYMBOL "?relay", ZDSecMgrDeviceNew
ZDSecMgrDeviceRemove SYMBOL "ZDSecMgrDeviceRemove"
??ZDSecMgrDeviceRemove?relay SYMBOL "?relay", ZDSecMgrDeviceRemove
ZDSecMgrDeviceRemoveByExtAddr SYMBOL "ZDSecMgrDeviceRemoveByExtAddr"
??ZDSecMgrDeviceRemoveByExtAddr?relay SYMBOL "?relay", ZDSecMgrDeviceRemoveByExtAddr
ZDSecMgrDeviceValidate SYMBOL "ZDSecMgrDeviceValidate"
??ZDSecMgrDeviceValidate?relay SYMBOL "?relay", ZDSecMgrDeviceValidate
ZDSecMgrDeviceValidateCM SYMBOL "ZDSecMgrDeviceValidateCM"
??ZDSecMgrDeviceValidateCM?relay SYMBOL "?relay", ZDSecMgrDeviceValidateCM
ZDSecMgrDeviceValidateRM SYMBOL "ZDSecMgrDeviceValidateRM"
??ZDSecMgrDeviceValidateRM?relay SYMBOL "?relay", ZDSecMgrDeviceValidateRM
ZDSecMgrDeviceValidateSKKE SYMBOL "ZDSecMgrDeviceValidateSKKE"
??ZDSecMgrDeviceValidateSKKE?relay SYMBOL "?relay", ZDSecMgrDeviceValidateSKKE
ZDSecMgrEntryFree   SYMBOL "ZDSecMgrEntryFree"
??ZDSecMgrEntryFree?relay SYMBOL "?relay", ZDSecMgrEntryFree
ZDSecMgrEntryInit   SYMBOL "ZDSecMgrEntryInit"
??ZDSecMgrEntryInit?relay SYMBOL "?relay", ZDSecMgrEntryInit
ZDSecMgrEntryLookup SYMBOL "ZDSecMgrEntryLookup"
??ZDSecMgrEntryLookup?relay SYMBOL "?relay", ZDSecMgrEntryLookup
ZDSecMgrEntryLookupAMI SYMBOL "ZDSecMgrEntryLookupAMI"
??ZDSecMgrEntryLookupAMI?relay SYMBOL "?relay", ZDSecMgrEntryLookupAMI
ZDSecMgrEntryLookupExt SYMBOL "ZDSecMgrEntryLookupExt"
??ZDSecMgrEntryLookupExt?relay SYMBOL "?relay", ZDSecMgrEntryLookupExt
ZDSecMgrEntryNew    SYMBOL "ZDSecMgrEntryNew"
??ZDSecMgrEntryNew?relay SYMBOL "?relay", ZDSecMgrEntryNew
ZDSecMgrEstablishKey SYMBOL "ZDSecMgrEstablishKey"
??ZDSecMgrEstablishKey?relay SYMBOL "?relay", ZDSecMgrEstablishKey
ZDSecMgrEstablishKeyCfm SYMBOL "ZDSecMgrEstablishKeyCfm"
??ZDSecMgrEstablishKeyCfm?relay SYMBOL "?relay", ZDSecMgrEstablishKeyCfm
ZDSecMgrEstablishKeyInd SYMBOL "ZDSecMgrEstablishKeyInd"
??ZDSecMgrEstablishKeyInd?relay SYMBOL "?relay", ZDSecMgrEstablishKeyInd
ZDSecMgrEvent       SYMBOL "ZDSecMgrEvent"
??ZDSecMgrEvent?relay SYMBOL "?relay", ZDSecMgrEvent
ZDSecMgrExtAddrLookup SYMBOL "ZDSecMgrExtAddrLookup"
??ZDSecMgrExtAddrLookup?relay SYMBOL "?relay", ZDSecMgrExtAddrLookup
ZDSecMgrExtAddrStore SYMBOL "ZDSecMgrExtAddrStore"
??ZDSecMgrExtAddrStore?relay SYMBOL "?relay", ZDSecMgrExtAddrStore
ZDSecMgrInit        SYMBOL "ZDSecMgrInit"
??ZDSecMgrInit?relay SYMBOL "?relay", ZDSecMgrInit
ZDSecMgrMasterKeyInit SYMBOL "ZDSecMgrMasterKeyInit"
??ZDSecMgrMasterKeyInit?relay SYMBOL "?relay", ZDSecMgrMasterKeyInit
ZDSecMgrMasterKeyLoad SYMBOL "ZDSecMgrMasterKeyLoad"
??ZDSecMgrMasterKeyLoad?relay SYMBOL "?relay", ZDSecMgrMasterKeyLoad
ZDSecMgrMasterKeyLookup SYMBOL "ZDSecMgrMasterKeyLookup"
??ZDSecMgrMasterKeyLookup?relay SYMBOL "?relay", ZDSecMgrMasterKeyLookup
ZDSecMgrMasterKeyStore SYMBOL "ZDSecMgrMasterKeyStore"
??ZDSecMgrMasterKeyStore?relay SYMBOL "?relay", ZDSecMgrMasterKeyStore
ZDSecMgrNewDeviceEvent SYMBOL "ZDSecMgrNewDeviceEvent"
??ZDSecMgrNewDeviceEvent?relay SYMBOL "?relay", ZDSecMgrNewDeviceEvent
ZDSecMgrPermitJoining SYMBOL "ZDSecMgrPermitJoining"
??ZDSecMgrPermitJoining?relay SYMBOL "?relay", ZDSecMgrPermitJoining
ZDSecMgrPermitJoiningTimeout SYMBOL "ZDSecMgrPermitJoiningTimeout"
??ZDSecMgrPermitJoiningTimeout?relay SYMBOL "?relay", ZDSecMgrPermitJoiningTimeout
ZDSecMgrRemoveDeviceInd SYMBOL "ZDSecMgrRemoveDeviceInd"
??ZDSecMgrRemoveDeviceInd?relay SYMBOL "?relay", ZDSecMgrRemoveDeviceInd
ZDSecMgrRequestKeyInd SYMBOL "ZDSecMgrRequestKeyInd"
??ZDSecMgrRequestKeyInd?relay SYMBOL "?relay", ZDSecMgrRequestKeyInd
ZDSecMgrSendMasterKey SYMBOL "ZDSecMgrSendMasterKey"
??ZDSecMgrSendMasterKey?relay SYMBOL "?relay", ZDSecMgrSendMasterKey
ZDSecMgrSendNwkKey  SYMBOL "ZDSecMgrSendNwkKey"
??ZDSecMgrSendNwkKey?relay SYMBOL "?relay", ZDSecMgrSendNwkKey
ZDSecMgrSwitchKeyInd SYMBOL "ZDSecMgrSwitchKeyInd"
??ZDSecMgrSwitchKeyInd?relay SYMBOL "?relay", ZDSecMgrSwitchKeyInd
ZDSecMgrSwitchNwkKey SYMBOL "ZDSecMgrSwitchNwkKey"
??ZDSecMgrSwitchNwkKey?relay SYMBOL "?relay", ZDSecMgrSwitchNwkKey
ZDSecMgrTCDataLoad  SYMBOL "ZDSecMgrTCDataLoad"
??ZDSecMgrTCDataLoad?relay SYMBOL "?relay", ZDSecMgrTCDataLoad
ZDSecMgrTCExtAddrCheck SYMBOL "ZDSecMgrTCExtAddrCheck"
??ZDSecMgrTCExtAddrCheck?relay SYMBOL "?relay", ZDSecMgrTCExtAddrCheck
ZDSecMgrTransportKeyInd SYMBOL "ZDSecMgrTransportKeyInd"
??ZDSecMgrTransportKeyInd?relay SYMBOL "?relay", ZDSecMgrTransportKeyInd
ZDSecMgrUpdateDeviceInd SYMBOL "ZDSecMgrUpdateDeviceInd"
??ZDSecMgrUpdateDeviceInd?relay SYMBOL "?relay", ZDSecMgrUpdateDeviceInd
ZDSecMgrUpdateNwkKey SYMBOL "ZDSecMgrUpdateNwkKey"
??ZDSecMgrUpdateNwkKey?relay SYMBOL "?relay", ZDSecMgrUpdateNwkKey

        EXTERN ??APSME_AuthenticateReq?relay
        FUNCTION ??APSME_AuthenticateReq?relay,00H
        EXTERN ??APSME_EstablishKeyReq?relay
        FUNCTION ??APSME_EstablishKeyReq?relay,00H
        EXTERN ??APSME_EstablishKeyRsp?relay
        FUNCTION ??APSME_EstablishKeyRsp?relay,00H
        EXTERN ??APSME_LookupExtAddr?relay
        FUNCTION ??APSME_LookupExtAddr?relay,00H
        EXTERN ??APSME_LookupNwkAddr?relay
        FUNCTION ??APSME_LookupNwkAddr?relay,00H
        EXTERN ??APSME_RemoveDeviceReq?relay
        FUNCTION ??APSME_RemoveDeviceReq?relay,00H
        EXTERN ??APSME_SecurityNM?relay
        FUNCTION ??APSME_SecurityNM?relay,00H
        EXTERN ??APSME_SwitchKeyReq?relay
        FUNCTION ??APSME_SwitchKeyReq?relay,00H
        EXTERN ??APSME_TransportKeyReq?relay
        FUNCTION ??APSME_TransportKeyReq?relay,00H
        EXTERN ??APSME_UpdateDeviceReq?relay
        FUNCTION ??APSME_UpdateDeviceReq?relay,00H
        EXTERN ??AddrMgrEntryGet?relay
        FUNCTION ??AddrMgrEntryGet?relay,00H
        EXTERN ??AddrMgrEntryLookupExt?relay
        FUNCTION ??AddrMgrEntryLookupExt?relay,00H
        EXTERN ??AddrMgrEntryLookupNwk?relay
        FUNCTION ??AddrMgrEntryLookupNwk?relay,00H
        EXTERN ??AddrMgrEntryRelease?relay
        FUNCTION ??AddrMgrEntryRelease?relay,00H
        EXTERN ??AddrMgrEntryUpdate?relay
        FUNCTION ??AddrMgrEntryUpdate?relay,00H
        EXTERN ??AddrMgrExtAddrEqual?relay
        FUNCTION ??AddrMgrExtAddrEqual?relay,00H
        EXTERN ??AddrMgrExtAddrLookup?relay
        FUNCTION ??AddrMgrExtAddrLookup?relay,00H
        EXTERN ??AddrMgrExtAddrSet?relay
        FUNCTION ??AddrMgrExtAddrSet?relay,00H
        EXTERN ??AddrMgrExtAddrValid?relay
        FUNCTION ??AddrMgrExtAddrValid?relay,00H
        EXTERN ??AssocGetWithExt?relay
        FUNCTION ??AssocGetWithExt?relay,00H
        EXTERN ??AssocGetWithShort?relay
        FUNCTION ??AssocGetWithShort?relay,00H
        EXTERN ??AssocMatchDeviceStatus?relay
        FUNCTION ??AssocMatchDeviceStatus?relay,00H
        EXTERN ??AssocRemove?relay
        FUNCTION ??AssocRemove?relay,00H
        EXTERN ??NLME_GetShortAddr?relay
        FUNCTION ??NLME_GetShortAddr?relay,00H
        EXTERN ??NLME_LeaveReq?relay
        FUNCTION ??NLME_LeaveReq?relay,00H
        EXTERN ??SSP_GetTrueRand?relay
        FUNCTION ??SSP_GetTrueRand?relay,00H
        EXTERN ??SSP_SwitchNwkKey?relay
        FUNCTION ??SSP_SwitchNwkKey?relay,00H
        EXTERN ??SSP_UpdateNwkKey?relay
        FUNCTION ??SSP_UpdateNwkKey?relay,00H
        EXTERN ??ZDApp_NVUpdate?relay
        FUNCTION ??ZDApp_NVUpdate?relay,00H
        EXTERN ??osal_mem_alloc?relay
        FUNCTION ??osal_mem_alloc?relay,00H
        EXTERN ??osal_memcpy?relay
        FUNCTION ??osal_memcpy?relay,00H
        EXTERN ??osal_memset?relay
        FUNCTION ??osal_memset?relay,00H
        EXTERN ??osal_nv_item_init?relay
        FUNCTION ??osal_nv_item_init?relay,00H
        EXTERN ??osal_nv_read?relay
        FUNCTION ??osal_nv_read?relay,00H
        EXTERN ??osal_nv_write?relay
        FUNCTION ??osal_nv_write?relay,00H
        EXTERN ??osal_set_event?relay
        FUNCTION ??osal_set_event?relay,00H
        EXTERN ??osal_start_timerEx?relay
        FUNCTION ??osal_start_timerEx?relay,00H
        EXTERN APSME_AuthenticateReq
        FUNCTION APSME_AuthenticateReq,0202H
        ARGFRAME ISTACK, 0, STACK
        ARGFRAME PSTACK, 0, STACK
        ARGFRAME XSTACK, 29, STACK
        ARGFRAME IOVERLAY, 0, STATIC
        ARGFRAME DOVERLAY, 0, STATIC
        EXTERN APSME_EstablishKeyReq
        FUNCTION APSME_EstablishKeyReq,0202H
        ARGFRAME ISTACK, 0, STACK
        ARGFRAME PSTACK, 0, STACK
        ARGFRAME XSTACK, 19, STACK
        ARGFRAME IOVERLAY, 0, STATIC
        ARGFRAME DOVERLAY, 0, STATIC
        EXTERN APSME_EstablishKeyRsp
        FUNCTION APSME_EstablishKeyRsp,0202H
        ARGFRAME ISTACK, 0, STACK
        ARGFRAME PSTACK, 0, STACK
        ARGFRAME XSTACK, 26, STACK
        ARGFRAME IOVERLAY, 0, STATIC
        ARGFRAME DOVERLAY, 0, STATIC
        EXTERN APSME_LookupExtAddr
        FUNCTION APSME_LookupExtAddr,0202H
        ARGFRAME ISTACK, 0, STACK
        ARGFRAME PSTACK, 0, STACK
        ARGFRAME XSTACK, 61, STACK
        ARGFRAME IOVERLAY, 0, STATIC
        ARGFRAME DOVERLAY, 0, STATIC
        EXTERN APSME_LookupNwkAddr
        FUNCTION APSME_LookupNwkAddr,0202H
        ARGFRAME ISTACK, 0, STACK
        ARGFRAME PSTACK, 0, STACK
        ARGFRAME XSTACK, 49, STACK
        ARGFRAME IOVERLAY, 0, STATIC
        ARGFRAME DOVERLAY, 0, STATIC
        EXTERN APSME_RemoveDeviceReq
        FUNCTION APSME_RemoveDeviceReq,0202H
        ARGFRAME ISTACK, 0, STACK
        ARGFRAME PSTACK, 0, STACK
        ARGFRAME XSTACK, 21, STACK
        ARGFRAME IOVERLAY, 0, STATIC
        ARGFRAME DOVERLAY, 0, STATIC
        EXTERN APSME_SecurityNM
        FUNCTION APSME_SecurityNM,0202H
        ARGFRAME ISTACK, 2, STACK
        ARGFRAME PSTACK, 0, STACK
        ARGFRAME XSTACK, 0, STACK
        ARGFRAME IOVERLAY, 0, STATIC
        ARGFRAME DOVERLAY, 0, STATIC
        EXTERN APSME_SwitchKeyReq
        FUNCTION APSME_SwitchKeyReq,0202H
        ARGFRAME ISTACK, 0, STACK
        ARGFRAME PSTACK, 0, STACK
        ARGFRAME XSTACK, 13, STACK
        ARGFRAME IOVERLAY, 0, STATIC
        ARGFRAME DOVERLAY, 0, STATIC
        EXTERN APSME_TransportKeyReq
        FUNCTION APSME_TransportKeyReq,0202H
        ARGFRAME ISTACK, 0, STACK
        ARGFRAME PSTACK, 0, STACK
        ARGFRAME XSTACK, 49, STACK
        ARGFRAME IOVERLAY, 0, STATIC
        ARGFRAME DOVERLAY, 0, STATIC
        EXTERN APSME_UpdateDeviceReq
        FUNCTION APSME_UpdateDeviceReq,0202H
        ARGFRAME ISTACK, 0, STACK
        ARGFRAME PSTACK, 0, STACK
        ARGFRAME XSTACK, 17, STACK
        ARGFRAME IOVERLAY, 0, STATIC
        ARGFRAME DOVERLAY, 0, STATIC
        EXTERN AddrMgrEntryGet
        FUNCTION AddrMgrEntryGet,0202H
        ARGFRAME ISTACK, 0, STACK
        ARGFRAME PSTACK, 0, STACK
        ARGFRAME XSTACK, 35, STACK
        ARGFRAME IOVERLAY, 0, STATIC
        ARGFRAME DOVERLAY, 0, STATIC
        EXTERN AddrMgrEntryLookupExt
        FUNCTION AddrMgrEntryLookupExt,0202H
        ARGFRAME ISTACK, 0, STACK
        ARGFRAME PSTACK, 0, STACK
        ARGFRAME XSTACK, 24, STACK
        ARGFRAME IOVERLAY, 0, STATIC
        ARGFRAME DOVERLAY, 0, STATIC
        EXTERN AddrMgrEntryLookupNwk
        FUNCTION AddrMgrEntryLookupNwk,0202H
        ARGFRAME ISTACK, 0, STACK
        ARGFRAME PSTACK, 0, STACK
        ARGFRAME XSTACK, 61, STACK
        ARGFRAME IOVERLAY, 0, STATIC
        ARGFRAME DOVERLAY, 0, STATIC
        EXTERN AddrMgrEntryRelease
        FUNCTION AddrMgrEntryRelease,0202H
        ARGFRAME ISTACK, 0, STACK
        ARGFRAME PSTACK, 0, STACK
        ARGFRAME XSTACK, 61, STACK
        ARGFRAME IOVERLAY, 0, STATIC
        ARGFRAME DOVERLAY, 0, STATIC
        EXTERN AddrMgrEntryUpdate
        FUNCTION AddrMgrEntryUpdate,0202H
        ARGFRAME ISTACK, 0, STACK
        ARGFRAME PSTACK, 0, STACK
        ARGFRAME XSTACK, 29, STACK
        ARGFRAME IOVERLAY, 0, STATIC
        ARGFRAME DOVERLAY, 0, STATIC
        EXTERN AddrMgrExtAddrEqual
        FUNCTION AddrMgrExtAddrEqual,0202H
        ARGFRAME ISTACK, 0, STACK
        ARGFRAME PSTACK, 0, STACK
        ARGFRAME XSTACK, 61, STACK
        ARGFRAME IOVERLAY, 0, STATIC
        ARGFRAME DOVERLAY, 0, STATIC
        EXTERN AddrMgrExtAddrLookup
        FUNCTION AddrMgrExtAddrLookup,0202H
        ARGFRAME ISTACK, 0, STACK
        ARGFRAME PSTACK, 0, STACK
        ARGFRAME XSTACK, 17, STACK
        ARGFRAME IOVERLAY, 0, STATIC
        ARGFRAME DOVERLAY, 0, STATIC
        EXTERN AddrMgrExtAddrSet
        FUNCTION AddrMgrExtAddrSet,0202H
        ARGFRAME ISTACK, 0, STACK
        ARGFRAME PSTACK, 0, STACK
        ARGFRAME XSTACK, 29, STACK
        ARGFRAME IOVERLAY, 0, STATIC
        ARGFRAME DOVERLAY, 0, STATIC
        EXTERN AddrMgrExtAddrValid
        FUNCTION AddrMgrExtAddrValid,0202H
        ARGFRAME ISTACK, 0, STACK
        ARGFRAME PSTACK, 0, STACK
        ARGFRAME XSTACK, 61, STACK
        ARGFRAME IOVERLAY, 0, STATIC
        ARGFRAME DOVERLAY, 0, STATIC
        EXTERN AssocGetWithExt
        FUNCTION AssocGetWithExt,0202H
        ARGFRAME ISTACK, 0, STACK
        ARGFRAME PSTACK, 0, STACK
        ARGFRAME XSTACK, 21, STACK
        ARGFRAME IOVERLAY, 0, STATIC
        ARGFRAME DOVERLAY, 0, STATIC
        EXTERN AssocGetWithShort
        FUNCTION AssocGetWithShort,0202H
        ARGFRAME ISTACK, 0, STACK
        ARGFRAME PSTACK, 0, STACK
        ARGFRAME XSTACK, 9, STACK
        ARGFRAME IOVERLAY, 0, STATIC
        ARGFRAME DOVERLAY, 0, STATIC
        EXTERN AssocMatchDeviceStatus
        FUNCTION AssocMatchDeviceStatus,0202H
        ARGFRAME ISTACK, 0, STACK
        ARGFRAME PSTACK, 0, STACK
        ARGFRAME XSTACK, 35, STACK
        ARGFRAME IOVERLAY, 0, STATIC
        ARGFRAME DOVERLAY, 0, STATIC
        EXTERN AssocRemove
        FUNCTION AssocRemove,0202H
        ARGFRAME ISTACK, 0, STACK
        ARGFRAME PSTACK, 0, STACK
        ARGFRAME XSTACK, 35, STACK
        ARGFRAME IOVERLAY, 0, STATIC
        ARGFRAME DOVERLAY, 0, STATIC
        EXTERN NLME_GetShortAddr
        FUNCTION NLME_GetShortAddr,0202H
        ARGFRAME ISTACK, 2, STACK
        ARGFRAME PSTACK, 0, STACK
        ARGFRAME XSTACK, 35, STACK
        ARGFRAME IOVERLAY, 0, STATIC
        ARGFRAME DOVERLAY, 0, STATIC
        EXTERN NLME_LeaveReq
        FUNCTION NLME_LeaveReq,0202H
        ARGFRAME ISTACK, 0, STACK
        ARGFRAME PSTACK, 0, STACK
        ARGFRAME XSTACK, 21, STACK
        ARGFRAME IOVERLAY, 0, STATIC
        ARGFRAME DOVERLAY, 0, STATIC
        EXTERN SSP_GetTrueRand
        FUNCTION SSP_GetTrueRand,0202H
        ARGFRAME ISTACK, 0, STACK
        ARGFRAME PSTACK, 0, STACK
        ARGFRAME XSTACK, 18, STACK
        ARGFRAME IOVERLAY, 0, STATIC
        ARGFRAME DOVERLAY, 0, STATIC
        EXTERN SSP_SwitchNwkKey
        FUNCTION SSP_SwitchNwkKey,0202H
        ARGFRAME ISTACK, 0, STACK
        ARGFRAME PSTACK, 0, STACK
        ARGFRAME XSTACK, 13, STACK
        ARGFRAME IOVERLAY, 0, STATIC
        ARGFRAME DOVERLAY, 0, STATIC
        EXTERN SSP_UpdateNwkKey
        FUNCTION SSP_UpdateNwkKey,0202H
        ARGFRAME ISTACK, 0, STACK
        ARGFRAME PSTACK, 0, STACK
        ARGFRAME XSTACK, 25, STACK
        ARGFRAME IOVERLAY, 0, STATIC
        ARGFRAME DOVERLAY, 0, STATIC
        EXTERN ZDAppTaskID
        EXTERN ZDApp_NVUpdate
        FUNCTION ZDApp_NVUpdate,0202H
        ARGFRAME ISTACK, 0, STACK
        ARGFRAME PSTACK, 0, STACK
        ARGFRAME XSTACK, 25, STACK
        ARGFRAME IOVERLAY, 0, STATIC
        ARGFRAME DOVERLAY, 0, STATIC
        EXTERN _NIB
        EXTERN defaultTCLinkKey
        EXTERN devState
        EXTERN osal_mem_alloc
        FUNCTION osal_mem_alloc,0202H
        ARGFRAME ISTACK, 0, STACK
        ARGFRAME PSTACK, 0, STACK
        ARGFRAME XSTACK, 12, STACK
        ARGFRAME IOVERLAY, 0, STATIC
        ARGFRAME DOVERLAY, 0, STATIC
        EXTERN osal_memcpy
        FUNCTION osal_memcpy,0202H
        ARGFRAME ISTACK, 0, STACK
        ARGFRAME PSTACK, 0, STACK
        ARGFRAME XSTACK, 64, STACK
        ARGFRAME IOVERLAY, 0, STATIC
        ARGFRAME DOVERLAY, 0, STATIC
        EXTERN osal_memset
        FUNCTION osal_memset,0202H
        ARGFRAME ISTACK, 0, STACK
        ARGFRAME PSTACK, 0, STACK
        ARGFRAME XSTACK, 43, STACK
        ARGFRAME IOVERLAY, 0, STATIC
        ARGFRAME DOVERLAY, 0, STATIC
        EXTERN osal_nv_item_init
        FUNCTION osal_nv_item_init,0202H
        ARGFRAME ISTACK, 0, STACK
        ARGFRAME PSTACK, 0, STACK
        ARGFRAME XSTACK, 45, STACK
        ARGFRAME IOVERLAY, 0, STATIC
        ARGFRAME DOVERLAY, 0, STATIC
        EXTERN osal_nv_read
        FUNCTION osal_nv_read,0202H
        ARGFRAME ISTACK, 0, STACK
        ARGFRAME PSTACK, 0, STACK
        ARGFRAME XSTACK, 65, STACK
        ARGFRAME IOVERLAY, 0, STATIC
        ARGFRAME DOVERLAY, 0, STATIC
        EXTERN osal_nv_write
        FUNCTION osal_nv_write,0202H
        ARGFRAME ISTACK, 0, STACK
        ARGFRAME PSTACK, 0, STACK
        ARGFRAME XSTACK, 65, STACK
        ARGFRAME IOVERLAY, 0, STATIC
        ARGFRAME DOVERLAY, 0, STATIC
        EXTERN osal_set_event
        FUNCTION osal_set_event,0202H
        ARGFRAME ISTACK, 2, STACK
        ARGFRAME PSTACK, 0, STACK
        ARGFRAME XSTACK, 9, STACK
        ARGFRAME IOVERLAY, 0, STATIC
        ARGFRAME DOVERLAY, 0, STATIC
        EXTERN osal_start_timerEx
        FUNCTION osal_start_timerEx,0202H
        ARGFRAME ISTACK, 0, STACK
        ARGFRAME PSTACK, 0, STACK
        ARGFRAME XSTACK, 33, STACK
        ARGFRAME IOVERLAY, 0, STATIC
        ARGFRAME DOVERLAY, 0, STATIC
        EXTERN zgPreConfigKey
        EXTERN zgPreConfigKeys
        EXTERN zgSecurePermitJoin
        EXTERN zgUseDefaultTCLK

// C:\Users\ArnoldWorkStation\Desktop\ZigbeeTest\Components\stack\zdo\ZDSecMgr.c
//    1 /**************************************************************************************************
//    2   Filename:       ZDSecMgr.c
//    3   Revised:        $Date: 2010-01-08 13:29:59 -0800 (Fri, 08 Jan 2010) $
//    4   Revision:       $Revision: 21465 $
//    5 
//    6   Description:    The ZigBee Device Security Manager.
//    7 
//    8 
//    9   Copyright 2005-2009 Texas Instruments Incorporated. All rights reserved.
//   10 
//   11   IMPORTANT: Your use of this Software is limited to those specific rights
//   12   granted under the terms of a software license agreement between the user
//   13   who downloaded the software, his/her employer (which must be your employer)
//   14   and Texas Instruments Incorporated (the "License").  You may not use this
//   15   Software unless you agree to abide by the terms of the License. The License
//   16   limits your use, and you acknowledge, that the Software may not be modified,
//   17   copied or distributed unless embedded on a Texas Instruments microcontroller
//   18   or used solely and exclusively in conjunction with a Texas Instruments radio
//   19   frequency transceiver, which is integrated into your product.  Other than for
//   20   the foregoing purpose, you may not use, reproduce, copy, prepare derivative
//   21   works of, modify, distribute, perform, display or sell this Software and/or
//   22   its documentation for any purpose.
//   23 
//   24   YOU FURTHER ACKNOWLEDGE AND AGREE THAT THE SOFTWARE AND DOCUMENTATION ARE
//   25   PROVIDED AS IS WITHOUT WARRANTY OF ANY KIND, EITHER EXPRESS OR IMPLIED,
//   26   INCLUDING WITHOUT LIMITATION, ANY WARRANTY OF MERCHANTABILITY, TITLE,
//   27   NON-INFRINGEMENT AND FITNESS FOR A PARTICULAR PURPOSE. IN NO EVENT SHALL
//   28   TEXAS INSTRUMENTS OR ITS LICENSORS BE LIABLE OR OBLIGATED UNDER CONTRACT,
//   29   NEGLIGENCE, STRICT LIABILITY, CONTRIBUTION, BREACH OF WARRANTY, OR OTHER
//   30   LEGAL EQUITABLE THEORY ANY DIRECT OR INDIRECT DAMAGES OR EXPENSES
//   31   INCLUDING BUT NOT LIMITED TO ANY INCIDENTAL, SPECIAL, INDIRECT, PUNITIVE
//   32   OR CONSEQUENTIAL DAMAGES, LOST PROFITS OR LOST DATA, COST OF PROCUREMENT
//   33   OF SUBSTITUTE GOODS, TECHNOLOGY, SERVICES, OR ANY CLAIMS BY THIRD PARTIES
//   34   (INCLUDING BUT NOT LIMITED TO ANY DEFENSE THEREOF), OR OTHER SIMILAR COSTS.
//   35 
//   36   Should you have any questions regarding your right to use this Software,
//   37   contact Texas Instruments Incorporated at www.TI.com.
//   38 **************************************************************************************************/
//   39 
//   40 #ifdef __cplusplus
//   41 extern "C"
//   42 {
//   43 #endif
//   44 
//   45 /******************************************************************************
//   46  * INCLUDES
//   47  */
//   48 #include "ZComdef.h"
//   49 #include "OSAL.h"
//   50 #include "OSAL_NV.h"
//   51 #include "ZGlobals.h"
//   52 #include "ssp.h"
//   53 #include "nwk_globals.h"
//   54 #include "nwk.h"
//   55 #include "NLMEDE.h"
//   56 #include "AddrMgr.h"
//   57 #include "AssocList.h"
//   58 #include "APSMEDE.h"
//   59 #include "AF.h"
//   60 #include "ZDConfig.h"
//   61 #include "ZDApp.h"
//   62 #include "ZDSecMgr.h"
//   63 
//   64 
//   65 /******************************************************************************
//   66  * CONSTANTS
//   67  */
//   68 // maximum number of devices managed by this Security Manager
//   69 #if !defined ( ZDSECMGR_DEVICE_MAX )
//   70   #define ZDSECMGR_DEVICE_MAX 3
//   71 #endif
//   72 
//   73 // total number of preconfigured devices (EXT address, MASTER key)
//   74 //devtag.pro.security
//   75 //#define ZDSECMGR_PRECONFIG_MAX ZDSECMGR_DEVICE_MAX
//   76 #define ZDSECMGR_PRECONFIG_MAX 0
//   77 
//   78 // maximum number of MASTER keys this device may hold
//   79 #define ZDSECMGR_MASTERKEY_MAX ZDSECMGR_DEVICE_MAX
//   80 
//   81 // maximum number of LINK keys this device may store
//   82 #define ZDSECMGR_ENTRY_MAX ZDSECMGR_DEVICE_MAX
//   83 
//   84 // total number of devices under control - authentication, SKKE, etc.
//   85 #define ZDSECMGR_CTRL_MAX ZDSECMGR_DEVICE_MAX
//   86 
//   87 // total number of stored devices
//   88 #if !defined ( ZDSECMGR_STORED_DEVICES )
//   89   #define ZDSECMGR_STORED_DEVICES 3
//   90 #endif
//   91   
//   92 // Total number of preconfigured trust center link key
//   93 #if !defined ( ZDSECMGR_TC_DEVICE_MAX )
//   94   #define ZDSECMGR_TC_DEVICE_MAX 1
//   95 #endif
//   96   
//   97 #if ( ZDSECMGR_TC_DEVICE_MAX < 1 ) || ( ZDSECMGR_TC_DEVICE_MAX > 255 )
//   98   #error "ZDSECMGR_TC_DEVICE_MAX shall be between 1 and 255 !"
//   99 #endif
//  100   
//  101 #define ZDSECMGR_CTRL_NONE       0
//  102 #define ZDSECMGR_CTRL_INIT       1
//  103 #define ZDSECMGR_CTRL_TK_MASTER  2
//  104 #define ZDSECMGR_CTRL_SKKE_INIT  3
//  105 #define ZDSECMGR_CTRL_SKKE_WAIT  4
//  106 #define ZDSECMGR_CTRL_SKKE_DONE  5
//  107 #define ZDSECMGR_CTRL_SKKE_FAIL  6
//  108 #define ZDSECMGR_CTRL_TK_NWK     7
//  109 
//  110 #define ZDSECMGR_CTRL_BASE_CNTR      1
//  111 #define ZDSECMGR_CTRL_SKKE_INIT_CNTR 1
//  112 #define ZDSECMGR_CTRL_TK_NWK_CNTR    1
//  113 
//  114 // set SKA slot maximum
//  115 #define ZDSECMGR_SKA_SLOT_MAX 1
//  116 
//  117 // APSME Stub Implementations
//  118 #define ZDSecMgrMasterKeyGet   APSME_MasterKeyGet
//  119 #define ZDSecMgrLinkKeySet     APSME_LinkKeySet
//  120 #define ZDSecMgrLinkKeyDataGet APSME_LinkKeyDataGet
//  121 #define ZDSecMgrKeyFwdToChild  APSME_KeyFwdToChild
//  122 
//  123 #if !defined( MAX_APS_FRAMECOUNTER_CHANGES )
//  124   // The number of times the frame counter can change before
//  125   // saving to NV
//  126   #define MAX_APS_FRAMECOUNTER_CHANGES    10
//  127 #endif
//  128 
//  129 /******************************************************************************
//  130  * TYPEDEFS
//  131  */
//  132 typedef struct
//  133 {
//  134   uint8 extAddr[Z_EXTADDR_LEN];
//  135   uint8 key[SEC_KEY_LEN];
//  136 } ZDSecMgrPreConfigData_t;
//  137 
//  138 typedef struct
//  139 {
//  140   uint16 ami;
//  141   uint8  key[SEC_KEY_LEN];
//  142 } ZDSecMgrMasterKeyData_t;
//  143 
//  144 //should match APSME_LinkKeyData_t;
//  145 typedef struct
//  146 {
//  147   uint8               key[SEC_KEY_LEN];
//  148   APSME_LinkKeyData_t apsmelkd;
//  149 } ZDSecMgrLinkKeyData_t;
//  150 
//  151 typedef struct
//  152 {
//  153   uint16                ami;
//  154   ZDSecMgrLinkKeyData_t lkd;
//  155   ZDSecMgr_Authentication_Option authenticateOption;
//  156 } ZDSecMgrEntry_t;
//  157 
//  158 typedef struct
//  159 {
//  160   ZDSecMgrEntry_t* entry;
//  161   uint16           parentAddr;
//  162   uint8            secure;
//  163   uint8            state;
//  164   uint8            cntr;
//  165   //uint8          next;
//  166 } ZDSecMgrCtrl_t;
//  167 
//  168 typedef struct
//  169 {
//  170   uint16          nwkAddr;
//  171   uint8*          extAddr;
//  172   uint16          parentAddr;
//  173   uint8           secure;
//  174   uint8           devStatus;
//  175   ZDSecMgrCtrl_t* ctrl;
//  176 } ZDSecMgrDevice_t;
//  177 
//  178 /******************************************************************************
//  179  * LOCAL VARIABLES
//  180  */
//  181 #if 0 // Taken out because the following functionality is only used for test
//  182       // purpose. A more efficient (above) way is used. It can be put
//  183       // back in if customers request for a white/black list feature.
//  184 uint8 ZDSecMgrStoredDeviceList[ZDSECMGR_STORED_DEVICES][Z_EXTADDR_LEN] =
//  185 {
//  186   { 0x01, 0x00, 0x00, 0x00, 0x00, 0x00, 0x00, 0x00 },
//  187   { 0x00, 0x00, 0x00, 0x00, 0x00, 0x00, 0x00, 0x01 },
//  188   { 0x00, 0x00, 0x00, 0x00, 0x00, 0x00, 0x00, 0x00 },
//  189 };
//  190 #endif
//  191 

        RSEG XDATA_Z:XDATA:NOROOT(0)
        DATA8
//  192 uint8 ZDSecMgrTCExtAddr[Z_EXTADDR_LEN]=
ZDSecMgrTCExtAddr:
        DS 8
        REQUIRE __INIT_XDATA_Z
//  193   { 0x00, 0x00, 0x00, 0x00, 0x00, 0x00, 0x00, 0x00 };
//  194 

        RSEG XDATA_I:XDATA:NOROOT(0)
//  195 uint8 ZDSecMgrTCMasterKey[SEC_KEY_LEN] =
ZDSecMgrTCMasterKey:
        DATA8
        DS 16
        REQUIRE `?<Initializer for ZDSecMgrTCMasterKey>`
        REQUIRE __INIT_XDATA_I
//  196   {0x00,0x00,0x00,0x00,0x00,0x00,0x00,0x00,
//  197    0x89,0x67,0x45,0x23,0x01,0xEF,0xCD,0xAB};
//  198 

        RSEG XDATA_Z:XDATA:NOROOT(0)
        DATA8
//  199 uint8 ZDSecMgrTCAuthenticated = FALSE;
ZDSecMgrTCAuthenticated:
        DS 1
        REQUIRE __INIT_XDATA_Z

        RSEG XDATA_Z:XDATA:NOROOT(0)
        DATA8
//  200 uint8 ZDSecMgrTCDataLoaded    = FALSE;
ZDSecMgrTCDataLoaded:
        DS 1
        REQUIRE __INIT_XDATA_Z
//  201 
//  202 //devtag.pro.security - remove this
//  203 #if ( ZDSECMGR_PRECONFIG_MAX != 0 )
//  204 const ZDSecMgrPreConfigData_t ZDSecMgrPreConfigData[ZDSECMGR_PRECONFIG_MAX] =
//  205 {
//  206   //---------------------------------------------------------------------------
//  207   // DEVICE A
//  208   //---------------------------------------------------------------------------
//  209   {
//  210     // extAddr
//  211     {0x7C,0x01,0x12,0x13,0x14,0x15,0x16,0x17},
//  212 
//  213     // key
//  214     {0x00,0x00,0x00,0x00,0x00,0x00,0x00,0x00,
//  215      0x00,0x00,0x00,0x00,0x00,0x00,0x00,0x00}
//  216   },
//  217   //---------------------------------------------------------------------------
//  218   // DEVICE B
//  219   //---------------------------------------------------------------------------
//  220   {
//  221     // extAddr
//  222     {0x84,0x03,0x00,0x00,0x00,0x4B,0x12,0x00},
//  223 
//  224     // key
//  225     {0x00,0x00,0x00,0x00,0x00,0x00,0x00,0x00,
//  226      0x00,0x00,0x00,0x00,0x00,0x00,0x00,0x00}
//  227   },
//  228   //---------------------------------------------------------------------------
//  229   // DEVICE C
//  230   //---------------------------------------------------------------------------
//  231   {
//  232     // extAddr
//  233     {0x3E,0x01,0x12,0x13,0x14,0x15,0x16,0x17},
//  234 
//  235     // key
//  236     {0x00,0x00,0x00,0x00,0x00,0x00,0x00,0x00,
//  237      0x00,0x00,0x00,0x00,0x00,0x00,0x00,0x00}
//  238   },
//  239 };
//  240 #endif // ( ZDSECMGR_PRECONFIG_MAX != 0 )
//  241 

        RSEG XDATA_Z:XDATA:NOROOT(0)
        DATA16
//  242 ZDSecMgrMasterKeyData_t* ZDSecMgrMasterKeyData = NULL;
ZDSecMgrMasterKeyData:
        DS 2
        REQUIRE __INIT_XDATA_Z

        RSEG XDATA_Z:XDATA:NOROOT(0)
        DATA16
//  243 ZDSecMgrEntry_t*         ZDSecMgrEntries       = NULL;
ZDSecMgrEntries:
        DS 2
        REQUIRE __INIT_XDATA_Z

        RSEG XDATA_Z:XDATA:NOROOT(0)
        DATA16
//  244 ZDSecMgrCtrl_t*          ZDSecMgrCtrlData      = NULL;
ZDSecMgrCtrlData:
        DS 2
        REQUIRE __INIT_XDATA_Z
//  245 void ZDSecMgrAddrMgrUpdate( uint16 ami, uint16 nwkAddr );
//  246 void ZDSecMgrAddrMgrCB( uint8 update, AddrMgrEntry_t* newEntry, AddrMgrEntry_t* oldEntry );
//  247 

        RSEG XDATA_Z:XDATA:NOROOT(0)
        DATA8
//  248 uint8 ZDSecMgrPermitJoiningEnabled;
ZDSecMgrPermitJoiningEnabled:
        DS 1
        REQUIRE __INIT_XDATA_Z

        RSEG XDATA_Z:XDATA:NOROOT(0)
        DATA8
//  249 uint8 ZDSecMgrPermitJoiningTimed;
ZDSecMgrPermitJoiningTimed:
        DS 1
        REQUIRE __INIT_XDATA_Z
//  250 

        RSEG XDATA_Z:XDATA:NOROOT(0)
        DATA8
//  251 APSME_TCLinkKey_t TrustCenterLinkKey;
TrustCenterLinkKey:
        DS 32
        REQUIRE __INIT_XDATA_Z
//  252 
//  253 /******************************************************************************
//  254  * PRIVATE FUNCTIONS
//  255  *
//  256  *   ZDSecMgrMasterKeyInit
//  257  *   ZDSecMgrAddrStore
//  258  *   ZDSecMgrExtAddrStore
//  259  *   ZDSecMgrExtAddrLookup
//  260  *   ZDSecMgrMasterKeyLookup
//  261  *   ZDSecMgrMasterKeyStore
//  262  *   ZDSecMgrEntryInit
//  263  *   ZDSecMgrEntryLookup
//  264  *   ZDSecMgrEntryLookupAMI
//  265  *   ZDSecMgrEntryLookupExt
//  266  *   ZDSecMgrEntryFree
//  267  *   ZDSecMgrEntryNew
//  268  *   ZDSecMgrCtrlInit
//  269  *   ZDSecMgrCtrlRelease
//  270  *   ZDSecMgrCtrlLookup
//  271  *   ZDSecMgrCtrlSet
//  272  *   ZDSecMgrCtrlAdd
//  273  *   ZDSecMgrCtrlTerm
//  274  *   ZDSecMgrCtrlReset
//  275  *   ZDSecMgrMasterKeyLoad
//  276  *   ZDSecMgrAppKeyGet
//  277  *   ZDSecMgrAppKeyReq
//  278  *   ZDSecMgrEstablishKey
//  279  *   ZDSecMgrSendMasterKey
//  280  *   ZDSecMgrSendNwkKey
//  281  *   ZDSecMgrDeviceEntryRemove
//  282  *   ZDSecMgrDeviceEntryAdd
//  283  *   ZDSecMgrDeviceCtrlHandler
//  284  *   ZDSecMgrDeviceCtrlSetup
//  285  *   ZDSecMgrDeviceCtrlUpdate
//  286  *   ZDSecMgrDeviceRemove
//  287  *   ZDSecMgrDeviceValidateSKKE
//  288  *   ZDSecMgrDeviceValidateRM
//  289  *   ZDSecMgrDeviceValidateCM
//  290  *   ZDSecMgrDeviceValidate
//  291  *   ZDSecMgrDeviceJoin
//  292  *   ZDSecMgrDeviceJoinDirect
//  293  *   ZDSecMgrDeviceJoinFwd
//  294  *   ZDSecMgrDeviceNew
//  295  *   ZDSecMgrAssocDeviceAuth
//  296  *   ZDSecMgrAuthInitiate
//  297  *   ZDSecMgrAuthNwkKey
//  298  *   APSME_TCLinkKeyInit
//  299  *   APSME_IsDefaultTCLK
//  300  */
//  301 //-----------------------------------------------------------------------------
//  302 // master key data
//  303 //-----------------------------------------------------------------------------
//  304 void ZDSecMgrMasterKeyInit( void );
//  305 
//  306 //-----------------------------------------------------------------------------
//  307 // address management
//  308 //-----------------------------------------------------------------------------
//  309 ZStatus_t ZDSecMgrAddrStore( uint16 nwkAddr, uint8* extAddr, uint16* ami );
//  310 ZStatus_t ZDSecMgrExtAddrStore( uint16 nwkAddr, uint8* extAddr, uint16* ami );
//  311 ZStatus_t ZDSecMgrExtAddrLookup( uint8* extAddr, uint16* ami );
//  312 
//  313 //-----------------------------------------------------------------------------
//  314 // MASTER key data
//  315 //-----------------------------------------------------------------------------
//  316 ZStatus_t ZDSecMgrMasterKeyLookup( uint16 ami, uint8** key );
//  317 ZStatus_t ZDSecMgrMasterKeyStore( uint16 ami, uint8* key );
//  318 
//  319 //-----------------------------------------------------------------------------
//  320 // entry data
//  321 //-----------------------------------------------------------------------------
//  322 void ZDSecMgrEntryInit(uint8 state);
//  323 ZStatus_t ZDSecMgrEntryLookup( uint16 nwkAddr, ZDSecMgrEntry_t** entry );
//  324 ZStatus_t ZDSecMgrEntryLookupAMI( uint16 ami, ZDSecMgrEntry_t** entry );
//  325 ZStatus_t ZDSecMgrEntryLookupExt( uint8* extAddr, ZDSecMgrEntry_t** entry );
//  326 void ZDSecMgrEntryFree( ZDSecMgrEntry_t* entry );
//  327 ZStatus_t ZDSecMgrEntryNew( ZDSecMgrEntry_t** entry );
//  328 ZStatus_t ZDSecMgrAuthenticationSet( uint8* extAddr, ZDSecMgr_Authentication_Option option );
//  329 
//  330 //-----------------------------------------------------------------------------
//  331 // control data
//  332 //-----------------------------------------------------------------------------
//  333 void ZDSecMgrCtrlInit( void );
//  334 void ZDSecMgrCtrlRelease( ZDSecMgrCtrl_t* ctrl );
//  335 void ZDSecMgrCtrlLookup( ZDSecMgrEntry_t* entry, ZDSecMgrCtrl_t** ctrl );
//  336 void ZDSecMgrCtrlSet( ZDSecMgrDevice_t* device,
//  337                       ZDSecMgrEntry_t*  entry,
//  338                       ZDSecMgrCtrl_t*   ctrl );
//  339 ZStatus_t ZDSecMgrCtrlAdd( ZDSecMgrDevice_t* device, ZDSecMgrEntry_t*  entry );
//  340 void ZDSecMgrCtrlTerm( ZDSecMgrEntry_t* entry );
//  341 ZStatus_t ZDSecMgrCtrlReset( ZDSecMgrDevice_t* device,
//  342                              ZDSecMgrEntry_t*  entry );
//  343 
//  344 //-----------------------------------------------------------------------------
//  345 // key support
//  346 //-----------------------------------------------------------------------------
//  347 ZStatus_t ZDSecMgrMasterKeyLoad( uint8* extAddr, uint8* key );
//  348 ZStatus_t ZDSecMgrAppKeyGet( uint16  initNwkAddr,
//  349                              uint8*  initExtAddr,
//  350                              uint16  partNwkAddr,
//  351                              uint8*  partExtAddr,
//  352                              uint8** key,
//  353                              uint8*  keyType );
//  354 void ZDSecMgrAppKeyReq( ZDO_RequestKeyInd_t* ind );
//  355 ZStatus_t ZDSecMgrEstablishKey( ZDSecMgrDevice_t* device );
//  356 ZStatus_t ZDSecMgrSendMasterKey( ZDSecMgrDevice_t* device );
//  357 ZStatus_t ZDSecMgrSendNwkKey( ZDSecMgrDevice_t* device );
//  358 
//  359 //-----------------------------------------------------------------------------
//  360 // device entry
//  361 //-----------------------------------------------------------------------------
//  362 void ZDSecMgrDeviceEntryRemove( ZDSecMgrEntry_t* entry );
//  363 ZStatus_t ZDSecMgrDeviceEntryAdd( ZDSecMgrDevice_t* device, uint16 ami );
//  364 #if defined NV_RESTORE
//  365 static void ZDSecMgrWriteNV(void);
//  366 static void ZDSecMgrRestoreFromNV(void);
//  367 #endif
//  368 
//  369 //-----------------------------------------------------------------------------
//  370 // device control
//  371 //-----------------------------------------------------------------------------
//  372 void ZDSecMgrDeviceCtrlHandler( ZDSecMgrDevice_t* device );
//  373 void ZDSecMgrDeviceCtrlSetup( ZDSecMgrDevice_t* device );
//  374 void ZDSecMgrDeviceCtrlUpdate( uint8* extAddr, uint8 state );
//  375 
//  376 //-----------------------------------------------------------------------------
//  377 // device management
//  378 //-----------------------------------------------------------------------------
//  379 void ZDSecMgrDeviceRemove( ZDSecMgrDevice_t* device );
//  380 ZStatus_t ZDSecMgrDeviceValidateSKKE( ZDSecMgrDevice_t* device );
//  381 ZStatus_t ZDSecMgrDeviceValidateRM( ZDSecMgrDevice_t* device );
//  382 ZStatus_t ZDSecMgrDeviceValidateCM( ZDSecMgrDevice_t* device );
//  383 ZStatus_t ZDSecMgrDeviceValidate( ZDSecMgrDevice_t* device );
//  384 ZStatus_t ZDSecMgrDeviceJoin( ZDSecMgrDevice_t* device );
//  385 ZStatus_t ZDSecMgrDeviceJoinDirect( ZDSecMgrDevice_t* device );
//  386 ZStatus_t ZDSecMgrDeviceJoinFwd( ZDSecMgrDevice_t* device );
//  387 ZStatus_t ZDSecMgrDeviceNew( ZDSecMgrDevice_t* device );
//  388 
//  389 //-----------------------------------------------------------------------------
//  390 // association management
//  391 //-----------------------------------------------------------------------------
//  392 void ZDSecMgrAssocDeviceAuth( associated_devices_t* assoc );
//  393 
//  394 //-----------------------------------------------------------------------------
//  395 // authentication management
//  396 //-----------------------------------------------------------------------------
//  397 void ZDSecMgrAuthInitiate( uint8* responder );
//  398 void ZDSecMgrAuthNwkKey( void );
//  399 
//  400 //-----------------------------------------------------------------------------
//  401 // APSME function
//  402 //-----------------------------------------------------------------------------
//  403 void APSME_TCLinkKeyInit( void );
//  404 uint8 APSME_IsDefaultTCLK( uint8 *extAddr );
//  405 
//  406 /******************************************************************************
//  407  * @fn          ZDSecMgrMasterKeyInit                     ]
//  408  *
//  409  * @brief       Initialize master key data.
//  410  *
//  411  * @param       none
//  412  *
//  413  * @return      none
//  414  */

        RSEG BANKED_CODE:CODE:NOROOT(0)
//  415 void ZDSecMgrMasterKeyInit( void )
ZDSecMgrMasterKeyInit:
          CFI Block cfiBlock0 Using cfiCommon0
          CFI Function ZDSecMgrMasterKeyInit
        CODE
//  416 {
        FUNCALL ZDSecMgrMasterKeyInit, osal_mem_alloc
        LOCFRAME ISTACK, 0, STACK
        LOCFRAME PSTACK, 0, STACK
        LOCFRAME XSTACK, 10, STACK
        LOCFRAME IOVERLAY, 0, STATIC
        LOCFRAME DOVERLAY, 0, STATIC
        ARGFRAME ISTACK, 0, STACK
        ARGFRAME PSTACK, 0, STACK
        ARGFRAME XSTACK, 10, STACK
        ARGFRAME IOVERLAY, 0, STATIC
        ARGFRAME DOVERLAY, 0, STATIC
        MOV     A,#-0xa
        LCALL   ?BANKED_ENTER_XDATA
          CFI DPH0 load(1, XDATA, add(CFA_XSP16, literal(-1)))
          CFI DPL0 load(1, XDATA, add(CFA_XSP16, literal(-2)))
          CFI ?BRET_EXT load(1, XDATA, add(CFA_XSP16, literal(-3)))
          CFI ?RET_HIGH load(1, XDATA, add(CFA_XSP16, literal(-4)))
          CFI ?RET_LOW load(1, XDATA, add(CFA_XSP16, literal(-5)))
          CFI R7 load(1, XDATA, add(CFA_XSP16, literal(-6)))
          CFI V1 load(1, XDATA, add(CFA_XSP16, literal(-7)))
          CFI V0 load(1, XDATA, add(CFA_XSP16, literal(-8)))
          CFI VB load(1, XDATA, add(CFA_XSP16, literal(-9)))
          CFI R6 load(1, XDATA, add(CFA_XSP16, literal(-10)))
          CFI CFA_SP SP+0
          CFI CFA_XSP16 add(XSP16, 10)
        ; Saved register size: 10
        ; Auto size: 0
//  417   uint16 index;
//  418   uint16 size;
//  419 
//  420   // allocate MASTER key data
//  421   size = (short)( sizeof(ZDSecMgrMasterKeyData_t) * ZDSECMGR_MASTERKEY_MAX );
        MOV     ?V0 + 0,#0x36
        MOV     ?V0 + 1,#0x0
//  422 
//  423   ZDSecMgrMasterKeyData = osal_mem_alloc( size );
        ; Setup parameters for call to function osal_mem_alloc
        MOV     R2,?V0 + 0
        MOV     R3,?V0 + 1
        LCALL   ??osal_mem_alloc?relay
        MOV     DPTR,#ZDSecMgrMasterKeyData
        MOV     A,R2
        MOVX    @DPTR,A
        INC     DPTR
        MOV     A,R3
        MOVX    @DPTR,A
//  424 
//  425   // initialize MASTER key data
//  426   if ( ZDSecMgrMasterKeyData != NULL )
        MOV     DPTR,#ZDSecMgrMasterKeyData
        MOVX    A,@DPTR
        MOV     R0,A
        INC     DPTR
        MOVX    A,@DPTR
        MOV     R1,A
        MOV     A,R0
        ORL     A,R1
        JZ      ??ZDSecMgrMasterKeyInit_0
//  427   {
//  428     for ( index = 0; index < ZDSECMGR_MASTERKEY_MAX; index++ )
        MOV     R6,#0x0
        MOV     R7,#0x0
??ZDSecMgrMasterKeyInit_1:
        CLR     C
        MOV     A,R6
        SUBB    A,#0x3
        MOV     A,R7
        SUBB    A,#0x0
        JNC     ??ZDSecMgrMasterKeyInit_0
//  429     {
//  430       ZDSecMgrMasterKeyData[index].ami = INVALID_NODE_ADDR;
        MOV     A,R6
        MOV     R0,A
        MOV     A,R7
        MOV     R1,A
        MOV     A,R0
        MOV     B,#0x12
        MUL     AB
        XCH     A,R0
        MOV     R2,B
        MOV     B,#0x0
        MUL     AB
        ADD     A,R2
        MOV     R2,A
        MOV     B,#0x12
        MOV     A,R1
        MUL     AB
        ADD     A,R2
        MOV     R1,A
        MOV     DPTR,#ZDSecMgrMasterKeyData
        MOVX    A,@DPTR
        ADD     A,R0
        MOV     R2,A
        INC     DPTR
        MOVX    A,@DPTR
        ADDC    A,R1
        MOV     DPL,R2
        MOV     DPH,A
        MOV     A,#-0x2
        MOVX    @DPTR,A
        INC     DPTR
        MOV     A,#-0x1
        MOVX    @DPTR,A
//  431     }
        MOV     A,R6
        ADD     A,#0x1
        MOV     R6,A
        MOV     A,R7
        ADDC    A,#0x0
        MOV     R7,A
        SJMP    ??ZDSecMgrMasterKeyInit_1
//  432   }
//  433 }
??ZDSecMgrMasterKeyInit_0:
        MOV     R7,#0x2
        LJMP    ?BANKED_LEAVE_XDATA
          CFI EndBlock cfiBlock0
//  434 //devtag.pro.security
//  435 #if 0
//  436 void ZDSecMgrMasterKeyInit( void )
//  437 {
//  438   uint16         index;
//  439   uint16         size;
//  440   AddrMgrEntry_t entry;
//  441 
//  442 
//  443   // allocate MASTER key data
//  444   size = (short)( sizeof(ZDSecMgrMasterKeyData_t) * ZDSECMGR_MASTERKEY_MAX );
//  445 
//  446   ZDSecMgrMasterKeyData = osal_mem_alloc( size );
//  447 
//  448   // initialize MASTER key data
//  449   if ( ZDSecMgrMasterKeyData != NULL )
//  450   {
//  451     for ( index = 0; index < ZDSECMGR_MASTERKEY_MAX; index++ )
//  452     {
//  453       ZDSecMgrMasterKeyData[index].ami = INVALID_NODE_ADDR;
//  454     }
//  455 
//  456     // check if preconfigured keys are enabled
//  457     //-------------------------------------------------------------------------
//  458     #if ( ZDSECMGR_PRECONFIG_MAX != 0 )
//  459     //-------------------------------------------------------------------------
//  460     if ( zgPreConfigKeys == TRUE )
//  461     {
//  462       // sync configured data
//  463       entry.user = ADDRMGR_USER_SECURITY;
//  464 
//  465       for ( index = 0; index < ZDSECMGR_PRECONFIG_MAX; index++ )
//  466       {
//  467         // check for Address Manager entry
//  468         AddrMgrExtAddrSet( entry.extAddr,
//  469                            (uint8*)ZDSecMgrPreConfigData[index].extAddr );
//  470 
//  471         if ( AddrMgrEntryLookupExt( &entry ) != TRUE )
//  472         {
//  473           // update Address Manager
//  474           AddrMgrEntryUpdate( &entry );
//  475         }
//  476 
//  477         if ( entry.index != INVALID_NODE_ADDR )
//  478         {
//  479           // sync MASTER keys with Address Manager index
//  480           ZDSecMgrMasterKeyData[index].ami = entry.index;
//  481 
//  482           osal_memcpy( ZDSecMgrMasterKeyData[index].key,
//  483                    (void*)ZDSecMgrPreConfigData[index].key, SEC_KEY_LEN );
//  484         }
//  485       }
//  486     }
//  487     //-------------------------------------------------------------------------
//  488     #endif // ( ZDSECMGR_PRECONFIG_MAX != 0 )
//  489     //-------------------------------------------------------------------------
//  490   }
//  491 }
//  492 #endif
//  493 
//  494 /******************************************************************************
//  495  * @fn          ZDSecMgrAddrStore
//  496  *
//  497  * @brief       Store device addresses.
//  498  *
//  499  * @param       nwkAddr - [in] NWK address
//  500  * @param       extAddr - [in] EXT address
//  501  * @param       ami     - [out] Address Manager index
//  502  *
//  503  * @return      ZStatus_t
//  504  */

        RSEG BANKED_CODE:CODE:NOROOT(0)
//  505 ZStatus_t ZDSecMgrAddrStore( uint16 nwkAddr, uint8* extAddr, uint16* ami )
ZDSecMgrAddrStore:
          CFI Block cfiBlock1 Using cfiCommon0
          CFI Function ZDSecMgrAddrStore
        CODE
//  506 {
        FUNCALL ZDSecMgrAddrStore, AddrMgrExtAddrSet
        LOCFRAME ISTACK, 0, STACK
        LOCFRAME PSTACK, 0, STACK
        LOCFRAME XSTACK, 26, STACK
        LOCFRAME IOVERLAY, 0, STATIC
        LOCFRAME DOVERLAY, 0, STATIC
        ARGFRAME ISTACK, 0, STACK
        ARGFRAME PSTACK, 0, STACK
        ARGFRAME XSTACK, 26, STACK
        ARGFRAME IOVERLAY, 0, STATIC
        ARGFRAME DOVERLAY, 0, STATIC
        FUNCALL ZDSecMgrAddrStore, AddrMgrEntryUpdate
        LOCFRAME ISTACK, 0, STACK
        LOCFRAME PSTACK, 0, STACK
        LOCFRAME XSTACK, 26, STACK
        LOCFRAME IOVERLAY, 0, STATIC
        LOCFRAME DOVERLAY, 0, STATIC
        ARGFRAME ISTACK, 0, STACK
        ARGFRAME PSTACK, 0, STACK
        ARGFRAME XSTACK, 26, STACK
        ARGFRAME IOVERLAY, 0, STATIC
        ARGFRAME DOVERLAY, 0, STATIC
        MOV     A,#-0xd
        LCALL   ?BANKED_ENTER_XDATA
          CFI DPH0 load(1, XDATA, add(CFA_XSP16, literal(-1)))
          CFI DPL0 load(1, XDATA, add(CFA_XSP16, literal(-2)))
          CFI ?BRET_EXT load(1, XDATA, add(CFA_XSP16, literal(-3)))
          CFI ?RET_HIGH load(1, XDATA, add(CFA_XSP16, literal(-4)))
          CFI ?RET_LOW load(1, XDATA, add(CFA_XSP16, literal(-5)))
          CFI R7 load(1, XDATA, add(CFA_XSP16, literal(-6)))
          CFI V4 load(1, XDATA, add(CFA_XSP16, literal(-7)))
          CFI V3 load(1, XDATA, add(CFA_XSP16, literal(-8)))
          CFI V2 load(1, XDATA, add(CFA_XSP16, literal(-9)))
          CFI V1 load(1, XDATA, add(CFA_XSP16, literal(-10)))
          CFI V0 load(1, XDATA, add(CFA_XSP16, literal(-11)))
          CFI VB load(1, XDATA, add(CFA_XSP16, literal(-12)))
          CFI R6 load(1, XDATA, add(CFA_XSP16, literal(-13)))
          CFI CFA_SP SP+0
          CFI CFA_XSP16 add(XSP16, 13)
        ; Saved register size: 13
        ; Auto size: 13
        MOV     A,#-0xd
        LCALL   ?ALLOC_XSTACK8
          CFI CFA_XSP16 add(XSP16, 26)
        MOV     ?V0 + 2,R2
        MOV     ?V0 + 3,R3
        MOV     A,R4
        MOV     R6,A
        MOV     A,R5
        MOV     R7,A
        MOV     A,#0x1a
        LCALL   ?XSTACK_DISP0_8
        MOVX    A,@DPTR
        MOV     ?V0 + 0,A
        INC     DPTR
        MOVX    A,@DPTR
        MOV     ?V0 + 1,A
//  507   ZStatus_t      status;
//  508   AddrMgrEntry_t entry;
//  509 
//  510 
//  511   // add entry
//  512   entry.user    = ADDRMGR_USER_SECURITY;
        MOV     DPL,?XSP + 0
        MOV     DPH,?XSP + 1
        MOV     A,#0x2
        MOVX    @DPTR,A
//  513   entry.nwkAddr = nwkAddr;
        MOV     A,#0x1
        LCALL   ?XSTACK_DISP0_8
        MOV     A,?V0 + 2
        MOVX    @DPTR,A
        INC     DPTR
        MOV     A,?V0 + 3
        MOVX    @DPTR,A
//  514   AddrMgrExtAddrSet( entry.extAddr, extAddr );
        ; Setup parameters for call to function AddrMgrExtAddrSet
        MOV     A,R6
        MOV     R4,A
        MOV     A,R7
        MOV     R5,A
        MOV     A,#0x3
        LCALL   ?XSTACK_DISP0_8
        MOV     R2,DPL
        MOV     R3,DPH
        LCALL   ??AddrMgrExtAddrSet?relay
//  515 
//  516   if ( AddrMgrEntryUpdate( &entry ) == TRUE )
        ; Setup parameters for call to function AddrMgrEntryUpdate
        MOV     DPL,?XSP + 0
        MOV     DPH,?XSP + 1
        MOV     R2,DPL
        MOV     R3,DPH
        LCALL   ??AddrMgrEntryUpdate?relay
        MOV     A,R1
        XRL     A,#0x1
        JNZ     ??ZDSecMgrAddrStore_0
//  517   {
//  518     // return successful results
//  519     *ami   = entry.index;
        MOV     A,#0xb
        LCALL   ?XSTACK_DISP0_8
        MOVX    A,@DPTR
        MOV     R0,A
        INC     DPTR
        MOVX    A,@DPTR
        MOV     R1,A
        MOV     DPL,?V0 + 0
        MOV     DPH,?V0 + 1
        MOV     A,R0
        MOVX    @DPTR,A
        INC     DPTR
        MOV     A,R1
        MOVX    @DPTR,A
//  520     status = ZSuccess;
        MOV     ?V0 + 4,#0x0
        SJMP    ??ZDSecMgrAddrStore_1
//  521   }
//  522   else
//  523   {
//  524     // return failed results
//  525     *ami   = entry.index;
??ZDSecMgrAddrStore_0:
        MOV     A,#0xb
        LCALL   ?XSTACK_DISP0_8
        MOVX    A,@DPTR
        MOV     R0,A
        INC     DPTR
        MOVX    A,@DPTR
        MOV     R1,A
        MOV     DPL,?V0 + 0
        MOV     DPH,?V0 + 1
        MOV     A,R0
        MOVX    @DPTR,A
        INC     DPTR
        MOV     A,R1
        MOVX    @DPTR,A
//  526     status = ZNwkUnknownDevice;
        MOV     ?V0 + 4,#-0x38
//  527   }
//  528 
//  529   return status;
??ZDSecMgrAddrStore_1:
        MOV     R1,?V0 + 4
        MOV     A,#0xd
        LCALL   ?DEALLOC_XSTACK8
          CFI CFA_XSP16 add(XSP16, 13)
        MOV     R7,#0x5
        LJMP    ?BANKED_LEAVE_XDATA
          CFI EndBlock cfiBlock1
//  530 }
//  531 
//  532 /******************************************************************************
//  533  * @fn          ZDSecMgrExtAddrStore
//  534  *
//  535  * @brief       Store EXT address.
//  536  *
//  537  * @param       extAddr - [in] EXT address
//  538  * @param       ami     - [out] Address Manager index
//  539  *
//  540  * @return      ZStatus_t
//  541  */

        RSEG BANKED_CODE:CODE:NOROOT(0)
//  542 ZStatus_t ZDSecMgrExtAddrStore( uint16 nwkAddr, uint8* extAddr, uint16* ami )
ZDSecMgrExtAddrStore:
          CFI Block cfiBlock2 Using cfiCommon0
          CFI Function ZDSecMgrExtAddrStore
        CODE
//  543 {
        FUNCALL ZDSecMgrExtAddrStore, AddrMgrExtAddrSet
        LOCFRAME ISTACK, 0, STACK
        LOCFRAME PSTACK, 0, STACK
        LOCFRAME XSTACK, 26, STACK
        LOCFRAME IOVERLAY, 0, STATIC
        LOCFRAME DOVERLAY, 0, STATIC
        ARGFRAME ISTACK, 0, STACK
        ARGFRAME PSTACK, 0, STACK
        ARGFRAME XSTACK, 26, STACK
        ARGFRAME IOVERLAY, 0, STATIC
        ARGFRAME DOVERLAY, 0, STATIC
        FUNCALL ZDSecMgrExtAddrStore, AddrMgrEntryUpdate
        LOCFRAME ISTACK, 0, STACK
        LOCFRAME PSTACK, 0, STACK
        LOCFRAME XSTACK, 26, STACK
        LOCFRAME IOVERLAY, 0, STATIC
        LOCFRAME DOVERLAY, 0, STATIC
        ARGFRAME ISTACK, 0, STACK
        ARGFRAME PSTACK, 0, STACK
        ARGFRAME XSTACK, 26, STACK
        ARGFRAME IOVERLAY, 0, STATIC
        ARGFRAME DOVERLAY, 0, STATIC
        MOV     A,#-0xd
        LCALL   ?BANKED_ENTER_XDATA
          CFI DPH0 load(1, XDATA, add(CFA_XSP16, literal(-1)))
          CFI DPL0 load(1, XDATA, add(CFA_XSP16, literal(-2)))
          CFI ?BRET_EXT load(1, XDATA, add(CFA_XSP16, literal(-3)))
          CFI ?RET_HIGH load(1, XDATA, add(CFA_XSP16, literal(-4)))
          CFI ?RET_LOW load(1, XDATA, add(CFA_XSP16, literal(-5)))
          CFI R7 load(1, XDATA, add(CFA_XSP16, literal(-6)))
          CFI V4 load(1, XDATA, add(CFA_XSP16, literal(-7)))
          CFI V3 load(1, XDATA, add(CFA_XSP16, literal(-8)))
          CFI V2 load(1, XDATA, add(CFA_XSP16, literal(-9)))
          CFI V1 load(1, XDATA, add(CFA_XSP16, literal(-10)))
          CFI V0 load(1, XDATA, add(CFA_XSP16, literal(-11)))
          CFI VB load(1, XDATA, add(CFA_XSP16, literal(-12)))
          CFI R6 load(1, XDATA, add(CFA_XSP16, literal(-13)))
          CFI CFA_SP SP+0
          CFI CFA_XSP16 add(XSP16, 13)
        ; Saved register size: 13
        ; Auto size: 13
        MOV     A,#-0xd
        LCALL   ?ALLOC_XSTACK8
          CFI CFA_XSP16 add(XSP16, 26)
        MOV     ?V0 + 2,R2
        MOV     ?V0 + 3,R3
        MOV     A,R4
        MOV     R6,A
        MOV     A,R5
        MOV     R7,A
        MOV     A,#0x1a
        LCALL   ?XSTACK_DISP0_8
        MOVX    A,@DPTR
        MOV     ?V0 + 0,A
        INC     DPTR
        MOVX    A,@DPTR
        MOV     ?V0 + 1,A
//  544   ZStatus_t      status;
//  545   AddrMgrEntry_t entry;
//  546 
//  547 
//  548   // add entry
//  549   entry.user    = ADDRMGR_USER_SECURITY;
        MOV     DPL,?XSP + 0
        MOV     DPH,?XSP + 1
        MOV     A,#0x2
        MOVX    @DPTR,A
//  550   entry.nwkAddr = nwkAddr;
        MOV     A,#0x1
        LCALL   ?XSTACK_DISP0_8
        MOV     A,?V0 + 2
        MOVX    @DPTR,A
        INC     DPTR
        MOV     A,?V0 + 3
        MOVX    @DPTR,A
//  551   AddrMgrExtAddrSet( entry.extAddr, extAddr );
        ; Setup parameters for call to function AddrMgrExtAddrSet
        MOV     A,R6
        MOV     R4,A
        MOV     A,R7
        MOV     R5,A
        MOV     A,#0x3
        LCALL   ?XSTACK_DISP0_8
        MOV     R2,DPL
        MOV     R3,DPH
        LCALL   ??AddrMgrExtAddrSet?relay
//  552 
//  553   if ( AddrMgrEntryUpdate( &entry ) == TRUE )
        ; Setup parameters for call to function AddrMgrEntryUpdate
        MOV     DPL,?XSP + 0
        MOV     DPH,?XSP + 1
        MOV     R2,DPL
        MOV     R3,DPH
        LCALL   ??AddrMgrEntryUpdate?relay
        MOV     A,R1
        XRL     A,#0x1
        JNZ     ??ZDSecMgrExtAddrStore_0
//  554   {
//  555     // return successful results
//  556     *ami   = entry.index;
        MOV     A,#0xb
        LCALL   ?XSTACK_DISP0_8
        MOVX    A,@DPTR
        MOV     R0,A
        INC     DPTR
        MOVX    A,@DPTR
        MOV     R1,A
        MOV     DPL,?V0 + 0
        MOV     DPH,?V0 + 1
        MOV     A,R0
        MOVX    @DPTR,A
        INC     DPTR
        MOV     A,R1
        MOVX    @DPTR,A
//  557     status = ZSuccess;
        MOV     ?V0 + 4,#0x0
        SJMP    ??ZDSecMgrExtAddrStore_1
//  558   }
//  559   else
//  560   {
//  561     // return failed results
//  562     *ami   = entry.index;
??ZDSecMgrExtAddrStore_0:
        MOV     A,#0xb
        LCALL   ?XSTACK_DISP0_8
        MOVX    A,@DPTR
        MOV     R0,A
        INC     DPTR
        MOVX    A,@DPTR
        MOV     R1,A
        MOV     DPL,?V0 + 0
        MOV     DPH,?V0 + 1
        MOV     A,R0
        MOVX    @DPTR,A
        INC     DPTR
        MOV     A,R1
        MOVX    @DPTR,A
//  563     status = ZNwkUnknownDevice;
        MOV     ?V0 + 4,#-0x38
//  564   }
//  565 
//  566   return status;
??ZDSecMgrExtAddrStore_1:
        MOV     R1,?V0 + 4
        MOV     A,#0xd
        LCALL   ?DEALLOC_XSTACK8
          CFI CFA_XSP16 add(XSP16, 13)
        MOV     R7,#0x5
        LJMP    ?BANKED_LEAVE_XDATA
          CFI EndBlock cfiBlock2
//  567 }
//  568 
//  569 /******************************************************************************
//  570  * @fn          ZDSecMgrExtAddrLookup
//  571  *
//  572  * @brief       Lookup index for specified EXT address.
//  573  *
//  574  * @param       extAddr - [in] EXT address
//  575  * @param       ami     - [out] Address Manager index
//  576  *
//  577  * @return      ZStatus_t
//  578  */

        RSEG BANKED_CODE:CODE:NOROOT(0)
//  579 ZStatus_t ZDSecMgrExtAddrLookup( uint8* extAddr, uint16* ami )
ZDSecMgrExtAddrLookup:
          CFI Block cfiBlock3 Using cfiCommon0
          CFI Function ZDSecMgrExtAddrLookup
        CODE
//  580 {
        FUNCALL ZDSecMgrExtAddrLookup, AddrMgrExtAddrSet
        LOCFRAME ISTACK, 0, STACK
        LOCFRAME PSTACK, 0, STACK
        LOCFRAME XSTACK, 24, STACK
        LOCFRAME IOVERLAY, 0, STATIC
        LOCFRAME DOVERLAY, 0, STATIC
        ARGFRAME ISTACK, 0, STACK
        ARGFRAME PSTACK, 0, STACK
        ARGFRAME XSTACK, 24, STACK
        ARGFRAME IOVERLAY, 0, STATIC
        ARGFRAME DOVERLAY, 0, STATIC
        FUNCALL ZDSecMgrExtAddrLookup, AddrMgrEntryLookupExt
        LOCFRAME ISTACK, 0, STACK
        LOCFRAME PSTACK, 0, STACK
        LOCFRAME XSTACK, 24, STACK
        LOCFRAME IOVERLAY, 0, STATIC
        LOCFRAME DOVERLAY, 0, STATIC
        ARGFRAME ISTACK, 0, STACK
        ARGFRAME PSTACK, 0, STACK
        ARGFRAME XSTACK, 24, STACK
        ARGFRAME IOVERLAY, 0, STATIC
        ARGFRAME DOVERLAY, 0, STATIC
        MOV     A,#-0xb
        LCALL   ?BANKED_ENTER_XDATA
          CFI DPH0 load(1, XDATA, add(CFA_XSP16, literal(-1)))
          CFI DPL0 load(1, XDATA, add(CFA_XSP16, literal(-2)))
          CFI ?BRET_EXT load(1, XDATA, add(CFA_XSP16, literal(-3)))
          CFI ?RET_HIGH load(1, XDATA, add(CFA_XSP16, literal(-4)))
          CFI ?RET_LOW load(1, XDATA, add(CFA_XSP16, literal(-5)))
          CFI R7 load(1, XDATA, add(CFA_XSP16, literal(-6)))
          CFI V2 load(1, XDATA, add(CFA_XSP16, literal(-7)))
          CFI V1 load(1, XDATA, add(CFA_XSP16, literal(-8)))
          CFI V0 load(1, XDATA, add(CFA_XSP16, literal(-9)))
          CFI VB load(1, XDATA, add(CFA_XSP16, literal(-10)))
          CFI R6 load(1, XDATA, add(CFA_XSP16, literal(-11)))
          CFI CFA_SP SP+0
          CFI CFA_XSP16 add(XSP16, 11)
        ; Saved register size: 11
        ; Auto size: 13
        MOV     A,#-0xd
        LCALL   ?ALLOC_XSTACK8
          CFI CFA_XSP16 add(XSP16, 24)
        MOV     A,R2
        MOV     R6,A
        MOV     A,R3
        MOV     R7,A
        MOV     ?V0 + 0,R4
        MOV     ?V0 + 1,R5
//  581   ZStatus_t      status;
//  582   AddrMgrEntry_t entry;
//  583 
//  584 
//  585   // lookup entry
//  586   entry.user = ADDRMGR_USER_SECURITY;
        MOV     DPL,?XSP + 0
        MOV     DPH,?XSP + 1
        MOV     A,#0x2
        MOVX    @DPTR,A
//  587   AddrMgrExtAddrSet( entry.extAddr, extAddr );
        ; Setup parameters for call to function AddrMgrExtAddrSet
        MOV     A,R6
        MOV     R4,A
        MOV     A,R7
        MOV     R5,A
        MOV     A,#0x3
        LCALL   ?XSTACK_DISP0_8
        MOV     R2,DPL
        MOV     R3,DPH
        LCALL   ??AddrMgrExtAddrSet?relay
//  588 
//  589   if ( AddrMgrEntryLookupExt( &entry ) == TRUE )
        ; Setup parameters for call to function AddrMgrEntryLookupExt
        MOV     DPL,?XSP + 0
        MOV     DPH,?XSP + 1
        MOV     R2,DPL
        MOV     R3,DPH
        LCALL   ??AddrMgrEntryLookupExt?relay
        MOV     A,R1
        XRL     A,#0x1
        JNZ     ??ZDSecMgrExtAddrLookup_0
//  590   {
//  591     // return successful results
//  592     *ami   = entry.index;
        MOV     A,#0xb
        LCALL   ?XSTACK_DISP0_8
        MOVX    A,@DPTR
        MOV     R0,A
        INC     DPTR
        MOVX    A,@DPTR
        MOV     R1,A
        MOV     DPL,?V0 + 0
        MOV     DPH,?V0 + 1
        MOV     A,R0
        MOVX    @DPTR,A
        INC     DPTR
        MOV     A,R1
        MOVX    @DPTR,A
//  593     status = ZSuccess;
        MOV     ?V0 + 2,#0x0
        SJMP    ??ZDSecMgrExtAddrLookup_1
//  594   }
//  595   else
//  596   {
//  597     // return failed results
//  598     *ami   = entry.index;
??ZDSecMgrExtAddrLookup_0:
        MOV     A,#0xb
        LCALL   ?XSTACK_DISP0_8
        MOVX    A,@DPTR
        MOV     R0,A
        INC     DPTR
        MOVX    A,@DPTR
        MOV     R1,A
        MOV     DPL,?V0 + 0
        MOV     DPH,?V0 + 1
        MOV     A,R0
        MOVX    @DPTR,A
        INC     DPTR
        MOV     A,R1
        MOVX    @DPTR,A
//  599     status = ZNwkUnknownDevice;
        MOV     ?V0 + 2,#-0x38
//  600   }
//  601 
//  602   return status;
??ZDSecMgrExtAddrLookup_1:
        MOV     R1,?V0 + 2
        MOV     A,#0xd
        LCALL   ?DEALLOC_XSTACK8
          CFI CFA_XSP16 add(XSP16, 11)
        MOV     R7,#0x3
        LJMP    ?BANKED_LEAVE_XDATA
          CFI EndBlock cfiBlock3
//  603 }
//  604 
//  605 /******************************************************************************
//  606  * @fn          ZDSecMgrMasterKeyLookup
//  607  *
//  608  * @brief       Lookup MASTER key for specified address index.
//  609  *
//  610  * @param       ami - [in] Address Manager index
//  611  * @param       key - [out] valid MASTER key
//  612  *
//  613  * @return      ZStatus_t
//  614  */

        RSEG BANKED_CODE:CODE:NOROOT(0)
//  615 ZStatus_t ZDSecMgrMasterKeyLookup( uint16 ami, uint8** key )
ZDSecMgrMasterKeyLookup:
          CFI Block cfiBlock4 Using cfiCommon0
          CFI Function ZDSecMgrMasterKeyLookup
        CODE
//  616 {
        MOV     A,#-0xa
        LCALL   ?BANKED_ENTER_XDATA
          CFI DPH0 load(1, XDATA, add(CFA_XSP16, literal(-1)))
          CFI DPL0 load(1, XDATA, add(CFA_XSP16, literal(-2)))
          CFI ?BRET_EXT load(1, XDATA, add(CFA_XSP16, literal(-3)))
          CFI ?RET_HIGH load(1, XDATA, add(CFA_XSP16, literal(-4)))
          CFI ?RET_LOW load(1, XDATA, add(CFA_XSP16, literal(-5)))
          CFI R7 load(1, XDATA, add(CFA_XSP16, literal(-6)))
          CFI V1 load(1, XDATA, add(CFA_XSP16, literal(-7)))
          CFI V0 load(1, XDATA, add(CFA_XSP16, literal(-8)))
          CFI VB load(1, XDATA, add(CFA_XSP16, literal(-9)))
          CFI R6 load(1, XDATA, add(CFA_XSP16, literal(-10)))
          CFI CFA_SP SP+0
          CFI CFA_XSP16 add(XSP16, 10)
        ; Saved register size: 10
        ; Auto size: 0
        MOV     A,R2
        MOV     R6,A
        MOV     A,R3
        MOV     R7,A
        MOV     ?V0 + 0,R4
        MOV     ?V0 + 1,R5
//  617   ZStatus_t status;
//  618   uint16    index;
//  619 
//  620 
//  621   // initialize results
//  622   *key   = NULL;
        MOV     DPL,?V0 + 0
        MOV     DPH,?V0 + 1
        MOV     A,#0x0
        MOVX    @DPTR,A
        INC     DPTR
        MOV     A,#0x0
        MOVX    @DPTR,A
//  623   status = ZNwkUnknownDevice;
        MOV     R1,#-0x38
//  624 
//  625   // verify data is available
//  626   if ( ZDSecMgrMasterKeyData != NULL )
        MOV     DPTR,#ZDSecMgrMasterKeyData
        MOVX    A,@DPTR
        MOV     R4,A
        INC     DPTR
        MOVX    A,@DPTR
        MOV     R5,A
        MOV     A,R4
        ORL     A,R5
        JNZ     $+5
        LJMP    ??ZDSecMgrMasterKeyLookup_0 & 0xFFFF
//  627   {
//  628     for ( index = 0; index < ZDSECMGR_MASTERKEY_MAX ; index++ )
        MOV     R2,#0x0
        MOV     R3,#0x0
??ZDSecMgrMasterKeyLookup_1:
        CLR     C
        MOV     A,R2
        SUBB    A,#0x3
        MOV     A,R3
        SUBB    A,#0x0
        JNC     ??ZDSecMgrMasterKeyLookup_0
//  629     {
//  630       if ( ZDSecMgrMasterKeyData[index].ami == ami )
        MOV     A,R2
        MOV     R4,A
        MOV     A,R3
        MOV     R5,A
        MOV     A,R4
        MOV     B,#0x12
        MUL     AB
        XCH     A,R4
        MOV     R0,B
        MOV     B,#0x0
        MUL     AB
        ADD     A,R0
        MOV     R0,A
        MOV     B,#0x12
        MOV     A,R5
        MUL     AB
        ADD     A,R0
        MOV     R5,A
        MOV     DPTR,#ZDSecMgrMasterKeyData
        MOVX    A,@DPTR
        ADD     A,R4
        MOV     R0,A
        INC     DPTR
        MOVX    A,@DPTR
        ADDC    A,R5
        MOV     DPL,R0
        MOV     DPH,A
        MOVX    A,@DPTR
        XRL     A,R6
        JNZ     ??ZDSecMgrMasterKeyLookup_2
        INC     DPTR
        MOVX    A,@DPTR
        XRL     A,R7
??ZDSecMgrMasterKeyLookup_2:
        JNZ     ??ZDSecMgrMasterKeyLookup_3
//  631       {
//  632         // return successful results
//  633         *key   = ZDSecMgrMasterKeyData[index].key;
        MOV     A,R2
        MOV     R4,A
        MOV     A,R3
        MOV     R5,A
        MOV     A,R4
        MOV     B,#0x12
        MUL     AB
        XCH     A,R4
        MOV     R0,B
        MOV     B,#0x0
        MUL     AB
        ADD     A,R0
        MOV     R0,A
        MOV     B,#0x12
        MOV     A,R5
        MUL     AB
        ADD     A,R0
        MOV     R5,A
        MOV     DPTR,#ZDSecMgrMasterKeyData
        MOVX    A,@DPTR
        ADD     A,R4
        MOV     R0,A
        INC     DPTR
        MOVX    A,@DPTR
        ADDC    A,R5
        MOV     DPL,R0
        MOV     DPH,A
        INC     DPTR
        INC     DPTR
        MOV     R4,DPL
        MOV     R5,DPH
        MOV     DPL,?V0 + 0
        MOV     DPH,?V0 + 1
        MOV     A,R4
        MOVX    @DPTR,A
        INC     DPTR
        MOV     A,R5
        MOVX    @DPTR,A
//  634         status = ZSuccess;
        MOV     R1,#0x0
//  635 
//  636         // break from loop
//  637         index  = ZDSECMGR_MASTERKEY_MAX;
        MOV     R2,#0x3
        MOV     R3,#0x0
//  638       }
//  639     }
??ZDSecMgrMasterKeyLookup_3:
        MOV     A,R2
        ADD     A,#0x1
        MOV     R2,A
        MOV     A,R3
        ADDC    A,#0x0
        MOV     R3,A
        SJMP    ??ZDSecMgrMasterKeyLookup_1
//  640   }
//  641 
//  642   return status;
??ZDSecMgrMasterKeyLookup_0:
        MOV     R7,#0x2
        LJMP    ?BANKED_LEAVE_XDATA
          CFI EndBlock cfiBlock4
//  643 }
//  644 
//  645 /******************************************************************************
//  646  * @fn          ZDSecMgrMasterKeyStore
//  647  *
//  648  * @brief       Store MASTER key for specified address index.
//  649  *
//  650  * @param       ami - [in] Address Manager index
//  651  * @param       key - [in] valid key to store
//  652  *
//  653  * @return      ZStatus_t
//  654  */

        RSEG BANKED_CODE:CODE:NOROOT(0)
//  655 ZStatus_t ZDSecMgrMasterKeyStore( uint16 ami, uint8* key )
ZDSecMgrMasterKeyStore:
          CFI Block cfiBlock5 Using cfiCommon0
          CFI Function ZDSecMgrMasterKeyStore
        CODE
//  656 {
        FUNCALL ZDSecMgrMasterKeyStore, osal_memcpy
        LOCFRAME ISTACK, 0, STACK
        LOCFRAME PSTACK, 0, STACK
        LOCFRAME XSTACK, 21, STACK
        LOCFRAME IOVERLAY, 0, STATIC
        LOCFRAME DOVERLAY, 0, STATIC
        ARGFRAME ISTACK, 0, STACK
        ARGFRAME PSTACK, 0, STACK
        ARGFRAME XSTACK, 21, STACK
        ARGFRAME IOVERLAY, 0, STATIC
        ARGFRAME DOVERLAY, 0, STATIC
        FUNCALL ZDSecMgrMasterKeyStore, osal_memset
        LOCFRAME ISTACK, 0, STACK
        LOCFRAME PSTACK, 0, STACK
        LOCFRAME XSTACK, 18, STACK
        LOCFRAME IOVERLAY, 0, STATIC
        LOCFRAME DOVERLAY, 0, STATIC
        ARGFRAME ISTACK, 0, STACK
        ARGFRAME PSTACK, 0, STACK
        ARGFRAME XSTACK, 18, STACK
        ARGFRAME IOVERLAY, 0, STATIC
        ARGFRAME DOVERLAY, 0, STATIC
        MOV     A,#-0x12
        LCALL   ?BANKED_ENTER_XDATA
          CFI DPH0 load(1, XDATA, add(CFA_XSP16, literal(-1)))
          CFI DPL0 load(1, XDATA, add(CFA_XSP16, literal(-2)))
          CFI ?BRET_EXT load(1, XDATA, add(CFA_XSP16, literal(-3)))
          CFI ?RET_HIGH load(1, XDATA, add(CFA_XSP16, literal(-4)))
          CFI ?RET_LOW load(1, XDATA, add(CFA_XSP16, literal(-5)))
          CFI R7 load(1, XDATA, add(CFA_XSP16, literal(-6)))
          CFI V9 load(1, XDATA, add(CFA_XSP16, literal(-7)))
          CFI V8 load(1, XDATA, add(CFA_XSP16, literal(-8)))
          CFI V7 load(1, XDATA, add(CFA_XSP16, literal(-9)))
          CFI V6 load(1, XDATA, add(CFA_XSP16, literal(-10)))
          CFI V5 load(1, XDATA, add(CFA_XSP16, literal(-11)))
          CFI V4 load(1, XDATA, add(CFA_XSP16, literal(-12)))
          CFI V3 load(1, XDATA, add(CFA_XSP16, literal(-13)))
          CFI V2 load(1, XDATA, add(CFA_XSP16, literal(-14)))
          CFI V1 load(1, XDATA, add(CFA_XSP16, literal(-15)))
          CFI V0 load(1, XDATA, add(CFA_XSP16, literal(-16)))
          CFI VB load(1, XDATA, add(CFA_XSP16, literal(-17)))
          CFI R6 load(1, XDATA, add(CFA_XSP16, literal(-18)))
          CFI CFA_SP SP+0
          CFI CFA_XSP16 add(XSP16, 18)
        ; Saved register size: 18
        ; Auto size: 0
        MOV     ?V0 + 8,R2
        MOV     ?V0 + 9,R3
        MOV     ?V0 + 0,R4
        MOV     ?V0 + 1,R5
//  657   ZStatus_t status;
//  658   uint16    index;
//  659   uint8*    entry;
//  660 
//  661 
//  662   // initialize results
//  663   status = ZNwkUnknownDevice;
        MOV     ?V0 + 7,#-0x38
//  664 
//  665   // verify data is available
//  666   if ( ZDSecMgrMasterKeyData != NULL )
        MOV     DPTR,#ZDSecMgrMasterKeyData
        MOVX    A,@DPTR
        MOV     R0,A
        INC     DPTR
        MOVX    A,@DPTR
        MOV     R1,A
        MOV     A,R0
        ORL     A,R1
        JNZ     $+5
        LJMP    ??ZDSecMgrMasterKeyStore_0 & 0xFFFF
//  667   {
//  668     for ( index = 0; index < ZDSECMGR_MASTERKEY_MAX ; index++ )
        MOV     R6,#0x0
        MOV     R7,#0x0
??ZDSecMgrMasterKeyStore_1:
        CLR     C
        MOV     A,R6
        SUBB    A,#0x3
        MOV     A,R7
        SUBB    A,#0x0
        JC      $+5
        LJMP    ??ZDSecMgrMasterKeyStore_0 & 0xFFFF
//  669     {
//  670       if ( ZDSecMgrMasterKeyData[index].ami == INVALID_NODE_ADDR )
        MOV     A,R6
        MOV     R0,A
        MOV     A,R7
        MOV     R1,A
        MOV     A,R0
        MOV     B,#0x12
        MUL     AB
        XCH     A,R0
        MOV     R2,B
        MOV     B,#0x0
        MUL     AB
        ADD     A,R2
        MOV     R2,A
        MOV     B,#0x12
        MOV     A,R1
        MUL     AB
        ADD     A,R2
        MOV     R1,A
        MOV     DPTR,#ZDSecMgrMasterKeyData
        MOVX    A,@DPTR
        ADD     A,R0
        MOV     R2,A
        INC     DPTR
        MOVX    A,@DPTR
        ADDC    A,R1
        MOV     DPL,R2
        MOV     DPH,A
        MOVX    A,@DPTR
        XRL     A,#0xfe
        JNZ     ??ZDSecMgrMasterKeyStore_2
        INC     DPTR
        MOVX    A,@DPTR
        XRL     A,#0xff
??ZDSecMgrMasterKeyStore_2:
        JZ      $+5
        LJMP    ??ZDSecMgrMasterKeyStore_3 & 0xFFFF
//  671       {
//  672         // store EXT address index
//  673         ZDSecMgrMasterKeyData[index].ami = ami;
        MOV     A,R6
        MOV     R0,A
        MOV     A,R7
        MOV     R1,A
        MOV     A,R0
        MOV     B,#0x12
        MUL     AB
        XCH     A,R0
        MOV     R2,B
        MOV     B,#0x0
        MUL     AB
        ADD     A,R2
        MOV     R2,A
        MOV     B,#0x12
        MOV     A,R1
        MUL     AB
        ADD     A,R2
        MOV     R1,A
        MOV     DPTR,#ZDSecMgrMasterKeyData
        MOVX    A,@DPTR
        ADD     A,R0
        MOV     R2,A
        INC     DPTR
        MOVX    A,@DPTR
        ADDC    A,R1
        MOV     DPL,R2
        MOV     DPH,A
        MOV     A,?V0 + 8
        MOVX    @DPTR,A
        INC     DPTR
        MOV     A,?V0 + 9
        MOVX    @DPTR,A
//  674 
//  675         entry = ZDSecMgrMasterKeyData[index].key;
        MOV     A,R6
        MOV     R0,A
        MOV     A,R7
        MOV     R1,A
        MOV     A,R0
        MOV     B,#0x12
        MUL     AB
        XCH     A,R0
        MOV     R2,B
        MOV     B,#0x0
        MUL     AB
        ADD     A,R2
        MOV     R2,A
        MOV     B,#0x12
        MOV     A,R1
        MUL     AB
        ADD     A,R2
        MOV     R1,A
        MOV     DPTR,#ZDSecMgrMasterKeyData
        MOVX    A,@DPTR
        ADD     A,R0
        MOV     R2,A
        INC     DPTR
        MOVX    A,@DPTR
        ADDC    A,R1
        MOV     DPL,R2
        MOV     DPH,A
        INC     DPTR
        INC     DPTR
        MOV     ?V0 + 2,DPL
        MOV     ?V0 + 3,DPH
//  676 
//  677         if ( key != NULL )
        MOV     A,?V0 + 0
        ORL     A,?V0 + 1
        JZ      ??ZDSecMgrMasterKeyStore_4
//  678         {
//  679           osal_memcpy( entry, key,  SEC_KEY_LEN );
        ; Setup parameters for call to function osal_memcpy
        MOV     ?V0 + 4,?V0 + 0
        MOV     ?V0 + 5,?V0 + 1
        MOV     ?V0 + 6,#0x0
        MOV     R0,#?V0 + 4
        LCALL   ?PUSH_XSTACK_I_THREE
          CFI CFA_XSP16 add(XSP16, 21)
        MOV     R4,#0x10
        MOV     R5,#0x0
        MOV     R2,?V0 + 2
        MOV     R3,?V0 + 3
        LCALL   ??osal_memcpy?relay
        MOV     A,#0x3
        LCALL   ?DEALLOC_XSTACK8
          CFI CFA_XSP16 add(XSP16, 18)
        SJMP    ??ZDSecMgrMasterKeyStore_5
//  680         }
//  681         else
//  682         {
//  683           osal_memset( entry, 0, SEC_KEY_LEN );
??ZDSecMgrMasterKeyStore_4:
        ; Setup parameters for call to function osal_memset
        MOV     R4,#0x10
        MOV     R5,#0x0
        MOV     R1,#0x0
        MOV     R2,?V0 + 2
        MOV     R3,?V0 + 3
        LCALL   ??osal_memset?relay
//  684         }
//  685 
//  686         // return successful results
//  687         status = ZSuccess;
??ZDSecMgrMasterKeyStore_5:
        MOV     ?V0 + 7,#0x0
//  688 
//  689         // break from loop
//  690         index  = ZDSECMGR_MASTERKEY_MAX;
        MOV     R6,#0x3
        MOV     R7,#0x0
//  691       }
//  692     }
??ZDSecMgrMasterKeyStore_3:
        MOV     A,R6
        ADD     A,#0x1
        MOV     R6,A
        MOV     A,R7
        ADDC    A,#0x0
        MOV     R7,A
        LJMP    ??ZDSecMgrMasterKeyStore_1 & 0xFFFF
//  693   }
//  694 
//  695   return status;
??ZDSecMgrMasterKeyStore_0:
        MOV     R1,?V0 + 7
        MOV     R7,#0xa
        LJMP    ?BANKED_LEAVE_XDATA
          CFI EndBlock cfiBlock5
//  696 }
//  697 
//  698 /******************************************************************************
//  699  * @fn          ZDSecMgrEntryInit
//  700  *
//  701  * @brief       Initialize entry sub module
//  702  *
//  703  * @param       state - device initialization state
//  704  *
//  705  * @return      none
//  706  */

        RSEG BANKED_CODE:CODE:NOROOT(0)
//  707 void ZDSecMgrEntryInit(uint8 state)
ZDSecMgrEntryInit:
          CFI Block cfiBlock6 Using cfiCommon0
          CFI Function ZDSecMgrEntryInit
        CODE
//  708 {
        FUNCALL ZDSecMgrEntryInit, osal_mem_alloc
        LOCFRAME ISTACK, 0, STACK
        LOCFRAME PSTACK, 0, STACK
        LOCFRAME XSTACK, 12, STACK
        LOCFRAME IOVERLAY, 0, STATIC
        LOCFRAME DOVERLAY, 0, STATIC
        ARGFRAME ISTACK, 0, STACK
        ARGFRAME PSTACK, 0, STACK
        ARGFRAME XSTACK, 12, STACK
        ARGFRAME IOVERLAY, 0, STATIC
        ARGFRAME DOVERLAY, 0, STATIC
        MOV     A,#-0xc
        LCALL   ?BANKED_ENTER_XDATA
          CFI DPH0 load(1, XDATA, add(CFA_XSP16, literal(-1)))
          CFI DPL0 load(1, XDATA, add(CFA_XSP16, literal(-2)))
          CFI ?BRET_EXT load(1, XDATA, add(CFA_XSP16, literal(-3)))
          CFI ?RET_HIGH load(1, XDATA, add(CFA_XSP16, literal(-4)))
          CFI ?RET_LOW load(1, XDATA, add(CFA_XSP16, literal(-5)))
          CFI R7 load(1, XDATA, add(CFA_XSP16, literal(-6)))
          CFI V3 load(1, XDATA, add(CFA_XSP16, literal(-7)))
          CFI V2 load(1, XDATA, add(CFA_XSP16, literal(-8)))
          CFI V1 load(1, XDATA, add(CFA_XSP16, literal(-9)))
          CFI V0 load(1, XDATA, add(CFA_XSP16, literal(-10)))
          CFI VB load(1, XDATA, add(CFA_XSP16, literal(-11)))
          CFI R6 load(1, XDATA, add(CFA_XSP16, literal(-12)))
          CFI CFA_SP SP+0
          CFI CFA_XSP16 add(XSP16, 12)
        ; Saved register size: 12
        ; Auto size: 0
        MOV     ?V0 + 0,R1
//  709   if (ZDSecMgrEntries == NULL)
        MOV     DPTR,#ZDSecMgrEntries
        MOVX    A,@DPTR
        MOV     R0,A
        INC     DPTR
        MOVX    A,@DPTR
        MOV     R1,A
        MOV     A,R0
        ORL     A,R1
        JNZ     ??ZDSecMgrEntryInit_0
//  710   {
//  711     uint16 index;
//  712 
//  713     if ((ZDSecMgrEntries = osal_mem_alloc(sizeof(ZDSecMgrEntry_t) * ZDSECMGR_ENTRY_MAX)) == NULL)
        ; Setup parameters for call to function osal_mem_alloc
        MOV     R2,#0x57
        MOV     R3,#0x0
        LCALL   ??osal_mem_alloc?relay
        MOV     ?V0 + 2,R2
        MOV     ?V0 + 3,R3
        MOV     R0,?V0 + 2
        MOV     R1,?V0 + 3
        MOV     DPTR,#ZDSecMgrEntries
        MOV     A,R0
        MOVX    @DPTR,A
        INC     DPTR
        MOV     A,R1
        MOVX    @DPTR,A
        MOV     A,R0
        ORL     A,R1
        JZ      ??ZDSecMgrEntryInit_0
//  714     {
//  715       return;
//  716     }
//  717 
//  718     for (index = 0; index < ZDSECMGR_ENTRY_MAX; index++)
        MOV     R6,#0x0
        MOV     R7,#0x0
??ZDSecMgrEntryInit_1:
        CLR     C
        MOV     A,R6
        SUBB    A,#0x3
        MOV     A,R7
        SUBB    A,#0x0
        JNC     ??ZDSecMgrEntryInit_0
//  719     {
//  720       ZDSecMgrEntries[index].ami = INVALID_NODE_ADDR;
        MOV     A,R6
        MOV     R0,A
        MOV     A,R7
        MOV     R1,A
        MOV     A,R0
        MOV     B,#0x1d
        MUL     AB
        XCH     A,R0
        MOV     R2,B
        MOV     B,#0x0
        MUL     AB
        ADD     A,R2
        MOV     R2,A
        MOV     B,#0x1d
        MOV     A,R1
        MUL     AB
        ADD     A,R2
        MOV     R1,A
        MOV     DPTR,#ZDSecMgrEntries
        MOVX    A,@DPTR
        ADD     A,R0
        MOV     R2,A
        INC     DPTR
        MOVX    A,@DPTR
        ADDC    A,R1
        MOV     DPL,R2
        MOV     DPH,A
        MOV     A,#-0x2
        MOVX    @DPTR,A
        INC     DPTR
        MOV     A,#-0x1
        MOVX    @DPTR,A
//  721     }
        MOV     A,R6
        ADD     A,#0x1
        MOV     R6,A
        MOV     A,R7
        ADDC    A,#0x0
        MOV     R7,A
        SJMP    ??ZDSecMgrEntryInit_1
//  722   }
//  723 
//  724 #if defined NV_RESTORE
//  725   if (state == ZDO_INITDEV_RESTORED_NETWORK_STATE)
//  726   {
//  727     ZDSecMgrRestoreFromNV();
//  728   }
//  729 #else
//  730   (void)state;
//  731 #endif
//  732 }
??ZDSecMgrEntryInit_0:
        MOV     R7,#0x4
        LJMP    ?BANKED_LEAVE_XDATA
          CFI EndBlock cfiBlock6
//  733 
//  734 /******************************************************************************
//  735  * @fn          ZDSecMgrEntryLookup
//  736  *
//  737  * @brief       Lookup entry index using specified NWK address.
//  738  *
//  739  * @param       nwkAddr - [in] NWK address
//  740  * @param       entry   - [out] valid entry
//  741  *
//  742  * @return      ZStatus_t
//  743  */

        RSEG BANKED_CODE:CODE:NOROOT(0)
//  744 ZStatus_t ZDSecMgrEntryLookup( uint16 nwkAddr, ZDSecMgrEntry_t** entry )
ZDSecMgrEntryLookup:
          CFI Block cfiBlock7 Using cfiCommon0
          CFI Function ZDSecMgrEntryLookup
        CODE
//  745 {
        FUNCALL ZDSecMgrEntryLookup, AddrMgrEntryLookupNwk
        LOCFRAME ISTACK, 0, STACK
        LOCFRAME PSTACK, 0, STACK
        LOCFRAME XSTACK, 26, STACK
        LOCFRAME IOVERLAY, 0, STATIC
        LOCFRAME DOVERLAY, 0, STATIC
        ARGFRAME ISTACK, 0, STACK
        ARGFRAME PSTACK, 0, STACK
        ARGFRAME XSTACK, 26, STACK
        ARGFRAME IOVERLAY, 0, STATIC
        ARGFRAME DOVERLAY, 0, STATIC
        MOV     A,#-0xd
        LCALL   ?BANKED_ENTER_XDATA
          CFI DPH0 load(1, XDATA, add(CFA_XSP16, literal(-1)))
          CFI DPL0 load(1, XDATA, add(CFA_XSP16, literal(-2)))
          CFI ?BRET_EXT load(1, XDATA, add(CFA_XSP16, literal(-3)))
          CFI ?RET_HIGH load(1, XDATA, add(CFA_XSP16, literal(-4)))
          CFI ?RET_LOW load(1, XDATA, add(CFA_XSP16, literal(-5)))
          CFI R7 load(1, XDATA, add(CFA_XSP16, literal(-6)))
          CFI V4 load(1, XDATA, add(CFA_XSP16, literal(-7)))
          CFI V3 load(1, XDATA, add(CFA_XSP16, literal(-8)))
          CFI V2 load(1, XDATA, add(CFA_XSP16, literal(-9)))
          CFI V1 load(1, XDATA, add(CFA_XSP16, literal(-10)))
          CFI V0 load(1, XDATA, add(CFA_XSP16, literal(-11)))
          CFI VB load(1, XDATA, add(CFA_XSP16, literal(-12)))
          CFI R6 load(1, XDATA, add(CFA_XSP16, literal(-13)))
          CFI CFA_SP SP+0
          CFI CFA_XSP16 add(XSP16, 13)
        ; Saved register size: 13
        ; Auto size: 13
        MOV     A,#-0xd
        LCALL   ?ALLOC_XSTACK8
          CFI CFA_XSP16 add(XSP16, 26)
        MOV     ?V0 + 2,R2
        MOV     ?V0 + 3,R3
        MOV     ?V0 + 0,R4
        MOV     ?V0 + 1,R5
//  746   ZStatus_t      status;
//  747   uint16         index;
//  748   AddrMgrEntry_t addrMgrEntry;
//  749 
//  750 
//  751   // initialize results
//  752   *entry = NULL;
        MOV     DPL,?V0 + 0
        MOV     DPH,?V0 + 1
        MOV     A,#0x0
        MOVX    @DPTR,A
        INC     DPTR
        MOV     A,#0x0
        MOVX    @DPTR,A
//  753   status = ZNwkUnknownDevice;
        MOV     ?V0 + 4,#-0x38
//  754 
//  755   // verify data is available
//  756   if ( ZDSecMgrEntries != NULL )
        MOV     DPTR,#ZDSecMgrEntries
        MOVX    A,@DPTR
        MOV     R0,A
        INC     DPTR
        MOVX    A,@DPTR
        MOV     R1,A
        MOV     A,R0
        ORL     A,R1
        JNZ     $+5
        LJMP    ??ZDSecMgrEntryLookup_0 & 0xFFFF
//  757   {
//  758     addrMgrEntry.user    = ADDRMGR_USER_SECURITY;
        MOV     DPL,?XSP + 0
        MOV     DPH,?XSP + 1
        MOV     A,#0x2
        MOVX    @DPTR,A
//  759     addrMgrEntry.nwkAddr = nwkAddr;
        MOV     A,#0x1
        LCALL   ?XSTACK_DISP0_8
        MOV     A,?V0 + 2
        MOVX    @DPTR,A
        INC     DPTR
        MOV     A,?V0 + 3
        MOVX    @DPTR,A
//  760 
//  761     if ( AddrMgrEntryLookupNwk( &addrMgrEntry ) == TRUE )
        ; Setup parameters for call to function AddrMgrEntryLookupNwk
        MOV     DPL,?XSP + 0
        MOV     DPH,?XSP + 1
        MOV     R2,DPL
        MOV     R3,DPH
        LCALL   ??AddrMgrEntryLookupNwk?relay
        MOV     A,R1
        XRL     A,#0x1
        JZ      $+5
        LJMP    ??ZDSecMgrEntryLookup_0 & 0xFFFF
//  762     {
//  763       for ( index = 0; index < ZDSECMGR_ENTRY_MAX ; index++ )
        MOV     R6,#0x0
        MOV     R7,#0x0
??ZDSecMgrEntryLookup_1:
        CLR     C
        MOV     A,R6
        SUBB    A,#0x3
        MOV     A,R7
        SUBB    A,#0x0
        JNC     ??ZDSecMgrEntryLookup_0
//  764       {
//  765         if ( addrMgrEntry.index == ZDSecMgrEntries[index].ami )
        MOV     A,#0xb
        LCALL   ?XSTACK_DISP0_8
        MOVX    A,@DPTR
        MOV     R2,A
        INC     DPTR
        MOVX    A,@DPTR
        MOV     R3,A
        MOV     A,R6
        MOV     R0,A
        MOV     A,R7
        MOV     R1,A
        MOV     A,R0
        MOV     B,#0x1d
        MUL     AB
        XCH     A,R0
        MOV     R4,B
        MOV     B,#0x0
        MUL     AB
        ADD     A,R4
        MOV     R4,A
        MOV     B,#0x1d
        MOV     A,R1
        MUL     AB
        ADD     A,R4
        MOV     R1,A
        MOV     DPTR,#ZDSecMgrEntries
        MOVX    A,@DPTR
        ADD     A,R0
        MOV     R4,A
        INC     DPTR
        MOVX    A,@DPTR
        ADDC    A,R1
        MOV     DPL,R4
        MOV     DPH,A
        MOVX    A,@DPTR
        XRL     A,R2
        JNZ     ??ZDSecMgrEntryLookup_2
        INC     DPTR
        MOVX    A,@DPTR
        XRL     A,R3
??ZDSecMgrEntryLookup_2:
        JNZ     ??ZDSecMgrEntryLookup_3
//  766         {
//  767           // return successful results
//  768           *entry = &ZDSecMgrEntries[index];
        MOV     A,R6
        MOV     R0,A
        MOV     A,R7
        MOV     R1,A
        MOV     A,R0
        MOV     B,#0x1d
        MUL     AB
        XCH     A,R0
        MOV     R2,B
        MOV     B,#0x0
        MUL     AB
        ADD     A,R2
        MOV     R2,A
        MOV     B,#0x1d
        MOV     A,R1
        MUL     AB
        ADD     A,R2
        MOV     R1,A
        MOV     DPTR,#ZDSecMgrEntries
        MOVX    A,@DPTR
        ADD     A,R0
        MOV     R0,A
        INC     DPTR
        MOVX    A,@DPTR
        ADDC    A,R1
        MOV     R1,A
        MOV     DPL,?V0 + 0
        MOV     DPH,?V0 + 1
        MOV     A,R0
        MOVX    @DPTR,A
        INC     DPTR
        MOV     A,R1
        MOVX    @DPTR,A
//  769           status = ZSuccess;
        MOV     ?V0 + 4,#0x0
//  770 
//  771           // break from loop
//  772           index = ZDSECMGR_ENTRY_MAX;
        MOV     R6,#0x3
        MOV     R7,#0x0
//  773         }
//  774       }
??ZDSecMgrEntryLookup_3:
        MOV     A,R6
        ADD     A,#0x1
        MOV     R6,A
        MOV     A,R7
        ADDC    A,#0x0
        MOV     R7,A
        LJMP    ??ZDSecMgrEntryLookup_1 & 0xFFFF
//  775     }
//  776   }
//  777 
//  778   return status;
??ZDSecMgrEntryLookup_0:
        MOV     R1,?V0 + 4
        MOV     A,#0xd
        LCALL   ?DEALLOC_XSTACK8
          CFI CFA_XSP16 add(XSP16, 13)
        MOV     R7,#0x5
        LJMP    ?BANKED_LEAVE_XDATA
          CFI EndBlock cfiBlock7
//  779 }
//  780 
//  781 /******************************************************************************
//  782  * @fn          ZDSecMgrEntryLookupAMI
//  783  *
//  784  * @brief       Lookup entry using specified address index
//  785  *
//  786  * @param       ami   - [in] Address Manager index
//  787  * @param       entry - [out] valid entry
//  788  *
//  789  * @return      ZStatus_t
//  790  */

        RSEG BANKED_CODE:CODE:NOROOT(0)
//  791 ZStatus_t ZDSecMgrEntryLookupAMI( uint16 ami, ZDSecMgrEntry_t** entry )
ZDSecMgrEntryLookupAMI:
          CFI Block cfiBlock8 Using cfiCommon0
          CFI Function ZDSecMgrEntryLookupAMI
        CODE
//  792 {
        MOV     A,#-0xa
        LCALL   ?BANKED_ENTER_XDATA
          CFI DPH0 load(1, XDATA, add(CFA_XSP16, literal(-1)))
          CFI DPL0 load(1, XDATA, add(CFA_XSP16, literal(-2)))
          CFI ?BRET_EXT load(1, XDATA, add(CFA_XSP16, literal(-3)))
          CFI ?RET_HIGH load(1, XDATA, add(CFA_XSP16, literal(-4)))
          CFI ?RET_LOW load(1, XDATA, add(CFA_XSP16, literal(-5)))
          CFI R7 load(1, XDATA, add(CFA_XSP16, literal(-6)))
          CFI V1 load(1, XDATA, add(CFA_XSP16, literal(-7)))
          CFI V0 load(1, XDATA, add(CFA_XSP16, literal(-8)))
          CFI VB load(1, XDATA, add(CFA_XSP16, literal(-9)))
          CFI R6 load(1, XDATA, add(CFA_XSP16, literal(-10)))
          CFI CFA_SP SP+0
          CFI CFA_XSP16 add(XSP16, 10)
        ; Saved register size: 10
        ; Auto size: 0
        MOV     A,R2
        MOV     R6,A
        MOV     A,R3
        MOV     R7,A
        MOV     ?V0 + 0,R4
        MOV     ?V0 + 1,R5
//  793   ZStatus_t status;
//  794   uint16    index;
//  795 
//  796 
//  797   // initialize results
//  798   *entry = NULL;
        MOV     DPL,?V0 + 0
        MOV     DPH,?V0 + 1
        MOV     A,#0x0
        MOVX    @DPTR,A
        INC     DPTR
        MOV     A,#0x0
        MOVX    @DPTR,A
//  799   status = ZNwkUnknownDevice;
        MOV     R1,#-0x38
//  800 
//  801   // verify data is available
//  802   if ( ZDSecMgrEntries != NULL )
        MOV     DPTR,#ZDSecMgrEntries
        MOVX    A,@DPTR
        MOV     R4,A
        INC     DPTR
        MOVX    A,@DPTR
        MOV     R5,A
        MOV     A,R4
        ORL     A,R5
        JZ      ??ZDSecMgrEntryLookupAMI_0
//  803   {
//  804     for ( index = 0; index < ZDSECMGR_ENTRY_MAX ; index++ )
        MOV     R2,#0x0
        MOV     R3,#0x0
??ZDSecMgrEntryLookupAMI_1:
        CLR     C
        MOV     A,R2
        SUBB    A,#0x3
        MOV     A,R3
        SUBB    A,#0x0
        JNC     ??ZDSecMgrEntryLookupAMI_0
//  805     {
//  806       if ( ZDSecMgrEntries[index].ami == ami )
        MOV     A,R2
        MOV     R4,A
        MOV     A,R3
        MOV     R5,A
        MOV     A,R4
        MOV     B,#0x1d
        MUL     AB
        XCH     A,R4
        MOV     R0,B
        MOV     B,#0x0
        MUL     AB
        ADD     A,R0
        MOV     R0,A
        MOV     B,#0x1d
        MOV     A,R5
        MUL     AB
        ADD     A,R0
        MOV     R5,A
        MOV     DPTR,#ZDSecMgrEntries
        MOVX    A,@DPTR
        ADD     A,R4
        MOV     R0,A
        INC     DPTR
        MOVX    A,@DPTR
        ADDC    A,R5
        MOV     DPL,R0
        MOV     DPH,A
        MOVX    A,@DPTR
        XRL     A,R6
        JNZ     ??ZDSecMgrEntryLookupAMI_2
        INC     DPTR
        MOVX    A,@DPTR
        XRL     A,R7
??ZDSecMgrEntryLookupAMI_2:
        JNZ     ??ZDSecMgrEntryLookupAMI_3
//  807       {
//  808         // return successful results
//  809         *entry = &ZDSecMgrEntries[index];
        MOV     A,R2
        MOV     R4,A
        MOV     A,R3
        MOV     R5,A
        MOV     A,R4
        MOV     B,#0x1d
        MUL     AB
        XCH     A,R4
        MOV     R0,B
        MOV     B,#0x0
        MUL     AB
        ADD     A,R0
        MOV     R0,A
        MOV     B,#0x1d
        MOV     A,R5
        MUL     AB
        ADD     A,R0
        MOV     R5,A
        MOV     DPTR,#ZDSecMgrEntries
        MOVX    A,@DPTR
        ADD     A,R4
        MOV     R4,A
        INC     DPTR
        MOVX    A,@DPTR
        ADDC    A,R5
        MOV     R5,A
        MOV     DPL,?V0 + 0
        MOV     DPH,?V0 + 1
        MOV     A,R4
        MOVX    @DPTR,A
        INC     DPTR
        MOV     A,R5
        MOVX    @DPTR,A
//  810         status = ZSuccess;
        MOV     R1,#0x0
//  811 
//  812         // break from loop
//  813         index = ZDSECMGR_ENTRY_MAX;
        MOV     R2,#0x3
        MOV     R3,#0x0
//  814       }
//  815     }
??ZDSecMgrEntryLookupAMI_3:
        MOV     A,R2
        ADD     A,#0x1
        MOV     R2,A
        MOV     A,R3
        ADDC    A,#0x0
        MOV     R3,A
        SJMP    ??ZDSecMgrEntryLookupAMI_1
//  816   }
//  817 
//  818   return status;
??ZDSecMgrEntryLookupAMI_0:
        MOV     R7,#0x2
        LJMP    ?BANKED_LEAVE_XDATA
          CFI EndBlock cfiBlock8
//  819 }
//  820 
//  821 /******************************************************************************
//  822  * @fn          ZDSecMgrEntryLookupExt
//  823  *
//  824  * @brief       Lookup entry index using specified EXT address.
//  825  *
//  826  * @param       extAddr - [in] EXT address
//  827  * @param       entry   - [out] valid entry
//  828  *
//  829  * @return      ZStatus_t
//  830  */

        RSEG BANKED_CODE:CODE:NOROOT(0)
//  831 ZStatus_t ZDSecMgrEntryLookupExt( uint8* extAddr, ZDSecMgrEntry_t** entry )
ZDSecMgrEntryLookupExt:
          CFI Block cfiBlock9 Using cfiCommon0
          CFI Function ZDSecMgrEntryLookupExt
        CODE
//  832 {
        FUNCALL ZDSecMgrEntryLookupExt, ZDSecMgrExtAddrLookup
        LOCFRAME ISTACK, 0, STACK
        LOCFRAME PSTACK, 0, STACK
        LOCFRAME XSTACK, 13, STACK
        LOCFRAME IOVERLAY, 0, STATIC
        LOCFRAME DOVERLAY, 0, STATIC
        ARGFRAME ISTACK, 0, STACK
        ARGFRAME PSTACK, 0, STACK
        ARGFRAME XSTACK, 13, STACK
        ARGFRAME IOVERLAY, 0, STATIC
        ARGFRAME DOVERLAY, 0, STATIC
        FUNCALL ZDSecMgrEntryLookupExt, ZDSecMgrEntryLookupAMI
        LOCFRAME ISTACK, 0, STACK
        LOCFRAME PSTACK, 0, STACK
        LOCFRAME XSTACK, 13, STACK
        LOCFRAME IOVERLAY, 0, STATIC
        LOCFRAME DOVERLAY, 0, STATIC
        ARGFRAME ISTACK, 0, STACK
        ARGFRAME PSTACK, 0, STACK
        ARGFRAME XSTACK, 13, STACK
        ARGFRAME IOVERLAY, 0, STATIC
        ARGFRAME DOVERLAY, 0, STATIC
        MOV     A,#-0xb
        LCALL   ?BANKED_ENTER_XDATA
          CFI DPH0 load(1, XDATA, add(CFA_XSP16, literal(-1)))
          CFI DPL0 load(1, XDATA, add(CFA_XSP16, literal(-2)))
          CFI ?BRET_EXT load(1, XDATA, add(CFA_XSP16, literal(-3)))
          CFI ?RET_HIGH load(1, XDATA, add(CFA_XSP16, literal(-4)))
          CFI ?RET_LOW load(1, XDATA, add(CFA_XSP16, literal(-5)))
          CFI R7 load(1, XDATA, add(CFA_XSP16, literal(-6)))
          CFI V2 load(1, XDATA, add(CFA_XSP16, literal(-7)))
          CFI V1 load(1, XDATA, add(CFA_XSP16, literal(-8)))
          CFI V0 load(1, XDATA, add(CFA_XSP16, literal(-9)))
          CFI VB load(1, XDATA, add(CFA_XSP16, literal(-10)))
          CFI R6 load(1, XDATA, add(CFA_XSP16, literal(-11)))
          CFI CFA_SP SP+0
          CFI CFA_XSP16 add(XSP16, 11)
        ; Saved register size: 11
        ; Auto size: 2
        MOV     A,#-0x2
        LCALL   ?ALLOC_XSTACK8
          CFI CFA_XSP16 add(XSP16, 13)
        MOV     ?V0 + 0,R2
        MOV     ?V0 + 1,R3
        MOV     A,R4
        MOV     R6,A
        MOV     A,R5
        MOV     R7,A
//  833   ZStatus_t status;
//  834   uint16    ami;
//  835 
//  836 
//  837   // initialize results
//  838   *entry = NULL;
        MOV     DPL,R6
        MOV     DPH,R7
        MOV     A,#0x0
        MOVX    @DPTR,A
        INC     DPTR
        MOV     A,#0x0
        MOVX    @DPTR,A
//  839   status = ZNwkUnknownDevice;
        MOV     ?V0 + 2,#-0x38
//  840 
//  841   // lookup address index
//  842   if ( ZDSecMgrExtAddrLookup( extAddr, &ami ) == ZSuccess )
        ; Setup parameters for call to function ZDSecMgrExtAddrLookup
        MOV     DPL,?XSP + 0
        MOV     DPH,?XSP + 1
        MOV     R4,DPL
        MOV     R5,DPH
        MOV     R2,?V0 + 0
        MOV     R3,?V0 + 1
        LCALL   ??ZDSecMgrExtAddrLookup?relay
        MOV     A,R1
        JNZ     ??ZDSecMgrEntryLookupExt_0
//  843   {
//  844     status = ZDSecMgrEntryLookupAMI( ami, entry );
        ; Setup parameters for call to function ZDSecMgrEntryLookupAMI
        MOV     A,R6
        MOV     R4,A
        MOV     A,R7
        MOV     R5,A
        MOV     DPL,?XSP + 0
        MOV     DPH,?XSP + 1
        MOVX    A,@DPTR
        MOV     R2,A
        INC     DPTR
        MOVX    A,@DPTR
        MOV     R3,A
        LCALL   ??ZDSecMgrEntryLookupAMI?relay
        MOV     A,R1
        MOV     ?V0 + 2,A
//  845   }
//  846 
//  847   return status;
??ZDSecMgrEntryLookupExt_0:
        MOV     R1,?V0 + 2
        MOV     A,#0x2
        LCALL   ?DEALLOC_XSTACK8
          CFI CFA_XSP16 add(XSP16, 11)
        MOV     R7,#0x3
        LJMP    ?BANKED_LEAVE_XDATA
          CFI EndBlock cfiBlock9
//  848 }
//  849 
//  850 /******************************************************************************
//  851  * @fn          ZDSecMgrEntryFree
//  852  *
//  853  * @brief       Free entry.
//  854  *
//  855  * @param       entry - [in] valid entry
//  856  *
//  857  * @return      ZStatus_t
//  858  */

        RSEG BANKED_CODE:CODE:NOROOT(0)
//  859 void ZDSecMgrEntryFree( ZDSecMgrEntry_t* entry )
ZDSecMgrEntryFree:
          CFI Block cfiBlock10 Using cfiCommon0
          CFI Function ZDSecMgrEntryFree
        CODE
//  860 {
        PUSH    DPL
          CFI DPL0 Frame(CFA_SP, 4)
          CFI CFA_SP SP+-4
        PUSH    DPH
          CFI DPH0 Frame(CFA_SP, 5)
          CFI CFA_SP SP+-5
        ; Saved register size: 2
        ; Auto size: 0
//  861   entry->ami = INVALID_NODE_ADDR;
        MOV     DPL,R2
        MOV     DPH,R3
        MOV     A,#-0x2
        MOVX    @DPTR,A
        INC     DPTR
        MOV     A,#-0x1
        MOVX    @DPTR,A
//  862 }
        POP     DPH
          CFI DPH0 SameValue
          CFI CFA_SP SP+-4
        POP     DPL
          CFI DPL0 SameValue
          CFI CFA_SP SP+-3
        LJMP    ?BRET
          CFI EndBlock cfiBlock10
//  863 
//  864 /******************************************************************************
//  865  * @fn          ZDSecMgrEntryNew
//  866  *
//  867  * @brief       Get a new entry.
//  868  *
//  869  * @param       entry - [out] valid entry
//  870  *
//  871  * @return      ZStatus_t
//  872  */

        RSEG BANKED_CODE:CODE:NOROOT(0)
//  873 ZStatus_t ZDSecMgrEntryNew( ZDSecMgrEntry_t** entry )
ZDSecMgrEntryNew:
          CFI Block cfiBlock11 Using cfiCommon0
          CFI Function ZDSecMgrEntryNew
        CODE
//  874 {
        MOV     A,#-0x9
        LCALL   ?BANKED_ENTER_XDATA
          CFI DPH0 load(1, XDATA, add(CFA_XSP16, literal(-1)))
          CFI DPL0 load(1, XDATA, add(CFA_XSP16, literal(-2)))
          CFI ?BRET_EXT load(1, XDATA, add(CFA_XSP16, literal(-3)))
          CFI ?RET_HIGH load(1, XDATA, add(CFA_XSP16, literal(-4)))
          CFI ?RET_LOW load(1, XDATA, add(CFA_XSP16, literal(-5)))
          CFI R7 load(1, XDATA, add(CFA_XSP16, literal(-6)))
          CFI V0 load(1, XDATA, add(CFA_XSP16, literal(-7)))
          CFI VB load(1, XDATA, add(CFA_XSP16, literal(-8)))
          CFI R6 load(1, XDATA, add(CFA_XSP16, literal(-9)))
          CFI CFA_SP SP+0
          CFI CFA_XSP16 add(XSP16, 9)
        ; Saved register size: 9
        ; Auto size: 0
        MOV     A,R2
        MOV     R6,A
        MOV     A,R3
        MOV     R7,A
//  875   ZStatus_t status;
//  876   uint16    index;
//  877 
//  878 
//  879   // initialize results
//  880   *entry = NULL;
        MOV     DPL,R6
        MOV     DPH,R7
        MOV     A,#0x0
        MOVX    @DPTR,A
        INC     DPTR
        MOV     A,#0x0
        MOVX    @DPTR,A
//  881   status = ZNwkUnknownDevice;
        MOV     R1,#-0x38
//  882 
//  883   // verify data is available
//  884   if ( ZDSecMgrEntries != NULL )
        MOV     DPTR,#ZDSecMgrEntries
        MOVX    A,@DPTR
        MOV     R4,A
        INC     DPTR
        MOVX    A,@DPTR
        MOV     R5,A
        MOV     A,R4
        ORL     A,R5
        JNZ     $+5
        LJMP    ??ZDSecMgrEntryNew_0 & 0xFFFF
//  885   {
//  886     // find available entry
//  887     for ( index = 0; index < ZDSECMGR_ENTRY_MAX ; index++ )
        MOV     R2,#0x0
        MOV     R3,#0x0
??ZDSecMgrEntryNew_1:
        CLR     C
        MOV     A,R2
        SUBB    A,#0x3
        MOV     A,R3
        SUBB    A,#0x0
        JC      $+5
        LJMP    ??ZDSecMgrEntryNew_0 & 0xFFFF
//  888     {
//  889       if ( ZDSecMgrEntries[index].ami == INVALID_NODE_ADDR )
        MOV     A,R2
        MOV     R4,A
        MOV     A,R3
        MOV     R5,A
        MOV     A,R4
        MOV     B,#0x1d
        MUL     AB
        XCH     A,R4
        MOV     R0,B
        MOV     B,#0x0
        MUL     AB
        ADD     A,R0
        MOV     R0,A
        MOV     B,#0x1d
        MOV     A,R5
        MUL     AB
        ADD     A,R0
        MOV     R5,A
        MOV     DPTR,#ZDSecMgrEntries
        MOVX    A,@DPTR
        ADD     A,R4
        MOV     R0,A
        INC     DPTR
        MOVX    A,@DPTR
        ADDC    A,R5
        MOV     DPL,R0
        MOV     DPH,A
        MOVX    A,@DPTR
        XRL     A,#0xfe
        JNZ     ??ZDSecMgrEntryNew_2
        INC     DPTR
        MOVX    A,@DPTR
        XRL     A,#0xff
??ZDSecMgrEntryNew_2:
        JNZ     ??ZDSecMgrEntryNew_3
//  890       {
//  891         // return successful result
//  892         *entry = &ZDSecMgrEntries[index];
        MOV     A,R2
        MOV     R4,A
        MOV     A,R3
        MOV     R5,A
        MOV     A,R4
        MOV     B,#0x1d
        MUL     AB
        XCH     A,R4
        MOV     R0,B
        MOV     B,#0x0
        MUL     AB
        ADD     A,R0
        MOV     R0,A
        MOV     B,#0x1d
        MOV     A,R5
        MUL     AB
        ADD     A,R0
        MOV     R5,A
        MOV     DPTR,#ZDSecMgrEntries
        MOVX    A,@DPTR
        ADD     A,R4
        MOV     R4,A
        INC     DPTR
        MOVX    A,@DPTR
        ADDC    A,R5
        MOV     R5,A
        MOV     DPL,R6
        MOV     DPH,R7
        MOV     A,R4
        MOVX    @DPTR,A
        INC     DPTR
        MOV     A,R5
        MOVX    @DPTR,A
//  893         status = ZSuccess;
        MOV     R1,#0x0
//  894 
//  895         // Set the authentication option to default
//  896         ZDSecMgrEntries[index].authenticateOption = ZDSecMgr_Not_Authenticated;
        MOV     A,R2
        MOV     R4,A
        MOV     A,R3
        MOV     R5,A
        MOV     A,R4
        MOV     B,#0x1d
        MUL     AB
        XCH     A,R4
        MOV     R0,B
        MOV     B,#0x0
        MUL     AB
        ADD     A,R0
        MOV     R0,A
        MOV     B,#0x1d
        MOV     A,R5
        MUL     AB
        ADD     A,R0
        MOV     R5,A
        MOV     DPTR,#ZDSecMgrEntries
        MOVX    A,@DPTR
        ADD     A,R4
        MOV     R4,A
        INC     DPTR
        MOVX    A,@DPTR
        ADDC    A,R5
        MOV     R5,A
        MOV     A,R4
        ADD     A,#0x1c
        MOV     DPL,A
        MOV     A,R5
        ADDC    A,#0x0
        MOV     DPH,A
        MOV     A,#0x0
        MOVX    @DPTR,A
//  897 
//  898         // break from loop
//  899         index = ZDSECMGR_ENTRY_MAX;
        MOV     R2,#0x3
        MOV     R3,#0x0
//  900       }
//  901     }
??ZDSecMgrEntryNew_3:
        MOV     A,R2
        ADD     A,#0x1
        MOV     R2,A
        MOV     A,R3
        ADDC    A,#0x0
        MOV     R3,A
        LJMP    ??ZDSecMgrEntryNew_1 & 0xFFFF
//  902   }
//  903 
//  904   return status;
??ZDSecMgrEntryNew_0:
        MOV     R7,#0x1
        LJMP    ?BANKED_LEAVE_XDATA
          CFI EndBlock cfiBlock11
//  905 }
//  906 
//  907 /******************************************************************************
//  908  * @fn          ZDSecMgrCtrlInit
//  909  *
//  910  * @brief       Initialize control sub module
//  911  *
//  912  * @param       none
//  913  *
//  914  * @return      none
//  915  */

        RSEG BANKED_CODE:CODE:NOROOT(0)
//  916 void ZDSecMgrCtrlInit( void )
ZDSecMgrCtrlInit:
          CFI Block cfiBlock12 Using cfiCommon0
          CFI Function ZDSecMgrCtrlInit
        CODE
//  917 {
        FUNCALL ZDSecMgrCtrlInit, osal_mem_alloc
        LOCFRAME ISTACK, 0, STACK
        LOCFRAME PSTACK, 0, STACK
        LOCFRAME XSTACK, 10, STACK
        LOCFRAME IOVERLAY, 0, STATIC
        LOCFRAME DOVERLAY, 0, STATIC
        ARGFRAME ISTACK, 0, STACK
        ARGFRAME PSTACK, 0, STACK
        ARGFRAME XSTACK, 10, STACK
        ARGFRAME IOVERLAY, 0, STATIC
        ARGFRAME DOVERLAY, 0, STATIC
        MOV     A,#-0xa
        LCALL   ?BANKED_ENTER_XDATA
          CFI DPH0 load(1, XDATA, add(CFA_XSP16, literal(-1)))
          CFI DPL0 load(1, XDATA, add(CFA_XSP16, literal(-2)))
          CFI ?BRET_EXT load(1, XDATA, add(CFA_XSP16, literal(-3)))
          CFI ?RET_HIGH load(1, XDATA, add(CFA_XSP16, literal(-4)))
          CFI ?RET_LOW load(1, XDATA, add(CFA_XSP16, literal(-5)))
          CFI R7 load(1, XDATA, add(CFA_XSP16, literal(-6)))
          CFI V1 load(1, XDATA, add(CFA_XSP16, literal(-7)))
          CFI V0 load(1, XDATA, add(CFA_XSP16, literal(-8)))
          CFI VB load(1, XDATA, add(CFA_XSP16, literal(-9)))
          CFI R6 load(1, XDATA, add(CFA_XSP16, literal(-10)))
          CFI CFA_SP SP+0
          CFI CFA_XSP16 add(XSP16, 10)
        ; Saved register size: 10
        ; Auto size: 0
//  918   uint16 size;
//  919   uint16 index;
//  920 
//  921   // allocate entry data
//  922   size = (short)( sizeof(ZDSecMgrCtrl_t) * ZDSECMGR_CTRL_MAX );
        MOV     ?V0 + 0,#0x15
        MOV     ?V0 + 1,#0x0
//  923 
//  924   ZDSecMgrCtrlData = osal_mem_alloc( size );
        ; Setup parameters for call to function osal_mem_alloc
        MOV     R2,?V0 + 0
        MOV     R3,?V0 + 1
        LCALL   ??osal_mem_alloc?relay
        MOV     DPTR,#ZDSecMgrCtrlData
        MOV     A,R2
        MOVX    @DPTR,A
        INC     DPTR
        MOV     A,R3
        MOVX    @DPTR,A
//  925 
//  926   // initialize data
//  927   if ( ZDSecMgrCtrlData != NULL )
        MOV     DPTR,#ZDSecMgrCtrlData
        MOVX    A,@DPTR
        MOV     R0,A
        INC     DPTR
        MOVX    A,@DPTR
        MOV     R1,A
        MOV     A,R0
        ORL     A,R1
        JZ      ??ZDSecMgrCtrlInit_0
//  928   {
//  929     for( index = 0; index < ZDSECMGR_CTRL_MAX; index++ )
        MOV     R6,#0x0
        MOV     R7,#0x0
??ZDSecMgrCtrlInit_1:
        CLR     C
        MOV     A,R6
        SUBB    A,#0x3
        MOV     A,R7
        SUBB    A,#0x0
        JNC     ??ZDSecMgrCtrlInit_0
//  930     {
//  931       ZDSecMgrCtrlData[index].state = ZDSECMGR_CTRL_NONE;
        MOV     A,R6
        MOV     R0,A
        MOV     A,R7
        MOV     R1,A
        MOV     A,R0
        MOV     B,#0x7
        MUL     AB
        XCH     A,R0
        MOV     R2,B
        MOV     B,#0x0
        MUL     AB
        ADD     A,R2
        MOV     R2,A
        MOV     B,#0x7
        MOV     A,R1
        MUL     AB
        ADD     A,R2
        MOV     R1,A
        MOV     DPTR,#ZDSecMgrCtrlData
        MOVX    A,@DPTR
        ADD     A,R0
        MOV     R2,A
        INC     DPTR
        MOVX    A,@DPTR
        ADDC    A,R1
        MOV     DPL,R2
        MOV     DPH,A
        INC     DPTR
        INC     DPTR
        INC     DPTR
        INC     DPTR
        INC     DPTR
        MOV     A,#0x0
        MOVX    @DPTR,A
//  932     }
        MOV     A,R6
        ADD     A,#0x1
        MOV     R6,A
        MOV     A,R7
        ADDC    A,#0x0
        MOV     R7,A
        SJMP    ??ZDSecMgrCtrlInit_1
//  933   }
//  934 }
??ZDSecMgrCtrlInit_0:
        MOV     R7,#0x2
        LJMP    ?BANKED_LEAVE_XDATA
          CFI EndBlock cfiBlock12
//  935 
//  936 /******************************************************************************
//  937  * @fn          ZDSecMgrCtrlRelease
//  938  *
//  939  * @brief       Release control data.
//  940  *
//  941  * @param       ctrl - [in] valid control data
//  942  *
//  943  * @return      none
//  944  */

        RSEG BANKED_CODE:CODE:NOROOT(0)
//  945 void ZDSecMgrCtrlRelease( ZDSecMgrCtrl_t* ctrl )
ZDSecMgrCtrlRelease:
          CFI Block cfiBlock13 Using cfiCommon0
          CFI Function ZDSecMgrCtrlRelease
        CODE
//  946 {
        PUSH    DPL
          CFI DPL0 Frame(CFA_SP, 4)
          CFI CFA_SP SP+-4
        PUSH    DPH
          CFI DPH0 Frame(CFA_SP, 5)
          CFI CFA_SP SP+-5
        ; Saved register size: 2
        ; Auto size: 0
//  947   // should always be enough entry control data
//  948   ctrl->state = ZDSECMGR_CTRL_NONE;
        MOV     DPL,R2
        MOV     DPH,R3
        INC     DPTR
        INC     DPTR
        INC     DPTR
        INC     DPTR
        INC     DPTR
        MOV     A,#0x0
        MOVX    @DPTR,A
//  949 }
        POP     DPH
          CFI DPH0 SameValue
          CFI CFA_SP SP+-4
        POP     DPL
          CFI DPL0 SameValue
          CFI CFA_SP SP+-3
        LJMP    ?BRET
          CFI EndBlock cfiBlock13
//  950 
//  951 /******************************************************************************
//  952  * @fn          ZDSecMgrCtrlLookup
//  953  *
//  954  * @brief       Lookup control data.
//  955  *
//  956  * @param       entry - [in] valid entry data
//  957  * @param       ctrl  - [out] control data - NULL if not found
//  958  *
//  959  * @return      none
//  960  */

        RSEG BANKED_CODE:CODE:NOROOT(0)
//  961 void ZDSecMgrCtrlLookup( ZDSecMgrEntry_t* entry, ZDSecMgrCtrl_t** ctrl )
ZDSecMgrCtrlLookup:
          CFI Block cfiBlock14 Using cfiCommon0
          CFI Function ZDSecMgrCtrlLookup
        CODE
//  962 {
        MOV     A,#-0x9
        LCALL   ?BANKED_ENTER_XDATA
          CFI DPH0 load(1, XDATA, add(CFA_XSP16, literal(-1)))
          CFI DPL0 load(1, XDATA, add(CFA_XSP16, literal(-2)))
          CFI ?BRET_EXT load(1, XDATA, add(CFA_XSP16, literal(-3)))
          CFI ?RET_HIGH load(1, XDATA, add(CFA_XSP16, literal(-4)))
          CFI ?RET_LOW load(1, XDATA, add(CFA_XSP16, literal(-5)))
          CFI R7 load(1, XDATA, add(CFA_XSP16, literal(-6)))
          CFI V0 load(1, XDATA, add(CFA_XSP16, literal(-7)))
          CFI VB load(1, XDATA, add(CFA_XSP16, literal(-8)))
          CFI R6 load(1, XDATA, add(CFA_XSP16, literal(-9)))
          CFI CFA_SP SP+0
          CFI CFA_XSP16 add(XSP16, 9)
        ; Saved register size: 9
        ; Auto size: 0
        MOV     A,R2
        MOV     R6,A
        MOV     A,R3
        MOV     R7,A
//  963   uint16 index;
//  964 
//  965 
//  966   // initialize search results
//  967   *ctrl = NULL;
        MOV     DPL,R4
        MOV     DPH,R5
        MOV     A,#0x0
        MOVX    @DPTR,A
        INC     DPTR
        MOV     A,#0x0
        MOVX    @DPTR,A
//  968 
//  969   // verify data is available
//  970   if ( ZDSecMgrCtrlData != NULL )
        MOV     DPTR,#ZDSecMgrCtrlData
        MOVX    A,@DPTR
        MOV     R2,A
        INC     DPTR
        MOVX    A,@DPTR
        MOV     R3,A
        MOV     A,R2
        ORL     A,R3
        JNZ     $+5
        LJMP    ??ZDSecMgrCtrlLookup_0 & 0xFFFF
//  971   {
//  972     for ( index = 0; index < ZDSECMGR_CTRL_MAX; index++ )
        MOV     R0,#0x0
        MOV     R1,#0x0
??ZDSecMgrCtrlLookup_1:
        CLR     C
        MOV     A,R0
        SUBB    A,#0x3
        MOV     A,R1
        SUBB    A,#0x0
        JC      $+5
        LJMP    ??ZDSecMgrCtrlLookup_0 & 0xFFFF
//  973     {
//  974       // make sure control data is in use
//  975       if ( ZDSecMgrCtrlData[index].state != ZDSECMGR_CTRL_NONE )
        MOV     A,R0
        MOV     R2,A
        MOV     A,R1
        MOV     R3,A
        MOV     A,R2
        MOV     B,#0x7
        MUL     AB
        XCH     A,R2
        MOV     ?V0 + 0,B
        MOV     B,#0x0
        MUL     AB
        ADD     A,?V0 + 0
        MOV     ?V0 + 0,A
        MOV     B,#0x7
        MOV     A,R3
        MUL     AB
        ADD     A,?V0 + 0
        MOV     R3,A
        MOV     DPTR,#ZDSecMgrCtrlData
        MOVX    A,@DPTR
        ADD     A,R2
        MOV     ?V0 + 0,A
        INC     DPTR
        MOVX    A,@DPTR
        ADDC    A,R3
        MOV     DPL,?V0 + 0
        MOV     DPH,A
        INC     DPTR
        INC     DPTR
        INC     DPTR
        INC     DPTR
        INC     DPTR
        MOVX    A,@DPTR
        JZ      ??ZDSecMgrCtrlLookup_2
//  976       {
//  977         // check for entry match
//  978         if ( ZDSecMgrCtrlData[index].entry == entry )
        MOV     A,R0
        MOV     R2,A
        MOV     A,R1
        MOV     R3,A
        MOV     A,R2
        MOV     B,#0x7
        MUL     AB
        XCH     A,R2
        MOV     ?V0 + 0,B
        MOV     B,#0x0
        MUL     AB
        ADD     A,?V0 + 0
        MOV     ?V0 + 0,A
        MOV     B,#0x7
        MOV     A,R3
        MUL     AB
        ADD     A,?V0 + 0
        MOV     R3,A
        MOV     DPTR,#ZDSecMgrCtrlData
        MOVX    A,@DPTR
        ADD     A,R2
        MOV     ?V0 + 0,A
        INC     DPTR
        MOVX    A,@DPTR
        ADDC    A,R3
        MOV     DPL,?V0 + 0
        MOV     DPH,A
        MOVX    A,@DPTR
        MOV     R2,A
        INC     DPTR
        MOVX    A,@DPTR
        MOV     R3,A
        MOV     A,R6
        XRL     A,R2
        JNZ     ??ZDSecMgrCtrlLookup_3
        MOV     A,R7
        XRL     A,R3
??ZDSecMgrCtrlLookup_3:
        JNZ     ??ZDSecMgrCtrlLookup_2
//  979         {
//  980           // return this control data
//  981           *ctrl = &ZDSecMgrCtrlData[index];
        MOV     A,R0
        MOV     R2,A
        MOV     A,R1
        MOV     R3,A
        MOV     A,R2
        MOV     B,#0x7
        MUL     AB
        XCH     A,R2
        MOV     ?V0 + 0,B
        MOV     B,#0x0
        MUL     AB
        ADD     A,?V0 + 0
        MOV     ?V0 + 0,A
        MOV     B,#0x7
        MOV     A,R3
        MUL     AB
        ADD     A,?V0 + 0
        MOV     R3,A
        MOV     DPTR,#ZDSecMgrCtrlData
        MOVX    A,@DPTR
        ADD     A,R2
        MOV     R2,A
        INC     DPTR
        MOVX    A,@DPTR
        ADDC    A,R3
        MOV     R3,A
        MOV     DPL,R4
        MOV     DPH,R5
        MOV     A,R2
        MOVX    @DPTR,A
        INC     DPTR
        MOV     A,R3
        MOVX    @DPTR,A
//  982 
//  983           // break from loop
//  984           index = ZDSECMGR_CTRL_MAX;
        MOV     R0,#0x3
        MOV     R1,#0x0
//  985         }
//  986       }
//  987     }
??ZDSecMgrCtrlLookup_2:
        MOV     A,R0
        ADD     A,#0x1
        MOV     R0,A
        MOV     A,R1
        ADDC    A,#0x0
        MOV     R1,A
        LJMP    ??ZDSecMgrCtrlLookup_1 & 0xFFFF
//  988   }
//  989 }
??ZDSecMgrCtrlLookup_0:
        MOV     R7,#0x1
        LJMP    ?BANKED_LEAVE_XDATA
          CFI EndBlock cfiBlock14
//  990 
//  991 /******************************************************************************
//  992  * @fn          ZDSecMgrCtrlSet
//  993  *
//  994  * @brief       Set control data.
//  995  *
//  996  * @param       device - [in] valid device data
//  997  * @param       entry  - [in] valid entry data
//  998  * @param       ctrl   - [in] valid control data
//  999  *
// 1000  * @return      none
// 1001  */

        RSEG BANKED_CODE:CODE:NOROOT(0)
// 1002 void ZDSecMgrCtrlSet( ZDSecMgrDevice_t* device,
ZDSecMgrCtrlSet:
          CFI Block cfiBlock15 Using cfiCommon0
          CFI Function ZDSecMgrCtrlSet
        CODE
// 1003                       ZDSecMgrEntry_t*  entry,
// 1004                       ZDSecMgrCtrl_t*   ctrl )
// 1005 {
        MOV     A,#-0x9
        LCALL   ?BANKED_ENTER_XDATA
          CFI DPH0 load(1, XDATA, add(CFA_XSP16, literal(-1)))
          CFI DPL0 load(1, XDATA, add(CFA_XSP16, literal(-2)))
          CFI ?BRET_EXT load(1, XDATA, add(CFA_XSP16, literal(-3)))
          CFI ?RET_HIGH load(1, XDATA, add(CFA_XSP16, literal(-4)))
          CFI ?RET_LOW load(1, XDATA, add(CFA_XSP16, literal(-5)))
          CFI R7 load(1, XDATA, add(CFA_XSP16, literal(-6)))
          CFI V0 load(1, XDATA, add(CFA_XSP16, literal(-7)))
          CFI VB load(1, XDATA, add(CFA_XSP16, literal(-8)))
          CFI R6 load(1, XDATA, add(CFA_XSP16, literal(-9)))
          CFI CFA_SP SP+0
          CFI CFA_XSP16 add(XSP16, 9)
        ; Saved register size: 9
        ; Auto size: 0
        MOV     A,#0x9
        LCALL   ?XSTACK_DISP0_8
        MOVX    A,@DPTR
        MOV     R0,A
        INC     DPTR
        MOVX    A,@DPTR
        MOV     R1,A
// 1006   // set control date
// 1007   ctrl->parentAddr = device->parentAddr;
        MOV     DPL,R2
        MOV     DPH,R3
        INC     DPTR
        INC     DPTR
        INC     DPTR
        INC     DPTR
        MOVX    A,@DPTR
        MOV     R6,A
        INC     DPTR
        MOVX    A,@DPTR
        MOV     R7,A
        MOV     DPL,R0
        MOV     DPH,R1
        INC     DPTR
        INC     DPTR
        MOV     A,R6
        MOVX    @DPTR,A
        INC     DPTR
        MOV     A,R7
        MOVX    @DPTR,A
// 1008   ctrl->secure     = device->secure;
        MOV     DPL,R2
        MOV     DPH,R3
        INC     DPTR
        INC     DPTR
        INC     DPTR
        INC     DPTR
        INC     DPTR
        INC     DPTR
        MOVX    A,@DPTR
        MOV     DPL,R0
        MOV     DPH,R1
        INC     DPTR
        INC     DPTR
        INC     DPTR
        INC     DPTR
        MOVX    @DPTR,A
// 1009   ctrl->entry      = entry;
        MOV     DPL,R0
        MOV     DPH,R1
        MOV     A,R4
        MOVX    @DPTR,A
        INC     DPTR
        MOV     A,R5
        MOVX    @DPTR,A
// 1010   ctrl->state      = ZDSECMGR_CTRL_INIT;
        MOV     DPL,R0
        MOV     DPH,R1
        INC     DPTR
        INC     DPTR
        INC     DPTR
        INC     DPTR
        INC     DPTR
        MOV     A,#0x1
        MOVX    @DPTR,A
// 1011   ctrl->cntr       = 0;
        MOV     DPL,R0
        MOV     DPH,R1
        INC     DPTR
        INC     DPTR
        INC     DPTR
        INC     DPTR
        INC     DPTR
        INC     DPTR
        MOV     A,#0x0
        MOVX    @DPTR,A
// 1012 
// 1013   // set device pointer
// 1014   device->ctrl = ctrl;
        MOV     DPL,R2
        MOV     DPH,R3
        INC     DPTR
        INC     DPTR
        INC     DPTR
        INC     DPTR
        INC     DPTR
        INC     DPTR
        INC     DPTR
        INC     DPTR
        MOV     A,R0
        MOVX    @DPTR,A
        INC     DPTR
        MOV     A,R1
        MOVX    @DPTR,A
// 1015 }
        MOV     R7,#0x1
        LJMP    ?BANKED_LEAVE_XDATA
          CFI EndBlock cfiBlock15
// 1016 
// 1017 /******************************************************************************
// 1018  * @fn          ZDSecMgrCtrlAdd
// 1019  *
// 1020  * @brief       Add control data.
// 1021  *
// 1022  * @param       device - [in] valid device data
// 1023  * @param       entry  - [in] valid entry data
// 1024  *
// 1025  * @return      ZStatus_t
// 1026  */

        RSEG BANKED_CODE:CODE:NOROOT(0)
// 1027 ZStatus_t ZDSecMgrCtrlAdd( ZDSecMgrDevice_t* device, ZDSecMgrEntry_t*  entry )
ZDSecMgrCtrlAdd:
          CFI Block cfiBlock16 Using cfiCommon0
          CFI Function ZDSecMgrCtrlAdd
        CODE
// 1028 {
        FUNCALL ZDSecMgrCtrlAdd, ZDSecMgrCtrlSet
        LOCFRAME ISTACK, 0, STACK
        LOCFRAME PSTACK, 0, STACK
        LOCFRAME XSTACK, 18, STACK
        LOCFRAME IOVERLAY, 0, STATIC
        LOCFRAME DOVERLAY, 0, STATIC
        ARGFRAME ISTACK, 0, STACK
        ARGFRAME PSTACK, 0, STACK
        ARGFRAME XSTACK, 18, STACK
        ARGFRAME IOVERLAY, 0, STATIC
        ARGFRAME DOVERLAY, 0, STATIC
        MOV     A,#-0x10
        LCALL   ?BANKED_ENTER_XDATA
          CFI DPH0 load(1, XDATA, add(CFA_XSP16, literal(-1)))
          CFI DPL0 load(1, XDATA, add(CFA_XSP16, literal(-2)))
          CFI ?BRET_EXT load(1, XDATA, add(CFA_XSP16, literal(-3)))
          CFI ?RET_HIGH load(1, XDATA, add(CFA_XSP16, literal(-4)))
          CFI ?RET_LOW load(1, XDATA, add(CFA_XSP16, literal(-5)))
          CFI R7 load(1, XDATA, add(CFA_XSP16, literal(-6)))
          CFI V7 load(1, XDATA, add(CFA_XSP16, literal(-7)))
          CFI V6 load(1, XDATA, add(CFA_XSP16, literal(-8)))
          CFI V5 load(1, XDATA, add(CFA_XSP16, literal(-9)))
          CFI V4 load(1, XDATA, add(CFA_XSP16, literal(-10)))
          CFI V3 load(1, XDATA, add(CFA_XSP16, literal(-11)))
          CFI V2 load(1, XDATA, add(CFA_XSP16, literal(-12)))
          CFI V1 load(1, XDATA, add(CFA_XSP16, literal(-13)))
          CFI V0 load(1, XDATA, add(CFA_XSP16, literal(-14)))
          CFI VB load(1, XDATA, add(CFA_XSP16, literal(-15)))
          CFI R6 load(1, XDATA, add(CFA_XSP16, literal(-16)))
          CFI CFA_SP SP+0
          CFI CFA_XSP16 add(XSP16, 16)
        ; Saved register size: 16
        ; Auto size: 0
        MOV     ?V0 + 2,R2
        MOV     ?V0 + 3,R3
        MOV     ?V0 + 0,R4
        MOV     ?V0 + 1,R5
// 1029   ZStatus_t status;
// 1030   uint16    index;
// 1031 
// 1032 
// 1033   // initialize results
// 1034   status = ZNwkUnknownDevice;
        MOV     ?V0 + 4,#-0x38
// 1035 
// 1036   // verify data is available
// 1037   if ( ZDSecMgrCtrlData != NULL )
        MOV     DPTR,#ZDSecMgrCtrlData
        MOVX    A,@DPTR
        MOV     R0,A
        INC     DPTR
        MOVX    A,@DPTR
        MOV     R1,A
        MOV     A,R0
        ORL     A,R1
        JNZ     $+5
        LJMP    ??ZDSecMgrCtrlAdd_0 & 0xFFFF
// 1038   {
// 1039     // look for an empty slot
// 1040     for ( index = 0; index < ZDSECMGR_CTRL_MAX; index++ )
        MOV     R6,#0x0
        MOV     R7,#0x0
??ZDSecMgrCtrlAdd_1:
        CLR     C
        MOV     A,R6
        SUBB    A,#0x3
        MOV     A,R7
        SUBB    A,#0x0
        JNC     ??ZDSecMgrCtrlAdd_0
// 1041     {
// 1042       if ( ZDSecMgrCtrlData[index].state == ZDSECMGR_CTRL_NONE )
        MOV     A,R6
        MOV     R0,A
        MOV     A,R7
        MOV     R1,A
        MOV     A,R0
        MOV     B,#0x7
        MUL     AB
        XCH     A,R0
        MOV     R2,B
        MOV     B,#0x0
        MUL     AB
        ADD     A,R2
        MOV     R2,A
        MOV     B,#0x7
        MOV     A,R1
        MUL     AB
        ADD     A,R2
        MOV     R1,A
        MOV     DPTR,#ZDSecMgrCtrlData
        MOVX    A,@DPTR
        ADD     A,R0
        MOV     R2,A
        INC     DPTR
        MOVX    A,@DPTR
        ADDC    A,R1
        MOV     DPL,R2
        MOV     DPH,A
        INC     DPTR
        INC     DPTR
        INC     DPTR
        INC     DPTR
        INC     DPTR
        MOVX    A,@DPTR
        JNZ     ??ZDSecMgrCtrlAdd_2
// 1043       {
// 1044         // return successful results
// 1045         ZDSecMgrCtrlSet( device, entry, &ZDSecMgrCtrlData[index] );
        ; Setup parameters for call to function ZDSecMgrCtrlSet
        MOV     A,R6
        MOV     R0,A
        MOV     A,R7
        MOV     R1,A
        MOV     A,R0
        MOV     B,#0x7
        MUL     AB
        XCH     A,R0
        MOV     R2,B
        MOV     B,#0x0
        MUL     AB
        ADD     A,R2
        MOV     R2,A
        MOV     B,#0x7
        MOV     A,R1
        MUL     AB
        ADD     A,R2
        MOV     R1,A
        MOV     DPTR,#ZDSecMgrCtrlData
        MOVX    A,@DPTR
        ADD     A,R0
        MOV     ?V0 + 6,A
        INC     DPTR
        MOVX    A,@DPTR
        ADDC    A,R1
        MOV     ?V0 + 7,A
        MOV     R0,#?V0 + 6
        LCALL   ?PUSH_XSTACK_I_TWO
          CFI CFA_XSP16 add(XSP16, 18)
        MOV     R4,?V0 + 0
        MOV     R5,?V0 + 1
        MOV     R2,?V0 + 2
        MOV     R3,?V0 + 3
        LCALL   ??ZDSecMgrCtrlSet?relay
        MOV     A,#0x2
        LCALL   ?DEALLOC_XSTACK8
          CFI CFA_XSP16 add(XSP16, 16)
// 1046 
// 1047         status = ZSuccess;
        MOV     ?V0 + 4,#0x0
// 1048 
// 1049         // break from loop
// 1050         index = ZDSECMGR_CTRL_MAX;
        MOV     R6,#0x3
        MOV     R7,#0x0
// 1051       }
// 1052     }
??ZDSecMgrCtrlAdd_2:
        MOV     A,R6
        ADD     A,#0x1
        MOV     R6,A
        MOV     A,R7
        ADDC    A,#0x0
        MOV     R7,A
        LJMP    ??ZDSecMgrCtrlAdd_1 & 0xFFFF
// 1053   }
// 1054 
// 1055   return status;
??ZDSecMgrCtrlAdd_0:
        MOV     R1,?V0 + 4
        MOV     R7,#0x8
        LJMP    ?BANKED_LEAVE_XDATA
          CFI EndBlock cfiBlock16
// 1056 }
// 1057 
// 1058 /******************************************************************************
// 1059  * @fn          ZDSecMgrCtrlTerm
// 1060  *
// 1061  * @brief       Terminate device control.
// 1062  *
// 1063  * @param       entry - [in] valid entry data
// 1064  *
// 1065  * @return      none
// 1066  */

        RSEG BANKED_CODE:CODE:NOROOT(0)
// 1067 void ZDSecMgrCtrlTerm( ZDSecMgrEntry_t* entry )
ZDSecMgrCtrlTerm:
          CFI Block cfiBlock17 Using cfiCommon0
          CFI Function ZDSecMgrCtrlTerm
        CODE
// 1068 {
        FUNCALL ZDSecMgrCtrlTerm, ZDSecMgrCtrlLookup
        LOCFRAME ISTACK, 0, STACK
        LOCFRAME PSTACK, 0, STACK
        LOCFRAME XSTACK, 11, STACK
        LOCFRAME IOVERLAY, 0, STATIC
        LOCFRAME DOVERLAY, 0, STATIC
        ARGFRAME ISTACK, 0, STACK
        ARGFRAME PSTACK, 0, STACK
        ARGFRAME XSTACK, 11, STACK
        ARGFRAME IOVERLAY, 0, STATIC
        ARGFRAME DOVERLAY, 0, STATIC
        FUNCALL ZDSecMgrCtrlTerm, ZDSecMgrCtrlRelease
        LOCFRAME ISTACK, 0, STACK
        LOCFRAME PSTACK, 0, STACK
        LOCFRAME XSTACK, 11, STACK
        LOCFRAME IOVERLAY, 0, STATIC
        LOCFRAME DOVERLAY, 0, STATIC
        ARGFRAME ISTACK, 0, STACK
        ARGFRAME PSTACK, 0, STACK
        ARGFRAME XSTACK, 11, STACK
        ARGFRAME IOVERLAY, 0, STATIC
        ARGFRAME DOVERLAY, 0, STATIC
        MOV     A,#-0x9
        LCALL   ?BANKED_ENTER_XDATA
          CFI DPH0 load(1, XDATA, add(CFA_XSP16, literal(-1)))
          CFI DPL0 load(1, XDATA, add(CFA_XSP16, literal(-2)))
          CFI ?BRET_EXT load(1, XDATA, add(CFA_XSP16, literal(-3)))
          CFI ?RET_HIGH load(1, XDATA, add(CFA_XSP16, literal(-4)))
          CFI ?RET_LOW load(1, XDATA, add(CFA_XSP16, literal(-5)))
          CFI R7 load(1, XDATA, add(CFA_XSP16, literal(-6)))
          CFI V0 load(1, XDATA, add(CFA_XSP16, literal(-7)))
          CFI VB load(1, XDATA, add(CFA_XSP16, literal(-8)))
          CFI R6 load(1, XDATA, add(CFA_XSP16, literal(-9)))
          CFI CFA_SP SP+0
          CFI CFA_XSP16 add(XSP16, 9)
        ; Saved register size: 9
        ; Auto size: 2
        MOV     A,#-0x2
        LCALL   ?ALLOC_XSTACK8
          CFI CFA_XSP16 add(XSP16, 11)
        MOV     A,R2
        MOV     R6,A
        MOV     A,R3
        MOV     R7,A
// 1069   ZDSecMgrCtrl_t* ctrl;
// 1070 
// 1071   // remove device from control data
// 1072   ZDSecMgrCtrlLookup ( entry, &ctrl );
        ; Setup parameters for call to function ZDSecMgrCtrlLookup
        MOV     DPL,?XSP + 0
        MOV     DPH,?XSP + 1
        MOV     R4,DPL
        MOV     R5,DPH
        MOV     A,R6
        MOV     R2,A
        MOV     A,R7
        MOV     R3,A
        LCALL   ??ZDSecMgrCtrlLookup?relay
// 1073 
// 1074   if ( ctrl != NULL )
        MOV     DPL,?XSP + 0
        MOV     DPH,?XSP + 1
        MOVX    A,@DPTR
        MOV     R0,A
        INC     DPTR
        MOVX    A,@DPTR
        MOV     R1,A
        MOV     A,R0
        ORL     A,R1
        JZ      ??ZDSecMgrCtrlTerm_0
// 1075   {
// 1076     ZDSecMgrCtrlRelease ( ctrl );
        ; Setup parameters for call to function ZDSecMgrCtrlRelease
        MOV     DPL,?XSP + 0
        MOV     DPH,?XSP + 1
        MOVX    A,@DPTR
        MOV     R2,A
        INC     DPTR
        MOVX    A,@DPTR
        MOV     R3,A
        LCALL   ??ZDSecMgrCtrlRelease?relay
// 1077   }
// 1078 }
??ZDSecMgrCtrlTerm_0:
        MOV     A,#0x2
        LCALL   ?DEALLOC_XSTACK8
          CFI CFA_XSP16 add(XSP16, 9)
        MOV     R7,#0x1
        LJMP    ?BANKED_LEAVE_XDATA
          CFI EndBlock cfiBlock17
// 1079 
// 1080 /******************************************************************************
// 1081  * @fn          ZDSecMgrCtrlReset
// 1082  *
// 1083  * @brief       Reset control data.
// 1084  *
// 1085  * @param       device - [in] valid device data
// 1086  * @param       entry  - [in] valid entry data
// 1087  *
// 1088  * @return      ZStatus_t
// 1089  */

        RSEG BANKED_CODE:CODE:NOROOT(0)
// 1090 ZStatus_t ZDSecMgrCtrlReset( ZDSecMgrDevice_t* device, ZDSecMgrEntry_t* entry )
ZDSecMgrCtrlReset:
          CFI Block cfiBlock18 Using cfiCommon0
          CFI Function ZDSecMgrCtrlReset
        CODE
// 1091 {
        FUNCALL ZDSecMgrCtrlReset, ZDSecMgrCtrlLookup
        LOCFRAME ISTACK, 0, STACK
        LOCFRAME PSTACK, 0, STACK
        LOCFRAME XSTACK, 13, STACK
        LOCFRAME IOVERLAY, 0, STATIC
        LOCFRAME DOVERLAY, 0, STATIC
        ARGFRAME ISTACK, 0, STACK
        ARGFRAME PSTACK, 0, STACK
        ARGFRAME XSTACK, 13, STACK
        ARGFRAME IOVERLAY, 0, STATIC
        ARGFRAME DOVERLAY, 0, STATIC
        FUNCALL ZDSecMgrCtrlReset, ZDSecMgrCtrlSet
        LOCFRAME ISTACK, 0, STACK
        LOCFRAME PSTACK, 0, STACK
        LOCFRAME XSTACK, 15, STACK
        LOCFRAME IOVERLAY, 0, STATIC
        LOCFRAME DOVERLAY, 0, STATIC
        ARGFRAME ISTACK, 0, STACK
        ARGFRAME PSTACK, 0, STACK
        ARGFRAME XSTACK, 15, STACK
        ARGFRAME IOVERLAY, 0, STATIC
        ARGFRAME DOVERLAY, 0, STATIC
        FUNCALL ZDSecMgrCtrlReset, ZDSecMgrCtrlAdd
        LOCFRAME ISTACK, 0, STACK
        LOCFRAME PSTACK, 0, STACK
        LOCFRAME XSTACK, 13, STACK
        LOCFRAME IOVERLAY, 0, STATIC
        LOCFRAME DOVERLAY, 0, STATIC
        ARGFRAME ISTACK, 0, STACK
        ARGFRAME PSTACK, 0, STACK
        ARGFRAME XSTACK, 13, STACK
        ARGFRAME IOVERLAY, 0, STATIC
        ARGFRAME DOVERLAY, 0, STATIC
        MOV     A,#-0xb
        LCALL   ?BANKED_ENTER_XDATA
          CFI DPH0 load(1, XDATA, add(CFA_XSP16, literal(-1)))
          CFI DPL0 load(1, XDATA, add(CFA_XSP16, literal(-2)))
          CFI ?BRET_EXT load(1, XDATA, add(CFA_XSP16, literal(-3)))
          CFI ?RET_HIGH load(1, XDATA, add(CFA_XSP16, literal(-4)))
          CFI ?RET_LOW load(1, XDATA, add(CFA_XSP16, literal(-5)))
          CFI R7 load(1, XDATA, add(CFA_XSP16, literal(-6)))
          CFI V2 load(1, XDATA, add(CFA_XSP16, literal(-7)))
          CFI V1 load(1, XDATA, add(CFA_XSP16, literal(-8)))
          CFI V0 load(1, XDATA, add(CFA_XSP16, literal(-9)))
          CFI VB load(1, XDATA, add(CFA_XSP16, literal(-10)))
          CFI R6 load(1, XDATA, add(CFA_XSP16, literal(-11)))
          CFI CFA_SP SP+0
          CFI CFA_XSP16 add(XSP16, 11)
        ; Saved register size: 11
        ; Auto size: 2
        MOV     A,#-0x2
        LCALL   ?ALLOC_XSTACK8
          CFI CFA_XSP16 add(XSP16, 13)
        MOV     ?V0 + 0,R2
        MOV     ?V0 + 1,R3
        MOV     A,R4
        MOV     R6,A
        MOV     A,R5
        MOV     R7,A
// 1092   ZStatus_t       status;
// 1093   ZDSecMgrCtrl_t* ctrl;
// 1094 
// 1095 
// 1096   // initialize results
// 1097   status = ZNwkUnknownDevice;
        MOV     ?V0 + 2,#-0x38
// 1098 
// 1099   // look for a match for the entry
// 1100   ZDSecMgrCtrlLookup( entry, &ctrl );
        ; Setup parameters for call to function ZDSecMgrCtrlLookup
        MOV     DPL,?XSP + 0
        MOV     DPH,?XSP + 1
        MOV     R4,DPL
        MOV     R5,DPH
        MOV     A,R6
        MOV     R2,A
        MOV     A,R7
        MOV     R3,A
        LCALL   ??ZDSecMgrCtrlLookup?relay
// 1101 
// 1102   if ( ctrl != NULL )
        MOV     DPL,?XSP + 0
        MOV     DPH,?XSP + 1
        MOVX    A,@DPTR
        MOV     R0,A
        INC     DPTR
        MOVX    A,@DPTR
        MOV     R1,A
        MOV     A,R0
        ORL     A,R1
        JZ      ??ZDSecMgrCtrlReset_0
// 1103   {
// 1104     ZDSecMgrCtrlSet( device, entry, ctrl );
        ; Setup parameters for call to function ZDSecMgrCtrlSet
        MOV     DPL,?XSP + 0
        MOV     DPH,?XSP + 1
        LCALL   ?PUSH_XSTACK8_X_TWO
          CFI CFA_XSP16 add(XSP16, 15)
        MOV     A,R6
        MOV     R4,A
        MOV     A,R7
        MOV     R5,A
        MOV     R2,?V0 + 0
        MOV     R3,?V0 + 1
        LCALL   ??ZDSecMgrCtrlSet?relay
        MOV     A,#0x2
        LCALL   ?DEALLOC_XSTACK8
          CFI CFA_XSP16 add(XSP16, 13)
// 1105 
// 1106     status = ZSuccess;
        MOV     ?V0 + 2,#0x0
        SJMP    ??ZDSecMgrCtrlReset_1
// 1107   }
// 1108   else
// 1109   {
// 1110     status = ZDSecMgrCtrlAdd( device, entry );
??ZDSecMgrCtrlReset_0:
        ; Setup parameters for call to function ZDSecMgrCtrlAdd
        MOV     A,R6
        MOV     R4,A
        MOV     A,R7
        MOV     R5,A
        MOV     R2,?V0 + 0
        MOV     R3,?V0 + 1
        LCALL   ??ZDSecMgrCtrlAdd?relay
        MOV     A,R1
        MOV     ?V0 + 2,A
// 1111   }
// 1112 
// 1113   return status;
??ZDSecMgrCtrlReset_1:
        MOV     R1,?V0 + 2
        MOV     A,#0x2
        LCALL   ?DEALLOC_XSTACK8
          CFI CFA_XSP16 add(XSP16, 11)
        MOV     R7,#0x3
        LJMP    ?BANKED_LEAVE_XDATA
          CFI EndBlock cfiBlock18
// 1114 }
// 1115 
// 1116 /******************************************************************************
// 1117  * @fn          ZDSecMgrMasterKeyLoad
// 1118  *
// 1119  * @brief       Load the MASTER key for device with specified EXT
// 1120  *              address.
// 1121  *
// 1122  * @param       extAddr - [in] EXT address of device
// 1123  * @param       key     - [in] MASTER key shared with device
// 1124  *
// 1125  * @return      ZStatus_t
// 1126  */

        RSEG BANKED_CODE:CODE:NOROOT(0)
// 1127 ZStatus_t ZDSecMgrMasterKeyLoad( uint8* extAddr, uint8* key )
ZDSecMgrMasterKeyLoad:
          CFI Block cfiBlock19 Using cfiCommon0
          CFI Function ZDSecMgrMasterKeyLoad
        CODE
// 1128 {
        FUNCALL ZDSecMgrMasterKeyLoad, ZDSecMgrExtAddrLookup
        LOCFRAME ISTACK, 0, STACK
        LOCFRAME PSTACK, 0, STACK
        LOCFRAME XSTACK, 19, STACK
        LOCFRAME IOVERLAY, 0, STATIC
        LOCFRAME DOVERLAY, 0, STATIC
        ARGFRAME ISTACK, 0, STACK
        ARGFRAME PSTACK, 0, STACK
        ARGFRAME XSTACK, 19, STACK
        ARGFRAME IOVERLAY, 0, STATIC
        ARGFRAME DOVERLAY, 0, STATIC
        FUNCALL ZDSecMgrMasterKeyLoad, ZDSecMgrMasterKeyLookup
        LOCFRAME ISTACK, 0, STACK
        LOCFRAME PSTACK, 0, STACK
        LOCFRAME XSTACK, 19, STACK
        LOCFRAME IOVERLAY, 0, STATIC
        LOCFRAME DOVERLAY, 0, STATIC
        ARGFRAME ISTACK, 0, STACK
        ARGFRAME PSTACK, 0, STACK
        ARGFRAME XSTACK, 19, STACK
        ARGFRAME IOVERLAY, 0, STATIC
        ARGFRAME DOVERLAY, 0, STATIC
        FUNCALL ZDSecMgrMasterKeyLoad, osal_memcpy
        LOCFRAME ISTACK, 0, STACK
        LOCFRAME PSTACK, 0, STACK
        LOCFRAME XSTACK, 22, STACK
        LOCFRAME IOVERLAY, 0, STATIC
        LOCFRAME DOVERLAY, 0, STATIC
        ARGFRAME ISTACK, 0, STACK
        ARGFRAME PSTACK, 0, STACK
        ARGFRAME XSTACK, 22, STACK
        ARGFRAME IOVERLAY, 0, STATIC
        ARGFRAME DOVERLAY, 0, STATIC
        FUNCALL ZDSecMgrMasterKeyLoad, ZDSecMgrMasterKeyStore
        LOCFRAME ISTACK, 0, STACK
        LOCFRAME PSTACK, 0, STACK
        LOCFRAME XSTACK, 19, STACK
        LOCFRAME IOVERLAY, 0, STATIC
        LOCFRAME DOVERLAY, 0, STATIC
        ARGFRAME ISTACK, 0, STACK
        ARGFRAME PSTACK, 0, STACK
        ARGFRAME XSTACK, 19, STACK
        ARGFRAME IOVERLAY, 0, STATIC
        ARGFRAME DOVERLAY, 0, STATIC
        MOV     A,#-0xf
        LCALL   ?BANKED_ENTER_XDATA
          CFI DPH0 load(1, XDATA, add(CFA_XSP16, literal(-1)))
          CFI DPL0 load(1, XDATA, add(CFA_XSP16, literal(-2)))
          CFI ?BRET_EXT load(1, XDATA, add(CFA_XSP16, literal(-3)))
          CFI ?RET_HIGH load(1, XDATA, add(CFA_XSP16, literal(-4)))
          CFI ?RET_LOW load(1, XDATA, add(CFA_XSP16, literal(-5)))
          CFI R7 load(1, XDATA, add(CFA_XSP16, literal(-6)))
          CFI V6 load(1, XDATA, add(CFA_XSP16, literal(-7)))
          CFI V5 load(1, XDATA, add(CFA_XSP16, literal(-8)))
          CFI V4 load(1, XDATA, add(CFA_XSP16, literal(-9)))
          CFI V3 load(1, XDATA, add(CFA_XSP16, literal(-10)))
          CFI V2 load(1, XDATA, add(CFA_XSP16, literal(-11)))
          CFI V1 load(1, XDATA, add(CFA_XSP16, literal(-12)))
          CFI V0 load(1, XDATA, add(CFA_XSP16, literal(-13)))
          CFI VB load(1, XDATA, add(CFA_XSP16, literal(-14)))
          CFI R6 load(1, XDATA, add(CFA_XSP16, literal(-15)))
          CFI CFA_SP SP+0
          CFI CFA_XSP16 add(XSP16, 15)
        ; Saved register size: 15
        ; Auto size: 4
        MOV     A,#-0x4
        LCALL   ?ALLOC_XSTACK8
          CFI CFA_XSP16 add(XSP16, 19)
        MOV     A,R2
        MOV     R6,A
        MOV     A,R3
        MOV     R7,A
        MOV     ?V0 + 0,R4
        MOV     ?V0 + 1,R5
// 1129   ZStatus_t status;
// 1130   uint8*    loaded;
// 1131   uint16    ami;
// 1132 
// 1133 
// 1134   // set status based on policy
// 1135   status = ZDSecMgrExtAddrLookup( extAddr, &ami );
        ; Setup parameters for call to function ZDSecMgrExtAddrLookup
        MOV     DPL,?XSP + 0
        MOV     DPH,?XSP + 1
        MOV     R4,DPL
        MOV     R5,DPH
        MOV     A,R6
        MOV     R2,A
        MOV     A,R7
        MOV     R3,A
        LCALL   ??ZDSecMgrExtAddrLookup?relay
        MOV     A,R1
        MOV     ?V0 + 2,A
// 1136 
// 1137   if ( status == ZSuccess )
        MOV     A,?V0 + 2
        JNZ     ??ZDSecMgrMasterKeyLoad_0
// 1138   {
// 1139     // get the address index
// 1140     if ( ZDSecMgrMasterKeyLookup( ami, &loaded ) == ZSuccess )
        ; Setup parameters for call to function ZDSecMgrMasterKeyLookup
        MOV     A,#0x2
        LCALL   ?XSTACK_DISP0_8
        MOV     R4,DPL
        MOV     R5,DPH
        MOV     DPL,?XSP + 0
        MOV     DPH,?XSP + 1
        MOVX    A,@DPTR
        MOV     R2,A
        INC     DPTR
        MOVX    A,@DPTR
        MOV     R3,A
        LCALL   ??ZDSecMgrMasterKeyLookup?relay
        MOV     A,R1
        JNZ     ??ZDSecMgrMasterKeyLoad_1
// 1141     {
// 1142       // overwrite old key
// 1143       osal_memcpy( loaded, key, SEC_KEY_LEN );
        ; Setup parameters for call to function osal_memcpy
        MOV     ?V0 + 4,?V0 + 0
        MOV     ?V0 + 5,?V0 + 1
        MOV     ?V0 + 6,#0x0
        MOV     R0,#?V0 + 4
        LCALL   ?PUSH_XSTACK_I_THREE
          CFI CFA_XSP16 add(XSP16, 22)
        MOV     R4,#0x10
        MOV     R5,#0x0
        MOV     A,#0x5
        LCALL   ?XSTACK_DISP0_8
        MOVX    A,@DPTR
        MOV     R2,A
        INC     DPTR
        MOVX    A,@DPTR
        MOV     R3,A
        LCALL   ??osal_memcpy?relay
        MOV     A,#0x3
        LCALL   ?DEALLOC_XSTACK8
          CFI CFA_XSP16 add(XSP16, 19)
        SJMP    ??ZDSecMgrMasterKeyLoad_0
// 1144     }
// 1145     else
// 1146     {
// 1147       // store new key -- NULL will zero key
// 1148       status = ZDSecMgrMasterKeyStore( ami, key );
??ZDSecMgrMasterKeyLoad_1:
        ; Setup parameters for call to function ZDSecMgrMasterKeyStore
        MOV     R4,?V0 + 0
        MOV     R5,?V0 + 1
        MOV     DPL,?XSP + 0
        MOV     DPH,?XSP + 1
        MOVX    A,@DPTR
        MOV     R2,A
        INC     DPTR
        MOVX    A,@DPTR
        MOV     R3,A
        LCALL   ??ZDSecMgrMasterKeyStore?relay
        MOV     A,R1
        MOV     ?V0 + 2,A
// 1149     }
// 1150   }
// 1151 
// 1152   return status;
??ZDSecMgrMasterKeyLoad_0:
        MOV     R1,?V0 + 2
        MOV     A,#0x4
        LCALL   ?DEALLOC_XSTACK8
          CFI CFA_XSP16 add(XSP16, 15)
        MOV     R7,#0x7
        LJMP    ?BANKED_LEAVE_XDATA
          CFI EndBlock cfiBlock19
// 1153 }
// 1154 
// 1155 /******************************************************************************
// 1156  * @fn          ZDSecMgrAppKeyGet
// 1157  *
// 1158  * @brief       get an APP key - option APP(MASTER or LINK) key
// 1159  *
// 1160  * @param       initNwkAddr - [in] NWK address of initiator device
// 1161  * @param       initExtAddr - [in] EXT address of initiator device
// 1162  * @param       partNwkAddr - [in] NWK address of partner device
// 1163  * @param       partExtAddr - [in] EXT address of partner device
// 1164  * @param       key         - [out] APP(MASTER or LINK) key
// 1165  * @param       keyType     - [out] APP(MASTER or LINK) key type
// 1166  *
// 1167  * @return      ZStatus_t
// 1168  */

        RSEG XDATA_I:XDATA:NOROOT(0)
// 1169 uint8 ZDSecMgrAppKeyType = KEY_TYPE_APP_LINK;    // Set the default key type
ZDSecMgrAppKeyType:
        DATA8
        DS 1
        REQUIRE `?<Initializer for ZDSecMgrAppKeyType>`
        REQUIRE __INIT_XDATA_I
// 1170                                                  // to KEY_TYPE_APP_LINK since
// 1171                                                  // only specific requirement
// 1172                                                  // right now comes from SE profile
// 1173 

        RSEG BANKED_CODE:CODE:NOROOT(0)
// 1174 ZStatus_t ZDSecMgrAppKeyGet( uint16  initNwkAddr,
ZDSecMgrAppKeyGet:
          CFI Block cfiBlock20 Using cfiCommon0
          CFI Function ZDSecMgrAppKeyGet
        CODE
// 1175                              uint8*  initExtAddr,
// 1176                              uint16  partNwkAddr,
// 1177                              uint8*  partExtAddr,
// 1178                              uint8** key,
// 1179                              uint8*  keyType )
// 1180 {
        FUNCALL ZDSecMgrAppKeyGet, SSP_GetTrueRand
        LOCFRAME ISTACK, 0, STACK
        LOCFRAME PSTACK, 0, STACK
        LOCFRAME XSTACK, 18, STACK
        LOCFRAME IOVERLAY, 0, STATIC
        LOCFRAME DOVERLAY, 0, STATIC
        ARGFRAME ISTACK, 0, STACK
        ARGFRAME PSTACK, 0, STACK
        ARGFRAME XSTACK, 18, STACK
        ARGFRAME IOVERLAY, 0, STATIC
        ARGFRAME DOVERLAY, 0, STATIC
        MOV     A,#-0x12
        LCALL   ?BANKED_ENTER_XDATA
          CFI DPH0 load(1, XDATA, add(CFA_XSP16, literal(-1)))
          CFI DPL0 load(1, XDATA, add(CFA_XSP16, literal(-2)))
          CFI ?BRET_EXT load(1, XDATA, add(CFA_XSP16, literal(-3)))
          CFI ?RET_HIGH load(1, XDATA, add(CFA_XSP16, literal(-4)))
          CFI ?RET_LOW load(1, XDATA, add(CFA_XSP16, literal(-5)))
          CFI R7 load(1, XDATA, add(CFA_XSP16, literal(-6)))
          CFI V9 load(1, XDATA, add(CFA_XSP16, literal(-7)))
          CFI V8 load(1, XDATA, add(CFA_XSP16, literal(-8)))
          CFI V7 load(1, XDATA, add(CFA_XSP16, literal(-9)))
          CFI V6 load(1, XDATA, add(CFA_XSP16, literal(-10)))
          CFI V5 load(1, XDATA, add(CFA_XSP16, literal(-11)))
          CFI V4 load(1, XDATA, add(CFA_XSP16, literal(-12)))
          CFI V3 load(1, XDATA, add(CFA_XSP16, literal(-13)))
          CFI V2 load(1, XDATA, add(CFA_XSP16, literal(-14)))
          CFI V1 load(1, XDATA, add(CFA_XSP16, literal(-15)))
          CFI V0 load(1, XDATA, add(CFA_XSP16, literal(-16)))
          CFI VB load(1, XDATA, add(CFA_XSP16, literal(-17)))
          CFI R6 load(1, XDATA, add(CFA_XSP16, literal(-18)))
          CFI CFA_SP SP+0
          CFI CFA_XSP16 add(XSP16, 18)
        ; Saved register size: 18
        ; Auto size: 0
        MOV     A,R2
        MOV     R6,A
        MOV     A,R3
        MOV     R7,A
        MOV     ?V0 + 8,R4
        MOV     ?V0 + 9,R5
        MOV     A,#0x12
        LCALL   ?XSTACK_DISP0_8
        MOVX    A,@DPTR
        MOV     ?V0 + 6,A
        INC     DPTR
        MOVX    A,@DPTR
        MOV     ?V0 + 7,A
        MOV     A,#0x14
        LCALL   ?XSTACK_DISP0_8
        MOVX    A,@DPTR
        MOV     ?V0 + 0,A
        INC     DPTR
        MOVX    A,@DPTR
        MOV     ?V0 + 1,A
        MOV     A,#0x16
        LCALL   ?XSTACK_DISP0_8
        MOVX    A,@DPTR
        MOV     ?V0 + 2,A
        INC     DPTR
        MOVX    A,@DPTR
        MOV     ?V0 + 3,A
        MOV     A,#0x18
        LCALL   ?XSTACK_DISP0_8
        MOVX    A,@DPTR
        MOV     ?V0 + 4,A
        INC     DPTR
        MOVX    A,@DPTR
        MOV     ?V0 + 5,A
// 1181   // Intentionally unreferenced parameters
// 1182   (void)initNwkAddr;
// 1183   (void)initExtAddr;
// 1184   (void)partNwkAddr;
// 1185   (void)partExtAddr;
// 1186   
// 1187   //---------------------------------------------------------------------------
// 1188   // note:
// 1189   // should use a robust mechanism to generate keys, for example
// 1190   // combine EXT addresses and call a hash function
// 1191   //---------------------------------------------------------------------------
// 1192   SSP_GetTrueRand( SEC_KEY_LEN, *key );
        ; Setup parameters for call to function SSP_GetTrueRand
        MOV     DPL,?V0 + 2
        MOV     DPH,?V0 + 3
        MOVX    A,@DPTR
        MOV     R2,A
        INC     DPTR
        MOVX    A,@DPTR
        MOV     R3,A
        MOV     R1,#0x10
        LCALL   ??SSP_GetTrueRand?relay
// 1193 
// 1194   *keyType = ZDSecMgrAppKeyType;
        MOV     DPTR,#ZDSecMgrAppKeyType
        MOVX    A,@DPTR
        MOV     DPL,?V0 + 4
        MOV     DPH,?V0 + 5
        MOVX    @DPTR,A
// 1195 
// 1196   return ZSuccess;
        MOV     R1,#0x0
        MOV     R7,#0xa
        LJMP    ?BANKED_LEAVE_XDATA
          CFI EndBlock cfiBlock20
// 1197 }
// 1198 
// 1199 /******************************************************************************
// 1200  * @fn          ZDSecMgrAppKeyReq
// 1201  *
// 1202  * @brief       Process request for APP key between two devices.
// 1203  *
// 1204  * @param       device - [in] ZDO_RequestKeyInd_t, request info
// 1205  *
// 1206  * @return      none
// 1207  */

        RSEG BANKED_CODE:CODE:NOROOT(0)
// 1208 void ZDSecMgrAppKeyReq( ZDO_RequestKeyInd_t* ind )
ZDSecMgrAppKeyReq:
          CFI Block cfiBlock21 Using cfiCommon0
          CFI Function ZDSecMgrAppKeyReq
        CODE
// 1209 {
        FUNCALL ZDSecMgrAppKeyReq, APSME_LookupNwkAddr
        LOCFRAME ISTACK, 0, STACK
        LOCFRAME PSTACK, 0, STACK
        LOCFRAME XSTACK, 49, STACK
        LOCFRAME IOVERLAY, 0, STATIC
        LOCFRAME DOVERLAY, 0, STATIC
        ARGFRAME ISTACK, 0, STACK
        ARGFRAME PSTACK, 0, STACK
        ARGFRAME XSTACK, 49, STACK
        ARGFRAME IOVERLAY, 0, STATIC
        ARGFRAME DOVERLAY, 0, STATIC
        FUNCALL ZDSecMgrAppKeyReq, APSME_LookupExtAddr
        LOCFRAME ISTACK, 0, STACK
        LOCFRAME PSTACK, 0, STACK
        LOCFRAME XSTACK, 49, STACK
        LOCFRAME IOVERLAY, 0, STATIC
        LOCFRAME DOVERLAY, 0, STATIC
        ARGFRAME ISTACK, 0, STACK
        ARGFRAME PSTACK, 0, STACK
        ARGFRAME XSTACK, 49, STACK
        ARGFRAME IOVERLAY, 0, STATIC
        ARGFRAME DOVERLAY, 0, STATIC
        FUNCALL ZDSecMgrAppKeyReq, ZDSecMgrAppKeyGet
        LOCFRAME ISTACK, 0, STACK
        LOCFRAME PSTACK, 0, STACK
        LOCFRAME XSTACK, 57, STACK
        LOCFRAME IOVERLAY, 0, STATIC
        LOCFRAME DOVERLAY, 0, STATIC
        ARGFRAME ISTACK, 0, STACK
        ARGFRAME PSTACK, 0, STACK
        ARGFRAME XSTACK, 57, STACK
        ARGFRAME IOVERLAY, 0, STATIC
        ARGFRAME DOVERLAY, 0, STATIC
        FUNCALL ZDSecMgrAppKeyReq, APSME_TransportKeyReq
        LOCFRAME ISTACK, 0, STACK
        LOCFRAME PSTACK, 0, STACK
        LOCFRAME XSTACK, 49, STACK
        LOCFRAME IOVERLAY, 0, STATIC
        LOCFRAME DOVERLAY, 0, STATIC
        ARGFRAME ISTACK, 0, STACK
        ARGFRAME PSTACK, 0, STACK
        ARGFRAME XSTACK, 49, STACK
        ARGFRAME IOVERLAY, 0, STATIC
        ARGFRAME DOVERLAY, 0, STATIC
        FUNCALL ZDSecMgrAppKeyReq, APSME_TransportKeyReq
        LOCFRAME ISTACK, 0, STACK
        LOCFRAME PSTACK, 0, STACK
        LOCFRAME XSTACK, 49, STACK
        LOCFRAME IOVERLAY, 0, STATIC
        LOCFRAME DOVERLAY, 0, STATIC
        ARGFRAME ISTACK, 0, STACK
        ARGFRAME PSTACK, 0, STACK
        ARGFRAME XSTACK, 49, STACK
        ARGFRAME IOVERLAY, 0, STATIC
        ARGFRAME DOVERLAY, 0, STATIC
        MOV     A,#-0xa
        LCALL   ?BANKED_ENTER_XDATA
          CFI DPH0 load(1, XDATA, add(CFA_XSP16, literal(-1)))
          CFI DPL0 load(1, XDATA, add(CFA_XSP16, literal(-2)))
          CFI ?BRET_EXT load(1, XDATA, add(CFA_XSP16, literal(-3)))
          CFI ?RET_HIGH load(1, XDATA, add(CFA_XSP16, literal(-4)))
          CFI ?RET_LOW load(1, XDATA, add(CFA_XSP16, literal(-5)))
          CFI R7 load(1, XDATA, add(CFA_XSP16, literal(-6)))
          CFI V1 load(1, XDATA, add(CFA_XSP16, literal(-7)))
          CFI V0 load(1, XDATA, add(CFA_XSP16, literal(-8)))
          CFI VB load(1, XDATA, add(CFA_XSP16, literal(-9)))
          CFI R6 load(1, XDATA, add(CFA_XSP16, literal(-10)))
          CFI CFA_SP SP+0
          CFI CFA_XSP16 add(XSP16, 10)
        ; Saved register size: 10
        ; Auto size: 39
        MOV     A,#-0x27
        LCALL   ?ALLOC_XSTACK8
          CFI CFA_XSP16 add(XSP16, 49)
        MOV     A,R2
        MOV     R6,A
        MOV     A,R3
        MOV     R7,A
// 1210   APSME_TransportKeyReq_t req;
// 1211   uint8                   initExtAddr[Z_EXTADDR_LEN];
// 1212   uint16                  partNwkAddr;
// 1213   uint8                   key[SEC_KEY_LEN];
// 1214 
// 1215 
// 1216   // validate initiator and partner
// 1217   if ( ( APSME_LookupNwkAddr( ind->partExtAddr, &partNwkAddr ) == TRUE ) &&
// 1218        ( APSME_LookupExtAddr( ind->srcAddr, initExtAddr ) == TRUE      )   )
        ; Setup parameters for call to function APSME_LookupNwkAddr
        MOV     DPL,?XSP + 0
        MOV     DPH,?XSP + 1
        MOV     R4,DPL
        MOV     R5,DPH
        MOV     A,R6
        ADD     A,#0x5
        MOV     R2,A
        MOV     A,R7
        ADDC    A,#0x0
        MOV     R3,A
        LCALL   ??APSME_LookupNwkAddr?relay
        MOV     A,R1
        XRL     A,#0x1
        JZ      $+5
        LJMP    ??ZDSecMgrAppKeyReq_0 & 0xFFFF
        ; Setup parameters for call to function APSME_LookupExtAddr
        MOV     A,#0xf
        LCALL   ?XSTACK_DISP0_8
        MOV     R4,DPL
        MOV     R5,DPH
        MOV     DPL,R6
        MOV     DPH,R7
        INC     DPTR
        INC     DPTR
        MOVX    A,@DPTR
        MOV     R2,A
        INC     DPTR
        MOVX    A,@DPTR
        MOV     R3,A
        LCALL   ??APSME_LookupExtAddr?relay
        MOV     A,R1
        XRL     A,#0x1
        JZ      $+5
        LJMP    ??ZDSecMgrAppKeyReq_0 & 0xFFFF
// 1219   {
// 1220     // point the key to some memory
// 1221     req.key = key;
        MOV     A,#0x17
        LCALL   ?XSTACK_DISP0_8
        MOV     R0,DPL
        MOV     R1,DPH
        MOV     A,#0x6
        LCALL   ?XSTACK_DISP0_8
        MOV     A,R0
        MOVX    @DPTR,A
        INC     DPTR
        MOV     A,R1
        MOVX    @DPTR,A
// 1222 
// 1223     // get an APP key - option APP (MASTER or LINK) key
// 1224     if ( ZDSecMgrAppKeyGet( ind->srcAddr,
// 1225                             initExtAddr,
// 1226                             partNwkAddr,
// 1227                             ind->partExtAddr,
// 1228                             &req.key,
// 1229                             &req.keyType ) == ZSuccess )
        ; Setup parameters for call to function ZDSecMgrAppKeyGet
        MOV     A,#0x4
        LCALL   ?XSTACK_DISP0_8
        MOV     ?V0 + 0,DPL
        MOV     ?V0 + 1,DPH
        MOV     R0,#?V0 + 0
        LCALL   ?PUSH_XSTACK_I_TWO
          CFI CFA_XSP16 add(XSP16, 51)
        MOV     A,#0x8
        LCALL   ?XSTACK_DISP0_8
        MOV     ?V0 + 0,DPL
        MOV     ?V0 + 1,DPH
        MOV     R0,#?V0 + 0
        LCALL   ?PUSH_XSTACK_I_TWO
          CFI CFA_XSP16 add(XSP16, 53)
        MOV     A,R6
        ADD     A,#0x5
        MOV     ?V0 + 0,A
        MOV     A,R7
        ADDC    A,#0x0
        MOV     ?V0 + 1,A
        MOV     R0,#?V0 + 0
        LCALL   ?PUSH_XSTACK_I_TWO
          CFI CFA_XSP16 add(XSP16, 55)
        MOV     A,#0x6
        LCALL   ?XSTACK_DISP0_8
        LCALL   ?PUSH_XSTACK8_X_TWO
          CFI CFA_XSP16 add(XSP16, 57)
        MOV     A,#0x17
        LCALL   ?XSTACK_DISP0_8
        MOV     R4,DPL
        MOV     R5,DPH
        MOV     DPL,R6
        MOV     DPH,R7
        INC     DPTR
        INC     DPTR
        MOVX    A,@DPTR
        MOV     R2,A
        INC     DPTR
        MOVX    A,@DPTR
        MOV     R3,A
        LCALL   ??ZDSecMgrAppKeyGet?relay
        MOV     A,#0x8
        LCALL   ?DEALLOC_XSTACK8
          CFI CFA_XSP16 add(XSP16, 49)
        MOV     A,R1
        JZ      $+5
        LJMP    ??ZDSecMgrAppKeyReq_0 & 0xFFFF
// 1230     {
// 1231       // always secure
// 1232       req.nwkSecure = TRUE;
        MOV     A,#0xc
        LCALL   ?XSTACK_DISP0_8
        MOV     A,#0x1
        MOVX    @DPTR,A
// 1233       req.apsSecure = TRUE;
        MOV     A,#0xb
        LCALL   ?XSTACK_DISP0_8
        MOV     A,#0x1
        MOVX    @DPTR,A
// 1234       req.tunnel    = NULL;
        MOV     A,#0xd
        LCALL   ?XSTACK_DISP0_8
        MOV     A,#0x0
        MOVX    @DPTR,A
        INC     DPTR
        MOV     A,#0x0
        MOVX    @DPTR,A
// 1235 
// 1236       // send key to initiator device
// 1237       req.dstAddr   = ind->srcAddr;
        MOV     DPL,R6
        MOV     DPH,R7
        INC     DPTR
        INC     DPTR
        MOVX    A,@DPTR
        MOV     R0,A
        INC     DPTR
        MOVX    A,@DPTR
        MOV     R1,A
        MOV     A,#0x2
        LCALL   ?XSTACK_DISP0_8
        MOV     A,R0
        MOVX    @DPTR,A
        INC     DPTR
        MOV     A,R1
        MOVX    @DPTR,A
// 1238       req.extAddr   = ind->partExtAddr;
        MOV     A,R6
        ADD     A,#0x5
        MOV     R0,A
        MOV     A,R7
        ADDC    A,#0x0
        MOV     R1,A
        MOV     A,#0x8
        LCALL   ?XSTACK_DISP0_8
        MOV     A,R0
        MOVX    @DPTR,A
        INC     DPTR
        MOV     A,R1
        MOVX    @DPTR,A
// 1239       req.initiator = TRUE;
        MOV     A,#0xa
        LCALL   ?XSTACK_DISP0_8
        MOV     A,#0x1
        MOVX    @DPTR,A
// 1240       APSME_TransportKeyReq( &req );
        ; Setup parameters for call to function APSME_TransportKeyReq
        MOV     A,#0x2
        LCALL   ?XSTACK_DISP0_8
        MOV     R2,DPL
        MOV     R3,DPH
        LCALL   ??APSME_TransportKeyReq?relay
        MOV     A,R1
// 1241 
// 1242       // send key to partner device
// 1243       req.dstAddr   = partNwkAddr;
        MOV     DPL,?XSP + 0
        MOV     DPH,?XSP + 1
        MOVX    A,@DPTR
        MOV     R0,A
        INC     DPTR
        MOVX    A,@DPTR
        MOV     R1,A
        MOV     A,#0x2
        LCALL   ?XSTACK_DISP0_8
        MOV     A,R0
        MOVX    @DPTR,A
        INC     DPTR
        MOV     A,R1
        MOVX    @DPTR,A
// 1244       req.extAddr   = initExtAddr;
        MOV     A,#0xf
        LCALL   ?XSTACK_DISP0_8
        MOV     R0,DPL
        MOV     R1,DPH
        MOV     A,#0x8
        LCALL   ?XSTACK_DISP0_8
        MOV     A,R0
        MOVX    @DPTR,A
        INC     DPTR
        MOV     A,R1
        MOVX    @DPTR,A
// 1245       req.initiator = FALSE;
        MOV     A,#0xa
        LCALL   ?XSTACK_DISP0_8
        MOV     A,#0x0
        MOVX    @DPTR,A
// 1246 
// 1247       APSME_TransportKeyReq( &req );
        ; Setup parameters for call to function APSME_TransportKeyReq
        MOV     A,#0x2
        LCALL   ?XSTACK_DISP0_8
        MOV     R2,DPL
        MOV     R3,DPH
        LCALL   ??APSME_TransportKeyReq?relay
        MOV     A,R1
// 1248     }
// 1249   }
// 1250 }
??ZDSecMgrAppKeyReq_0:
        MOV     A,#0x27
        LCALL   ?DEALLOC_XSTACK8
          CFI CFA_XSP16 add(XSP16, 10)
        MOV     R7,#0x2
        LJMP    ?BANKED_LEAVE_XDATA
          CFI EndBlock cfiBlock21
// 1251 
// 1252 /******************************************************************************
// 1253  * @fn          ZDSecMgrEstablishKey
// 1254  *
// 1255  * @brief       Start SKKE with device joining network.
// 1256  *
// 1257  * @param       device - [in] ZDSecMgrDevice_t, device info
// 1258  *
// 1259  * @return      ZStatus_t
// 1260  */

        RSEG BANKED_CODE:CODE:NOROOT(0)
// 1261 ZStatus_t ZDSecMgrEstablishKey( ZDSecMgrDevice_t* device )
ZDSecMgrEstablishKey:
          CFI Block cfiBlock22 Using cfiCommon0
          CFI Function ZDSecMgrEstablishKey
        CODE
// 1262 {
        FUNCALL ZDSecMgrEstablishKey, NLME_GetShortAddr
        LOCFRAME ISTACK, 2, STACK
        LOCFRAME PSTACK, 0, STACK
        LOCFRAME XSTACK, 19, STACK
        LOCFRAME IOVERLAY, 0, STATIC
        LOCFRAME DOVERLAY, 0, STATIC
        ARGFRAME ISTACK, 2, STACK
        ARGFRAME PSTACK, 0, STACK
        ARGFRAME XSTACK, 19, STACK
        ARGFRAME IOVERLAY, 0, STATIC
        ARGFRAME DOVERLAY, 0, STATIC
        FUNCALL ZDSecMgrEstablishKey, APSME_EstablishKeyReq
        LOCFRAME ISTACK, 0, STACK
        LOCFRAME PSTACK, 0, STACK
        LOCFRAME XSTACK, 19, STACK
        LOCFRAME IOVERLAY, 0, STATIC
        LOCFRAME DOVERLAY, 0, STATIC
        ARGFRAME ISTACK, 0, STACK
        ARGFRAME PSTACK, 0, STACK
        ARGFRAME XSTACK, 19, STACK
        ARGFRAME IOVERLAY, 0, STATIC
        ARGFRAME DOVERLAY, 0, STATIC
        MOV     A,#-0xc
        LCALL   ?BANKED_ENTER_XDATA
          CFI DPH0 load(1, XDATA, add(CFA_XSP16, literal(-1)))
          CFI DPL0 load(1, XDATA, add(CFA_XSP16, literal(-2)))
          CFI ?BRET_EXT load(1, XDATA, add(CFA_XSP16, literal(-3)))
          CFI ?RET_HIGH load(1, XDATA, add(CFA_XSP16, literal(-4)))
          CFI ?RET_LOW load(1, XDATA, add(CFA_XSP16, literal(-5)))
          CFI R7 load(1, XDATA, add(CFA_XSP16, literal(-6)))
          CFI V3 load(1, XDATA, add(CFA_XSP16, literal(-7)))
          CFI V2 load(1, XDATA, add(CFA_XSP16, literal(-8)))
          CFI V1 load(1, XDATA, add(CFA_XSP16, literal(-9)))
          CFI V0 load(1, XDATA, add(CFA_XSP16, literal(-10)))
          CFI VB load(1, XDATA, add(CFA_XSP16, literal(-11)))
          CFI R6 load(1, XDATA, add(CFA_XSP16, literal(-12)))
          CFI CFA_SP SP+0
          CFI CFA_XSP16 add(XSP16, 12)
        ; Saved register size: 12
        ; Auto size: 7
        MOV     A,#-0x7
        LCALL   ?ALLOC_XSTACK8
          CFI CFA_XSP16 add(XSP16, 19)
        MOV     A,R2
        MOV     R6,A
        MOV     A,R3
        MOV     R7,A
// 1263   ZStatus_t               status;
// 1264   APSME_EstablishKeyReq_t req;
// 1265 
// 1266 
// 1267   req.respExtAddr = device->extAddr;
        MOV     DPL,R6
        MOV     DPH,R7
        INC     DPTR
        INC     DPTR
        MOVX    A,@DPTR
        MOV     R0,A
        INC     DPTR
        MOVX    A,@DPTR
        MOV     R1,A
        MOV     A,#0x2
        LCALL   ?XSTACK_DISP0_8
        MOV     A,R0
        MOVX    @DPTR,A
        INC     DPTR
        MOV     A,R1
        MOVX    @DPTR,A
// 1268   req.method      = APSME_SKKE_METHOD;
        MOV     A,#0x4
        LCALL   ?XSTACK_DISP0_8
        MOV     A,#0x0
        MOVX    @DPTR,A
// 1269 
// 1270   if ( device->parentAddr == NLME_GetShortAddr() )
        MOV     DPL,R6
        MOV     DPH,R7
        INC     DPTR
        INC     DPTR
        INC     DPTR
        INC     DPTR
        PUSH    DPL
          CFI CFA_SP SP+-1
        PUSH    DPH
          CFI CFA_SP SP+-2
        ; Setup parameters for call to function NLME_GetShortAddr
        LCALL   ??NLME_GetShortAddr?relay
        MOV     ?V0 + 2,R2
        MOV     ?V0 + 3,R3
        POP     DPH
          CFI CFA_SP SP+-1
        POP     DPL
          CFI CFA_SP SP+0
        MOVX    A,@DPTR
        XRL     A,?V0 + 2
        JNZ     ??ZDSecMgrEstablishKey_0
        INC     DPTR
        MOVX    A,@DPTR
        XRL     A,?V0 + 3
??ZDSecMgrEstablishKey_0:
        JNZ     ??ZDSecMgrEstablishKey_1
// 1271   {
// 1272     req.dstAddr   = device->nwkAddr;
        MOV     DPL,R6
        MOV     DPH,R7
        MOVX    A,@DPTR
        MOV     R0,A
        INC     DPTR
        MOVX    A,@DPTR
        MOV     R1,A
        MOV     DPL,?XSP + 0
        MOV     DPH,?XSP + 1
        MOV     A,R0
        MOVX    @DPTR,A
        INC     DPTR
        MOV     A,R1
        MOVX    @DPTR,A
// 1273     //devtag.0604.todo - remove obsolete
// 1274     req.apsSecure = FALSE;
        MOV     A,#0x5
        LCALL   ?XSTACK_DISP0_8
        MOV     A,#0x0
        MOVX    @DPTR,A
// 1275     req.nwkSecure = FALSE;
        MOV     A,#0x6
        LCALL   ?XSTACK_DISP0_8
        MOV     A,#0x0
        MOVX    @DPTR,A
        SJMP    ??ZDSecMgrEstablishKey_2
// 1276   }
// 1277   else
// 1278   {
// 1279     req.dstAddr   = device->parentAddr;
??ZDSecMgrEstablishKey_1:
        MOV     DPL,R6
        MOV     DPH,R7
        INC     DPTR
        INC     DPTR
        INC     DPTR
        INC     DPTR
        MOVX    A,@DPTR
        MOV     R0,A
        INC     DPTR
        MOVX    A,@DPTR
        MOV     R1,A
        MOV     DPL,?XSP + 0
        MOV     DPH,?XSP + 1
        MOV     A,R0
        MOVX    @DPTR,A
        INC     DPTR
        MOV     A,R1
        MOVX    @DPTR,A
// 1280     //devtag.0604.todo - remove obsolete
// 1281     req.apsSecure = TRUE;
        MOV     A,#0x5
        LCALL   ?XSTACK_DISP0_8
        MOV     A,#0x1
        MOVX    @DPTR,A
// 1282     req.nwkSecure = TRUE;
        MOV     A,#0x6
        LCALL   ?XSTACK_DISP0_8
        MOV     A,#0x1
        MOVX    @DPTR,A
// 1283   }
// 1284 
// 1285   status = APSME_EstablishKeyReq( &req );
??ZDSecMgrEstablishKey_2:
        ; Setup parameters for call to function APSME_EstablishKeyReq
        MOV     DPL,?XSP + 0
        MOV     DPH,?XSP + 1
        MOV     R2,DPL
        MOV     R3,DPH
        LCALL   ??APSME_EstablishKeyReq?relay
        MOV     A,R1
        MOV     ?V0 + 0,A
// 1286 
// 1287   return status;
        MOV     R1,?V0 + 0
        MOV     A,#0x7
        LCALL   ?DEALLOC_XSTACK8
          CFI CFA_XSP16 add(XSP16, 12)
        MOV     R7,#0x4
        LJMP    ?BANKED_LEAVE_XDATA
          CFI EndBlock cfiBlock22
// 1288 }
// 1289 
// 1290 /******************************************************************************
// 1291  * @fn          ZDSecMgrSendMasterKey
// 1292  *
// 1293  * @brief       Send MASTER key to device joining network.
// 1294  *
// 1295  * @param       device - [in] ZDSecMgrDevice_t, device info
// 1296  *
// 1297  * @return      ZStatus_t
// 1298  */

        RSEG BANKED_CODE:CODE:NOROOT(0)
// 1299 ZStatus_t ZDSecMgrSendMasterKey( ZDSecMgrDevice_t* device )
ZDSecMgrSendMasterKey:
          CFI Block cfiBlock23 Using cfiCommon0
          CFI Function ZDSecMgrSendMasterKey
        CODE
// 1300 {
        FUNCALL ZDSecMgrSendMasterKey, ZDSecMgrMasterKeyLookup
        LOCFRAME ISTACK, 0, STACK
        LOCFRAME PSTACK, 0, STACK
        LOCFRAME XSTACK, 25, STACK
        LOCFRAME IOVERLAY, 0, STATIC
        LOCFRAME DOVERLAY, 0, STATIC
        ARGFRAME ISTACK, 0, STACK
        ARGFRAME PSTACK, 0, STACK
        ARGFRAME XSTACK, 25, STACK
        ARGFRAME IOVERLAY, 0, STATIC
        ARGFRAME DOVERLAY, 0, STATIC
        FUNCALL ZDSecMgrSendMasterKey, NLME_GetShortAddr
        LOCFRAME ISTACK, 2, STACK
        LOCFRAME PSTACK, 0, STACK
        LOCFRAME XSTACK, 25, STACK
        LOCFRAME IOVERLAY, 0, STATIC
        LOCFRAME DOVERLAY, 0, STATIC
        ARGFRAME ISTACK, 2, STACK
        ARGFRAME PSTACK, 0, STACK
        ARGFRAME XSTACK, 25, STACK
        ARGFRAME IOVERLAY, 0, STATIC
        ARGFRAME DOVERLAY, 0, STATIC
        FUNCALL ZDSecMgrSendMasterKey, APSME_TransportKeyReq
        LOCFRAME ISTACK, 0, STACK
        LOCFRAME PSTACK, 0, STACK
        LOCFRAME XSTACK, 25, STACK
        LOCFRAME IOVERLAY, 0, STATIC
        LOCFRAME DOVERLAY, 0, STATIC
        ARGFRAME ISTACK, 0, STACK
        ARGFRAME PSTACK, 0, STACK
        ARGFRAME XSTACK, 25, STACK
        ARGFRAME IOVERLAY, 0, STATIC
        ARGFRAME DOVERLAY, 0, STATIC
        MOV     A,#-0xc
        LCALL   ?BANKED_ENTER_XDATA
          CFI DPH0 load(1, XDATA, add(CFA_XSP16, literal(-1)))
          CFI DPL0 load(1, XDATA, add(CFA_XSP16, literal(-2)))
          CFI ?BRET_EXT load(1, XDATA, add(CFA_XSP16, literal(-3)))
          CFI ?RET_HIGH load(1, XDATA, add(CFA_XSP16, literal(-4)))
          CFI ?RET_LOW load(1, XDATA, add(CFA_XSP16, literal(-5)))
          CFI R7 load(1, XDATA, add(CFA_XSP16, literal(-6)))
          CFI V3 load(1, XDATA, add(CFA_XSP16, literal(-7)))
          CFI V2 load(1, XDATA, add(CFA_XSP16, literal(-8)))
          CFI V1 load(1, XDATA, add(CFA_XSP16, literal(-9)))
          CFI V0 load(1, XDATA, add(CFA_XSP16, literal(-10)))
          CFI VB load(1, XDATA, add(CFA_XSP16, literal(-11)))
          CFI R6 load(1, XDATA, add(CFA_XSP16, literal(-12)))
          CFI CFA_SP SP+0
          CFI CFA_XSP16 add(XSP16, 12)
        ; Saved register size: 12
        ; Auto size: 13
        MOV     A,#-0xd
        LCALL   ?ALLOC_XSTACK8
          CFI CFA_XSP16 add(XSP16, 25)
        MOV     A,R2
        MOV     R6,A
        MOV     A,R3
        MOV     R7,A
// 1301   ZStatus_t               status;
// 1302   APSME_TransportKeyReq_t req;
// 1303 
// 1304 
// 1305   req.keyType = KEY_TYPE_TC_MASTER;
        MOV     A,#0x2
        LCALL   ?XSTACK_DISP0_8
        MOV     A,#0x0
        MOVX    @DPTR,A
// 1306   req.extAddr = device->extAddr;
        MOV     DPL,R6
        MOV     DPH,R7
        INC     DPTR
        INC     DPTR
        MOVX    A,@DPTR
        MOV     R0,A
        INC     DPTR
        MOVX    A,@DPTR
        MOV     R1,A
        MOV     A,#0x6
        LCALL   ?XSTACK_DISP0_8
        MOV     A,R0
        MOVX    @DPTR,A
        INC     DPTR
        MOV     A,R1
        MOVX    @DPTR,A
// 1307   req.tunnel  = NULL;
        MOV     A,#0xb
        LCALL   ?XSTACK_DISP0_8
        MOV     A,#0x0
        MOVX    @DPTR,A
        INC     DPTR
        MOV     A,#0x0
        MOVX    @DPTR,A
// 1308 
// 1309   ZDSecMgrMasterKeyLookup( device->ctrl->entry->ami, &req.key );
        ; Setup parameters for call to function ZDSecMgrMasterKeyLookup
        MOV     A,#0x4
        LCALL   ?XSTACK_DISP0_8
        MOV     R4,DPL
        MOV     R5,DPH
        MOV     DPL,R6
        MOV     DPH,R7
        INC     DPTR
        INC     DPTR
        INC     DPTR
        INC     DPTR
        INC     DPTR
        INC     DPTR
        INC     DPTR
        INC     DPTR
        MOVX    A,@DPTR
        MOV     R0,A
        INC     DPTR
        MOVX    A,@DPTR
        MOV     DPH,A
        MOV     DPL,R0
        MOVX    A,@DPTR
        MOV     R0,A
        INC     DPTR
        MOVX    A,@DPTR
        MOV     DPH,A
        MOV     DPL,R0
        MOVX    A,@DPTR
        MOV     R2,A
        INC     DPTR
        MOVX    A,@DPTR
        MOV     R3,A
        LCALL   ??ZDSecMgrMasterKeyLookup?relay
        MOV     A,R1
// 1310 
// 1311   //check if using secure hop to to parent
// 1312   if ( device->parentAddr != NLME_GetShortAddr() )
        MOV     DPL,R6
        MOV     DPH,R7
        INC     DPTR
        INC     DPTR
        INC     DPTR
        INC     DPTR
        PUSH    DPL
          CFI CFA_SP SP+-1
        PUSH    DPH
          CFI CFA_SP SP+-2
        ; Setup parameters for call to function NLME_GetShortAddr
        LCALL   ??NLME_GetShortAddr?relay
        MOV     ?V0 + 2,R2
        MOV     ?V0 + 3,R3
        POP     DPH
          CFI CFA_SP SP+-1
        POP     DPL
          CFI CFA_SP SP+0
        MOVX    A,@DPTR
        XRL     A,?V0 + 2
        JNZ     ??ZDSecMgrSendMasterKey_0
        INC     DPTR
        MOVX    A,@DPTR
        XRL     A,?V0 + 3
??ZDSecMgrSendMasterKey_0:
        JZ      ??ZDSecMgrSendMasterKey_1
// 1313   {
// 1314     //send to parent with security
// 1315     req.dstAddr   = device->parentAddr;
        MOV     DPL,R6
        MOV     DPH,R7
        INC     DPTR
        INC     DPTR
        INC     DPTR
        INC     DPTR
        MOVX    A,@DPTR
        MOV     R0,A
        INC     DPTR
        MOVX    A,@DPTR
        MOV     R1,A
        MOV     DPL,?XSP + 0
        MOV     DPH,?XSP + 1
        MOV     A,R0
        MOVX    @DPTR,A
        INC     DPTR
        MOV     A,R1
        MOVX    @DPTR,A
// 1316     req.nwkSecure = TRUE;
        MOV     A,#0xa
        LCALL   ?XSTACK_DISP0_8
        MOV     A,#0x1
        MOVX    @DPTR,A
// 1317     req.apsSecure = TRUE;
        MOV     A,#0x9
        LCALL   ?XSTACK_DISP0_8
        MOV     A,#0x1
        MOVX    @DPTR,A
        SJMP    ??ZDSecMgrSendMasterKey_2
// 1318   }
// 1319   else
// 1320   {
// 1321     //direct with no security
// 1322     req.dstAddr   = device->nwkAddr;
??ZDSecMgrSendMasterKey_1:
        MOV     DPL,R6
        MOV     DPH,R7
        MOVX    A,@DPTR
        MOV     R0,A
        INC     DPTR
        MOVX    A,@DPTR
        MOV     R1,A
        MOV     DPL,?XSP + 0
        MOV     DPH,?XSP + 1
        MOV     A,R0
        MOVX    @DPTR,A
        INC     DPTR
        MOV     A,R1
        MOVX    @DPTR,A
// 1323     req.nwkSecure = FALSE;
        MOV     A,#0xa
        LCALL   ?XSTACK_DISP0_8
        MOV     A,#0x0
        MOVX    @DPTR,A
// 1324     req.apsSecure = FALSE;
        MOV     A,#0x9
        LCALL   ?XSTACK_DISP0_8
        MOV     A,#0x0
        MOVX    @DPTR,A
// 1325   }
// 1326 
// 1327   status = APSME_TransportKeyReq( &req );
??ZDSecMgrSendMasterKey_2:
        ; Setup parameters for call to function APSME_TransportKeyReq
        MOV     DPL,?XSP + 0
        MOV     DPH,?XSP + 1
        MOV     R2,DPL
        MOV     R3,DPH
        LCALL   ??APSME_TransportKeyReq?relay
        MOV     A,R1
        MOV     ?V0 + 0,A
// 1328 
// 1329   return status;
        MOV     R1,?V0 + 0
        MOV     A,#0xd
        LCALL   ?DEALLOC_XSTACK8
          CFI CFA_XSP16 add(XSP16, 12)
        MOV     R7,#0x4
        LJMP    ?BANKED_LEAVE_XDATA
          CFI EndBlock cfiBlock23
// 1330 }
// 1331 
// 1332 /******************************************************************************
// 1333  * @fn          ZDSecMgrSendNwkKey
// 1334  *
// 1335  * @brief       Send NWK key to device joining network.
// 1336  *
// 1337  * @param       device - [in] ZDSecMgrDevice_t, device info
// 1338  *
// 1339  * @return      ZStatus_t
// 1340  */

        RSEG BANKED_CODE:CODE:NOROOT(0)
// 1341 ZStatus_t ZDSecMgrSendNwkKey( ZDSecMgrDevice_t* device )
ZDSecMgrSendNwkKey:
          CFI Block cfiBlock24 Using cfiCommon0
          CFI Function ZDSecMgrSendNwkKey
        CODE
// 1342 {
        FUNCALL ZDSecMgrSendNwkKey, NLME_GetShortAddr
        LOCFRAME ISTACK, 2, STACK
        LOCFRAME PSTACK, 0, STACK
        LOCFRAME XSTACK, 25, STACK
        LOCFRAME IOVERLAY, 0, STATIC
        LOCFRAME DOVERLAY, 0, STATIC
        ARGFRAME ISTACK, 2, STACK
        ARGFRAME PSTACK, 0, STACK
        ARGFRAME XSTACK, 25, STACK
        ARGFRAME IOVERLAY, 0, STATIC
        ARGFRAME DOVERLAY, 0, STATIC
        FUNCALL ZDSecMgrSendNwkKey, NLME_GetShortAddr
        LOCFRAME ISTACK, 2, STACK
        LOCFRAME PSTACK, 0, STACK
        LOCFRAME XSTACK, 25, STACK
        LOCFRAME IOVERLAY, 0, STATIC
        LOCFRAME DOVERLAY, 0, STATIC
        ARGFRAME ISTACK, 2, STACK
        ARGFRAME PSTACK, 0, STACK
        ARGFRAME XSTACK, 25, STACK
        ARGFRAME IOVERLAY, 0, STATIC
        ARGFRAME DOVERLAY, 0, STATIC
        FUNCALL ZDSecMgrSendNwkKey, APSME_TransportKeyReq
        LOCFRAME ISTACK, 0, STACK
        LOCFRAME PSTACK, 0, STACK
        LOCFRAME XSTACK, 25, STACK
        LOCFRAME IOVERLAY, 0, STATIC
        LOCFRAME DOVERLAY, 0, STATIC
        ARGFRAME ISTACK, 0, STACK
        ARGFRAME PSTACK, 0, STACK
        ARGFRAME XSTACK, 25, STACK
        ARGFRAME IOVERLAY, 0, STATIC
        ARGFRAME DOVERLAY, 0, STATIC
        MOV     A,#-0xc
        LCALL   ?BANKED_ENTER_XDATA
          CFI DPH0 load(1, XDATA, add(CFA_XSP16, literal(-1)))
          CFI DPL0 load(1, XDATA, add(CFA_XSP16, literal(-2)))
          CFI ?BRET_EXT load(1, XDATA, add(CFA_XSP16, literal(-3)))
          CFI ?RET_HIGH load(1, XDATA, add(CFA_XSP16, literal(-4)))
          CFI ?RET_LOW load(1, XDATA, add(CFA_XSP16, literal(-5)))
          CFI R7 load(1, XDATA, add(CFA_XSP16, literal(-6)))
          CFI V3 load(1, XDATA, add(CFA_XSP16, literal(-7)))
          CFI V2 load(1, XDATA, add(CFA_XSP16, literal(-8)))
          CFI V1 load(1, XDATA, add(CFA_XSP16, literal(-9)))
          CFI V0 load(1, XDATA, add(CFA_XSP16, literal(-10)))
          CFI VB load(1, XDATA, add(CFA_XSP16, literal(-11)))
          CFI R6 load(1, XDATA, add(CFA_XSP16, literal(-12)))
          CFI CFA_SP SP+0
          CFI CFA_XSP16 add(XSP16, 12)
        ; Saved register size: 12
        ; Auto size: 13
        MOV     A,#-0xd
        LCALL   ?ALLOC_XSTACK8
          CFI CFA_XSP16 add(XSP16, 25)
        MOV     A,R2
        MOV     R6,A
        MOV     A,R3
        MOV     R7,A
// 1343   ZStatus_t               status;
// 1344   APSME_TransportKeyReq_t req;
// 1345   APSDE_FrameTunnel_t     tunnel;
// 1346 
// 1347   req.dstAddr   = device->nwkAddr;
        MOV     DPL,R6
        MOV     DPH,R7
        MOVX    A,@DPTR
        MOV     R0,A
        INC     DPTR
        MOVX    A,@DPTR
        MOV     R1,A
        MOV     DPL,?XSP + 0
        MOV     DPH,?XSP + 1
        MOV     A,R0
        MOVX    @DPTR,A
        INC     DPTR
        MOV     A,R1
        MOVX    @DPTR,A
// 1348   req.extAddr   = device->extAddr;
        MOV     DPL,R6
        MOV     DPH,R7
        INC     DPTR
        INC     DPTR
        MOVX    A,@DPTR
        MOV     R0,A
        INC     DPTR
        MOVX    A,@DPTR
        MOV     R1,A
        MOV     A,#0x6
        LCALL   ?XSTACK_DISP0_8
        MOV     A,R0
        MOVX    @DPTR,A
        INC     DPTR
        MOV     A,R1
        MOVX    @DPTR,A
// 1349 
// 1350   if ( ZG_CHECK_SECURITY_MODE == ZG_SECURITY_PRO_HIGH )
// 1351     req.keyType   = KEY_TYPE_NWK_HIGH;
// 1352   else
// 1353     req.keyType   = KEY_TYPE_NWK;
        MOV     A,#0x2
        LCALL   ?XSTACK_DISP0_8
        MOV     A,#0x1
        MOVX    @DPTR,A
// 1354 
// 1355   if ( (ZG_CHECK_SECURITY_MODE == ZG_SECURITY_PRO_HIGH)
// 1356       || (ZG_CHECK_SECURITY_MODE == ZG_SECURITY_SE_STANDARD) )
// 1357   {
// 1358     // set values
// 1359     req.keySeqNum = _NIB.nwkActiveKey.keySeqNum;
// 1360     req.key       = _NIB.nwkActiveKey.key;
// 1361     //devtag.pro.security.todo - make sure that if there is no link key the NWK
// 1362     //key isn't used to secure the frame at the APS layer -- since the receiving
// 1363     //device may not have a NWK key yet
// 1364     req.apsSecure = TRUE;
// 1365 
// 1366     // check if using secure hop to to parent
// 1367     if ( device->parentAddr == NLME_GetShortAddr() )
// 1368     {
// 1369       req.nwkSecure = FALSE;
// 1370       req.tunnel    = NULL;
// 1371     }
// 1372     else
// 1373     {
// 1374       req.nwkSecure   = TRUE;
// 1375       req.tunnel      = &tunnel;
// 1376       req.tunnel->tna = device->parentAddr;
// 1377       req.tunnel->dea = device->extAddr;
// 1378     }
// 1379   }
// 1380   else
// 1381   {
// 1382     // default values
// 1383     //devtag.0604.verify
// 1384     req.nwkSecure = TRUE;
        MOV     A,#0xa
        LCALL   ?XSTACK_DISP0_8
        MOV     A,#0x1
        MOVX    @DPTR,A
// 1385     req.apsSecure = FALSE;
        MOV     A,#0x9
        LCALL   ?XSTACK_DISP0_8
        MOV     A,#0x0
        MOVX    @DPTR,A
// 1386     req.tunnel    = NULL;
        MOV     A,#0xb
        LCALL   ?XSTACK_DISP0_8
        MOV     A,#0x0
        MOVX    @DPTR,A
        INC     DPTR
        MOV     A,#0x0
        MOVX    @DPTR,A
// 1387 
// 1388     if ( device->parentAddr != NLME_GetShortAddr() )
        MOV     DPL,R6
        MOV     DPH,R7
        INC     DPTR
        INC     DPTR
        INC     DPTR
        INC     DPTR
        PUSH    DPL
          CFI CFA_SP SP+-1
        PUSH    DPH
          CFI CFA_SP SP+-2
        ; Setup parameters for call to function NLME_GetShortAddr
        LCALL   ??NLME_GetShortAddr?relay
        MOV     ?V0 + 2,R2
        MOV     ?V0 + 3,R3
        POP     DPH
          CFI CFA_SP SP+-1
        POP     DPL
          CFI CFA_SP SP+0
        MOVX    A,@DPTR
        XRL     A,?V0 + 2
        JNZ     ??ZDSecMgrSendNwkKey_0
        INC     DPTR
        MOVX    A,@DPTR
        XRL     A,?V0 + 3
??ZDSecMgrSendNwkKey_0:
        JZ      ??ZDSecMgrSendNwkKey_1
// 1389     {
// 1390       req.dstAddr = device->parentAddr;
        MOV     DPL,R6
        MOV     DPH,R7
        INC     DPTR
        INC     DPTR
        INC     DPTR
        INC     DPTR
        MOVX    A,@DPTR
        MOV     R0,A
        INC     DPTR
        MOVX    A,@DPTR
        MOV     R1,A
        MOV     DPL,?XSP + 0
        MOV     DPH,?XSP + 1
        MOV     A,R0
        MOVX    @DPTR,A
        INC     DPTR
        MOV     A,R1
        MOVX    @DPTR,A
// 1391     }
// 1392 
// 1393     // special cases
// 1394     //devtag.0604.todo - modify to preconfig flag
// 1395     if ( device->secure == FALSE )
??ZDSecMgrSendNwkKey_1:
        MOV     DPL,R6
        MOV     DPH,R7
        INC     DPTR
        INC     DPTR
        INC     DPTR
        INC     DPTR
        INC     DPTR
        INC     DPTR
        MOVX    A,@DPTR
        JNZ     ??ZDSecMgrSendNwkKey_2
// 1396     {
// 1397       req.keySeqNum = _NIB.nwkActiveKey.keySeqNum;
        MOV     DPTR,#_NIB + 62
        MOVX    A,@DPTR
        PUSH    A
          CFI CFA_SP SP+-1
        MOV     A,#0x3
        LCALL   ?XSTACK_DISP0_8
        POP     A
          CFI CFA_SP SP+0
        MOVX    @DPTR,A
// 1398       req.key       = _NIB.nwkActiveKey.key;
        MOV     A,#0x4
        LCALL   ?XSTACK_DISP0_8
        MOV     A,#(_NIB + 63) & 0xff
        MOVX    @DPTR,A
        INC     DPTR
        MOV     A,#((_NIB + 63) >> 8) & 0xff
        MOVX    @DPTR,A
// 1399 
// 1400       // check if using secure hop to to parent
// 1401       if ( device->parentAddr == NLME_GetShortAddr() )
        MOV     DPL,R6
        MOV     DPH,R7
        INC     DPTR
        INC     DPTR
        INC     DPTR
        INC     DPTR
        PUSH    DPL
          CFI CFA_SP SP+-1
        PUSH    DPH
          CFI CFA_SP SP+-2
        ; Setup parameters for call to function NLME_GetShortAddr
        LCALL   ??NLME_GetShortAddr?relay
        MOV     ?V0 + 2,R2
        MOV     ?V0 + 3,R3
        POP     DPH
          CFI CFA_SP SP+-1
        POP     DPL
          CFI CFA_SP SP+0
        MOVX    A,@DPTR
        XRL     A,?V0 + 2
        JNZ     ??ZDSecMgrSendNwkKey_3
        INC     DPTR
        MOVX    A,@DPTR
        XRL     A,?V0 + 3
??ZDSecMgrSendNwkKey_3:
        JNZ     ??ZDSecMgrSendNwkKey_4
// 1402       {
// 1403         req.nwkSecure = FALSE;
        MOV     A,#0xa
        LCALL   ?XSTACK_DISP0_8
        MOV     A,#0x0
        MOVX    @DPTR,A
        SJMP    ??ZDSecMgrSendNwkKey_4
// 1404       }
// 1405     }
// 1406     else
// 1407     {
// 1408       req.key       = NULL;
??ZDSecMgrSendNwkKey_2:
        MOV     A,#0x4
        LCALL   ?XSTACK_DISP0_8
        MOV     A,#0x0
        MOVX    @DPTR,A
        INC     DPTR
        MOV     A,#0x0
        MOVX    @DPTR,A
// 1409       req.keySeqNum = 0;
        MOV     A,#0x3
        LCALL   ?XSTACK_DISP0_8
        MOV     A,#0x0
        MOVX    @DPTR,A
// 1410     }
// 1411   }
// 1412 
// 1413   status = APSME_TransportKeyReq( &req );
??ZDSecMgrSendNwkKey_4:
        ; Setup parameters for call to function APSME_TransportKeyReq
        MOV     DPL,?XSP + 0
        MOV     DPH,?XSP + 1
        MOV     R2,DPL
        MOV     R3,DPH
        LCALL   ??APSME_TransportKeyReq?relay
        MOV     A,R1
        MOV     ?V0 + 0,A
// 1414 
// 1415   return status;
        MOV     R1,?V0 + 0
        MOV     A,#0xd
        LCALL   ?DEALLOC_XSTACK8
          CFI CFA_XSP16 add(XSP16, 12)
        MOV     R7,#0x4
        LJMP    ?BANKED_LEAVE_XDATA
          CFI EndBlock cfiBlock24
// 1416 }
// 1417 
// 1418 /******************************************************************************
// 1419  * @fn          ZDSecMgrDeviceEntryRemove
// 1420  *
// 1421  * @brief       Remove device entry.
// 1422  *
// 1423  * @param       entry - [in] valid entry
// 1424  *
// 1425  * @return      none
// 1426  */

        RSEG BANKED_CODE:CODE:NOROOT(0)
// 1427 void ZDSecMgrDeviceEntryRemove( ZDSecMgrEntry_t* entry )
ZDSecMgrDeviceEntryRemove:
          CFI Block cfiBlock25 Using cfiCommon0
          CFI Function ZDSecMgrDeviceEntryRemove
        CODE
// 1428 {
        FUNCALL ZDSecMgrDeviceEntryRemove, ZDSecMgrCtrlTerm
        LOCFRAME ISTACK, 0, STACK
        LOCFRAME PSTACK, 0, STACK
        LOCFRAME XSTACK, 9, STACK
        LOCFRAME IOVERLAY, 0, STATIC
        LOCFRAME DOVERLAY, 0, STATIC
        ARGFRAME ISTACK, 0, STACK
        ARGFRAME PSTACK, 0, STACK
        ARGFRAME XSTACK, 9, STACK
        ARGFRAME IOVERLAY, 0, STATIC
        ARGFRAME DOVERLAY, 0, STATIC
        FUNCALL ZDSecMgrDeviceEntryRemove, ZDSecMgrEntryFree
        LOCFRAME ISTACK, 0, STACK
        LOCFRAME PSTACK, 0, STACK
        LOCFRAME XSTACK, 9, STACK
        LOCFRAME IOVERLAY, 0, STATIC
        LOCFRAME DOVERLAY, 0, STATIC
        ARGFRAME ISTACK, 0, STACK
        ARGFRAME PSTACK, 0, STACK
        ARGFRAME XSTACK, 9, STACK
        ARGFRAME IOVERLAY, 0, STATIC
        ARGFRAME DOVERLAY, 0, STATIC
        MOV     A,#-0x9
        LCALL   ?BANKED_ENTER_XDATA
          CFI DPH0 load(1, XDATA, add(CFA_XSP16, literal(-1)))
          CFI DPL0 load(1, XDATA, add(CFA_XSP16, literal(-2)))
          CFI ?BRET_EXT load(1, XDATA, add(CFA_XSP16, literal(-3)))
          CFI ?RET_HIGH load(1, XDATA, add(CFA_XSP16, literal(-4)))
          CFI ?RET_LOW load(1, XDATA, add(CFA_XSP16, literal(-5)))
          CFI R7 load(1, XDATA, add(CFA_XSP16, literal(-6)))
          CFI V0 load(1, XDATA, add(CFA_XSP16, literal(-7)))
          CFI VB load(1, XDATA, add(CFA_XSP16, literal(-8)))
          CFI R6 load(1, XDATA, add(CFA_XSP16, literal(-9)))
          CFI CFA_SP SP+0
          CFI CFA_XSP16 add(XSP16, 9)
        ; Saved register size: 9
        ; Auto size: 0
        MOV     A,R2
        MOV     R6,A
        MOV     A,R3
        MOV     R7,A
// 1429   // terminate device control
// 1430   if ( ( ZG_BUILD_COORDINATOR_TYPE ) && ( ZG_DEVICE_COORDINATOR_TYPE ) )
// 1431   {
// 1432     ZDSecMgrCtrlTerm( entry );
        ; Setup parameters for call to function ZDSecMgrCtrlTerm
        MOV     A,R6
        MOV     R2,A
        MOV     A,R7
        MOV     R3,A
        LCALL   ??ZDSecMgrCtrlTerm?relay
// 1433   }
// 1434 
// 1435   // remove device from entry data
// 1436   ZDSecMgrEntryFree( entry );
        ; Setup parameters for call to function ZDSecMgrEntryFree
        MOV     A,R6
        MOV     R2,A
        MOV     A,R7
        MOV     R3,A
        LCALL   ??ZDSecMgrEntryFree?relay
// 1437 
// 1438   // remove EXT address
// 1439   //ZDSecMgrExtAddrRelease( aiOld );
// 1440 }
        MOV     R7,#0x1
        LJMP    ?BANKED_LEAVE_XDATA
          CFI EndBlock cfiBlock25
// 1441 
// 1442 /******************************************************************************
// 1443  * @fn          ZDSecMgrDeviceRemoveByExtAddr
// 1444  *
// 1445  * @brief       Remove device entry by its ext address.
// 1446  *
// 1447  * @param       pAddr - pointer to the extended address
// 1448  *
// 1449  * @return      ZStatus_t
// 1450  */

        RSEG BANKED_CODE:CODE:NOROOT(0)
// 1451 ZStatus_t ZDSecMgrDeviceRemoveByExtAddr( uint8 *pAddr )
ZDSecMgrDeviceRemoveByExtAddr:
          CFI Block cfiBlock26 Using cfiCommon0
          CFI Function ZDSecMgrDeviceRemoveByExtAddr
        CODE
// 1452 {
        FUNCALL ZDSecMgrDeviceRemoveByExtAddr, ZDSecMgrEntryLookupExt
        LOCFRAME ISTACK, 0, STACK
        LOCFRAME PSTACK, 0, STACK
        LOCFRAME XSTACK, 11, STACK
        LOCFRAME IOVERLAY, 0, STATIC
        LOCFRAME DOVERLAY, 0, STATIC
        ARGFRAME ISTACK, 0, STACK
        ARGFRAME PSTACK, 0, STACK
        ARGFRAME XSTACK, 11, STACK
        ARGFRAME IOVERLAY, 0, STATIC
        ARGFRAME DOVERLAY, 0, STATIC
        FUNCALL ZDSecMgrDeviceRemoveByExtAddr, ZDSecMgrDeviceEntryRemove
        LOCFRAME ISTACK, 0, STACK
        LOCFRAME PSTACK, 0, STACK
        LOCFRAME XSTACK, 11, STACK
        LOCFRAME IOVERLAY, 0, STATIC
        LOCFRAME DOVERLAY, 0, STATIC
        ARGFRAME ISTACK, 0, STACK
        ARGFRAME PSTACK, 0, STACK
        ARGFRAME XSTACK, 11, STACK
        ARGFRAME IOVERLAY, 0, STATIC
        ARGFRAME DOVERLAY, 0, STATIC
        MOV     A,#-0x9
        LCALL   ?BANKED_ENTER_XDATA
          CFI DPH0 load(1, XDATA, add(CFA_XSP16, literal(-1)))
          CFI DPL0 load(1, XDATA, add(CFA_XSP16, literal(-2)))
          CFI ?BRET_EXT load(1, XDATA, add(CFA_XSP16, literal(-3)))
          CFI ?RET_HIGH load(1, XDATA, add(CFA_XSP16, literal(-4)))
          CFI ?RET_LOW load(1, XDATA, add(CFA_XSP16, literal(-5)))
          CFI R7 load(1, XDATA, add(CFA_XSP16, literal(-6)))
          CFI V0 load(1, XDATA, add(CFA_XSP16, literal(-7)))
          CFI VB load(1, XDATA, add(CFA_XSP16, literal(-8)))
          CFI R6 load(1, XDATA, add(CFA_XSP16, literal(-9)))
          CFI CFA_SP SP+0
          CFI CFA_XSP16 add(XSP16, 9)
        ; Saved register size: 9
        ; Auto size: 2
        MOV     A,#-0x2
        LCALL   ?ALLOC_XSTACK8
          CFI CFA_XSP16 add(XSP16, 11)
        MOV     A,R2
        MOV     R6,A
        MOV     A,R3
        MOV     R7,A
// 1453   ZDSecMgrEntry_t *pEntry;
// 1454   uint8           retValue;
// 1455   
// 1456   retValue = (uint8)ZDSecMgrEntryLookupExt( pAddr, &pEntry );
        ; Setup parameters for call to function ZDSecMgrEntryLookupExt
        MOV     DPL,?XSP + 0
        MOV     DPH,?XSP + 1
        MOV     R4,DPL
        MOV     R5,DPH
        MOV     A,R6
        MOV     R2,A
        MOV     A,R7
        MOV     R3,A
        LCALL   ??ZDSecMgrEntryLookupExt?relay
        MOV     A,R1
        MOV     ?V0 + 0,A
// 1457   
// 1458   if( retValue == ZSuccess )
        MOV     A,?V0 + 0
        JNZ     ??ZDSecMgrDeviceRemoveByExtAddr_0
// 1459   {
// 1460     ZDSecMgrDeviceEntryRemove( pEntry );
        ; Setup parameters for call to function ZDSecMgrDeviceEntryRemove
        MOV     DPL,?XSP + 0
        MOV     DPH,?XSP + 1
        MOVX    A,@DPTR
        MOV     R2,A
        INC     DPTR
        MOVX    A,@DPTR
        MOV     R3,A
        LCALL   ??ZDSecMgrDeviceEntryRemove?relay
// 1461   }
// 1462   
// 1463   return retValue;
??ZDSecMgrDeviceRemoveByExtAddr_0:
        MOV     R1,?V0 + 0
        MOV     A,#0x2
        LCALL   ?DEALLOC_XSTACK8
          CFI CFA_XSP16 add(XSP16, 9)
        MOV     R7,#0x1
        LJMP    ?BANKED_LEAVE_XDATA
          CFI EndBlock cfiBlock26
// 1464 }
// 1465 
// 1466 /******************************************************************************
// 1467  * @fn          ZDSecMgrDeviceEntryAdd
// 1468  *
// 1469  * @brief       Add entry.
// 1470  *
// 1471  * @param       device - [in] ZDSecMgrDevice_t, device info
// 1472  * @param       ami    - [in] Address Manager index
// 1473  *
// 1474  * @return      ZStatus_t
// 1475  */

        RSEG BANKED_CODE:CODE:NOROOT(0)
// 1476 void ZDSecMgrAddrMgrUpdate( uint16 ami, uint16 nwkAddr )
ZDSecMgrAddrMgrUpdate:
          CFI Block cfiBlock27 Using cfiCommon0
          CFI Function ZDSecMgrAddrMgrUpdate
        CODE
// 1477 {
        FUNCALL ZDSecMgrAddrMgrUpdate, AddrMgrEntryGet
        LOCFRAME ISTACK, 0, STACK
        LOCFRAME PSTACK, 0, STACK
        LOCFRAME XSTACK, 23, STACK
        LOCFRAME IOVERLAY, 0, STATIC
        LOCFRAME DOVERLAY, 0, STATIC
        ARGFRAME ISTACK, 0, STACK
        ARGFRAME PSTACK, 0, STACK
        ARGFRAME XSTACK, 23, STACK
        ARGFRAME IOVERLAY, 0, STATIC
        ARGFRAME DOVERLAY, 0, STATIC
        FUNCALL ZDSecMgrAddrMgrUpdate, AddrMgrEntryUpdate
        LOCFRAME ISTACK, 0, STACK
        LOCFRAME PSTACK, 0, STACK
        LOCFRAME XSTACK, 23, STACK
        LOCFRAME IOVERLAY, 0, STATIC
        LOCFRAME DOVERLAY, 0, STATIC
        ARGFRAME ISTACK, 0, STACK
        ARGFRAME PSTACK, 0, STACK
        ARGFRAME XSTACK, 23, STACK
        ARGFRAME IOVERLAY, 0, STATIC
        ARGFRAME DOVERLAY, 0, STATIC
        MOV     A,#-0xa
        LCALL   ?BANKED_ENTER_XDATA
          CFI DPH0 load(1, XDATA, add(CFA_XSP16, literal(-1)))
          CFI DPL0 load(1, XDATA, add(CFA_XSP16, literal(-2)))
          CFI ?BRET_EXT load(1, XDATA, add(CFA_XSP16, literal(-3)))
          CFI ?RET_HIGH load(1, XDATA, add(CFA_XSP16, literal(-4)))
          CFI ?RET_LOW load(1, XDATA, add(CFA_XSP16, literal(-5)))
          CFI R7 load(1, XDATA, add(CFA_XSP16, literal(-6)))
          CFI V1 load(1, XDATA, add(CFA_XSP16, literal(-7)))
          CFI V0 load(1, XDATA, add(CFA_XSP16, literal(-8)))
          CFI VB load(1, XDATA, add(CFA_XSP16, literal(-9)))
          CFI R6 load(1, XDATA, add(CFA_XSP16, literal(-10)))
          CFI CFA_SP SP+0
          CFI CFA_XSP16 add(XSP16, 10)
        ; Saved register size: 10
        ; Auto size: 13
        MOV     A,#-0xd
        LCALL   ?ALLOC_XSTACK8
          CFI CFA_XSP16 add(XSP16, 23)
        MOV     ?V0 + 0,R2
        MOV     ?V0 + 1,R3
        MOV     A,R4
        MOV     R6,A
        MOV     A,R5
        MOV     R7,A
// 1478   AddrMgrEntry_t entry;
// 1479 
// 1480   // get the ami data
// 1481   entry.user  = ADDRMGR_USER_SECURITY;
        MOV     DPL,?XSP + 0
        MOV     DPH,?XSP + 1
        MOV     A,#0x2
        MOVX    @DPTR,A
// 1482   entry.index = ami;
        MOV     A,#0xb
        LCALL   ?XSTACK_DISP0_8
        MOV     A,?V0 + 0
        MOVX    @DPTR,A
        INC     DPTR
        MOV     A,?V0 + 1
        MOVX    @DPTR,A
// 1483 
// 1484   AddrMgrEntryGet( &entry );
        ; Setup parameters for call to function AddrMgrEntryGet
        MOV     DPL,?XSP + 0
        MOV     DPH,?XSP + 1
        MOV     R2,DPL
        MOV     R3,DPH
        LCALL   ??AddrMgrEntryGet?relay
        MOV     A,R1
// 1485 
// 1486   // check if NWK address is same
// 1487   if ( entry.nwkAddr != nwkAddr )
        MOV     A,#0x1
        LCALL   ?XSTACK_DISP0_8
        MOVX    A,@DPTR
        XRL     A,R6
        JNZ     ??ZDSecMgrAddrMgrUpdate_0
        INC     DPTR
        MOVX    A,@DPTR
        XRL     A,R7
??ZDSecMgrAddrMgrUpdate_0:
        JZ      ??ZDSecMgrAddrMgrUpdate_1
// 1488   {
// 1489     // update NWK address
// 1490     entry.nwkAddr = nwkAddr;
        MOV     A,#0x1
        LCALL   ?XSTACK_DISP0_8
        MOV     A,R6
        MOVX    @DPTR,A
        INC     DPTR
        MOV     A,R7
        MOVX    @DPTR,A
// 1491 
// 1492     AddrMgrEntryUpdate( &entry );
        ; Setup parameters for call to function AddrMgrEntryUpdate
        MOV     DPL,?XSP + 0
        MOV     DPH,?XSP + 1
        MOV     R2,DPL
        MOV     R3,DPH
        LCALL   ??AddrMgrEntryUpdate?relay
        MOV     A,R1
// 1493   }
// 1494 }
??ZDSecMgrAddrMgrUpdate_1:
        MOV     A,#0xd
        LCALL   ?DEALLOC_XSTACK8
          CFI CFA_XSP16 add(XSP16, 10)
        MOV     R7,#0x2
        LJMP    ?BANKED_LEAVE_XDATA
          CFI EndBlock cfiBlock27
// 1495 

        RSEG BANKED_CODE:CODE:NOROOT(0)
// 1496 ZStatus_t ZDSecMgrDeviceEntryAdd( ZDSecMgrDevice_t* device, uint16 ami )
ZDSecMgrDeviceEntryAdd:
          CFI Block cfiBlock28 Using cfiCommon0
          CFI Function ZDSecMgrDeviceEntryAdd
        CODE
// 1497 {
        FUNCALL ZDSecMgrDeviceEntryAdd, ZDSecMgrEntryLookup
        LOCFRAME ISTACK, 0, STACK
        LOCFRAME PSTACK, 0, STACK
        LOCFRAME XSTACK, 13, STACK
        LOCFRAME IOVERLAY, 0, STATIC
        LOCFRAME DOVERLAY, 0, STATIC
        ARGFRAME ISTACK, 0, STACK
        ARGFRAME PSTACK, 0, STACK
        ARGFRAME XSTACK, 13, STACK
        ARGFRAME IOVERLAY, 0, STATIC
        ARGFRAME DOVERLAY, 0, STATIC
        FUNCALL ZDSecMgrDeviceEntryAdd, ZDSecMgrDeviceEntryRemove
        LOCFRAME ISTACK, 0, STACK
        LOCFRAME PSTACK, 0, STACK
        LOCFRAME XSTACK, 13, STACK
        LOCFRAME IOVERLAY, 0, STATIC
        LOCFRAME DOVERLAY, 0, STATIC
        ARGFRAME ISTACK, 0, STACK
        ARGFRAME PSTACK, 0, STACK
        ARGFRAME XSTACK, 13, STACK
        ARGFRAME IOVERLAY, 0, STATIC
        ARGFRAME DOVERLAY, 0, STATIC
        FUNCALL ZDSecMgrDeviceEntryAdd, ZDSecMgrEntryLookupAMI
        LOCFRAME ISTACK, 0, STACK
        LOCFRAME PSTACK, 0, STACK
        LOCFRAME XSTACK, 13, STACK
        LOCFRAME IOVERLAY, 0, STATIC
        LOCFRAME DOVERLAY, 0, STATIC
        ARGFRAME ISTACK, 0, STACK
        ARGFRAME PSTACK, 0, STACK
        ARGFRAME XSTACK, 13, STACK
        ARGFRAME IOVERLAY, 0, STATIC
        ARGFRAME DOVERLAY, 0, STATIC
        FUNCALL ZDSecMgrDeviceEntryAdd, ZDSecMgrAddrMgrUpdate
        LOCFRAME ISTACK, 0, STACK
        LOCFRAME PSTACK, 0, STACK
        LOCFRAME XSTACK, 13, STACK
        LOCFRAME IOVERLAY, 0, STATIC
        LOCFRAME DOVERLAY, 0, STATIC
        ARGFRAME ISTACK, 0, STACK
        ARGFRAME PSTACK, 0, STACK
        ARGFRAME XSTACK, 13, STACK
        ARGFRAME IOVERLAY, 0, STATIC
        ARGFRAME DOVERLAY, 0, STATIC
        FUNCALL ZDSecMgrDeviceEntryAdd, ZDSecMgrEntryLookupAMI
        LOCFRAME ISTACK, 0, STACK
        LOCFRAME PSTACK, 0, STACK
        LOCFRAME XSTACK, 13, STACK
        LOCFRAME IOVERLAY, 0, STATIC
        LOCFRAME DOVERLAY, 0, STATIC
        ARGFRAME ISTACK, 0, STACK
        ARGFRAME PSTACK, 0, STACK
        ARGFRAME XSTACK, 13, STACK
        ARGFRAME IOVERLAY, 0, STATIC
        ARGFRAME DOVERLAY, 0, STATIC
        FUNCALL ZDSecMgrDeviceEntryAdd, ZDSecMgrAddrMgrUpdate
        LOCFRAME ISTACK, 0, STACK
        LOCFRAME PSTACK, 0, STACK
        LOCFRAME XSTACK, 13, STACK
        LOCFRAME IOVERLAY, 0, STATIC
        LOCFRAME DOVERLAY, 0, STATIC
        ARGFRAME ISTACK, 0, STACK
        ARGFRAME PSTACK, 0, STACK
        ARGFRAME XSTACK, 13, STACK
        ARGFRAME IOVERLAY, 0, STATIC
        ARGFRAME DOVERLAY, 0, STATIC
        FUNCALL ZDSecMgrDeviceEntryAdd, ZDSecMgrEntryNew
        LOCFRAME ISTACK, 0, STACK
        LOCFRAME PSTACK, 0, STACK
        LOCFRAME XSTACK, 13, STACK
        LOCFRAME IOVERLAY, 0, STATIC
        LOCFRAME DOVERLAY, 0, STATIC
        ARGFRAME ISTACK, 0, STACK
        ARGFRAME PSTACK, 0, STACK
        ARGFRAME XSTACK, 13, STACK
        ARGFRAME IOVERLAY, 0, STATIC
        ARGFRAME DOVERLAY, 0, STATIC
        FUNCALL ZDSecMgrDeviceEntryAdd, ZDSecMgrAddrMgrUpdate
        LOCFRAME ISTACK, 0, STACK
        LOCFRAME PSTACK, 0, STACK
        LOCFRAME XSTACK, 13, STACK
        LOCFRAME IOVERLAY, 0, STATIC
        LOCFRAME DOVERLAY, 0, STATIC
        ARGFRAME ISTACK, 0, STACK
        ARGFRAME PSTACK, 0, STACK
        ARGFRAME XSTACK, 13, STACK
        ARGFRAME IOVERLAY, 0, STATIC
        ARGFRAME DOVERLAY, 0, STATIC
        FUNCALL ZDSecMgrDeviceEntryAdd, ZDSecMgrCtrlAdd
        LOCFRAME ISTACK, 0, STACK
        LOCFRAME PSTACK, 0, STACK
        LOCFRAME XSTACK, 13, STACK
        LOCFRAME IOVERLAY, 0, STATIC
        LOCFRAME DOVERLAY, 0, STATIC
        ARGFRAME ISTACK, 0, STACK
        ARGFRAME PSTACK, 0, STACK
        ARGFRAME XSTACK, 13, STACK
        ARGFRAME IOVERLAY, 0, STATIC
        ARGFRAME DOVERLAY, 0, STATIC
        FUNCALL ZDSecMgrDeviceEntryAdd, ZDSecMgrCtrlReset
        LOCFRAME ISTACK, 0, STACK
        LOCFRAME PSTACK, 0, STACK
        LOCFRAME XSTACK, 13, STACK
        LOCFRAME IOVERLAY, 0, STATIC
        LOCFRAME DOVERLAY, 0, STATIC
        ARGFRAME ISTACK, 0, STACK
        ARGFRAME PSTACK, 0, STACK
        ARGFRAME XSTACK, 13, STACK
        ARGFRAME IOVERLAY, 0, STATIC
        ARGFRAME DOVERLAY, 0, STATIC
        MOV     A,#-0xb
        LCALL   ?BANKED_ENTER_XDATA
          CFI DPH0 load(1, XDATA, add(CFA_XSP16, literal(-1)))
          CFI DPL0 load(1, XDATA, add(CFA_XSP16, literal(-2)))
          CFI ?BRET_EXT load(1, XDATA, add(CFA_XSP16, literal(-3)))
          CFI ?RET_HIGH load(1, XDATA, add(CFA_XSP16, literal(-4)))
          CFI ?RET_LOW load(1, XDATA, add(CFA_XSP16, literal(-5)))
          CFI R7 load(1, XDATA, add(CFA_XSP16, literal(-6)))
          CFI V2 load(1, XDATA, add(CFA_XSP16, literal(-7)))
          CFI V1 load(1, XDATA, add(CFA_XSP16, literal(-8)))
          CFI V0 load(1, XDATA, add(CFA_XSP16, literal(-9)))
          CFI VB load(1, XDATA, add(CFA_XSP16, literal(-10)))
          CFI R6 load(1, XDATA, add(CFA_XSP16, literal(-11)))
          CFI CFA_SP SP+0
          CFI CFA_XSP16 add(XSP16, 11)
        ; Saved register size: 11
        ; Auto size: 2
        MOV     A,#-0x2
        LCALL   ?ALLOC_XSTACK8
          CFI CFA_XSP16 add(XSP16, 13)
        MOV     ?V0 + 0,R2
        MOV     ?V0 + 1,R3
        MOV     A,R4
        MOV     R6,A
        MOV     A,R5
        MOV     R7,A
// 1498   ZStatus_t        status;
// 1499   ZDSecMgrEntry_t* entry;
// 1500 
// 1501 
// 1502   // initialize as unknown until completion
// 1503   status = ZNwkUnknownDevice;
        MOV     ?V0 + 2,#-0x38
// 1504 
// 1505   device->ctrl = NULL;
        MOV     DPL,?V0 + 0
        MOV     DPH,?V0 + 1
        INC     DPTR
        INC     DPTR
        INC     DPTR
        INC     DPTR
        INC     DPTR
        INC     DPTR
        INC     DPTR
        INC     DPTR
        MOV     A,#0x0
        MOVX    @DPTR,A
        INC     DPTR
        MOV     A,#0x0
        MOVX    @DPTR,A
// 1506 
// 1507   // make sure not already registered
// 1508   if ( ZDSecMgrEntryLookup( device->nwkAddr, &entry ) == ZSuccess )
        ; Setup parameters for call to function ZDSecMgrEntryLookup
        MOV     DPL,?XSP + 0
        MOV     DPH,?XSP + 1
        MOV     R4,DPL
        MOV     R5,DPH
        MOV     DPL,?V0 + 0
        MOV     DPH,?V0 + 1
        MOVX    A,@DPTR
        MOV     R2,A
        INC     DPTR
        MOVX    A,@DPTR
        MOV     R3,A
        LCALL   ??ZDSecMgrEntryLookup?relay
        MOV     A,R1
        JNZ     ??ZDSecMgrDeviceEntryAdd_0
// 1509   {
// 1510     // verify that address index is same
// 1511     if ( entry->ami != ami )
        MOV     DPL,?XSP + 0
        MOV     DPH,?XSP + 1
        MOVX    A,@DPTR
        MOV     R0,A
        INC     DPTR
        MOVX    A,@DPTR
        MOV     DPH,A
        MOV     DPL,R0
        MOVX    A,@DPTR
        XRL     A,R6
        JNZ     ??ZDSecMgrDeviceEntryAdd_1
        INC     DPTR
        MOVX    A,@DPTR
        XRL     A,R7
??ZDSecMgrDeviceEntryAdd_1:
        JZ      ??ZDSecMgrDeviceEntryAdd_2
// 1512     {
// 1513       // remove conflicting entry
// 1514       ZDSecMgrDeviceEntryRemove( entry );
        ; Setup parameters for call to function ZDSecMgrDeviceEntryRemove
        MOV     DPL,?XSP + 0
        MOV     DPH,?XSP + 1
        MOVX    A,@DPTR
        MOV     R2,A
        INC     DPTR
        MOVX    A,@DPTR
        MOV     R3,A
        LCALL   ??ZDSecMgrDeviceEntryRemove?relay
// 1515 
// 1516       if ( ZDSecMgrEntryLookupAMI( ami, &entry ) == ZSuccess )
        ; Setup parameters for call to function ZDSecMgrEntryLookupAMI
        MOV     DPL,?XSP + 0
        MOV     DPH,?XSP + 1
        MOV     R4,DPL
        MOV     R5,DPH
        MOV     A,R6
        MOV     R2,A
        MOV     A,R7
        MOV     R3,A
        LCALL   ??ZDSecMgrEntryLookupAMI?relay
        MOV     A,R1
        JNZ     ??ZDSecMgrDeviceEntryAdd_2
// 1517       {
// 1518         // update NWK address
// 1519         ZDSecMgrAddrMgrUpdate( ami, device->nwkAddr );
        ; Setup parameters for call to function ZDSecMgrAddrMgrUpdate
        MOV     DPL,?V0 + 0
        MOV     DPH,?V0 + 1
        MOVX    A,@DPTR
        MOV     R4,A
        INC     DPTR
        MOVX    A,@DPTR
        MOV     R5,A
        MOV     A,R6
        MOV     R2,A
        MOV     A,R7
        MOV     R3,A
        LCALL   ??ZDSecMgrAddrMgrUpdate?relay
        SJMP    ??ZDSecMgrDeviceEntryAdd_2
// 1520       }
// 1521     }
// 1522   }
// 1523   else if ( ZDSecMgrEntryLookupAMI( ami, &entry ) == ZSuccess )
??ZDSecMgrDeviceEntryAdd_0:
        ; Setup parameters for call to function ZDSecMgrEntryLookupAMI
        MOV     DPL,?XSP + 0
        MOV     DPH,?XSP + 1
        MOV     R4,DPL
        MOV     R5,DPH
        MOV     A,R6
        MOV     R2,A
        MOV     A,R7
        MOV     R3,A
        LCALL   ??ZDSecMgrEntryLookupAMI?relay
        MOV     A,R1
        JNZ     ??ZDSecMgrDeviceEntryAdd_2
// 1524   {
// 1525     // update NWK address
// 1526     ZDSecMgrAddrMgrUpdate( ami, device->nwkAddr );
        ; Setup parameters for call to function ZDSecMgrAddrMgrUpdate
        MOV     DPL,?V0 + 0
        MOV     DPH,?V0 + 1
        MOVX    A,@DPTR
        MOV     R4,A
        INC     DPTR
        MOVX    A,@DPTR
        MOV     R5,A
        MOV     A,R6
        MOV     R2,A
        MOV     A,R7
        MOV     R3,A
        LCALL   ??ZDSecMgrAddrMgrUpdate?relay
// 1527   }
// 1528 
// 1529   // check if a new entry needs to be created
// 1530   if ( entry == NULL )
??ZDSecMgrDeviceEntryAdd_2:
        MOV     DPL,?XSP + 0
        MOV     DPH,?XSP + 1
        MOVX    A,@DPTR
        MOV     R0,A
        INC     DPTR
        MOVX    A,@DPTR
        MOV     R1,A
        MOV     A,R0
        ORL     A,R1
        JNZ     ??ZDSecMgrDeviceEntryAdd_3
// 1531   {
// 1532     // get new entry
// 1533     if ( ZDSecMgrEntryNew( &entry ) == ZSuccess )
        ; Setup parameters for call to function ZDSecMgrEntryNew
        MOV     DPL,?XSP + 0
        MOV     DPH,?XSP + 1
        MOV     R2,DPL
        MOV     R3,DPH
        LCALL   ??ZDSecMgrEntryNew?relay
        MOV     A,R1
        JNZ     ??ZDSecMgrDeviceEntryAdd_4
// 1534     {
// 1535       // reset entry lkd
// 1536 
// 1537       // finish setting up entry
// 1538       entry->ami = ami;
        MOV     DPL,?XSP + 0
        MOV     DPH,?XSP + 1
        MOVX    A,@DPTR
        MOV     R0,A
        INC     DPTR
        MOVX    A,@DPTR
        MOV     DPH,A
        MOV     DPL,R0
        MOV     A,R6
        MOVX    @DPTR,A
        INC     DPTR
        MOV     A,R7
        MOVX    @DPTR,A
// 1539 
// 1540       // update NWK address
// 1541       ZDSecMgrAddrMgrUpdate( ami, device->nwkAddr );
        ; Setup parameters for call to function ZDSecMgrAddrMgrUpdate
        MOV     DPL,?V0 + 0
        MOV     DPH,?V0 + 1
        MOVX    A,@DPTR
        MOV     R4,A
        INC     DPTR
        MOVX    A,@DPTR
        MOV     R5,A
        MOV     A,R6
        MOV     R2,A
        MOV     A,R7
        MOV     R3,A
        LCALL   ??ZDSecMgrAddrMgrUpdate?relay
// 1542 
// 1543       // enter new device into device control
// 1544       if ( ( ZG_BUILD_COORDINATOR_TYPE ) && ( ZG_DEVICE_COORDINATOR_TYPE ) )
// 1545       {
// 1546         status = ZDSecMgrCtrlAdd( device, entry );
        ; Setup parameters for call to function ZDSecMgrCtrlAdd
        MOV     DPL,?XSP + 0
        MOV     DPH,?XSP + 1
        MOVX    A,@DPTR
        MOV     R4,A
        INC     DPTR
        MOVX    A,@DPTR
        MOV     R5,A
        MOV     R2,?V0 + 0
        MOV     R3,?V0 + 1
        LCALL   ??ZDSecMgrCtrlAdd?relay
        MOV     A,R1
        MOV     ?V0 + 2,A
        SJMP    ??ZDSecMgrDeviceEntryAdd_4
// 1547       }
// 1548       else
// 1549       {
// 1550         status = ZSuccess;
// 1551       }
// 1552     }
// 1553   }
// 1554   else
// 1555   {
// 1556     // reset entry lkd
// 1557 
// 1558     // reset entry in entry control
// 1559     if ( ( ZG_BUILD_COORDINATOR_TYPE ) && ( ZG_DEVICE_COORDINATOR_TYPE ) )
// 1560     {
// 1561       status = ZDSecMgrCtrlReset( device, entry );
??ZDSecMgrDeviceEntryAdd_3:
        ; Setup parameters for call to function ZDSecMgrCtrlReset
        MOV     DPL,?XSP + 0
        MOV     DPH,?XSP + 1
        MOVX    A,@DPTR
        MOV     R4,A
        INC     DPTR
        MOVX    A,@DPTR
        MOV     R5,A
        MOV     R2,?V0 + 0
        MOV     R3,?V0 + 1
        LCALL   ??ZDSecMgrCtrlReset?relay
        MOV     A,R1
        MOV     ?V0 + 2,A
// 1562     }
// 1563     else
// 1564     {
// 1565       status = ZSuccess;
// 1566     }
// 1567   }
// 1568 
// 1569   return status;
??ZDSecMgrDeviceEntryAdd_4:
        MOV     R1,?V0 + 2
        MOV     A,#0x2
        LCALL   ?DEALLOC_XSTACK8
          CFI CFA_XSP16 add(XSP16, 11)
        MOV     R7,#0x3
        LJMP    ?BANKED_LEAVE_XDATA
          CFI EndBlock cfiBlock28
// 1570 }
// 1571 
// 1572 /******************************************************************************
// 1573  * @fn          ZDSecMgrDeviceCtrlHandler
// 1574  *
// 1575  * @brief       Device control handler.
// 1576  *
// 1577  * @param       device - [in] ZDSecMgrDevice_t, device info
// 1578  *
// 1579  * @return      none
// 1580  */

        RSEG BANKED_CODE:CODE:NOROOT(0)
// 1581 void ZDSecMgrDeviceCtrlHandler( ZDSecMgrDevice_t* device )
ZDSecMgrDeviceCtrlHandler:
          CFI Block cfiBlock29 Using cfiCommon0
          CFI Function ZDSecMgrDeviceCtrlHandler
        CODE
// 1582 {
        FUNCALL ZDSecMgrDeviceCtrlHandler, ZDSecMgrSendMasterKey
        LOCFRAME ISTACK, 0, STACK
        LOCFRAME PSTACK, 0, STACK
        LOCFRAME XSTACK, 10, STACK
        LOCFRAME IOVERLAY, 0, STATIC
        LOCFRAME DOVERLAY, 0, STATIC
        ARGFRAME ISTACK, 0, STACK
        ARGFRAME PSTACK, 0, STACK
        ARGFRAME XSTACK, 10, STACK
        ARGFRAME IOVERLAY, 0, STATIC
        ARGFRAME DOVERLAY, 0, STATIC
        FUNCALL ZDSecMgrDeviceCtrlHandler, ZDSecMgrEstablishKey
        LOCFRAME ISTACK, 0, STACK
        LOCFRAME PSTACK, 0, STACK
        LOCFRAME XSTACK, 10, STACK
        LOCFRAME IOVERLAY, 0, STATIC
        LOCFRAME DOVERLAY, 0, STATIC
        ARGFRAME ISTACK, 0, STACK
        ARGFRAME PSTACK, 0, STACK
        ARGFRAME XSTACK, 10, STACK
        ARGFRAME IOVERLAY, 0, STATIC
        ARGFRAME DOVERLAY, 0, STATIC
        FUNCALL ZDSecMgrDeviceCtrlHandler, ZDSecMgrSendNwkKey
        LOCFRAME ISTACK, 0, STACK
        LOCFRAME PSTACK, 0, STACK
        LOCFRAME XSTACK, 10, STACK
        LOCFRAME IOVERLAY, 0, STATIC
        LOCFRAME DOVERLAY, 0, STATIC
        ARGFRAME ISTACK, 0, STACK
        ARGFRAME PSTACK, 0, STACK
        ARGFRAME XSTACK, 10, STACK
        ARGFRAME IOVERLAY, 0, STATIC
        ARGFRAME DOVERLAY, 0, STATIC
        FUNCALL ZDSecMgrDeviceCtrlHandler, osal_start_timerEx
        LOCFRAME ISTACK, 0, STACK
        LOCFRAME PSTACK, 0, STACK
        LOCFRAME XSTACK, 10, STACK
        LOCFRAME IOVERLAY, 0, STATIC
        LOCFRAME DOVERLAY, 0, STATIC
        ARGFRAME ISTACK, 0, STACK
        ARGFRAME PSTACK, 0, STACK
        ARGFRAME XSTACK, 10, STACK
        ARGFRAME IOVERLAY, 0, STATIC
        ARGFRAME DOVERLAY, 0, STATIC
        FUNCALL ZDSecMgrDeviceCtrlHandler, ZDSecMgrCtrlRelease
        LOCFRAME ISTACK, 0, STACK
        LOCFRAME PSTACK, 0, STACK
        LOCFRAME XSTACK, 10, STACK
        LOCFRAME IOVERLAY, 0, STATIC
        LOCFRAME DOVERLAY, 0, STATIC
        ARGFRAME ISTACK, 0, STACK
        ARGFRAME PSTACK, 0, STACK
        ARGFRAME XSTACK, 10, STACK
        ARGFRAME IOVERLAY, 0, STATIC
        ARGFRAME DOVERLAY, 0, STATIC
        MOV     A,#-0xa
        LCALL   ?BANKED_ENTER_XDATA
          CFI DPH0 load(1, XDATA, add(CFA_XSP16, literal(-1)))
          CFI DPL0 load(1, XDATA, add(CFA_XSP16, literal(-2)))
          CFI ?BRET_EXT load(1, XDATA, add(CFA_XSP16, literal(-3)))
          CFI ?RET_HIGH load(1, XDATA, add(CFA_XSP16, literal(-4)))
          CFI ?RET_LOW load(1, XDATA, add(CFA_XSP16, literal(-5)))
          CFI R7 load(1, XDATA, add(CFA_XSP16, literal(-6)))
          CFI V1 load(1, XDATA, add(CFA_XSP16, literal(-7)))
          CFI V0 load(1, XDATA, add(CFA_XSP16, literal(-8)))
          CFI VB load(1, XDATA, add(CFA_XSP16, literal(-9)))
          CFI R6 load(1, XDATA, add(CFA_XSP16, literal(-10)))
          CFI CFA_SP SP+0
          CFI CFA_XSP16 add(XSP16, 10)
        ; Saved register size: 10
        ; Auto size: 0
        MOV     A,R2
        MOV     R6,A
        MOV     A,R3
        MOV     R7,A
// 1583   uint8 state;
// 1584   uint8 cntr;
// 1585 
// 1586 
// 1587   state = device->ctrl->state;
        MOV     DPL,R6
        MOV     DPH,R7
        INC     DPTR
        INC     DPTR
        INC     DPTR
        INC     DPTR
        INC     DPTR
        INC     DPTR
        INC     DPTR
        INC     DPTR
        MOVX    A,@DPTR
        MOV     R0,A
        INC     DPTR
        MOVX    A,@DPTR
        MOV     DPH,A
        MOV     DPL,R0
        INC     DPTR
        INC     DPTR
        INC     DPTR
        INC     DPTR
        INC     DPTR
        MOVX    A,@DPTR
        MOV     ?V0 + 0,A
// 1588   cntr  = ZDSECMGR_CTRL_BASE_CNTR;
        MOV     ?V0 + 1,#0x1
// 1589 
// 1590   switch ( state )
        MOV     A,?V0 + 0
        ADD     A,#-0x2
        JZ      ??ZDSecMgrDeviceCtrlHandler_0
        DEC     A
        JZ      ??ZDSecMgrDeviceCtrlHandler_1
        DEC     A
        JZ      ??ZDSecMgrDeviceCtrlHandler_2
        ADD     A,#-0x3
        JZ      ??ZDSecMgrDeviceCtrlHandler_3
        SJMP    ??ZDSecMgrDeviceCtrlHandler_4
// 1591   {
// 1592     case ZDSECMGR_CTRL_TK_MASTER:
// 1593       if ( ZDSecMgrSendMasterKey( device ) == ZSuccess )
??ZDSecMgrDeviceCtrlHandler_0:
        ; Setup parameters for call to function ZDSecMgrSendMasterKey
        MOV     A,R6
        MOV     R2,A
        MOV     A,R7
        MOV     R3,A
        LCALL   ??ZDSecMgrSendMasterKey?relay
        MOV     A,R1
        JNZ     ??ZDSecMgrDeviceCtrlHandler_2
// 1594       {
// 1595         state = ZDSECMGR_CTRL_SKKE_INIT;
        MOV     ?V0 + 0,#0x3
// 1596         cntr  = ZDSECMGR_CTRL_SKKE_INIT_CNTR;
        MOV     ?V0 + 1,#0x1
// 1597       }
// 1598       break;
        SJMP    ??ZDSecMgrDeviceCtrlHandler_2
// 1599 
// 1600     case ZDSECMGR_CTRL_SKKE_INIT:
// 1601       if ( ZDSecMgrEstablishKey( device ) == ZSuccess )
??ZDSecMgrDeviceCtrlHandler_1:
        ; Setup parameters for call to function ZDSecMgrEstablishKey
        MOV     A,R6
        MOV     R2,A
        MOV     A,R7
        MOV     R3,A
        LCALL   ??ZDSecMgrEstablishKey?relay
        MOV     A,R1
        JNZ     ??ZDSecMgrDeviceCtrlHandler_2
// 1602       {
// 1603         state = ZDSECMGR_CTRL_SKKE_WAIT;
        MOV     ?V0 + 0,#0x4
// 1604       }
// 1605       break;
        SJMP    ??ZDSecMgrDeviceCtrlHandler_2
// 1606 
// 1607     case ZDSECMGR_CTRL_SKKE_WAIT:
// 1608       // continue to wait for SKA control timeout
// 1609       break;
// 1610 
// 1611     case ZDSECMGR_CTRL_TK_NWK:
// 1612       if ( ZDSecMgrSendNwkKey( device ) == ZSuccess )
??ZDSecMgrDeviceCtrlHandler_3:
        ; Setup parameters for call to function ZDSecMgrSendNwkKey
        MOV     A,R6
        MOV     R2,A
        MOV     A,R7
        MOV     R3,A
        LCALL   ??ZDSecMgrSendNwkKey?relay
        MOV     A,R1
        JNZ     ??ZDSecMgrDeviceCtrlHandler_2
// 1613       {
// 1614         state = ZDSECMGR_CTRL_NONE;
        MOV     ?V0 + 0,#0x0
// 1615       }
// 1616       break;
        SJMP    ??ZDSecMgrDeviceCtrlHandler_2
// 1617 
// 1618     default:
// 1619       state = ZDSECMGR_CTRL_NONE;
??ZDSecMgrDeviceCtrlHandler_4:
        MOV     ?V0 + 0,#0x0
// 1620       break;
// 1621   }
// 1622 
// 1623   if ( state != ZDSECMGR_CTRL_NONE )
??ZDSecMgrDeviceCtrlHandler_2:
        MOV     A,?V0 + 0
        JZ      ??ZDSecMgrDeviceCtrlHandler_5
// 1624   {
// 1625     device->ctrl->state = state;
        MOV     A,?V0 + 0
        MOV     DPL,R6
        MOV     DPH,R7
        INC     DPTR
        INC     DPTR
        INC     DPTR
        INC     DPTR
        INC     DPTR
        INC     DPTR
        INC     DPTR
        INC     DPTR
        MOVX    A,@DPTR
        MOV     R0,A
        INC     DPTR
        MOVX    A,@DPTR
        MOV     DPH,A
        MOV     DPL,R0
        INC     DPTR
        INC     DPTR
        INC     DPTR
        INC     DPTR
        INC     DPTR
        MOV     A,?V0 + 0
        MOVX    @DPTR,A
// 1626     device->ctrl->cntr  = cntr;
        MOV     A,?V0 + 1
        MOV     DPL,R6
        MOV     DPH,R7
        INC     DPTR
        INC     DPTR
        INC     DPTR
        INC     DPTR
        INC     DPTR
        INC     DPTR
        INC     DPTR
        INC     DPTR
        MOVX    A,@DPTR
        MOV     R0,A
        INC     DPTR
        MOVX    A,@DPTR
        XCH     A,R0
        ADD     A,#0x6
        MOV     DPL,A
        MOV     A,R0
        ADDC    A,#0x0
        MOV     DPH,A
        MOV     A,?V0 + 1
        MOVX    @DPTR,A
// 1627 
// 1628     osal_start_timerEx(ZDAppTaskID, ZDO_SECMGR_EVENT, 100 );
        ; Setup parameters for call to function osal_start_timerEx
        MOV     R4,#0x64
        MOV     R5,#0x0
        MOV     R2,#0x0
        MOV     R3,#0x1
        MOV     DPTR,#ZDAppTaskID
        MOVX    A,@DPTR
        MOV     R1,A
        LCALL   ??osal_start_timerEx?relay
        MOV     A,R1
        SJMP    ??ZDSecMgrDeviceCtrlHandler_6
// 1629   }
// 1630   else
// 1631   {
// 1632     ZDSecMgrCtrlRelease( device->ctrl );
??ZDSecMgrDeviceCtrlHandler_5:
        ; Setup parameters for call to function ZDSecMgrCtrlRelease
        MOV     DPL,R6
        MOV     DPH,R7
        INC     DPTR
        INC     DPTR
        INC     DPTR
        INC     DPTR
        INC     DPTR
        INC     DPTR
        INC     DPTR
        INC     DPTR
        MOVX    A,@DPTR
        MOV     R2,A
        INC     DPTR
        MOVX    A,@DPTR
        MOV     R3,A
        LCALL   ??ZDSecMgrCtrlRelease?relay
// 1633   }
// 1634 }
??ZDSecMgrDeviceCtrlHandler_6:
        MOV     R7,#0x2
        LJMP    ?BANKED_LEAVE_XDATA
          CFI EndBlock cfiBlock29
// 1635 
// 1636 /******************************************************************************
// 1637  * @fn          ZDSecMgrDeviceCtrlSetup
// 1638  *
// 1639  * @brief       Setup device control.
// 1640  *
// 1641  * @param       device - [in] ZDSecMgrDevice_t, device info
// 1642  *
// 1643  * @return      ZStatus_t
// 1644  */

        RSEG BANKED_CODE:CODE:NOROOT(0)
// 1645 void ZDSecMgrDeviceCtrlSetup( ZDSecMgrDevice_t* device )
ZDSecMgrDeviceCtrlSetup:
          CFI Block cfiBlock30 Using cfiCommon0
          CFI Function ZDSecMgrDeviceCtrlSetup
        CODE
// 1646 {
        FUNCALL ZDSecMgrDeviceCtrlSetup, ZDSecMgrDeviceCtrlHandler
        LOCFRAME ISTACK, 0, STACK
        LOCFRAME PSTACK, 0, STACK
        LOCFRAME XSTACK, 9, STACK
        LOCFRAME IOVERLAY, 0, STATIC
        LOCFRAME DOVERLAY, 0, STATIC
        ARGFRAME ISTACK, 0, STACK
        ARGFRAME PSTACK, 0, STACK
        ARGFRAME XSTACK, 9, STACK
        ARGFRAME IOVERLAY, 0, STATIC
        ARGFRAME DOVERLAY, 0, STATIC
        MOV     A,#-0x9
        LCALL   ?BANKED_ENTER_XDATA
          CFI DPH0 load(1, XDATA, add(CFA_XSP16, literal(-1)))
          CFI DPL0 load(1, XDATA, add(CFA_XSP16, literal(-2)))
          CFI ?BRET_EXT load(1, XDATA, add(CFA_XSP16, literal(-3)))
          CFI ?RET_HIGH load(1, XDATA, add(CFA_XSP16, literal(-4)))
          CFI ?RET_LOW load(1, XDATA, add(CFA_XSP16, literal(-5)))
          CFI R7 load(1, XDATA, add(CFA_XSP16, literal(-6)))
          CFI V0 load(1, XDATA, add(CFA_XSP16, literal(-7)))
          CFI VB load(1, XDATA, add(CFA_XSP16, literal(-8)))
          CFI R6 load(1, XDATA, add(CFA_XSP16, literal(-9)))
          CFI CFA_SP SP+0
          CFI CFA_XSP16 add(XSP16, 9)
        ; Saved register size: 9
        ; Auto size: 0
        MOV     A,R2
        MOV     R6,A
        MOV     A,R3
        MOV     R7,A
// 1647   if ( device->ctrl != NULL )
        MOV     DPL,R6
        MOV     DPH,R7
        INC     DPTR
        INC     DPTR
        INC     DPTR
        INC     DPTR
        INC     DPTR
        INC     DPTR
        INC     DPTR
        INC     DPTR
        MOVX    A,@DPTR
        MOV     R0,A
        INC     DPTR
        MOVX    A,@DPTR
        MOV     R1,A
        MOV     A,R0
        ORL     A,R1
        JZ      ??ZDSecMgrDeviceCtrlSetup_0
// 1648   {
// 1649     if ( device->secure == FALSE )
        MOV     DPL,R6
        MOV     DPH,R7
        INC     DPTR
        INC     DPTR
        INC     DPTR
        INC     DPTR
        INC     DPTR
        INC     DPTR
        MOVX    A,@DPTR
        JNZ     ??ZDSecMgrDeviceCtrlSetup_1
// 1650     {
// 1651       // send the master key data to the joining device
// 1652       device->ctrl->state = ZDSECMGR_CTRL_TK_MASTER;
        MOV     DPL,R6
        MOV     DPH,R7
        INC     DPTR
        INC     DPTR
        INC     DPTR
        INC     DPTR
        INC     DPTR
        INC     DPTR
        INC     DPTR
        INC     DPTR
        MOVX    A,@DPTR
        MOV     R0,A
        INC     DPTR
        MOVX    A,@DPTR
        MOV     DPH,A
        MOV     DPL,R0
        INC     DPTR
        INC     DPTR
        INC     DPTR
        INC     DPTR
        INC     DPTR
        MOV     A,#0x2
        MOVX    @DPTR,A
        SJMP    ??ZDSecMgrDeviceCtrlSetup_2
// 1653     }
// 1654     else
// 1655     {
// 1656       // start SKKE
// 1657       device->ctrl->state = ZDSECMGR_CTRL_SKKE_INIT;
??ZDSecMgrDeviceCtrlSetup_1:
        MOV     DPL,R6
        MOV     DPH,R7
        INC     DPTR
        INC     DPTR
        INC     DPTR
        INC     DPTR
        INC     DPTR
        INC     DPTR
        INC     DPTR
        INC     DPTR
        MOVX    A,@DPTR
        MOV     R0,A
        INC     DPTR
        MOVX    A,@DPTR
        MOV     DPH,A
        MOV     DPL,R0
        INC     DPTR
        INC     DPTR
        INC     DPTR
        INC     DPTR
        INC     DPTR
        MOV     A,#0x3
        MOVX    @DPTR,A
// 1658     }
// 1659 
// 1660     ZDSecMgrDeviceCtrlHandler( device );
??ZDSecMgrDeviceCtrlSetup_2:
        ; Setup parameters for call to function ZDSecMgrDeviceCtrlHandler
        MOV     A,R6
        MOV     R2,A
        MOV     A,R7
        MOV     R3,A
        LCALL   ??ZDSecMgrDeviceCtrlHandler?relay
// 1661   }
// 1662 }
??ZDSecMgrDeviceCtrlSetup_0:
        MOV     R7,#0x1
        LJMP    ?BANKED_LEAVE_XDATA
          CFI EndBlock cfiBlock30
// 1663 
// 1664 /******************************************************************************
// 1665  * @fn          ZDSecMgrDeviceCtrlUpdate
// 1666  *
// 1667  * @brief       Update control data.
// 1668  *
// 1669  * @param       extAddr - [in] EXT address
// 1670  * @param       state   - [in] new control state
// 1671  *
// 1672  * @return      none
// 1673  */

        RSEG BANKED_CODE:CODE:NOROOT(0)
// 1674 void ZDSecMgrDeviceCtrlUpdate( uint8* extAddr, uint8 state )
ZDSecMgrDeviceCtrlUpdate:
          CFI Block cfiBlock31 Using cfiCommon0
          CFI Function ZDSecMgrDeviceCtrlUpdate
        CODE
// 1675 {
        FUNCALL ZDSecMgrDeviceCtrlUpdate, ZDSecMgrEntryLookupExt
        LOCFRAME ISTACK, 0, STACK
        LOCFRAME PSTACK, 0, STACK
        LOCFRAME XSTACK, 13, STACK
        LOCFRAME IOVERLAY, 0, STATIC
        LOCFRAME DOVERLAY, 0, STATIC
        ARGFRAME ISTACK, 0, STACK
        ARGFRAME PSTACK, 0, STACK
        ARGFRAME XSTACK, 13, STACK
        ARGFRAME IOVERLAY, 0, STATIC
        ARGFRAME DOVERLAY, 0, STATIC
        FUNCALL ZDSecMgrDeviceCtrlUpdate, ZDSecMgrCtrlLookup
        LOCFRAME ISTACK, 0, STACK
        LOCFRAME PSTACK, 0, STACK
        LOCFRAME XSTACK, 13, STACK
        LOCFRAME IOVERLAY, 0, STATIC
        LOCFRAME DOVERLAY, 0, STATIC
        ARGFRAME ISTACK, 0, STACK
        ARGFRAME PSTACK, 0, STACK
        ARGFRAME XSTACK, 13, STACK
        ARGFRAME IOVERLAY, 0, STATIC
        ARGFRAME DOVERLAY, 0, STATIC
        MOV     A,#-0x9
        LCALL   ?BANKED_ENTER_XDATA
          CFI DPH0 load(1, XDATA, add(CFA_XSP16, literal(-1)))
          CFI DPL0 load(1, XDATA, add(CFA_XSP16, literal(-2)))
          CFI ?BRET_EXT load(1, XDATA, add(CFA_XSP16, literal(-3)))
          CFI ?RET_HIGH load(1, XDATA, add(CFA_XSP16, literal(-4)))
          CFI ?RET_LOW load(1, XDATA, add(CFA_XSP16, literal(-5)))
          CFI R7 load(1, XDATA, add(CFA_XSP16, literal(-6)))
          CFI V0 load(1, XDATA, add(CFA_XSP16, literal(-7)))
          CFI VB load(1, XDATA, add(CFA_XSP16, literal(-8)))
          CFI R6 load(1, XDATA, add(CFA_XSP16, literal(-9)))
          CFI CFA_SP SP+0
          CFI CFA_XSP16 add(XSP16, 9)
        ; Saved register size: 9
        ; Auto size: 4
        MOV     A,#-0x4
        LCALL   ?ALLOC_XSTACK8
          CFI CFA_XSP16 add(XSP16, 13)
        MOV     A,R2
        MOV     R6,A
        MOV     A,R3
        MOV     R7,A
        MOV     ?V0 + 0,R1
// 1676   ZDSecMgrEntry_t* entry;
// 1677   ZDSecMgrCtrl_t*  ctrl;
// 1678 
// 1679 
// 1680   // lookup device entry data
// 1681   ZDSecMgrEntryLookupExt( extAddr, &entry );
        ; Setup parameters for call to function ZDSecMgrEntryLookupExt
        MOV     A,#0x2
        LCALL   ?XSTACK_DISP0_8
        MOV     R4,DPL
        MOV     R5,DPH
        MOV     A,R6
        MOV     R2,A
        MOV     A,R7
        MOV     R3,A
        LCALL   ??ZDSecMgrEntryLookupExt?relay
        MOV     A,R1
// 1682 
// 1683   if ( entry != NULL )
        MOV     A,#0x2
        LCALL   ?XSTACK_DISP0_8
        MOVX    A,@DPTR
        MOV     R0,A
        INC     DPTR
        MOVX    A,@DPTR
        MOV     R1,A
        MOV     A,R0
        ORL     A,R1
        JNZ     $+5
        LJMP    ??ZDSecMgrDeviceCtrlUpdate_0 & 0xFFFF
// 1684   {
// 1685     // lookup device control data
// 1686     ZDSecMgrCtrlLookup( entry, &ctrl );
        ; Setup parameters for call to function ZDSecMgrCtrlLookup
        MOV     DPL,?XSP + 0
        MOV     DPH,?XSP + 1
        MOV     R4,DPL
        MOV     R5,DPH
        MOV     A,#0x2
        LCALL   ?XSTACK_DISP0_8
        MOVX    A,@DPTR
        MOV     R2,A
        INC     DPTR
        MOVX    A,@DPTR
        MOV     R3,A
        LCALL   ??ZDSecMgrCtrlLookup?relay
// 1687 
// 1688     // make sure control data is valid
// 1689     if ( ctrl != NULL )
        MOV     DPL,?XSP + 0
        MOV     DPH,?XSP + 1
        MOVX    A,@DPTR
        MOV     R0,A
        INC     DPTR
        MOVX    A,@DPTR
        MOV     R1,A
        MOV     A,R0
        ORL     A,R1
        JNZ     $+5
        LJMP    ??ZDSecMgrDeviceCtrlUpdate_0 & 0xFFFF
// 1690     {
// 1691       // possible state transitions
// 1692       if ( ctrl->state == ZDSECMGR_CTRL_SKKE_WAIT )
        MOV     DPL,?XSP + 0
        MOV     DPH,?XSP + 1
        MOVX    A,@DPTR
        MOV     R0,A
        INC     DPTR
        MOVX    A,@DPTR
        MOV     DPH,A
        MOV     DPL,R0
        INC     DPTR
        INC     DPTR
        INC     DPTR
        INC     DPTR
        INC     DPTR
        MOVX    A,@DPTR
        XRL     A,#0x4
        JNZ     ??ZDSecMgrDeviceCtrlUpdate_0
// 1693       {
// 1694         if ( state == ZDSECMGR_CTRL_SKKE_DONE )
        MOV     A,#0x5
        XRL     A,?V0 + 0
        JNZ     ??ZDSecMgrDeviceCtrlUpdate_1
// 1695         {
// 1696           // send the network key
// 1697           ctrl->state = ZDSECMGR_CTRL_TK_NWK;
        MOV     DPL,?XSP + 0
        MOV     DPH,?XSP + 1
        MOVX    A,@DPTR
        MOV     R0,A
        INC     DPTR
        MOVX    A,@DPTR
        MOV     DPH,A
        MOV     DPL,R0
        INC     DPTR
        INC     DPTR
        INC     DPTR
        INC     DPTR
        INC     DPTR
        MOV     A,#0x7
        MOVX    @DPTR,A
// 1698           ctrl->cntr  = ZDSECMGR_CTRL_TK_NWK_CNTR;
        MOV     DPL,?XSP + 0
        MOV     DPH,?XSP + 1
        MOVX    A,@DPTR
        MOV     R0,A
        INC     DPTR
        MOVX    A,@DPTR
        XCH     A,R0
        ADD     A,#0x6
        MOV     DPL,A
        MOV     A,R0
        ADDC    A,#0x0
        MOV     DPH,A
        MOV     A,#0x1
        MOVX    @DPTR,A
        SJMP    ??ZDSecMgrDeviceCtrlUpdate_0
// 1699         }
// 1700         else if ( state == ZDSECMGR_CTRL_SKKE_FAIL )
??ZDSecMgrDeviceCtrlUpdate_1:
        MOV     A,#0x6
        XRL     A,?V0 + 0
        JNZ     ??ZDSecMgrDeviceCtrlUpdate_0
// 1701         {
// 1702           // force default timeout in order to cleanup control logic
// 1703           ctrl->state = ZDSECMGR_CTRL_SKKE_FAIL;
        MOV     DPL,?XSP + 0
        MOV     DPH,?XSP + 1
        MOVX    A,@DPTR
        MOV     R0,A
        INC     DPTR
        MOVX    A,@DPTR
        MOV     DPH,A
        MOV     DPL,R0
        INC     DPTR
        INC     DPTR
        INC     DPTR
        INC     DPTR
        INC     DPTR
        MOV     A,#0x6
        MOVX    @DPTR,A
// 1704           ctrl->cntr  = ZDSECMGR_CTRL_BASE_CNTR;
        MOV     DPL,?XSP + 0
        MOV     DPH,?XSP + 1
        MOVX    A,@DPTR
        MOV     R0,A
        INC     DPTR
        MOVX    A,@DPTR
        XCH     A,R0
        ADD     A,#0x6
        MOV     DPL,A
        MOV     A,R0
        ADDC    A,#0x0
        MOV     DPH,A
        MOV     A,#0x1
        MOVX    @DPTR,A
// 1705         }
// 1706       }
// 1707       // timer should be active
// 1708     }
// 1709   }
// 1710 }
??ZDSecMgrDeviceCtrlUpdate_0:
        MOV     A,#0x4
        LCALL   ?DEALLOC_XSTACK8
          CFI CFA_XSP16 add(XSP16, 9)
        MOV     R7,#0x1
        LJMP    ?BANKED_LEAVE_XDATA
          CFI EndBlock cfiBlock31
// 1711 
// 1712 void APSME_SKA_TimerExpired( uint8 initiator, uint8* partExtAddr );

        RSEG BANKED_CODE:CODE:NOROOT(0)
// 1713 void APSME_SKA_TimerExpired( uint8 initiator, uint8* partExtAddr )
APSME_SKA_TimerExpired:
          CFI Block cfiBlock32 Using cfiCommon0
          CFI Function APSME_SKA_TimerExpired
        CODE
// 1714 {
        FUNCALL APSME_SKA_TimerExpired, ZDSecMgrDeviceCtrlUpdate
        LOCFRAME ISTACK, 0, STACK
        LOCFRAME PSTACK, 0, STACK
        LOCFRAME XSTACK, 9, STACK
        LOCFRAME IOVERLAY, 0, STATIC
        LOCFRAME DOVERLAY, 0, STATIC
        ARGFRAME ISTACK, 0, STACK
        ARGFRAME PSTACK, 0, STACK
        ARGFRAME XSTACK, 9, STACK
        ARGFRAME IOVERLAY, 0, STATIC
        ARGFRAME DOVERLAY, 0, STATIC
        MOV     A,#-0x9
        LCALL   ?BANKED_ENTER_XDATA
          CFI DPH0 load(1, XDATA, add(CFA_XSP16, literal(-1)))
          CFI DPL0 load(1, XDATA, add(CFA_XSP16, literal(-2)))
          CFI ?BRET_EXT load(1, XDATA, add(CFA_XSP16, literal(-3)))
          CFI ?RET_HIGH load(1, XDATA, add(CFA_XSP16, literal(-4)))
          CFI ?RET_LOW load(1, XDATA, add(CFA_XSP16, literal(-5)))
          CFI R7 load(1, XDATA, add(CFA_XSP16, literal(-6)))
          CFI V0 load(1, XDATA, add(CFA_XSP16, literal(-7)))
          CFI VB load(1, XDATA, add(CFA_XSP16, literal(-8)))
          CFI R6 load(1, XDATA, add(CFA_XSP16, literal(-9)))
          CFI CFA_SP SP+0
          CFI CFA_XSP16 add(XSP16, 9)
        ; Saved register size: 9
        ; Auto size: 0
        MOV     ?V0 + 0,R1
        MOV     A,R2
        MOV     R6,A
        MOV     A,R3
        MOV     R7,A
// 1715   if ( ( ZG_BUILD_COORDINATOR_TYPE ) && ( ZG_DEVICE_COORDINATOR_TYPE ) )
// 1716   {
// 1717     if ( initiator == TRUE )
        MOV     A,#0x1
        XRL     A,?V0 + 0
        JNZ     ??APSME_SKA_TimerExpired_0
// 1718     {
// 1719       ZDSecMgrDeviceCtrlUpdate( partExtAddr, ZDSECMGR_CTRL_SKKE_FAIL );
        ; Setup parameters for call to function ZDSecMgrDeviceCtrlUpdate
        MOV     R1,#0x6
        MOV     A,R6
        MOV     R2,A
        MOV     A,R7
        MOV     R3,A
        LCALL   ??ZDSecMgrDeviceCtrlUpdate?relay
// 1720     }
// 1721   }
// 1722 }
??APSME_SKA_TimerExpired_0:
        MOV     R7,#0x1
        LJMP    ?BANKED_LEAVE_XDATA
          CFI EndBlock cfiBlock32
// 1723 
// 1724 /******************************************************************************
// 1725  * @fn          ZDSecMgrDeviceRemove
// 1726  *
// 1727  * @brief       Remove device from network.
// 1728  *
// 1729  * @param       device - [in] ZDSecMgrDevice_t, device info
// 1730  *
// 1731  * @return      none
// 1732  */

        RSEG BANKED_CODE:CODE:NOROOT(0)
// 1733 void ZDSecMgrDeviceRemove( ZDSecMgrDevice_t* device )
ZDSecMgrDeviceRemove:
          CFI Block cfiBlock33 Using cfiCommon0
          CFI Function ZDSecMgrDeviceRemove
        CODE
// 1734 {
        FUNCALL ZDSecMgrDeviceRemove, NLME_GetShortAddr
        LOCFRAME ISTACK, 2, STACK
        LOCFRAME PSTACK, 0, STACK
        LOCFRAME XSTACK, 21, STACK
        LOCFRAME IOVERLAY, 0, STATIC
        LOCFRAME DOVERLAY, 0, STATIC
        ARGFRAME ISTACK, 2, STACK
        ARGFRAME PSTACK, 0, STACK
        ARGFRAME XSTACK, 21, STACK
        ARGFRAME IOVERLAY, 0, STATIC
        ARGFRAME DOVERLAY, 0, STATIC
        FUNCALL ZDSecMgrDeviceRemove, AssocGetWithExt
        LOCFRAME ISTACK, 0, STACK
        LOCFRAME PSTACK, 0, STACK
        LOCFRAME XSTACK, 21, STACK
        LOCFRAME IOVERLAY, 0, STATIC
        LOCFRAME DOVERLAY, 0, STATIC
        ARGFRAME ISTACK, 0, STACK
        ARGFRAME PSTACK, 0, STACK
        ARGFRAME XSTACK, 21, STACK
        ARGFRAME IOVERLAY, 0, STATIC
        ARGFRAME DOVERLAY, 0, STATIC
        FUNCALL ZDSecMgrDeviceRemove, NLME_LeaveReq
        LOCFRAME ISTACK, 0, STACK
        LOCFRAME PSTACK, 0, STACK
        LOCFRAME XSTACK, 21, STACK
        LOCFRAME IOVERLAY, 0, STATIC
        LOCFRAME DOVERLAY, 0, STATIC
        ARGFRAME ISTACK, 0, STACK
        ARGFRAME PSTACK, 0, STACK
        ARGFRAME XSTACK, 21, STACK
        ARGFRAME IOVERLAY, 0, STATIC
        ARGFRAME DOVERLAY, 0, STATIC
        FUNCALL ZDSecMgrDeviceRemove, APSME_RemoveDeviceReq
        LOCFRAME ISTACK, 0, STACK
        LOCFRAME PSTACK, 0, STACK
        LOCFRAME XSTACK, 21, STACK
        LOCFRAME IOVERLAY, 0, STATIC
        LOCFRAME DOVERLAY, 0, STATIC
        ARGFRAME ISTACK, 0, STACK
        ARGFRAME PSTACK, 0, STACK
        ARGFRAME XSTACK, 21, STACK
        ARGFRAME IOVERLAY, 0, STATIC
        ARGFRAME DOVERLAY, 0, STATIC
        MOV     A,#-0xc
        LCALL   ?BANKED_ENTER_XDATA
          CFI DPH0 load(1, XDATA, add(CFA_XSP16, literal(-1)))
          CFI DPL0 load(1, XDATA, add(CFA_XSP16, literal(-2)))
          CFI ?BRET_EXT load(1, XDATA, add(CFA_XSP16, literal(-3)))
          CFI ?RET_HIGH load(1, XDATA, add(CFA_XSP16, literal(-4)))
          CFI ?RET_LOW load(1, XDATA, add(CFA_XSP16, literal(-5)))
          CFI R7 load(1, XDATA, add(CFA_XSP16, literal(-6)))
          CFI V3 load(1, XDATA, add(CFA_XSP16, literal(-7)))
          CFI V2 load(1, XDATA, add(CFA_XSP16, literal(-8)))
          CFI V1 load(1, XDATA, add(CFA_XSP16, literal(-9)))
          CFI V0 load(1, XDATA, add(CFA_XSP16, literal(-10)))
          CFI VB load(1, XDATA, add(CFA_XSP16, literal(-11)))
          CFI R6 load(1, XDATA, add(CFA_XSP16, literal(-12)))
          CFI CFA_SP SP+0
          CFI CFA_XSP16 add(XSP16, 12)
        ; Saved register size: 12
        ; Auto size: 9
        MOV     A,#-0x9
        LCALL   ?ALLOC_XSTACK8
          CFI CFA_XSP16 add(XSP16, 21)
        MOV     A,R2
        MOV     R6,A
        MOV     A,R3
        MOV     R7,A
// 1735   APSME_RemoveDeviceReq_t remDevReq;
// 1736   NLME_LeaveReq_t         leaveReq;
// 1737   associated_devices_t*   assoc;
// 1738 
// 1739 
// 1740   // check if parent, remove the device
// 1741   if ( device->parentAddr == NLME_GetShortAddr() )
        MOV     DPL,R6
        MOV     DPH,R7
        INC     DPTR
        INC     DPTR
        INC     DPTR
        INC     DPTR
        PUSH    DPL
          CFI CFA_SP SP+-1
        PUSH    DPH
          CFI CFA_SP SP+-2
        ; Setup parameters for call to function NLME_GetShortAddr
        LCALL   ??NLME_GetShortAddr?relay
        MOV     ?V0 + 2,R2
        MOV     ?V0 + 3,R3
        POP     DPH
          CFI CFA_SP SP+-1
        POP     DPL
          CFI CFA_SP SP+0
        MOVX    A,@DPTR
        XRL     A,?V0 + 2
        JNZ     ??ZDSecMgrDeviceRemove_0
        INC     DPTR
        MOVX    A,@DPTR
        XRL     A,?V0 + 3
??ZDSecMgrDeviceRemove_0:
        JZ      $+5
        LJMP    ??ZDSecMgrDeviceRemove_1 & 0xFFFF
// 1742   {
// 1743     // this is the parent of the device
// 1744     leaveReq.extAddr        = device->extAddr;
        MOV     DPL,R6
        MOV     DPH,R7
        INC     DPTR
        INC     DPTR
        MOVX    A,@DPTR
        MOV     R0,A
        INC     DPTR
        MOVX    A,@DPTR
        MOV     R1,A
        MOV     DPL,?XSP + 0
        MOV     DPH,?XSP + 1
        MOV     A,R0
        MOVX    @DPTR,A
        INC     DPTR
        MOV     A,R1
        MOVX    @DPTR,A
// 1745     leaveReq.removeChildren = FALSE;
        MOV     A,#0x2
        LCALL   ?XSTACK_DISP0_8
        MOV     A,#0x0
        MOVX    @DPTR,A
// 1746     leaveReq.rejoin         = FALSE;
        MOV     A,#0x3
        LCALL   ?XSTACK_DISP0_8
        MOV     A,#0x0
        MOVX    @DPTR,A
// 1747 
// 1748     // find child association
// 1749     assoc = AssocGetWithExt( device->extAddr );
        ; Setup parameters for call to function AssocGetWithExt
        MOV     DPL,R6
        MOV     DPH,R7
        INC     DPTR
        INC     DPTR
        MOVX    A,@DPTR
        MOV     R2,A
        INC     DPTR
        MOVX    A,@DPTR
        MOV     R3,A
        LCALL   ??AssocGetWithExt?relay
        MOV     ?V0 + 2,R2
        MOV     ?V0 + 3,R3
        MOV     ?V0 + 0,?V0 + 2
        MOV     ?V0 + 1,?V0 + 3
// 1750 
// 1751     if ( ( assoc != NULL                            ) &&
// 1752          ( assoc->nodeRelation >= CHILD_RFD         ) &&
// 1753          ( assoc->nodeRelation <= CHILD_FFD_RX_IDLE )    )
        MOV     A,?V0 + 0
        ORL     A,?V0 + 1
        JNZ     $+5
        LJMP    ??ZDSecMgrDeviceRemove_2 & 0xFFFF
        MOV     DPL,?V0 + 0
        MOV     DPH,?V0 + 1
        INC     DPTR
        INC     DPTR
        INC     DPTR
        INC     DPTR
        MOVX    A,@DPTR
        CLR     C
        SUBB    A,#0x1
        JC      ??ZDSecMgrDeviceRemove_2
        MOV     DPL,?V0 + 0
        MOV     DPH,?V0 + 1
        INC     DPTR
        INC     DPTR
        INC     DPTR
        INC     DPTR
        MOVX    A,@DPTR
        CLR     C
        SUBB    A,#0x5
        JNC     ??ZDSecMgrDeviceRemove_2
// 1754     {
// 1755       // check if associated device is authenticated
// 1756       if ( assoc->devStatus & DEV_SEC_AUTH_STATUS )
        MOV     DPL,?V0 + 0
        MOV     DPH,?V0 + 1
        INC     DPTR
        INC     DPTR
        INC     DPTR
        INC     DPTR
        INC     DPTR
        MOVX    A,@DPTR
        MOV     C,0xE0 /* A   */.3
        JNC     ??ZDSecMgrDeviceRemove_3
// 1757       {
// 1758         leaveReq.silent = FALSE;
        MOV     A,#0x4
        LCALL   ?XSTACK_DISP0_8
        MOV     A,#0x0
        MOVX    @DPTR,A
        SJMP    ??ZDSecMgrDeviceRemove_4
// 1759       }
// 1760       else
// 1761       {
// 1762         leaveReq.silent = TRUE;
??ZDSecMgrDeviceRemove_3:
        MOV     A,#0x4
        LCALL   ?XSTACK_DISP0_8
        MOV     A,#0x1
        MOVX    @DPTR,A
// 1763       }
// 1764 
// 1765       NLME_LeaveReq( &leaveReq );
??ZDSecMgrDeviceRemove_4:
        ; Setup parameters for call to function NLME_LeaveReq
        MOV     DPL,?XSP + 0
        MOV     DPH,?XSP + 1
        MOV     R2,DPL
        MOV     R3,DPH
        LCALL   ??NLME_LeaveReq?relay
        MOV     A,R1
        SJMP    ??ZDSecMgrDeviceRemove_2
// 1766     }
// 1767   }
// 1768   else
// 1769   {
// 1770     // this is not the parent of the device
// 1771     remDevReq.parentAddr   = device->parentAddr;
??ZDSecMgrDeviceRemove_1:
        MOV     DPL,R6
        MOV     DPH,R7
        INC     DPTR
        INC     DPTR
        INC     DPTR
        INC     DPTR
        MOVX    A,@DPTR
        MOV     R0,A
        INC     DPTR
        MOVX    A,@DPTR
        MOV     R1,A
        MOV     A,#0x5
        LCALL   ?XSTACK_DISP0_8
        MOV     A,R0
        MOVX    @DPTR,A
        INC     DPTR
        MOV     A,R1
        MOVX    @DPTR,A
// 1772     remDevReq.childExtAddr = device->extAddr;
        MOV     DPL,R6
        MOV     DPH,R7
        INC     DPTR
        INC     DPTR
        MOVX    A,@DPTR
        MOV     R0,A
        INC     DPTR
        MOVX    A,@DPTR
        MOV     R1,A
        MOV     A,#0x7
        LCALL   ?XSTACK_DISP0_8
        MOV     A,R0
        MOVX    @DPTR,A
        INC     DPTR
        MOV     A,R1
        MOVX    @DPTR,A
// 1773 
// 1774     APSME_RemoveDeviceReq( &remDevReq );
        ; Setup parameters for call to function APSME_RemoveDeviceReq
        MOV     A,#0x5
        LCALL   ?XSTACK_DISP0_8
        MOV     R2,DPL
        MOV     R3,DPH
        LCALL   ??APSME_RemoveDeviceReq?relay
        MOV     A,R1
// 1775   }
// 1776 }
??ZDSecMgrDeviceRemove_2:
        MOV     A,#0x9
        LCALL   ?DEALLOC_XSTACK8
          CFI CFA_XSP16 add(XSP16, 12)
        MOV     R7,#0x4
        LJMP    ?BANKED_LEAVE_XDATA
          CFI EndBlock cfiBlock33
// 1777 
// 1778 /******************************************************************************
// 1779  * @fn          ZDSecMgrDeviceValidateSKKE
// 1780  *
// 1781  * @brief       Decide whether device is allowed for SKKE.
// 1782  *
// 1783  * @param       device - [in] ZDSecMgrDevice_t, device info
// 1784  *
// 1785  * @return      ZStatus_t
// 1786  */

        RSEG BANKED_CODE:CODE:NOROOT(0)
// 1787 ZStatus_t ZDSecMgrDeviceValidateSKKE( ZDSecMgrDevice_t* device )
ZDSecMgrDeviceValidateSKKE:
          CFI Block cfiBlock34 Using cfiCommon0
          CFI Function ZDSecMgrDeviceValidateSKKE
        CODE
// 1788 {
        FUNCALL ZDSecMgrDeviceValidateSKKE, ZDSecMgrExtAddrLookup
        LOCFRAME ISTACK, 0, STACK
        LOCFRAME PSTACK, 0, STACK
        LOCFRAME XSTACK, 13, STACK
        LOCFRAME IOVERLAY, 0, STATIC
        LOCFRAME DOVERLAY, 0, STATIC
        ARGFRAME ISTACK, 0, STACK
        ARGFRAME PSTACK, 0, STACK
        ARGFRAME XSTACK, 13, STACK
        ARGFRAME IOVERLAY, 0, STATIC
        ARGFRAME DOVERLAY, 0, STATIC
        FUNCALL ZDSecMgrDeviceValidateSKKE, ZDSecMgrMasterKeyLookup
        LOCFRAME ISTACK, 0, STACK
        LOCFRAME PSTACK, 0, STACK
        LOCFRAME XSTACK, 13, STACK
        LOCFRAME IOVERLAY, 0, STATIC
        LOCFRAME DOVERLAY, 0, STATIC
        ARGFRAME ISTACK, 0, STACK
        ARGFRAME PSTACK, 0, STACK
        ARGFRAME XSTACK, 13, STACK
        ARGFRAME IOVERLAY, 0, STATIC
        ARGFRAME DOVERLAY, 0, STATIC
        FUNCALL ZDSecMgrDeviceValidateSKKE, ZDSecMgrDeviceEntryAdd
        LOCFRAME ISTACK, 0, STACK
        LOCFRAME PSTACK, 0, STACK
        LOCFRAME XSTACK, 13, STACK
        LOCFRAME IOVERLAY, 0, STATIC
        LOCFRAME DOVERLAY, 0, STATIC
        ARGFRAME ISTACK, 0, STACK
        ARGFRAME PSTACK, 0, STACK
        ARGFRAME XSTACK, 13, STACK
        ARGFRAME IOVERLAY, 0, STATIC
        ARGFRAME DOVERLAY, 0, STATIC
        MOV     A,#-0x9
        LCALL   ?BANKED_ENTER_XDATA
          CFI DPH0 load(1, XDATA, add(CFA_XSP16, literal(-1)))
          CFI DPL0 load(1, XDATA, add(CFA_XSP16, literal(-2)))
          CFI ?BRET_EXT load(1, XDATA, add(CFA_XSP16, literal(-3)))
          CFI ?RET_HIGH load(1, XDATA, add(CFA_XSP16, literal(-4)))
          CFI ?RET_LOW load(1, XDATA, add(CFA_XSP16, literal(-5)))
          CFI R7 load(1, XDATA, add(CFA_XSP16, literal(-6)))
          CFI V0 load(1, XDATA, add(CFA_XSP16, literal(-7)))
          CFI VB load(1, XDATA, add(CFA_XSP16, literal(-8)))
          CFI R6 load(1, XDATA, add(CFA_XSP16, literal(-9)))
          CFI CFA_SP SP+0
          CFI CFA_XSP16 add(XSP16, 9)
        ; Saved register size: 9
        ; Auto size: 4
        MOV     A,#-0x4
        LCALL   ?ALLOC_XSTACK8
          CFI CFA_XSP16 add(XSP16, 13)
        MOV     A,R2
        MOV     R6,A
        MOV     A,R3
        MOV     R7,A
// 1789   ZStatus_t status;
// 1790   uint16    ami;
// 1791   uint8*    key;
// 1792 
// 1793 
// 1794   // get EXT address
// 1795   status = ZDSecMgrExtAddrLookup( device->extAddr, &ami );
        ; Setup parameters for call to function ZDSecMgrExtAddrLookup
        MOV     DPL,?XSP + 0
        MOV     DPH,?XSP + 1
        MOV     R4,DPL
        MOV     R5,DPH
        MOV     DPL,R6
        MOV     DPH,R7
        INC     DPTR
        INC     DPTR
        MOVX    A,@DPTR
        MOV     R2,A
        INC     DPTR
        MOVX    A,@DPTR
        MOV     R3,A
        LCALL   ??ZDSecMgrExtAddrLookup?relay
        MOV     A,R1
        MOV     ?V0 + 0,A
// 1796 
// 1797   if ( status == ZSuccess )
        MOV     A,?V0 + 0
        JNZ     ??ZDSecMgrDeviceValidateSKKE_0
// 1798   {
// 1799     // get MASTER key
// 1800     status = ZDSecMgrMasterKeyLookup( ami, &key );
        ; Setup parameters for call to function ZDSecMgrMasterKeyLookup
        MOV     A,#0x2
        LCALL   ?XSTACK_DISP0_8
        MOV     R4,DPL
        MOV     R5,DPH
        MOV     DPL,?XSP + 0
        MOV     DPH,?XSP + 1
        MOVX    A,@DPTR
        MOV     R2,A
        INC     DPTR
        MOVX    A,@DPTR
        MOV     R3,A
        LCALL   ??ZDSecMgrMasterKeyLookup?relay
        MOV     A,R1
        MOV     ?V0 + 0,A
// 1801 
// 1802     if ( status == ZSuccess )
        MOV     A,?V0 + 0
        JNZ     ??ZDSecMgrDeviceValidateSKKE_0
// 1803     {
// 1804     //  // check if initiator is Trust Center
// 1805     //  if ( device->nwkAddr == APSME_TRUSTCENTER_NWKADDR )
// 1806     //  {
// 1807     //    // verify NWK key not sent
// 1808     //    // devtag.todo
// 1809     //    // temporary - add device to internal data
// 1810     //    status = ZDSecMgrDeviceEntryAdd( device, ami );
// 1811     //  }
// 1812     //  else
// 1813     //  {
// 1814     //    // initiator not Trust Center - End to End SKKE - set policy
// 1815     //    // for accepting an SKKE initiation
// 1816     //    // temporary - add device to internal data
// 1817     //    status = ZDSecMgrDeviceEntryAdd( device, ami );
// 1818     //  }
// 1819         status = ZDSecMgrDeviceEntryAdd( device, ami );
        ; Setup parameters for call to function ZDSecMgrDeviceEntryAdd
        MOV     DPL,?XSP + 0
        MOV     DPH,?XSP + 1
        MOVX    A,@DPTR
        MOV     R4,A
        INC     DPTR
        MOVX    A,@DPTR
        MOV     R5,A
        MOV     A,R6
        MOV     R2,A
        MOV     A,R7
        MOV     R3,A
        LCALL   ??ZDSecMgrDeviceEntryAdd?relay
        MOV     A,R1
        MOV     ?V0 + 0,A
// 1820     }
// 1821   }
// 1822 
// 1823   return status;
??ZDSecMgrDeviceValidateSKKE_0:
        MOV     R1,?V0 + 0
        MOV     A,#0x4
        LCALL   ?DEALLOC_XSTACK8
          CFI CFA_XSP16 add(XSP16, 9)
        MOV     R7,#0x1
        LJMP    ?BANKED_LEAVE_XDATA
          CFI EndBlock cfiBlock34
// 1824 }
// 1825 
// 1826 /******************************************************************************
// 1827  * @fn          ZDSecMgrDeviceValidateRM (RESIDENTIAL MODE)
// 1828  *
// 1829  * @brief       Decide whether device is allowed.
// 1830  *
// 1831  * @param       device - [in] ZDSecMgrDevice_t, device info
// 1832  *
// 1833  * @return      ZStatus_t
// 1834  */

        RSEG BANKED_CODE:CODE:NOROOT(0)
// 1835 ZStatus_t ZDSecMgrDeviceValidateRM( ZDSecMgrDevice_t* device )
ZDSecMgrDeviceValidateRM:
          CFI Block cfiBlock35 Using cfiCommon0
          CFI Function ZDSecMgrDeviceValidateRM
        CODE
// 1836 {
        PUSH    DPL
          CFI DPL0 Frame(CFA_SP, 4)
          CFI CFA_SP SP+-4
        PUSH    DPH
          CFI DPH0 Frame(CFA_SP, 5)
          CFI CFA_SP SP+-5
        ; Saved register size: 2
        ; Auto size: 0
// 1837 
// 1838   ZStatus_t status;
// 1839   status = ZSuccess;
        MOV     R1,#0x0
// 1840 
// 1841   (void)device;  // Intentionally unreferenced parameter
// 1842   
// 1843   // For test purpose, turning off the zgSecurePermitJoin flag will force
// 1844   // the trust center to reject any newly joining devices by sending
// 1845   // Remove-device to the parents.
// 1846   if ( zgSecurePermitJoin == false )
        MOV     DPTR,#zgSecurePermitJoin
        MOVX    A,@DPTR
        JNZ     ??ZDSecMgrDeviceValidateRM_0
// 1847   {
// 1848     status = ZNwkUnknownDevice;
        MOV     R1,#-0x38
// 1849   }
// 1850 
// 1851 
// 1852 
// 1853 #if 0  // Taken out because the following functionality is only used for test
// 1854        // purpose. A more efficient (above) way is used. It can be put
// 1855        // back in if customers request for a white/black list feature.
// 1856        // ZDSecMgrStoredDeviceList[] is defined in ZDSecMgr.c
// 1857 
// 1858   // The following code processes the device black list (stored device list)
// 1859   // If the joining device is not part of the forbidden device list
// 1860   // Return ZSuccess. Otherwise, return ZNwkUnknownDevice. The trust center
// 1861   // will send Remove-device and ban the device from joining.
// 1862 
// 1863   uint8     index;
// 1864   uint8*    restricted;
// 1865 
// 1866   // Look through the stored device list - used for restricted devices
// 1867   for ( index = 0; index < ZDSECMGR_STORED_DEVICES; index++ )
// 1868   {
// 1869     restricted = ZDSecMgrStoredDeviceList[index];
// 1870 
// 1871     if ( AddrMgrExtAddrEqual( restricted, device->extAddr )  == TRUE )
// 1872     {
// 1873       // return as unknown device in regards to validation
// 1874       status = ZNwkUnknownDevice;
// 1875 
// 1876       // break from loop
// 1877       index = ZDSECMGR_STORED_DEVICES;
// 1878     }
// 1879   }
// 1880 
// 1881 #endif
// 1882 
// 1883   return status;
??ZDSecMgrDeviceValidateRM_0:
        POP     DPH
          CFI DPH0 SameValue
          CFI CFA_SP SP+-4
        POP     DPL
          CFI DPL0 SameValue
          CFI CFA_SP SP+-3
        LJMP    ?BRET
          CFI EndBlock cfiBlock35
// 1884 }
// 1885 
// 1886 /******************************************************************************
// 1887  * @fn          ZDSecMgrDeviceValidateCM (COMMERCIAL MODE)
// 1888  *
// 1889  * @brief       Decide whether device is allowed.
// 1890  *
// 1891  * @param       device - [in] ZDSecMgrDevice_t, device info
// 1892  *
// 1893  * @return      ZStatus_t
// 1894  */
// 1895 //devtag.pro.security

        RSEG BANKED_CODE:CODE:NOROOT(0)
// 1896 ZStatus_t ZDSecMgrDeviceValidateCM( ZDSecMgrDevice_t* device )
ZDSecMgrDeviceValidateCM:
          CFI Block cfiBlock36 Using cfiCommon0
          CFI Function ZDSecMgrDeviceValidateCM
        CODE
// 1897 {
        FUNCALL ZDSecMgrDeviceValidateCM, ZDSecMgrAddrStore
        LOCFRAME ISTACK, 0, STACK
        LOCFRAME PSTACK, 0, STACK
        LOCFRAME XSTACK, 17, STACK
        LOCFRAME IOVERLAY, 0, STATIC
        LOCFRAME DOVERLAY, 0, STATIC
        ARGFRAME ISTACK, 0, STACK
        ARGFRAME PSTACK, 0, STACK
        ARGFRAME XSTACK, 17, STACK
        ARGFRAME IOVERLAY, 0, STATIC
        ARGFRAME DOVERLAY, 0, STATIC
        FUNCALL ZDSecMgrDeviceValidateCM, ZDSecMgrMasterKeyLoad
        LOCFRAME ISTACK, 0, STACK
        LOCFRAME PSTACK, 0, STACK
        LOCFRAME XSTACK, 15, STACK
        LOCFRAME IOVERLAY, 0, STATIC
        LOCFRAME DOVERLAY, 0, STATIC
        ARGFRAME ISTACK, 0, STACK
        ARGFRAME PSTACK, 0, STACK
        ARGFRAME XSTACK, 15, STACK
        ARGFRAME IOVERLAY, 0, STATIC
        ARGFRAME DOVERLAY, 0, STATIC
        FUNCALL ZDSecMgrDeviceValidateCM, ZDSecMgrDeviceEntryAdd
        LOCFRAME ISTACK, 0, STACK
        LOCFRAME PSTACK, 0, STACK
        LOCFRAME XSTACK, 15, STACK
        LOCFRAME IOVERLAY, 0, STATIC
        LOCFRAME DOVERLAY, 0, STATIC
        ARGFRAME ISTACK, 0, STACK
        ARGFRAME PSTACK, 0, STACK
        ARGFRAME XSTACK, 15, STACK
        ARGFRAME IOVERLAY, 0, STATIC
        ARGFRAME DOVERLAY, 0, STATIC
        MOV     A,#-0xd
        LCALL   ?BANKED_ENTER_XDATA
          CFI DPH0 load(1, XDATA, add(CFA_XSP16, literal(-1)))
          CFI DPL0 load(1, XDATA, add(CFA_XSP16, literal(-2)))
          CFI ?BRET_EXT load(1, XDATA, add(CFA_XSP16, literal(-3)))
          CFI ?RET_HIGH load(1, XDATA, add(CFA_XSP16, literal(-4)))
          CFI ?RET_LOW load(1, XDATA, add(CFA_XSP16, literal(-5)))
          CFI R7 load(1, XDATA, add(CFA_XSP16, literal(-6)))
          CFI V4 load(1, XDATA, add(CFA_XSP16, literal(-7)))
          CFI V3 load(1, XDATA, add(CFA_XSP16, literal(-8)))
          CFI V2 load(1, XDATA, add(CFA_XSP16, literal(-9)))
          CFI V1 load(1, XDATA, add(CFA_XSP16, literal(-10)))
          CFI V0 load(1, XDATA, add(CFA_XSP16, literal(-11)))
          CFI VB load(1, XDATA, add(CFA_XSP16, literal(-12)))
          CFI R6 load(1, XDATA, add(CFA_XSP16, literal(-13)))
          CFI CFA_SP SP+0
          CFI CFA_XSP16 add(XSP16, 13)
        ; Saved register size: 13
        ; Auto size: 2
        MOV     A,#-0x2
        LCALL   ?ALLOC_XSTACK8
          CFI CFA_XSP16 add(XSP16, 15)
        MOV     A,R2
        MOV     R6,A
        MOV     A,R3
        MOV     R7,A
// 1898   ZStatus_t status;
// 1899   uint16    ami;
// 1900   uint8*    key;
// 1901 
// 1902 
// 1903 //  // check for pre configured setting
// 1904 //  if ( device->secure == TRUE )
// 1905 //  {
// 1906 //    // get EXT address and MASTER key
// 1907 //    status = ZDSecMgrExtAddrLookup( device->extAddr, &ami );
// 1908 //
// 1909 //    if ( status == ZSuccess )
// 1910 //    {
// 1911 //      status = ZDSecMgrMasterKeyLookup( ami, &key );
// 1912 //    }
// 1913 //  }
// 1914 //  else
// 1915 //  {
// 1916     // implement EXT address and MASTER key policy here -- the total number of
// 1917     // Security Manager entries should never exceed the number of EXT addresses
// 1918     // and MASTER keys available
// 1919 
// 1920     // set status based on policy
// 1921     //status = ZNwkUnknownDevice;
// 1922 
// 1923     // set status based on policy
// 1924     status = ZSuccess; // ZNwkUnknownDevice;
        MOV     ?V0 + 4,#0x0
// 1925 
// 1926     // get key based on policy
// 1927     key = ZDSecMgrTCMasterKey;
        MOV     ?V0 + 0,#ZDSecMgrTCMasterKey & 0xff
        MOV     ?V0 + 1,#(ZDSecMgrTCMasterKey >> 8) & 0xff
// 1928 
// 1929     // if policy, store new EXT address
// 1930     status = ZDSecMgrAddrStore( device->nwkAddr, device->extAddr, &ami );
        ; Setup parameters for call to function ZDSecMgrAddrStore
        MOV     DPL,?XSP + 0
        MOV     DPH,?XSP + 1
        MOV     ?V0 + 2,DPL
        MOV     ?V0 + 3,DPH
        MOV     R0,#?V0 + 2
        LCALL   ?PUSH_XSTACK_I_TWO
          CFI CFA_XSP16 add(XSP16, 17)
        MOV     DPL,R6
        MOV     DPH,R7
        INC     DPTR
        INC     DPTR
        MOVX    A,@DPTR
        MOV     R4,A
        INC     DPTR
        MOVX    A,@DPTR
        MOV     R5,A
        MOV     DPL,R6
        MOV     DPH,R7
        MOVX    A,@DPTR
        MOV     R2,A
        INC     DPTR
        MOVX    A,@DPTR
        MOV     R3,A
        LCALL   ??ZDSecMgrAddrStore?relay
        MOV     A,#0x2
        LCALL   ?DEALLOC_XSTACK8
          CFI CFA_XSP16 add(XSP16, 15)
        MOV     A,R1
        MOV     ?V0 + 4,A
// 1931 
// 1932     // set the key
// 1933     ZDSecMgrMasterKeyLoad( device->extAddr, key );
        ; Setup parameters for call to function ZDSecMgrMasterKeyLoad
        MOV     R4,?V0 + 0
        MOV     R5,?V0 + 1
        MOV     DPL,R6
        MOV     DPH,R7
        INC     DPTR
        INC     DPTR
        MOVX    A,@DPTR
        MOV     R2,A
        INC     DPTR
        MOVX    A,@DPTR
        MOV     R3,A
        LCALL   ??ZDSecMgrMasterKeyLoad?relay
        MOV     A,R1
// 1934 //  }
// 1935 
// 1936   // if EXT address and MASTER key available -- add device
// 1937   if ( status == ZSuccess )
        MOV     A,?V0 + 4
        JNZ     ??ZDSecMgrDeviceValidateCM_0
// 1938   {
// 1939     // add device to internal data - with control
// 1940     status = ZDSecMgrDeviceEntryAdd( device, ami );
        ; Setup parameters for call to function ZDSecMgrDeviceEntryAdd
        MOV     DPL,?XSP + 0
        MOV     DPH,?XSP + 1
        MOVX    A,@DPTR
        MOV     R4,A
        INC     DPTR
        MOVX    A,@DPTR
        MOV     R5,A
        MOV     A,R6
        MOV     R2,A
        MOV     A,R7
        MOV     R3,A
        LCALL   ??ZDSecMgrDeviceEntryAdd?relay
        MOV     A,R1
        MOV     ?V0 + 4,A
// 1941   }
// 1942 
// 1943   return status;
??ZDSecMgrDeviceValidateCM_0:
        MOV     R1,?V0 + 4
        MOV     A,#0x2
        LCALL   ?DEALLOC_XSTACK8
          CFI CFA_XSP16 add(XSP16, 13)
        MOV     R7,#0x5
        LJMP    ?BANKED_LEAVE_XDATA
          CFI EndBlock cfiBlock36
// 1944 }
// 1945 //devtag.pro.security
// 1946 #if 0
// 1947 ZStatus_t ZDSecMgrDeviceValidateCM( ZDSecMgrDevice_t* device )
// 1948 {
// 1949   ZStatus_t status;
// 1950   uint16    ami;
// 1951   uint8*    key;
// 1952 
// 1953 
// 1954   // check for pre configured setting
// 1955   if ( device->secure == TRUE )
// 1956   {
// 1957     // get EXT address and MASTER key
// 1958     status = ZDSecMgrExtAddrLookup( device->extAddr, &ami );
// 1959 
// 1960     if ( status == ZSuccess )
// 1961     {
// 1962       status = ZDSecMgrMasterKeyLookup( ami, &key );
// 1963     }
// 1964   }
// 1965   else
// 1966   {
// 1967     // implement EXT address and MASTER key policy here -- the total number of
// 1968     // Security Manager entries should never exceed the number of EXT addresses
// 1969     // and MASTER keys available
// 1970 
// 1971     // set status based on policy
// 1972     status = ZSuccess; // ZNwkUnknownDevice;
// 1973 
// 1974     // get the address index
// 1975     if ( ZDSecMgrExtAddrLookup( device->extAddr, &ami ) != ZSuccess )
// 1976     {
// 1977       // if policy, store new EXT address
// 1978       status = ZDSecMgrAddrStore( device->nwkAddr, device->extAddr, &ami );
// 1979     }
// 1980 
// 1981     // get the address index
// 1982     if ( ZDSecMgrMasterKeyLookup( ami, &key ) != ZSuccess )
// 1983     {
// 1984       // if policy, store new key -- NULL will zero key
// 1985       status = ZDSecMgrMasterKeyStore( ami, NULL );
// 1986     }
// 1987   }
// 1988 
// 1989   // if EXT address and MASTER key available -- add device
// 1990   if ( status == ZSuccess )
// 1991   {
// 1992     // add device to internal data - with control
// 1993     status = ZDSecMgrDeviceEntryAdd( device, ami );
// 1994   }
// 1995 
// 1996   return status;
// 1997 }
// 1998 #endif
// 1999 
// 2000 /******************************************************************************
// 2001  * @fn          ZDSecMgrDeviceValidate
// 2002  *
// 2003  * @brief       Decide whether device is allowed.
// 2004  *
// 2005  * @param       device - [in] ZDSecMgrDevice_t, device info
// 2006  *
// 2007  * @return      ZStatus_t
// 2008  */

        RSEG BANKED_CODE:CODE:NOROOT(0)
// 2009 ZStatus_t ZDSecMgrDeviceValidate( ZDSecMgrDevice_t* device )
ZDSecMgrDeviceValidate:
          CFI Block cfiBlock37 Using cfiCommon0
          CFI Function ZDSecMgrDeviceValidate
        CODE
// 2010 {
        FUNCALL ZDSecMgrDeviceValidate, ZDSecMgrDeviceValidateRM
        LOCFRAME ISTACK, 0, STACK
        LOCFRAME PSTACK, 0, STACK
        LOCFRAME XSTACK, 9, STACK
        LOCFRAME IOVERLAY, 0, STATIC
        LOCFRAME DOVERLAY, 0, STATIC
        ARGFRAME ISTACK, 0, STACK
        ARGFRAME PSTACK, 0, STACK
        ARGFRAME XSTACK, 9, STACK
        ARGFRAME IOVERLAY, 0, STATIC
        ARGFRAME DOVERLAY, 0, STATIC
        MOV     A,#-0x9
        LCALL   ?BANKED_ENTER_XDATA
          CFI DPH0 load(1, XDATA, add(CFA_XSP16, literal(-1)))
          CFI DPL0 load(1, XDATA, add(CFA_XSP16, literal(-2)))
          CFI ?BRET_EXT load(1, XDATA, add(CFA_XSP16, literal(-3)))
          CFI ?RET_HIGH load(1, XDATA, add(CFA_XSP16, literal(-4)))
          CFI ?RET_LOW load(1, XDATA, add(CFA_XSP16, literal(-5)))
          CFI R7 load(1, XDATA, add(CFA_XSP16, literal(-6)))
          CFI V0 load(1, XDATA, add(CFA_XSP16, literal(-7)))
          CFI VB load(1, XDATA, add(CFA_XSP16, literal(-8)))
          CFI R6 load(1, XDATA, add(CFA_XSP16, literal(-9)))
          CFI CFA_SP SP+0
          CFI CFA_XSP16 add(XSP16, 9)
        ; Saved register size: 9
        ; Auto size: 0
        MOV     A,R2
        MOV     R6,A
        MOV     A,R3
        MOV     R7,A
// 2011   ZStatus_t status;
// 2012 
// 2013 
// 2014   if ( ZDSecMgrPermitJoiningEnabled == TRUE )
        MOV     DPTR,#ZDSecMgrPermitJoiningEnabled
        MOVX    A,@DPTR
        XRL     A,#0x1
        JNZ     ??ZDSecMgrDeviceValidate_0
// 2015   {
// 2016     // device may be joining with a secure flag but it is ultimately the Trust
// 2017     // Center that decides -- check if expected pre configured device --
// 2018     // override settings
// 2019     if ( zgPreConfigKeys == TRUE )
        MOV     DPTR,#zgPreConfigKeys
        MOVX    A,@DPTR
        XRL     A,#0x1
        JNZ     ??ZDSecMgrDeviceValidate_1
// 2020     {
// 2021       device->secure = TRUE;
        MOV     DPL,R6
        MOV     DPH,R7
        INC     DPTR
        INC     DPTR
        INC     DPTR
        INC     DPTR
        INC     DPTR
        INC     DPTR
        MOV     A,#0x1
        MOVX    @DPTR,A
        SJMP    ??ZDSecMgrDeviceValidate_2
// 2022     }
// 2023     else
// 2024     {
// 2025       device->secure = FALSE;
??ZDSecMgrDeviceValidate_1:
        MOV     DPL,R6
        MOV     DPH,R7
        INC     DPTR
        INC     DPTR
        INC     DPTR
        INC     DPTR
        INC     DPTR
        INC     DPTR
        MOV     A,#0x0
        MOVX    @DPTR,A
// 2026     }
// 2027 
// 2028     if ( ZG_CHECK_SECURITY_MODE == ZG_SECURITY_PRO_HIGH )
// 2029     {
// 2030       status = ZDSecMgrDeviceValidateCM( device );
// 2031     }
// 2032     else // ( ZG_CHECK_SECURITY_MODE == ZG_SECURITY_RESIDENTIAL )
// 2033     {
// 2034       status = ZDSecMgrDeviceValidateRM( device );
??ZDSecMgrDeviceValidate_2:
        ; Setup parameters for call to function ZDSecMgrDeviceValidateRM
        MOV     A,R6
        MOV     R2,A
        MOV     A,R7
        MOV     R3,A
        LCALL   ??ZDSecMgrDeviceValidateRM?relay
        MOV     A,R1
        MOV     ?V0 + 0,A
        SJMP    ??ZDSecMgrDeviceValidate_3
// 2035     }
// 2036   }
// 2037   else
// 2038   {
// 2039     status = ZNwkUnknownDevice;
??ZDSecMgrDeviceValidate_0:
        MOV     ?V0 + 0,#-0x38
// 2040   }
// 2041 
// 2042   return status;
??ZDSecMgrDeviceValidate_3:
        MOV     R1,?V0 + 0
        MOV     R7,#0x1
        LJMP    ?BANKED_LEAVE_XDATA
          CFI EndBlock cfiBlock37
// 2043 }
// 2044 
// 2045 /******************************************************************************
// 2046  * @fn          ZDSecMgrDeviceJoin
// 2047  *
// 2048  * @brief       Try to join this device.
// 2049  *
// 2050  * @param       device - [in] ZDSecMgrDevice_t, device info
// 2051  *
// 2052  * @return      ZStatus_t
// 2053  */

        RSEG BANKED_CODE:CODE:NOROOT(0)
// 2054 ZStatus_t ZDSecMgrDeviceJoin( ZDSecMgrDevice_t* device )
ZDSecMgrDeviceJoin:
          CFI Block cfiBlock38 Using cfiCommon0
          CFI Function ZDSecMgrDeviceJoin
        CODE
// 2055 {
        FUNCALL ZDSecMgrDeviceJoin, ZDSecMgrDeviceValidate
        LOCFRAME ISTACK, 0, STACK
        LOCFRAME PSTACK, 0, STACK
        LOCFRAME XSTACK, 13, STACK
        LOCFRAME IOVERLAY, 0, STATIC
        LOCFRAME DOVERLAY, 0, STATIC
        ARGFRAME ISTACK, 0, STACK
        ARGFRAME PSTACK, 0, STACK
        ARGFRAME XSTACK, 13, STACK
        ARGFRAME IOVERLAY, 0, STATIC
        ARGFRAME DOVERLAY, 0, STATIC
        FUNCALL ZDSecMgrDeviceJoin, ZDSecMgrAddrStore
        LOCFRAME ISTACK, 0, STACK
        LOCFRAME PSTACK, 0, STACK
        LOCFRAME XSTACK, 15, STACK
        LOCFRAME IOVERLAY, 0, STATIC
        LOCFRAME DOVERLAY, 0, STATIC
        ARGFRAME ISTACK, 0, STACK
        ARGFRAME PSTACK, 0, STACK
        ARGFRAME XSTACK, 15, STACK
        ARGFRAME IOVERLAY, 0, STATIC
        ARGFRAME DOVERLAY, 0, STATIC
        FUNCALL ZDSecMgrDeviceJoin, ZDSecMgrSendNwkKey
        LOCFRAME ISTACK, 0, STACK
        LOCFRAME PSTACK, 0, STACK
        LOCFRAME XSTACK, 13, STACK
        LOCFRAME IOVERLAY, 0, STATIC
        LOCFRAME DOVERLAY, 0, STATIC
        ARGFRAME ISTACK, 0, STACK
        ARGFRAME PSTACK, 0, STACK
        ARGFRAME XSTACK, 13, STACK
        ARGFRAME IOVERLAY, 0, STATIC
        ARGFRAME DOVERLAY, 0, STATIC
        FUNCALL ZDSecMgrDeviceJoin, ZDSecMgrDeviceRemove
        LOCFRAME ISTACK, 0, STACK
        LOCFRAME PSTACK, 0, STACK
        LOCFRAME XSTACK, 13, STACK
        LOCFRAME IOVERLAY, 0, STATIC
        LOCFRAME DOVERLAY, 0, STATIC
        ARGFRAME ISTACK, 0, STACK
        ARGFRAME PSTACK, 0, STACK
        ARGFRAME XSTACK, 13, STACK
        ARGFRAME IOVERLAY, 0, STATIC
        ARGFRAME DOVERLAY, 0, STATIC
        MOV     A,#-0xb
        LCALL   ?BANKED_ENTER_XDATA
          CFI DPH0 load(1, XDATA, add(CFA_XSP16, literal(-1)))
          CFI DPL0 load(1, XDATA, add(CFA_XSP16, literal(-2)))
          CFI ?BRET_EXT load(1, XDATA, add(CFA_XSP16, literal(-3)))
          CFI ?RET_HIGH load(1, XDATA, add(CFA_XSP16, literal(-4)))
          CFI ?RET_LOW load(1, XDATA, add(CFA_XSP16, literal(-5)))
          CFI R7 load(1, XDATA, add(CFA_XSP16, literal(-6)))
          CFI V2 load(1, XDATA, add(CFA_XSP16, literal(-7)))
          CFI V1 load(1, XDATA, add(CFA_XSP16, literal(-8)))
          CFI V0 load(1, XDATA, add(CFA_XSP16, literal(-9)))
          CFI VB load(1, XDATA, add(CFA_XSP16, literal(-10)))
          CFI R6 load(1, XDATA, add(CFA_XSP16, literal(-11)))
          CFI CFA_SP SP+0
          CFI CFA_XSP16 add(XSP16, 11)
        ; Saved register size: 11
        ; Auto size: 2
        MOV     A,#-0x2
        LCALL   ?ALLOC_XSTACK8
          CFI CFA_XSP16 add(XSP16, 13)
        MOV     A,R2
        MOV     R6,A
        MOV     A,R3
        MOV     R7,A
// 2056   ZStatus_t status;
// 2057   uint16    ami;
// 2058 
// 2059   // attempt to validate device
// 2060   status = ZDSecMgrDeviceValidate( device );
        ; Setup parameters for call to function ZDSecMgrDeviceValidate
        MOV     A,R6
        MOV     R2,A
        MOV     A,R7
        MOV     R3,A
        LCALL   ??ZDSecMgrDeviceValidate?relay
        MOV     A,R1
        MOV     ?V0 + 2,A
// 2061 
// 2062   if ( status == ZSuccess )
        MOV     A,?V0 + 2
        JNZ     ??ZDSecMgrDeviceJoin_0
// 2063   {
// 2064     if ( ZG_CHECK_SECURITY_MODE == ZG_SECURITY_PRO_HIGH )
// 2065     {
// 2066       ZDSecMgrDeviceCtrlSetup( device );
// 2067     }
// 2068     else // ( ZG_CHECK_SECURITY_MODE == ZG_SECURITY_RESIDENTIAL )
// 2069     {
// 2070       // Add the device to the address manager
// 2071       ZDSecMgrAddrStore( device->nwkAddr, device->extAddr, &ami );
        ; Setup parameters for call to function ZDSecMgrAddrStore
        MOV     DPL,?XSP + 0
        MOV     DPH,?XSP + 1
        MOV     ?V0 + 0,DPL
        MOV     ?V0 + 1,DPH
        MOV     R0,#?V0 + 0
        LCALL   ?PUSH_XSTACK_I_TWO
          CFI CFA_XSP16 add(XSP16, 15)
        MOV     DPL,R6
        MOV     DPH,R7
        INC     DPTR
        INC     DPTR
        MOVX    A,@DPTR
        MOV     R4,A
        INC     DPTR
        MOVX    A,@DPTR
        MOV     R5,A
        MOV     DPL,R6
        MOV     DPH,R7
        MOVX    A,@DPTR
        MOV     R2,A
        INC     DPTR
        MOVX    A,@DPTR
        MOV     R3,A
        LCALL   ??ZDSecMgrAddrStore?relay
        MOV     A,#0x2
        LCALL   ?DEALLOC_XSTACK8
          CFI CFA_XSP16 add(XSP16, 13)
        MOV     A,R1
// 2072       //send the nwk key data to the joining device
// 2073       status = ZDSecMgrSendNwkKey( device );
        ; Setup parameters for call to function ZDSecMgrSendNwkKey
        MOV     A,R6
        MOV     R2,A
        MOV     A,R7
        MOV     R3,A
        LCALL   ??ZDSecMgrSendNwkKey?relay
        MOV     A,R1
        MOV     ?V0 + 2,A
        SJMP    ??ZDSecMgrDeviceJoin_1
// 2074     }
// 2075   }
// 2076   else
// 2077   {
// 2078     // not allowed, remove the device
// 2079     ZDSecMgrDeviceRemove( device );
??ZDSecMgrDeviceJoin_0:
        ; Setup parameters for call to function ZDSecMgrDeviceRemove
        MOV     A,R6
        MOV     R2,A
        MOV     A,R7
        MOV     R3,A
        LCALL   ??ZDSecMgrDeviceRemove?relay
// 2080   }
// 2081 
// 2082   return status;
??ZDSecMgrDeviceJoin_1:
        MOV     R1,?V0 + 2
        MOV     A,#0x2
        LCALL   ?DEALLOC_XSTACK8
          CFI CFA_XSP16 add(XSP16, 11)
        MOV     R7,#0x3
        LJMP    ?BANKED_LEAVE_XDATA
          CFI EndBlock cfiBlock38
// 2083 }
// 2084 
// 2085 /******************************************************************************
// 2086  * @fn          ZDSecMgrDeviceJoinDirect
// 2087  *
// 2088  * @brief       Try to join this device as a direct child.
// 2089  *
// 2090  * @param       device - [in] ZDSecMgrDevice_t, device info
// 2091  *
// 2092  * @return      ZStatus_t
// 2093  */

        RSEG BANKED_CODE:CODE:NOROOT(0)
// 2094 ZStatus_t ZDSecMgrDeviceJoinDirect( ZDSecMgrDevice_t* device )
ZDSecMgrDeviceJoinDirect:
          CFI Block cfiBlock39 Using cfiCommon0
          CFI Function ZDSecMgrDeviceJoinDirect
        CODE
// 2095 {
        FUNCALL ZDSecMgrDeviceJoinDirect, ZDSecMgrDeviceJoin
        LOCFRAME ISTACK, 0, STACK
        LOCFRAME PSTACK, 0, STACK
        LOCFRAME XSTACK, 9, STACK
        LOCFRAME IOVERLAY, 0, STATIC
        LOCFRAME DOVERLAY, 0, STATIC
        ARGFRAME ISTACK, 0, STACK
        ARGFRAME PSTACK, 0, STACK
        ARGFRAME XSTACK, 9, STACK
        ARGFRAME IOVERLAY, 0, STATIC
        ARGFRAME DOVERLAY, 0, STATIC
        FUNCALL ZDSecMgrDeviceJoinDirect, AssocGetWithShort
        LOCFRAME ISTACK, 0, STACK
        LOCFRAME PSTACK, 0, STACK
        LOCFRAME XSTACK, 9, STACK
        LOCFRAME IOVERLAY, 0, STATIC
        LOCFRAME DOVERLAY, 0, STATIC
        ARGFRAME ISTACK, 0, STACK
        ARGFRAME PSTACK, 0, STACK
        ARGFRAME XSTACK, 9, STACK
        ARGFRAME IOVERLAY, 0, STATIC
        ARGFRAME DOVERLAY, 0, STATIC
        FUNCALL ZDSecMgrDeviceJoinDirect, ZDSecMgrAssocDeviceAuth
        LOCFRAME ISTACK, 0, STACK
        LOCFRAME PSTACK, 0, STACK
        LOCFRAME XSTACK, 9, STACK
        LOCFRAME IOVERLAY, 0, STATIC
        LOCFRAME DOVERLAY, 0, STATIC
        ARGFRAME ISTACK, 0, STACK
        ARGFRAME PSTACK, 0, STACK
        ARGFRAME XSTACK, 9, STACK
        ARGFRAME IOVERLAY, 0, STATIC
        ARGFRAME DOVERLAY, 0, STATIC
        MOV     A,#-0x9
        LCALL   ?BANKED_ENTER_XDATA
          CFI DPH0 load(1, XDATA, add(CFA_XSP16, literal(-1)))
          CFI DPL0 load(1, XDATA, add(CFA_XSP16, literal(-2)))
          CFI ?BRET_EXT load(1, XDATA, add(CFA_XSP16, literal(-3)))
          CFI ?RET_HIGH load(1, XDATA, add(CFA_XSP16, literal(-4)))
          CFI ?RET_LOW load(1, XDATA, add(CFA_XSP16, literal(-5)))
          CFI R7 load(1, XDATA, add(CFA_XSP16, literal(-6)))
          CFI V0 load(1, XDATA, add(CFA_XSP16, literal(-7)))
          CFI VB load(1, XDATA, add(CFA_XSP16, literal(-8)))
          CFI R6 load(1, XDATA, add(CFA_XSP16, literal(-9)))
          CFI CFA_SP SP+0
          CFI CFA_XSP16 add(XSP16, 9)
        ; Saved register size: 9
        ; Auto size: 0
        MOV     A,R2
        MOV     R6,A
        MOV     A,R3
        MOV     R7,A
// 2096   ZStatus_t status;
// 2097 
// 2098   status = ZDSecMgrDeviceJoin( device );
        ; Setup parameters for call to function ZDSecMgrDeviceJoin
        MOV     A,R6
        MOV     R2,A
        MOV     A,R7
        MOV     R3,A
        LCALL   ??ZDSecMgrDeviceJoin?relay
        MOV     A,R1
        MOV     ?V0 + 0,A
// 2099 
// 2100   if ( status == ZSuccess )
        MOV     A,?V0 + 0
        JNZ     ??ZDSecMgrDeviceJoinDirect_0
// 2101   {
// 2102     // set association status to authenticated
// 2103     ZDSecMgrAssocDeviceAuth( AssocGetWithShort( device->nwkAddr ) );
        ; Setup parameters for call to function ZDSecMgrAssocDeviceAuth
        ; Setup parameters for call to function AssocGetWithShort
        MOV     DPL,R6
        MOV     DPH,R7
        MOVX    A,@DPTR
        MOV     R2,A
        INC     DPTR
        MOVX    A,@DPTR
        MOV     R3,A
        LCALL   ??AssocGetWithShort?relay
        LCALL   ??ZDSecMgrAssocDeviceAuth?relay
// 2104   }
// 2105 
// 2106   return status;
??ZDSecMgrDeviceJoinDirect_0:
        MOV     R1,?V0 + 0
        MOV     R7,#0x1
        LJMP    ?BANKED_LEAVE_XDATA
          CFI EndBlock cfiBlock39
// 2107 }
// 2108 
// 2109 /******************************************************************************
// 2110  * @fn          ZDSecMgrDeviceJoinFwd
// 2111  *
// 2112  * @brief       Forward join to Trust Center.
// 2113  *
// 2114  * @param       device - [in] ZDSecMgrDevice_t, device info
// 2115  *
// 2116  * @return      ZStatus_t
// 2117  */

        RSEG BANKED_CODE:CODE:NOROOT(0)
// 2118 ZStatus_t ZDSecMgrDeviceJoinFwd( ZDSecMgrDevice_t* device )
ZDSecMgrDeviceJoinFwd:
          CFI Block cfiBlock40 Using cfiCommon0
          CFI Function ZDSecMgrDeviceJoinFwd
        CODE
// 2119 {
        FUNCALL ZDSecMgrDeviceJoinFwd, APSME_UpdateDeviceReq
        LOCFRAME ISTACK, 0, STACK
        LOCFRAME PSTACK, 0, STACK
        LOCFRAME XSTACK, 17, STACK
        LOCFRAME IOVERLAY, 0, STATIC
        LOCFRAME DOVERLAY, 0, STATIC
        ARGFRAME ISTACK, 0, STACK
        ARGFRAME PSTACK, 0, STACK
        ARGFRAME XSTACK, 17, STACK
        ARGFRAME IOVERLAY, 0, STATIC
        ARGFRAME DOVERLAY, 0, STATIC
        MOV     A,#-0x9
        LCALL   ?BANKED_ENTER_XDATA
          CFI DPH0 load(1, XDATA, add(CFA_XSP16, literal(-1)))
          CFI DPL0 load(1, XDATA, add(CFA_XSP16, literal(-2)))
          CFI ?BRET_EXT load(1, XDATA, add(CFA_XSP16, literal(-3)))
          CFI ?RET_HIGH load(1, XDATA, add(CFA_XSP16, literal(-4)))
          CFI ?RET_LOW load(1, XDATA, add(CFA_XSP16, literal(-5)))
          CFI R7 load(1, XDATA, add(CFA_XSP16, literal(-6)))
          CFI V0 load(1, XDATA, add(CFA_XSP16, literal(-7)))
          CFI VB load(1, XDATA, add(CFA_XSP16, literal(-8)))
          CFI R6 load(1, XDATA, add(CFA_XSP16, literal(-9)))
          CFI CFA_SP SP+0
          CFI CFA_XSP16 add(XSP16, 9)
        ; Saved register size: 9
        ; Auto size: 8
        MOV     A,#-0x8
        LCALL   ?ALLOC_XSTACK8
          CFI CFA_XSP16 add(XSP16, 17)
        MOV     A,R2
        MOV     R6,A
        MOV     A,R3
        MOV     R7,A
// 2120   ZStatus_t               status;
// 2121   APSME_UpdateDeviceReq_t req;
// 2122 
// 2123 
// 2124   // forward any joining device to the Trust Center -- the Trust Center will
// 2125   // decide if the device is allowed to join
// 2126   status = ZSuccess;
        MOV     ?V0 + 0,#0x0
// 2127 
// 2128   // forward authorization to the Trust Center
// 2129   req.dstAddr    = APSME_TRUSTCENTER_NWKADDR;
        MOV     DPL,?XSP + 0
        MOV     DPH,?XSP + 1
        MOV     A,#0x0
        MOVX    @DPTR,A
        INC     DPTR
        MOV     A,#0x0
        MOVX    @DPTR,A
// 2130   req.devAddr    = device->nwkAddr;
        MOV     DPL,R6
        MOV     DPH,R7
        MOVX    A,@DPTR
        MOV     R0,A
        INC     DPTR
        MOVX    A,@DPTR
        MOV     R1,A
        MOV     A,#0x2
        LCALL   ?XSTACK_DISP0_8
        MOV     A,R0
        MOVX    @DPTR,A
        INC     DPTR
        MOV     A,R1
        MOVX    @DPTR,A
// 2131   req.devExtAddr = device->extAddr;
        MOV     DPL,R6
        MOV     DPH,R7
        INC     DPTR
        INC     DPTR
        MOVX    A,@DPTR
        MOV     R0,A
        INC     DPTR
        MOVX    A,@DPTR
        MOV     R1,A
        MOV     A,#0x4
        LCALL   ?XSTACK_DISP0_8
        MOV     A,R0
        MOVX    @DPTR,A
        INC     DPTR
        MOV     A,R1
        MOVX    @DPTR,A
// 2132 
// 2133   // set security status, option for router to reject if policy set
// 2134   if ( (device->devStatus & DEV_HIGH_SEC_STATUS) )
        MOV     DPL,R6
        MOV     DPH,R7
        INC     DPTR
        INC     DPTR
        INC     DPTR
        INC     DPTR
        INC     DPTR
        INC     DPTR
        INC     DPTR
        MOVX    A,@DPTR
        MOV     C,0xE0 /* A   */.7
        JNC     ??ZDSecMgrDeviceJoinFwd_0
// 2135   {
// 2136     if ( device->devStatus & DEV_REJOIN_STATUS )
        MOV     DPL,R6
        MOV     DPH,R7
        INC     DPTR
        INC     DPTR
        INC     DPTR
        INC     DPTR
        INC     DPTR
        INC     DPTR
        INC     DPTR
        MOVX    A,@DPTR
        MOV     C,0xE0 /* A   */.6
        JNC     ??ZDSecMgrDeviceJoinFwd_1
// 2137     {
// 2138       if ( device->secure == TRUE )
        MOV     DPL,R6
        MOV     DPH,R7
        INC     DPTR
        INC     DPTR
        INC     DPTR
        INC     DPTR
        INC     DPTR
        INC     DPTR
        MOVX    A,@DPTR
        XRL     A,#0x1
        JNZ     ??ZDSecMgrDeviceJoinFwd_2
// 2139         req.status = APSME_UD_HIGH_SECURED_REJOIN;
        MOV     A,#0x6
        LCALL   ?XSTACK_DISP0_8
        MOV     A,#0x4
        MOVX    @DPTR,A
        SJMP    ??ZDSecMgrDeviceJoinFwd_3
// 2140       else
// 2141         req.status = APSME_UD_HIGH_UNSECURED_REJOIN;
??ZDSecMgrDeviceJoinFwd_2:
        MOV     A,#0x6
        LCALL   ?XSTACK_DISP0_8
        MOV     A,#0x7
        MOVX    @DPTR,A
        SJMP    ??ZDSecMgrDeviceJoinFwd_3
// 2142     }
// 2143     else
// 2144       req.status = APSME_UD_HIGH_UNSECURED_JOIN;
??ZDSecMgrDeviceJoinFwd_1:
        MOV     A,#0x6
        LCALL   ?XSTACK_DISP0_8
        MOV     A,#0x5
        MOVX    @DPTR,A
        SJMP    ??ZDSecMgrDeviceJoinFwd_3
// 2145   }
// 2146   else
// 2147   {
// 2148     if ( device->devStatus & DEV_REJOIN_STATUS )
??ZDSecMgrDeviceJoinFwd_0:
        MOV     DPL,R6
        MOV     DPH,R7
        INC     DPTR
        INC     DPTR
        INC     DPTR
        INC     DPTR
        INC     DPTR
        INC     DPTR
        INC     DPTR
        MOVX    A,@DPTR
        MOV     C,0xE0 /* A   */.6
        JNC     ??ZDSecMgrDeviceJoinFwd_4
// 2149     {
// 2150       if ( device->secure == TRUE )
        MOV     DPL,R6
        MOV     DPH,R7
        INC     DPTR
        INC     DPTR
        INC     DPTR
        INC     DPTR
        INC     DPTR
        INC     DPTR
        MOVX    A,@DPTR
        XRL     A,#0x1
        JNZ     ??ZDSecMgrDeviceJoinFwd_5
// 2151         req.status = APSME_UD_STANDARD_SECURED_REJOIN;
        MOV     A,#0x6
        LCALL   ?XSTACK_DISP0_8
        MOV     A,#0x0
        MOVX    @DPTR,A
        SJMP    ??ZDSecMgrDeviceJoinFwd_3
// 2152       else
// 2153         req.status = APSME_UD_STANDARD_UNSECURED_REJOIN;
??ZDSecMgrDeviceJoinFwd_5:
        MOV     A,#0x6
        LCALL   ?XSTACK_DISP0_8
        MOV     A,#0x3
        MOVX    @DPTR,A
        SJMP    ??ZDSecMgrDeviceJoinFwd_3
// 2154     }
// 2155     else
// 2156       req.status = APSME_UD_STANDARD_UNSECURED_JOIN;
??ZDSecMgrDeviceJoinFwd_4:
        MOV     A,#0x6
        LCALL   ?XSTACK_DISP0_8
        MOV     A,#0x1
        MOVX    @DPTR,A
// 2157   }
// 2158 
// 2159   if ( ZG_CHECK_SECURITY_MODE == ZG_SECURITY_PRO_HIGH )
// 2160     req.apsSecure = TRUE;
// 2161   else
// 2162     req.apsSecure = FALSE;
??ZDSecMgrDeviceJoinFwd_3:
        MOV     A,#0x7
        LCALL   ?XSTACK_DISP0_8
        MOV     A,#0x0
        MOVX    @DPTR,A
// 2163 
// 2164   // send and APSME_UPDATE_DEVICE request to the trust center
// 2165   status = APSME_UpdateDeviceReq( &req );
        ; Setup parameters for call to function APSME_UpdateDeviceReq
        MOV     DPL,?XSP + 0
        MOV     DPH,?XSP + 1
        MOV     R2,DPL
        MOV     R3,DPH
        LCALL   ??APSME_UpdateDeviceReq?relay
        MOV     A,R1
        MOV     ?V0 + 0,A
// 2166 
// 2167   return status;
        MOV     R1,?V0 + 0
        MOV     A,#0x8
        LCALL   ?DEALLOC_XSTACK8
          CFI CFA_XSP16 add(XSP16, 9)
        MOV     R7,#0x1
        LJMP    ?BANKED_LEAVE_XDATA
          CFI EndBlock cfiBlock40
// 2168 }
// 2169 
// 2170 /******************************************************************************
// 2171  * @fn          ZDSecMgrDeviceNew
// 2172  *
// 2173  * @brief       Process a new device.
// 2174  *
// 2175  * @param       device - [in] ZDSecMgrDevice_t, device info
// 2176  *
// 2177  * @return      ZStatus_t
// 2178  */

        RSEG BANKED_CODE:CODE:NOROOT(0)
// 2179 ZStatus_t ZDSecMgrDeviceNew( ZDSecMgrDevice_t* joiner )
ZDSecMgrDeviceNew:
          CFI Block cfiBlock41 Using cfiCommon0
          CFI Function ZDSecMgrDeviceNew
        CODE
// 2180 {
        FUNCALL ZDSecMgrDeviceNew, ZDSecMgrDeviceJoinDirect
        LOCFRAME ISTACK, 0, STACK
        LOCFRAME PSTACK, 0, STACK
        LOCFRAME XSTACK, 9, STACK
        LOCFRAME IOVERLAY, 0, STATIC
        LOCFRAME DOVERLAY, 0, STATIC
        ARGFRAME ISTACK, 0, STACK
        ARGFRAME PSTACK, 0, STACK
        ARGFRAME XSTACK, 9, STACK
        ARGFRAME IOVERLAY, 0, STATIC
        ARGFRAME DOVERLAY, 0, STATIC
        MOV     A,#-0x9
        LCALL   ?BANKED_ENTER_XDATA
          CFI DPH0 load(1, XDATA, add(CFA_XSP16, literal(-1)))
          CFI DPL0 load(1, XDATA, add(CFA_XSP16, literal(-2)))
          CFI ?BRET_EXT load(1, XDATA, add(CFA_XSP16, literal(-3)))
          CFI ?RET_HIGH load(1, XDATA, add(CFA_XSP16, literal(-4)))
          CFI ?RET_LOW load(1, XDATA, add(CFA_XSP16, literal(-5)))
          CFI R7 load(1, XDATA, add(CFA_XSP16, literal(-6)))
          CFI V0 load(1, XDATA, add(CFA_XSP16, literal(-7)))
          CFI VB load(1, XDATA, add(CFA_XSP16, literal(-8)))
          CFI R6 load(1, XDATA, add(CFA_XSP16, literal(-9)))
          CFI CFA_SP SP+0
          CFI CFA_XSP16 add(XSP16, 9)
        ; Saved register size: 9
        ; Auto size: 0
        MOV     A,R2
        MOV     R6,A
        MOV     A,R3
        MOV     R7,A
// 2181   ZStatus_t status;
// 2182 
// 2183   if ( ( ZG_BUILD_COORDINATOR_TYPE ) && ( ZG_DEVICE_COORDINATOR_TYPE ) )
// 2184   {
// 2185     // try to join this device
// 2186     status = ZDSecMgrDeviceJoinDirect( joiner );
        ; Setup parameters for call to function ZDSecMgrDeviceJoinDirect
        MOV     A,R6
        MOV     R2,A
        MOV     A,R7
        MOV     R3,A
        LCALL   ??ZDSecMgrDeviceJoinDirect?relay
        MOV     A,R1
        MOV     ?V0 + 0,A
// 2187   }
// 2188   else
// 2189   {
// 2190     status = ZDSecMgrDeviceJoinFwd( joiner );
// 2191   }
// 2192 
// 2193   return status;
        MOV     R1,?V0 + 0
        MOV     R7,#0x1
        LJMP    ?BANKED_LEAVE_XDATA
          CFI EndBlock cfiBlock41
// 2194 }
// 2195 
// 2196 /******************************************************************************
// 2197  * @fn          ZDSecMgrAssocDeviceAuth
// 2198  *
// 2199  * @brief       Set associated device status to authenticated
// 2200  *
// 2201  * @param       assoc - [in, out] associated_devices_t
// 2202  *
// 2203  * @return      none
// 2204  */

        RSEG BANKED_CODE:CODE:NOROOT(0)
// 2205 void ZDSecMgrAssocDeviceAuth( associated_devices_t* assoc )
ZDSecMgrAssocDeviceAuth:
          CFI Block cfiBlock42 Using cfiCommon0
          CFI Function ZDSecMgrAssocDeviceAuth
        CODE
// 2206 {
        PUSH    DPL
          CFI DPL0 Frame(CFA_SP, 4)
          CFI CFA_SP SP+-4
        PUSH    DPH
          CFI DPH0 Frame(CFA_SP, 5)
          CFI CFA_SP SP+-5
        ; Saved register size: 2
        ; Auto size: 0
// 2207   if ( assoc != NULL )
        MOV     A,R2
        ORL     A,R3
        JZ      ??ZDSecMgrAssocDeviceAuth_0
// 2208   {
// 2209     assoc->devStatus |= DEV_SEC_AUTH_STATUS;
        MOV     DPL,R2
        MOV     DPH,R3
        INC     DPTR
        INC     DPTR
        INC     DPTR
        INC     DPTR
        INC     DPTR
        MOVX    A,@DPTR
        SETB    0xE0 /* A   */.3
        MOVX    @DPTR,A
// 2210   }
// 2211 }
??ZDSecMgrAssocDeviceAuth_0:
        POP     DPH
          CFI DPH0 SameValue
          CFI CFA_SP SP+-4
        POP     DPL
          CFI DPL0 SameValue
          CFI CFA_SP SP+-3
        LJMP    ?BRET
          CFI EndBlock cfiBlock42
// 2212 
// 2213 /******************************************************************************
// 2214  * @fn          ZDSecMgrAuthInitiate
// 2215  *
// 2216  * @brief       Initiate entity authentication
// 2217  *
// 2218  * @param       responder - [in] responder EXT address
// 2219  *
// 2220  * @return      none
// 2221  */

        RSEG BANKED_CODE:CODE:NOROOT(0)
// 2222 void ZDSecMgrAuthInitiate( uint8* responder )
ZDSecMgrAuthInitiate:
          CFI Block cfiBlock43 Using cfiCommon0
          CFI Function ZDSecMgrAuthInitiate
        CODE
// 2223 {
        FUNCALL ZDSecMgrAuthInitiate, APSME_LookupNwkAddr
        LOCFRAME ISTACK, 0, STACK
        LOCFRAME PSTACK, 0, STACK
        LOCFRAME XSTACK, 16, STACK
        LOCFRAME IOVERLAY, 0, STATIC
        LOCFRAME DOVERLAY, 0, STATIC
        ARGFRAME ISTACK, 0, STACK
        ARGFRAME PSTACK, 0, STACK
        ARGFRAME XSTACK, 16, STACK
        ARGFRAME IOVERLAY, 0, STATIC
        ARGFRAME DOVERLAY, 0, STATIC
        FUNCALL ZDSecMgrAuthInitiate, APSME_AuthenticateReq
        LOCFRAME ISTACK, 0, STACK
        LOCFRAME PSTACK, 0, STACK
        LOCFRAME XSTACK, 16, STACK
        LOCFRAME IOVERLAY, 0, STATIC
        LOCFRAME DOVERLAY, 0, STATIC
        ARGFRAME ISTACK, 0, STACK
        ARGFRAME PSTACK, 0, STACK
        ARGFRAME XSTACK, 16, STACK
        ARGFRAME IOVERLAY, 0, STATIC
        ARGFRAME DOVERLAY, 0, STATIC
        MOV     A,#-0x9
        LCALL   ?BANKED_ENTER_XDATA
          CFI DPH0 load(1, XDATA, add(CFA_XSP16, literal(-1)))
          CFI DPL0 load(1, XDATA, add(CFA_XSP16, literal(-2)))
          CFI ?BRET_EXT load(1, XDATA, add(CFA_XSP16, literal(-3)))
          CFI ?RET_HIGH load(1, XDATA, add(CFA_XSP16, literal(-4)))
          CFI ?RET_LOW load(1, XDATA, add(CFA_XSP16, literal(-5)))
          CFI R7 load(1, XDATA, add(CFA_XSP16, literal(-6)))
          CFI V0 load(1, XDATA, add(CFA_XSP16, literal(-7)))
          CFI VB load(1, XDATA, add(CFA_XSP16, literal(-8)))
          CFI R6 load(1, XDATA, add(CFA_XSP16, literal(-9)))
          CFI CFA_SP SP+0
          CFI CFA_XSP16 add(XSP16, 9)
        ; Saved register size: 9
        ; Auto size: 7
        MOV     A,#-0x7
        LCALL   ?ALLOC_XSTACK8
          CFI CFA_XSP16 add(XSP16, 16)
        MOV     A,R2
        MOV     R6,A
        MOV     A,R3
        MOV     R7,A
// 2224   APSME_AuthenticateReq_t req;
// 2225 
// 2226 
// 2227   // make sure NWK address is available
// 2228   if ( APSME_LookupNwkAddr( responder, &req.nwkAddr ) )
        ; Setup parameters for call to function APSME_LookupNwkAddr
        MOV     DPL,?XSP + 0
        MOV     DPH,?XSP + 1
        MOV     R4,DPL
        MOV     R5,DPH
        MOV     A,R6
        MOV     R2,A
        MOV     A,R7
        MOV     R3,A
        LCALL   ??APSME_LookupNwkAddr?relay
        MOV     A,R1
        JZ      ??ZDSecMgrAuthInitiate_0
// 2229   {
// 2230     // set request fields
// 2231     req.extAddr   = responder;
        MOV     A,#0x2
        LCALL   ?XSTACK_DISP0_8
        MOV     A,R6
        MOVX    @DPTR,A
        INC     DPTR
        MOV     A,R7
        MOVX    @DPTR,A
// 2232     req.action    = APSME_EA_INITIATE;
        MOV     A,#0x6
        LCALL   ?XSTACK_DISP0_8
        MOV     A,#0x0
        MOVX    @DPTR,A
// 2233     req.challenge = NULL;
        MOV     A,#0x4
        LCALL   ?XSTACK_DISP0_8
        MOV     A,#0x0
        MOVX    @DPTR,A
        INC     DPTR
        MOV     A,#0x0
        MOVX    @DPTR,A
// 2234 
// 2235     // start EA processing
// 2236     APSME_AuthenticateReq( &req );
        ; Setup parameters for call to function APSME_AuthenticateReq
        MOV     DPL,?XSP + 0
        MOV     DPH,?XSP + 1
        MOV     R2,DPL
        MOV     R3,DPH
        LCALL   ??APSME_AuthenticateReq?relay
        MOV     A,R1
// 2237   }
// 2238 }
??ZDSecMgrAuthInitiate_0:
        MOV     A,#0x7
        LCALL   ?DEALLOC_XSTACK8
          CFI CFA_XSP16 add(XSP16, 9)
        MOV     R7,#0x1
        LJMP    ?BANKED_LEAVE_XDATA
          CFI EndBlock cfiBlock43
// 2239 
// 2240 /******************************************************************************
// 2241  * @fn          ZDSecMgrAuthNwkKey
// 2242  *
// 2243  * @brief       Handle next step in authentication process
// 2244  *
// 2245  * @param       none
// 2246  *
// 2247  * @return      none
// 2248  */

        RSEG BANKED_CODE:CODE:NOROOT(0)
// 2249 void ZDSecMgrAuthNwkKey()
ZDSecMgrAuthNwkKey:
          CFI Block cfiBlock44 Using cfiCommon0
          CFI Function ZDSecMgrAuthNwkKey
        CODE
// 2250 {
        FUNCALL ZDSecMgrAuthNwkKey, osal_set_event
        LOCFRAME ISTACK, 2, STACK
        LOCFRAME PSTACK, 0, STACK
        LOCFRAME XSTACK, 0, STACK
        LOCFRAME IOVERLAY, 0, STATIC
        LOCFRAME DOVERLAY, 0, STATIC
        ARGFRAME ISTACK, 2, STACK
        ARGFRAME PSTACK, 0, STACK
        ARGFRAME XSTACK, 0, STACK
        ARGFRAME IOVERLAY, 0, STATIC
        ARGFRAME DOVERLAY, 0, STATIC
        PUSH    DPL
          CFI DPL0 Frame(CFA_SP, 4)
          CFI CFA_SP SP+-4
        PUSH    DPH
          CFI DPH0 Frame(CFA_SP, 5)
          CFI CFA_SP SP+-5
        ; Saved register size: 2
        ; Auto size: 0
// 2251   if ( devState == DEV_END_DEVICE_UNAUTH )
        MOV     DPTR,#devState
        MOVX    A,@DPTR
        XRL     A,#0x5
        JNZ     ??ZDSecMgrAuthNwkKey_0
// 2252   {
// 2253     if ( ZG_CHECK_SECURITY_MODE == ZG_SECURITY_PRO_HIGH )
// 2254     {
// 2255       uint8 parent[Z_EXTADDR_LEN];
// 2256 
// 2257       // get parent's EXT address
// 2258       NLME_GetCoordExtAddr( parent );
// 2259 
// 2260       // begin entity authentication with parent
// 2261       ZDSecMgrAuthInitiate( parent );
// 2262     }
// 2263     else // ( ZG_CHECK_SECURITY_MODE == ZG_SECURITY_RESIDENTIAL )
// 2264     {
// 2265       // inform ZDO that device has been authenticated
// 2266       osal_set_event ( ZDAppTaskID, ZDO_DEVICE_AUTH );
        ; Setup parameters for call to function osal_set_event
        MOV     R2,#-0x80
        MOV     R3,#0x0
        MOV     DPTR,#ZDAppTaskID
        MOVX    A,@DPTR
        MOV     R1,A
        LCALL   ??osal_set_event?relay
        MOV     A,R1
// 2267     }
// 2268   }
// 2269 }
??ZDSecMgrAuthNwkKey_0:
        POP     DPH
          CFI DPH0 SameValue
          CFI CFA_SP SP+-4
        POP     DPL
          CFI DPL0 SameValue
          CFI CFA_SP SP+-3
        LJMP    ?BRET
          CFI EndBlock cfiBlock44
// 2270 
// 2271 /******************************************************************************
// 2272  * PUBLIC FUNCTIONS
// 2273  */
// 2274 /******************************************************************************
// 2275  * @fn          ZDSecMgrInit
// 2276  *
// 2277  * @brief       Initialize ZigBee Device Security Manager.
// 2278  *
// 2279  * @param       state - device initialization state
// 2280  *
// 2281  * @return      none
// 2282  */
// 2283 #if ( ADDRMGR_CALLBACK_ENABLED == 1 )
// 2284 void ZDSecMgrAddrMgrCB( uint8 update, AddrMgrEntry_t* newEntry, AddrMgrEntry_t* oldEntry );
// 2285 void ZDSecMgrAddrMgrCB( uint8           update,
// 2286                         AddrMgrEntry_t* newEntry,
// 2287                         AddrMgrEntry_t* oldEntry )
// 2288 {
// 2289   (void)update;
// 2290   (void)newEntry;
// 2291   (void)oldEntry;
// 2292 }
// 2293 #endif // ( ADDRMGR_CALLBACK_ENABLED == 1 )
// 2294 

        RSEG BANKED_CODE:CODE:NOROOT(0)
// 2295 void ZDSecMgrInit(uint8 state)
ZDSecMgrInit:
          CFI Block cfiBlock45 Using cfiCommon0
          CFI Function ZDSecMgrInit
        CODE
// 2296 {
        FUNCALL ZDSecMgrInit, ZDSecMgrConfig
        LOCFRAME ISTACK, 0, STACK
        LOCFRAME PSTACK, 0, STACK
        LOCFRAME XSTACK, 9, STACK
        LOCFRAME IOVERLAY, 0, STATIC
        LOCFRAME DOVERLAY, 0, STATIC
        ARGFRAME ISTACK, 0, STACK
        ARGFRAME PSTACK, 0, STACK
        ARGFRAME XSTACK, 9, STACK
        ARGFRAME IOVERLAY, 0, STATIC
        ARGFRAME DOVERLAY, 0, STATIC
        MOV     A,#-0x9
        LCALL   ?BANKED_ENTER_XDATA
          CFI DPH0 load(1, XDATA, add(CFA_XSP16, literal(-1)))
          CFI DPL0 load(1, XDATA, add(CFA_XSP16, literal(-2)))
          CFI ?BRET_EXT load(1, XDATA, add(CFA_XSP16, literal(-3)))
          CFI ?RET_HIGH load(1, XDATA, add(CFA_XSP16, literal(-4)))
          CFI ?RET_LOW load(1, XDATA, add(CFA_XSP16, literal(-5)))
          CFI R7 load(1, XDATA, add(CFA_XSP16, literal(-6)))
          CFI V0 load(1, XDATA, add(CFA_XSP16, literal(-7)))
          CFI VB load(1, XDATA, add(CFA_XSP16, literal(-8)))
          CFI R6 load(1, XDATA, add(CFA_XSP16, literal(-9)))
          CFI CFA_SP SP+0
          CFI CFA_XSP16 add(XSP16, 9)
        ; Saved register size: 9
        ; Auto size: 0
        MOV     A,R1
        MOV     R6,A
// 2297   if ( (ZG_CHECK_SECURITY_MODE == ZG_SECURITY_PRO_HIGH)
// 2298       || (ZG_CHECK_SECURITY_MODE == ZG_SECURITY_SE_STANDARD) )
// 2299   {
// 2300     // initialize sub modules
// 2301     ZDSecMgrMasterKeyInit();
// 2302     ZDSecMgrEntryInit(state);
// 2303 
// 2304     if ( ( ZG_BUILD_COORDINATOR_TYPE ) && ( ZG_DEVICE_COORDINATOR_TYPE ) )
// 2305     {
// 2306       ZDSecMgrCtrlInit();
// 2307     }
// 2308 
// 2309     // register with Address Manager
// 2310     #if ( ADDRMGR_CALLBACK_ENABLED == 1 )
// 2311     AddrMgrRegister( ADDRMGR_REG_SECURITY, ZDSecMgrAddrMgrCB );
// 2312     #endif
// 2313   }
// 2314 
// 2315   if ( ZG_CHECK_SECURITY_MODE == ZG_SECURITY_PRO_HIGH )
// 2316   {
// 2317     // configure SKA slot data
// 2318     APSME_SKA_SlotInit( ZDSECMGR_SKA_SLOT_MAX );
// 2319   }
// 2320   else if ( ZG_CHECK_SECURITY_MODE == ZG_SECURITY_SE_STANDARD )
// 2321   {
// 2322     APSME_TCLinkKeyInit();  
// 2323     APSME_TCAddrSetup( zgTrustCenterAddr );    
// 2324   
// 2325   }
// 2326 
// 2327   if ( ZG_SECURE_ENABLED )
// 2328   {
// 2329     if ( ( ZG_BUILD_COORDINATOR_TYPE ) && ( ZG_DEVICE_COORDINATOR_TYPE ) )
// 2330     {
// 2331       // setup joining permissions
// 2332       ZDSecMgrPermitJoiningEnabled = TRUE;
// 2333       ZDSecMgrPermitJoiningTimed   = FALSE;
// 2334     }
// 2335   }
// 2336 
// 2337   // configure security based on security mode and type of device
// 2338   ZDSecMgrConfig();
        ; Setup parameters for call to function ZDSecMgrConfig
        LCALL   ??ZDSecMgrConfig?relay
// 2339 }
        MOV     R7,#0x1
        LJMP    ?BANKED_LEAVE_XDATA
          CFI EndBlock cfiBlock45
// 2340 
// 2341 /******************************************************************************
// 2342  * @fn          ZDSecMgrConfig
// 2343  *
// 2344  * @brief       Configure ZigBee Device Security Manager.
// 2345  *
// 2346  * @param       none
// 2347  *
// 2348  * @return      none
// 2349  */

        RSEG BANKED_CODE:CODE:NOROOT(0)
// 2350 void ZDSecMgrConfig( void )
ZDSecMgrConfig:
          CFI Block cfiBlock46 Using cfiCommon0
          CFI Function ZDSecMgrConfig
        CODE
// 2351 {
        FUNCALL ZDSecMgrConfig, APSME_SecurityNM
        LOCFRAME ISTACK, 2, STACK
        LOCFRAME PSTACK, 0, STACK
        LOCFRAME XSTACK, 0, STACK
        LOCFRAME IOVERLAY, 0, STATIC
        LOCFRAME DOVERLAY, 0, STATIC
        ARGFRAME ISTACK, 2, STACK
        ARGFRAME PSTACK, 0, STACK
        ARGFRAME XSTACK, 0, STACK
        ARGFRAME IOVERLAY, 0, STATIC
        ARGFRAME DOVERLAY, 0, STATIC
        PUSH    DPL
          CFI DPL0 Frame(CFA_SP, 4)
          CFI CFA_SP SP+-4
        PUSH    DPH
          CFI DPH0 Frame(CFA_SP, 5)
          CFI CFA_SP SP+-5
        ; Saved register size: 2
        ; Auto size: 0
// 2352   if ( ZG_SECURE_ENABLED )
// 2353   {
// 2354     SSP_Init();
// 2355 
// 2356     if ( (ZG_CHECK_SECURITY_MODE == ZG_SECURITY_PRO_HIGH)
// 2357         || (ZG_CHECK_SECURITY_MODE == ZG_SECURITY_SE_STANDARD) )
// 2358     {
// 2359       if ( ( ZG_BUILD_COORDINATOR_TYPE ) && ( ZG_DEVICE_COORDINATOR_TYPE ) )
// 2360       {
// 2361         // COMMERCIAL MODE - COORDINATOR DEVICE
// 2362         APSME_SecurityCM_CD();
// 2363       }
// 2364       else if ( ZSTACK_ROUTER_BUILD )
// 2365       {
// 2366         // COMMERCIAL MODE - ROUTER DEVICE
// 2367         APSME_SecurityCM_RD();
// 2368       }
// 2369       else
// 2370       {
// 2371         // COMMERCIAL MODE - END DEVICE
// 2372         APSME_SecurityCM_ED();
// 2373       }
// 2374     }
// 2375     else // ( ZG_CHECK_SECURITY_MODE == ZG_SECURITY_RESIDENTIAL )
// 2376     {
// 2377       if ( ( ZG_BUILD_COORDINATOR_TYPE ) && ( ZG_DEVICE_COORDINATOR_TYPE ) )
// 2378       {
// 2379         // RESIDENTIAL MODE - COORDINATOR DEVICE
// 2380         APSME_SecurityRM_CD();
// 2381       }
// 2382       else if ( ZSTACK_ROUTER_BUILD )
// 2383       {
// 2384         // RESIDENTIAL MODE - ROUTER DEVICE
// 2385         APSME_SecurityRM_RD();
// 2386       }
// 2387       else
// 2388       {
// 2389         // RESIDENTIAL MODE - END DEVICE
// 2390         APSME_SecurityRM_ED();
// 2391       }
// 2392     }
// 2393   }
// 2394   else
// 2395   {
// 2396     // NO SECURITY
// 2397     APSME_SecurityNM();
        ; Setup parameters for call to function APSME_SecurityNM
        LCALL   ??APSME_SecurityNM?relay
// 2398   }
// 2399 }
        POP     DPH
          CFI DPH0 SameValue
          CFI CFA_SP SP+-4
        POP     DPL
          CFI DPL0 SameValue
          CFI CFA_SP SP+-3
        LJMP    ?BRET
          CFI EndBlock cfiBlock46
// 2400 
// 2401 /******************************************************************************
// 2402  * @fn          ZDSecMgrPermitJoining
// 2403  *
// 2404  * @brief       Process request to change joining permissions.
// 2405  *
// 2406  * @param       duration - [in] timed duration for join in seconds
// 2407  *                         - 0x00 not allowed
// 2408  *                         - 0xFF allowed without timeout
// 2409  *
// 2410  * @return      uint8 - success(TRUE:FALSE)
// 2411  */

        RSEG BANKED_CODE:CODE:NOROOT(0)
// 2412 uint8 ZDSecMgrPermitJoining( uint8 duration )
ZDSecMgrPermitJoining:
          CFI Block cfiBlock47 Using cfiCommon0
          CFI Function ZDSecMgrPermitJoining
        CODE
// 2413 {
        PUSH    DPL
          CFI DPL0 Frame(CFA_SP, 4)
          CFI CFA_SP SP+-4
        PUSH    DPH
          CFI DPH0 Frame(CFA_SP, 5)
          CFI CFA_SP SP+-5
        ; Saved register size: 2
        ; Auto size: 0
        MOV     A,R1
        MOV     R0,A
// 2414   uint8 accept;
// 2415 
// 2416 
// 2417   ZDSecMgrPermitJoiningTimed = FALSE;
        MOV     DPTR,#ZDSecMgrPermitJoiningTimed
        MOV     A,#0x0
        MOVX    @DPTR,A
// 2418 
// 2419   if ( duration > 0 )
        MOV     A,R0
        CLR     C
        SUBB    A,#0x1
        JC      ??ZDSecMgrPermitJoining_0
// 2420   {
// 2421     ZDSecMgrPermitJoiningEnabled = TRUE;
        MOV     DPTR,#ZDSecMgrPermitJoiningEnabled
        MOV     A,#0x1
        MOVX    @DPTR,A
// 2422 
// 2423     if ( duration != 0xFF )
        MOV     A,#-0x1
        XRL     A,R0
        JZ      ??ZDSecMgrPermitJoining_1
// 2424     {
// 2425       ZDSecMgrPermitJoiningTimed = TRUE;
        MOV     DPTR,#ZDSecMgrPermitJoiningTimed
        MOV     A,#0x1
        MOVX    @DPTR,A
        SJMP    ??ZDSecMgrPermitJoining_1
// 2426     }
// 2427   }
// 2428   else
// 2429   {
// 2430     ZDSecMgrPermitJoiningEnabled = FALSE;
??ZDSecMgrPermitJoining_0:
        MOV     DPTR,#ZDSecMgrPermitJoiningEnabled
        MOV     A,#0x0
        MOVX    @DPTR,A
// 2431   }
// 2432 
// 2433   accept = TRUE;
??ZDSecMgrPermitJoining_1:
        MOV     R1,#0x1
// 2434 
// 2435   return accept;
        POP     DPH
          CFI DPH0 SameValue
          CFI CFA_SP SP+-4
        POP     DPL
          CFI DPL0 SameValue
          CFI CFA_SP SP+-3
        LJMP    ?BRET
          CFI EndBlock cfiBlock47
// 2436 }
// 2437 
// 2438 /******************************************************************************
// 2439  * @fn          ZDSecMgrPermitJoiningTimeout
// 2440  *
// 2441  * @brief       Process permit joining timeout
// 2442  *
// 2443  * @param       none
// 2444  *
// 2445  * @return      none
// 2446  */

        RSEG BANKED_CODE:CODE:NOROOT(0)
// 2447 void ZDSecMgrPermitJoiningTimeout( void )
ZDSecMgrPermitJoiningTimeout:
          CFI Block cfiBlock48 Using cfiCommon0
          CFI Function ZDSecMgrPermitJoiningTimeout
        CODE
// 2448 {
        PUSH    DPL
          CFI DPL0 Frame(CFA_SP, 4)
          CFI CFA_SP SP+-4
        PUSH    DPH
          CFI DPH0 Frame(CFA_SP, 5)
          CFI CFA_SP SP+-5
        ; Saved register size: 2
        ; Auto size: 0
// 2449   if ( ZDSecMgrPermitJoiningTimed == TRUE )
        MOV     DPTR,#ZDSecMgrPermitJoiningTimed
        MOVX    A,@DPTR
        XRL     A,#0x1
        JNZ     ??ZDSecMgrPermitJoiningTimeout_0
// 2450   {
// 2451     ZDSecMgrPermitJoiningEnabled = FALSE;
        MOV     DPTR,#ZDSecMgrPermitJoiningEnabled
        MOV     A,#0x0
        MOVX    @DPTR,A
// 2452     ZDSecMgrPermitJoiningTimed   = FALSE;
        MOV     DPTR,#ZDSecMgrPermitJoiningTimed
        MOV     A,#0x0
        MOVX    @DPTR,A
// 2453   }
// 2454 }
??ZDSecMgrPermitJoiningTimeout_0:
        POP     DPH
          CFI DPH0 SameValue
          CFI CFA_SP SP+-4
        POP     DPL
          CFI DPL0 SameValue
          CFI CFA_SP SP+-3
        LJMP    ?BRET
          CFI EndBlock cfiBlock48
// 2455 
// 2456 /******************************************************************************
// 2457  * @fn          ZDSecMgrNewDeviceEvent
// 2458  *
// 2459  * @brief       Process a the new device event, if found reset new device
// 2460  *              event/timer.
// 2461  *
// 2462  * @param       none
// 2463  *
// 2464  * @return      uint8 - found(TRUE:FALSE)
// 2465  */

        RSEG BANKED_CODE:CODE:NOROOT(0)
// 2466 uint8 ZDSecMgrNewDeviceEvent( void )
ZDSecMgrNewDeviceEvent:
          CFI Block cfiBlock49 Using cfiCommon0
          CFI Function ZDSecMgrNewDeviceEvent
        CODE
// 2467 {
        FUNCALL ZDSecMgrNewDeviceEvent, AssocMatchDeviceStatus
        LOCFRAME ISTACK, 0, STACK
        LOCFRAME PSTACK, 0, STACK
        LOCFRAME XSTACK, 35, STACK
        LOCFRAME IOVERLAY, 0, STATIC
        LOCFRAME DOVERLAY, 0, STATIC
        ARGFRAME ISTACK, 0, STACK
        ARGFRAME PSTACK, 0, STACK
        ARGFRAME XSTACK, 35, STACK
        ARGFRAME IOVERLAY, 0, STATIC
        ARGFRAME DOVERLAY, 0, STATIC
        FUNCALL ZDSecMgrNewDeviceEvent, ZDSecMgrAssocDeviceAuth
        LOCFRAME ISTACK, 0, STACK
        LOCFRAME PSTACK, 0, STACK
        LOCFRAME XSTACK, 35, STACK
        LOCFRAME IOVERLAY, 0, STATIC
        LOCFRAME DOVERLAY, 0, STATIC
        ARGFRAME ISTACK, 0, STACK
        ARGFRAME PSTACK, 0, STACK
        ARGFRAME XSTACK, 35, STACK
        ARGFRAME IOVERLAY, 0, STATIC
        ARGFRAME DOVERLAY, 0, STATIC
        FUNCALL ZDSecMgrNewDeviceEvent, AddrMgrEntryGet
        LOCFRAME ISTACK, 0, STACK
        LOCFRAME PSTACK, 0, STACK
        LOCFRAME XSTACK, 35, STACK
        LOCFRAME IOVERLAY, 0, STATIC
        LOCFRAME DOVERLAY, 0, STATIC
        ARGFRAME ISTACK, 0, STACK
        ARGFRAME PSTACK, 0, STACK
        ARGFRAME XSTACK, 35, STACK
        ARGFRAME IOVERLAY, 0, STATIC
        ARGFRAME DOVERLAY, 0, STATIC
        FUNCALL ZDSecMgrNewDeviceEvent, NLME_GetShortAddr
        LOCFRAME ISTACK, 0, STACK
        LOCFRAME PSTACK, 0, STACK
        LOCFRAME XSTACK, 35, STACK
        LOCFRAME IOVERLAY, 0, STATIC
        LOCFRAME DOVERLAY, 0, STATIC
        ARGFRAME ISTACK, 0, STACK
        ARGFRAME PSTACK, 0, STACK
        ARGFRAME XSTACK, 35, STACK
        ARGFRAME IOVERLAY, 0, STATIC
        ARGFRAME DOVERLAY, 0, STATIC
        FUNCALL ZDSecMgrNewDeviceEvent, ZDSecMgrDeviceNew
        LOCFRAME ISTACK, 0, STACK
        LOCFRAME PSTACK, 0, STACK
        LOCFRAME XSTACK, 35, STACK
        LOCFRAME IOVERLAY, 0, STATIC
        LOCFRAME DOVERLAY, 0, STATIC
        ARGFRAME ISTACK, 0, STACK
        ARGFRAME PSTACK, 0, STACK
        ARGFRAME XSTACK, 35, STACK
        ARGFRAME IOVERLAY, 0, STATIC
        ARGFRAME DOVERLAY, 0, STATIC
        FUNCALL ZDSecMgrNewDeviceEvent, AssocRemove
        LOCFRAME ISTACK, 0, STACK
        LOCFRAME PSTACK, 0, STACK
        LOCFRAME XSTACK, 35, STACK
        LOCFRAME IOVERLAY, 0, STATIC
        LOCFRAME DOVERLAY, 0, STATIC
        ARGFRAME ISTACK, 0, STACK
        ARGFRAME PSTACK, 0, STACK
        ARGFRAME XSTACK, 35, STACK
        ARGFRAME IOVERLAY, 0, STATIC
        ARGFRAME DOVERLAY, 0, STATIC
        MOV     A,#-0xc
        LCALL   ?BANKED_ENTER_XDATA
          CFI DPH0 load(1, XDATA, add(CFA_XSP16, literal(-1)))
          CFI DPL0 load(1, XDATA, add(CFA_XSP16, literal(-2)))
          CFI ?BRET_EXT load(1, XDATA, add(CFA_XSP16, literal(-3)))
          CFI ?RET_HIGH load(1, XDATA, add(CFA_XSP16, literal(-4)))
          CFI ?RET_LOW load(1, XDATA, add(CFA_XSP16, literal(-5)))
          CFI R7 load(1, XDATA, add(CFA_XSP16, literal(-6)))
          CFI V3 load(1, XDATA, add(CFA_XSP16, literal(-7)))
          CFI V2 load(1, XDATA, add(CFA_XSP16, literal(-8)))
          CFI V1 load(1, XDATA, add(CFA_XSP16, literal(-9)))
          CFI V0 load(1, XDATA, add(CFA_XSP16, literal(-10)))
          CFI VB load(1, XDATA, add(CFA_XSP16, literal(-11)))
          CFI R6 load(1, XDATA, add(CFA_XSP16, literal(-12)))
          CFI CFA_SP SP+0
          CFI CFA_XSP16 add(XSP16, 12)
        ; Saved register size: 12
        ; Auto size: 23
        MOV     A,#-0x17
        LCALL   ?ALLOC_XSTACK8
          CFI CFA_XSP16 add(XSP16, 35)
// 2468   uint8                 found;
// 2469   ZDSecMgrDevice_t      device;
// 2470   AddrMgrEntry_t        addrEntry;
// 2471   associated_devices_t* assoc;
// 2472   ZStatus_t             status;
// 2473 
// 2474   // initialize return results
// 2475   found = FALSE;
        MOV     ?V0 + 0,#0x0
// 2476 
// 2477   // look for device in the security init state
// 2478   assoc = AssocMatchDeviceStatus( DEV_SEC_INIT_STATUS );
        ; Setup parameters for call to function AssocMatchDeviceStatus
        MOV     R1,#0x4
        LCALL   ??AssocMatchDeviceStatus?relay
        MOV     ?V0 + 2,R2
        MOV     ?V0 + 3,R3
        MOV     R6,?V0 + 2
        MOV     R7,?V0 + 3
// 2479 
// 2480   if ( assoc != NULL )
        MOV     A,R6
        ORL     A,R7
        JNZ     $+5
        LJMP    ??ZDSecMgrNewDeviceEvent_0 & 0xFFFF
// 2481   {
// 2482     // device found
// 2483     found = TRUE;
        MOV     ?V0 + 0,#0x1
// 2484 
// 2485     // check for preconfigured security
// 2486     if ( zgPreConfigKeys == TRUE )
        MOV     DPTR,#zgPreConfigKeys
        MOVX    A,@DPTR
        XRL     A,#0x1
        JNZ     ??ZDSecMgrNewDeviceEvent_1
// 2487     {
// 2488       // set association status to authenticated
// 2489       ZDSecMgrAssocDeviceAuth( assoc );
        ; Setup parameters for call to function ZDSecMgrAssocDeviceAuth
        MOV     A,R6
        MOV     R2,A
        MOV     A,R7
        MOV     R3,A
        LCALL   ??ZDSecMgrAssocDeviceAuth?relay
// 2490     }
// 2491 
// 2492     // set up device info
// 2493     addrEntry.user  = ADDRMGR_USER_DEFAULT;
??ZDSecMgrNewDeviceEvent_1:
        MOV     A,#0xa
        LCALL   ?XSTACK_DISP0_8
        MOV     A,#0x0
        MOVX    @DPTR,A
// 2494     addrEntry.index = assoc->addrIdx;
        MOV     DPL,R6
        MOV     DPH,R7
        INC     DPTR
        INC     DPTR
        MOVX    A,@DPTR
        MOV     R0,A
        INC     DPTR
        MOVX    A,@DPTR
        MOV     R1,A
        MOV     A,#0x15
        LCALL   ?XSTACK_DISP0_8
        MOV     A,R0
        MOVX    @DPTR,A
        INC     DPTR
        MOV     A,R1
        MOVX    @DPTR,A
// 2495     AddrMgrEntryGet( &addrEntry );
        ; Setup parameters for call to function AddrMgrEntryGet
        MOV     A,#0xa
        LCALL   ?XSTACK_DISP0_8
        MOV     R2,DPL
        MOV     R3,DPH
        LCALL   ??AddrMgrEntryGet?relay
        MOV     A,R1
// 2496 
// 2497     device.nwkAddr    = assoc->shortAddr;
        MOV     DPL,R6
        MOV     DPH,R7
        MOVX    A,@DPTR
        MOV     R0,A
        INC     DPTR
        MOVX    A,@DPTR
        MOV     R1,A
        MOV     DPL,?XSP + 0
        MOV     DPH,?XSP + 1
        MOV     A,R0
        MOVX    @DPTR,A
        INC     DPTR
        MOV     A,R1
        MOVX    @DPTR,A
// 2498     device.extAddr    = addrEntry.extAddr;
        MOV     A,#0xd
        LCALL   ?XSTACK_DISP0_8
        MOV     R0,DPL
        MOV     R1,DPH
        MOV     A,#0x2
        LCALL   ?XSTACK_DISP0_8
        MOV     A,R0
        MOVX    @DPTR,A
        INC     DPTR
        MOV     A,R1
        MOVX    @DPTR,A
// 2499     device.parentAddr = NLME_GetShortAddr();
        ; Setup parameters for call to function NLME_GetShortAddr
        LCALL   ??NLME_GetShortAddr?relay
        MOV     A,#0x4
        LCALL   ?XSTACK_DISP0_8
        MOV     A,R2
        MOVX    @DPTR,A
        INC     DPTR
        MOV     A,R3
        MOVX    @DPTR,A
// 2500     device.secure     = FALSE;
        MOV     A,#0x6
        LCALL   ?XSTACK_DISP0_8
        MOV     A,#0x0
        MOVX    @DPTR,A
// 2501     device.devStatus  = assoc->devStatus;
        MOV     DPL,R6
        MOV     DPH,R7
        INC     DPTR
        INC     DPTR
        INC     DPTR
        INC     DPTR
        INC     DPTR
        MOVX    A,@DPTR
        PUSH    A
          CFI CFA_SP SP+-1
        MOV     A,#0x7
        LCALL   ?XSTACK_DISP0_8
        POP     A
          CFI CFA_SP SP+0
        MOVX    @DPTR,A
// 2502 
// 2503     // process new device
// 2504     status = ZDSecMgrDeviceNew( &device );
        ; Setup parameters for call to function ZDSecMgrDeviceNew
        MOV     DPL,?XSP + 0
        MOV     DPH,?XSP + 1
        MOV     R2,DPL
        MOV     R3,DPH
        LCALL   ??ZDSecMgrDeviceNew?relay
        MOV     A,R1
        MOV     ?V0 + 1,A
// 2505 
// 2506     if ( status == ZSuccess )
        MOV     A,?V0 + 1
        JNZ     ??ZDSecMgrNewDeviceEvent_2
// 2507     {
// 2508       assoc->devStatus &= ~DEV_SEC_INIT_STATUS;
        MOV     DPL,R6
        MOV     DPH,R7
        INC     DPTR
        INC     DPTR
        INC     DPTR
        INC     DPTR
        INC     DPTR
        MOVX    A,@DPTR
        CLR     0xE0 /* A   */.2
        MOVX    @DPTR,A
        SJMP    ??ZDSecMgrNewDeviceEvent_0
// 2509     }
// 2510     else if ( status == ZNwkUnknownDevice )
??ZDSecMgrNewDeviceEvent_2:
        MOV     A,#-0x38
        XRL     A,?V0 + 1
        JNZ     ??ZDSecMgrNewDeviceEvent_0
// 2511     {
// 2512       AssocRemove( addrEntry.extAddr );
        ; Setup parameters for call to function AssocRemove
        MOV     A,#0xd
        LCALL   ?XSTACK_DISP0_8
        MOV     R2,DPL
        MOV     R3,DPH
        LCALL   ??AssocRemove?relay
        MOV     A,R1
// 2513     }
// 2514   }
// 2515 
// 2516   return found;
??ZDSecMgrNewDeviceEvent_0:
        MOV     R1,?V0 + 0
        MOV     A,#0x17
        LCALL   ?DEALLOC_XSTACK8
          CFI CFA_XSP16 add(XSP16, 12)
        MOV     R7,#0x4
        LJMP    ?BANKED_LEAVE_XDATA
          CFI EndBlock cfiBlock49
// 2517 }
// 2518 
// 2519 /******************************************************************************
// 2520  * @fn          ZDSecMgrEvent
// 2521  *
// 2522  * @brief       Handle ZDO Security Manager event/timer(ZDO_SECMGR_EVENT).
// 2523  *
// 2524  * @param       none
// 2525  *
// 2526  * @return      none
// 2527  */

        RSEG BANKED_CODE:CODE:NOROOT(0)
// 2528 void ZDSecMgrEvent( void )
ZDSecMgrEvent:
          CFI Block cfiBlock50 Using cfiCommon0
          CFI Function ZDSecMgrEvent
        CODE
// 2529 {
        FUNCALL ZDSecMgrEvent, AddrMgrEntryGet
        LOCFRAME ISTACK, 0, STACK
        LOCFRAME PSTACK, 0, STACK
        LOCFRAME XSTACK, 33, STACK
        LOCFRAME IOVERLAY, 0, STATIC
        LOCFRAME DOVERLAY, 0, STATIC
        ARGFRAME ISTACK, 0, STACK
        ARGFRAME PSTACK, 0, STACK
        ARGFRAME XSTACK, 33, STACK
        ARGFRAME IOVERLAY, 0, STATIC
        ARGFRAME DOVERLAY, 0, STATIC
        FUNCALL ZDSecMgrEvent, ZDSecMgrDeviceCtrlHandler
        LOCFRAME ISTACK, 0, STACK
        LOCFRAME PSTACK, 0, STACK
        LOCFRAME XSTACK, 33, STACK
        LOCFRAME IOVERLAY, 0, STATIC
        LOCFRAME DOVERLAY, 0, STATIC
        ARGFRAME ISTACK, 0, STACK
        ARGFRAME PSTACK, 0, STACK
        ARGFRAME XSTACK, 33, STACK
        ARGFRAME IOVERLAY, 0, STATIC
        ARGFRAME DOVERLAY, 0, STATIC
        FUNCALL ZDSecMgrEvent, osal_start_timerEx
        LOCFRAME ISTACK, 0, STACK
        LOCFRAME PSTACK, 0, STACK
        LOCFRAME XSTACK, 33, STACK
        LOCFRAME IOVERLAY, 0, STATIC
        LOCFRAME DOVERLAY, 0, STATIC
        ARGFRAME ISTACK, 0, STACK
        ARGFRAME PSTACK, 0, STACK
        ARGFRAME XSTACK, 33, STACK
        ARGFRAME IOVERLAY, 0, STATIC
        ARGFRAME DOVERLAY, 0, STATIC
        MOV     A,#-0xa
        LCALL   ?BANKED_ENTER_XDATA
          CFI DPH0 load(1, XDATA, add(CFA_XSP16, literal(-1)))
          CFI DPL0 load(1, XDATA, add(CFA_XSP16, literal(-2)))
          CFI ?BRET_EXT load(1, XDATA, add(CFA_XSP16, literal(-3)))
          CFI ?RET_HIGH load(1, XDATA, add(CFA_XSP16, literal(-4)))
          CFI ?RET_LOW load(1, XDATA, add(CFA_XSP16, literal(-5)))
          CFI R7 load(1, XDATA, add(CFA_XSP16, literal(-6)))
          CFI V1 load(1, XDATA, add(CFA_XSP16, literal(-7)))
          CFI V0 load(1, XDATA, add(CFA_XSP16, literal(-8)))
          CFI VB load(1, XDATA, add(CFA_XSP16, literal(-9)))
          CFI R6 load(1, XDATA, add(CFA_XSP16, literal(-10)))
          CFI CFA_SP SP+0
          CFI CFA_XSP16 add(XSP16, 10)
        ; Saved register size: 10
        ; Auto size: 23
        MOV     A,#-0x17
        LCALL   ?ALLOC_XSTACK8
          CFI CFA_XSP16 add(XSP16, 33)
// 2530   uint8            action;
// 2531   uint8            restart;
// 2532   uint16           index;
// 2533   AddrMgrEntry_t   entry;
// 2534   ZDSecMgrDevice_t device;
// 2535 
// 2536 
// 2537   // verify data is available
// 2538   if ( ZDSecMgrCtrlData != NULL )
        MOV     DPTR,#ZDSecMgrCtrlData
        MOVX    A,@DPTR
        MOV     R0,A
        INC     DPTR
        MOVX    A,@DPTR
        MOV     R1,A
        MOV     A,R0
        ORL     A,R1
        JNZ     $+5
        LJMP    ??ZDSecMgrEvent_0 & 0xFFFF
// 2539   {
// 2540     action  = FALSE;
        MOV     ?V0 + 0,#0x0
// 2541     restart = FALSE;
        MOV     ?V0 + 1,#0x0
// 2542 
// 2543     // update all the counters
// 2544     for ( index = 0; index < ZDSECMGR_ENTRY_MAX; index++ )
        MOV     R6,#0x0
        MOV     R7,#0x0
??ZDSecMgrEvent_1:
        CLR     C
        MOV     A,R6
        SUBB    A,#0x3
        MOV     A,R7
        SUBB    A,#0x0
        JC      $+5
        LJMP    ??ZDSecMgrEvent_2 & 0xFFFF
// 2545     {
// 2546       if ( ZDSecMgrCtrlData[index].state !=  ZDSECMGR_CTRL_NONE )
        MOV     A,R6
        MOV     R0,A
        MOV     A,R7
        MOV     R1,A
        MOV     A,R0
        MOV     B,#0x7
        MUL     AB
        XCH     A,R0
        MOV     R2,B
        MOV     B,#0x0
        MUL     AB
        ADD     A,R2
        MOV     R2,A
        MOV     B,#0x7
        MOV     A,R1
        MUL     AB
        ADD     A,R2
        MOV     R1,A
        MOV     DPTR,#ZDSecMgrCtrlData
        MOVX    A,@DPTR
        ADD     A,R0
        MOV     R2,A
        INC     DPTR
        MOVX    A,@DPTR
        ADDC    A,R1
        MOV     DPL,R2
        MOV     DPH,A
        INC     DPTR
        INC     DPTR
        INC     DPTR
        INC     DPTR
        INC     DPTR
        MOVX    A,@DPTR
        JNZ     $+5
        LJMP    ??ZDSecMgrEvent_3 & 0xFFFF
// 2547       {
// 2548         if ( ZDSecMgrCtrlData[index].cntr != 0 )
        MOV     A,R6
        MOV     R0,A
        MOV     A,R7
        MOV     R1,A
        MOV     A,R0
        MOV     B,#0x7
        MUL     AB
        XCH     A,R0
        MOV     R2,B
        MOV     B,#0x0
        MUL     AB
        ADD     A,R2
        MOV     R2,A
        MOV     B,#0x7
        MOV     A,R1
        MUL     AB
        ADD     A,R2
        MOV     R1,A
        MOV     DPTR,#ZDSecMgrCtrlData
        MOVX    A,@DPTR
        ADD     A,R0
        MOV     R2,A
        INC     DPTR
        MOVX    A,@DPTR
        ADDC    A,R1
        MOV     DPL,R2
        MOV     DPH,A
        INC     DPTR
        INC     DPTR
        INC     DPTR
        INC     DPTR
        INC     DPTR
        INC     DPTR
        MOVX    A,@DPTR
        JZ      ??ZDSecMgrEvent_4
// 2549         {
// 2550           ZDSecMgrCtrlData[index].cntr--;
        MOV     A,R6
        MOV     R0,A
        MOV     A,R7
        MOV     R1,A
        MOV     A,R0
        MOV     B,#0x7
        MUL     AB
        XCH     A,R0
        MOV     R2,B
        MOV     B,#0x0
        MUL     AB
        ADD     A,R2
        MOV     R2,A
        MOV     B,#0x7
        MOV     A,R1
        MUL     AB
        ADD     A,R2
        MOV     R1,A
        MOV     DPTR,#ZDSecMgrCtrlData
        MOVX    A,@DPTR
        ADD     A,R0
        MOV     R2,A
        INC     DPTR
        MOVX    A,@DPTR
        ADDC    A,R1
        MOV     DPL,R2
        MOV     DPH,A
        INC     DPTR
        INC     DPTR
        INC     DPTR
        INC     DPTR
        INC     DPTR
        INC     DPTR
        MOVX    A,@DPTR
        ADD     A,#-0x1
        MOVX    @DPTR,A
// 2551         }
// 2552 
// 2553         if ( ( action == FALSE ) && ( ZDSecMgrCtrlData[index].cntr == 0 ) )
??ZDSecMgrEvent_4:
        MOV     A,?V0 + 0
        JZ      $+5
        LJMP    ??ZDSecMgrEvent_5 & 0xFFFF
        MOV     A,R6
        MOV     R0,A
        MOV     A,R7
        MOV     R1,A
        MOV     A,R0
        MOV     B,#0x7
        MUL     AB
        XCH     A,R0
        MOV     R2,B
        MOV     B,#0x0
        MUL     AB
        ADD     A,R2
        MOV     R2,A
        MOV     B,#0x7
        MOV     A,R1
        MUL     AB
        ADD     A,R2
        MOV     R1,A
        MOV     DPTR,#ZDSecMgrCtrlData
        MOVX    A,@DPTR
        ADD     A,R0
        MOV     R2,A
        INC     DPTR
        MOVX    A,@DPTR
        ADDC    A,R1
        MOV     DPL,R2
        MOV     DPH,A
        INC     DPTR
        INC     DPTR
        INC     DPTR
        INC     DPTR
        INC     DPTR
        INC     DPTR
        MOVX    A,@DPTR
        JZ      $+5
        LJMP    ??ZDSecMgrEvent_5 & 0xFFFF
// 2554         {
// 2555           action = TRUE;
        MOV     ?V0 + 0,#0x1
// 2556 
// 2557           // update from control data
// 2558           device.parentAddr = ZDSecMgrCtrlData[index].parentAddr;
        MOV     A,R6
        MOV     R0,A
        MOV     A,R7
        MOV     R1,A
        MOV     A,R0
        MOV     B,#0x7
        MUL     AB
        XCH     A,R0
        MOV     R2,B
        MOV     B,#0x0
        MUL     AB
        ADD     A,R2
        MOV     R2,A
        MOV     B,#0x7
        MOV     A,R1
        MUL     AB
        ADD     A,R2
        MOV     R1,A
        MOV     DPTR,#ZDSecMgrCtrlData
        MOVX    A,@DPTR
        ADD     A,R0
        MOV     R2,A
        INC     DPTR
        MOVX    A,@DPTR
        ADDC    A,R1
        MOV     DPL,R2
        MOV     DPH,A
        INC     DPTR
        INC     DPTR
        MOVX    A,@DPTR
        MOV     R0,A
        INC     DPTR
        MOVX    A,@DPTR
        MOV     R1,A
        MOV     A,#0x4
        LCALL   ?XSTACK_DISP0_8
        MOV     A,R0
        MOVX    @DPTR,A
        INC     DPTR
        MOV     A,R1
        MOVX    @DPTR,A
// 2559           device.secure     = ZDSecMgrCtrlData[index].secure;
        MOV     A,R6
        MOV     R0,A
        MOV     A,R7
        MOV     R1,A
        MOV     A,R0
        MOV     B,#0x7
        MUL     AB
        XCH     A,R0
        MOV     R2,B
        MOV     B,#0x0
        MUL     AB
        ADD     A,R2
        MOV     R2,A
        MOV     B,#0x7
        MOV     A,R1
        MUL     AB
        ADD     A,R2
        MOV     R1,A
        MOV     DPTR,#ZDSecMgrCtrlData
        MOVX    A,@DPTR
        ADD     A,R0
        MOV     R2,A
        INC     DPTR
        MOVX    A,@DPTR
        ADDC    A,R1
        MOV     DPL,R2
        MOV     DPH,A
        INC     DPTR
        INC     DPTR
        INC     DPTR
        INC     DPTR
        MOVX    A,@DPTR
        PUSH    A
          CFI CFA_SP SP+-1
        MOV     A,#0x6
        LCALL   ?XSTACK_DISP0_8
        POP     A
          CFI CFA_SP SP+0
        MOVX    @DPTR,A
// 2560           device.ctrl       = &ZDSecMgrCtrlData[index];
        MOV     A,R6
        MOV     R0,A
        MOV     A,R7
        MOV     R1,A
        MOV     A,R0
        MOV     B,#0x7
        MUL     AB
        XCH     A,R0
        MOV     R2,B
        MOV     B,#0x0
        MUL     AB
        ADD     A,R2
        MOV     R2,A
        MOV     B,#0x7
        MOV     A,R1
        MUL     AB
        ADD     A,R2
        MOV     R1,A
        MOV     DPTR,#ZDSecMgrCtrlData
        MOVX    A,@DPTR
        ADD     A,R0
        MOV     R0,A
        INC     DPTR
        MOVX    A,@DPTR
        ADDC    A,R1
        MOV     R1,A
        MOV     A,#0x8
        LCALL   ?XSTACK_DISP0_8
        MOV     A,R0
        MOVX    @DPTR,A
        INC     DPTR
        MOV     A,R1
        MOVX    @DPTR,A
// 2561 
// 2562           // set the user and address index
// 2563           entry.user  = ADDRMGR_USER_SECURITY;
        MOV     A,#0xa
        LCALL   ?XSTACK_DISP0_8
        MOV     A,#0x2
        MOVX    @DPTR,A
// 2564           entry.index = ZDSecMgrCtrlData[index].entry->ami;
        MOV     A,R6
        MOV     R0,A
        MOV     A,R7
        MOV     R1,A
        MOV     A,R0
        MOV     B,#0x7
        MUL     AB
        XCH     A,R0
        MOV     R2,B
        MOV     B,#0x0
        MUL     AB
        ADD     A,R2
        MOV     R2,A
        MOV     B,#0x7
        MOV     A,R1
        MUL     AB
        ADD     A,R2
        MOV     R1,A
        MOV     DPTR,#ZDSecMgrCtrlData
        MOVX    A,@DPTR
        ADD     A,R0
        MOV     R2,A
        INC     DPTR
        MOVX    A,@DPTR
        ADDC    A,R1
        MOV     DPL,R2
        MOV     DPH,A
        MOVX    A,@DPTR
        MOV     R0,A
        INC     DPTR
        MOVX    A,@DPTR
        MOV     DPH,A
        MOV     DPL,R0
        MOVX    A,@DPTR
        MOV     R0,A
        INC     DPTR
        MOVX    A,@DPTR
        MOV     R1,A
        MOV     A,#0x15
        LCALL   ?XSTACK_DISP0_8
        MOV     A,R0
        MOVX    @DPTR,A
        INC     DPTR
        MOV     A,R1
        MOVX    @DPTR,A
// 2565 
// 2566           // get the address data
// 2567           AddrMgrEntryGet( &entry );
        ; Setup parameters for call to function AddrMgrEntryGet
        MOV     A,#0xa
        LCALL   ?XSTACK_DISP0_8
        MOV     R2,DPL
        MOV     R3,DPH
        LCALL   ??AddrMgrEntryGet?relay
        MOV     A,R1
// 2568 
// 2569           // set device address data
// 2570           device.nwkAddr = entry.nwkAddr;
        MOV     A,#0xb
        LCALL   ?XSTACK_DISP0_8
        MOVX    A,@DPTR
        MOV     R0,A
        INC     DPTR
        MOVX    A,@DPTR
        MOV     R1,A
        MOV     DPL,?XSP + 0
        MOV     DPH,?XSP + 1
        MOV     A,R0
        MOVX    @DPTR,A
        INC     DPTR
        MOV     A,R1
        MOVX    @DPTR,A
// 2571           device.extAddr = entry.extAddr;
        MOV     A,#0xd
        LCALL   ?XSTACK_DISP0_8
        MOV     R0,DPL
        MOV     R1,DPH
        MOV     A,#0x2
        LCALL   ?XSTACK_DISP0_8
        MOV     A,R0
        MOVX    @DPTR,A
        INC     DPTR
        MOV     A,R1
        MOVX    @DPTR,A
// 2572 
// 2573           // update from entry data
// 2574           ZDSecMgrDeviceCtrlHandler( &device );
        ; Setup parameters for call to function ZDSecMgrDeviceCtrlHandler
        MOV     DPL,?XSP + 0
        MOV     DPH,?XSP + 1
        MOV     R2,DPL
        MOV     R3,DPH
        LCALL   ??ZDSecMgrDeviceCtrlHandler?relay
        SJMP    ??ZDSecMgrEvent_3
// 2575         }
// 2576         else
// 2577         {
// 2578           restart = TRUE;
??ZDSecMgrEvent_5:
        MOV     ?V0 + 1,#0x1
// 2579         }
// 2580       }
// 2581     }
??ZDSecMgrEvent_3:
        MOV     A,R6
        ADD     A,#0x1
        MOV     R6,A
        MOV     A,R7
        ADDC    A,#0x0
        MOV     R7,A
        LJMP    ??ZDSecMgrEvent_1 & 0xFFFF
// 2582 
// 2583     // check for timer restart
// 2584     if ( restart == TRUE )
??ZDSecMgrEvent_2:
        MOV     A,#0x1
        XRL     A,?V0 + 1
        JNZ     ??ZDSecMgrEvent_0
// 2585     {
// 2586       osal_start_timerEx(ZDAppTaskID, ZDO_SECMGR_EVENT, 100 );
        ; Setup parameters for call to function osal_start_timerEx
        MOV     R4,#0x64
        MOV     R5,#0x0
        MOV     R2,#0x0
        MOV     R3,#0x1
        MOV     DPTR,#ZDAppTaskID
        MOVX    A,@DPTR
        MOV     R1,A
        LCALL   ??osal_start_timerEx?relay
        MOV     A,R1
// 2587     }
// 2588   }
// 2589 }
??ZDSecMgrEvent_0:
        MOV     A,#0x17
        LCALL   ?DEALLOC_XSTACK8
          CFI CFA_XSP16 add(XSP16, 10)
        MOV     R7,#0x2
        LJMP    ?BANKED_LEAVE_XDATA
          CFI EndBlock cfiBlock50
// 2590 
// 2591 /******************************************************************************
// 2592  * @fn          ZDSecMgrEstablishKeyCfm
// 2593  *
// 2594  * @brief       Process the ZDO_EstablishKeyCfm_t message.
// 2595  *
// 2596  * @param       cfm - [in] ZDO_EstablishKeyCfm_t confirmation
// 2597  *
// 2598  * @return      none
// 2599  */

        RSEG BANKED_CODE:CODE:NOROOT(0)
// 2600 void ZDSecMgrEstablishKeyCfm( ZDO_EstablishKeyCfm_t* cfm )
ZDSecMgrEstablishKeyCfm:
          CFI Block cfiBlock51 Using cfiCommon0
          CFI Function ZDSecMgrEstablishKeyCfm
        CODE
// 2601 {
        FUNCALL ZDSecMgrEstablishKeyCfm, ZDSecMgrDeviceCtrlUpdate
        LOCFRAME ISTACK, 0, STACK
        LOCFRAME PSTACK, 0, STACK
        LOCFRAME XSTACK, 9, STACK
        LOCFRAME IOVERLAY, 0, STATIC
        LOCFRAME DOVERLAY, 0, STATIC
        ARGFRAME ISTACK, 0, STACK
        ARGFRAME PSTACK, 0, STACK
        ARGFRAME XSTACK, 9, STACK
        ARGFRAME IOVERLAY, 0, STATIC
        ARGFRAME DOVERLAY, 0, STATIC
        MOV     A,#-0x9
        LCALL   ?BANKED_ENTER_XDATA
          CFI DPH0 load(1, XDATA, add(CFA_XSP16, literal(-1)))
          CFI DPL0 load(1, XDATA, add(CFA_XSP16, literal(-2)))
          CFI ?BRET_EXT load(1, XDATA, add(CFA_XSP16, literal(-3)))
          CFI ?RET_HIGH load(1, XDATA, add(CFA_XSP16, literal(-4)))
          CFI ?RET_LOW load(1, XDATA, add(CFA_XSP16, literal(-5)))
          CFI R7 load(1, XDATA, add(CFA_XSP16, literal(-6)))
          CFI V0 load(1, XDATA, add(CFA_XSP16, literal(-7)))
          CFI VB load(1, XDATA, add(CFA_XSP16, literal(-8)))
          CFI R6 load(1, XDATA, add(CFA_XSP16, literal(-9)))
          CFI CFA_SP SP+0
          CFI CFA_XSP16 add(XSP16, 9)
        ; Saved register size: 9
        ; Auto size: 0
        MOV     A,R2
        MOV     R6,A
        MOV     A,R3
        MOV     R7,A
// 2602   // send the NWK key
// 2603   if ( ( ZG_BUILD_COORDINATOR_TYPE ) && ( ZG_DEVICE_COORDINATOR_TYPE ) )
// 2604   {
// 2605     // update control for specified EXT address
// 2606     ZDSecMgrDeviceCtrlUpdate( cfm->partExtAddr, ZDSECMGR_CTRL_SKKE_DONE );
        ; Setup parameters for call to function ZDSecMgrDeviceCtrlUpdate
        MOV     R1,#0x5
        MOV     A,R6
        ADD     A,#0x2
        MOV     R2,A
        MOV     A,R7
        ADDC    A,#0x0
        MOV     R3,A
        LCALL   ??ZDSecMgrDeviceCtrlUpdate?relay
// 2607   }
// 2608   else
// 2609   {
// 2610     // this should be done when receiving the NWK key
// 2611     // if devState ==
// 2612     //if ( devState == DEV_END_DEVICE_UNAUTH )
// 2613         //osal_set_event( ZDAppTaskID, ZDO_DEVICE_AUTH );
// 2614 
// 2615     // if not in joining state -- this should trigger an event for an
// 2616     // end point that requested SKKE
// 2617     // if ( devState == DEV_END_DEVICE )
// 2618    //       devState == DEV_ROUTER;
// 2619 
// 2620   }
// 2621 }
        MOV     R7,#0x1
        LJMP    ?BANKED_LEAVE_XDATA
          CFI EndBlock cfiBlock51
// 2622 
// 2623 uint8 ZDSecMgrTCExtAddrCheck( uint8* extAddr );

        RSEG BANKED_CODE:CODE:NOROOT(0)
// 2624 uint8 ZDSecMgrTCExtAddrCheck( uint8* extAddr )
ZDSecMgrTCExtAddrCheck:
          CFI Block cfiBlock52 Using cfiCommon0
          CFI Function ZDSecMgrTCExtAddrCheck
        CODE
// 2625 {
        FUNCALL ZDSecMgrTCExtAddrCheck, AddrMgrExtAddrLookup
        LOCFRAME ISTACK, 0, STACK
        LOCFRAME PSTACK, 0, STACK
        LOCFRAME XSTACK, 17, STACK
        LOCFRAME IOVERLAY, 0, STATIC
        LOCFRAME DOVERLAY, 0, STATIC
        ARGFRAME ISTACK, 0, STACK
        ARGFRAME PSTACK, 0, STACK
        ARGFRAME XSTACK, 17, STACK
        ARGFRAME IOVERLAY, 0, STATIC
        ARGFRAME DOVERLAY, 0, STATIC
        FUNCALL ZDSecMgrTCExtAddrCheck, AddrMgrExtAddrEqual
        LOCFRAME ISTACK, 0, STACK
        LOCFRAME PSTACK, 0, STACK
        LOCFRAME XSTACK, 17, STACK
        LOCFRAME IOVERLAY, 0, STATIC
        LOCFRAME DOVERLAY, 0, STATIC
        ARGFRAME ISTACK, 0, STACK
        ARGFRAME PSTACK, 0, STACK
        ARGFRAME XSTACK, 17, STACK
        ARGFRAME IOVERLAY, 0, STATIC
        ARGFRAME DOVERLAY, 0, STATIC
        MOV     A,#-0x9
        LCALL   ?BANKED_ENTER_XDATA
          CFI DPH0 load(1, XDATA, add(CFA_XSP16, literal(-1)))
          CFI DPL0 load(1, XDATA, add(CFA_XSP16, literal(-2)))
          CFI ?BRET_EXT load(1, XDATA, add(CFA_XSP16, literal(-3)))
          CFI ?RET_HIGH load(1, XDATA, add(CFA_XSP16, literal(-4)))
          CFI ?RET_LOW load(1, XDATA, add(CFA_XSP16, literal(-5)))
          CFI R7 load(1, XDATA, add(CFA_XSP16, literal(-6)))
          CFI V0 load(1, XDATA, add(CFA_XSP16, literal(-7)))
          CFI VB load(1, XDATA, add(CFA_XSP16, literal(-8)))
          CFI R6 load(1, XDATA, add(CFA_XSP16, literal(-9)))
          CFI CFA_SP SP+0
          CFI CFA_XSP16 add(XSP16, 9)
        ; Saved register size: 9
        ; Auto size: 8
        MOV     A,#-0x8
        LCALL   ?ALLOC_XSTACK8
          CFI CFA_XSP16 add(XSP16, 17)
        MOV     A,R2
        MOV     R6,A
        MOV     A,R3
        MOV     R7,A
// 2626   uint8  match;
// 2627   uint8  lookup[Z_EXTADDR_LEN];
// 2628 
// 2629   match = FALSE;
        MOV     ?V0 + 0,#0x0
// 2630 
// 2631   if ( AddrMgrExtAddrLookup( APSME_TRUSTCENTER_NWKADDR, lookup ) )
        ; Setup parameters for call to function AddrMgrExtAddrLookup
        MOV     DPL,?XSP + 0
        MOV     DPH,?XSP + 1
        MOV     R4,DPL
        MOV     R5,DPH
        MOV     R2,#0x0
        MOV     R3,#0x0
        LCALL   ??AddrMgrExtAddrLookup?relay
        MOV     A,R1
        JZ      ??ZDSecMgrTCExtAddrCheck_0
// 2632   {
// 2633     match = AddrMgrExtAddrEqual( lookup, extAddr );
        ; Setup parameters for call to function AddrMgrExtAddrEqual
        MOV     A,R6
        MOV     R4,A
        MOV     A,R7
        MOV     R5,A
        MOV     DPL,?XSP + 0
        MOV     DPH,?XSP + 1
        MOV     R2,DPL
        MOV     R3,DPH
        LCALL   ??AddrMgrExtAddrEqual?relay
        MOV     A,R1
        MOV     ?V0 + 0,A
// 2634   }
// 2635 
// 2636   return match;
??ZDSecMgrTCExtAddrCheck_0:
        MOV     R1,?V0 + 0
        MOV     A,#0x8
        LCALL   ?DEALLOC_XSTACK8
          CFI CFA_XSP16 add(XSP16, 9)
        MOV     R7,#0x1
        LJMP    ?BANKED_LEAVE_XDATA
          CFI EndBlock cfiBlock52
// 2637 }
// 2638 
// 2639 void ZDSecMgrTCDataLoad( uint8* extAddr );

        RSEG BANKED_CODE:CODE:NOROOT(0)
// 2640 void ZDSecMgrTCDataLoad( uint8* extAddr )
ZDSecMgrTCDataLoad:
          CFI Block cfiBlock53 Using cfiCommon0
          CFI Function ZDSecMgrTCDataLoad
        CODE
// 2641 {
        FUNCALL ZDSecMgrTCDataLoad, ZDSecMgrAddrStore
        LOCFRAME ISTACK, 0, STACK
        LOCFRAME PSTACK, 0, STACK
        LOCFRAME XSTACK, 16, STACK
        LOCFRAME IOVERLAY, 0, STATIC
        LOCFRAME DOVERLAY, 0, STATIC
        ARGFRAME ISTACK, 0, STACK
        ARGFRAME PSTACK, 0, STACK
        ARGFRAME XSTACK, 16, STACK
        ARGFRAME IOVERLAY, 0, STATIC
        ARGFRAME DOVERLAY, 0, STATIC
        FUNCALL ZDSecMgrTCDataLoad, ZDSecMgrMasterKeyLookup
        LOCFRAME ISTACK, 0, STACK
        LOCFRAME PSTACK, 0, STACK
        LOCFRAME XSTACK, 14, STACK
        LOCFRAME IOVERLAY, 0, STATIC
        LOCFRAME DOVERLAY, 0, STATIC
        ARGFRAME ISTACK, 0, STACK
        ARGFRAME PSTACK, 0, STACK
        ARGFRAME XSTACK, 14, STACK
        ARGFRAME IOVERLAY, 0, STATIC
        ARGFRAME DOVERLAY, 0, STATIC
        FUNCALL ZDSecMgrTCDataLoad, ZDSecMgrMasterKeyStore
        LOCFRAME ISTACK, 0, STACK
        LOCFRAME PSTACK, 0, STACK
        LOCFRAME XSTACK, 14, STACK
        LOCFRAME IOVERLAY, 0, STATIC
        LOCFRAME DOVERLAY, 0, STATIC
        ARGFRAME ISTACK, 0, STACK
        ARGFRAME PSTACK, 0, STACK
        ARGFRAME XSTACK, 14, STACK
        ARGFRAME IOVERLAY, 0, STATIC
        ARGFRAME DOVERLAY, 0, STATIC
        MOV     A,#-0xa
        LCALL   ?BANKED_ENTER_XDATA
          CFI DPH0 load(1, XDATA, add(CFA_XSP16, literal(-1)))
          CFI DPL0 load(1, XDATA, add(CFA_XSP16, literal(-2)))
          CFI ?BRET_EXT load(1, XDATA, add(CFA_XSP16, literal(-3)))
          CFI ?RET_HIGH load(1, XDATA, add(CFA_XSP16, literal(-4)))
          CFI ?RET_LOW load(1, XDATA, add(CFA_XSP16, literal(-5)))
          CFI R7 load(1, XDATA, add(CFA_XSP16, literal(-6)))
          CFI V1 load(1, XDATA, add(CFA_XSP16, literal(-7)))
          CFI V0 load(1, XDATA, add(CFA_XSP16, literal(-8)))
          CFI VB load(1, XDATA, add(CFA_XSP16, literal(-9)))
          CFI R6 load(1, XDATA, add(CFA_XSP16, literal(-10)))
          CFI CFA_SP SP+0
          CFI CFA_XSP16 add(XSP16, 10)
        ; Saved register size: 10
        ; Auto size: 4
        MOV     A,#-0x4
        LCALL   ?ALLOC_XSTACK8
          CFI CFA_XSP16 add(XSP16, 14)
        MOV     A,R2
        MOV     R6,A
        MOV     A,R3
        MOV     R7,A
// 2642   uint16 ami;
// 2643   uint8* key;
// 2644 
// 2645   if ( !ZDSecMgrTCDataLoaded )
        MOV     DPTR,#ZDSecMgrTCDataLoaded
        MOVX    A,@DPTR
        JNZ     ??ZDSecMgrTCDataLoad_0
// 2646   {
// 2647     if ( ZDSecMgrAddrStore( APSME_TRUSTCENTER_NWKADDR, extAddr, &ami ) == ZSuccess )
        ; Setup parameters for call to function ZDSecMgrAddrStore
        MOV     DPL,?XSP + 0
        MOV     DPH,?XSP + 1
        MOV     ?V0 + 0,DPL
        MOV     ?V0 + 1,DPH
        MOV     R0,#?V0 + 0
        LCALL   ?PUSH_XSTACK_I_TWO
          CFI CFA_XSP16 add(XSP16, 16)
        MOV     A,R6
        MOV     R4,A
        MOV     A,R7
        MOV     R5,A
        MOV     R2,#0x0
        MOV     R3,#0x0
        LCALL   ??ZDSecMgrAddrStore?relay
        MOV     A,#0x2
        LCALL   ?DEALLOC_XSTACK8
          CFI CFA_XSP16 add(XSP16, 14)
        MOV     A,R1
        JNZ     ??ZDSecMgrTCDataLoad_1
// 2648     {
// 2649       // if preconfigured load key
// 2650       if ( zgPreConfigKeys == TRUE )
        MOV     DPTR,#zgPreConfigKeys
        MOVX    A,@DPTR
        XRL     A,#0x1
        JNZ     ??ZDSecMgrTCDataLoad_1
// 2651       {
// 2652         if ( ZDSecMgrMasterKeyLookup( ami, &key ) != ZSuccess )
        ; Setup parameters for call to function ZDSecMgrMasterKeyLookup
        MOV     A,#0x2
        LCALL   ?XSTACK_DISP0_8
        MOV     R4,DPL
        MOV     R5,DPH
        MOV     DPL,?XSP + 0
        MOV     DPH,?XSP + 1
        MOVX    A,@DPTR
        MOV     R2,A
        INC     DPTR
        MOVX    A,@DPTR
        MOV     R3,A
        LCALL   ??ZDSecMgrMasterKeyLookup?relay
        MOV     A,R1
        JZ      ??ZDSecMgrTCDataLoad_1
// 2653         {
// 2654           ZDSecMgrMasterKeyStore( ami, ZDSecMgrTCMasterKey );
        ; Setup parameters for call to function ZDSecMgrMasterKeyStore
        MOV     R4,#ZDSecMgrTCMasterKey & 0xff
        MOV     R5,#(ZDSecMgrTCMasterKey >> 8) & 0xff
        MOV     DPL,?XSP + 0
        MOV     DPH,?XSP + 1
        MOVX    A,@DPTR
        MOV     R2,A
        INC     DPTR
        MOVX    A,@DPTR
        MOV     R3,A
        LCALL   ??ZDSecMgrMasterKeyStore?relay
        MOV     A,R1
// 2655         }
// 2656       }
// 2657     }
// 2658 
// 2659     ZDSecMgrTCDataLoaded = TRUE;
??ZDSecMgrTCDataLoad_1:
        MOV     DPTR,#ZDSecMgrTCDataLoaded
        MOV     A,#0x1
        MOVX    @DPTR,A
// 2660   }
// 2661 }
??ZDSecMgrTCDataLoad_0:
        MOV     A,#0x4
        LCALL   ?DEALLOC_XSTACK8
          CFI CFA_XSP16 add(XSP16, 10)
        MOV     R7,#0x2
        LJMP    ?BANKED_LEAVE_XDATA
          CFI EndBlock cfiBlock53
// 2662 
// 2663 /******************************************************************************
// 2664  * @fn          ZDSecMgrEstablishKeyInd
// 2665  *
// 2666  * @brief       Process the ZDO_EstablishKeyInd_t message.
// 2667  *
// 2668  * @param       ind - [in] ZDO_EstablishKeyInd_t indication
// 2669  *
// 2670  * @return      none
// 2671  */

        RSEG BANKED_CODE:CODE:NOROOT(0)
// 2672 void ZDSecMgrEstablishKeyInd( ZDO_EstablishKeyInd_t* ind )
ZDSecMgrEstablishKeyInd:
          CFI Block cfiBlock54 Using cfiCommon0
          CFI Function ZDSecMgrEstablishKeyInd
        CODE
// 2673 {
        FUNCALL ZDSecMgrEstablishKeyInd, ZDSecMgrTCDataLoad
        LOCFRAME ISTACK, 0, STACK
        LOCFRAME PSTACK, 0, STACK
        LOCFRAME XSTACK, 26, STACK
        LOCFRAME IOVERLAY, 0, STATIC
        LOCFRAME DOVERLAY, 0, STATIC
        ARGFRAME ISTACK, 0, STACK
        ARGFRAME PSTACK, 0, STACK
        ARGFRAME XSTACK, 26, STACK
        ARGFRAME IOVERLAY, 0, STATIC
        ARGFRAME DOVERLAY, 0, STATIC
        FUNCALL ZDSecMgrEstablishKeyInd, ZDSecMgrTCExtAddrCheck
        LOCFRAME ISTACK, 0, STACK
        LOCFRAME PSTACK, 0, STACK
        LOCFRAME XSTACK, 26, STACK
        LOCFRAME IOVERLAY, 0, STATIC
        LOCFRAME DOVERLAY, 0, STATIC
        ARGFRAME ISTACK, 0, STACK
        ARGFRAME PSTACK, 0, STACK
        ARGFRAME XSTACK, 26, STACK
        ARGFRAME IOVERLAY, 0, STATIC
        ARGFRAME DOVERLAY, 0, STATIC
        FUNCALL ZDSecMgrEstablishKeyInd, ZDSecMgrDeviceValidateSKKE
        LOCFRAME ISTACK, 0, STACK
        LOCFRAME PSTACK, 0, STACK
        LOCFRAME XSTACK, 26, STACK
        LOCFRAME IOVERLAY, 0, STATIC
        LOCFRAME DOVERLAY, 0, STATIC
        ARGFRAME ISTACK, 0, STACK
        ARGFRAME PSTACK, 0, STACK
        ARGFRAME XSTACK, 26, STACK
        ARGFRAME IOVERLAY, 0, STATIC
        ARGFRAME DOVERLAY, 0, STATIC
        FUNCALL ZDSecMgrEstablishKeyInd, APSME_EstablishKeyRsp
        LOCFRAME ISTACK, 0, STACK
        LOCFRAME PSTACK, 0, STACK
        LOCFRAME XSTACK, 26, STACK
        LOCFRAME IOVERLAY, 0, STATIC
        LOCFRAME DOVERLAY, 0, STATIC
        ARGFRAME ISTACK, 0, STACK
        ARGFRAME PSTACK, 0, STACK
        ARGFRAME XSTACK, 26, STACK
        ARGFRAME IOVERLAY, 0, STATIC
        ARGFRAME DOVERLAY, 0, STATIC
        MOV     A,#-0x9
        LCALL   ?BANKED_ENTER_XDATA
          CFI DPH0 load(1, XDATA, add(CFA_XSP16, literal(-1)))
          CFI DPL0 load(1, XDATA, add(CFA_XSP16, literal(-2)))
          CFI ?BRET_EXT load(1, XDATA, add(CFA_XSP16, literal(-3)))
          CFI ?RET_HIGH load(1, XDATA, add(CFA_XSP16, literal(-4)))
          CFI ?RET_LOW load(1, XDATA, add(CFA_XSP16, literal(-5)))
          CFI R7 load(1, XDATA, add(CFA_XSP16, literal(-6)))
          CFI V0 load(1, XDATA, add(CFA_XSP16, literal(-7)))
          CFI VB load(1, XDATA, add(CFA_XSP16, literal(-8)))
          CFI R6 load(1, XDATA, add(CFA_XSP16, literal(-9)))
          CFI CFA_SP SP+0
          CFI CFA_XSP16 add(XSP16, 9)
        ; Saved register size: 9
        ; Auto size: 17
        MOV     A,#-0x11
        LCALL   ?ALLOC_XSTACK8
          CFI CFA_XSP16 add(XSP16, 26)
        MOV     A,R2
        MOV     R6,A
        MOV     A,R3
        MOV     R7,A
// 2674   ZDSecMgrDevice_t        device;
// 2675   APSME_EstablishKeyRsp_t rsp;
// 2676 
// 2677 
// 2678   // load Trust Center data if needed
// 2679   ZDSecMgrTCDataLoad( ind->initExtAddr );
        ; Setup parameters for call to function ZDSecMgrTCDataLoad
        MOV     A,R6
        ADD     A,#0x4
        MOV     R2,A
        MOV     A,R7
        ADDC    A,#0x0
        MOV     R3,A
        LCALL   ??ZDSecMgrTCDataLoad?relay
// 2680 
// 2681   if ( ZDSecMgrTCExtAddrCheck( ind->initExtAddr ) )
        ; Setup parameters for call to function ZDSecMgrTCExtAddrCheck
        MOV     A,R6
        ADD     A,#0x4
        MOV     R2,A
        MOV     A,R7
        ADDC    A,#0x0
        MOV     R3,A
        LCALL   ??ZDSecMgrTCExtAddrCheck?relay
        MOV     A,R1
        JZ      ??ZDSecMgrEstablishKeyInd_0
// 2682   {
// 2683     //IF (ind->srcAddr == APSME_TRUSTCENTER_NWKADDR)
// 2684     //OR
// 2685     //!ZDSecMgrTCAuthenticated
// 2686     //devtag.0604.critical
// 2687         //how is the parentAddr used here
// 2688 
// 2689     // initial SKKE from Trust Center via parent
// 2690     device.nwkAddr    = APSME_TRUSTCENTER_NWKADDR;
        MOV     A,#0x7
        LCALL   ?XSTACK_DISP0_8
        MOV     A,#0x0
        MOVX    @DPTR,A
        INC     DPTR
        MOV     A,#0x0
        MOVX    @DPTR,A
// 2691     device.parentAddr = ind->srcAddr;
        MOV     DPL,R6
        MOV     DPH,R7
        INC     DPTR
        INC     DPTR
        MOVX    A,@DPTR
        MOV     R0,A
        INC     DPTR
        MOVX    A,@DPTR
        MOV     R1,A
        MOV     A,#0xb
        LCALL   ?XSTACK_DISP0_8
        MOV     A,R0
        MOVX    @DPTR,A
        INC     DPTR
        MOV     A,R1
        MOVX    @DPTR,A
        SJMP    ??ZDSecMgrEstablishKeyInd_1
// 2692   }
// 2693   else
// 2694   {
// 2695     // Trust Center direct or E2E SKKE
// 2696     device.nwkAddr    = ind->srcAddr;
??ZDSecMgrEstablishKeyInd_0:
        MOV     DPL,R6
        MOV     DPH,R7
        INC     DPTR
        INC     DPTR
        MOVX    A,@DPTR
        MOV     R0,A
        INC     DPTR
        MOVX    A,@DPTR
        MOV     R1,A
        MOV     A,#0x7
        LCALL   ?XSTACK_DISP0_8
        MOV     A,R0
        MOVX    @DPTR,A
        INC     DPTR
        MOV     A,R1
        MOVX    @DPTR,A
// 2697     device.parentAddr = INVALID_NODE_ADDR;
        MOV     A,#0xb
        LCALL   ?XSTACK_DISP0_8
        MOV     A,#-0x2
        MOVX    @DPTR,A
        INC     DPTR
        MOV     A,#-0x1
        MOVX    @DPTR,A
// 2698   }
// 2699 
// 2700   device.extAddr = ind->initExtAddr;
??ZDSecMgrEstablishKeyInd_1:
        MOV     A,R6
        ADD     A,#0x4
        MOV     R0,A
        MOV     A,R7
        ADDC    A,#0x0
        MOV     R1,A
        MOV     A,#0x9
        LCALL   ?XSTACK_DISP0_8
        MOV     A,R0
        MOVX    @DPTR,A
        INC     DPTR
        MOV     A,R1
        MOVX    @DPTR,A
// 2701   //devtag.pro.security.0724.todo - verify usage
// 2702   device.secure  = ind->nwkSecure;
        MOV     A,R6
        ADD     A,#0xe
        MOV     DPL,A
        MOV     A,R7
        ADDC    A,#0x0
        MOV     DPH,A
        MOVX    A,@DPTR
        PUSH    A
          CFI CFA_SP SP+-1
        MOV     A,#0xd
        LCALL   ?XSTACK_DISP0_8
        POP     A
          CFI CFA_SP SP+0
        MOVX    @DPTR,A
// 2703 
// 2704   // validate device for SKKE
// 2705   if ( ZDSecMgrDeviceValidateSKKE( &device ) == ZSuccess )
        ; Setup parameters for call to function ZDSecMgrDeviceValidateSKKE
        MOV     A,#0x7
        LCALL   ?XSTACK_DISP0_8
        MOV     R2,DPL
        MOV     R3,DPH
        LCALL   ??ZDSecMgrDeviceValidateSKKE?relay
        MOV     A,R1
        JNZ     ??ZDSecMgrEstablishKeyInd_2
// 2706   {
// 2707     rsp.accept = TRUE;
        MOV     A,#0x4
        LCALL   ?XSTACK_DISP0_8
        MOV     A,#0x1
        MOVX    @DPTR,A
        SJMP    ??ZDSecMgrEstablishKeyInd_3
// 2708   }
// 2709   else
// 2710   {
// 2711     rsp.accept = FALSE;
??ZDSecMgrEstablishKeyInd_2:
        MOV     A,#0x4
        LCALL   ?XSTACK_DISP0_8
        MOV     A,#0x0
        MOVX    @DPTR,A
// 2712   }
// 2713 
// 2714   rsp.dstAddr     = ind->srcAddr;
??ZDSecMgrEstablishKeyInd_3:
        MOV     DPL,R6
        MOV     DPH,R7
        INC     DPTR
        INC     DPTR
        MOVX    A,@DPTR
        MOV     R0,A
        INC     DPTR
        MOVX    A,@DPTR
        MOV     R1,A
        MOV     DPL,?XSP + 0
        MOV     DPH,?XSP + 1
        MOV     A,R0
        MOVX    @DPTR,A
        INC     DPTR
        MOV     A,R1
        MOVX    @DPTR,A
// 2715   rsp.initExtAddr = &ind->initExtAddr[0];
        MOV     A,R6
        ADD     A,#0x4
        MOV     R0,A
        MOV     A,R7
        ADDC    A,#0x0
        MOV     R1,A
        MOV     A,#0x2
        LCALL   ?XSTACK_DISP0_8
        MOV     A,R0
        MOVX    @DPTR,A
        INC     DPTR
        MOV     A,R1
        MOVX    @DPTR,A
// 2716   //devtag.0604.todo - remove obsolete
// 2717   rsp.apsSecure   = ind->apsSecure;
        MOV     A,R6
        ADD     A,#0xd
        MOV     DPL,A
        MOV     A,R7
        ADDC    A,#0x0
        MOV     DPH,A
        MOVX    A,@DPTR
        PUSH    A
          CFI CFA_SP SP+-1
        MOV     A,#0x5
        LCALL   ?XSTACK_DISP0_8
        POP     A
          CFI CFA_SP SP+0
        MOVX    @DPTR,A
// 2718   rsp.nwkSecure   = ind->nwkSecure;
        MOV     A,R6
        ADD     A,#0xe
        MOV     DPL,A
        MOV     A,R7
        ADDC    A,#0x0
        MOV     DPH,A
        MOVX    A,@DPTR
        PUSH    A
          CFI CFA_SP SP+-1
        MOV     A,#0x6
        LCALL   ?XSTACK_DISP0_8
        POP     A
          CFI CFA_SP SP+0
        MOVX    @DPTR,A
// 2719 
// 2720   APSME_EstablishKeyRsp( &rsp );
        ; Setup parameters for call to function APSME_EstablishKeyRsp
        MOV     DPL,?XSP + 0
        MOV     DPH,?XSP + 1
        MOV     R2,DPL
        MOV     R3,DPH
        LCALL   ??APSME_EstablishKeyRsp?relay
        MOV     A,R1
// 2721 }
        MOV     A,#0x11
        LCALL   ?DEALLOC_XSTACK8
          CFI CFA_XSP16 add(XSP16, 9)
        MOV     R7,#0x1
        LJMP    ?BANKED_LEAVE_XDATA
          CFI EndBlock cfiBlock54
// 2722 //devtag.pro.security
// 2723 #if 0
// 2724 void ZDSecMgrEstablishKeyInd( ZDO_EstablishKeyInd_t* ind )
// 2725 {
// 2726   ZDSecMgrDevice_t        device;
// 2727   APSME_EstablishKeyRsp_t rsp;
// 2728 
// 2729 
// 2730   device.extAddr = ind->initExtAddr;
// 2731   device.secure  = ind->secure;
// 2732 
// 2733   if ( ind->secure == FALSE )
// 2734   {
// 2735     // SKKE from Trust Center is not secured between child and parent
// 2736     device.nwkAddr    = APSME_TRUSTCENTER_NWKADDR;
// 2737     device.parentAddr = ind->srcAddr;
// 2738   }
// 2739   else
// 2740   {
// 2741     // SKKE from initiator should be secured
// 2742     device.nwkAddr    = ind->srcAddr;
// 2743     device.parentAddr = INVALID_NODE_ADDR;
// 2744   }
// 2745 
// 2746   rsp.dstAddr     = ind->srcAddr;
// 2747   rsp.initExtAddr = &ind->initExtAddr[0];
// 2748   rsp.secure      = ind->secure;
// 2749 
// 2750   // validate device for SKKE
// 2751   if ( ZDSecMgrDeviceValidateSKKE( &device ) == ZSuccess )
// 2752   {
// 2753     rsp.accept = TRUE;
// 2754   }
// 2755   else
// 2756   {
// 2757     rsp.accept = FALSE;
// 2758   }
// 2759 
// 2760   APSME_EstablishKeyRsp( &rsp );
// 2761 }
// 2762 #endif
// 2763 
// 2764 /******************************************************************************
// 2765  * @fn          ZDSecMgrTransportKeyInd
// 2766  *
// 2767  * @brief       Process the ZDO_TransportKeyInd_t message.
// 2768  *
// 2769  * @param       ind - [in] ZDO_TransportKeyInd_t indication
// 2770  *
// 2771  * @return      none
// 2772  */

        RSEG BANKED_CODE:CODE:NOROOT(0)
// 2773 void ZDSecMgrTransportKeyInd( ZDO_TransportKeyInd_t* ind )
ZDSecMgrTransportKeyInd:
          CFI Block cfiBlock55 Using cfiCommon0
          CFI Function ZDSecMgrTransportKeyInd
        CODE
// 2774 {
        FUNCALL ZDSecMgrTransportKeyInd, ZDSecMgrTCDataLoad
        LOCFRAME ISTACK, 0, STACK
        LOCFRAME PSTACK, 0, STACK
        LOCFRAME XSTACK, 11, STACK
        LOCFRAME IOVERLAY, 0, STATIC
        LOCFRAME DOVERLAY, 0, STATIC
        ARGFRAME ISTACK, 0, STACK
        ARGFRAME PSTACK, 0, STACK
        ARGFRAME XSTACK, 11, STACK
        ARGFRAME IOVERLAY, 0, STATIC
        ARGFRAME DOVERLAY, 0, STATIC
        FUNCALL ZDSecMgrTransportKeyInd, SSP_UpdateNwkKey
        LOCFRAME ISTACK, 0, STACK
        LOCFRAME PSTACK, 0, STACK
        LOCFRAME XSTACK, 11, STACK
        LOCFRAME IOVERLAY, 0, STATIC
        LOCFRAME DOVERLAY, 0, STATIC
        ARGFRAME ISTACK, 0, STACK
        ARGFRAME PSTACK, 0, STACK
        ARGFRAME XSTACK, 11, STACK
        ARGFRAME IOVERLAY, 0, STATIC
        ARGFRAME DOVERLAY, 0, STATIC
        FUNCALL ZDSecMgrTransportKeyInd, SSP_SwitchNwkKey
        LOCFRAME ISTACK, 0, STACK
        LOCFRAME PSTACK, 0, STACK
        LOCFRAME XSTACK, 11, STACK
        LOCFRAME IOVERLAY, 0, STATIC
        LOCFRAME DOVERLAY, 0, STATIC
        ARGFRAME ISTACK, 0, STACK
        ARGFRAME PSTACK, 0, STACK
        ARGFRAME XSTACK, 11, STACK
        ARGFRAME IOVERLAY, 0, STATIC
        ARGFRAME DOVERLAY, 0, STATIC
        FUNCALL ZDSecMgrTransportKeyInd, SSP_UpdateNwkKey
        LOCFRAME ISTACK, 0, STACK
        LOCFRAME PSTACK, 0, STACK
        LOCFRAME XSTACK, 11, STACK
        LOCFRAME IOVERLAY, 0, STATIC
        LOCFRAME DOVERLAY, 0, STATIC
        ARGFRAME ISTACK, 0, STACK
        ARGFRAME PSTACK, 0, STACK
        ARGFRAME XSTACK, 11, STACK
        ARGFRAME IOVERLAY, 0, STATIC
        ARGFRAME DOVERLAY, 0, STATIC
        FUNCALL ZDSecMgrTransportKeyInd, SSP_SwitchNwkKey
        LOCFRAME ISTACK, 0, STACK
        LOCFRAME PSTACK, 0, STACK
        LOCFRAME XSTACK, 11, STACK
        LOCFRAME IOVERLAY, 0, STATIC
        LOCFRAME DOVERLAY, 0, STATIC
        ARGFRAME ISTACK, 0, STACK
        ARGFRAME PSTACK, 0, STACK
        ARGFRAME XSTACK, 11, STACK
        ARGFRAME IOVERLAY, 0, STATIC
        ARGFRAME DOVERLAY, 0, STATIC
        FUNCALL ZDSecMgrTransportKeyInd, ZDSecMgrAuthNwkKey
        LOCFRAME ISTACK, 0, STACK
        LOCFRAME PSTACK, 0, STACK
        LOCFRAME XSTACK, 11, STACK
        LOCFRAME IOVERLAY, 0, STATIC
        LOCFRAME DOVERLAY, 0, STATIC
        ARGFRAME ISTACK, 0, STACK
        ARGFRAME PSTACK, 0, STACK
        ARGFRAME XSTACK, 11, STACK
        ARGFRAME IOVERLAY, 0, STATIC
        ARGFRAME DOVERLAY, 0, STATIC
        MOV     A,#-0xb
        LCALL   ?BANKED_ENTER_XDATA
          CFI DPH0 load(1, XDATA, add(CFA_XSP16, literal(-1)))
          CFI DPL0 load(1, XDATA, add(CFA_XSP16, literal(-2)))
          CFI ?BRET_EXT load(1, XDATA, add(CFA_XSP16, literal(-3)))
          CFI ?RET_HIGH load(1, XDATA, add(CFA_XSP16, literal(-4)))
          CFI ?RET_LOW load(1, XDATA, add(CFA_XSP16, literal(-5)))
          CFI R7 load(1, XDATA, add(CFA_XSP16, literal(-6)))
          CFI V2 load(1, XDATA, add(CFA_XSP16, literal(-7)))
          CFI V1 load(1, XDATA, add(CFA_XSP16, literal(-8)))
          CFI V0 load(1, XDATA, add(CFA_XSP16, literal(-9)))
          CFI VB load(1, XDATA, add(CFA_XSP16, literal(-10)))
          CFI R6 load(1, XDATA, add(CFA_XSP16, literal(-11)))
          CFI CFA_SP SP+0
          CFI CFA_XSP16 add(XSP16, 11)
        ; Saved register size: 11
        ; Auto size: 0
        MOV     A,R2
        MOV     R6,A
        MOV     A,R3
        MOV     R7,A
// 2775   uint8 index;
// 2776 
// 2777   // load Trust Center data if needed
// 2778   ZDSecMgrTCDataLoad( ind->srcExtAddr );
        ; Setup parameters for call to function ZDSecMgrTCDataLoad
        MOV     A,R6
        ADD     A,#0x16
        MOV     R2,A
        MOV     A,R7
        ADDC    A,#0x0
        MOV     R3,A
        LCALL   ??ZDSecMgrTCDataLoad?relay
// 2779 
// 2780   if ( ind->keyType == KEY_TYPE_TC_MASTER )
        MOV     DPL,R6
        MOV     DPH,R7
        INC     DPTR
        INC     DPTR
        INC     DPTR
        INC     DPTR
        MOVX    A,@DPTR
        JNZ     $+5
        LJMP    ??ZDSecMgrTransportKeyInd_0 & 0xFFFF
// 2781   {
// 2782     if ( ZG_CHECK_SECURITY_MODE == ZG_SECURITY_PRO_HIGH )
// 2783     //ZDSecMgrTCMasterKey( ind );
// 2784     {
// 2785       if ( zgPreConfigKeys != TRUE )
// 2786       {
// 2787         // devtag.pro.security.todo - check if Trust Center address is configured and correct
// 2788         ZDSecMgrMasterKeyLoad( ind->srcExtAddr, ind->key );
// 2789       }
// 2790       else
// 2791       {
// 2792         // error condition - reject key
// 2793       }
// 2794     }
// 2795   }
// 2796   else if ( ( ind->keyType == KEY_TYPE_NWK      ) ||
// 2797             ( ind->keyType == 6                 ) ||
// 2798             ( ind->keyType == KEY_TYPE_NWK_HIGH )    )
        MOV     DPL,R6
        MOV     DPH,R7
        INC     DPTR
        INC     DPTR
        INC     DPTR
        INC     DPTR
        MOVX    A,@DPTR
        XRL     A,#0x1
        JZ      ??ZDSecMgrTransportKeyInd_1
        MOV     DPL,R6
        MOV     DPH,R7
        INC     DPTR
        INC     DPTR
        INC     DPTR
        INC     DPTR
        MOVX    A,@DPTR
        XRL     A,#0x6
        JZ      ??ZDSecMgrTransportKeyInd_1
        MOV     DPL,R6
        MOV     DPH,R7
        INC     DPTR
        INC     DPTR
        INC     DPTR
        INC     DPTR
        MOVX    A,@DPTR
        XRL     A,#0x5
        JNZ     ??ZDSecMgrTransportKeyInd_2
// 2799   {
// 2800     // check for dummy NWK key (all zeros)
// 2801     for ( index = 0;
??ZDSecMgrTransportKeyInd_1:
        MOV     ?V0 + 2,#0x0
// 2802           ( (index < SEC_KEY_LEN) && (ind->key[index] == 0) );
??ZDSecMgrTransportKeyInd_3:
        MOV     A,?V0 + 2
        CLR     C
        SUBB    A,#0x10
        JNC     ??ZDSecMgrTransportKeyInd_4
        MOV     ?V0 + 0,?V0 + 2
        MOV     ?V0 + 1,#0x0
        MOV     A,R6
        ADD     A,?V0 + 0
        MOV     DPL,A
        MOV     A,R7
        ADDC    A,?V0 + 1
        MOV     DPH,A
        INC     DPTR
        INC     DPTR
        INC     DPTR
        INC     DPTR
        INC     DPTR
        INC     DPTR
        MOVX    A,@DPTR
        JNZ     ??ZDSecMgrTransportKeyInd_4
// 2803           index++ );
        INC     ?V0 + 2
        SJMP    ??ZDSecMgrTransportKeyInd_3
// 2804 
// 2805     if ( index == SEC_KEY_LEN )
??ZDSecMgrTransportKeyInd_4:
        MOV     A,#0x10
        XRL     A,?V0 + 2
        JNZ     ??ZDSecMgrTransportKeyInd_5
// 2806     {
// 2807       // load preconfigured key - once!!
// 2808       if ( !_NIB.nwkKeyLoaded )
        MOV     DPTR,#_NIB + 61
        MOVX    A,@DPTR
        JNZ     ??ZDSecMgrTransportKeyInd_6
// 2809       {
// 2810         SSP_UpdateNwkKey( (byte*)zgPreConfigKey, 0 );
        ; Setup parameters for call to function SSP_UpdateNwkKey
        MOV     R1,#0x0
        MOV     R2,#zgPreConfigKey & 0xff
        MOV     R3,#(zgPreConfigKey >> 8) & 0xff
        LCALL   ??SSP_UpdateNwkKey?relay
// 2811         SSP_SwitchNwkKey( 0 );
        ; Setup parameters for call to function SSP_SwitchNwkKey
        MOV     R1,#0x0
        LCALL   ??SSP_SwitchNwkKey?relay
        SJMP    ??ZDSecMgrTransportKeyInd_6
// 2812       }
// 2813     }
// 2814     else
// 2815     {
// 2816       SSP_UpdateNwkKey( ind->key, ind->keySeqNum );
??ZDSecMgrTransportKeyInd_5:
        ; Setup parameters for call to function SSP_UpdateNwkKey
        MOV     DPL,R6
        MOV     DPH,R7
        INC     DPTR
        INC     DPTR
        INC     DPTR
        INC     DPTR
        INC     DPTR
        MOVX    A,@DPTR
        MOV     R1,A
        MOV     A,R6
        ADD     A,#0x6
        MOV     R2,A
        MOV     A,R7
        ADDC    A,#0x0
        MOV     R3,A
        LCALL   ??SSP_UpdateNwkKey?relay
// 2817       if ( !_NIB.nwkKeyLoaded )
        MOV     DPTR,#_NIB + 61
        MOVX    A,@DPTR
        JNZ     ??ZDSecMgrTransportKeyInd_6
// 2818       {
// 2819         SSP_SwitchNwkKey( ind->keySeqNum );
        ; Setup parameters for call to function SSP_SwitchNwkKey
        MOV     DPL,R6
        MOV     DPH,R7
        INC     DPTR
        INC     DPTR
        INC     DPTR
        INC     DPTR
        INC     DPTR
        MOVX    A,@DPTR
        MOV     R1,A
        LCALL   ??SSP_SwitchNwkKey?relay
// 2820       }
// 2821     }
// 2822 
// 2823     // handle next step in authentication process
// 2824     ZDSecMgrAuthNwkKey();
??ZDSecMgrTransportKeyInd_6:
        ; Setup parameters for call to function ZDSecMgrAuthNwkKey
        LCALL   ??ZDSecMgrAuthNwkKey?relay
        SJMP    ??ZDSecMgrTransportKeyInd_0
// 2825   }
// 2826   else if ( ind->keyType == KEY_TYPE_TC_LINK )
??ZDSecMgrTransportKeyInd_2:
        MOV     DPL,R6
        MOV     DPH,R7
        INC     DPTR
        INC     DPTR
        INC     DPTR
        INC     DPTR
        MOVX    A,@DPTR
        XRL     A,#0x4
        JZ      ??ZDSecMgrTransportKeyInd_0
// 2827   {
// 2828     if ( ZG_CHECK_SECURITY_MODE == ZG_SECURITY_PRO_HIGH )
// 2829     {
// 2830       //ZDSecMgrTCLinkKey( ind );
// 2831     }
// 2832   }
// 2833   else if ( ind->keyType == KEY_TYPE_APP_MASTER )
        MOV     DPL,R6
        MOV     DPH,R7
        INC     DPTR
        INC     DPTR
        INC     DPTR
        INC     DPTR
        MOVX    A,@DPTR
        XRL     A,#0x2
        JZ      ??ZDSecMgrTransportKeyInd_0
// 2834   {
// 2835     if ( ZG_CHECK_SECURITY_MODE == ZG_SECURITY_PRO_HIGH )
// 2836     {
// 2837       uint16           ami;
// 2838       AddrMgrEntry_t   entry;
// 2839       ZDSecMgrEntry_t* entryZD;
// 2840 
// 2841       ZDSecMgrExtAddrLookup( ind->srcExtAddr, &ami );
// 2842 
// 2843       if ( ind->initiator == TRUE )
// 2844       {
// 2845         // get the ami data
// 2846         entry.user  = ADDRMGR_USER_SECURITY;
// 2847         entry.index = ami;
// 2848         AddrMgrEntryGet( &entry );
// 2849 
// 2850         if ( entry.nwkAddr != INVALID_NODE_ADDR )
// 2851         {
// 2852           APSME_EstablishKeyReq_t req;
// 2853           ZDSecMgrMasterKeyLoad( ind->srcExtAddr, ind->key );
// 2854 
// 2855           ZDSecMgrEntryLookupAMI( ami, &entryZD );
// 2856 
// 2857           if ( entryZD == NULL )
// 2858           {
// 2859             // get new entry
// 2860             if ( ZDSecMgrEntryNew( &entryZD ) == ZSuccess )
// 2861             {
// 2862               // finish setting up entry
// 2863               entryZD->ami = ami;
// 2864             }
// 2865           }
// 2866 
// 2867           req.respExtAddr = ind->srcExtAddr;
// 2868           req.method      = APSME_SKKE_METHOD;
// 2869           req.dstAddr     = entry.nwkAddr;
// 2870           //devtag.0604.todo - remove obsolete
// 2871           req.apsSecure   = FALSE;
// 2872           req.nwkSecure   = TRUE;
// 2873           APSME_EstablishKeyReq( &req );
// 2874         }
// 2875       }
// 2876       else
// 2877       {
// 2878         if ( ami == INVALID_NODE_ADDR )
// 2879         {
// 2880           // store new EXT address
// 2881           ZDSecMgrAddrStore( INVALID_NODE_ADDR, ind->srcExtAddr, &ami );
// 2882         }
// 2883 
// 2884         ZDSecMgrMasterKeyLoad( ind->srcExtAddr, ind->key );
// 2885       }
// 2886 
// 2887       //if ( entry.nwkAddr == INVALID_NODE_ADDR )
// 2888       //{
// 2889       //  ZDP_NwkAddrReq( ind->srcExtAddr, ZDP_ADDR_REQTYPE_SINGLE, 0, 0 );
// 2890       //}
// 2891     }
// 2892   }
// 2893   else if ( ind->keyType == KEY_TYPE_APP_LINK )
        MOV     DPL,R6
        MOV     DPH,R7
        INC     DPTR
        INC     DPTR
        INC     DPTR
        INC     DPTR
        MOVX    A,@DPTR
        XRL     A,#0x3
// 2894   {
// 2895     if ( ZG_CHECK_SECURITY_MODE == ZG_SECURITY_PRO_HIGH )
// 2896     {
// 2897       uint16           ami;
// 2898       ZDSecMgrEntry_t* entry;
// 2899 
// 2900       // get the address index
// 2901       if ( ZDSecMgrExtAddrLookup( ind->srcExtAddr, &ami ) != ZSuccess )
// 2902       {
// 2903         // store new EXT address
// 2904         ZDSecMgrAddrStore( INVALID_NODE_ADDR, ind->srcExtAddr, &ami );
// 2905         ZDP_NwkAddrReq( ind->srcExtAddr, ZDP_ADDR_REQTYPE_SINGLE, 0, 0 );
// 2906       }
// 2907 
// 2908       ZDSecMgrEntryLookupAMI( ami, &entry );
// 2909 
// 2910       if ( entry == NULL )
// 2911       {
// 2912         // get new entry
// 2913         if ( ZDSecMgrEntryNew( &entry ) == ZSuccess )
// 2914         {
// 2915           // finish setting up entry
// 2916           entry->ami = ami;
// 2917         }
// 2918       }
// 2919 
// 2920       ZDSecMgrLinkKeySet( ind->srcExtAddr, ind->key );
// 2921     }
// 2922   }
// 2923 }
??ZDSecMgrTransportKeyInd_0:
        MOV     R7,#0x3
        LJMP    ?BANKED_LEAVE_XDATA
          CFI EndBlock cfiBlock55
// 2924 
// 2925 /******************************************************************************
// 2926  * @fn          ZDSecMgrUpdateDeviceInd
// 2927  *
// 2928  * @brief       Process the ZDO_UpdateDeviceInd_t message.
// 2929  *
// 2930  * @param       ind - [in] ZDO_UpdateDeviceInd_t indication
// 2931  *
// 2932  * @return      none
// 2933  */

        RSEG BANKED_CODE:CODE:NOROOT(0)
// 2934 void ZDSecMgrUpdateDeviceInd( ZDO_UpdateDeviceInd_t* ind )
ZDSecMgrUpdateDeviceInd:
          CFI Block cfiBlock56 Using cfiCommon0
          CFI Function ZDSecMgrUpdateDeviceInd
        CODE
// 2935 {
        FUNCALL ZDSecMgrUpdateDeviceInd, ZDSecMgrDeviceJoin
        LOCFRAME ISTACK, 0, STACK
        LOCFRAME PSTACK, 0, STACK
        LOCFRAME XSTACK, 19, STACK
        LOCFRAME IOVERLAY, 0, STATIC
        LOCFRAME DOVERLAY, 0, STATIC
        ARGFRAME ISTACK, 0, STACK
        ARGFRAME PSTACK, 0, STACK
        ARGFRAME XSTACK, 19, STACK
        ARGFRAME IOVERLAY, 0, STATIC
        ARGFRAME DOVERLAY, 0, STATIC
        MOV     A,#-0x9
        LCALL   ?BANKED_ENTER_XDATA
          CFI DPH0 load(1, XDATA, add(CFA_XSP16, literal(-1)))
          CFI DPL0 load(1, XDATA, add(CFA_XSP16, literal(-2)))
          CFI ?BRET_EXT load(1, XDATA, add(CFA_XSP16, literal(-3)))
          CFI ?RET_HIGH load(1, XDATA, add(CFA_XSP16, literal(-4)))
          CFI ?RET_LOW load(1, XDATA, add(CFA_XSP16, literal(-5)))
          CFI R7 load(1, XDATA, add(CFA_XSP16, literal(-6)))
          CFI V0 load(1, XDATA, add(CFA_XSP16, literal(-7)))
          CFI VB load(1, XDATA, add(CFA_XSP16, literal(-8)))
          CFI R6 load(1, XDATA, add(CFA_XSP16, literal(-9)))
          CFI CFA_SP SP+0
          CFI CFA_XSP16 add(XSP16, 9)
        ; Saved register size: 9
        ; Auto size: 10
        MOV     A,#-0xa
        LCALL   ?ALLOC_XSTACK8
          CFI CFA_XSP16 add(XSP16, 19)
        MOV     A,R2
        MOV     R6,A
        MOV     A,R3
        MOV     R7,A
// 2936   ZDSecMgrDevice_t device;
// 2937 
// 2938 
// 2939   device.nwkAddr    = ind->devAddr;
        MOV     A,R6
        ADD     A,#0xc
        MOV     DPL,A
        MOV     A,R7
        ADDC    A,#0x0
        MOV     DPH,A
        MOVX    A,@DPTR
        MOV     R0,A
        INC     DPTR
        MOVX    A,@DPTR
        MOV     R1,A
        MOV     DPL,?XSP + 0
        MOV     DPH,?XSP + 1
        MOV     A,R0
        MOVX    @DPTR,A
        INC     DPTR
        MOV     A,R1
        MOVX    @DPTR,A
// 2940   device.extAddr    = ind->devExtAddr;
        MOV     A,R6
        ADD     A,#0x4
        MOV     R0,A
        MOV     A,R7
        ADDC    A,#0x0
        MOV     R1,A
        MOV     A,#0x2
        LCALL   ?XSTACK_DISP0_8
        MOV     A,R0
        MOVX    @DPTR,A
        INC     DPTR
        MOV     A,R1
        MOVX    @DPTR,A
// 2941   device.parentAddr = ind->srcAddr;
        MOV     DPL,R6
        MOV     DPH,R7
        INC     DPTR
        INC     DPTR
        MOVX    A,@DPTR
        MOV     R0,A
        INC     DPTR
        MOVX    A,@DPTR
        MOV     R1,A
        MOV     A,#0x4
        LCALL   ?XSTACK_DISP0_8
        MOV     A,R0
        MOVX    @DPTR,A
        INC     DPTR
        MOV     A,R1
        MOVX    @DPTR,A
// 2942 
// 2943   //if ( ( ind->status == APSME_UD_SECURED_JOIN   ) ||
// 2944   //     ( ind->status == APSME_UD_UNSECURED_JOIN )   )
// 2945   //{
// 2946   //  if ( ind->status == APSME_UD_SECURED_JOIN )
// 2947   //  {
// 2948   //    device.secure = TRUE;
// 2949   //  }
// 2950   //  else
// 2951   //  {
// 2952   //    device.secure = FALSE;
// 2953   //  }
// 2954 
// 2955     // try to join this device
// 2956     ZDSecMgrDeviceJoin( &device );
        ; Setup parameters for call to function ZDSecMgrDeviceJoin
        MOV     DPL,?XSP + 0
        MOV     DPH,?XSP + 1
        MOV     R2,DPL
        MOV     R3,DPH
        LCALL   ??ZDSecMgrDeviceJoin?relay
        MOV     A,R1
// 2957   //}
// 2958 }
        MOV     A,#0xa
        LCALL   ?DEALLOC_XSTACK8
          CFI CFA_XSP16 add(XSP16, 9)
        MOV     R7,#0x1
        LJMP    ?BANKED_LEAVE_XDATA
          CFI EndBlock cfiBlock56
// 2959 
// 2960 /******************************************************************************
// 2961  * @fn          ZDSecMgrRemoveDeviceInd
// 2962  *
// 2963  * @brief       Process the ZDO_RemoveDeviceInd_t message.
// 2964  *
// 2965  * @param       ind - [in] ZDO_RemoveDeviceInd_t indication
// 2966  *
// 2967  * @return      none
// 2968  */

        RSEG BANKED_CODE:CODE:NOROOT(0)
// 2969 void ZDSecMgrRemoveDeviceInd( ZDO_RemoveDeviceInd_t* ind )
ZDSecMgrRemoveDeviceInd:
          CFI Block cfiBlock57 Using cfiCommon0
          CFI Function ZDSecMgrRemoveDeviceInd
        CODE
// 2970 {
        FUNCALL ZDSecMgrRemoveDeviceInd, APSME_LookupNwkAddr
        LOCFRAME ISTACK, 0, STACK
        LOCFRAME PSTACK, 0, STACK
        LOCFRAME XSTACK, 19, STACK
        LOCFRAME IOVERLAY, 0, STATIC
        LOCFRAME DOVERLAY, 0, STATIC
        ARGFRAME ISTACK, 0, STACK
        ARGFRAME PSTACK, 0, STACK
        ARGFRAME XSTACK, 19, STACK
        ARGFRAME IOVERLAY, 0, STATIC
        ARGFRAME DOVERLAY, 0, STATIC
        FUNCALL ZDSecMgrRemoveDeviceInd, NLME_GetShortAddr
        LOCFRAME ISTACK, 0, STACK
        LOCFRAME PSTACK, 0, STACK
        LOCFRAME XSTACK, 19, STACK
        LOCFRAME IOVERLAY, 0, STATIC
        LOCFRAME DOVERLAY, 0, STATIC
        ARGFRAME ISTACK, 0, STACK
        ARGFRAME PSTACK, 0, STACK
        ARGFRAME XSTACK, 19, STACK
        ARGFRAME IOVERLAY, 0, STATIC
        ARGFRAME DOVERLAY, 0, STATIC
        FUNCALL ZDSecMgrRemoveDeviceInd, ZDSecMgrDeviceRemove
        LOCFRAME ISTACK, 0, STACK
        LOCFRAME PSTACK, 0, STACK
        LOCFRAME XSTACK, 19, STACK
        LOCFRAME IOVERLAY, 0, STATIC
        LOCFRAME DOVERLAY, 0, STATIC
        ARGFRAME ISTACK, 0, STACK
        ARGFRAME PSTACK, 0, STACK
        ARGFRAME XSTACK, 19, STACK
        ARGFRAME IOVERLAY, 0, STATIC
        ARGFRAME DOVERLAY, 0, STATIC
        MOV     A,#-0x9
        LCALL   ?BANKED_ENTER_XDATA
          CFI DPH0 load(1, XDATA, add(CFA_XSP16, literal(-1)))
          CFI DPL0 load(1, XDATA, add(CFA_XSP16, literal(-2)))
          CFI ?BRET_EXT load(1, XDATA, add(CFA_XSP16, literal(-3)))
          CFI ?RET_HIGH load(1, XDATA, add(CFA_XSP16, literal(-4)))
          CFI ?RET_LOW load(1, XDATA, add(CFA_XSP16, literal(-5)))
          CFI R7 load(1, XDATA, add(CFA_XSP16, literal(-6)))
          CFI V0 load(1, XDATA, add(CFA_XSP16, literal(-7)))
          CFI VB load(1, XDATA, add(CFA_XSP16, literal(-8)))
          CFI R6 load(1, XDATA, add(CFA_XSP16, literal(-9)))
          CFI CFA_SP SP+0
          CFI CFA_XSP16 add(XSP16, 9)
        ; Saved register size: 9
        ; Auto size: 10
        MOV     A,#-0xa
        LCALL   ?ALLOC_XSTACK8
          CFI CFA_XSP16 add(XSP16, 19)
        MOV     A,R2
        MOV     R6,A
        MOV     A,R3
        MOV     R7,A
// 2971   ZDSecMgrDevice_t device;
// 2972 
// 2973 
// 2974   // only accept from Trust Center
// 2975   if ( ind->srcAddr == APSME_TRUSTCENTER_NWKADDR )
        MOV     DPL,R6
        MOV     DPH,R7
        INC     DPTR
        INC     DPTR
        MOVX    A,@DPTR
        MOV     R0,A
        INC     DPTR
        MOVX    A,@DPTR
        MOV     R1,A
        MOV     A,R0
        ORL     A,R1
        JNZ     ??ZDSecMgrRemoveDeviceInd_0
// 2976   {
// 2977     // look up NWK address
// 2978     if ( APSME_LookupNwkAddr( ind->childExtAddr, &device.nwkAddr ) == TRUE )
        ; Setup parameters for call to function APSME_LookupNwkAddr
        MOV     DPL,?XSP + 0
        MOV     DPH,?XSP + 1
        MOV     R4,DPL
        MOV     R5,DPH
        MOV     A,R6
        ADD     A,#0x4
        MOV     R2,A
        MOV     A,R7
        ADDC    A,#0x0
        MOV     R3,A
        LCALL   ??APSME_LookupNwkAddr?relay
        MOV     A,R1
        XRL     A,#0x1
        JNZ     ??ZDSecMgrRemoveDeviceInd_0
// 2979     {
// 2980       device.parentAddr = NLME_GetShortAddr();
        ; Setup parameters for call to function NLME_GetShortAddr
        LCALL   ??NLME_GetShortAddr?relay
        MOV     A,#0x4
        LCALL   ?XSTACK_DISP0_8
        MOV     A,R2
        MOVX    @DPTR,A
        INC     DPTR
        MOV     A,R3
        MOVX    @DPTR,A
// 2981       device.extAddr    = ind->childExtAddr;
        MOV     A,R6
        ADD     A,#0x4
        MOV     R0,A
        MOV     A,R7
        ADDC    A,#0x0
        MOV     R1,A
        MOV     A,#0x2
        LCALL   ?XSTACK_DISP0_8
        MOV     A,R0
        MOVX    @DPTR,A
        INC     DPTR
        MOV     A,R1
        MOVX    @DPTR,A
// 2982 
// 2983       // remove device
// 2984       ZDSecMgrDeviceRemove( &device );
        ; Setup parameters for call to function ZDSecMgrDeviceRemove
        MOV     DPL,?XSP + 0
        MOV     DPH,?XSP + 1
        MOV     R2,DPL
        MOV     R3,DPH
        LCALL   ??ZDSecMgrDeviceRemove?relay
// 2985     }
// 2986   }
// 2987 }
??ZDSecMgrRemoveDeviceInd_0:
        MOV     A,#0xa
        LCALL   ?DEALLOC_XSTACK8
          CFI CFA_XSP16 add(XSP16, 9)
        MOV     R7,#0x1
        LJMP    ?BANKED_LEAVE_XDATA
          CFI EndBlock cfiBlock57
// 2988 
// 2989 /******************************************************************************
// 2990  * @fn          ZDSecMgrRequestKeyInd
// 2991  *
// 2992  * @brief       Process the ZDO_RequestKeyInd_t message.
// 2993  *
// 2994  * @param       ind - [in] ZDO_RequestKeyInd_t indication
// 2995  *
// 2996  * @return      none
// 2997  */

        RSEG BANKED_CODE:CODE:NOROOT(0)
// 2998 void ZDSecMgrRequestKeyInd( ZDO_RequestKeyInd_t* ind )
ZDSecMgrRequestKeyInd:
          CFI Block cfiBlock58 Using cfiCommon0
          CFI Function ZDSecMgrRequestKeyInd
        CODE
// 2999 {
        FUNCALL ZDSecMgrRequestKeyInd, ZDSecMgrAppKeyReq
        LOCFRAME ISTACK, 0, STACK
        LOCFRAME PSTACK, 0, STACK
        LOCFRAME XSTACK, 9, STACK
        LOCFRAME IOVERLAY, 0, STATIC
        LOCFRAME DOVERLAY, 0, STATIC
        ARGFRAME ISTACK, 0, STACK
        ARGFRAME PSTACK, 0, STACK
        ARGFRAME XSTACK, 9, STACK
        ARGFRAME IOVERLAY, 0, STATIC
        ARGFRAME DOVERLAY, 0, STATIC
        MOV     A,#-0x9
        LCALL   ?BANKED_ENTER_XDATA
          CFI DPH0 load(1, XDATA, add(CFA_XSP16, literal(-1)))
          CFI DPL0 load(1, XDATA, add(CFA_XSP16, literal(-2)))
          CFI ?BRET_EXT load(1, XDATA, add(CFA_XSP16, literal(-3)))
          CFI ?RET_HIGH load(1, XDATA, add(CFA_XSP16, literal(-4)))
          CFI ?RET_LOW load(1, XDATA, add(CFA_XSP16, literal(-5)))
          CFI R7 load(1, XDATA, add(CFA_XSP16, literal(-6)))
          CFI V0 load(1, XDATA, add(CFA_XSP16, literal(-7)))
          CFI VB load(1, XDATA, add(CFA_XSP16, literal(-8)))
          CFI R6 load(1, XDATA, add(CFA_XSP16, literal(-9)))
          CFI CFA_SP SP+0
          CFI CFA_XSP16 add(XSP16, 9)
        ; Saved register size: 9
        ; Auto size: 0
        MOV     A,R2
        MOV     R6,A
        MOV     A,R3
        MOV     R7,A
// 3000   if ( ind->keyType == KEY_TYPE_NWK )
        MOV     DPL,R6
        MOV     DPH,R7
        INC     DPTR
        INC     DPTR
        INC     DPTR
        INC     DPTR
        MOVX    A,@DPTR
        XRL     A,#0x1
        JZ      ??ZDSecMgrRequestKeyInd_0
// 3001   {
// 3002   }
// 3003   else if ( ind->keyType == KEY_TYPE_APP_MASTER )
        MOV     DPL,R6
        MOV     DPH,R7
        INC     DPTR
        INC     DPTR
        INC     DPTR
        INC     DPTR
        MOVX    A,@DPTR
        XRL     A,#0x2
        JNZ     ??ZDSecMgrRequestKeyInd_0
// 3004   {
// 3005     ZDSecMgrAppKeyReq( ind );
        ; Setup parameters for call to function ZDSecMgrAppKeyReq
        MOV     A,R6
        MOV     R2,A
        MOV     A,R7
        MOV     R3,A
        LCALL   ??ZDSecMgrAppKeyReq?relay
// 3006   }
// 3007   else if ( ind->keyType == KEY_TYPE_TC_LINK )
// 3008   {
// 3009   }
// 3010   //else ignore
// 3011 }
??ZDSecMgrRequestKeyInd_0:
        MOV     R7,#0x1
        LJMP    ?BANKED_LEAVE_XDATA
          CFI EndBlock cfiBlock58
// 3012 
// 3013 /******************************************************************************
// 3014  * @fn          ZDSecMgrSwitchKeyInd
// 3015  *
// 3016  * @brief       Process the ZDO_SwitchKeyInd_t message.
// 3017  *
// 3018  * @param       ind - [in] ZDO_SwitchKeyInd_t indication
// 3019  *
// 3020  * @return      none
// 3021  */

        RSEG BANKED_CODE:CODE:NOROOT(0)
// 3022 void ZDSecMgrSwitchKeyInd( ZDO_SwitchKeyInd_t* ind )
ZDSecMgrSwitchKeyInd:
          CFI Block cfiBlock59 Using cfiCommon0
          CFI Function ZDSecMgrSwitchKeyInd
        CODE
// 3023 {
        FUNCALL ZDSecMgrSwitchKeyInd, SSP_SwitchNwkKey
        LOCFRAME ISTACK, 0, STACK
        LOCFRAME PSTACK, 0, STACK
        LOCFRAME XSTACK, 9, STACK
        LOCFRAME IOVERLAY, 0, STATIC
        LOCFRAME DOVERLAY, 0, STATIC
        ARGFRAME ISTACK, 0, STACK
        ARGFRAME PSTACK, 0, STACK
        ARGFRAME XSTACK, 9, STACK
        ARGFRAME IOVERLAY, 0, STATIC
        ARGFRAME DOVERLAY, 0, STATIC
        FUNCALL ZDSecMgrSwitchKeyInd, ZDApp_NVUpdate
        LOCFRAME ISTACK, 0, STACK
        LOCFRAME PSTACK, 0, STACK
        LOCFRAME XSTACK, 9, STACK
        LOCFRAME IOVERLAY, 0, STATIC
        LOCFRAME DOVERLAY, 0, STATIC
        ARGFRAME ISTACK, 0, STACK
        ARGFRAME PSTACK, 0, STACK
        ARGFRAME XSTACK, 9, STACK
        ARGFRAME IOVERLAY, 0, STATIC
        ARGFRAME DOVERLAY, 0, STATIC
        MOV     A,#-0x9
        LCALL   ?BANKED_ENTER_XDATA
          CFI DPH0 load(1, XDATA, add(CFA_XSP16, literal(-1)))
          CFI DPL0 load(1, XDATA, add(CFA_XSP16, literal(-2)))
          CFI ?BRET_EXT load(1, XDATA, add(CFA_XSP16, literal(-3)))
          CFI ?RET_HIGH load(1, XDATA, add(CFA_XSP16, literal(-4)))
          CFI ?RET_LOW load(1, XDATA, add(CFA_XSP16, literal(-5)))
          CFI R7 load(1, XDATA, add(CFA_XSP16, literal(-6)))
          CFI V0 load(1, XDATA, add(CFA_XSP16, literal(-7)))
          CFI VB load(1, XDATA, add(CFA_XSP16, literal(-8)))
          CFI R6 load(1, XDATA, add(CFA_XSP16, literal(-9)))
          CFI CFA_SP SP+0
          CFI CFA_XSP16 add(XSP16, 9)
        ; Saved register size: 9
        ; Auto size: 0
        MOV     A,R2
        MOV     R6,A
        MOV     A,R3
        MOV     R7,A
// 3024   SSP_SwitchNwkKey( ind->keySeqNum );
        ; Setup parameters for call to function SSP_SwitchNwkKey
        MOV     DPL,R6
        MOV     DPH,R7
        INC     DPTR
        INC     DPTR
        INC     DPTR
        INC     DPTR
        MOVX    A,@DPTR
        MOV     R1,A
        LCALL   ??SSP_SwitchNwkKey?relay
// 3025 
// 3026   // Save if nv
// 3027   ZDApp_NVUpdate();
        ; Setup parameters for call to function ZDApp_NVUpdate
        LCALL   ??ZDApp_NVUpdate?relay
// 3028 }
        MOV     R7,#0x1
        LJMP    ?BANKED_LEAVE_XDATA
          CFI EndBlock cfiBlock59
// 3029 
// 3030 /******************************************************************************
// 3031  * @fn          ZDSecMgrAuthenticateInd
// 3032  *
// 3033  * @brief       Process the ZDO_AuthenticateInd_t message.
// 3034  *
// 3035  * @param       ind - [in] ZDO_AuthenticateInd_t indication
// 3036  *
// 3037  * @return      none
// 3038  */

        RSEG BANKED_CODE:CODE:NOROOT(0)
// 3039 void ZDSecMgrAuthenticateInd( ZDO_AuthenticateInd_t* ind )
ZDSecMgrAuthenticateInd:
          CFI Block cfiBlock60 Using cfiCommon0
          CFI Function ZDSecMgrAuthenticateInd
        CODE
// 3040 {
        FUNCALL ZDSecMgrAuthenticateInd, AddrMgrExtAddrSet
        LOCFRAME ISTACK, 0, STACK
        LOCFRAME PSTACK, 0, STACK
        LOCFRAME XSTACK, 29, STACK
        LOCFRAME IOVERLAY, 0, STATIC
        LOCFRAME DOVERLAY, 0, STATIC
        ARGFRAME ISTACK, 0, STACK
        ARGFRAME PSTACK, 0, STACK
        ARGFRAME XSTACK, 29, STACK
        ARGFRAME IOVERLAY, 0, STATIC
        ARGFRAME DOVERLAY, 0, STATIC
        FUNCALL ZDSecMgrAuthenticateInd, AddrMgrEntryUpdate
        LOCFRAME ISTACK, 0, STACK
        LOCFRAME PSTACK, 0, STACK
        LOCFRAME XSTACK, 29, STACK
        LOCFRAME IOVERLAY, 0, STATIC
        LOCFRAME DOVERLAY, 0, STATIC
        ARGFRAME ISTACK, 0, STACK
        ARGFRAME PSTACK, 0, STACK
        ARGFRAME XSTACK, 29, STACK
        ARGFRAME IOVERLAY, 0, STATIC
        ARGFRAME DOVERLAY, 0, STATIC
        FUNCALL ZDSecMgrAuthenticateInd, APSME_AuthenticateReq
        LOCFRAME ISTACK, 0, STACK
        LOCFRAME PSTACK, 0, STACK
        LOCFRAME XSTACK, 29, STACK
        LOCFRAME IOVERLAY, 0, STATIC
        LOCFRAME DOVERLAY, 0, STATIC
        ARGFRAME ISTACK, 0, STACK
        ARGFRAME PSTACK, 0, STACK
        ARGFRAME XSTACK, 29, STACK
        ARGFRAME IOVERLAY, 0, STATIC
        ARGFRAME DOVERLAY, 0, STATIC
        MOV     A,#-0x9
        LCALL   ?BANKED_ENTER_XDATA
          CFI DPH0 load(1, XDATA, add(CFA_XSP16, literal(-1)))
          CFI DPL0 load(1, XDATA, add(CFA_XSP16, literal(-2)))
          CFI ?BRET_EXT load(1, XDATA, add(CFA_XSP16, literal(-3)))
          CFI ?RET_HIGH load(1, XDATA, add(CFA_XSP16, literal(-4)))
          CFI ?RET_LOW load(1, XDATA, add(CFA_XSP16, literal(-5)))
          CFI R7 load(1, XDATA, add(CFA_XSP16, literal(-6)))
          CFI V0 load(1, XDATA, add(CFA_XSP16, literal(-7)))
          CFI VB load(1, XDATA, add(CFA_XSP16, literal(-8)))
          CFI R6 load(1, XDATA, add(CFA_XSP16, literal(-9)))
          CFI CFA_SP SP+0
          CFI CFA_XSP16 add(XSP16, 9)
        ; Saved register size: 9
        ; Auto size: 20
        MOV     A,#-0x14
        LCALL   ?ALLOC_XSTACK8
          CFI CFA_XSP16 add(XSP16, 29)
        MOV     A,R2
        MOV     R6,A
        MOV     A,R3
        MOV     R7,A
// 3041   APSME_AuthenticateReq_t req;
// 3042   AddrMgrEntry_t          entry;
// 3043 
// 3044 
// 3045   // update the address manager
// 3046   //---------------------------------------------------------------------------
// 3047   // note:
// 3048   // required for EA processing, but ultimately EA logic could also use the
// 3049   // neighbor table to look up addresses -- also(IF using EA) the neighbor
// 3050   // table is supposed to have authentication states for neighbors
// 3051   //---------------------------------------------------------------------------
// 3052   entry.user    = ADDRMGR_USER_SECURITY;
        MOV     A,#0x7
        LCALL   ?XSTACK_DISP0_8
        MOV     A,#0x2
        MOVX    @DPTR,A
// 3053   entry.nwkAddr = ind->aps.initNwkAddr;
        MOV     DPL,R6
        MOV     DPH,R7
        INC     DPTR
        INC     DPTR
        MOVX    A,@DPTR
        MOV     R0,A
        INC     DPTR
        MOVX    A,@DPTR
        MOV     R1,A
        MOV     A,#0x8
        LCALL   ?XSTACK_DISP0_8
        MOV     A,R0
        MOVX    @DPTR,A
        INC     DPTR
        MOV     A,R1
        MOVX    @DPTR,A
// 3054   AddrMgrExtAddrSet( entry.extAddr, ind->aps.initExtAddr );
        ; Setup parameters for call to function AddrMgrExtAddrSet
        MOV     A,R6
        ADD     A,#0x4
        MOV     R4,A
        MOV     A,R7
        ADDC    A,#0x0
        MOV     R5,A
        MOV     A,#0xa
        LCALL   ?XSTACK_DISP0_8
        MOV     R2,DPL
        MOV     R3,DPH
        LCALL   ??AddrMgrExtAddrSet?relay
// 3055 
// 3056   if ( AddrMgrEntryUpdate( &entry ) == TRUE )
        ; Setup parameters for call to function AddrMgrEntryUpdate
        MOV     A,#0x7
        LCALL   ?XSTACK_DISP0_8
        MOV     R2,DPL
        MOV     R3,DPH
        LCALL   ??AddrMgrEntryUpdate?relay
        MOV     A,R1
        XRL     A,#0x1
        JNZ     ??ZDSecMgrAuthenticateInd_0
// 3057   {
// 3058     // set request fields
// 3059     req.nwkAddr   = ind->aps.initNwkAddr;
        MOV     DPL,R6
        MOV     DPH,R7
        INC     DPTR
        INC     DPTR
        MOVX    A,@DPTR
        MOV     R0,A
        INC     DPTR
        MOVX    A,@DPTR
        MOV     R1,A
        MOV     DPL,?XSP + 0
        MOV     DPH,?XSP + 1
        MOV     A,R0
        MOVX    @DPTR,A
        INC     DPTR
        MOV     A,R1
        MOVX    @DPTR,A
// 3060     req.extAddr   = ind->aps.initExtAddr;
        MOV     A,R6
        ADD     A,#0x4
        MOV     R0,A
        MOV     A,R7
        ADDC    A,#0x0
        MOV     R1,A
        MOV     A,#0x2
        LCALL   ?XSTACK_DISP0_8
        MOV     A,R0
        MOVX    @DPTR,A
        INC     DPTR
        MOV     A,R1
        MOVX    @DPTR,A
// 3061     req.action    = APSME_EA_ACCEPT;
        MOV     A,#0x6
        LCALL   ?XSTACK_DISP0_8
        MOV     A,#0x1
        MOVX    @DPTR,A
// 3062     req.challenge = ind->aps.challenge;
        MOV     A,R6
        ADD     A,#0xc
        MOV     R0,A
        MOV     A,R7
        ADDC    A,#0x0
        MOV     R1,A
        MOV     A,#0x4
        LCALL   ?XSTACK_DISP0_8
        MOV     A,R0
        MOVX    @DPTR,A
        INC     DPTR
        MOV     A,R1
        MOVX    @DPTR,A
// 3063 
// 3064     // start EA processing
// 3065     APSME_AuthenticateReq( &req );
        ; Setup parameters for call to function APSME_AuthenticateReq
        MOV     DPL,?XSP + 0
        MOV     DPH,?XSP + 1
        MOV     R2,DPL
        MOV     R3,DPH
        LCALL   ??APSME_AuthenticateReq?relay
        MOV     A,R1
// 3066   }
// 3067 }
??ZDSecMgrAuthenticateInd_0:
        MOV     A,#0x14
        LCALL   ?DEALLOC_XSTACK8
          CFI CFA_XSP16 add(XSP16, 9)
        MOV     R7,#0x1
        LJMP    ?BANKED_LEAVE_XDATA
          CFI EndBlock cfiBlock60
// 3068 
// 3069 /******************************************************************************
// 3070  * @fn          ZDSecMgrAuthenticateCfm
// 3071  *
// 3072  * @brief       Process the ZDO_AuthenticateCfm_t message.
// 3073  *
// 3074  * @param       cfm - [in] ZDO_AuthenticateCfm_t confirmation
// 3075  *
// 3076  * @return      none
// 3077  */

        RSEG BANKED_CODE:CODE:NOROOT(0)
// 3078 void ZDSecMgrAuthenticateCfm( ZDO_AuthenticateCfm_t* cfm )
ZDSecMgrAuthenticateCfm:
          CFI Block cfiBlock61 Using cfiCommon0
          CFI Function ZDSecMgrAuthenticateCfm
        CODE
// 3079 {
        FUNCALL ZDSecMgrAuthenticateCfm, osal_set_event
        LOCFRAME ISTACK, 0, STACK
        LOCFRAME PSTACK, 0, STACK
        LOCFRAME XSTACK, 9, STACK
        LOCFRAME IOVERLAY, 0, STATIC
        LOCFRAME DOVERLAY, 0, STATIC
        ARGFRAME ISTACK, 0, STACK
        ARGFRAME PSTACK, 0, STACK
        ARGFRAME XSTACK, 9, STACK
        ARGFRAME IOVERLAY, 0, STATIC
        ARGFRAME DOVERLAY, 0, STATIC
        MOV     A,#-0x9
        LCALL   ?BANKED_ENTER_XDATA
          CFI DPH0 load(1, XDATA, add(CFA_XSP16, literal(-1)))
          CFI DPL0 load(1, XDATA, add(CFA_XSP16, literal(-2)))
          CFI ?BRET_EXT load(1, XDATA, add(CFA_XSP16, literal(-3)))
          CFI ?RET_HIGH load(1, XDATA, add(CFA_XSP16, literal(-4)))
          CFI ?RET_LOW load(1, XDATA, add(CFA_XSP16, literal(-5)))
          CFI R7 load(1, XDATA, add(CFA_XSP16, literal(-6)))
          CFI V0 load(1, XDATA, add(CFA_XSP16, literal(-7)))
          CFI VB load(1, XDATA, add(CFA_XSP16, literal(-8)))
          CFI R6 load(1, XDATA, add(CFA_XSP16, literal(-9)))
          CFI CFA_SP SP+0
          CFI CFA_XSP16 add(XSP16, 9)
        ; Saved register size: 9
        ; Auto size: 0
        MOV     A,R2
        MOV     R6,A
        MOV     A,R3
        MOV     R7,A
// 3080   if ( cfm->aps.status == ZSuccess )
        MOV     A,R6
        ADD     A,#0xb
        MOV     DPL,A
        MOV     A,R7
        ADDC    A,#0x0
        MOV     DPH,A
        MOVX    A,@DPTR
        JNZ     ??ZDSecMgrAuthenticateCfm_0
// 3081   {
// 3082     if ( ( cfm->aps.initiator == TRUE ) && ( devState == DEV_END_DEVICE_UNAUTH ) )
        MOV     DPL,R6
        MOV     DPH,R7
        INC     DPTR
        INC     DPTR
        MOVX    A,@DPTR
        XRL     A,#0x1
        JNZ     ??ZDSecMgrAuthenticateCfm_0
        MOV     DPTR,#devState
        MOVX    A,@DPTR
        XRL     A,#0x5
        JNZ     ??ZDSecMgrAuthenticateCfm_0
// 3083     {
// 3084       // inform ZDO that device has been authenticated
// 3085       osal_set_event ( ZDAppTaskID, ZDO_DEVICE_AUTH );
        ; Setup parameters for call to function osal_set_event
        MOV     R2,#-0x80
        MOV     R3,#0x0
        MOV     DPTR,#ZDAppTaskID
        MOVX    A,@DPTR
        MOV     R1,A
        LCALL   ??osal_set_event?relay
        MOV     A,R1
// 3086     }
// 3087   }
// 3088 }
??ZDSecMgrAuthenticateCfm_0:
        MOV     R7,#0x1
        LJMP    ?BANKED_LEAVE_XDATA
          CFI EndBlock cfiBlock61
// 3089 
// 3090 #if ( ZG_BUILD_COORDINATOR_TYPE )
// 3091 /******************************************************************************
// 3092  * @fn          ZDSecMgrUpdateNwkKey
// 3093  *
// 3094  * @brief       Load a new NWK key and trigger a network wide update.
// 3095  *
// 3096  * @param       key       - [in] new NWK key
// 3097  * @param       keySeqNum - [in] new NWK key sequence number
// 3098  *
// 3099  * @return      ZStatus_t
// 3100  */

        RSEG BANKED_CODE:CODE:NOROOT(0)
// 3101 ZStatus_t ZDSecMgrUpdateNwkKey( uint8* key, uint8 keySeqNum, uint16 dstAddr )
ZDSecMgrUpdateNwkKey:
          CFI Block cfiBlock62 Using cfiCommon0
          CFI Function ZDSecMgrUpdateNwkKey
        CODE
// 3102 {
        FUNCALL ZDSecMgrUpdateNwkKey, APSME_TransportKeyReq
        LOCFRAME ISTACK, 0, STACK
        LOCFRAME PSTACK, 0, STACK
        LOCFRAME XSTACK, 25, STACK
        LOCFRAME IOVERLAY, 0, STATIC
        LOCFRAME DOVERLAY, 0, STATIC
        ARGFRAME ISTACK, 0, STACK
        ARGFRAME PSTACK, 0, STACK
        ARGFRAME XSTACK, 25, STACK
        ARGFRAME IOVERLAY, 0, STATIC
        ARGFRAME DOVERLAY, 0, STATIC
        FUNCALL ZDSecMgrUpdateNwkKey, SSP_UpdateNwkKey
        LOCFRAME ISTACK, 0, STACK
        LOCFRAME PSTACK, 0, STACK
        LOCFRAME XSTACK, 25, STACK
        LOCFRAME IOVERLAY, 0, STATIC
        LOCFRAME DOVERLAY, 0, STATIC
        ARGFRAME ISTACK, 0, STACK
        ARGFRAME PSTACK, 0, STACK
        ARGFRAME XSTACK, 25, STACK
        ARGFRAME IOVERLAY, 0, STATIC
        ARGFRAME DOVERLAY, 0, STATIC
        FUNCALL ZDSecMgrUpdateNwkKey, ZDApp_NVUpdate
        LOCFRAME ISTACK, 0, STACK
        LOCFRAME PSTACK, 0, STACK
        LOCFRAME XSTACK, 25, STACK
        LOCFRAME IOVERLAY, 0, STATIC
        LOCFRAME DOVERLAY, 0, STATIC
        ARGFRAME ISTACK, 0, STACK
        ARGFRAME PSTACK, 0, STACK
        ARGFRAME XSTACK, 25, STACK
        ARGFRAME IOVERLAY, 0, STATIC
        ARGFRAME DOVERLAY, 0, STATIC
        MOV     A,#-0xc
        LCALL   ?BANKED_ENTER_XDATA
          CFI DPH0 load(1, XDATA, add(CFA_XSP16, literal(-1)))
          CFI DPL0 load(1, XDATA, add(CFA_XSP16, literal(-2)))
          CFI ?BRET_EXT load(1, XDATA, add(CFA_XSP16, literal(-3)))
          CFI ?RET_HIGH load(1, XDATA, add(CFA_XSP16, literal(-4)))
          CFI ?RET_LOW load(1, XDATA, add(CFA_XSP16, literal(-5)))
          CFI R7 load(1, XDATA, add(CFA_XSP16, literal(-6)))
          CFI V3 load(1, XDATA, add(CFA_XSP16, literal(-7)))
          CFI V2 load(1, XDATA, add(CFA_XSP16, literal(-8)))
          CFI V1 load(1, XDATA, add(CFA_XSP16, literal(-9)))
          CFI V0 load(1, XDATA, add(CFA_XSP16, literal(-10)))
          CFI VB load(1, XDATA, add(CFA_XSP16, literal(-11)))
          CFI R6 load(1, XDATA, add(CFA_XSP16, literal(-12)))
          CFI CFA_SP SP+0
          CFI CFA_XSP16 add(XSP16, 12)
        ; Saved register size: 12
        ; Auto size: 13
        MOV     A,#-0xd
        LCALL   ?ALLOC_XSTACK8
          CFI CFA_XSP16 add(XSP16, 25)
        MOV     A,R2
        MOV     R6,A
        MOV     A,R3
        MOV     R7,A
        MOV     ?V0 + 2,R1
        MOV     ?V0 + 0,R4
        MOV     ?V0 + 1,R5
// 3103   ZStatus_t               status;
// 3104   APSME_TransportKeyReq_t req;
// 3105 
// 3106   // initialize common elements of local variables
// 3107   if ( ZG_CHECK_SECURITY_MODE == ZG_SECURITY_PRO_HIGH )
// 3108     req.keyType   = KEY_TYPE_NWK_HIGH;
// 3109   else
// 3110     req.keyType   = KEY_TYPE_NWK;
        MOV     A,#0x2
        LCALL   ?XSTACK_DISP0_8
        MOV     A,#0x1
        MOVX    @DPTR,A
// 3111 
// 3112   req.dstAddr   = dstAddr;
        MOV     DPL,?XSP + 0
        MOV     DPH,?XSP + 1
        MOV     A,?V0 + 0
        MOVX    @DPTR,A
        INC     DPTR
        MOV     A,?V0 + 1
        MOVX    @DPTR,A
// 3113   req.keySeqNum = keySeqNum;
        MOV     A,?V0 + 2
        MOV     A,#0x3
        LCALL   ?XSTACK_DISP0_8
        MOV     A,?V0 + 2
        MOVX    @DPTR,A
// 3114   req.key       = key;
        MOV     A,#0x4
        LCALL   ?XSTACK_DISP0_8
        MOV     A,R6
        MOVX    @DPTR,A
        INC     DPTR
        MOV     A,R7
        MOVX    @DPTR,A
// 3115   req.extAddr   = NULL;
        MOV     A,#0x6
        LCALL   ?XSTACK_DISP0_8
        MOV     A,#0x0
        MOVX    @DPTR,A
        INC     DPTR
        MOV     A,#0x0
        MOVX    @DPTR,A
// 3116   req.nwkSecure = TRUE;
        MOV     A,#0xa
        LCALL   ?XSTACK_DISP0_8
        MOV     A,#0x1
        MOVX    @DPTR,A
// 3117   req.apsSecure = TRUE;
        MOV     A,#0x9
        LCALL   ?XSTACK_DISP0_8
        MOV     A,#0x1
        MOVX    @DPTR,A
// 3118   req.tunnel    = NULL;
        MOV     A,#0xb
        LCALL   ?XSTACK_DISP0_8
        MOV     A,#0x0
        MOVX    @DPTR,A
        INC     DPTR
        MOV     A,#0x0
        MOVX    @DPTR,A
// 3119 
// 3120   if ( ZG_CHECK_SECURITY_MODE == ZG_SECURITY_PRO_HIGH )
// 3121   {
// 3122     ZDSecMgrEntry_t*        entry;
// 3123     uint16                  index;
// 3124     AddrMgrEntry_t          addrEntry;
// 3125 
// 3126     addrEntry.user = ADDRMGR_USER_SECURITY;
// 3127 
// 3128     status = ZFailure;
// 3129 
// 3130     // verify data is available
// 3131     if ( ZDSecMgrEntries != NULL )
// 3132     {
// 3133       // find available entry
// 3134       for ( index = 0; index < ZDSECMGR_ENTRY_MAX ; index++ )
// 3135       {
// 3136         if ( ZDSecMgrEntries[index].ami != INVALID_NODE_ADDR )
// 3137         {
// 3138           // return successful result
// 3139           entry = &ZDSecMgrEntries[index];
// 3140 
// 3141           // get NWK address
// 3142           addrEntry.index = entry->ami;
// 3143           if ( AddrMgrEntryGet( &addrEntry ) == TRUE )
// 3144           {
// 3145             req.dstAddr = addrEntry.nwkAddr;
// 3146             req.extAddr = addrEntry.extAddr;
// 3147             status = APSME_TransportKeyReq( &req );
// 3148           }
// 3149         }
// 3150       }
// 3151     }
// 3152   }
// 3153   else // ( ZG_CHECK_SECURITY_MODE == ZG_SECURITY_RESIDENTIAL )
// 3154   {
// 3155     status = APSME_TransportKeyReq( &req );
        ; Setup parameters for call to function APSME_TransportKeyReq
        MOV     DPL,?XSP + 0
        MOV     DPH,?XSP + 1
        MOV     R2,DPL
        MOV     R3,DPH
        LCALL   ??APSME_TransportKeyReq?relay
        MOV     A,R1
        MOV     ?V0 + 3,A
// 3156   }
// 3157 
// 3158   SSP_UpdateNwkKey( key, keySeqNum );
        ; Setup parameters for call to function SSP_UpdateNwkKey
        MOV     R1,?V0 + 2
        MOV     A,R6
        MOV     R2,A
        MOV     A,R7
        MOV     R3,A
        LCALL   ??SSP_UpdateNwkKey?relay
// 3159 
// 3160   // Save if nv
// 3161   ZDApp_NVUpdate();
        ; Setup parameters for call to function ZDApp_NVUpdate
        LCALL   ??ZDApp_NVUpdate?relay
// 3162 
// 3163   return status;
        MOV     R1,?V0 + 3
        MOV     A,#0xd
        LCALL   ?DEALLOC_XSTACK8
          CFI CFA_XSP16 add(XSP16, 12)
        MOV     R7,#0x4
        LJMP    ?BANKED_LEAVE_XDATA
          CFI EndBlock cfiBlock62
// 3164 }
// 3165 #endif // ( ZG_BUILD_COORDINATOR_TYPE )
// 3166 
// 3167 #if ( ZG_BUILD_COORDINATOR_TYPE )
// 3168 /******************************************************************************
// 3169  * @fn          ZDSecMgrSwitchNwkKey
// 3170  *
// 3171  * @brief       Causes the NWK key to switch via a network wide command.
// 3172  *
// 3173  * @param       keySeqNum - [in] new NWK key sequence number
// 3174  *
// 3175  * @return      ZStatus_t
// 3176  */

        RSEG BANKED_CODE:CODE:NOROOT(0)
// 3177 ZStatus_t ZDSecMgrSwitchNwkKey( uint8 keySeqNum, uint16 dstAddr )
ZDSecMgrSwitchNwkKey:
          CFI Block cfiBlock63 Using cfiCommon0
          CFI Function ZDSecMgrSwitchNwkKey
        CODE
// 3178 {
        FUNCALL ZDSecMgrSwitchNwkKey, APSME_SwitchKeyReq
        LOCFRAME ISTACK, 0, STACK
        LOCFRAME PSTACK, 0, STACK
        LOCFRAME XSTACK, 13, STACK
        LOCFRAME IOVERLAY, 0, STATIC
        LOCFRAME DOVERLAY, 0, STATIC
        ARGFRAME ISTACK, 0, STACK
        ARGFRAME PSTACK, 0, STACK
        ARGFRAME XSTACK, 13, STACK
        ARGFRAME IOVERLAY, 0, STATIC
        ARGFRAME DOVERLAY, 0, STATIC
        FUNCALL ZDSecMgrSwitchNwkKey, SSP_SwitchNwkKey
        LOCFRAME ISTACK, 0, STACK
        LOCFRAME PSTACK, 0, STACK
        LOCFRAME XSTACK, 13, STACK
        LOCFRAME IOVERLAY, 0, STATIC
        LOCFRAME DOVERLAY, 0, STATIC
        ARGFRAME ISTACK, 0, STACK
        ARGFRAME PSTACK, 0, STACK
        ARGFRAME XSTACK, 13, STACK
        ARGFRAME IOVERLAY, 0, STATIC
        ARGFRAME DOVERLAY, 0, STATIC
        FUNCALL ZDSecMgrSwitchNwkKey, ZDApp_NVUpdate
        LOCFRAME ISTACK, 0, STACK
        LOCFRAME PSTACK, 0, STACK
        LOCFRAME XSTACK, 13, STACK
        LOCFRAME IOVERLAY, 0, STATIC
        LOCFRAME DOVERLAY, 0, STATIC
        ARGFRAME ISTACK, 0, STACK
        ARGFRAME PSTACK, 0, STACK
        ARGFRAME XSTACK, 13, STACK
        ARGFRAME IOVERLAY, 0, STATIC
        ARGFRAME DOVERLAY, 0, STATIC
        MOV     A,#-0xa
        LCALL   ?BANKED_ENTER_XDATA
          CFI DPH0 load(1, XDATA, add(CFA_XSP16, literal(-1)))
          CFI DPL0 load(1, XDATA, add(CFA_XSP16, literal(-2)))
          CFI ?BRET_EXT load(1, XDATA, add(CFA_XSP16, literal(-3)))
          CFI ?RET_HIGH load(1, XDATA, add(CFA_XSP16, literal(-4)))
          CFI ?RET_LOW load(1, XDATA, add(CFA_XSP16, literal(-5)))
          CFI R7 load(1, XDATA, add(CFA_XSP16, literal(-6)))
          CFI V1 load(1, XDATA, add(CFA_XSP16, literal(-7)))
          CFI V0 load(1, XDATA, add(CFA_XSP16, literal(-8)))
          CFI VB load(1, XDATA, add(CFA_XSP16, literal(-9)))
          CFI R6 load(1, XDATA, add(CFA_XSP16, literal(-10)))
          CFI CFA_SP SP+0
          CFI CFA_XSP16 add(XSP16, 10)
        ; Saved register size: 10
        ; Auto size: 3
        MOV     A,#-0x3
        LCALL   ?ALLOC_XSTACK8
          CFI CFA_XSP16 add(XSP16, 13)
        MOV     A,R1
        MOV     R7,A
        MOV     ?V0 + 0,R2
        MOV     ?V0 + 1,R3
// 3179   ZStatus_t            status;
// 3180   APSME_SwitchKeyReq_t req;
// 3181 
// 3182   // initialize common elements of local variables
// 3183   req.dstAddr = dstAddr;
        MOV     DPL,?XSP + 0
        MOV     DPH,?XSP + 1
        MOV     A,?V0 + 0
        MOVX    @DPTR,A
        INC     DPTR
        MOV     A,?V0 + 1
        MOVX    @DPTR,A
// 3184   req.keySeqNum = keySeqNum;
        MOV     A,R7
        PUSH    A
          CFI CFA_SP SP+-1
        MOV     A,#0x2
        LCALL   ?XSTACK_DISP0_8
        POP     A
          CFI CFA_SP SP+0
        MOVX    @DPTR,A
// 3185 
// 3186   if ( ZG_CHECK_SECURITY_MODE == ZG_SECURITY_PRO_HIGH )
// 3187   {
// 3188     ZDSecMgrEntry_t*     entry;
// 3189     uint16               index;
// 3190     AddrMgrEntry_t       addrEntry;
// 3191 
// 3192     addrEntry.user = ADDRMGR_USER_SECURITY;
// 3193 
// 3194     status = ZFailure;
// 3195 
// 3196     // verify data is available
// 3197     if ( ZDSecMgrEntries != NULL )
// 3198     {
// 3199       // find available entry
// 3200       for ( index = 0; index < ZDSECMGR_ENTRY_MAX ; index++ )
// 3201       {
// 3202         if ( ZDSecMgrEntries[index].ami != INVALID_NODE_ADDR )
// 3203         {
// 3204           // return successful result
// 3205           entry = &ZDSecMgrEntries[index];
// 3206 
// 3207           // get NWK address
// 3208           addrEntry.index = entry->ami;
// 3209 
// 3210           if ( AddrMgrEntryGet( &addrEntry ) == TRUE )
// 3211           {
// 3212             req.dstAddr = addrEntry.nwkAddr;
// 3213             status = APSME_SwitchKeyReq( &req );
// 3214           }
// 3215         }
// 3216       }
// 3217     }
// 3218   }
// 3219   else // ( ZG_CHECK_SECURITY_MODE == ZG_SECURITY_RESIDENTIAL )
// 3220   {
// 3221     status = APSME_SwitchKeyReq( &req );
        ; Setup parameters for call to function APSME_SwitchKeyReq
        MOV     DPL,?XSP + 0
        MOV     DPH,?XSP + 1
        MOV     R2,DPL
        MOV     R3,DPH
        LCALL   ??APSME_SwitchKeyReq?relay
        MOV     A,R1
        MOV     R6,A
// 3222   }
// 3223 
// 3224   SSP_SwitchNwkKey( keySeqNum );
        ; Setup parameters for call to function SSP_SwitchNwkKey
        MOV     A,R7
        MOV     R1,A
        LCALL   ??SSP_SwitchNwkKey?relay
// 3225 
// 3226   // Save if nv
// 3227   ZDApp_NVUpdate();
        ; Setup parameters for call to function ZDApp_NVUpdate
        LCALL   ??ZDApp_NVUpdate?relay
// 3228 
// 3229   return status;
        MOV     A,R6
        MOV     R1,A
        MOV     A,#0x3
        LCALL   ?DEALLOC_XSTACK8
          CFI CFA_XSP16 add(XSP16, 10)
        MOV     R7,#0x2
        LJMP    ?BANKED_LEAVE_XDATA
          CFI EndBlock cfiBlock63
// 3230 }
// 3231 #endif // ( ZG_BUILD_COORDINATOR_TYPE )
// 3232 
// 3233 #if ( ZG_BUILD_JOINING_TYPE )
// 3234 /******************************************************************************
// 3235  * @fn          ZDSecMgrRequestAppKey
// 3236  *
// 3237  * @brief       Request an application key with partner.
// 3238  *
// 3239  * @param       partNwkAddr - [in] partner network address
// 3240  *
// 3241  * @return      ZStatus_t
// 3242  */
// 3243 ZStatus_t ZDSecMgrRequestAppKey( uint16 partNwkAddr )
// 3244 {
// 3245   ZStatus_t             status;
// 3246   APSME_RequestKeyReq_t req;
// 3247   uint8                 partExtAddr[Z_EXTADDR_LEN];
// 3248 
// 3249 
// 3250   if ( AddrMgrExtAddrLookup( partNwkAddr, partExtAddr ) )
// 3251   {
// 3252     req.dstAddr = 0;
// 3253     req.keyType = KEY_TYPE_APP_MASTER;
// 3254     req.partExtAddr = partExtAddr;
// 3255     status = APSME_RequestKeyReq( &req );
// 3256   }
// 3257   else
// 3258   {
// 3259     status = ZFailure;
// 3260   }
// 3261 
// 3262   return status;
// 3263 }
// 3264 #endif // ( ZG_BUILD_JOINING_TYPE )
// 3265 
// 3266 #if ( ZG_BUILD_JOINING_TYPE )
// 3267 /******************************************************************************
// 3268  * @fn          ZDSecMgrSetupPartner
// 3269  *
// 3270  * @brief       Setup for application key partner.
// 3271  *
// 3272  * @param       partNwkAddr - [in] partner network address
// 3273  *
// 3274  * @return      ZStatus_t
// 3275  */
// 3276 ZStatus_t ZDSecMgrSetupPartner( uint16 partNwkAddr, uint8* partExtAddr )
// 3277 {
// 3278   AddrMgrEntry_t entry;
// 3279   ZStatus_t      status;
// 3280 
// 3281   status = ZFailure;
// 3282 
// 3283   // update the address manager
// 3284   entry.user    = ADDRMGR_USER_SECURITY;
// 3285   entry.nwkAddr = partNwkAddr;
// 3286   AddrMgrExtAddrSet( entry.extAddr, partExtAddr );
// 3287 
// 3288   if ( AddrMgrEntryUpdate( &entry ) == TRUE )
// 3289   {
// 3290     status = ZSuccess;
// 3291 
// 3292     // check for address discovery
// 3293     if ( partNwkAddr == INVALID_NODE_ADDR )
// 3294     {
// 3295       status = ZDP_NwkAddrReq( partExtAddr, ZDP_ADDR_REQTYPE_SINGLE, 0, 0 );
// 3296     }
// 3297     else if ( !AddrMgrExtAddrValid( partExtAddr ) )
// 3298     {
// 3299       status = ZDP_IEEEAddrReq( partNwkAddr, ZDP_ADDR_REQTYPE_SINGLE, 0, 0 );
// 3300     }
// 3301   }
// 3302 
// 3303   return status;
// 3304 }
// 3305 #endif // ( ZG_BUILD_JOINING_TYPE )
// 3306 
// 3307 #if ( ZG_BUILD_COORDINATOR_TYPE )
// 3308 /******************************************************************************
// 3309  * @fn          ZDSecMgrAppKeyTypeSet
// 3310  *
// 3311  * @brief       Set application key type.
// 3312  *
// 3313  * @param       keyType - [in] application key type (KEY_TYPE_APP_MASTER@2 or
// 3314  *                                                   KEY_TYPE_APP_LINK@3
// 3315  *
// 3316  * @return      ZStatus_t
// 3317  */

        RSEG BANKED_CODE:CODE:NOROOT(0)
// 3318 ZStatus_t ZDSecMgrAppKeyTypeSet( uint8 keyType )
ZDSecMgrAppKeyTypeSet:
          CFI Block cfiBlock64 Using cfiCommon0
          CFI Function ZDSecMgrAppKeyTypeSet
        CODE
// 3319 {
        PUSH    DPL
          CFI DPL0 Frame(CFA_SP, 4)
          CFI CFA_SP SP+-4
        PUSH    DPH
          CFI DPH0 Frame(CFA_SP, 5)
          CFI CFA_SP SP+-5
        ; Saved register size: 2
        ; Auto size: 0
        MOV     A,R1
        MOV     R0,A
// 3320   if ( keyType == KEY_TYPE_APP_LINK )
        MOV     A,#0x3
        XRL     A,R0
        JNZ     ??ZDSecMgrAppKeyTypeSet_0
// 3321   {
// 3322     ZDSecMgrAppKeyType = KEY_TYPE_APP_LINK;
        MOV     DPTR,#ZDSecMgrAppKeyType
        MOV     A,#0x3
        MOVX    @DPTR,A
        SJMP    ??ZDSecMgrAppKeyTypeSet_1
// 3323   }
// 3324   else
// 3325   {
// 3326     ZDSecMgrAppKeyType = KEY_TYPE_APP_MASTER;
??ZDSecMgrAppKeyTypeSet_0:
        MOV     DPTR,#ZDSecMgrAppKeyType
        MOV     A,#0x2
        MOVX    @DPTR,A
// 3327   }
// 3328 
// 3329   return ZSuccess;
??ZDSecMgrAppKeyTypeSet_1:
        MOV     R1,#0x0
        POP     DPH
          CFI DPH0 SameValue
          CFI CFA_SP SP+-4
        POP     DPL
          CFI DPL0 SameValue
          CFI CFA_SP SP+-3
        LJMP    ?BRET
          CFI EndBlock cfiBlock64
// 3330 }
// 3331 #endif
// 3332 
// 3333 /******************************************************************************
// 3334  * ZigBee Device Security Manager - Stub Implementations
// 3335  */
// 3336 /******************************************************************************
// 3337  * @fn          ZDSecMgrMasterKeyGet (stubs APSME_MasterKeyGet)
// 3338  *
// 3339  * @brief       Get MASTER key for specified EXT address.
// 3340  *
// 3341  * @param       extAddr - [in] EXT address
// 3342  * @param       key     - [out] MASTER key
// 3343  *
// 3344  * @return      ZStatus_t
// 3345  */

        RSEG BANKED_CODE:CODE:NOROOT(0)
// 3346 ZStatus_t ZDSecMgrMasterKeyGet( uint8* extAddr, uint8** key )
APSME_MasterKeyGet:
          CFI Block cfiBlock65 Using cfiCommon0
          CFI Function APSME_MasterKeyGet
        CODE
// 3347 {
        FUNCALL APSME_MasterKeyGet, ZDSecMgrExtAddrLookup
        LOCFRAME ISTACK, 0, STACK
        LOCFRAME PSTACK, 0, STACK
        LOCFRAME XSTACK, 13, STACK
        LOCFRAME IOVERLAY, 0, STATIC
        LOCFRAME DOVERLAY, 0, STATIC
        ARGFRAME ISTACK, 0, STACK
        ARGFRAME PSTACK, 0, STACK
        ARGFRAME XSTACK, 13, STACK
        ARGFRAME IOVERLAY, 0, STATIC
        ARGFRAME DOVERLAY, 0, STATIC
        FUNCALL APSME_MasterKeyGet, ZDSecMgrMasterKeyLookup
        LOCFRAME ISTACK, 0, STACK
        LOCFRAME PSTACK, 0, STACK
        LOCFRAME XSTACK, 13, STACK
        LOCFRAME IOVERLAY, 0, STATIC
        LOCFRAME DOVERLAY, 0, STATIC
        ARGFRAME ISTACK, 0, STACK
        ARGFRAME PSTACK, 0, STACK
        ARGFRAME XSTACK, 13, STACK
        ARGFRAME IOVERLAY, 0, STATIC
        ARGFRAME DOVERLAY, 0, STATIC
        MOV     A,#-0xb
        LCALL   ?BANKED_ENTER_XDATA
          CFI DPH0 load(1, XDATA, add(CFA_XSP16, literal(-1)))
          CFI DPL0 load(1, XDATA, add(CFA_XSP16, literal(-2)))
          CFI ?BRET_EXT load(1, XDATA, add(CFA_XSP16, literal(-3)))
          CFI ?RET_HIGH load(1, XDATA, add(CFA_XSP16, literal(-4)))
          CFI ?RET_LOW load(1, XDATA, add(CFA_XSP16, literal(-5)))
          CFI R7 load(1, XDATA, add(CFA_XSP16, literal(-6)))
          CFI V2 load(1, XDATA, add(CFA_XSP16, literal(-7)))
          CFI V1 load(1, XDATA, add(CFA_XSP16, literal(-8)))
          CFI V0 load(1, XDATA, add(CFA_XSP16, literal(-9)))
          CFI VB load(1, XDATA, add(CFA_XSP16, literal(-10)))
          CFI R6 load(1, XDATA, add(CFA_XSP16, literal(-11)))
          CFI CFA_SP SP+0
          CFI CFA_XSP16 add(XSP16, 11)
        ; Saved register size: 11
        ; Auto size: 2
        MOV     A,#-0x2
        LCALL   ?ALLOC_XSTACK8
          CFI CFA_XSP16 add(XSP16, 13)
        MOV     ?V0 + 0,R2
        MOV     ?V0 + 1,R3
        MOV     A,R4
        MOV     R6,A
        MOV     A,R5
        MOV     R7,A
// 3348   ZStatus_t status;
// 3349   uint16    ami;
// 3350 
// 3351 
// 3352   // lookup entry for specified EXT address
// 3353   status = ZDSecMgrExtAddrLookup( extAddr, &ami );
        ; Setup parameters for call to function ZDSecMgrExtAddrLookup
        MOV     DPL,?XSP + 0
        MOV     DPH,?XSP + 1
        MOV     R4,DPL
        MOV     R5,DPH
        MOV     R2,?V0 + 0
        MOV     R3,?V0 + 1
        LCALL   ??ZDSecMgrExtAddrLookup?relay
        MOV     A,R1
        MOV     ?V0 + 2,A
// 3354   //status = ZDSecMgrEntryLookupExt( extAddr, &entry );
// 3355 
// 3356   if ( status == ZSuccess )
        MOV     A,?V0 + 2
        JNZ     ??APSME_MasterKeyGet_0
// 3357   {
// 3358     ZDSecMgrMasterKeyLookup( ami, key );
        ; Setup parameters for call to function ZDSecMgrMasterKeyLookup
        MOV     A,R6
        MOV     R4,A
        MOV     A,R7
        MOV     R5,A
        MOV     DPL,?XSP + 0
        MOV     DPH,?XSP + 1
        MOVX    A,@DPTR
        MOV     R2,A
        INC     DPTR
        MOVX    A,@DPTR
        MOV     R3,A
        LCALL   ??ZDSecMgrMasterKeyLookup?relay
        MOV     A,R1
        SJMP    ??APSME_MasterKeyGet_1
// 3359   }
// 3360   else
// 3361   {
// 3362     *key = NULL;
??APSME_MasterKeyGet_0:
        MOV     DPL,R6
        MOV     DPH,R7
        MOV     A,#0x0
        MOVX    @DPTR,A
        INC     DPTR
        MOV     A,#0x0
        MOVX    @DPTR,A
// 3363   }
// 3364 
// 3365   return status;
??APSME_MasterKeyGet_1:
        MOV     R1,?V0 + 2
        MOV     A,#0x2
        LCALL   ?DEALLOC_XSTACK8
          CFI CFA_XSP16 add(XSP16, 11)
        MOV     R7,#0x3
        LJMP    ?BANKED_LEAVE_XDATA
          CFI EndBlock cfiBlock65
// 3366 }
// 3367 
// 3368 /******************************************************************************
// 3369  * @fn          ZDSecMgrLinkKeySet (stubs APSME_LinkKeySet)
// 3370  *
// 3371  * @brief       Set <APSME_LinkKeyData_t> for specified NWK address.
// 3372  *
// 3373  * @param       extAddr - [in] EXT address
// 3374  * @param       data    - [in] APSME_LinkKeyData_t
// 3375  *
// 3376  * @return      ZStatus_t
// 3377  */

        RSEG BANKED_CODE:CODE:NOROOT(0)
// 3378 ZStatus_t ZDSecMgrLinkKeySet( uint8* extAddr, uint8* key )
APSME_LinkKeySet:
          CFI Block cfiBlock66 Using cfiCommon0
          CFI Function APSME_LinkKeySet
        CODE
// 3379 {
        FUNCALL APSME_LinkKeySet, ZDSecMgrEntryLookupExt
        LOCFRAME ISTACK, 0, STACK
        LOCFRAME PSTACK, 0, STACK
        LOCFRAME XSTACK, 17, STACK
        LOCFRAME IOVERLAY, 0, STATIC
        LOCFRAME DOVERLAY, 0, STATIC
        ARGFRAME ISTACK, 0, STACK
        ARGFRAME PSTACK, 0, STACK
        ARGFRAME XSTACK, 17, STACK
        ARGFRAME IOVERLAY, 0, STATIC
        ARGFRAME DOVERLAY, 0, STATIC
        FUNCALL APSME_LinkKeySet, osal_memcpy
        LOCFRAME ISTACK, 0, STACK
        LOCFRAME PSTACK, 0, STACK
        LOCFRAME XSTACK, 20, STACK
        LOCFRAME IOVERLAY, 0, STATIC
        LOCFRAME DOVERLAY, 0, STATIC
        ARGFRAME ISTACK, 0, STACK
        ARGFRAME PSTACK, 0, STACK
        ARGFRAME XSTACK, 20, STACK
        ARGFRAME IOVERLAY, 0, STATIC
        ARGFRAME DOVERLAY, 0, STATIC
        MOV     A,#-0xf
        LCALL   ?BANKED_ENTER_XDATA
          CFI DPH0 load(1, XDATA, add(CFA_XSP16, literal(-1)))
          CFI DPL0 load(1, XDATA, add(CFA_XSP16, literal(-2)))
          CFI ?BRET_EXT load(1, XDATA, add(CFA_XSP16, literal(-3)))
          CFI ?RET_HIGH load(1, XDATA, add(CFA_XSP16, literal(-4)))
          CFI ?RET_LOW load(1, XDATA, add(CFA_XSP16, literal(-5)))
          CFI R7 load(1, XDATA, add(CFA_XSP16, literal(-6)))
          CFI V6 load(1, XDATA, add(CFA_XSP16, literal(-7)))
          CFI V5 load(1, XDATA, add(CFA_XSP16, literal(-8)))
          CFI V4 load(1, XDATA, add(CFA_XSP16, literal(-9)))
          CFI V3 load(1, XDATA, add(CFA_XSP16, literal(-10)))
          CFI V2 load(1, XDATA, add(CFA_XSP16, literal(-11)))
          CFI V1 load(1, XDATA, add(CFA_XSP16, literal(-12)))
          CFI V0 load(1, XDATA, add(CFA_XSP16, literal(-13)))
          CFI VB load(1, XDATA, add(CFA_XSP16, literal(-14)))
          CFI R6 load(1, XDATA, add(CFA_XSP16, literal(-15)))
          CFI CFA_SP SP+0
          CFI CFA_XSP16 add(XSP16, 15)
        ; Saved register size: 15
        ; Auto size: 2
        MOV     A,#-0x2
        LCALL   ?ALLOC_XSTACK8
          CFI CFA_XSP16 add(XSP16, 17)
        MOV     ?V0 + 2,R2
        MOV     ?V0 + 3,R3
        MOV     A,R4
        MOV     R6,A
        MOV     A,R5
        MOV     R7,A
// 3380   ZStatus_t        status;
// 3381   ZDSecMgrEntry_t* entry;
// 3382 
// 3383 
// 3384   // lookup entry index for specified EXT address
// 3385   status = ZDSecMgrEntryLookupExt( extAddr, &entry );
        ; Setup parameters for call to function ZDSecMgrEntryLookupExt
        MOV     DPL,?XSP + 0
        MOV     DPH,?XSP + 1
        MOV     R4,DPL
        MOV     R5,DPH
        MOV     R2,?V0 + 2
        MOV     R3,?V0 + 3
        LCALL   ??ZDSecMgrEntryLookupExt?relay
        MOV     A,R1
        MOV     ?V0 + 0,A
// 3386 
// 3387   if ( status == ZSuccess )
        MOV     A,?V0 + 0
        JNZ     ??APSME_LinkKeySet_0
// 3388   {
// 3389     // setup the link key data reference
// 3390     osal_memcpy( entry->lkd.key, key, SEC_KEY_LEN );
        ; Setup parameters for call to function osal_memcpy
        MOV     ?V0 + 4,R6
        MOV     ?V0 + 5,R7
        MOV     ?V0 + 6,#0x0
        MOV     R0,#?V0 + 4
        LCALL   ?PUSH_XSTACK_I_THREE
          CFI CFA_XSP16 add(XSP16, 20)
        MOV     R4,#0x10
        MOV     R5,#0x0
        MOV     A,#0x3
        LCALL   ?XSTACK_DISP0_8
        MOVX    A,@DPTR
        ADD     A,#0x2
        MOV     R2,A
        INC     DPTR
        MOVX    A,@DPTR
        ADDC    A,#0x0
        MOV     R3,A
        LCALL   ??osal_memcpy?relay
        MOV     A,#0x3
        LCALL   ?DEALLOC_XSTACK8
          CFI CFA_XSP16 add(XSP16, 17)
// 3391 
// 3392     entry->lkd.apsmelkd.rxFrmCntr = 0;
        MOV     R2,#0x0
        MOV     R3,#0x0
        MOV     R4,#0x0
        MOV     R5,#0x0
        MOV     DPL,?XSP + 0
        MOV     DPH,?XSP + 1
        MOVX    A,@DPTR
        MOV     R0,A
        INC     DPTR
        MOVX    A,@DPTR
        XCH     A,R0
        ADD     A,#0x18
        MOV     DPL,A
        MOV     A,R0
        ADDC    A,#0x0
        MOV     DPH,A
        MOV     A,R2
        MOVX    @DPTR,A
        INC     DPTR
        MOV     A,R3
        MOVX    @DPTR,A
        INC     DPTR
        MOV     A,R4
        MOVX    @DPTR,A
        INC     DPTR
        MOV     A,R5
        MOVX    @DPTR,A
// 3393     entry->lkd.apsmelkd.txFrmCntr = 0;
        MOV     R2,#0x0
        MOV     R3,#0x0
        MOV     R4,#0x0
        MOV     R5,#0x0
        MOV     DPL,?XSP + 0
        MOV     DPH,?XSP + 1
        MOVX    A,@DPTR
        MOV     R0,A
        INC     DPTR
        MOVX    A,@DPTR
        XCH     A,R0
        ADD     A,#0x14
        MOV     DPL,A
        MOV     A,R0
        ADDC    A,#0x0
        MOV     DPH,A
        MOV     A,R2
        MOVX    @DPTR,A
        INC     DPTR
        MOV     A,R3
        MOVX    @DPTR,A
        INC     DPTR
        MOV     A,R4
        MOVX    @DPTR,A
        INC     DPTR
        MOV     A,R5
        MOVX    @DPTR,A
// 3394   }
// 3395 
// 3396   return status;
??APSME_LinkKeySet_0:
        MOV     R1,?V0 + 0
        MOV     A,#0x2
        LCALL   ?DEALLOC_XSTACK8
          CFI CFA_XSP16 add(XSP16, 15)
        MOV     R7,#0x7
        LJMP    ?BANKED_LEAVE_XDATA
          CFI EndBlock cfiBlock66
// 3397 }
// 3398 
// 3399 /******************************************************************************
// 3400  * @fn          ZDSecMgrAuthenticationSet
// 3401  *
// 3402  * @brief       Mark the specific device as authenticated or not
// 3403  *
// 3404  * @param       extAddr - [in] EXT address
// 3405  * @param       option  - [in] authenticated or not
// 3406  *
// 3407  * @return      ZStatus_t
// 3408  */

        RSEG BANKED_CODE:CODE:NOROOT(0)
// 3409 ZStatus_t ZDSecMgrAuthenticationSet( uint8* extAddr, ZDSecMgr_Authentication_Option option )
ZDSecMgrAuthenticationSet:
          CFI Block cfiBlock67 Using cfiCommon0
          CFI Function ZDSecMgrAuthenticationSet
        CODE
// 3410 {
        FUNCALL ZDSecMgrAuthenticationSet, ZDSecMgrEntryLookupExt
        LOCFRAME ISTACK, 0, STACK
        LOCFRAME PSTACK, 0, STACK
        LOCFRAME XSTACK, 12, STACK
        LOCFRAME IOVERLAY, 0, STATIC
        LOCFRAME DOVERLAY, 0, STATIC
        ARGFRAME ISTACK, 0, STACK
        ARGFRAME PSTACK, 0, STACK
        ARGFRAME XSTACK, 12, STACK
        ARGFRAME IOVERLAY, 0, STATIC
        ARGFRAME DOVERLAY, 0, STATIC
        MOV     A,#-0xa
        LCALL   ?BANKED_ENTER_XDATA
          CFI DPH0 load(1, XDATA, add(CFA_XSP16, literal(-1)))
          CFI DPL0 load(1, XDATA, add(CFA_XSP16, literal(-2)))
          CFI ?BRET_EXT load(1, XDATA, add(CFA_XSP16, literal(-3)))
          CFI ?RET_HIGH load(1, XDATA, add(CFA_XSP16, literal(-4)))
          CFI ?RET_LOW load(1, XDATA, add(CFA_XSP16, literal(-5)))
          CFI R7 load(1, XDATA, add(CFA_XSP16, literal(-6)))
          CFI V1 load(1, XDATA, add(CFA_XSP16, literal(-7)))
          CFI V0 load(1, XDATA, add(CFA_XSP16, literal(-8)))
          CFI VB load(1, XDATA, add(CFA_XSP16, literal(-9)))
          CFI R6 load(1, XDATA, add(CFA_XSP16, literal(-10)))
          CFI CFA_SP SP+0
          CFI CFA_XSP16 add(XSP16, 10)
        ; Saved register size: 10
        ; Auto size: 2
        MOV     A,#-0x2
        LCALL   ?ALLOC_XSTACK8
          CFI CFA_XSP16 add(XSP16, 12)
        MOV     A,R2
        MOV     R6,A
        MOV     A,R3
        MOV     R7,A
        MOV     ?V0 + 1,R1
// 3411   ZStatus_t        status;
// 3412   ZDSecMgrEntry_t* entry;
// 3413 
// 3414 
// 3415   // lookup entry index for specified EXT address
// 3416   status = ZDSecMgrEntryLookupExt( extAddr, &entry );
        ; Setup parameters for call to function ZDSecMgrEntryLookupExt
        MOV     DPL,?XSP + 0
        MOV     DPH,?XSP + 1
        MOV     R4,DPL
        MOV     R5,DPH
        MOV     A,R6
        MOV     R2,A
        MOV     A,R7
        MOV     R3,A
        LCALL   ??ZDSecMgrEntryLookupExt?relay
        MOV     A,R1
        MOV     ?V0 + 0,A
// 3417 
// 3418   if ( status == ZSuccess )
        MOV     A,?V0 + 0
        JNZ     ??ZDSecMgrAuthenticationSet_0
// 3419   {
// 3420     entry->authenticateOption = option;
        MOV     A,?V0 + 1
        MOV     DPL,?XSP + 0
        MOV     DPH,?XSP + 1
        MOVX    A,@DPTR
        MOV     R0,A
        INC     DPTR
        MOVX    A,@DPTR
        XCH     A,R0
        ADD     A,#0x1c
        MOV     DPL,A
        MOV     A,R0
        ADDC    A,#0x0
        MOV     DPH,A
        MOV     A,?V0 + 1
        MOVX    @DPTR,A
// 3421   }
// 3422 
// 3423   return status;
??ZDSecMgrAuthenticationSet_0:
        MOV     R1,?V0 + 0
        MOV     A,#0x2
        LCALL   ?DEALLOC_XSTACK8
          CFI CFA_XSP16 add(XSP16, 10)
        MOV     R7,#0x2
        LJMP    ?BANKED_LEAVE_XDATA
          CFI EndBlock cfiBlock67
// 3424 }
// 3425 
// 3426 /******************************************************************************
// 3427  * @fn          ZDSecMgrAuthenticationCheck
// 3428  *
// 3429  * @brief       Check if the specific device has been authenticated or not
// 3430  *              For non-trust center device, always return true
// 3431  *
// 3432  * @param       shortAddr - [in] short address
// 3433  *
// 3434  * @return      TRUE @ authenticated with CBKE
// 3435  *              FALSE @ not authenticated
// 3436  */
// 3437 

        RSEG BANKED_CODE:CODE:NOROOT(0)
// 3438 uint8 ZDSecMgrAuthenticationCheck( uint16 shortAddr )
ZDSecMgrAuthenticationCheck:
          CFI Block cfiBlock68 Using cfiCommon0
          CFI Function ZDSecMgrAuthenticationCheck
        CODE
// 3439 {
        ; Saved register size: 0
        ; Auto size: 0
// 3440 #if defined (TC_LINKKEY_JOIN)
// 3441 
// 3442   ZDSecMgrEntry_t* entry;
// 3443   uint8 extAddr[Z_EXTADDR_LEN];
// 3444 
// 3445   // If the local device is not the trust center, always return TRUE
// 3446   if ( NLME_GetShortAddr() != TCshortAddr )
// 3447   {
// 3448     return TRUE;
// 3449   }
// 3450   // Otherwise, check the authentication option
// 3451   else if ( AddrMgrExtAddrLookup( shortAddr, extAddr ) )
// 3452   {
// 3453     // lookup entry index for specified EXT address
// 3454     if ( ZDSecMgrEntryLookupExt( extAddr, &entry ) == ZSuccess )
// 3455     {
// 3456       if ( entry->authenticateOption != ZDSecMgr_Not_Authenticated )
// 3457       {
// 3458         return TRUE;
// 3459       }
// 3460       else
// 3461       {
// 3462         return FALSE;
// 3463       }
// 3464     }
// 3465   }
// 3466   return FALSE;
// 3467 
// 3468 #else
// 3469   (void)shortAddr;  // Intentionally unreferenced parameter
// 3470   
// 3471   // For non AMI/SE Profile, perform no check and always return true.
// 3472   return TRUE;
        MOV     R1,#0x1
        LJMP    ?BRET
          CFI EndBlock cfiBlock68
// 3473 
// 3474 #endif // TC_LINKKEY_JOIN
// 3475 }
// 3476 
// 3477 
// 3478 /******************************************************************************
// 3479  * @fn          ZDSecMgrLinkKeyDataGet (stubs APSME_LinkKeyDataGet)
// 3480  *
// 3481  * @brief       Get <APSME_LinkKeyData_t> for specified NWK address.
// 3482  *
// 3483  * @param       extAddr - [in] EXT address
// 3484  * @param       data    - [out] APSME_LinkKeyData_t
// 3485  *
// 3486  * @return      ZStatus_t
// 3487  */

        RSEG BANKED_CODE:CODE:NOROOT(0)
// 3488 ZStatus_t ZDSecMgrLinkKeyDataGet(uint8* extAddr, APSME_LinkKeyData_t** data)
APSME_LinkKeyDataGet:
          CFI Block cfiBlock69 Using cfiCommon0
          CFI Function APSME_LinkKeyDataGet
        CODE
// 3489 {
        FUNCALL APSME_LinkKeyDataGet, ZDSecMgrEntryLookupExt
        LOCFRAME ISTACK, 0, STACK
        LOCFRAME PSTACK, 0, STACK
        LOCFRAME XSTACK, 13, STACK
        LOCFRAME IOVERLAY, 0, STATIC
        LOCFRAME DOVERLAY, 0, STATIC
        ARGFRAME ISTACK, 0, STACK
        ARGFRAME PSTACK, 0, STACK
        ARGFRAME XSTACK, 13, STACK
        ARGFRAME IOVERLAY, 0, STATIC
        ARGFRAME DOVERLAY, 0, STATIC
        MOV     A,#-0xb
        LCALL   ?BANKED_ENTER_XDATA
          CFI DPH0 load(1, XDATA, add(CFA_XSP16, literal(-1)))
          CFI DPL0 load(1, XDATA, add(CFA_XSP16, literal(-2)))
          CFI ?BRET_EXT load(1, XDATA, add(CFA_XSP16, literal(-3)))
          CFI ?RET_HIGH load(1, XDATA, add(CFA_XSP16, literal(-4)))
          CFI ?RET_LOW load(1, XDATA, add(CFA_XSP16, literal(-5)))
          CFI R7 load(1, XDATA, add(CFA_XSP16, literal(-6)))
          CFI V2 load(1, XDATA, add(CFA_XSP16, literal(-7)))
          CFI V1 load(1, XDATA, add(CFA_XSP16, literal(-8)))
          CFI V0 load(1, XDATA, add(CFA_XSP16, literal(-9)))
          CFI VB load(1, XDATA, add(CFA_XSP16, literal(-10)))
          CFI R6 load(1, XDATA, add(CFA_XSP16, literal(-11)))
          CFI CFA_SP SP+0
          CFI CFA_XSP16 add(XSP16, 11)
        ; Saved register size: 11
        ; Auto size: 2
        MOV     A,#-0x2
        LCALL   ?ALLOC_XSTACK8
          CFI CFA_XSP16 add(XSP16, 13)
        MOV     A,R2
        MOV     R6,A
        MOV     A,R3
        MOV     R7,A
        MOV     ?V0 + 0,R4
        MOV     ?V0 + 1,R5
// 3490   ZStatus_t        status;
// 3491   ZDSecMgrEntry_t* entry;
// 3492 
// 3493 
// 3494   // lookup entry index for specified NWK address
// 3495   status = ZDSecMgrEntryLookupExt( extAddr, &entry );
        ; Setup parameters for call to function ZDSecMgrEntryLookupExt
        MOV     DPL,?XSP + 0
        MOV     DPH,?XSP + 1
        MOV     R4,DPL
        MOV     R5,DPH
        MOV     A,R6
        MOV     R2,A
        MOV     A,R7
        MOV     R3,A
        LCALL   ??ZDSecMgrEntryLookupExt?relay
        MOV     A,R1
        MOV     ?V0 + 2,A
// 3496 
// 3497   if ( status == ZSuccess )
        MOV     A,?V0 + 2
        JNZ     ??APSME_LinkKeyDataGet_0
// 3498   {
// 3499     // setup the link key data reference
// 3500     (*data) = &entry->lkd.apsmelkd;
        MOV     DPL,?XSP + 0
        MOV     DPH,?XSP + 1
        MOVX    A,@DPTR
        ADD     A,#0x12
        MOV     R0,A
        INC     DPTR
        MOVX    A,@DPTR
        ADDC    A,#0x0
        MOV     R1,A
        MOV     DPL,?V0 + 0
        MOV     DPH,?V0 + 1
        MOV     A,R0
        MOVX    @DPTR,A
        INC     DPTR
        MOV     A,R1
        MOVX    @DPTR,A
// 3501     (*data)->key = entry->lkd.key;
        MOV     DPL,?XSP + 0
        MOV     DPH,?XSP + 1
        MOVX    A,@DPTR
        ADD     A,#0x2
        MOV     R0,A
        INC     DPTR
        MOVX    A,@DPTR
        ADDC    A,#0x0
        MOV     R1,A
        MOV     DPL,?V0 + 0
        MOV     DPH,?V0 + 1
        MOVX    A,@DPTR
        MOV     R2,A
        INC     DPTR
        MOVX    A,@DPTR
        MOV     DPH,A
        MOV     DPL,R2
        MOV     A,R0
        MOVX    @DPTR,A
        INC     DPTR
        MOV     A,R1
        MOVX    @DPTR,A
        SJMP    ??APSME_LinkKeyDataGet_1
// 3502   }
// 3503   else
// 3504   {
// 3505     *data = NULL;
??APSME_LinkKeyDataGet_0:
        MOV     DPL,?V0 + 0
        MOV     DPH,?V0 + 1
        MOV     A,#0x0
        MOVX    @DPTR,A
        INC     DPTR
        MOV     A,#0x0
        MOVX    @DPTR,A
// 3506   }
// 3507 
// 3508   return status;
??APSME_LinkKeyDataGet_1:
        MOV     R1,?V0 + 2
        MOV     A,#0x2
        LCALL   ?DEALLOC_XSTACK8
          CFI CFA_XSP16 add(XSP16, 11)
        MOV     R7,#0x3
        LJMP    ?BANKED_LEAVE_XDATA
          CFI EndBlock cfiBlock69
// 3509 }
// 3510 
// 3511 /******************************************************************************
// 3512  * @fn          ZDSecMgrKeyFwdToChild (stubs APSME_KeyFwdToChild)
// 3513  *
// 3514  * @brief       Verify and process key transportation to child.
// 3515  *
// 3516  * @param       ind - [in] APSME_TransportKeyInd_t
// 3517  *
// 3518  * @return      uint8 - success(TRUE:FALSE)
// 3519  */

        RSEG BANKED_CODE:CODE:NOROOT(0)
// 3520 uint8 ZDSecMgrKeyFwdToChild( APSME_TransportKeyInd_t* ind )
APSME_KeyFwdToChild:
          CFI Block cfiBlock70 Using cfiCommon0
          CFI Function APSME_KeyFwdToChild
        CODE
// 3521 {
        FUNCALL APSME_KeyFwdToChild, AssocGetWithExt
        LOCFRAME ISTACK, 0, STACK
        LOCFRAME PSTACK, 0, STACK
        LOCFRAME XSTACK, 9, STACK
        LOCFRAME IOVERLAY, 0, STATIC
        LOCFRAME DOVERLAY, 0, STATIC
        ARGFRAME ISTACK, 0, STACK
        ARGFRAME PSTACK, 0, STACK
        ARGFRAME XSTACK, 9, STACK
        ARGFRAME IOVERLAY, 0, STATIC
        ARGFRAME DOVERLAY, 0, STATIC
        FUNCALL APSME_KeyFwdToChild, ZDSecMgrAssocDeviceAuth
        LOCFRAME ISTACK, 0, STACK
        LOCFRAME PSTACK, 0, STACK
        LOCFRAME XSTACK, 9, STACK
        LOCFRAME IOVERLAY, 0, STATIC
        LOCFRAME DOVERLAY, 0, STATIC
        ARGFRAME ISTACK, 0, STACK
        ARGFRAME PSTACK, 0, STACK
        ARGFRAME XSTACK, 9, STACK
        ARGFRAME IOVERLAY, 0, STATIC
        ARGFRAME DOVERLAY, 0, STATIC
        MOV     A,#-0x9
        LCALL   ?BANKED_ENTER_XDATA
          CFI DPH0 load(1, XDATA, add(CFA_XSP16, literal(-1)))
          CFI DPL0 load(1, XDATA, add(CFA_XSP16, literal(-2)))
          CFI ?BRET_EXT load(1, XDATA, add(CFA_XSP16, literal(-3)))
          CFI ?RET_HIGH load(1, XDATA, add(CFA_XSP16, literal(-4)))
          CFI ?RET_LOW load(1, XDATA, add(CFA_XSP16, literal(-5)))
          CFI R7 load(1, XDATA, add(CFA_XSP16, literal(-6)))
          CFI V0 load(1, XDATA, add(CFA_XSP16, literal(-7)))
          CFI VB load(1, XDATA, add(CFA_XSP16, literal(-8)))
          CFI R6 load(1, XDATA, add(CFA_XSP16, literal(-9)))
          CFI CFA_SP SP+0
          CFI CFA_XSP16 add(XSP16, 9)
        ; Saved register size: 9
        ; Auto size: 0
        MOV     A,R2
        MOV     R6,A
        MOV     A,R3
        MOV     R7,A
// 3522   uint8 success;
// 3523 
// 3524   success = FALSE;
        MOV     ?V0 + 0,#0x0
// 3525 
// 3526   // verify from Trust Center
// 3527   if ( ind->srcAddr == APSME_TRUSTCENTER_NWKADDR )
        MOV     DPL,R6
        MOV     DPH,R7
        MOVX    A,@DPTR
        MOV     R0,A
        INC     DPTR
        MOVX    A,@DPTR
        MOV     R1,A
        MOV     A,R0
        ORL     A,R1
        JNZ     ??APSME_KeyFwdToChild_0
// 3528   {
// 3529     success = TRUE;
        MOV     ?V0 + 0,#0x1
// 3530 
// 3531     // check for initial NWK key
// 3532     if ( ( ind->keyType == KEY_TYPE_NWK      ) ||
// 3533          ( ind->keyType == 6                 ) ||
// 3534          ( ind->keyType == KEY_TYPE_NWK_HIGH )    )
        MOV     DPL,R6
        MOV     DPH,R7
        INC     DPTR
        INC     DPTR
        MOVX    A,@DPTR
        XRL     A,#0x1
        JZ      ??APSME_KeyFwdToChild_1
        MOV     DPL,R6
        MOV     DPH,R7
        INC     DPTR
        INC     DPTR
        MOVX    A,@DPTR
        XRL     A,#0x6
        JZ      ??APSME_KeyFwdToChild_1
        MOV     DPL,R6
        MOV     DPH,R7
        INC     DPTR
        INC     DPTR
        MOVX    A,@DPTR
        XRL     A,#0x5
        JNZ     ??APSME_KeyFwdToChild_0
// 3535     {
// 3536       // set association status to authenticated
// 3537       ZDSecMgrAssocDeviceAuth( AssocGetWithExt( ind->dstExtAddr ) );
??APSME_KeyFwdToChild_1:
        ; Setup parameters for call to function ZDSecMgrAssocDeviceAuth
        ; Setup parameters for call to function AssocGetWithExt
        MOV     DPL,R6
        MOV     DPH,R7
        INC     DPTR
        INC     DPTR
        INC     DPTR
        INC     DPTR
        INC     DPTR
        INC     DPTR
        MOVX    A,@DPTR
        MOV     R2,A
        INC     DPTR
        MOVX    A,@DPTR
        MOV     R3,A
        LCALL   ??AssocGetWithExt?relay
        LCALL   ??ZDSecMgrAssocDeviceAuth?relay
// 3538     }
// 3539   }
// 3540 
// 3541   return success;
??APSME_KeyFwdToChild_0:
        MOV     R1,?V0 + 0
        MOV     R7,#0x1
        LJMP    ?BANKED_LEAVE_XDATA
          CFI EndBlock cfiBlock70
// 3542 }
// 3543 
// 3544 /******************************************************************************
// 3545  * @fn          ZDSecMgrAddLinkKey
// 3546  *
// 3547  * @brief       Add the application link key to ZDSecMgr. Also mark the device
// 3548  *              as authenticated in the authenticateOption. Note that this function
// 3549  *              is hardwared to CBKE right now.
// 3550  *
// 3551  * @param       shortAddr - short address of the partner device
// 3552  * @param       extAddr - extended address of the partner device
// 3553  * @param       key - link key
// 3554  *
// 3555  * @return      ZStatus_t
// 3556  */

        RSEG BANKED_CODE:CODE:NOROOT(0)
// 3557 ZStatus_t ZDSecMgrAddLinkKey( uint16 shortAddr, uint8 *extAddr, uint8 *key)
ZDSecMgrAddLinkKey:
          CFI Block cfiBlock71 Using cfiCommon0
          CFI Function ZDSecMgrAddLinkKey
        CODE
// 3558 {
        FUNCALL ZDSecMgrAddLinkKey, ZDSecMgrAddrStore
        LOCFRAME ISTACK, 0, STACK
        LOCFRAME PSTACK, 0, STACK
        LOCFRAME XSTACK, 20, STACK
        LOCFRAME IOVERLAY, 0, STATIC
        LOCFRAME DOVERLAY, 0, STATIC
        ARGFRAME ISTACK, 0, STACK
        ARGFRAME PSTACK, 0, STACK
        ARGFRAME XSTACK, 20, STACK
        ARGFRAME IOVERLAY, 0, STATIC
        ARGFRAME DOVERLAY, 0, STATIC
        FUNCALL ZDSecMgrAddLinkKey, ZDSecMgrEntryLookupAMI
        LOCFRAME ISTACK, 0, STACK
        LOCFRAME PSTACK, 0, STACK
        LOCFRAME XSTACK, 18, STACK
        LOCFRAME IOVERLAY, 0, STATIC
        LOCFRAME DOVERLAY, 0, STATIC
        ARGFRAME ISTACK, 0, STACK
        ARGFRAME PSTACK, 0, STACK
        ARGFRAME XSTACK, 18, STACK
        ARGFRAME IOVERLAY, 0, STATIC
        ARGFRAME DOVERLAY, 0, STATIC
        FUNCALL ZDSecMgrAddLinkKey, ZDSecMgrEntryNew
        LOCFRAME ISTACK, 0, STACK
        LOCFRAME PSTACK, 0, STACK
        LOCFRAME XSTACK, 18, STACK
        LOCFRAME IOVERLAY, 0, STATIC
        LOCFRAME DOVERLAY, 0, STATIC
        ARGFRAME ISTACK, 0, STACK
        ARGFRAME PSTACK, 0, STACK
        ARGFRAME XSTACK, 18, STACK
        ARGFRAME IOVERLAY, 0, STATIC
        ARGFRAME DOVERLAY, 0, STATIC
        FUNCALL ZDSecMgrAddLinkKey, APSME_LinkKeySet
        LOCFRAME ISTACK, 0, STACK
        LOCFRAME PSTACK, 0, STACK
        LOCFRAME XSTACK, 18, STACK
        LOCFRAME IOVERLAY, 0, STATIC
        LOCFRAME DOVERLAY, 0, STATIC
        ARGFRAME ISTACK, 0, STACK
        ARGFRAME PSTACK, 0, STACK
        ARGFRAME XSTACK, 18, STACK
        ARGFRAME IOVERLAY, 0, STATIC
        ARGFRAME DOVERLAY, 0, STATIC
        MOV     A,#-0xe
        LCALL   ?BANKED_ENTER_XDATA
          CFI DPH0 load(1, XDATA, add(CFA_XSP16, literal(-1)))
          CFI DPL0 load(1, XDATA, add(CFA_XSP16, literal(-2)))
          CFI ?BRET_EXT load(1, XDATA, add(CFA_XSP16, literal(-3)))
          CFI ?RET_HIGH load(1, XDATA, add(CFA_XSP16, literal(-4)))
          CFI ?RET_LOW load(1, XDATA, add(CFA_XSP16, literal(-5)))
          CFI R7 load(1, XDATA, add(CFA_XSP16, literal(-6)))
          CFI V5 load(1, XDATA, add(CFA_XSP16, literal(-7)))
          CFI V4 load(1, XDATA, add(CFA_XSP16, literal(-8)))
          CFI V3 load(1, XDATA, add(CFA_XSP16, literal(-9)))
          CFI V2 load(1, XDATA, add(CFA_XSP16, literal(-10)))
          CFI V1 load(1, XDATA, add(CFA_XSP16, literal(-11)))
          CFI V0 load(1, XDATA, add(CFA_XSP16, literal(-12)))
          CFI VB load(1, XDATA, add(CFA_XSP16, literal(-13)))
          CFI R6 load(1, XDATA, add(CFA_XSP16, literal(-14)))
          CFI CFA_SP SP+0
          CFI CFA_XSP16 add(XSP16, 14)
        ; Saved register size: 14
        ; Auto size: 4
        MOV     A,#-0x4
        LCALL   ?ALLOC_XSTACK8
          CFI CFA_XSP16 add(XSP16, 18)
        MOV     ?V0 + 2,R2
        MOV     ?V0 + 3,R3
        MOV     A,R4
        MOV     R6,A
        MOV     A,R5
        MOV     R7,A
        MOV     A,#0x12
        LCALL   ?XSTACK_DISP0_8
        MOVX    A,@DPTR
        MOV     ?V0 + 0,A
        INC     DPTR
        MOVX    A,@DPTR
        MOV     ?V0 + 1,A
// 3559   uint16           ami;
// 3560   ZDSecMgrEntry_t* entry;
// 3561 
// 3562   /* Store the device address in the addr manager */
// 3563   if( ZDSecMgrAddrStore( shortAddr, extAddr, &ami ) != ZSuccess )
        ; Setup parameters for call to function ZDSecMgrAddrStore
        MOV     A,#0x2
        LCALL   ?XSTACK_DISP0_8
        MOV     ?V0 + 4,DPL
        MOV     ?V0 + 5,DPH
        MOV     R0,#?V0 + 4
        LCALL   ?PUSH_XSTACK_I_TWO
          CFI CFA_XSP16 add(XSP16, 20)
        MOV     A,R6
        MOV     R4,A
        MOV     A,R7
        MOV     R5,A
        MOV     R2,?V0 + 2
        MOV     R3,?V0 + 3
        LCALL   ??ZDSecMgrAddrStore?relay
        MOV     A,#0x2
        LCALL   ?DEALLOC_XSTACK8
          CFI CFA_XSP16 add(XSP16, 18)
        MOV     A,R1
        JZ      ??ZDSecMgrAddLinkKey_0
// 3564   {
// 3565     /* Adding to Addr Manager fails */
// 3566     return ZFailure;
        MOV     R1,#0x1
        SJMP    ??ZDSecMgrAddLinkKey_1
// 3567   }
// 3568 
// 3569   /* Lookup entry using specified address index */
// 3570   ZDSecMgrEntryLookupAMI( ami, &entry );
??ZDSecMgrAddLinkKey_0:
        ; Setup parameters for call to function ZDSecMgrEntryLookupAMI
        MOV     DPL,?XSP + 0
        MOV     DPH,?XSP + 1
        MOV     R4,DPL
        MOV     R5,DPH
        MOV     A,#0x2
        LCALL   ?XSTACK_DISP0_8
        MOVX    A,@DPTR
        MOV     R2,A
        INC     DPTR
        MOVX    A,@DPTR
        MOV     R3,A
        LCALL   ??ZDSecMgrEntryLookupAMI?relay
        MOV     A,R1
// 3571 
// 3572   // If no existing entry, create one
// 3573   if ( entry == NULL )
        MOV     DPL,?XSP + 0
        MOV     DPH,?XSP + 1
        MOVX    A,@DPTR
        MOV     R0,A
        INC     DPTR
        MOVX    A,@DPTR
        MOV     R1,A
        MOV     A,R0
        ORL     A,R1
        JNZ     ??ZDSecMgrAddLinkKey_2
// 3574   {
// 3575     if ( ZDSecMgrEntryNew( &entry ) == ZSuccess )
        ; Setup parameters for call to function ZDSecMgrEntryNew
        MOV     DPL,?XSP + 0
        MOV     DPH,?XSP + 1
        MOV     R2,DPL
        MOV     R3,DPH
        LCALL   ??ZDSecMgrEntryNew?relay
        MOV     A,R1
        JNZ     ??ZDSecMgrAddLinkKey_3
// 3576     {
// 3577       entry->ami = ami;
        MOV     A,#0x2
        LCALL   ?XSTACK_DISP0_8
        MOVX    A,@DPTR
        MOV     R2,A
        INC     DPTR
        MOVX    A,@DPTR
        MOV     R3,A
        MOV     DPL,?XSP + 0
        MOV     DPH,?XSP + 1
        MOVX    A,@DPTR
        MOV     R0,A
        INC     DPTR
        MOVX    A,@DPTR
        MOV     DPH,A
        MOV     DPL,R0
        MOV     A,R2
        MOVX    @DPTR,A
        INC     DPTR
        MOV     A,R3
        MOVX    @DPTR,A
        SJMP    ??ZDSecMgrAddLinkKey_2
// 3578     }
// 3579     else
// 3580     {
// 3581       /* Security Manager full */
// 3582       return ZBufferFull;
??ZDSecMgrAddLinkKey_3:
        MOV     R1,#0x11
        SJMP    ??ZDSecMgrAddLinkKey_1
// 3583     }
// 3584   }
// 3585   // Write the link key
// 3586   APSME_LinkKeySet( extAddr, key );
??ZDSecMgrAddLinkKey_2:
        ; Setup parameters for call to function APSME_LinkKeySet
        MOV     R4,?V0 + 0
        MOV     R5,?V0 + 1
        MOV     A,R6
        MOV     R2,A
        MOV     A,R7
        MOV     R3,A
        LCALL   ??APSME_LinkKeySet?relay
        MOV     A,R1
// 3587 
// 3588 #if defined (TC_LINKKEY_JOIN)
// 3589   // Mark the device as authenticated.
// 3590   ZDSecMgrAuthenticationSet( extAddr, ZDSecMgr_Authenticated_CBCK );
// 3591 #endif
// 3592 
// 3593 #if defined NV_RESTORE
// 3594   ZDSecMgrWriteNV();  // Write the new established link key to NV.
// 3595 #endif
// 3596   
// 3597   return ZSuccess;
        MOV     R1,#0x0
??ZDSecMgrAddLinkKey_1:
        MOV     A,#0x4
        LCALL   ?DEALLOC_XSTACK8
          CFI CFA_XSP16 add(XSP16, 14)
        MOV     R7,#0x6
        LJMP    ?BANKED_LEAVE_XDATA
          CFI EndBlock cfiBlock71
// 3598 }
// 3599 
// 3600 #if defined ( NV_RESTORE )
// 3601 /******************************************************************************
// 3602  * @fn          ZDSecMgrInitNV
// 3603  *
// 3604  * @brief       Initialize the SecMgr entry data in NV.
// 3605  *
// 3606  * @param       none
// 3607  *
// 3608  * @return      uint8 - <osal_nv_item_init> return codes
// 3609  */
// 3610 uint8 ZDSecMgrInitNV(void)
// 3611 {
// 3612   uint8 rtrn = osal_nv_item_init(ZCD_NV_APS_LINK_KEY_TABLE, 
// 3613                 (sizeof(nvDeviceListHdr_t) + (sizeof(ZDSecMgrEntry_t) * ZDSECMGR_ENTRY_MAX)), NULL);
// 3614   if (rtrn != ZSUCCESS)  // If the item does not already exist.
// 3615   {
// 3616     nvDeviceListHdr_t hdr;
// 3617     hdr.numRecs = 0;
// 3618     osal_nv_write(ZCD_NV_APS_LINK_KEY_TABLE, 0, sizeof(nvDeviceListHdr_t), &hdr);
// 3619   }
// 3620 
// 3621   return rtrn;
// 3622 }
// 3623 #endif // NV_RESTORE
// 3624 
// 3625 #if defined ( NV_RESTORE )
// 3626 /*********************************************************************
// 3627  * @fn      ZDSecMgrWriteNV()
// 3628  *
// 3629  * @brief   Save off the link key list to NV
// 3630  *
// 3631  * @param   none
// 3632  *
// 3633  * @return  none
// 3634  */
// 3635 static void ZDSecMgrWriteNV( void )
// 3636 {
// 3637   uint16 i;
// 3638   nvDeviceListHdr_t hdr;
// 3639 
// 3640   hdr.numRecs = 0;
// 3641 
// 3642   if (ZDSecMgrEntries != NULL)
// 3643   {
// 3644     for ( i = 0; i < ZDSECMGR_ENTRY_MAX; i++ )
// 3645     {
// 3646       if ( ZDSecMgrEntries[i].ami != INVALID_NODE_ADDR )
// 3647       {
// 3648         // Save off the record
// 3649         osal_nv_write( ZCD_NV_APS_LINK_KEY_TABLE,
// 3650                 (uint16)((sizeof(nvDeviceListHdr_t)) + (hdr.numRecs * sizeof(ZDSecMgrEntry_t))),
// 3651                         sizeof(ZDSecMgrEntry_t), &ZDSecMgrEntries[i] );
// 3652         hdr.numRecs++;
// 3653       }
// 3654     }
// 3655   }
// 3656 
// 3657   // Save off the header
// 3658   osal_nv_write( ZCD_NV_APS_LINK_KEY_TABLE, 0, sizeof( nvDeviceListHdr_t ), &hdr );
// 3659 }
// 3660 #endif // NV_RESTORE
// 3661 
// 3662 #if defined ( NV_RESTORE )
// 3663 /******************************************************************************
// 3664  * @fn          ZDSecMgrRestoreFromNV
// 3665  *
// 3666  * @brief       Restore the SecMgr entry data from NV.
// 3667  *
// 3668  * @param       none
// 3669  *
// 3670  * @return      None.
// 3671  */
// 3672 static void ZDSecMgrRestoreFromNV( void )
// 3673 {
// 3674   nvDeviceListHdr_t hdr;
// 3675 
// 3676   if ((osal_nv_read(ZCD_NV_APS_LINK_KEY_TABLE, 0, sizeof(nvDeviceListHdr_t), &hdr) == ZSUCCESS) &&
// 3677       (hdr.numRecs <= ZDSECMGR_ENTRY_MAX))
// 3678   {
// 3679     uint8 x;
// 3680 
// 3681     for (x = 0; x < hdr.numRecs; x++)
// 3682     {
// 3683       if ( osal_nv_read( ZCD_NV_APS_LINK_KEY_TABLE,
// 3684                 (uint16)(sizeof(nvDeviceListHdr_t) + (x * sizeof(ZDSecMgrEntry_t))),
// 3685                       sizeof(ZDSecMgrEntry_t), &ZDSecMgrEntries[x] ) == ZSUCCESS )
// 3686       {
// 3687         ZDSecMgrEntries[x].lkd.apsmelkd.txFrmCntr += ( MAX_APS_FRAMECOUNTER_CHANGES + 1 );
// 3688       }
// 3689     }
// 3690   }
// 3691 }
// 3692 #endif // NV_RESTORE
// 3693 
// 3694 /******************************************************************************
// 3695  * @fn          ZDSecMgrAPSRemove
// 3696  *
// 3697  * @brief       Remove device from network.
// 3698  *
// 3699  * @param       nwkAddr - device's NWK address
// 3700  * @param       extAddr - device's Extended address
// 3701  * @param       parentAddr - parent's NWK address
// 3702  *
// 3703  * @return      ZStatus_t
// 3704  */

        RSEG BANKED_CODE:CODE:NOROOT(0)
// 3705 ZStatus_t ZDSecMgrAPSRemove( uint16 nwkAddr, uint8 *extAddr, uint16 parentAddr )
ZDSecMgrAPSRemove:
          CFI Block cfiBlock72 Using cfiCommon0
          CFI Function ZDSecMgrAPSRemove
        CODE
// 3706 {
        FUNCALL ZDSecMgrAPSRemove, ZDSecMgrDeviceRemove
        LOCFRAME ISTACK, 0, STACK
        LOCFRAME PSTACK, 0, STACK
        LOCFRAME XSTACK, 22, STACK
        LOCFRAME IOVERLAY, 0, STATIC
        LOCFRAME DOVERLAY, 0, STATIC
        ARGFRAME ISTACK, 0, STACK
        ARGFRAME PSTACK, 0, STACK
        ARGFRAME XSTACK, 22, STACK
        ARGFRAME IOVERLAY, 0, STATIC
        ARGFRAME DOVERLAY, 0, STATIC
        MOV     A,#-0xc
        LCALL   ?BANKED_ENTER_XDATA
          CFI DPH0 load(1, XDATA, add(CFA_XSP16, literal(-1)))
          CFI DPL0 load(1, XDATA, add(CFA_XSP16, literal(-2)))
          CFI ?BRET_EXT load(1, XDATA, add(CFA_XSP16, literal(-3)))
          CFI ?RET_HIGH load(1, XDATA, add(CFA_XSP16, literal(-4)))
          CFI ?RET_LOW load(1, XDATA, add(CFA_XSP16, literal(-5)))
          CFI R7 load(1, XDATA, add(CFA_XSP16, literal(-6)))
          CFI V3 load(1, XDATA, add(CFA_XSP16, literal(-7)))
          CFI V2 load(1, XDATA, add(CFA_XSP16, literal(-8)))
          CFI V1 load(1, XDATA, add(CFA_XSP16, literal(-9)))
          CFI V0 load(1, XDATA, add(CFA_XSP16, literal(-10)))
          CFI VB load(1, XDATA, add(CFA_XSP16, literal(-11)))
          CFI R6 load(1, XDATA, add(CFA_XSP16, literal(-12)))
          CFI CFA_SP SP+0
          CFI CFA_XSP16 add(XSP16, 12)
        ; Saved register size: 12
        ; Auto size: 10
        MOV     A,#-0xa
        LCALL   ?ALLOC_XSTACK8
          CFI CFA_XSP16 add(XSP16, 22)
        MOV     ?V0 + 0,R2
        MOV     ?V0 + 1,R3
        MOV     A,R4
        MOV     R6,A
        MOV     A,R5
        MOV     R7,A
        MOV     A,#0x16
        LCALL   ?XSTACK_DISP0_8
        MOVX    A,@DPTR
        MOV     ?V0 + 2,A
        INC     DPTR
        MOVX    A,@DPTR
        MOV     ?V0 + 3,A
// 3707   ZDSecMgrDevice_t device;
// 3708 
// 3709   if ( ( nwkAddr == INVALID_NODE_ADDR ) ||
// 3710        ( extAddr == NULL )              ||
// 3711        ( parentAddr == INVALID_NODE_ADDR ) )
        MOV     A,#-0x2
        XRL     A,?V0 + 0
        JNZ     ??ZDSecMgrAPSRemove_0
        MOV     A,#-0x1
        XRL     A,?V0 + 1
??ZDSecMgrAPSRemove_0:
        JZ      ??ZDSecMgrAPSRemove_1
        MOV     A,R6
        ORL     A,R7
        JZ      ??ZDSecMgrAPSRemove_1
        MOV     A,#-0x2
        XRL     A,?V0 + 2
        JNZ     ??ZDSecMgrAPSRemove_2
        MOV     A,#-0x1
        XRL     A,?V0 + 3
??ZDSecMgrAPSRemove_2:
        JNZ     ??ZDSecMgrAPSRemove_3
// 3712   {
// 3713     return ( ZFailure );
??ZDSecMgrAPSRemove_1:
        MOV     R1,#0x1
        SJMP    ??ZDSecMgrAPSRemove_4
// 3714   }
// 3715 
// 3716   device.nwkAddr = nwkAddr;
??ZDSecMgrAPSRemove_3:
        MOV     DPL,?XSP + 0
        MOV     DPH,?XSP + 1
        MOV     A,?V0 + 0
        MOVX    @DPTR,A
        INC     DPTR
        MOV     A,?V0 + 1
        MOVX    @DPTR,A
// 3717   device.extAddr = extAddr;
        MOV     A,#0x2
        LCALL   ?XSTACK_DISP0_8
        MOV     A,R6
        MOVX    @DPTR,A
        INC     DPTR
        MOV     A,R7
        MOVX    @DPTR,A
// 3718   device.parentAddr = parentAddr;
        MOV     A,#0x4
        LCALL   ?XSTACK_DISP0_8
        MOV     A,?V0 + 2
        MOVX    @DPTR,A
        INC     DPTR
        MOV     A,?V0 + 3
        MOVX    @DPTR,A
// 3719 
// 3720   // remove device
// 3721   ZDSecMgrDeviceRemove( &device );
        ; Setup parameters for call to function ZDSecMgrDeviceRemove
        MOV     DPL,?XSP + 0
        MOV     DPH,?XSP + 1
        MOV     R2,DPL
        MOV     R3,DPH
        LCALL   ??ZDSecMgrDeviceRemove?relay
// 3722 
// 3723   return ( ZSuccess );
        MOV     R1,#0x0
??ZDSecMgrAPSRemove_4:
        MOV     A,#0xa
        LCALL   ?DEALLOC_XSTACK8
          CFI CFA_XSP16 add(XSP16, 12)
        MOV     R7,#0x4
        LJMP    ?BANKED_LEAVE_XDATA
          CFI EndBlock cfiBlock72
// 3724 }
// 3725 
// 3726 /******************************************************************************
// 3727  * @fn          APSME_TCLinkKeyInit
// 3728  *
// 3729  * @brief       Initialize the NV table for preconfigured TC link key
// 3730  *               
// 3731  *              When zgUseDefaultTCL is set to TRUE, the default preconfig
// 3732  *              Trust Center Link Key is written to NV. A single tclk is used   
// 3733  *              by all devices joining the network.
// 3734  *              
// 3735  * @param       none
// 3736  *
// 3737  * @return      none
// 3738  */

        RSEG BANKED_CODE:CODE:NOROOT(0)
// 3739 void APSME_TCLinkKeyInit(void)
APSME_TCLinkKeyInit:
          CFI Block cfiBlock73 Using cfiCommon0
          CFI Function APSME_TCLinkKeyInit
        CODE
// 3740 {
        FUNCALL APSME_TCLinkKeyInit, osal_memset
        LOCFRAME ISTACK, 0, STACK
        LOCFRAME PSTACK, 0, STACK
        LOCFRAME XSTACK, 43, STACK
        LOCFRAME IOVERLAY, 0, STATIC
        LOCFRAME DOVERLAY, 0, STATIC
        ARGFRAME ISTACK, 0, STACK
        ARGFRAME PSTACK, 0, STACK
        ARGFRAME XSTACK, 43, STACK
        ARGFRAME IOVERLAY, 0, STATIC
        ARGFRAME DOVERLAY, 0, STATIC
        FUNCALL APSME_TCLinkKeyInit, osal_nv_item_init
        LOCFRAME ISTACK, 0, STACK
        LOCFRAME PSTACK, 0, STACK
        LOCFRAME XSTACK, 45, STACK
        LOCFRAME IOVERLAY, 0, STATIC
        LOCFRAME DOVERLAY, 0, STATIC
        ARGFRAME ISTACK, 0, STACK
        ARGFRAME PSTACK, 0, STACK
        ARGFRAME XSTACK, 45, STACK
        ARGFRAME IOVERLAY, 0, STATIC
        ARGFRAME DOVERLAY, 0, STATIC
        FUNCALL APSME_TCLinkKeyInit, osal_memset
        LOCFRAME ISTACK, 0, STACK
        LOCFRAME PSTACK, 0, STACK
        LOCFRAME XSTACK, 43, STACK
        LOCFRAME IOVERLAY, 0, STATIC
        LOCFRAME DOVERLAY, 0, STATIC
        ARGFRAME ISTACK, 0, STACK
        ARGFRAME PSTACK, 0, STACK
        ARGFRAME XSTACK, 43, STACK
        ARGFRAME IOVERLAY, 0, STATIC
        ARGFRAME DOVERLAY, 0, STATIC
        FUNCALL APSME_TCLinkKeyInit, osal_memcpy
        LOCFRAME ISTACK, 0, STACK
        LOCFRAME PSTACK, 0, STACK
        LOCFRAME XSTACK, 46, STACK
        LOCFRAME IOVERLAY, 0, STATIC
        LOCFRAME DOVERLAY, 0, STATIC
        ARGFRAME ISTACK, 0, STACK
        ARGFRAME PSTACK, 0, STACK
        ARGFRAME XSTACK, 46, STACK
        ARGFRAME IOVERLAY, 0, STATIC
        ARGFRAME DOVERLAY, 0, STATIC
        FUNCALL APSME_TCLinkKeyInit, osal_nv_item_init
        LOCFRAME ISTACK, 0, STACK
        LOCFRAME PSTACK, 0, STACK
        LOCFRAME XSTACK, 45, STACK
        LOCFRAME IOVERLAY, 0, STATIC
        LOCFRAME DOVERLAY, 0, STATIC
        ARGFRAME ISTACK, 0, STACK
        ARGFRAME PSTACK, 0, STACK
        ARGFRAME XSTACK, 45, STACK
        ARGFRAME IOVERLAY, 0, STATIC
        ARGFRAME DOVERLAY, 0, STATIC
        FUNCALL APSME_TCLinkKeyInit, osal_nv_item_init
        LOCFRAME ISTACK, 0, STACK
        LOCFRAME PSTACK, 0, STACK
        LOCFRAME XSTACK, 45, STACK
        LOCFRAME IOVERLAY, 0, STATIC
        LOCFRAME DOVERLAY, 0, STATIC
        ARGFRAME ISTACK, 0, STACK
        ARGFRAME PSTACK, 0, STACK
        ARGFRAME XSTACK, 45, STACK
        ARGFRAME IOVERLAY, 0, STATIC
        ARGFRAME DOVERLAY, 0, STATIC
        MOV     A,#-0xb
        LCALL   ?BANKED_ENTER_XDATA
          CFI DPH0 load(1, XDATA, add(CFA_XSP16, literal(-1)))
          CFI DPL0 load(1, XDATA, add(CFA_XSP16, literal(-2)))
          CFI ?BRET_EXT load(1, XDATA, add(CFA_XSP16, literal(-3)))
          CFI ?RET_HIGH load(1, XDATA, add(CFA_XSP16, literal(-4)))
          CFI ?RET_LOW load(1, XDATA, add(CFA_XSP16, literal(-5)))
          CFI R7 load(1, XDATA, add(CFA_XSP16, literal(-6)))
          CFI V2 load(1, XDATA, add(CFA_XSP16, literal(-7)))
          CFI V1 load(1, XDATA, add(CFA_XSP16, literal(-8)))
          CFI V0 load(1, XDATA, add(CFA_XSP16, literal(-9)))
          CFI VB load(1, XDATA, add(CFA_XSP16, literal(-10)))
          CFI R6 load(1, XDATA, add(CFA_XSP16, literal(-11)))
          CFI CFA_SP SP+0
          CFI CFA_XSP16 add(XSP16, 11)
        ; Saved register size: 11
        ; Auto size: 32
        MOV     A,#-0x20
        LCALL   ?ALLOC_XSTACK8
          CFI CFA_XSP16 add(XSP16, 43)
// 3741   uint8             i;
// 3742   APSME_TCLinkKey_t tcLinkKey;
// 3743   
// 3744   // Initialize all NV items for preconfigured tclk with 
// 3745   // extended address all zero, if not exist already.
// 3746   osal_memset( &tcLinkKey, 0x00, sizeof(APSME_TCLinkKey_t) );
        ; Setup parameters for call to function osal_memset
        MOV     R4,#0x20
        MOV     R5,#0x0
        MOV     R1,#0x0
        MOV     DPL,?XSP + 0
        MOV     DPH,?XSP + 1
        MOV     R2,DPL
        MOV     R3,DPH
        LCALL   ??osal_memset?relay
// 3747   for( i = 1; i < ZDSECMGR_TC_DEVICE_MAX; i++ )
        MOV     R6,#0x1
??APSME_TCLinkKeyInit_0:
        MOV     A,R6
        CLR     C
        SUBB    A,#0x1
        JNC     ??APSME_TCLinkKeyInit_1
// 3748   {
// 3749     osal_nv_item_init( (ZCD_NV_TCLK_TABLE_START + i), 
// 3750                        sizeof(APSME_TCLinkKey_t), &tcLinkKey);
        ; Setup parameters for call to function osal_nv_item_init
        MOV     DPL,?XSP + 0
        MOV     DPH,?XSP + 1
        MOV     ?V0 + 0,DPL
        MOV     ?V0 + 1,DPH
        MOV     R0,#?V0 + 0
        LCALL   ?PUSH_XSTACK_I_TWO
          CFI CFA_XSP16 add(XSP16, 45)
        MOV     R4,#0x20
        MOV     R5,#0x0
        MOV     ?V0 + 0,R6
        MOV     ?V0 + 1,#0x0
        MOV     A,?V0 + 0
        ADD     A,#0x1
        MOV     R2,A
        MOV     A,?V0 + 1
        ADDC    A,#0x1
        MOV     R3,A
        LCALL   ??osal_nv_item_init?relay
        MOV     A,#0x2
        LCALL   ?DEALLOC_XSTACK8
          CFI CFA_XSP16 add(XSP16, 43)
        MOV     A,R1
// 3751   }
        INC     R6
        SJMP    ??APSME_TCLinkKeyInit_0
// 3752   
// 3753   // Initialize the default tclk
// 3754   if( zgUseDefaultTCLK == TRUE )
??APSME_TCLinkKeyInit_1:
        MOV     DPTR,#zgUseDefaultTCLK
        MOVX    A,@DPTR
        XRL     A,#0x1
        JNZ     ??APSME_TCLinkKeyInit_2
// 3755   {
// 3756     osal_memset( tcLinkKey.extAddr, 0xFF, Z_EXTADDR_LEN );
        ; Setup parameters for call to function osal_memset
        MOV     R4,#0x8
        MOV     R5,#0x0
        MOV     R1,#-0x1
        MOV     DPL,?XSP + 0
        MOV     DPH,?XSP + 1
        MOV     R2,DPL
        MOV     R3,DPH
        LCALL   ??osal_memset?relay
// 3757     osal_memcpy( tcLinkKey.key, defaultTCLinkKey, SEC_KEY_LEN);
        ; Setup parameters for call to function osal_memcpy
        MOV     ?V0 + 0,#defaultTCLinkKey & 0xff
        MOV     ?V0 + 1,#(defaultTCLinkKey >> 8) & 0xff
        MOV     ?V0 + 2,#-0x80
        MOV     R0,#?V0 + 0
        LCALL   ?PUSH_XSTACK_I_THREE
          CFI CFA_XSP16 add(XSP16, 46)
        MOV     R4,#0x10
        MOV     R5,#0x0
        MOV     A,#0xb
        LCALL   ?XSTACK_DISP0_8
        MOV     R2,DPL
        MOV     R3,DPH
        LCALL   ??osal_memcpy?relay
        MOV     A,#0x3
        LCALL   ?DEALLOC_XSTACK8
          CFI CFA_XSP16 add(XSP16, 43)
// 3758     
// 3759     // If the item doesn't exist in NV memory, create and initialize
// 3760     // it with the default value passed in.
// 3761     osal_nv_item_init( ZCD_NV_TCLK_TABLE_START, sizeof(APSME_TCLinkKey_t), &tcLinkKey );
        ; Setup parameters for call to function osal_nv_item_init
        MOV     DPL,?XSP + 0
        MOV     DPH,?XSP + 1
        MOV     ?V0 + 0,DPL
        MOV     ?V0 + 1,DPH
        MOV     R0,#?V0 + 0
        LCALL   ?PUSH_XSTACK_I_TWO
          CFI CFA_XSP16 add(XSP16, 45)
        MOV     R4,#0x20
        MOV     R5,#0x0
        MOV     R2,#0x1
        MOV     R3,#0x1
        LCALL   ??osal_nv_item_init?relay
        MOV     A,#0x2
        LCALL   ?DEALLOC_XSTACK8
          CFI CFA_XSP16 add(XSP16, 43)
        MOV     A,R1
        SJMP    ??APSME_TCLinkKeyInit_3
// 3762   }
// 3763   else
// 3764   {
// 3765     osal_nv_item_init( ZCD_NV_TCLK_TABLE_START, sizeof(APSME_TCLinkKey_t), &tcLinkKey);
??APSME_TCLinkKeyInit_2:
        ; Setup parameters for call to function osal_nv_item_init
        MOV     DPL,?XSP + 0
        MOV     DPH,?XSP + 1
        MOV     ?V0 + 0,DPL
        MOV     ?V0 + 1,DPH
        MOV     R0,#?V0 + 0
        LCALL   ?PUSH_XSTACK_I_TWO
          CFI CFA_XSP16 add(XSP16, 45)
        MOV     R4,#0x20
        MOV     R5,#0x0
        MOV     R2,#0x1
        MOV     R3,#0x1
        LCALL   ??osal_nv_item_init?relay
        MOV     A,#0x2
        LCALL   ?DEALLOC_XSTACK8
          CFI CFA_XSP16 add(XSP16, 43)
        MOV     A,R1
// 3766   }
// 3767 }
??APSME_TCLinkKeyInit_3:
        MOV     A,#0x20
        LCALL   ?DEALLOC_XSTACK8
          CFI CFA_XSP16 add(XSP16, 11)
        MOV     R7,#0x3
        LJMP    ?BANKED_LEAVE_XDATA
          CFI EndBlock cfiBlock73
// 3768 
// 3769 /******************************************************************************
// 3770  * @fn          APSME_TCLinkKeySync
// 3771  *
// 3772  * @brief       Sync Trust Center LINK key data.
// 3773  *
// 3774  * @param       srcAddr - [in] srcAddr
// 3775  * @param       si      - [in, out] SSP_Info_t
// 3776  *
// 3777  * @return      ZStatus_t
// 3778  */

        RSEG BANKED_CODE:CODE:NOROOT(0)
// 3779 ZStatus_t APSME_TCLinkKeySync( uint16 srcAddr, SSP_Info_t* si )
APSME_TCLinkKeySync:
          CFI Block cfiBlock74 Using cfiCommon0
          CFI Function APSME_TCLinkKeySync
        CODE
// 3780 {
        FUNCALL APSME_TCLinkKeySync, AddrMgrExtAddrValid
        LOCFRAME ISTACK, 0, STACK
        LOCFRAME PSTACK, 0, STACK
        LOCFRAME XSTACK, 50, STACK
        LOCFRAME IOVERLAY, 0, STATIC
        LOCFRAME DOVERLAY, 0, STATIC
        ARGFRAME ISTACK, 0, STACK
        ARGFRAME PSTACK, 0, STACK
        ARGFRAME XSTACK, 50, STACK
        ARGFRAME IOVERLAY, 0, STATIC
        ARGFRAME DOVERLAY, 0, STATIC
        FUNCALL APSME_TCLinkKeySync, APSME_LookupExtAddr
        LOCFRAME ISTACK, 0, STACK
        LOCFRAME PSTACK, 0, STACK
        LOCFRAME XSTACK, 50, STACK
        LOCFRAME IOVERLAY, 0, STATIC
        LOCFRAME DOVERLAY, 0, STATIC
        ARGFRAME ISTACK, 0, STACK
        ARGFRAME PSTACK, 0, STACK
        ARGFRAME XSTACK, 50, STACK
        ARGFRAME IOVERLAY, 0, STATIC
        ARGFRAME DOVERLAY, 0, STATIC
        FUNCALL APSME_TCLinkKeySync, osal_nv_read
        LOCFRAME ISTACK, 0, STACK
        LOCFRAME PSTACK, 0, STACK
        LOCFRAME XSTACK, 54, STACK
        LOCFRAME IOVERLAY, 0, STATIC
        LOCFRAME DOVERLAY, 0, STATIC
        ARGFRAME ISTACK, 0, STACK
        ARGFRAME PSTACK, 0, STACK
        ARGFRAME XSTACK, 54, STACK
        ARGFRAME IOVERLAY, 0, STATIC
        ARGFRAME DOVERLAY, 0, STATIC
        FUNCALL APSME_TCLinkKeySync, AddrMgrExtAddrEqual
        LOCFRAME ISTACK, 0, STACK
        LOCFRAME PSTACK, 0, STACK
        LOCFRAME XSTACK, 50, STACK
        LOCFRAME IOVERLAY, 0, STATIC
        LOCFRAME DOVERLAY, 0, STATIC
        ARGFRAME ISTACK, 0, STACK
        ARGFRAME PSTACK, 0, STACK
        ARGFRAME XSTACK, 50, STACK
        ARGFRAME IOVERLAY, 0, STATIC
        ARGFRAME DOVERLAY, 0, STATIC
        FUNCALL APSME_TCLinkKeySync, APSME_IsDefaultTCLK
        LOCFRAME ISTACK, 0, STACK
        LOCFRAME PSTACK, 0, STACK
        LOCFRAME XSTACK, 50, STACK
        LOCFRAME IOVERLAY, 0, STATIC
        LOCFRAME DOVERLAY, 0, STATIC
        ARGFRAME ISTACK, 0, STACK
        ARGFRAME PSTACK, 0, STACK
        ARGFRAME XSTACK, 50, STACK
        ARGFRAME IOVERLAY, 0, STATIC
        ARGFRAME DOVERLAY, 0, STATIC
        FUNCALL APSME_TCLinkKeySync, osal_memcpy
        LOCFRAME ISTACK, 0, STACK
        LOCFRAME PSTACK, 0, STACK
        LOCFRAME XSTACK, 53, STACK
        LOCFRAME IOVERLAY, 0, STATIC
        LOCFRAME DOVERLAY, 0, STATIC
        ARGFRAME ISTACK, 0, STACK
        ARGFRAME PSTACK, 0, STACK
        ARGFRAME XSTACK, 53, STACK
        ARGFRAME IOVERLAY, 0, STATIC
        ARGFRAME DOVERLAY, 0, STATIC
        FUNCALL APSME_TCLinkKeySync, osal_nv_write
        LOCFRAME ISTACK, 0, STACK
        LOCFRAME PSTACK, 0, STACK
        LOCFRAME XSTACK, 54, STACK
        LOCFRAME IOVERLAY, 0, STATIC
        LOCFRAME DOVERLAY, 0, STATIC
        ARGFRAME ISTACK, 0, STACK
        ARGFRAME PSTACK, 0, STACK
        ARGFRAME XSTACK, 54, STACK
        ARGFRAME IOVERLAY, 0, STATIC
        ARGFRAME DOVERLAY, 0, STATIC
        MOV     A,#-0x12
        LCALL   ?BANKED_ENTER_XDATA
          CFI DPH0 load(1, XDATA, add(CFA_XSP16, literal(-1)))
          CFI DPL0 load(1, XDATA, add(CFA_XSP16, literal(-2)))
          CFI ?BRET_EXT load(1, XDATA, add(CFA_XSP16, literal(-3)))
          CFI ?RET_HIGH load(1, XDATA, add(CFA_XSP16, literal(-4)))
          CFI ?RET_LOW load(1, XDATA, add(CFA_XSP16, literal(-5)))
          CFI R7 load(1, XDATA, add(CFA_XSP16, literal(-6)))
          CFI V9 load(1, XDATA, add(CFA_XSP16, literal(-7)))
          CFI V8 load(1, XDATA, add(CFA_XSP16, literal(-8)))
          CFI V7 load(1, XDATA, add(CFA_XSP16, literal(-9)))
          CFI V6 load(1, XDATA, add(CFA_XSP16, literal(-10)))
          CFI V5 load(1, XDATA, add(CFA_XSP16, literal(-11)))
          CFI V4 load(1, XDATA, add(CFA_XSP16, literal(-12)))
          CFI V3 load(1, XDATA, add(CFA_XSP16, literal(-13)))
          CFI V2 load(1, XDATA, add(CFA_XSP16, literal(-14)))
          CFI V1 load(1, XDATA, add(CFA_XSP16, literal(-15)))
          CFI V0 load(1, XDATA, add(CFA_XSP16, literal(-16)))
          CFI VB load(1, XDATA, add(CFA_XSP16, literal(-17)))
          CFI R6 load(1, XDATA, add(CFA_XSP16, literal(-18)))
          CFI CFA_SP SP+0
          CFI CFA_XSP16 add(XSP16, 18)
        ; Saved register size: 18
        ; Auto size: 32
        MOV     A,#-0x20
        LCALL   ?ALLOC_XSTACK8
          CFI CFA_XSP16 add(XSP16, 50)
        MOV     ?V0 + 8,R2
        MOV     ?V0 + 9,R3
        MOV     ?V0 + 2,R4
        MOV     ?V0 + 3,R5
// 3781   ZStatus_t          status = ZSecNoKey;
        MOV     ?V0 + 0,#-0x5f
// 3782   uint8              i;
// 3783   APSME_TCLinkKey_t  tcLinkKey;       
// 3784   
// 3785   // Look up the IEEE address of the trust center if it's available
// 3786   if ( AddrMgrExtAddrValid( si->extAddr ) == false )
        ; Setup parameters for call to function AddrMgrExtAddrValid
        MOV     A,?V0 + 2
        ADD     A,#0x6
        MOV     R2,A
        MOV     A,?V0 + 3
        ADDC    A,#0x0
        MOV     R3,A
        LCALL   ??AddrMgrExtAddrValid?relay
        MOV     A,R1
        JNZ     ??APSME_TCLinkKeySync_0
// 3787   {
// 3788     APSME_LookupExtAddr( srcAddr, si->extAddr );
        ; Setup parameters for call to function APSME_LookupExtAddr
        MOV     A,?V0 + 2
        ADD     A,#0x6
        MOV     R4,A
        MOV     A,?V0 + 3
        ADDC    A,#0x0
        MOV     R5,A
        MOV     R2,?V0 + 8
        MOV     R3,?V0 + 9
        LCALL   ??APSME_LookupExtAddr?relay
        MOV     A,R1
// 3789   }
// 3790   
// 3791   // Look up the TC link key associated with the device
// 3792   // or the default TC link key (extAddr is all FFs), whichever is found
// 3793   for( i = 0; i < ZDSECMGR_TC_DEVICE_MAX; i++ )
??APSME_TCLinkKeySync_0:
        MOV     ?V0 + 1,#0x0
??APSME_TCLinkKeySync_1:
        MOV     A,?V0 + 1
        CLR     C
        SUBB    A,#0x1
        JC      $+5
        LJMP    ??APSME_TCLinkKeySync_2 & 0xFFFF
// 3794   {
// 3795     // Read entry i of the TC link key table from NV
// 3796     osal_nv_read( (ZCD_NV_TCLK_TABLE_START + i), 0, 
// 3797                  sizeof(APSME_TCLinkKey_t), &tcLinkKey );
        ; Setup parameters for call to function osal_nv_read
        MOV     DPL,?XSP + 0
        MOV     DPH,?XSP + 1
        MOV     ?V0 + 4,DPL
        MOV     ?V0 + 5,DPH
        MOV     R0,#?V0 + 4
        LCALL   ?PUSH_XSTACK_I_TWO
          CFI CFA_XSP16 add(XSP16, 52)
        MOV     ?V0 + 4,#0x20
        MOV     ?V0 + 5,#0x0
        MOV     R0,#?V0 + 4
        LCALL   ?PUSH_XSTACK_I_TWO
          CFI CFA_XSP16 add(XSP16, 54)
        MOV     R4,#0x0
        MOV     R5,#0x0
        MOV     ?V0 + 4,?V0 + 1
        MOV     ?V0 + 5,#0x0
        MOV     A,?V0 + 4
        ADD     A,#0x1
        MOV     R2,A
        MOV     A,?V0 + 5
        ADDC    A,#0x1
        MOV     R3,A
        LCALL   ??osal_nv_read?relay
        MOV     A,#0x4
        LCALL   ?DEALLOC_XSTACK8
          CFI CFA_XSP16 add(XSP16, 50)
        MOV     A,R1
// 3798     
// 3799     if( AddrMgrExtAddrEqual(si->extAddr, tcLinkKey.extAddr) || 
// 3800         APSME_IsDefaultTCLK(tcLinkKey.extAddr))
        ; Setup parameters for call to function AddrMgrExtAddrEqual
        MOV     DPL,?XSP + 0
        MOV     DPH,?XSP + 1
        MOV     R4,DPL
        MOV     R5,DPH
        MOV     A,?V0 + 2
        ADD     A,#0x6
        MOV     R2,A
        MOV     A,?V0 + 3
        ADDC    A,#0x0
        MOV     R3,A
        LCALL   ??AddrMgrExtAddrEqual?relay
        MOV     A,R1
        JNZ     ??APSME_TCLinkKeySync_3
        ; Setup parameters for call to function APSME_IsDefaultTCLK
        MOV     DPL,?XSP + 0
        MOV     DPH,?XSP + 1
        MOV     R2,DPL
        MOV     R3,DPH
        LCALL   ??APSME_IsDefaultTCLK?relay
        MOV     A,R1
        JNZ     $+5
        LJMP    ??APSME_TCLinkKeySync_4 & 0xFFFF
// 3801     {
// 3802       // verify that the incoming frame counter is valid
// 3803       if ( si->frmCntr >= tcLinkKey.rxFrmCntr )
??APSME_TCLinkKeySync_3:
        MOV     A,#0x1c
        LCALL   ?XSTACK_DISP0_8
        MOV     R0,#?V0 + 4
        LCALL   ?L_MOV_X
        MOV     A,?V0 + 2
        ADD     A,#0x12
        MOV     DPL,A
        MOV     A,?V0 + 3
        ADDC    A,#0x0
        MOV     DPH,A
        MOV     R0,#?V0 + 4
        LCALL   ?UL_GT_X
        JNC     $+5
        LJMP    ??APSME_TCLinkKeySync_5 & 0xFFFF
// 3804       {
// 3805         // set the key to use
// 3806         osal_memcpy( si->key, tcLinkKey.key, SEC_KEY_LEN );
        ; Setup parameters for call to function osal_memcpy
        MOV     A,#0x8
        LCALL   ?XSTACK_DISP0_8
        MOV     R1,DPL
        MOV     R2,DPH
        MOV     R3,#0x0
        MOV     ?V0 + 4,R1
        MOV     ?V0 + 5,R2
        MOV     ?V0 + 6,R3
        MOV     R0,#?V0 + 4
        LCALL   ?PUSH_XSTACK_I_THREE
          CFI CFA_XSP16 add(XSP16, 53)
        MOV     R4,#0x10
        MOV     R5,#0x0
        MOV     A,?V0 + 2
        ADD     A,#0xf
        MOV     DPL,A
        MOV     A,?V0 + 3
        ADDC    A,#0x0
        MOV     DPH,A
        MOVX    A,@DPTR
        MOV     R2,A
        INC     DPTR
        MOVX    A,@DPTR
        MOV     R3,A
        LCALL   ??osal_memcpy?relay
        MOV     A,#0x3
        LCALL   ?DEALLOC_XSTACK8
          CFI CFA_XSP16 add(XSP16, 50)
// 3807         
// 3808         // update the rx frame counter
// 3809         tcLinkKey.rxFrmCntr = si->frmCntr + 1;
        MOV     A,?V0 + 2
        ADD     A,#0x12
        MOV     DPL,A
        MOV     A,?V0 + 3
        ADDC    A,#0x0
        MOV     DPH,A
        MOV     R0,#?V0 + 4
        LCALL   ?L_MOV_X
        MOV     DPTR,#__Constant_1
        MOV     R0,#?V0 + 4
        LCALL   ?L_ADD_X
        MOV     R4,?V0 + 4
        MOV     R5,?V0 + 5
        MOV     R6,?V0 + 6
        MOV     R7,?V0 + 7
        MOV     A,#0x1c
        LCALL   ?XSTACK_DISP0_8
        MOV     A,?V0 + 4
        MOVX    @DPTR,A
        INC     DPTR
        MOV     A,?V0 + 5
        MOVX    @DPTR,A
        INC     DPTR
        MOV     A,?V0 + 6
        MOVX    @DPTR,A
        INC     DPTR
        MOV     A,?V0 + 7
        MOVX    @DPTR,A
// 3810         
// 3811         // Write the tc link key back to the NV
// 3812         osal_nv_write( (ZCD_NV_TCLK_TABLE_START + i), 0, 
// 3813                       sizeof(APSME_TCLinkKey_t), &tcLinkKey );
        ; Setup parameters for call to function osal_nv_write
        MOV     DPL,?XSP + 0
        MOV     DPH,?XSP + 1
        MOV     ?V0 + 4,DPL
        MOV     ?V0 + 5,DPH
        MOV     R0,#?V0 + 4
        LCALL   ?PUSH_XSTACK_I_TWO
          CFI CFA_XSP16 add(XSP16, 52)
        MOV     ?V0 + 4,#0x20
        MOV     ?V0 + 5,#0x0
        MOV     R0,#?V0 + 4
        LCALL   ?PUSH_XSTACK_I_TWO
          CFI CFA_XSP16 add(XSP16, 54)
        MOV     R4,#0x0
        MOV     R5,#0x0
        MOV     ?V0 + 4,?V0 + 1
        MOV     ?V0 + 5,#0x0
        MOV     A,?V0 + 4
        ADD     A,#0x1
        MOV     R2,A
        MOV     A,?V0 + 5
        ADDC    A,#0x1
        MOV     R3,A
        LCALL   ??osal_nv_write?relay
        MOV     A,#0x4
        LCALL   ?DEALLOC_XSTACK8
          CFI CFA_XSP16 add(XSP16, 50)
        MOV     A,R1
// 3814         
// 3815         status = ZSuccess;
        MOV     ?V0 + 0,#0x0
        SJMP    ??APSME_TCLinkKeySync_6
// 3816         
// 3817       }
// 3818       else
// 3819       {
// 3820         status = ZSecOldFrmCount;
??APSME_TCLinkKeySync_5:
        MOV     ?V0 + 0,#-0x5e
// 3821       }
// 3822       
// 3823       return status;
??APSME_TCLinkKeySync_6:
        MOV     R1,?V0 + 0
        SJMP    ??APSME_TCLinkKeySync_7
// 3824     }
// 3825   }
??APSME_TCLinkKeySync_4:
        INC     ?V0 + 1
        LJMP    ??APSME_TCLinkKeySync_1 & 0xFFFF
// 3826   
// 3827   
// 3828   return status;
??APSME_TCLinkKeySync_2:
        MOV     R1,?V0 + 0
??APSME_TCLinkKeySync_7:
        MOV     A,#0x20
        LCALL   ?DEALLOC_XSTACK8
          CFI CFA_XSP16 add(XSP16, 18)
        MOV     R7,#0xa
        LJMP    ?BANKED_LEAVE_XDATA
          CFI EndBlock cfiBlock74
// 3829 }
// 3830 
// 3831 /******************************************************************************
// 3832  * @fn          APSME_TCLinkKeyLoad
// 3833  *
// 3834  * @brief       Load Trust Center LINK key data.
// 3835  *
// 3836  * @param       dstAddr - [in] dstAddr
// 3837  * @param       si      - [in, out] SSP_Info_t
// 3838  *
// 3839  * @return      ZStatus_t
// 3840  */

        RSEG BANKED_CODE:CODE:NOROOT(0)
// 3841 ZStatus_t APSME_TCLinkKeyLoad( uint16 dstAddr, SSP_Info_t* si )
APSME_TCLinkKeyLoad:
          CFI Block cfiBlock75 Using cfiCommon0
          CFI Function APSME_TCLinkKeyLoad
        CODE
// 3842 {
        FUNCALL APSME_TCLinkKeyLoad, APSME_LookupExtAddr
        LOCFRAME ISTACK, 0, STACK
        LOCFRAME PSTACK, 0, STACK
        LOCFRAME XSTACK, 61, STACK
        LOCFRAME IOVERLAY, 0, STATIC
        LOCFRAME DOVERLAY, 0, STATIC
        ARGFRAME ISTACK, 0, STACK
        ARGFRAME PSTACK, 0, STACK
        ARGFRAME XSTACK, 61, STACK
        ARGFRAME IOVERLAY, 0, STATIC
        ARGFRAME DOVERLAY, 0, STATIC
        FUNCALL APSME_TCLinkKeyLoad, AddrMgrExtAddrValid
        LOCFRAME ISTACK, 0, STACK
        LOCFRAME PSTACK, 0, STACK
        LOCFRAME XSTACK, 61, STACK
        LOCFRAME IOVERLAY, 0, STATIC
        LOCFRAME DOVERLAY, 0, STATIC
        ARGFRAME ISTACK, 0, STACK
        ARGFRAME PSTACK, 0, STACK
        ARGFRAME XSTACK, 61, STACK
        ARGFRAME IOVERLAY, 0, STATIC
        ARGFRAME DOVERLAY, 0, STATIC
        FUNCALL APSME_TCLinkKeyLoad, osal_nv_read
        LOCFRAME ISTACK, 0, STACK
        LOCFRAME PSTACK, 0, STACK
        LOCFRAME XSTACK, 65, STACK
        LOCFRAME IOVERLAY, 0, STATIC
        LOCFRAME DOVERLAY, 0, STATIC
        ARGFRAME ISTACK, 0, STACK
        ARGFRAME PSTACK, 0, STACK
        ARGFRAME XSTACK, 65, STACK
        ARGFRAME IOVERLAY, 0, STATIC
        ARGFRAME DOVERLAY, 0, STATIC
        FUNCALL APSME_TCLinkKeyLoad, AddrMgrExtAddrEqual
        LOCFRAME ISTACK, 0, STACK
        LOCFRAME PSTACK, 0, STACK
        LOCFRAME XSTACK, 61, STACK
        LOCFRAME IOVERLAY, 0, STATIC
        LOCFRAME DOVERLAY, 0, STATIC
        ARGFRAME ISTACK, 0, STACK
        ARGFRAME PSTACK, 0, STACK
        ARGFRAME XSTACK, 61, STACK
        ARGFRAME IOVERLAY, 0, STATIC
        ARGFRAME DOVERLAY, 0, STATIC
        FUNCALL APSME_TCLinkKeyLoad, APSME_IsDefaultTCLK
        LOCFRAME ISTACK, 0, STACK
        LOCFRAME PSTACK, 0, STACK
        LOCFRAME XSTACK, 61, STACK
        LOCFRAME IOVERLAY, 0, STATIC
        LOCFRAME DOVERLAY, 0, STATIC
        ARGFRAME ISTACK, 0, STACK
        ARGFRAME PSTACK, 0, STACK
        ARGFRAME XSTACK, 61, STACK
        ARGFRAME IOVERLAY, 0, STATIC
        ARGFRAME DOVERLAY, 0, STATIC
        FUNCALL APSME_TCLinkKeyLoad, osal_memcpy
        LOCFRAME ISTACK, 0, STACK
        LOCFRAME PSTACK, 0, STACK
        LOCFRAME XSTACK, 64, STACK
        LOCFRAME IOVERLAY, 0, STATIC
        LOCFRAME DOVERLAY, 0, STATIC
        ARGFRAME ISTACK, 0, STACK
        ARGFRAME PSTACK, 0, STACK
        ARGFRAME XSTACK, 64, STACK
        ARGFRAME IOVERLAY, 0, STATIC
        ARGFRAME DOVERLAY, 0, STATIC
        FUNCALL APSME_TCLinkKeyLoad, osal_nv_write
        LOCFRAME ISTACK, 0, STACK
        LOCFRAME PSTACK, 0, STACK
        LOCFRAME XSTACK, 65, STACK
        LOCFRAME IOVERLAY, 0, STATIC
        LOCFRAME DOVERLAY, 0, STATIC
        ARGFRAME ISTACK, 0, STACK
        ARGFRAME PSTACK, 0, STACK
        ARGFRAME XSTACK, 65, STACK
        ARGFRAME IOVERLAY, 0, STATIC
        ARGFRAME DOVERLAY, 0, STATIC
        FUNCALL APSME_TCLinkKeyLoad, AddrMgrEntryLookupNwk
        LOCFRAME ISTACK, 0, STACK
        LOCFRAME PSTACK, 0, STACK
        LOCFRAME XSTACK, 61, STACK
        LOCFRAME IOVERLAY, 0, STATIC
        LOCFRAME DOVERLAY, 0, STATIC
        ARGFRAME ISTACK, 0, STACK
        ARGFRAME PSTACK, 0, STACK
        ARGFRAME XSTACK, 61, STACK
        ARGFRAME IOVERLAY, 0, STATIC
        ARGFRAME DOVERLAY, 0, STATIC
        FUNCALL APSME_TCLinkKeyLoad, AddrMgrEntryRelease
        LOCFRAME ISTACK, 0, STACK
        LOCFRAME PSTACK, 0, STACK
        LOCFRAME XSTACK, 61, STACK
        LOCFRAME IOVERLAY, 0, STATIC
        LOCFRAME DOVERLAY, 0, STATIC
        ARGFRAME ISTACK, 0, STACK
        ARGFRAME PSTACK, 0, STACK
        ARGFRAME XSTACK, 61, STACK
        ARGFRAME IOVERLAY, 0, STATIC
        ARGFRAME DOVERLAY, 0, STATIC
        MOV     A,#-0x10
        LCALL   ?BANKED_ENTER_XDATA
          CFI DPH0 load(1, XDATA, add(CFA_XSP16, literal(-1)))
          CFI DPL0 load(1, XDATA, add(CFA_XSP16, literal(-2)))
          CFI ?BRET_EXT load(1, XDATA, add(CFA_XSP16, literal(-3)))
          CFI ?RET_HIGH load(1, XDATA, add(CFA_XSP16, literal(-4)))
          CFI ?RET_LOW load(1, XDATA, add(CFA_XSP16, literal(-5)))
          CFI R7 load(1, XDATA, add(CFA_XSP16, literal(-6)))
          CFI V7 load(1, XDATA, add(CFA_XSP16, literal(-7)))
          CFI V6 load(1, XDATA, add(CFA_XSP16, literal(-8)))
          CFI V5 load(1, XDATA, add(CFA_XSP16, literal(-9)))
          CFI V4 load(1, XDATA, add(CFA_XSP16, literal(-10)))
          CFI V3 load(1, XDATA, add(CFA_XSP16, literal(-11)))
          CFI V2 load(1, XDATA, add(CFA_XSP16, literal(-12)))
          CFI V1 load(1, XDATA, add(CFA_XSP16, literal(-13)))
          CFI V0 load(1, XDATA, add(CFA_XSP16, literal(-14)))
          CFI VB load(1, XDATA, add(CFA_XSP16, literal(-15)))
          CFI R6 load(1, XDATA, add(CFA_XSP16, literal(-16)))
          CFI CFA_SP SP+0
          CFI CFA_XSP16 add(XSP16, 16)
        ; Saved register size: 16
        ; Auto size: 45
        MOV     A,#-0x2d
        LCALL   ?ALLOC_XSTACK8
          CFI CFA_XSP16 add(XSP16, 61)
        MOV     ?V0 + 2,R2
        MOV     ?V0 + 3,R3
        MOV     A,R4
        MOV     R6,A
        MOV     A,R5
        MOV     R7,A
// 3843   uint8              i;
// 3844   APSME_TCLinkKey_t  tcLinkKey;
// 3845   AddrMgrEntry_t     addrEntry;  
// 3846   
// 3847   // Look up the ami of the srcAddr if available
// 3848   addrEntry.user    = ADDRMGR_USER_DEFAULT;
        MOV     DPL,?XSP + 0
        MOV     DPH,?XSP + 1
        MOV     A,#0x0
        MOVX    @DPTR,A
// 3849   addrEntry.nwkAddr = dstAddr;
        MOV     A,#0x1
        LCALL   ?XSTACK_DISP0_8
        MOV     A,?V0 + 2
        MOVX    @DPTR,A
        INC     DPTR
        MOV     A,?V0 + 3
        MOVX    @DPTR,A
// 3850 
// 3851   APSME_LookupExtAddr( dstAddr, si->extAddr );
        ; Setup parameters for call to function APSME_LookupExtAddr
        MOV     A,R6
        ADD     A,#0x6
        MOV     R4,A
        MOV     A,R7
        ADDC    A,#0x0
        MOV     R5,A
        MOV     R2,?V0 + 2
        MOV     R3,?V0 + 3
        LCALL   ??APSME_LookupExtAddr?relay
        MOV     A,R1
// 3852 
// 3853   if ( AddrMgrExtAddrValid( si->extAddr ) == TRUE )
        ; Setup parameters for call to function AddrMgrExtAddrValid
        MOV     A,R6
        ADD     A,#0x6
        MOV     R2,A
        MOV     A,R7
        ADDC    A,#0x0
        MOV     R3,A
        LCALL   ??AddrMgrExtAddrValid?relay
        MOV     A,R1
        XRL     A,#0x1
        JZ      $+5
        LJMP    ??APSME_TCLinkKeyLoad_0 & 0xFFFF
// 3854   {
// 3855     // Look up the TC link key associated with the device
// 3856     // or the master TC link key (ami = 0xFFFF), whichever is found
// 3857     for( i = 0; i < ZDSECMGR_TC_DEVICE_MAX; i++ )
        MOV     ?V0 + 0,#0x0
??APSME_TCLinkKeyLoad_1:
        MOV     A,?V0 + 0
        CLR     C
        SUBB    A,#0x1
        JC      $+5
        LJMP    ??APSME_TCLinkKeyLoad_0 & 0xFFFF
// 3858     {
// 3859       // Read entry i of the TC link key table from NV
// 3860       osal_nv_read( (ZCD_NV_TCLK_TABLE_START + i), 0, 
// 3861                    sizeof(APSME_TCLinkKey_t), &tcLinkKey );
        ; Setup parameters for call to function osal_nv_read
        MOV     A,#0xd
        LCALL   ?XSTACK_DISP0_8
        MOV     ?V0 + 4,DPL
        MOV     ?V0 + 5,DPH
        MOV     R0,#?V0 + 4
        LCALL   ?PUSH_XSTACK_I_TWO
          CFI CFA_XSP16 add(XSP16, 63)
        MOV     ?V0 + 4,#0x20
        MOV     ?V0 + 5,#0x0
        MOV     R0,#?V0 + 4
        LCALL   ?PUSH_XSTACK_I_TWO
          CFI CFA_XSP16 add(XSP16, 65)
        MOV     R4,#0x0
        MOV     R5,#0x0
        MOV     ?V0 + 4,?V0 + 0
        MOV     ?V0 + 5,#0x0
        MOV     A,?V0 + 4
        ADD     A,#0x1
        MOV     R2,A
        MOV     A,?V0 + 5
        ADDC    A,#0x1
        MOV     R3,A
        LCALL   ??osal_nv_read?relay
        MOV     A,#0x4
        LCALL   ?DEALLOC_XSTACK8
          CFI CFA_XSP16 add(XSP16, 61)
        MOV     A,R1
// 3862       
// 3863       if( AddrMgrExtAddrEqual(si->extAddr, tcLinkKey.extAddr) || 
// 3864          APSME_IsDefaultTCLK(tcLinkKey.extAddr))
        ; Setup parameters for call to function AddrMgrExtAddrEqual
        MOV     A,#0xd
        LCALL   ?XSTACK_DISP0_8
        MOV     R4,DPL
        MOV     R5,DPH
        MOV     A,R6
        ADD     A,#0x6
        MOV     R2,A
        MOV     A,R7
        ADDC    A,#0x0
        MOV     R3,A
        LCALL   ??AddrMgrExtAddrEqual?relay
        MOV     A,R1
        JNZ     ??APSME_TCLinkKeyLoad_2
        ; Setup parameters for call to function APSME_IsDefaultTCLK
        MOV     A,#0xd
        LCALL   ?XSTACK_DISP0_8
        MOV     R2,DPL
        MOV     R3,DPH
        LCALL   ??APSME_IsDefaultTCLK?relay
        MOV     A,R1
        JNZ     $+5
        LJMP    ??APSME_TCLinkKeyLoad_3 & 0xFFFF
// 3865       {
// 3866         // set the key to use
// 3867         osal_memcpy( si->key, tcLinkKey.key, SEC_KEY_LEN);  
??APSME_TCLinkKeyLoad_2:
        ; Setup parameters for call to function osal_memcpy
        MOV     A,#0x15
        LCALL   ?XSTACK_DISP0_8
        MOV     R1,DPL
        MOV     R2,DPH
        MOV     R3,#0x0
        MOV     ?V0 + 4,R1
        MOV     ?V0 + 5,R2
        MOV     ?V0 + 6,R3
        MOV     R0,#?V0 + 4
        LCALL   ?PUSH_XSTACK_I_THREE
          CFI CFA_XSP16 add(XSP16, 64)
        MOV     R4,#0x10
        MOV     R5,#0x0
        MOV     A,R6
        ADD     A,#0xf
        MOV     DPL,A
        MOV     A,R7
        ADDC    A,#0x0
        MOV     DPH,A
        MOVX    A,@DPTR
        MOV     R2,A
        INC     DPTR
        MOVX    A,@DPTR
        MOV     R3,A
        LCALL   ??osal_memcpy?relay
        MOV     A,#0x3
        LCALL   ?DEALLOC_XSTACK8
          CFI CFA_XSP16 add(XSP16, 61)
// 3868         
// 3869         // update link key related fields
// 3870         si->keyID   = SEC_KEYID_LINK;
        MOV     A,R6
        ADD     A,#0xe
        MOV     DPL,A
        MOV     A,R7
        ADDC    A,#0x0
        MOV     DPH,A
        MOV     A,#0x0
        MOVX    @DPTR,A
// 3871         si->frmCntr = tcLinkKey.txFrmCntr;
        MOV     A,#0x25
        LCALL   ?XSTACK_DISP0_8
        LCALL   ?XLOAD_R2345
        MOV     A,R6
        ADD     A,#0x12
        MOV     DPL,A
        MOV     A,R7
        ADDC    A,#0x0
        MOV     DPH,A
        LCALL   ?XSTORE_R2345
// 3872       
// 3873         // update outgoing frame counter
// 3874         tcLinkKey.txFrmCntr++;
        MOV     DPTR,#__Constant_1
        MOV     R0,#?V0 + 4
        LCALL   ?L_MOV_X
        MOV     A,#0x25
        LCALL   ?XSTACK_DISP0_8
        MOV     R0,#?V0 + 4
        LCALL   ?L_ADD_TO_X
// 3875         
// 3876         // Write the tc link key back to the NV
// 3877         osal_nv_write( (ZCD_NV_TCLK_TABLE_START + i), 0, 
// 3878                       sizeof(APSME_TCLinkKey_t), &tcLinkKey );
        ; Setup parameters for call to function osal_nv_write
        MOV     A,#0xd
        LCALL   ?XSTACK_DISP0_8
        MOV     ?V0 + 4,DPL
        MOV     ?V0 + 5,DPH
        MOV     R0,#?V0 + 4
        LCALL   ?PUSH_XSTACK_I_TWO
          CFI CFA_XSP16 add(XSP16, 63)
        MOV     ?V0 + 4,#0x20
        MOV     ?V0 + 5,#0x0
        MOV     R0,#?V0 + 4
        LCALL   ?PUSH_XSTACK_I_TWO
          CFI CFA_XSP16 add(XSP16, 65)
        MOV     R4,#0x0
        MOV     R5,#0x0
        MOV     ?V0 + 4,?V0 + 0
        MOV     ?V0 + 5,#0x0
        MOV     A,?V0 + 4
        ADD     A,#0x1
        MOV     R2,A
        MOV     A,?V0 + 5
        ADDC    A,#0x1
        MOV     R3,A
        LCALL   ??osal_nv_write?relay
        MOV     A,#0x4
        LCALL   ?DEALLOC_XSTACK8
          CFI CFA_XSP16 add(XSP16, 61)
        MOV     A,R1
// 3879         
// 3880         return ZSuccess;
        MOV     R1,#0x0
        SJMP    ??APSME_TCLinkKeyLoad_4
// 3881       }
// 3882     }
??APSME_TCLinkKeyLoad_3:
        INC     ?V0 + 0
        LJMP    ??APSME_TCLinkKeyLoad_1 & 0xFFFF
// 3883   }
// 3884     
// 3885   // If no TC link key found, remove the device from the address manager
// 3886   if ( AddrMgrEntryLookupNwk( &addrEntry ) == TRUE )
??APSME_TCLinkKeyLoad_0:
        ; Setup parameters for call to function AddrMgrEntryLookupNwk
        MOV     DPL,?XSP + 0
        MOV     DPH,?XSP + 1
        MOV     R2,DPL
        MOV     R3,DPH
        LCALL   ??AddrMgrEntryLookupNwk?relay
        MOV     A,R1
        XRL     A,#0x1
        JNZ     ??APSME_TCLinkKeyLoad_5
// 3887   {
// 3888     AddrMgrEntryRelease( &addrEntry );
        ; Setup parameters for call to function AddrMgrEntryRelease
        MOV     DPL,?XSP + 0
        MOV     DPH,?XSP + 1
        MOV     R2,DPL
        MOV     R3,DPH
        LCALL   ??AddrMgrEntryRelease?relay
        MOV     A,R1
// 3889   }
// 3890 
// 3891   return ZSecNoKey;
??APSME_TCLinkKeyLoad_5:
        MOV     R1,#-0x5f
??APSME_TCLinkKeyLoad_4:
        MOV     A,#0x2d
        LCALL   ?DEALLOC_XSTACK8
          CFI CFA_XSP16 add(XSP16, 16)
        MOV     R7,#0x8
        LJMP    ?BANKED_LEAVE_XDATA
          CFI EndBlock cfiBlock75
// 3892 }
// 3893 
// 3894 /******************************************************************************
// 3895  * @fn          APSME_IsDefaultTCLK
// 3896  *
// 3897  * @brief       Return true or false based on the extended address.  If the 
// 3898  *              input ext address is all FFs, it means the trust center link
// 3899  *              assoiciated with the address is the default trust center link key
// 3900  *
// 3901  * @param       extAddr - [in] extended address
// 3902  *
// 3903  * @return      uint8 TRUE/FALSE
// 3904  */

        RSEG BANKED_CODE:CODE:NOROOT(0)
// 3905 uint8 APSME_IsDefaultTCLK( uint8 *extAddr )
APSME_IsDefaultTCLK:
          CFI Block cfiBlock76 Using cfiCommon0
          CFI Function APSME_IsDefaultTCLK
        CODE
// 3906 {
        MOV     A,#-0x9
        LCALL   ?BANKED_ENTER_XDATA
          CFI DPH0 load(1, XDATA, add(CFA_XSP16, literal(-1)))
          CFI DPL0 load(1, XDATA, add(CFA_XSP16, literal(-2)))
          CFI ?BRET_EXT load(1, XDATA, add(CFA_XSP16, literal(-3)))
          CFI ?RET_HIGH load(1, XDATA, add(CFA_XSP16, literal(-4)))
          CFI ?RET_LOW load(1, XDATA, add(CFA_XSP16, literal(-5)))
          CFI R7 load(1, XDATA, add(CFA_XSP16, literal(-6)))
          CFI V0 load(1, XDATA, add(CFA_XSP16, literal(-7)))
          CFI VB load(1, XDATA, add(CFA_XSP16, literal(-8)))
          CFI R6 load(1, XDATA, add(CFA_XSP16, literal(-9)))
          CFI CFA_SP SP+0
          CFI CFA_XSP16 add(XSP16, 9)
        ; Saved register size: 9
        ; Auto size: 0
// 3907   uint8 i = 0;
        MOV     R4,#0x0
// 3908   
// 3909   if( extAddr == NULL )
        MOV     A,R2
        ORL     A,R3
        JNZ     ??APSME_IsDefaultTCLK_0
// 3910   {
// 3911     return FALSE;
        MOV     R1,#0x0
        SJMP    ??APSME_IsDefaultTCLK_1
// 3912   }
// 3913   
// 3914   while( i++ < Z_EXTADDR_LEN )
??APSME_IsDefaultTCLK_0:
        MOV     A,R4
        MOV     R5,A
        MOV     A,#0x1
        ADD     A,R5
        MOV     R4,A
        MOV     A,R5
        CLR     C
        SUBB    A,#0x8
        JNC     ??APSME_IsDefaultTCLK_2
// 3915   {
// 3916     if( *extAddr++ != 0xFF )
        MOV     A,R2
        MOV     R0,A
        MOV     A,R3
        MOV     R1,A
        MOV     DPL,R0
        MOV     DPH,R1
        INC     DPTR
        MOV     R2,DPL
        MOV     R3,DPH
        MOV     DPL,R0
        MOV     DPH,R1
        MOVX    A,@DPTR
        XRL     A,#0xff
        JZ      ??APSME_IsDefaultTCLK_0
// 3917     {
// 3918       return FALSE;
        MOV     R1,#0x0
        SJMP    ??APSME_IsDefaultTCLK_1
// 3919     }
// 3920   }
// 3921   
// 3922   return TRUE;
??APSME_IsDefaultTCLK_2:
        MOV     R1,#0x1
??APSME_IsDefaultTCLK_1:
        MOV     R7,#0x1
        LJMP    ?BANKED_LEAVE_XDATA
          CFI EndBlock cfiBlock76
// 3923 }

        RSEG XDATA_ID:CODE:NOROOT(0)
`?<Initializer for ZDSecMgrTCMasterKey>`:
        DATA8
        DB 0
        DB 0
        DB 0
        DB 0
        DB 0
        DB 0
        DB 0
        DB 0
        DB 137
        DB 103
        DB 69
        DB 35
        DB 1
        DB 239
        DB 205
        DB 171

        RSEG XDATA_ID:CODE:NOROOT(0)
`?<Initializer for ZDSecMgrAppKeyType>`:
        DATA8
        DB 3

        RSEG XDATA_ROM_C:CONST:REORDER:NOROOT(0)
        DATA32
__Constant_1:
        DD 1

        RSEG BANK_RELAYS:CODE:REORDER:NOROOT(0)
??ZDSecMgrMasterKeyInit?relay:
        CODE
        LCALL   ?BDISPATCH
        DATA24
        DC24    ZDSecMgrMasterKeyInit

        RSEG BANK_RELAYS:CODE:REORDER:NOROOT(0)
??ZDSecMgrAddrStore?relay:
        CODE
        LCALL   ?BDISPATCH
        DATA24
        DC24    ZDSecMgrAddrStore

        RSEG BANK_RELAYS:CODE:REORDER:NOROOT(0)
??ZDSecMgrExtAddrStore?relay:
        CODE
        LCALL   ?BDISPATCH
        DATA24
        DC24    ZDSecMgrExtAddrStore

        RSEG BANK_RELAYS:CODE:REORDER:NOROOT(0)
??ZDSecMgrExtAddrLookup?relay:
        CODE
        LCALL   ?BDISPATCH
        DATA24
        DC24    ZDSecMgrExtAddrLookup

        RSEG BANK_RELAYS:CODE:REORDER:NOROOT(0)
??ZDSecMgrMasterKeyLookup?relay:
        CODE
        LCALL   ?BDISPATCH
        DATA24
        DC24    ZDSecMgrMasterKeyLookup

        RSEG BANK_RELAYS:CODE:REORDER:NOROOT(0)
??ZDSecMgrMasterKeyStore?relay:
        CODE
        LCALL   ?BDISPATCH
        DATA24
        DC24    ZDSecMgrMasterKeyStore

        RSEG BANK_RELAYS:CODE:REORDER:NOROOT(0)
??ZDSecMgrEntryInit?relay:
        CODE
        LCALL   ?BDISPATCH
        DATA24
        DC24    ZDSecMgrEntryInit

        RSEG BANK_RELAYS:CODE:REORDER:NOROOT(0)
??ZDSecMgrEntryLookup?relay:
        CODE
        LCALL   ?BDISPATCH
        DATA24
        DC24    ZDSecMgrEntryLookup

        RSEG BANK_RELAYS:CODE:REORDER:NOROOT(0)
??ZDSecMgrEntryLookupAMI?relay:
        CODE
        LCALL   ?BDISPATCH
        DATA24
        DC24    ZDSecMgrEntryLookupAMI

        RSEG BANK_RELAYS:CODE:REORDER:NOROOT(0)
??ZDSecMgrEntryLookupExt?relay:
        CODE
        LCALL   ?BDISPATCH
        DATA24
        DC24    ZDSecMgrEntryLookupExt

        RSEG BANK_RELAYS:CODE:REORDER:NOROOT(0)
??ZDSecMgrEntryFree?relay:
        CODE
        LCALL   ?BDISPATCH
        DATA24
        DC24    ZDSecMgrEntryFree

        RSEG BANK_RELAYS:CODE:REORDER:NOROOT(0)
??ZDSecMgrEntryNew?relay:
        CODE
        LCALL   ?BDISPATCH
        DATA24
        DC24    ZDSecMgrEntryNew

        RSEG BANK_RELAYS:CODE:REORDER:NOROOT(0)
??ZDSecMgrCtrlInit?relay:
        CODE
        LCALL   ?BDISPATCH
        DATA24
        DC24    ZDSecMgrCtrlInit

        RSEG BANK_RELAYS:CODE:REORDER:NOROOT(0)
??ZDSecMgrCtrlRelease?relay:
        CODE
        LCALL   ?BDISPATCH
        DATA24
        DC24    ZDSecMgrCtrlRelease

        RSEG BANK_RELAYS:CODE:REORDER:NOROOT(0)
??ZDSecMgrCtrlLookup?relay:
        CODE
        LCALL   ?BDISPATCH
        DATA24
        DC24    ZDSecMgrCtrlLookup

        RSEG BANK_RELAYS:CODE:REORDER:NOROOT(0)
??ZDSecMgrCtrlSet?relay:
        CODE
        LCALL   ?BDISPATCH
        DATA24
        DC24    ZDSecMgrCtrlSet

        RSEG BANK_RELAYS:CODE:REORDER:NOROOT(0)
??ZDSecMgrCtrlAdd?relay:
        CODE
        LCALL   ?BDISPATCH
        DATA24
        DC24    ZDSecMgrCtrlAdd

        RSEG BANK_RELAYS:CODE:REORDER:NOROOT(0)
??ZDSecMgrCtrlTerm?relay:
        CODE
        LCALL   ?BDISPATCH
        DATA24
        DC24    ZDSecMgrCtrlTerm

        RSEG BANK_RELAYS:CODE:REORDER:NOROOT(0)
??ZDSecMgrCtrlReset?relay:
        CODE
        LCALL   ?BDISPATCH
        DATA24
        DC24    ZDSecMgrCtrlReset

        RSEG BANK_RELAYS:CODE:REORDER:NOROOT(0)
??ZDSecMgrMasterKeyLoad?relay:
        CODE
        LCALL   ?BDISPATCH
        DATA24
        DC24    ZDSecMgrMasterKeyLoad

        RSEG BANK_RELAYS:CODE:REORDER:NOROOT(0)
??ZDSecMgrAppKeyGet?relay:
        CODE
        LCALL   ?BDISPATCH
        DATA24
        DC24    ZDSecMgrAppKeyGet

        RSEG BANK_RELAYS:CODE:REORDER:NOROOT(0)
??ZDSecMgrAppKeyReq?relay:
        CODE
        LCALL   ?BDISPATCH
        DATA24
        DC24    ZDSecMgrAppKeyReq

        RSEG BANK_RELAYS:CODE:REORDER:NOROOT(0)
??ZDSecMgrEstablishKey?relay:
        CODE
        LCALL   ?BDISPATCH
        DATA24
        DC24    ZDSecMgrEstablishKey

        RSEG BANK_RELAYS:CODE:REORDER:NOROOT(0)
??ZDSecMgrSendMasterKey?relay:
        CODE
        LCALL   ?BDISPATCH
        DATA24
        DC24    ZDSecMgrSendMasterKey

        RSEG BANK_RELAYS:CODE:REORDER:NOROOT(0)
??ZDSecMgrSendNwkKey?relay:
        CODE
        LCALL   ?BDISPATCH
        DATA24
        DC24    ZDSecMgrSendNwkKey

        RSEG BANK_RELAYS:CODE:REORDER:NOROOT(0)
??ZDSecMgrDeviceEntryRemove?relay:
        CODE
        LCALL   ?BDISPATCH
        DATA24
        DC24    ZDSecMgrDeviceEntryRemove

        RSEG BANK_RELAYS:CODE:REORDER:NOROOT(0)
??ZDSecMgrDeviceRemoveByExtAddr?relay:
        CODE
        LCALL   ?BDISPATCH
        DATA24
        DC24    ZDSecMgrDeviceRemoveByExtAddr

        RSEG BANK_RELAYS:CODE:REORDER:NOROOT(0)
??ZDSecMgrAddrMgrUpdate?relay:
        CODE
        LCALL   ?BDISPATCH
        DATA24
        DC24    ZDSecMgrAddrMgrUpdate

        RSEG BANK_RELAYS:CODE:REORDER:NOROOT(0)
??ZDSecMgrDeviceEntryAdd?relay:
        CODE
        LCALL   ?BDISPATCH
        DATA24
        DC24    ZDSecMgrDeviceEntryAdd

        RSEG BANK_RELAYS:CODE:REORDER:NOROOT(0)
??ZDSecMgrDeviceCtrlHandler?relay:
        CODE
        LCALL   ?BDISPATCH
        DATA24
        DC24    ZDSecMgrDeviceCtrlHandler

        RSEG BANK_RELAYS:CODE:REORDER:NOROOT(0)
??ZDSecMgrDeviceCtrlSetup?relay:
        CODE
        LCALL   ?BDISPATCH
        DATA24
        DC24    ZDSecMgrDeviceCtrlSetup

        RSEG BANK_RELAYS:CODE:REORDER:NOROOT(0)
??ZDSecMgrDeviceCtrlUpdate?relay:
        CODE
        LCALL   ?BDISPATCH
        DATA24
        DC24    ZDSecMgrDeviceCtrlUpdate

        RSEG BANK_RELAYS:CODE:REORDER:NOROOT(0)
??APSME_SKA_TimerExpired?relay:
        CODE
        LCALL   ?BDISPATCH
        DATA24
        DC24    APSME_SKA_TimerExpired

        RSEG BANK_RELAYS:CODE:REORDER:NOROOT(0)
??ZDSecMgrDeviceRemove?relay:
        CODE
        LCALL   ?BDISPATCH
        DATA24
        DC24    ZDSecMgrDeviceRemove

        RSEG BANK_RELAYS:CODE:REORDER:NOROOT(0)
??ZDSecMgrDeviceValidateSKKE?relay:
        CODE
        LCALL   ?BDISPATCH
        DATA24
        DC24    ZDSecMgrDeviceValidateSKKE

        RSEG BANK_RELAYS:CODE:REORDER:NOROOT(0)
??ZDSecMgrDeviceValidateRM?relay:
        CODE
        LCALL   ?BDISPATCH
        DATA24
        DC24    ZDSecMgrDeviceValidateRM

        RSEG BANK_RELAYS:CODE:REORDER:NOROOT(0)
??ZDSecMgrDeviceValidateCM?relay:
        CODE
        LCALL   ?BDISPATCH
        DATA24
        DC24    ZDSecMgrDeviceValidateCM

        RSEG BANK_RELAYS:CODE:REORDER:NOROOT(0)
??ZDSecMgrDeviceValidate?relay:
        CODE
        LCALL   ?BDISPATCH
        DATA24
        DC24    ZDSecMgrDeviceValidate

        RSEG BANK_RELAYS:CODE:REORDER:NOROOT(0)
??ZDSecMgrDeviceJoin?relay:
        CODE
        LCALL   ?BDISPATCH
        DATA24
        DC24    ZDSecMgrDeviceJoin

        RSEG BANK_RELAYS:CODE:REORDER:NOROOT(0)
??ZDSecMgrDeviceJoinDirect?relay:
        CODE
        LCALL   ?BDISPATCH
        DATA24
        DC24    ZDSecMgrDeviceJoinDirect

        RSEG BANK_RELAYS:CODE:REORDER:NOROOT(0)
??ZDSecMgrDeviceJoinFwd?relay:
        CODE
        LCALL   ?BDISPATCH
        DATA24
        DC24    ZDSecMgrDeviceJoinFwd

        RSEG BANK_RELAYS:CODE:REORDER:NOROOT(0)
??ZDSecMgrDeviceNew?relay:
        CODE
        LCALL   ?BDISPATCH
        DATA24
        DC24    ZDSecMgrDeviceNew

        RSEG BANK_RELAYS:CODE:REORDER:NOROOT(0)
??ZDSecMgrAssocDeviceAuth?relay:
        CODE
        LCALL   ?BDISPATCH
        DATA24
        DC24    ZDSecMgrAssocDeviceAuth

        RSEG BANK_RELAYS:CODE:REORDER:NOROOT(0)
??ZDSecMgrAuthInitiate?relay:
        CODE
        LCALL   ?BDISPATCH
        DATA24
        DC24    ZDSecMgrAuthInitiate

        RSEG BANK_RELAYS:CODE:REORDER:NOROOT(0)
??ZDSecMgrAuthNwkKey?relay:
        CODE
        LCALL   ?BDISPATCH
        DATA24
        DC24    ZDSecMgrAuthNwkKey

        RSEG BANK_RELAYS:CODE:REORDER:NOROOT(0)
??ZDSecMgrInit?relay:
        CODE
        LCALL   ?BDISPATCH
        DATA24
        DC24    ZDSecMgrInit

        RSEG BANK_RELAYS:CODE:REORDER:NOROOT(0)
??ZDSecMgrConfig?relay:
        CODE
        LCALL   ?BDISPATCH
        DATA24
        DC24    ZDSecMgrConfig

        RSEG BANK_RELAYS:CODE:REORDER:NOROOT(0)
??ZDSecMgrPermitJoining?relay:
        CODE
        LCALL   ?BDISPATCH
        DATA24
        DC24    ZDSecMgrPermitJoining

        RSEG BANK_RELAYS:CODE:REORDER:NOROOT(0)
??ZDSecMgrPermitJoiningTimeout?relay:
        CODE
        LCALL   ?BDISPATCH
        DATA24
        DC24    ZDSecMgrPermitJoiningTimeout

        RSEG BANK_RELAYS:CODE:REORDER:NOROOT(0)
??ZDSecMgrNewDeviceEvent?relay:
        CODE
        LCALL   ?BDISPATCH
        DATA24
        DC24    ZDSecMgrNewDeviceEvent

        RSEG BANK_RELAYS:CODE:REORDER:NOROOT(0)
??ZDSecMgrEvent?relay:
        CODE
        LCALL   ?BDISPATCH
        DATA24
        DC24    ZDSecMgrEvent

        RSEG BANK_RELAYS:CODE:REORDER:NOROOT(0)
??ZDSecMgrEstablishKeyCfm?relay:
        CODE
        LCALL   ?BDISPATCH
        DATA24
        DC24    ZDSecMgrEstablishKeyCfm

        RSEG BANK_RELAYS:CODE:REORDER:NOROOT(0)
??ZDSecMgrTCExtAddrCheck?relay:
        CODE
        LCALL   ?BDISPATCH
        DATA24
        DC24    ZDSecMgrTCExtAddrCheck

        RSEG BANK_RELAYS:CODE:REORDER:NOROOT(0)
??ZDSecMgrTCDataLoad?relay:
        CODE
        LCALL   ?BDISPATCH
        DATA24
        DC24    ZDSecMgrTCDataLoad

        RSEG BANK_RELAYS:CODE:REORDER:NOROOT(0)
??ZDSecMgrEstablishKeyInd?relay:
        CODE
        LCALL   ?BDISPATCH
        DATA24
        DC24    ZDSecMgrEstablishKeyInd

        RSEG BANK_RELAYS:CODE:REORDER:NOROOT(0)
??ZDSecMgrTransportKeyInd?relay:
        CODE
        LCALL   ?BDISPATCH
        DATA24
        DC24    ZDSecMgrTransportKeyInd

        RSEG BANK_RELAYS:CODE:REORDER:NOROOT(0)
??ZDSecMgrUpdateDeviceInd?relay:
        CODE
        LCALL   ?BDISPATCH
        DATA24
        DC24    ZDSecMgrUpdateDeviceInd

        RSEG BANK_RELAYS:CODE:REORDER:NOROOT(0)
??ZDSecMgrRemoveDeviceInd?relay:
        CODE
        LCALL   ?BDISPATCH
        DATA24
        DC24    ZDSecMgrRemoveDeviceInd

        RSEG BANK_RELAYS:CODE:REORDER:NOROOT(0)
??ZDSecMgrRequestKeyInd?relay:
        CODE
        LCALL   ?BDISPATCH
        DATA24
        DC24    ZDSecMgrRequestKeyInd

        RSEG BANK_RELAYS:CODE:REORDER:NOROOT(0)
??ZDSecMgrSwitchKeyInd?relay:
        CODE
        LCALL   ?BDISPATCH
        DATA24
        DC24    ZDSecMgrSwitchKeyInd

        RSEG BANK_RELAYS:CODE:REORDER:NOROOT(0)
??ZDSecMgrAuthenticateInd?relay:
        CODE
        LCALL   ?BDISPATCH
        DATA24
        DC24    ZDSecMgrAuthenticateInd

        RSEG BANK_RELAYS:CODE:REORDER:NOROOT(0)
??ZDSecMgrAuthenticateCfm?relay:
        CODE
        LCALL   ?BDISPATCH
        DATA24
        DC24    ZDSecMgrAuthenticateCfm

        RSEG BANK_RELAYS:CODE:REORDER:NOROOT(0)
??ZDSecMgrUpdateNwkKey?relay:
        CODE
        LCALL   ?BDISPATCH
        DATA24
        DC24    ZDSecMgrUpdateNwkKey

        RSEG BANK_RELAYS:CODE:REORDER:NOROOT(0)
??ZDSecMgrSwitchNwkKey?relay:
        CODE
        LCALL   ?BDISPATCH
        DATA24
        DC24    ZDSecMgrSwitchNwkKey

        RSEG BANK_RELAYS:CODE:REORDER:NOROOT(0)
??ZDSecMgrAppKeyTypeSet?relay:
        CODE
        LCALL   ?BDISPATCH
        DATA24
        DC24    ZDSecMgrAppKeyTypeSet

        RSEG BANK_RELAYS:CODE:REORDER:NOROOT(0)
??APSME_MasterKeyGet?relay:
        CODE
        LCALL   ?BDISPATCH
        DATA24
        DC24    APSME_MasterKeyGet

        RSEG BANK_RELAYS:CODE:REORDER:NOROOT(0)
??APSME_LinkKeySet?relay:
        CODE
        LCALL   ?BDISPATCH
        DATA24
        DC24    APSME_LinkKeySet

        RSEG BANK_RELAYS:CODE:REORDER:NOROOT(0)
??ZDSecMgrAuthenticationSet?relay:
        CODE
        LCALL   ?BDISPATCH
        DATA24
        DC24    ZDSecMgrAuthenticationSet

        RSEG BANK_RELAYS:CODE:REORDER:NOROOT(0)
??ZDSecMgrAuthenticationCheck?relay:
        CODE
        LCALL   ?BDISPATCH
        DATA24
        DC24    ZDSecMgrAuthenticationCheck

        RSEG BANK_RELAYS:CODE:REORDER:NOROOT(0)
??APSME_LinkKeyDataGet?relay:
        CODE
        LCALL   ?BDISPATCH
        DATA24
        DC24    APSME_LinkKeyDataGet

        RSEG BANK_RELAYS:CODE:REORDER:NOROOT(0)
??APSME_KeyFwdToChild?relay:
        CODE
        LCALL   ?BDISPATCH
        DATA24
        DC24    APSME_KeyFwdToChild

        RSEG BANK_RELAYS:CODE:REORDER:NOROOT(0)
??ZDSecMgrAddLinkKey?relay:
        CODE
        LCALL   ?BDISPATCH
        DATA24
        DC24    ZDSecMgrAddLinkKey

        RSEG BANK_RELAYS:CODE:REORDER:NOROOT(0)
??ZDSecMgrAPSRemove?relay:
        CODE
        LCALL   ?BDISPATCH
        DATA24
        DC24    ZDSecMgrAPSRemove

        RSEG BANK_RELAYS:CODE:REORDER:NOROOT(0)
??APSME_TCLinkKeyInit?relay:
        CODE
        LCALL   ?BDISPATCH
        DATA24
        DC24    APSME_TCLinkKeyInit

        RSEG BANK_RELAYS:CODE:REORDER:NOROOT(0)
??APSME_TCLinkKeySync?relay:
        CODE
        LCALL   ?BDISPATCH
        DATA24
        DC24    APSME_TCLinkKeySync

        RSEG BANK_RELAYS:CODE:REORDER:NOROOT(0)
??APSME_TCLinkKeyLoad?relay:
        CODE
        LCALL   ?BDISPATCH
        DATA24
        DC24    APSME_TCLinkKeyLoad

        RSEG BANK_RELAYS:CODE:REORDER:NOROOT(0)
??APSME_IsDefaultTCLK?relay:
        CODE
        LCALL   ?BDISPATCH
        DATA24
        DC24    APSME_IsDefaultTCLK

        END
// 3924 
// 3925 
// 3926 /******************************************************************************
// 3927 ******************************************************************************/
// 3928 
// 
// 10 564 bytes in segment BANKED_CODE
//    462 bytes in segment BANK_RELAYS
//     17 bytes in segment XDATA_I
//     17 bytes in segment XDATA_ID
//      4 bytes in segment XDATA_ROM_C
//     50 bytes in segment XDATA_Z
// 
// 11 043 bytes of CODE  memory
//      0 bytes of CONST memory (+ 4 bytes shared)
//     67 bytes of XDATA memory
//
//Errors: none
//Warnings: none
