###############################################################################
#                                                                             #
# IAR C/C++ Compiler V8.20.2.41139 for 8051             11/Jan/2016  16:35:11 #
# Copyright 2004-2013 IAR Systems AB.                                         #
#                                                                             #
#    Core               =  plain                                              #
#    Code model         =  banked                                             #
#    Data model         =  large                                              #
#    Calling convention =  xdata reentrant                                    #
#    Constant location  =  data_rom                                           #
#    Dptr setup         =  1,16                                               #
#                                                                             #
#    Source file        =  C:\Users\ArnoldWorkStation\Desktop\ZigbeeTest\Proj #
#                          ects\zstack\ZMain\TI2530DB\ZMain.c                 #
#    Command line       =  -f C:\Users\ArnoldWorkStation\Desktop\ZigbeeTest\P #
#                          rojects\zstack\Samples\SampleApp\CC2530DB\..\..\.. #
#                          \Tools\CC2530DB\f8wCoord.cfg (-DCPU32MHZ           #
#                          -DROOT=__near_func -DMAC_CFG_APP_PENDING_QUEUE=TRU #
#                          E -DZDO_COORDINATOR -DRTR_NWK -DBLINK_LEDS) -f     #
#                          C:\Users\ArnoldWorkStation\Desktop\ZigbeeTest\Proj #
#                          ects\zstack\Samples\SampleApp\CC2530DB\..\..\..\To #
#                          ols\CC2530DB\f8wConfig.cfg (-DSECURE=0             #
#                          -DZG_SECURE_DYNAMIC=0 -DREFLECTOR                  #
#                          -DDEFAULT_CHANLIST=0x00000800                      #
#                          -DZDAPP_CONFIG_PAN_ID=0xFFF1                       #
#                          -DNWK_START_DELAY=100 -DEXTENDED_JOINING_RANDOM_MA #
#                          SK=0x007F -DBEACON_REQUEST_DELAY=100               #
#                          -DBEACON_REQ_DELAY_MASK=0x00FF                     #
#                          -DROUTE_EXPIRY_TIME=30 -DAPSC_ACK_WAIT_DURATION_PO #
#                          LLED=3000 -DNWK_INDIRECT_MSG_TIMEOUT=7             #
#                          -DMAX_RREQ_ENTRIES=8 -DAPSC_MAX_FRAME_RETRIES=3    #
#                          -DNWK_MAX_DATA_RETRIES=2                           #
#                          -DMAX_POLL_FAILURE_RETRIES=2 -DMAX_BCAST=9         #
#                          -DAPS_MAX_GROUPS=16 -DMAX_RTG_ENTRIES=40           #
#                          -DNWK_MAX_BINDING_ENTRIES=4                        #
#                          -DMAX_BINDING_CLUSTER_IDS=4 "-DDEFAULT_KEY={0x01,  #
#                          0x03, 0x05, 0x07, 0x09, 0x0B, 0x0D, 0x0F, 0x00,    #
#                          0x02, 0x04, 0x06, 0x08, 0x0A, 0x0C, 0x0D}"         #
#                          -DMAC_MAX_FRAME_SIZE=116 "-DCONST=const __code"    #
#                          -DGENERIC=__generic -DRFD_RCVC_ALWAYS_ON=TRUE      #
#                          -DPOLL_RATE=1000 -DQUEUED_POLL_RATE=100            #
#                          -DRESPONSE_POLL_RATE=100) -DREJOIN_POLL_RATE=440   #
#                          C:\Users\ArnoldWorkStation\Desktop\ZigbeeTest\Proj #
#                          ects\zstack\ZMain\TI2530DB\ZMain.c -D ZIGBEEPRO    #
#                          -D ZTOOL_P1 -D xMT_TASK -D xMT_SYS_FUNC -D         #
#                          xMT_ZDO_FUNC -D LCD_SUPPORTED=DEBUG -lC            #
#                          C:\Users\ArnoldWorkStation\Desktop\ZigbeeTest\Proj #
#                          ects\zstack\Samples\SampleApp\CC2530DB\Coordinator #
#                          EB-Pro\List\ -lA C:\Users\ArnoldWorkStation\Deskto #
#                          p\ZigbeeTest\Projects\zstack\Samples\SampleApp\CC2 #
#                          530DB\CoordinatorEB-Pro\List\ --diag_suppress      #
#                          Pe001,Pa010 -o C:\Users\ArnoldWorkStation\Desktop\ #
#                          ZigbeeTest\Projects\zstack\Samples\SampleApp\CC253 #
#                          0DB\CoordinatorEB-Pro\Obj\ -e --no_cse             #
#                          --no_unroll --no_inline --no_code_motion           #
#                          --no_tbaa --debug --core=plain --dptr=16,1         #
#                          --data_model=large --code_model=banked             #
#                          --calling_convention=xdata_reentrant               #
#                          --place_constants=data_rom --nr_virtual_regs 16    #
#                          -I C:\Users\ArnoldWorkStation\Desktop\ZigbeeTest\P #
#                          rojects\zstack\Samples\SampleApp\CC2530DB\ -I      #
#                          C:\Users\ArnoldWorkStation\Desktop\ZigbeeTest\Proj #
#                          ects\zstack\Samples\SampleApp\CC2530DB\..\SOURCE\  #
#                          -I C:\Users\ArnoldWorkStation\Desktop\ZigbeeTest\P #
#                          rojects\zstack\Samples\SampleApp\CC2530DB\..\..\.. #
#                          \ZMAIN\TI2530DB\ -I C:\Users\ArnoldWorkStation\Des #
#                          ktop\ZigbeeTest\Projects\zstack\Samples\SampleApp\ #
#                          CC2530DB\..\..\..\..\..\COMPONENTS\MT\ -I          #
#                          C:\Users\ArnoldWorkStation\Desktop\ZigbeeTest\Proj #
#                          ects\zstack\Samples\SampleApp\CC2530DB\..\..\..\.. #
#                          \..\COMPONENTS\HAL\INCLUDE\ -I                     #
#                          C:\Users\ArnoldWorkStation\Desktop\ZigbeeTest\Proj #
#                          ects\zstack\Samples\SampleApp\CC2530DB\..\..\..\.. #
#                          \..\COMPONENTS\HAL\TARGET\CC2530EB\ -I             #
#                          C:\Users\ArnoldWorkStation\Desktop\ZigbeeTest\Proj #
#                          ects\zstack\Samples\SampleApp\CC2530DB\..\..\..\.. #
#                          \..\COMPONENTS\OSAL\MCU\CCSOC\ -I                  #
#                          C:\Users\ArnoldWorkStation\Desktop\ZigbeeTest\Proj #
#                          ects\zstack\Samples\SampleApp\CC2530DB\..\..\..\.. #
#                          \..\COMPONENTS\OSAL\INCLUDE\ -I                    #
#                          C:\Users\ArnoldWorkStation\Desktop\ZigbeeTest\Proj #
#                          ects\zstack\Samples\SampleApp\CC2530DB\..\..\..\.. #
#                          \..\COMPONENTS\STACK\AF\ -I                        #
#                          C:\Users\ArnoldWorkStation\Desktop\ZigbeeTest\Proj #
#                          ects\zstack\Samples\SampleApp\CC2530DB\..\..\..\.. #
#                          \..\COMPONENTS\STACK\NWK\ -I                       #
#                          C:\Users\ArnoldWorkStation\Desktop\ZigbeeTest\Proj #
#                          ects\zstack\Samples\SampleApp\CC2530DB\..\..\..\.. #
#                          \..\COMPONENTS\STACK\SEC\ -I                       #
#                          C:\Users\ArnoldWorkStation\Desktop\ZigbeeTest\Proj #
#                          ects\zstack\Samples\SampleApp\CC2530DB\..\..\..\.. #
#                          \..\COMPONENTS\STACK\SAPI\ -I                      #
#                          C:\Users\ArnoldWorkStation\Desktop\ZigbeeTest\Proj #
#                          ects\zstack\Samples\SampleApp\CC2530DB\..\..\..\.. #
#                          \..\COMPONENTS\STACK\SYS\ -I                       #
#                          C:\Users\ArnoldWorkStation\Desktop\ZigbeeTest\Proj #
#                          ects\zstack\Samples\SampleApp\CC2530DB\..\..\..\.. #
#                          \..\COMPONENTS\STACK\ZDO\ -I                       #
#                          C:\Users\ArnoldWorkStation\Desktop\ZigbeeTest\Proj #
#                          ects\zstack\Samples\SampleApp\CC2530DB\..\..\..\.. #
#                          \..\COMPONENTS\ZMAC\F8W\ -I                        #
#                          C:\Users\ArnoldWorkStation\Desktop\ZigbeeTest\Proj #
#                          ects\zstack\Samples\SampleApp\CC2530DB\..\..\..\.. #
#                          \..\COMPONENTS\ZMAC\ -I C:\Users\ArnoldWorkStation #
#                          \Desktop\ZigbeeTest\Projects\zstack\Samples\Sample #
#                          App\CC2530DB\..\..\..\..\..\COMPONENTS\SERVICES\SA #
#                          DDR\ -I C:\Users\ArnoldWorkStation\Desktop\ZigbeeT #
#                          est\Projects\zstack\Samples\SampleApp\CC2530DB\..\ #
#                          ..\..\..\..\COMPONENTS\SERVICES\SDATA\ -I          #
#                          C:\Users\ArnoldWorkStation\Desktop\ZigbeeTest\Proj #
#                          ects\zstack\Samples\SampleApp\CC2530DB\..\..\..\.. #
#                          \..\COMPONENTS\MAC\INCLUDE\ -I                     #
#                          C:\Users\ArnoldWorkStation\Desktop\ZigbeeTest\Proj #
#                          ects\zstack\Samples\SampleApp\CC2530DB\..\..\..\.. #
#                          \..\COMPONENTS\MAC\HIGH_LEVEL\ -I                  #
#                          C:\Users\ArnoldWorkStation\Desktop\ZigbeeTest\Proj #
#                          ects\zstack\Samples\SampleApp\CC2530DB\..\..\..\.. #
#                          \..\COMPONENTS\MAC\LOW_LEVEL\srf04\ -I             #
#                          C:\Users\ArnoldWorkStation\Desktop\ZigbeeTest\Proj #
#                          ects\zstack\Samples\SampleApp\CC2530DB\..\..\..\.. #
#                          \..\COMPONENTS\MAC\LOW_LEVEL\srf04\SINGLE_CHIP\    #
#                          -On --require_prototypes                           #
#    List file          =  C:\Users\ArnoldWorkStation\Desktop\ZigbeeTest\Proj #
#                          ects\zstack\Samples\SampleApp\CC2530DB\Coordinator #
#                          EB-Pro\List\ZMain.lst                              #
#    Object file        =  C:\Users\ArnoldWorkStation\Desktop\ZigbeeTest\Proj #
#                          ects\zstack\Samples\SampleApp\CC2530DB\Coordinator #
#                          EB-Pro\Obj\ZMain.r51                               #
#                                                                             #
#                                                                             #
###############################################################################

C:\Users\ArnoldWorkStation\Desktop\ZigbeeTest\Projects\zstack\ZMain\TI2530DB\ZMain.c
      1          /**************************************************************************************************
      2            Filename:       ZMain.c
      3            Revised:        $Date: 2009-09-17 20:35:33 -0700 (Thu, 17 Sep 2009) $
      4            Revision:       $Revision: 20782 $
      5          
      6            Description:    Startup and shutdown code for ZStack
      7            Notes:          This version targets the Chipcon CC2530
      8          
      9          
     10            Copyright 2005-2009 Texas Instruments Incorporated. All rights reserved.
     11          
     12            IMPORTANT: Your use of this Software is limited to those specific rights
     13            granted under the terms of a software license agreement between the user
     14            who downloaded the software, his/her employer (which must be your employer)
     15            and Texas Instruments Incorporated (the "License").  You may not use this
     16            Software unless you agree to abide by the terms of the License. The License
     17            limits your use, and you acknowledge, that the Software may not be modified,
     18            copied or distributed unless embedded on a Texas Instruments microcontroller
     19            or used solely and exclusively in conjunction with a Texas Instruments radio
     20            frequency transceiver, which is integrated into your product.  Other than for
     21            the foregoing purpose, you may not use, reproduce, copy, prepare derivative
     22            works of, modify, distribute, perform, display or sell this Software and/or
     23            its documentation for any purpose.
     24          
     25            YOU FURTHER ACKNOWLEDGE AND AGREE THAT THE SOFTWARE AND DOCUMENTATION ARE
     26            PROVIDED “AS IS” WITHOUT WARRANTY OF ANY KIND, EITHER EXPRESS OR IMPLIED,
     27            INCLUDING WITHOUT LIMITATION, ANY WARRANTY OF MERCHANTABILITY, TITLE,
     28            NON-INFRINGEMENT AND FITNESS FOR A PARTICULAR PURPOSE. IN NO EVENT SHALL
     29            TEXAS INSTRUMENTS OR ITS LICENSORS BE LIABLE OR OBLIGATED UNDER CONTRACT,
     30            NEGLIGENCE, STRICT LIABILITY, CONTRIBUTION, BREACH OF WARRANTY, OR OTHER
     31            LEGAL EQUITABLE THEORY ANY DIRECT OR INDIRECT DAMAGES OR EXPENSES
     32            INCLUDING BUT NOT LIMITED TO ANY INCIDENTAL, SPECIAL, INDIRECT, PUNITIVE
     33            OR CONSEQUENTIAL DAMAGES, LOST PROFITS OR LOST DATA, COST OF PROCUREMENT
     34            OF SUBSTITUTE GOODS, TECHNOLOGY, SERVICES, OR ANY CLAIMS BY THIRD PARTIES
     35            (INCLUDING BUT NOT LIMITED TO ANY DEFENSE THEREOF), OR OTHER SIMILAR COSTS.
     36          
     37            Should you have any questions regarding your right to use this Software,
     38            contact Texas Instruments Incorporated at www.TI.com.
     39          **************************************************************************************************/
     40          
     41          /*********************************************************************
     42           * INCLUDES
     43           */
     44          
     45          #include "ZComDef.h"
     46          #include "OSAL.h"
     47          #include "OSAL_Nv.h"
     48          #include "OnBoard.h"

   \                                 In  segment SFR_AN, at 0x8f
   \   unsigned char volatile __sfr P0INP
   \                     P0INP:
   \   000000                DS 1

   \                                 In  segment SFR_AN, at 0x90
   \   union <unnamed> volatile __sfr _A_P1
   \                     _A_P1:
   \   000000                DS 1

   \                                 In  segment SFR_AN, at 0x9d
   \   unsigned char volatile __sfr SLEEPSTA
   \                     SLEEPSTA:
   \   000000                DS 1

   \                                 In  segment SFR_AN, at 0x9e
   \   unsigned char volatile __sfr CLKCONSTA
   \                     CLKCONSTA:
   \   000000                DS 1

   \                                 In  segment SFR_AN, at 0xbe
   \   unsigned char volatile __sfr SLEEPCMD
   \                     SLEEPCMD:
   \   000000                DS 1

   \                                 In  segment SFR_AN, at 0xc6
   \   unsigned char volatile __sfr CLKCONCMD
   \                     CLKCONCMD:
   \   000000                DS 1

   \                                 In  segment SFR_AN, at 0xfd
   \   unsigned char volatile __sfr P0DIR
   \                     P0DIR:
   \   000000                DS 1

   \                                 In  segment SFR_AN, at 0xfe
   \   unsigned char volatile __sfr P1DIR
   \                     P1DIR:
   \   000000                DS 1
     49          #include "ZMAC.h"
     50          
     51          #ifndef NONWK
     52            #include "AF.h"
     53          #endif
     54          
     55          /* Hal */
     56          #include "hal_lcd.h"
     57          #include "hal_led.h"
     58          #include "hal_adc.h"
     59          #include "hal_drivers.h"
     60          #include "hal_assert.h"
     61          #include "hal_flash.h"
     62          
     63          /*********************************************************************
     64           * MACROS
     65           */
     66          
     67          /*********************************************************************
     68           * CONSTANTS
     69           */
     70          
     71          // Maximun number of Vdd samples checked before go on
     72          #define MAX_VDD_SAMPLES  3
     73          #define ZMAIN_VDD_LIMIT  HAL_ADC_VDD_LIMIT_4
     74          
     75          /*********************************************************************
     76           * TYPEDEFS
     77           */
     78          
     79          /*********************************************************************
     80           * GLOBAL VARIABLES
     81           */
     82          
     83          /*********************************************************************
     84           * EXTERNAL VARIABLES
     85           */
     86          
     87          /*********************************************************************
     88           * EXTERNAL FUNCTIONS
     89           */
     90          
     91          extern bool HalAdcCheckVdd (uint8 limit);
     92          
     93          /*********************************************************************
     94           * LOCAL VARIABLES
     95           */
     96          
     97          /*********************************************************************
     98           * LOCAL FUNCTIONS
     99           */
    100          
    101          static void zmain_dev_info( void );
    102          static void zmain_ext_addr( void );
    103          static void zmain_vdd_check( void );
    104          
    105          #ifdef LCD_SUPPORTED
    106          static void zmain_lcd_init( void );
    107          #endif
    108          
    109          /*********************************************************************
    110           * @fn      main
    111           * @brief   First function called after startup.
    112           * @return  don't care
    113           */

   \                                 In  segment BANKED_CODE, align 1, keep-with-next
    114          int main( void )
   \                     main:
    115          {
   \   000000                ; Auto size: 0
    116            // Turn off interrupts
    117            osal_int_disable( INTS_ALL );
   \   000000                ; Setup parameters for call to function osal_int_disable
   \   000000   79FF         MOV     R1,#-0x1
   \   000002   12....       LCALL   ??osal_int_disable?relay
   \   000005   E9           MOV     A,R1
    118          
    119            // Initialization for board related stuff such as LEDs
    120            HAL_BOARD_INIT();
   \   000006   53BEFB       ANL     0xbe,#0xfb
   \                     ??main_0:
   \   000009   E59D         MOV     A,0x9d
   \   00000B   A2E6         MOV     C,0xE0 /* A   */.6
   \   00000D   50FA         JNC     ??main_0
   \   00000F   00           NOP
   \   000010   7E00         MOV     R6,#0x0
   \   000012   7F00         MOV     R7,#0x0
   \                     ??main_1:
   \   000014   C3           CLR     C
   \   000015   EE           MOV     A,R6
   \   000016   94F8         SUBB    A,#-0x8
   \   000018   EF           MOV     A,R7
   \   000019   9401         SUBB    A,#0x1
   \   00001B   500B         JNC     ??main_2
   \   00001D   00           NOP
   \   00001E   EE           MOV     A,R6
   \   00001F   2401         ADD     A,#0x1
   \   000021   FE           MOV     R6,A
   \   000022   EF           MOV     A,R7
   \   000023   3400         ADDC    A,#0x0
   \   000025   FF           MOV     R7,A
   \   000026   80EC         SJMP    ??main_1
   \                     ??main_2:
   \   000028   75C600       MOV     0xc6,#0x0
   \                     ??main_3:
   \   00002B   E59E         MOV     A,0x9e
   \   00002D   70FC         JNZ     ??main_3
   \   00002F   43BE04       ORL     0xbe,#0x4
   \   000032   906270       MOV     DPTR,#0x6270
   \   000035   7408         MOV     A,#0x8
   \   000037   F0           MOVX    @DPTR,A
   \   000038   43FE01       ORL     0xfe,#0x1
   \   00003B   43FE02       ORL     0xfe,#0x2
   \   00003E   43FD10       ORL     0xfd,#0x10
   \   000041   438F01       ORL     0x8f,#0x1
    121          
    122            // Make sure supply voltage is high enough to run
    123            zmain_vdd_check();
   \   000044                ; Setup parameters for call to function zmain_vdd_check
   \   000044   12....       LCALL   ??zmain_vdd_check?relay
    124          
    125            // Initialize board I/O
    126            InitBoard( OB_COLD );
   \   000047                ; Setup parameters for call to function InitBoard
   \   000047   7900         MOV     R1,#0x0
   \   000049   12....       LCALL   ??InitBoard?relay
    127          
    128            // Initialze HAL drivers
    129            HalDriverInit();
   \   00004C                ; Setup parameters for call to function HalDriverInit
   \   00004C   12....       LCALL   ??HalDriverInit?relay
    130          
    131            // Initialize NV System
    132            osal_nv_init( NULL );
   \   00004F                ; Setup parameters for call to function osal_nv_init
   \   00004F   7A00         MOV     R2,#0x0
   \   000051   7B00         MOV     R3,#0x0
   \   000053   12....       LCALL   ??osal_nv_init?relay
    133          
    134            // Initialize the MAC
    135            ZMacInit();
   \   000056                ; Setup parameters for call to function ZMacInit
   \   000056   12....       LCALL   ??ZMacInit?relay
   \   000059   E9           MOV     A,R1
    136          
    137            // Determine the extended address
    138            zmain_ext_addr();
   \   00005A                ; Setup parameters for call to function zmain_ext_addr
   \   00005A   12....       LCALL   ??zmain_ext_addr?relay
    139          
    140            // Initialize basic NV items
    141            zgInit();
   \   00005D                ; Setup parameters for call to function zgInit
   \   00005D   12....       LCALL   ??zgInit?relay
   \   000060   E9           MOV     A,R1
    142          
    143          #ifndef NONWK
    144            // Since the AF isn't a task, call it's initialization routine
    145            afInit();
   \   000061                ; Setup parameters for call to function afInit
   \   000061   12....       LCALL   ??afInit?relay
    146          #endif
    147          
    148            // Initialize the operating system
    149            osal_init_system();
   \   000064                ; Setup parameters for call to function osal_init_system
   \   000064   12....       LCALL   ??osal_init_system?relay
   \   000067   E9           MOV     A,R1
    150          
    151            // Allow interrupts
    152            osal_int_enable( INTS_ALL );
   \   000068                ; Setup parameters for call to function osal_int_enable
   \   000068   79FF         MOV     R1,#-0x1
   \   00006A   12....       LCALL   ??osal_int_enable?relay
   \   00006D   E9           MOV     A,R1
    153          
    154            // Final board initialization
    155            InitBoard( OB_READY );
   \   00006E                ; Setup parameters for call to function InitBoard
   \   00006E   7902         MOV     R1,#0x2
   \   000070   12....       LCALL   ??InitBoard?relay
    156          
    157            // Display information about this device
    158            zmain_dev_info();
   \   000073                ; Setup parameters for call to function zmain_dev_info
   \   000073   12....       LCALL   ??zmain_dev_info?relay
    159          
    160            /* Display the device info on the LCD */
    161          #ifdef LCD_SUPPORTED
    162            zmain_lcd_init();
   \   000076                ; Setup parameters for call to function zmain_lcd_init
   \   000076   12....       LCALL   ??zmain_lcd_init?relay
    163          #endif
    164          
    165          #ifdef WDT_IN_PM1
    166            /* If WDT is used, this is a good place to enable it. */
    167            WatchDogEnable( WDTIMX );
    168          #endif
    169          
    170            osal_start_system(); // No Return from here
   \   000079                ; Setup parameters for call to function osal_start_system
   \   000079   12....       LCALL   ??osal_start_system?relay
    171          
    172            return 0;  // Shouldn't get here.
   \   00007C   7A00         MOV     R2,#0x0
   \   00007E   7B00         MOV     R3,#0x0
   \   000080   02....       LJMP    ?BRET
   \   000083                REQUIRE SLEEPCMD
   \   000083                REQUIRE SLEEPSTA
   \   000083                REQUIRE CLKCONCMD
   \   000083                REQUIRE CLKCONSTA
   \   000083                REQUIRE P1DIR
   \   000083                REQUIRE P0DIR
   \   000083                REQUIRE P0INP
    173          } // main()
    174          
    175          /*********************************************************************
    176           * @fn      zmain_vdd_check
    177           * @brief   Check if the Vdd is OK to run the processor.
    178           * @return  Return if Vdd is ok; otherwise, flash LED, then reset
    179           *********************************************************************/

   \                                 In  segment BANKED_CODE, align 1, keep-with-next
    180          static void zmain_vdd_check( void )
   \                     zmain_vdd_check:
    181          {
   \   000000   74F7         MOV     A,#-0x9
   \   000002   12....       LCALL   ?BANKED_ENTER_XDATA
   \   000005                ; Saved register size: 9
   \   000005                ; Auto size: 0
    182            uint8 vdd_passed_count = 0;
   \   000005   7E00         MOV     R6,#0x0
    183            bool toggle = 0;
   \   000007   7F00         MOV     R7,#0x0
    184          
    185            // Repeat getting the sample until number of failures or successes hits MAX
    186            // then based on the count value, determine if the device is ready or not
    187            while ( vdd_passed_count < MAX_VDD_SAMPLES )
   \                     ??zmain_vdd_check_0:
   \   000009   EE           MOV     A,R6
   \   00000A   C3           CLR     C
   \   00000B   9403         SUBB    A,#0x3
   \   00000D   504C         JNC     ??zmain_vdd_check_1
    188            {
    189              if ( HalAdcCheckVdd (ZMAIN_VDD_LIMIT) )
   \   00000F                ; Setup parameters for call to function HalAdcCheckVdd
   \   00000F   7904         MOV     R1,#0x4
   \   000011   12....       LCALL   ??HalAdcCheckVdd?relay
   \   000014   E9           MOV     A,R1
   \   000015   600A         JZ      ??zmain_vdd_check_2
    190              {
    191                vdd_passed_count++;    // Keep track # times Vdd passes in a row
   \   000017   0E           INC     R6
    192                MicroWait (10000);     // Wait 10ms to try again
   \   000018                ; Setup parameters for call to function Onboard_wait
   \   000018   7A10         MOV     R2,#0x10
   \   00001A   7B27         MOV     R3,#0x27
   \   00001C   12....       LCALL   ??Onboard_wait?relay
   \   00001F   8010         SJMP    ??zmain_vdd_check_3
    193              }
    194              else
    195              {
    196                vdd_passed_count = 0;  // Reset passed counter
   \                     ??zmain_vdd_check_2:
   \   000021   7E00         MOV     R6,#0x0
    197                MicroWait (50000);     // Wait 50ms
   \   000023                ; Setup parameters for call to function Onboard_wait
   \   000023   7A50         MOV     R2,#0x50
   \   000025   7BC3         MOV     R3,#-0x3d
   \   000027   12....       LCALL   ??Onboard_wait?relay
    198                MicroWait (50000);     // Wait another 50ms to try again
   \   00002A                ; Setup parameters for call to function Onboard_wait
   \   00002A   7A50         MOV     R2,#0x50
   \   00002C   7BC3         MOV     R3,#-0x3d
   \   00002E   12....       LCALL   ??Onboard_wait?relay
    199              }
    200          
    201              /* toggle LED1 and LED2 */
    202              if (vdd_passed_count == 0)
   \                     ??zmain_vdd_check_3:
   \   000031   EE           MOV     A,R6
   \   000032   70D5         JNZ     ??zmain_vdd_check_0
    203              {
    204                if ((toggle = !(toggle)))
   \   000034   EF           MOV     A,R7
   \   000035   7004         JNZ     ??zmain_vdd_check_4
   \   000037   7401         MOV     A,#0x1
   \   000039   8002         SJMP    ??zmain_vdd_check_5
   \                     ??zmain_vdd_check_4:
   \   00003B   7400         MOV     A,#0x0
   \                     ??zmain_vdd_check_5:
   \   00003D   F8           MOV     R0,A
   \   00003E   E8           MOV     A,R0
   \   00003F   FF           MOV     R7,A
   \   000040   E8           MOV     A,R0
   \   000041   600C         JZ      ??zmain_vdd_check_6
    205                  HAL_TOGGLE_LED1();
   \   000043   A290         MOV     C,0x90.0
   \   000045   5004         JNC     ??zmain_vdd_check_7
   \   000047   C290         CLR     0x90.0
   \   000049   80BE         SJMP    ??zmain_vdd_check_0
   \                     ??zmain_vdd_check_7:
   \   00004B   D290         SETB    0x90.0
   \   00004D   80BA         SJMP    ??zmain_vdd_check_0
    206                else
    207                  HAL_TOGGLE_LED2();
   \                     ??zmain_vdd_check_6:
   \   00004F   A291         MOV     C,0x90.1
   \   000051   5004         JNC     ??zmain_vdd_check_8
   \   000053   C291         CLR     0x90.1
   \   000055   80B2         SJMP    ??zmain_vdd_check_0
   \                     ??zmain_vdd_check_8:
   \   000057   D291         SETB    0x90.1
   \   000059   80AE         SJMP    ??zmain_vdd_check_0
    208              }
    209            }
    210          
    211            /* turn off LED1 */
    212            HAL_TURN_OFF_LED1();
   \                     ??zmain_vdd_check_1:
   \   00005B   C290         CLR     0x90.0
    213            HAL_TURN_OFF_LED2();
   \   00005D   C291         CLR     0x90.1
    214          }
   \   00005F   7F01         MOV     R7,#0x1
   \   000061   02....       LJMP    ?BANKED_LEAVE_XDATA
   \   000064                REQUIRE _A_P1
    215          
    216          /**************************************************************************************************
    217           * @fn          zmain_ext_addr
    218           *
    219           * @brief       Execute a prioritized search for a valid extended address and write the results
    220           *              into the OSAL NV system for use by the system. Temporary address not saved to NV.
    221           *
    222           * input parameters
    223           *
    224           * None.
    225           *
    226           * output parameters
    227           *
    228           * None.
    229           *
    230           * @return      None.
    231           **************************************************************************************************
    232           */

   \                                 In  segment BANKED_CODE, align 1, keep-with-next
    233          static void zmain_ext_addr(void)
   \                     zmain_ext_addr:
    234          {
   \   000000   74F5         MOV     A,#-0xb
   \   000002   12....       LCALL   ?BANKED_ENTER_XDATA
   \   000005                ; Saved register size: 11
   \   000005                ; Auto size: 8
   \   000005   74F8         MOV     A,#-0x8
   \   000007   12....       LCALL   ?ALLOC_XSTACK8
    235            uint8 nullAddr[Z_EXTADDR_LEN] = {0xFF, 0xFF, 0xFF, 0xFF, 0xFF, 0xFF, 0xFF, 0xFF};
   \   00000A   90....       MOV     DPTR,#`?<Constant {255, 255, 255, 255, 255, 255, 255,`
   \   00000D   C082         PUSH    DPL
   \   00000F   C083         PUSH    DPH
   \   000011   85..82       MOV     DPL,?XSP + 0
   \   000014   85..83       MOV     DPH,?XSP + 1
   \   000017   AC82         MOV     R4,DPL
   \   000019   AD83         MOV     R5,DPH
   \   00001B   D083         POP     DPH
   \   00001D   D082         POP     DPL
   \   00001F   7408         MOV     A,#0x8
   \   000021   12....       LCALL   ?MOVE_LONG8_XDATA_XDATA
    236            uint8 writeNV = TRUE;
   \   000024   7E01         MOV     R6,#0x1
    237          
    238            // First check whether a non-erased extended address exists in the OSAL NV.
    239            if ((SUCCESS != osal_nv_item_init(ZCD_NV_EXTADDR, Z_EXTADDR_LEN, NULL))  ||
    240                (SUCCESS != osal_nv_read(ZCD_NV_EXTADDR, 0, Z_EXTADDR_LEN, aExtendedAddress)) ||
    241                (osal_memcmp(aExtendedAddress, nullAddr, Z_EXTADDR_LEN)))
   \   000026                ; Setup parameters for call to function osal_nv_item_init
   \   000026   E4           CLR     A
   \   000027   F5..         MOV     ?V0 + 0,A
   \   000029   F5..         MOV     ?V0 + 1,A
   \   00002B   78..         MOV     R0,#?V0 + 0
   \   00002D   12....       LCALL   ?PUSH_XSTACK_I_TWO
   \   000030   7C08         MOV     R4,#0x8
   \   000032   7D00         MOV     R5,#0x0
   \   000034   7A01         MOV     R2,#0x1
   \   000036   7B00         MOV     R3,#0x0
   \   000038   12....       LCALL   ??osal_nv_item_init?relay
   \   00003B   7402         MOV     A,#0x2
   \   00003D   12....       LCALL   ?DEALLOC_XSTACK8
   \   000040   E9           MOV     A,R1
   \   000041   7058         JNZ     ??zmain_ext_addr_0
   \   000043                ; Setup parameters for call to function osal_nv_read
   \   000043   75....       MOV     ?V0 + 0,#aExtendedAddress & 0xff
   \   000046   75....       MOV     ?V0 + 1,#(aExtendedAddress >> 8) & 0xff
   \   000049   78..         MOV     R0,#?V0 + 0
   \   00004B   12....       LCALL   ?PUSH_XSTACK_I_TWO
   \   00004E   75..08       MOV     ?V0 + 0,#0x8
   \   000051   75..00       MOV     ?V0 + 1,#0x0
   \   000054   78..         MOV     R0,#?V0 + 0
   \   000056   12....       LCALL   ?PUSH_XSTACK_I_TWO
   \   000059   7C00         MOV     R4,#0x0
   \   00005B   7D00         MOV     R5,#0x0
   \   00005D   7A01         MOV     R2,#0x1
   \   00005F   7B00         MOV     R3,#0x0
   \   000061   12....       LCALL   ??osal_nv_read?relay
   \   000064   7404         MOV     A,#0x4
   \   000066   12....       LCALL   ?DEALLOC_XSTACK8
   \   000069   E9           MOV     A,R1
   \   00006A   702F         JNZ     ??zmain_ext_addr_0
   \   00006C                ; Setup parameters for call to function osal_memcmp
   \   00006C   85..82       MOV     DPL,?XSP + 0
   \   00006F   85..83       MOV     DPH,?XSP + 1
   \   000072   A982         MOV     R1,DPL
   \   000074   AA83         MOV     R2,DPH
   \   000076   7B00         MOV     R3,#0x0
   \   000078   89..         MOV     ?V0 + 0,R1
   \   00007A   8A..         MOV     ?V0 + 1,R2
   \   00007C   8B..         MOV     ?V0 + 2,R3
   \   00007E   78..         MOV     R0,#?V0 + 0
   \   000080   12....       LCALL   ?PUSH_XSTACK_I_THREE
   \   000083   7C08         MOV     R4,#0x8
   \   000085   7D00         MOV     R5,#0x0
   \   000087   79..         MOV     R1,#aExtendedAddress & 0xff
   \   000089   7A..         MOV     R2,#(aExtendedAddress >> 8) & 0xff
   \   00008B   7B00         MOV     R3,#0x0
   \   00008D   12....       LCALL   ??osal_memcmp?relay
   \   000090   7403         MOV     A,#0x3
   \   000092   12....       LCALL   ?DEALLOC_XSTACK8
   \   000095   E9           MOV     A,R1
   \   000096   7003         JNZ     $+5
   \   000098   02....       LJMP    ??zmain_ext_addr_1 & 0xFFFF
    242            {
    243              // Attempt to read the extended address from the location on the lock bits page
    244              // where the programming tools know to reserve it.
    245              HalFlashRead(HAL_FLASH_IEEE_PAGE, HAL_FLASH_IEEE_OSET, aExtendedAddress, Z_EXTADDR_LEN);
   \                     ??zmain_ext_addr_0:
   \   00009B                ; Setup parameters for call to function HalFlashRead
   \   00009B   75..08       MOV     ?V0 + 0,#0x8
   \   00009E   75..00       MOV     ?V0 + 1,#0x0
   \   0000A1   78..         MOV     R0,#?V0 + 0
   \   0000A3   12....       LCALL   ?PUSH_XSTACK_I_TWO
   \   0000A6   7C..         MOV     R4,#aExtendedAddress & 0xff
   \   0000A8   7D..         MOV     R5,#(aExtendedAddress >> 8) & 0xff
   \   0000AA   7AE8         MOV     R2,#-0x18
   \   0000AC   7B07         MOV     R3,#0x7
   \   0000AE   797F         MOV     R1,#0x7f
   \   0000B0   12....       LCALL   ??HalFlashRead?relay
   \   0000B3   7402         MOV     A,#0x2
   \   0000B5   12....       LCALL   ?DEALLOC_XSTACK8
    246          
    247              if (osal_memcmp(aExtendedAddress, nullAddr, Z_EXTADDR_LEN))
   \   0000B8                ; Setup parameters for call to function osal_memcmp
   \   0000B8   85..82       MOV     DPL,?XSP + 0
   \   0000BB   85..83       MOV     DPH,?XSP + 1
   \   0000BE   A982         MOV     R1,DPL
   \   0000C0   AA83         MOV     R2,DPH
   \   0000C2   7B00         MOV     R3,#0x0
   \   0000C4   89..         MOV     ?V0 + 0,R1
   \   0000C6   8A..         MOV     ?V0 + 1,R2
   \   0000C8   8B..         MOV     ?V0 + 2,R3
   \   0000CA   78..         MOV     R0,#?V0 + 0
   \   0000CC   12....       LCALL   ?PUSH_XSTACK_I_THREE
   \   0000CF   7C08         MOV     R4,#0x8
   \   0000D1   7D00         MOV     R5,#0x0
   \   0000D3   79..         MOV     R1,#aExtendedAddress & 0xff
   \   0000D5   7A..         MOV     R2,#(aExtendedAddress >> 8) & 0xff
   \   0000D7   7B00         MOV     R3,#0x0
   \   0000D9   12....       LCALL   ??osal_memcmp?relay
   \   0000DC   7403         MOV     A,#0x3
   \   0000DE   12....       LCALL   ?DEALLOC_XSTACK8
   \   0000E1   E9           MOV     A,R1
   \   0000E2   7003         JNZ     $+5
   \   0000E4   02....       LJMP    ??zmain_ext_addr_2 & 0xFFFF
    248              {
    249                // Attempt to read the extended address from the designated location in the Info Page.
    250                if (!osal_memcmp((uint8 *)(P_INFOPAGE+HAL_INFOP_IEEE_OSET), nullAddr, Z_EXTADDR_LEN))
   \   0000E7                ; Setup parameters for call to function osal_memcmp
   \   0000E7   85..82       MOV     DPL,?XSP + 0
   \   0000EA   85..83       MOV     DPH,?XSP + 1
   \   0000ED   A982         MOV     R1,DPL
   \   0000EF   AA83         MOV     R2,DPH
   \   0000F1   7B00         MOV     R3,#0x0
   \   0000F3   89..         MOV     ?V0 + 0,R1
   \   0000F5   8A..         MOV     ?V0 + 1,R2
   \   0000F7   8B..         MOV     ?V0 + 2,R3
   \   0000F9   78..         MOV     R0,#?V0 + 0
   \   0000FB   12....       LCALL   ?PUSH_XSTACK_I_THREE
   \   0000FE   7C08         MOV     R4,#0x8
   \   000100   7D00         MOV     R5,#0x0
   \   000102   790C         MOV     R1,#0xc
   \   000104   7A78         MOV     R2,#0x78
   \   000106   7B00         MOV     R3,#0x0
   \   000108   12....       LCALL   ??osal_memcmp?relay
   \   00010B   7403         MOV     A,#0x3
   \   00010D   12....       LCALL   ?DEALLOC_XSTACK8
   \   000110   E9           MOV     A,R1
   \   000111   7020         JNZ     ??zmain_ext_addr_3
    251                {
    252                  osal_memcpy(aExtendedAddress, (uint8 *)(P_INFOPAGE+HAL_INFOP_IEEE_OSET), Z_EXTADDR_LEN);
   \   000113                ; Setup parameters for call to function osal_memcpy
   \   000113   75..0C       MOV     ?V0 + 0,#0xc
   \   000116   75..78       MOV     ?V0 + 1,#0x78
   \   000119   75..00       MOV     ?V0 + 2,#0x0
   \   00011C   78..         MOV     R0,#?V0 + 0
   \   00011E   12....       LCALL   ?PUSH_XSTACK_I_THREE
   \   000121   7C08         MOV     R4,#0x8
   \   000123   7D00         MOV     R5,#0x0
   \   000125   7A..         MOV     R2,#aExtendedAddress & 0xff
   \   000127   7B..         MOV     R3,#(aExtendedAddress >> 8) & 0xff
   \   000129   12....       LCALL   ??osal_memcpy?relay
   \   00012C   7403         MOV     A,#0x3
   \   00012E   12....       LCALL   ?DEALLOC_XSTACK8
   \   000131   8072         SJMP    ??zmain_ext_addr_2
    253                }
    254                else  // No valid extended address was found.
    255                {
    256                  uint8 idx;
    257                  
    258          #if !defined ( NV_RESTORE )
    259                  writeNV = FALSE;  // Make this a temporary IEEE address
   \                     ??zmain_ext_addr_3:
   \   000133   7E00         MOV     R6,#0x0
    260          #endif
    261          
    262                  /* Attempt to create a sufficiently random extended address for expediency.
    263                   * Note: this is only valid/legal in a test environment and
    264                   *       must never be used for a commercial product.
    265                   */
    266                  for (idx = 0; idx < (Z_EXTADDR_LEN - 2);)
   \   000135   7F00         MOV     R7,#0x0
   \                     ??zmain_ext_addr_4:
   \   000137   EF           MOV     A,R7
   \   000138   C3           CLR     C
   \   000139   9406         SUBB    A,#0x6
   \   00013B   503F         JNC     ??zmain_ext_addr_5
    267                  {
    268                    uint16 randy = osal_rand();
   \   00013D                ; Setup parameters for call to function osal_rand
   \   00013D   12....       LCALL   ??osal_rand?relay
   \   000140   8A..         MOV     ?V0 + 0,R2
   \   000142   8B..         MOV     ?V0 + 1,R3
   \   000144   A8..         MOV     R0,?V0 + 0
   \   000146   A9..         MOV     R1,?V0 + 1
    269                    aExtendedAddress[idx++] = LO_UINT16(randy);
   \   000148   E8           MOV     A,R0
   \   000149   C0E0         PUSH    A
   \   00014B   8F..         MOV     ?V0 + 0,R7
   \   00014D   75..00       MOV     ?V0 + 1,#0x0
   \   000150   74..         MOV     A,#aExtendedAddress & 0xff
   \   000152   25..         ADD     A,?V0 + 0
   \   000154   F582         MOV     DPL,A
   \   000156   74..         MOV     A,#(aExtendedAddress >> 8) & 0xff
   \   000158   35..         ADDC    A,?V0 + 1
   \   00015A   F583         MOV     DPH,A
   \   00015C   D0E0         POP     A
   \   00015E   F0           MOVX    @DPTR,A
   \   00015F   0F           INC     R7
    270                    aExtendedAddress[idx++] = HI_UINT16(randy);
   \   000160   E4           CLR     A
   \   000161   E9           MOV     A,R1
   \   000162   F8           MOV     R0,A
   \   000163   C0E0         PUSH    A
   \   000165   8F..         MOV     ?V0 + 0,R7
   \   000167   75..00       MOV     ?V0 + 1,#0x0
   \   00016A   74..         MOV     A,#aExtendedAddress & 0xff
   \   00016C   25..         ADD     A,?V0 + 0
   \   00016E   F582         MOV     DPL,A
   \   000170   74..         MOV     A,#(aExtendedAddress >> 8) & 0xff
   \   000172   35..         ADDC    A,?V0 + 1
   \   000174   F583         MOV     DPH,A
   \   000176   D0E0         POP     A
   \   000178   F0           MOVX    @DPTR,A
   \   000179   0F           INC     R7
   \   00017A   80BB         SJMP    ??zmain_ext_addr_4
    271                  }
    272                  // Next-to-MSB identifies ZigBee devicetype.
    273          #if ZG_BUILD_COORDINATOR_TYPE && !ZG_BUILD_JOINING_TYPE
    274                  aExtendedAddress[idx++] = 0x10;
   \                     ??zmain_ext_addr_5:
   \   00017C   8F..         MOV     ?V0 + 0,R7
   \   00017E   75..00       MOV     ?V0 + 1,#0x0
   \   000181   74..         MOV     A,#aExtendedAddress & 0xff
   \   000183   25..         ADD     A,?V0 + 0
   \   000185   F582         MOV     DPL,A
   \   000187   74..         MOV     A,#(aExtendedAddress >> 8) & 0xff
   \   000189   35..         ADDC    A,?V0 + 1
   \   00018B   F583         MOV     DPH,A
   \   00018D   7410         MOV     A,#0x10
   \   00018F   F0           MOVX    @DPTR,A
   \   000190   0F           INC     R7
    275          #elif ZG_BUILD_RTRONLY_TYPE
    276                  aExtendedAddress[idx++] = 0x20;
    277          #else
    278                  aExtendedAddress[idx++] = 0x30;
    279          #endif
    280                  // MSB has historical signficance.
    281                  aExtendedAddress[idx] = 0xF8;
   \   000191   8F..         MOV     ?V0 + 0,R7
   \   000193   75..00       MOV     ?V0 + 1,#0x0
   \   000196   74..         MOV     A,#aExtendedAddress & 0xff
   \   000198   25..         ADD     A,?V0 + 0
   \   00019A   F582         MOV     DPL,A
   \   00019C   74..         MOV     A,#(aExtendedAddress >> 8) & 0xff
   \   00019E   35..         ADDC    A,?V0 + 1
   \   0001A0   F583         MOV     DPH,A
   \   0001A2   74F8         MOV     A,#-0x8
   \   0001A4   F0           MOVX    @DPTR,A
    282                }
    283              }
    284          
    285              if (writeNV)
   \                     ??zmain_ext_addr_2:
   \   0001A5   EE           MOV     A,R6
   \   0001A6   6027         JZ      ??zmain_ext_addr_1
    286              {
    287                (void)osal_nv_write(ZCD_NV_EXTADDR, 0, Z_EXTADDR_LEN, aExtendedAddress);
   \   0001A8                ; Setup parameters for call to function osal_nv_write
   \   0001A8   75....       MOV     ?V0 + 0,#aExtendedAddress & 0xff
   \   0001AB   75....       MOV     ?V0 + 1,#(aExtendedAddress >> 8) & 0xff
   \   0001AE   78..         MOV     R0,#?V0 + 0
   \   0001B0   12....       LCALL   ?PUSH_XSTACK_I_TWO
   \   0001B3   75..08       MOV     ?V0 + 0,#0x8
   \   0001B6   75..00       MOV     ?V0 + 1,#0x0
   \   0001B9   78..         MOV     R0,#?V0 + 0
   \   0001BB   12....       LCALL   ?PUSH_XSTACK_I_TWO
   \   0001BE   7C00         MOV     R4,#0x0
   \   0001C0   7D00         MOV     R5,#0x0
   \   0001C2   7A01         MOV     R2,#0x1
   \   0001C4   7B00         MOV     R3,#0x0
   \   0001C6   12....       LCALL   ??osal_nv_write?relay
   \   0001C9   7404         MOV     A,#0x4
   \   0001CB   12....       LCALL   ?DEALLOC_XSTACK8
   \   0001CE   E9           MOV     A,R1
    288              }
    289            }
    290          
    291            // Set the MAC PIB extended address according to results from above.
    292            (void)ZMacSetReq(MAC_EXTENDED_ADDRESS, aExtendedAddress);
   \                     ??zmain_ext_addr_1:
   \   0001CF                ; Setup parameters for call to function ZMacSetReq
   \   0001CF   7A..         MOV     R2,#aExtendedAddress & 0xff
   \   0001D1   7B..         MOV     R3,#(aExtendedAddress >> 8) & 0xff
   \   0001D3   79E2         MOV     R1,#-0x1e
   \   0001D5   12....       LCALL   ??ZMacSetReq?relay
   \   0001D8   E9           MOV     A,R1
    293          }
   \   0001D9   7408         MOV     A,#0x8
   \   0001DB   12....       LCALL   ?DEALLOC_XSTACK8
   \   0001DE   7F03         MOV     R7,#0x3
   \   0001E0   02....       LJMP    ?BANKED_LEAVE_XDATA
    294          
    295          /**************************************************************************************************
    296           * @fn          zmain_dev_info
    297           *
    298           * @brief       This displays the IEEE (MSB to LSB) on the LCD.
    299           *
    300           * input parameters
    301           *
    302           * None.
    303           *
    304           * output parameters
    305           *
    306           * None.
    307           *
    308           * @return      None.
    309           **************************************************************************************************
    310           */

   \                                 In  segment BANKED_CODE, align 1, keep-with-next
    311          static void zmain_dev_info(void)
   \                     zmain_dev_info:
    312          {
   \   000000   74F3         MOV     A,#-0xd
   \   000002   12....       LCALL   ?BANKED_ENTER_XDATA
   \   000005                ; Saved register size: 13
   \   000005                ; Auto size: 17
   \   000005   74EF         MOV     A,#-0x11
   \   000007   12....       LCALL   ?ALLOC_XSTACK8
    313          #ifdef LCD_SUPPORTED
    314            uint8 i;
    315            uint8 *xad;
    316            uint8 lcd_buf[Z_EXTADDR_LEN*2+1];
    317          
    318            // Display the extended address.
    319            xad = aExtendedAddress + Z_EXTADDR_LEN - 1;
   \   00000A   7E..         MOV     R6,#(aExtendedAddress + 7) & 0xff
   \   00000C   7F..         MOV     R7,#((aExtendedAddress + 7) >> 8) & 0xff
    320          
    321            for (i = 0; i < Z_EXTADDR_LEN*2; xad--)
   \   00000E   75..00       MOV     ?V0 + 2,#0x0
   \                     ??zmain_dev_info_0:
   \   000011   E5..         MOV     A,?V0 + 2
   \   000013   C3           CLR     C
   \   000014   9410         SUBB    A,#0x10
   \   000016   4003         JC      $+5
   \   000018   02....       LJMP    ??zmain_dev_info_1 & 0xFFFF
    322            {
    323              uint8 ch;
    324              ch = (*xad >> 4) & 0x0F;
   \   00001B   8E82         MOV     DPL,R6
   \   00001D   8F83         MOV     DPH,R7
   \   00001F   E0           MOVX    A,@DPTR
   \   000020   C4           SWAP    A
   \   000021   540F         ANL     A,#0xf
   \   000023   FA           MOV     R2,A
    325              lcd_buf[i++] = ch + (( ch < 10 ) ? '0' : '7');
   \   000024   85....       MOV     ?V0 + 3,?V0 + 2
   \   000027   7401         MOV     A,#0x1
   \   000029   25..         ADD     A,?V0 + 3
   \   00002B   F5..         MOV     ?V0 + 2,A
   \   00002D   EA           MOV     A,R2
   \   00002E   C3           CLR     C
   \   00002F   940A         SUBB    A,#0xa
   \   000031   5006         JNC     ??zmain_dev_info_2
   \   000033   7830         MOV     R0,#0x30
   \   000035   7900         MOV     R1,#0x0
   \   000037   8004         SJMP    ??zmain_dev_info_3
   \                     ??zmain_dev_info_2:
   \   000039   7837         MOV     R0,#0x37
   \   00003B   7900         MOV     R1,#0x0
   \                     ??zmain_dev_info_3:
   \   00003D   E8           MOV     A,R0
   \   00003E   2A           ADD     A,R2
   \   00003F   C0E0         PUSH    A
   \   000041   85....       MOV     ?V0 + 0,?V0 + 3
   \   000044   75..00       MOV     ?V0 + 1,#0x0
   \   000047   85..82       MOV     DPL,?XSP + 0
   \   00004A   85..83       MOV     DPH,?XSP + 1
   \   00004D   E582         MOV     A,DPL
   \   00004F   25..         ADD     A,?V0 + 0
   \   000051   F582         MOV     DPL,A
   \   000053   E583         MOV     A,DPH
   \   000055   35..         ADDC    A,?V0 + 1
   \   000057   F583         MOV     DPH,A
   \   000059   D0E0         POP     A
   \   00005B   F0           MOVX    @DPTR,A
    326              ch = *xad & 0x0F;
   \   00005C   8E82         MOV     DPL,R6
   \   00005E   8F83         MOV     DPH,R7
   \   000060   E0           MOVX    A,@DPTR
   \   000061   540F         ANL     A,#0xf
   \   000063   FA           MOV     R2,A
    327              lcd_buf[i++] = ch + (( ch < 10 ) ? '0' : '7');
   \   000064   85....       MOV     ?V0 + 4,?V0 + 2
   \   000067   7401         MOV     A,#0x1
   \   000069   25..         ADD     A,?V0 + 4
   \   00006B   F5..         MOV     ?V0 + 2,A
   \   00006D   EA           MOV     A,R2
   \   00006E   C3           CLR     C
   \   00006F   940A         SUBB    A,#0xa
   \   000071   5006         JNC     ??zmain_dev_info_4
   \   000073   7830         MOV     R0,#0x30
   \   000075   7900         MOV     R1,#0x0
   \   000077   8004         SJMP    ??zmain_dev_info_5
   \                     ??zmain_dev_info_4:
   \   000079   7837         MOV     R0,#0x37
   \   00007B   7900         MOV     R1,#0x0
   \                     ??zmain_dev_info_5:
   \   00007D   E8           MOV     A,R0
   \   00007E   2A           ADD     A,R2
   \   00007F   C0E0         PUSH    A
   \   000081   85....       MOV     ?V0 + 0,?V0 + 4
   \   000084   75..00       MOV     ?V0 + 1,#0x0
   \   000087   85..82       MOV     DPL,?XSP + 0
   \   00008A   85..83       MOV     DPH,?XSP + 1
   \   00008D   E582         MOV     A,DPL
   \   00008F   25..         ADD     A,?V0 + 0
   \   000091   F582         MOV     DPL,A
   \   000093   E583         MOV     A,DPH
   \   000095   35..         ADDC    A,?V0 + 1
   \   000097   F583         MOV     DPH,A
   \   000099   D0E0         POP     A
   \   00009B   F0           MOVX    @DPTR,A
    328            }
   \   00009C   EE           MOV     A,R6
   \   00009D   24FF         ADD     A,#-0x1
   \   00009F   F8           MOV     R0,A
   \   0000A0   EF           MOV     A,R7
   \   0000A1   34FF         ADDC    A,#-0x1
   \   0000A3   F9           MOV     R1,A
   \   0000A4   E8           MOV     A,R0
   \   0000A5   FE           MOV     R6,A
   \   0000A6   E9           MOV     A,R1
   \   0000A7   FF           MOV     R7,A
   \   0000A8   02....       LJMP    ??zmain_dev_info_0 & 0xFFFF
    329            lcd_buf[Z_EXTADDR_LEN*2] = '\0';
   \                     ??zmain_dev_info_1:
   \   0000AB   7410         MOV     A,#0x10
   \   0000AD   12....       LCALL   ?XSTACK_DISP0_8
   \   0000B0   7400         MOV     A,#0x0
   \   0000B2   F0           MOVX    @DPTR,A
    330            HalLcdWriteString( "IEEE: ", HAL_LCD_LINE_1 );
   \   0000B3                ; Setup parameters for call to function HalLcdWriteString
   \   0000B3   7901         MOV     R1,#0x1
   \   0000B5   7A..         MOV     R2,#`?<Constant "IEEE: ">` & 0xff
   \   0000B7   7B..         MOV     R3,#(`?<Constant "IEEE: ">` >> 8) & 0xff
   \   0000B9   12....       LCALL   ??HalLcdWriteString?relay
    331            HalLcdWriteString( (char*)lcd_buf, HAL_LCD_LINE_2 );
   \   0000BC                ; Setup parameters for call to function HalLcdWriteString
   \   0000BC   7902         MOV     R1,#0x2
   \   0000BE   85..82       MOV     DPL,?XSP + 0
   \   0000C1   85..83       MOV     DPH,?XSP + 1
   \   0000C4   AA82         MOV     R2,DPL
   \   0000C6   AB83         MOV     R3,DPH
   \   0000C8   12....       LCALL   ??HalLcdWriteString?relay
    332          #endif
    333          }
   \   0000CB   7411         MOV     A,#0x11
   \   0000CD   12....       LCALL   ?DEALLOC_XSTACK8
   \   0000D0   7F05         MOV     R7,#0x5
   \   0000D2   02....       LJMP    ?BANKED_LEAVE_XDATA
    334          
    335          #ifdef LCD_SUPPORTED
    336          /*********************************************************************
    337           * @fn      zmain_lcd_init
    338           * @brief   Initialize LCD at start up.
    339           * @return  none
    340           *********************************************************************/

   \                                 In  segment BANKED_CODE, align 1, keep-with-next
    341          static void zmain_lcd_init ( void )
   \                     zmain_lcd_init:
    342          {
   \   000000                ; Saved register size: 0
   \   000000                ; Auto size: 0
    343          #ifdef SERIAL_DEBUG_SUPPORTED
    344            {
    345              HalLcdWriteString( "TexasInstruments", HAL_LCD_LINE_1 );
    346          
    347          #if defined( MT_MAC_FUNC )
    348          #if defined( ZDO_COORDINATOR )
    349                HalLcdWriteString( "MAC-MT Coord", HAL_LCD_LINE_2 );
    350          #else
    351                HalLcdWriteString( "MAC-MT Device", HAL_LCD_LINE_2 );
    352          #endif // ZDO
    353          #elif defined( MT_NWK_FUNC )
    354          #if defined( ZDO_COORDINATOR )
    355                HalLcdWriteString( "NWK Coordinator", HAL_LCD_LINE_2 );
    356          #else
    357                HalLcdWriteString( "NWK Device", HAL_LCD_LINE_2 );
    358          #endif // ZDO
    359          #endif // MT_FUNC
    360            }
    361          #endif // SERIAL_DEBUG_SUPPORTED
    362          }
   \   000000   02....       LJMP    ?BRET

   \                                 In  segment BANK_RELAYS, align 1
   \                     ??main?relay:
   \   000000   12....       LCALL   ?BDISPATCH
   \   000003   ......       DC24    main

   \                                 In  segment BANK_RELAYS, align 1
   \                     ??zmain_vdd_check?relay:
   \   000000   12....       LCALL   ?BDISPATCH
   \   000003   ......       DC24    zmain_vdd_check

   \                                 In  segment BANK_RELAYS, align 1
   \                     ??zmain_ext_addr?relay:
   \   000000   12....       LCALL   ?BDISPATCH
   \   000003   ......       DC24    zmain_ext_addr

   \                                 In  segment BANK_RELAYS, align 1
   \                     ??zmain_dev_info?relay:
   \   000000   12....       LCALL   ?BDISPATCH
   \   000003   ......       DC24    zmain_dev_info

   \                                 In  segment BANK_RELAYS, align 1
   \                     ??zmain_lcd_init?relay:
   \   000000   12....       LCALL   ?BDISPATCH
   \   000003   ......       DC24    zmain_lcd_init

   \                                 In  segment XDATA_ROM_C, align 1
   \                     `?<Constant {255, 255, 255, 255, 255, 255, 255,`:
   \   000000   FF           DB 255
   \   000001   FF           DB 255
   \   000002   FF           DB 255
   \   000003   FF           DB 255
   \   000004   FF           DB 255
   \   000005   FF           DB 255
   \   000006   FF           DB 255
   \   000007   FF           DB 255

   \                                 In  segment XDATA_ROM_C, align 1
   \                     `?<Constant "IEEE: ">`:
   \   000000   49454545     DB "IEEE: "
   \            3A2000  
    363          #endif
    364          
    365          /*********************************************************************
    366          *********************************************************************/

   Maximum stack usage in bytes:

   ISTACK PSTACK XSTACK Function
   ------ ------ ------ --------
       0      0      0  main
                          0 0  0 -> HalDriverInit
                          0 0  0 -> InitBoard
                          0 0  0 -> ZMacInit
                          0 0  0 -> afInit
                          0 0  0 -> osal_init_system
                          0 0  0 -> osal_int_disable
                          0 0  0 -> osal_int_enable
                          0 0  0 -> osal_nv_init
                          0 0  0 -> osal_start_system
                          0 0  0 -> zgInit
                          0 0  0 -> zmain_dev_info
                          0 0  0 -> zmain_ext_addr
                          0 0  0 -> zmain_lcd_init
                          0 0  0 -> zmain_vdd_check
       1      0     30  zmain_dev_info
                          0 0 30 -> HalLcdWriteString
       2      0     23  zmain_ext_addr
                          0 0 21 -> HalFlashRead
                          0 0 19 -> ZMacSetReq
                          0 0 22 -> osal_memcmp
                          0 0 22 -> osal_memcpy
                          0 0 21 -> osal_nv_item_init
                          0 0 23 -> osal_nv_read
                          0 0 23 -> osal_nv_write
                          0 0 19 -> osal_rand
       0      0      0  zmain_lcd_init
       0      0      9  zmain_vdd_check
                          0 0  9 -> HalAdcCheckVdd
                          0 0  9 -> Onboard_wait


   Segment part sizes:

   Bytes  Function/Label
   -----  --------------
       7  ?<Constant "IEEE: ">
       8  ?<Constant {255, 255, 255, 255, 255, 255, 255,
       6  ??main?relay
       6  ??zmain_dev_info?relay
       6  ??zmain_ext_addr?relay
       6  ??zmain_lcd_init?relay
       6  ??zmain_vdd_check?relay
       1  CLKCONCMD
       1  CLKCONSTA
       1  P0DIR
       1  P0INP
       1  P1DIR
       1  SLEEPCMD
       1  SLEEPSTA
       1  _A_P1
     131  main
     213  zmain_dev_info
     483  zmain_ext_addr
       3  zmain_lcd_init
     100  zmain_vdd_check

 
 930 bytes in segment BANKED_CODE
  30 bytes in segment BANK_RELAYS
   8 bytes in segment SFR_AN
  15 bytes in segment XDATA_ROM_C
 
 960 bytes of CODE  memory
  15 bytes of CONST memory
   0 bytes of DATA  memory (+ 8 bytes shared)

Errors: none
Warnings: none
