///////////////////////////////////////////////////////////////////////////////
//                                                                            /
// IAR C/C++ Compiler V8.20.2.41139 for 8051            27/Nov/2015  13:58:03 /
// Copyright 2004-2013 IAR Systems AB.                                        /
//                                                                            /
//    Core               =  plain                                             /
//    Code model         =  banked                                            /
//    Data model         =  large                                             /
//    Calling convention =  xdata reentrant                                   /
//    Constant location  =  data_rom                                          /
//    Dptr setup         =  1,16                                              /
//                                                                            /
//    Source file        =  C:\Users\ArnoldWorkStation\Desktop\ZigbeeTest\Com /
//                          ponents\stack\zdo\ZDSecMgr.c                      /
//    Command line       =  -f C:\Users\ArnoldWorkStation\Desktop\ZigbeeTest\ /
//                          Projects\zstack\Samples\SampleApp\CC2530DB\..\..\ /
//                          ..\Tools\CC2530DB\f8wEndev.cfg (-DCPU32MHZ        /
//                          -DROOT=__near_func -DBLINK_LEDS) -f               /
//                          C:\Users\ArnoldWorkStation\Desktop\ZigbeeTest\Pro /
//                          jects\zstack\Samples\SampleApp\CC2530DB\..\..\..\ /
//                          Tools\CC2530DB\f8wConfig.cfg (-DSECURE=0          /
//                          -DZG_SECURE_DYNAMIC=0 -DREFLECTOR                 /
//                          -DDEFAULT_CHANLIST=0x00000800                     /
//                          -DZDAPP_CONFIG_PAN_ID=0xFFF1                      /
//                          -DNWK_START_DELAY=100 -DEXTENDED_JOINING_RANDOM_M /
//                          ASK=0x007F -DBEACON_REQUEST_DELAY=100             /
//                          -DBEACON_REQ_DELAY_MASK=0x00FF                    /
//                          -DROUTE_EXPIRY_TIME=30 -DAPSC_ACK_WAIT_DURATION_P /
//                          OLLED=3000 -DNWK_INDIRECT_MSG_TIMEOUT=7           /
//                          -DMAX_RREQ_ENTRIES=8 -DAPSC_MAX_FRAME_RETRIES=3   /
//                          -DNWK_MAX_DATA_RETRIES=2                          /
//                          -DMAX_POLL_FAILURE_RETRIES=2 -DMAX_BCAST=9        /
//                          -DAPS_MAX_GROUPS=16 -DMAX_RTG_ENTRIES=40          /
//                          -DNWK_MAX_BINDING_ENTRIES=4                       /
//                          -DMAX_BINDING_CLUSTER_IDS=4                       /
//                          "-DDEFAULT_KEY={0x01, 0x03, 0x05, 0x07, 0x09,     /
//                          0x0B, 0x0D, 0x0F, 0x00, 0x02, 0x04, 0x06, 0x08,   /
//                          0x0A, 0x0C, 0x0D}" -DMAC_MAX_FRAME_SIZE=116       /
//                          "-DCONST=const __code" -DGENERIC=__generic        /
//                          -DRFD_RCVC_ALWAYS_ON=FALSE -DPOLL_RATE=1000       /
//                          -DQUEUED_POLL_RATE=100 -DRESPONSE_POLL_RATE=100)  /
//                          -DREJOIN_POLL_RATE=440 C:\Users\ArnoldWorkStation /
//                          \Desktop\ZigbeeTest\Components\stack\zdo\ZDSecMgr /
//                          .c -D ZIGBEEPRO -D NWK_AUTO_POLL -D ZTOOL_P1 -D   /
//                          xMT_TASK -D xMT_SYS_FUNC -D xMT_ZDO_FUNC -D       /
//                          LCD_SUPPORTED=DEBUG -lC                           /
//                          C:\Users\ArnoldWorkStation\Desktop\ZigbeeTest\Pro /
//                          jects\zstack\Samples\SampleApp\CC2530DB\EndDevice /
//                          EB-Pro\List\ -lA C:\Users\ArnoldWorkStation\Deskt /
//                          op\ZigbeeTest\Projects\zstack\Samples\SampleApp\C /
//                          C2530DB\EndDeviceEB-Pro\List\ --diag_suppress     /
//                          Pe001,Pa010 -o C:\Users\ArnoldWorkStation\Desktop /
//                          \ZigbeeTest\Projects\zstack\Samples\SampleApp\CC2 /
//                          530DB\EndDeviceEB-Pro\Obj\ -e --debug             /
//                          --core=plain --dptr=16,1 --data_model=large       /
//                          --code_model=banked --calling_convention=xdata_re /
//                          entrant --place_constants=data_rom                /
//                          --nr_virtual_regs 16 -I                           /
//                          C:\Users\ArnoldWorkStation\Desktop\ZigbeeTest\Pro /
//                          jects\zstack\Samples\SampleApp\CC2530DB\ -I       /
//                          C:\Users\ArnoldWorkStation\Desktop\ZigbeeTest\Pro /
//                          jects\zstack\Samples\SampleApp\CC2530DB\..\SOURCE /
//                          \ -I C:\Users\ArnoldWorkStation\Desktop\ZigbeeTes /
//                          t\Projects\zstack\Samples\SampleApp\CC2530DB\..\. /
//                          .\..\ZMAIN\TI2530DB\ -I                           /
//                          C:\Users\ArnoldWorkStation\Desktop\ZigbeeTest\Pro /
//                          jects\zstack\Samples\SampleApp\CC2530DB\..\..\..\ /
//                          ..\..\COMPONENTS\MT\ -I                           /
//                          C:\Users\ArnoldWorkStation\Desktop\ZigbeeTest\Pro /
//                          jects\zstack\Samples\SampleApp\CC2530DB\..\..\..\ /
//                          ..\..\COMPONENTS\HAL\INCLUDE\ -I                  /
//                          C:\Users\ArnoldWorkStation\Desktop\ZigbeeTest\Pro /
//                          jects\zstack\Samples\SampleApp\CC2530DB\..\..\..\ /
//                          ..\..\COMPONENTS\HAL\TARGET\CC2530EB\ -I          /
//                          C:\Users\ArnoldWorkStation\Desktop\ZigbeeTest\Pro /
//                          jects\zstack\Samples\SampleApp\CC2530DB\..\..\..\ /
//                          ..\..\COMPONENTS\OSAL\MCU\CCSOC\ -I               /
//                          C:\Users\ArnoldWorkStation\Desktop\ZigbeeTest\Pro /
//                          jects\zstack\Samples\SampleApp\CC2530DB\..\..\..\ /
//                          ..\..\COMPONENTS\OSAL\INCLUDE\ -I                 /
//                          C:\Users\ArnoldWorkStation\Desktop\ZigbeeTest\Pro /
//                          jects\zstack\Samples\SampleApp\CC2530DB\..\..\..\ /
//                          ..\..\COMPONENTS\STACK\AF\ -I                     /
//                          C:\Users\ArnoldWorkStation\Desktop\ZigbeeTest\Pro /
//                          jects\zstack\Samples\SampleApp\CC2530DB\..\..\..\ /
//                          ..\..\COMPONENTS\STACK\NWK\ -I                    /
//                          C:\Users\ArnoldWorkStation\Desktop\ZigbeeTest\Pro /
//                          jects\zstack\Samples\SampleApp\CC2530DB\..\..\..\ /
//                          ..\..\COMPONENTS\STACK\SEC\ -I                    /
//                          C:\Users\ArnoldWorkStation\Desktop\ZigbeeTest\Pro /
//                          jects\zstack\Samples\SampleApp\CC2530DB\..\..\..\ /
//                          ..\..\COMPONENTS\STACK\SAPI\ -I                   /
//                          C:\Users\ArnoldWorkStation\Desktop\ZigbeeTest\Pro /
//                          jects\zstack\Samples\SampleApp\CC2530DB\..\..\..\ /
//                          ..\..\COMPONENTS\STACK\SYS\ -I                    /
//                          C:\Users\ArnoldWorkStation\Desktop\ZigbeeTest\Pro /
//                          jects\zstack\Samples\SampleApp\CC2530DB\..\..\..\ /
//                          ..\..\COMPONENTS\STACK\ZDO\ -I                    /
//                          C:\Users\ArnoldWorkStation\Desktop\ZigbeeTest\Pro /
//                          jects\zstack\Samples\SampleApp\CC2530DB\..\..\..\ /
//                          ..\..\COMPONENTS\ZMAC\F8W\ -I                     /
//                          C:\Users\ArnoldWorkStation\Desktop\ZigbeeTest\Pro /
//                          jects\zstack\Samples\SampleApp\CC2530DB\..\..\..\ /
//                          ..\..\COMPONENTS\ZMAC\ -I                         /
//                          C:\Users\ArnoldWorkStation\Desktop\ZigbeeTest\Pro /
//                          jects\zstack\Samples\SampleApp\CC2530DB\..\..\..\ /
//                          ..\..\COMPONENTS\SERVICES\SADDR\ -I               /
//                          C:\Users\ArnoldWorkStation\Desktop\ZigbeeTest\Pro /
//                          jects\zstack\Samples\SampleApp\CC2530DB\..\..\..\ /
//                          ..\..\COMPONENTS\SERVICES\SDATA\ -I               /
//                          C:\Users\ArnoldWorkStation\Desktop\ZigbeeTest\Pro /
//                          jects\zstack\Samples\SampleApp\CC2530DB\..\..\..\ /
//                          ..\..\COMPONENTS\MAC\INCLUDE\ -I                  /
//                          C:\Users\ArnoldWorkStation\Desktop\ZigbeeTest\Pro /
//                          jects\zstack\Samples\SampleApp\CC2530DB\..\..\..\ /
//                          ..\..\COMPONENTS\MAC\HIGH_LEVEL\ -I               /
//                          C:\Users\ArnoldWorkStation\Desktop\ZigbeeTest\Pro /
//                          jects\zstack\Samples\SampleApp\CC2530DB\..\..\..\ /
//                          ..\..\COMPONENTS\MAC\LOW_LEVEL\srf04\ -I          /
//                          C:\Users\ArnoldWorkStation\Desktop\ZigbeeTest\Pro /
//                          jects\zstack\Samples\SampleApp\CC2530DB\..\..\..\ /
//                          ..\..\COMPONENTS\MAC\LOW_LEVEL\srf04\SINGLE_CHIP\ /
//                           -Ohz --require_prototypes                        /
//    List file          =  C:\Users\ArnoldWorkStation\Desktop\ZigbeeTest\Pro /
//                          jects\zstack\Samples\SampleApp\CC2530DB\EndDevice /
//                          EB-Pro\List\ZDSecMgr.s51                          /
//                                                                            /
//                                                                            /
///////////////////////////////////////////////////////////////////////////////

        NAME ZDSecMgr

        RTMODEL "__SystemLibrary", "CLib"
        RTMODEL "__calling_convention", "xdata_reentrant"
        RTMODEL "__code_model", "banked"
        RTMODEL "__core", "plain"
        RTMODEL "__data_model", "large"
        RTMODEL "__dptr_size", "16"
        RTMODEL "__extended_stack", "disabled"
        RTMODEL "__location_for_constants", "data"
        RTMODEL "__number_of_dptrs", "1"
        RTMODEL "__rt_version", "1"

        RSEG DOVERLAY:DATA:NOROOT(0)
        RSEG IOVERLAY:IDATA:NOROOT(0)
        RSEG ISTACK:IDATA:NOROOT(0)
        RSEG PSTACK:XDATA:NOROOT(0)
        RSEG XSTACK:XDATA:NOROOT(0)

        EXTERN ?ALLOC_XSTACK8
        EXTERN ?BANKED_ENTER_XDATA
        EXTERN ?BANKED_LEAVE_XDATA
        EXTERN ?BDISPATCH
        EXTERN ?BRET
        EXTERN ?DEALLOC_XSTACK8
        EXTERN ?L_ADD_TO_X
        EXTERN ?L_ADD_X
        EXTERN ?L_MOV_TO_X
        EXTERN ?L_MOV_X
        EXTERN ?PUSH_XSTACK8_X_TWO
        EXTERN ?PUSH_XSTACK_I_THREE
        EXTERN ?PUSH_XSTACK_I_TWO
        EXTERN ?UL_GT_X
        EXTERN ?V0
        EXTERN ?XLOAD_R2345
        EXTERN ?XSP
        EXTERN ?XSTACK_DISP0_8
        EXTERN ?XSTORE_R2345
        EXTERN __INIT_XDATA_I
        EXTERN __INIT_XDATA_Z

        PUBLIC ??APSME_IsDefaultTCLK?relay
        FUNCTION ??APSME_IsDefaultTCLK?relay,0203H
        PUBLIC ??APSME_KeyFwdToChild?relay
        FUNCTION ??APSME_KeyFwdToChild?relay,0203H
        PUBLIC ??APSME_LinkKeyDataGet?relay
        FUNCTION ??APSME_LinkKeyDataGet?relay,0203H
        PUBLIC ??APSME_LinkKeySet?relay
        FUNCTION ??APSME_LinkKeySet?relay,0203H
        PUBLIC ??APSME_MasterKeyGet?relay
        FUNCTION ??APSME_MasterKeyGet?relay,0203H
        PUBLIC ??APSME_SKA_TimerExpired?relay
        FUNCTION ??APSME_SKA_TimerExpired?relay,0203H
        PUBLIC ??APSME_TCLinkKeyInit?relay
        FUNCTION ??APSME_TCLinkKeyInit?relay,0203H
        PUBLIC ??APSME_TCLinkKeyLoad?relay
        FUNCTION ??APSME_TCLinkKeyLoad?relay,0203H
        PUBLIC ??APSME_TCLinkKeySync?relay
        FUNCTION ??APSME_TCLinkKeySync?relay,0203H
        PUBLIC ??ZDSecMgrAPSRemove?relay
        FUNCTION ??ZDSecMgrAPSRemove?relay,0203H
        PUBLIC ??ZDSecMgrAddLinkKey?relay
        FUNCTION ??ZDSecMgrAddLinkKey?relay,0203H
        PUBLIC ??ZDSecMgrAddrMgrUpdate?relay
        FUNCTION ??ZDSecMgrAddrMgrUpdate?relay,0203H
        PUBLIC ??ZDSecMgrAddrStore?relay
        FUNCTION ??ZDSecMgrAddrStore?relay,0203H
        PUBLIC ??ZDSecMgrAppKeyGet?relay
        FUNCTION ??ZDSecMgrAppKeyGet?relay,0203H
        PUBLIC ??ZDSecMgrAppKeyReq?relay
        FUNCTION ??ZDSecMgrAppKeyReq?relay,0203H
        PUBLIC ??ZDSecMgrAssocDeviceAuth?relay
        FUNCTION ??ZDSecMgrAssocDeviceAuth?relay,0203H
        PUBLIC ??ZDSecMgrAuthInitiate?relay
        FUNCTION ??ZDSecMgrAuthInitiate?relay,0203H
        PUBLIC ??ZDSecMgrAuthNwkKey?relay
        FUNCTION ??ZDSecMgrAuthNwkKey?relay,0203H
        PUBLIC ??ZDSecMgrAuthenticateCfm?relay
        FUNCTION ??ZDSecMgrAuthenticateCfm?relay,0203H
        PUBLIC ??ZDSecMgrAuthenticateInd?relay
        FUNCTION ??ZDSecMgrAuthenticateInd?relay,0203H
        PUBLIC ??ZDSecMgrAuthenticationCheck?relay
        FUNCTION ??ZDSecMgrAuthenticationCheck?relay,0203H
        PUBLIC ??ZDSecMgrAuthenticationSet?relay
        FUNCTION ??ZDSecMgrAuthenticationSet?relay,0203H
        PUBLIC ??ZDSecMgrConfig?relay
        FUNCTION ??ZDSecMgrConfig?relay,0203H
        PUBLIC ??ZDSecMgrCtrlAdd?relay
        FUNCTION ??ZDSecMgrCtrlAdd?relay,0203H
        PUBLIC ??ZDSecMgrCtrlInit?relay
        FUNCTION ??ZDSecMgrCtrlInit?relay,0203H
        PUBLIC ??ZDSecMgrCtrlLookup?relay
        FUNCTION ??ZDSecMgrCtrlLookup?relay,0203H
        PUBLIC ??ZDSecMgrCtrlRelease?relay
        FUNCTION ??ZDSecMgrCtrlRelease?relay,0203H
        PUBLIC ??ZDSecMgrCtrlReset?relay
        FUNCTION ??ZDSecMgrCtrlReset?relay,0203H
        PUBLIC ??ZDSecMgrCtrlSet?relay
        FUNCTION ??ZDSecMgrCtrlSet?relay,0203H
        PUBLIC ??ZDSecMgrCtrlTerm?relay
        FUNCTION ??ZDSecMgrCtrlTerm?relay,0203H
        PUBLIC ??ZDSecMgrDeviceCtrlHandler?relay
        FUNCTION ??ZDSecMgrDeviceCtrlHandler?relay,0203H
        PUBLIC ??ZDSecMgrDeviceCtrlSetup?relay
        FUNCTION ??ZDSecMgrDeviceCtrlSetup?relay,0203H
        PUBLIC ??ZDSecMgrDeviceCtrlUpdate?relay
        FUNCTION ??ZDSecMgrDeviceCtrlUpdate?relay,0203H
        PUBLIC ??ZDSecMgrDeviceEntryAdd?relay
        FUNCTION ??ZDSecMgrDeviceEntryAdd?relay,0203H
        PUBLIC ??ZDSecMgrDeviceEntryRemove?relay
        FUNCTION ??ZDSecMgrDeviceEntryRemove?relay,0203H
        PUBLIC ??ZDSecMgrDeviceJoin?relay
        FUNCTION ??ZDSecMgrDeviceJoin?relay,0203H
        PUBLIC ??ZDSecMgrDeviceJoinDirect?relay
        FUNCTION ??ZDSecMgrDeviceJoinDirect?relay,0203H
        PUBLIC ??ZDSecMgrDeviceJoinFwd?relay
        FUNCTION ??ZDSecMgrDeviceJoinFwd?relay,0203H
        PUBLIC ??ZDSecMgrDeviceNew?relay
        FUNCTION ??ZDSecMgrDeviceNew?relay,0203H
        PUBLIC ??ZDSecMgrDeviceRemove?relay
        FUNCTION ??ZDSecMgrDeviceRemove?relay,0203H
        PUBLIC ??ZDSecMgrDeviceRemoveByExtAddr?relay
        FUNCTION ??ZDSecMgrDeviceRemoveByExtAddr?relay,0203H
        PUBLIC ??ZDSecMgrDeviceValidate?relay
        FUNCTION ??ZDSecMgrDeviceValidate?relay,0203H
        PUBLIC ??ZDSecMgrDeviceValidateCM?relay
        FUNCTION ??ZDSecMgrDeviceValidateCM?relay,0203H
        PUBLIC ??ZDSecMgrDeviceValidateRM?relay
        FUNCTION ??ZDSecMgrDeviceValidateRM?relay,0203H
        PUBLIC ??ZDSecMgrDeviceValidateSKKE?relay
        FUNCTION ??ZDSecMgrDeviceValidateSKKE?relay,0203H
        PUBLIC ??ZDSecMgrEntryFree?relay
        FUNCTION ??ZDSecMgrEntryFree?relay,0203H
        PUBLIC ??ZDSecMgrEntryInit?relay
        FUNCTION ??ZDSecMgrEntryInit?relay,0203H
        PUBLIC ??ZDSecMgrEntryLookup?relay
        FUNCTION ??ZDSecMgrEntryLookup?relay,0203H
        PUBLIC ??ZDSecMgrEntryLookupAMI?relay
        FUNCTION ??ZDSecMgrEntryLookupAMI?relay,0203H
        PUBLIC ??ZDSecMgrEntryLookupExt?relay
        FUNCTION ??ZDSecMgrEntryLookupExt?relay,0203H
        PUBLIC ??ZDSecMgrEntryNew?relay
        FUNCTION ??ZDSecMgrEntryNew?relay,0203H
        PUBLIC ??ZDSecMgrEstablishKey?relay
        FUNCTION ??ZDSecMgrEstablishKey?relay,0203H
        PUBLIC ??ZDSecMgrEstablishKeyCfm?relay
        FUNCTION ??ZDSecMgrEstablishKeyCfm?relay,0203H
        PUBLIC ??ZDSecMgrEstablishKeyInd?relay
        FUNCTION ??ZDSecMgrEstablishKeyInd?relay,0203H
        PUBLIC ??ZDSecMgrEvent?relay
        FUNCTION ??ZDSecMgrEvent?relay,0203H
        PUBLIC ??ZDSecMgrExtAddrLookup?relay
        FUNCTION ??ZDSecMgrExtAddrLookup?relay,0203H
        PUBLIC ??ZDSecMgrExtAddrStore?relay
        FUNCTION ??ZDSecMgrExtAddrStore?relay,0203H
        PUBLIC ??ZDSecMgrInit?relay
        FUNCTION ??ZDSecMgrInit?relay,0203H
        PUBLIC ??ZDSecMgrMasterKeyInit?relay
        FUNCTION ??ZDSecMgrMasterKeyInit?relay,0203H
        PUBLIC ??ZDSecMgrMasterKeyLoad?relay
        FUNCTION ??ZDSecMgrMasterKeyLoad?relay,0203H
        PUBLIC ??ZDSecMgrMasterKeyLookup?relay
        FUNCTION ??ZDSecMgrMasterKeyLookup?relay,0203H
        PUBLIC ??ZDSecMgrMasterKeyStore?relay
        FUNCTION ??ZDSecMgrMasterKeyStore?relay,0203H
        PUBLIC ??ZDSecMgrNewDeviceEvent?relay
        FUNCTION ??ZDSecMgrNewDeviceEvent?relay,0203H
        PUBLIC ??ZDSecMgrPermitJoining?relay
        FUNCTION ??ZDSecMgrPermitJoining?relay,0203H
        PUBLIC ??ZDSecMgrPermitJoiningTimeout?relay
        FUNCTION ??ZDSecMgrPermitJoiningTimeout?relay,0203H
        PUBLIC ??ZDSecMgrRemoveDeviceInd?relay
        FUNCTION ??ZDSecMgrRemoveDeviceInd?relay,0203H
        PUBLIC ??ZDSecMgrRequestAppKey?relay
        FUNCTION ??ZDSecMgrRequestAppKey?relay,0203H
        PUBLIC ??ZDSecMgrRequestKeyInd?relay
        FUNCTION ??ZDSecMgrRequestKeyInd?relay,0203H
        PUBLIC ??ZDSecMgrSendMasterKey?relay
        FUNCTION ??ZDSecMgrSendMasterKey?relay,0203H
        PUBLIC ??ZDSecMgrSendNwkKey?relay
        FUNCTION ??ZDSecMgrSendNwkKey?relay,0203H
        PUBLIC ??ZDSecMgrSetupPartner?relay
        FUNCTION ??ZDSecMgrSetupPartner?relay,0203H
        PUBLIC ??ZDSecMgrSwitchKeyInd?relay
        FUNCTION ??ZDSecMgrSwitchKeyInd?relay,0203H
        PUBLIC ??ZDSecMgrTCDataLoad?relay
        FUNCTION ??ZDSecMgrTCDataLoad?relay,0203H
        PUBLIC ??ZDSecMgrTCExtAddrCheck?relay
        FUNCTION ??ZDSecMgrTCExtAddrCheck?relay,0203H
        PUBLIC ??ZDSecMgrTransportKeyInd?relay
        FUNCTION ??ZDSecMgrTransportKeyInd?relay,0203H
        PUBLIC ??ZDSecMgrUpdateDeviceInd?relay
        FUNCTION ??ZDSecMgrUpdateDeviceInd?relay,0203H
        PUBLIC APSME_IsDefaultTCLK
        FUNCTION APSME_IsDefaultTCLK,0203H
        ARGFRAME XSTACK, 60, STACK
        ARGFRAME IOVERLAY, 0, STATIC
        ARGFRAME DOVERLAY, 0, STATIC
        LOCFRAME XSTACK, 9, STACK
        PUBLIC APSME_KeyFwdToChild
        FUNCTION APSME_KeyFwdToChild,021203H
        ARGFRAME XSTACK, 0, STACK
        LOCFRAME XSTACK, 9, STACK
        PUBLIC APSME_LinkKeyDataGet
        FUNCTION APSME_LinkKeyDataGet,021203H
        ARGFRAME XSTACK, 0, STACK
        LOCFRAME XSTACK, 11, STACK
        PUBLIC APSME_LinkKeySet
        FUNCTION APSME_LinkKeySet,021203H
        ARGFRAME XSTACK, 16, STACK
        ARGFRAME IOVERLAY, 0, STATIC
        ARGFRAME DOVERLAY, 0, STATIC
        LOCFRAME XSTACK, 17, STACK
        PUBLIC APSME_MasterKeyGet
        FUNCTION APSME_MasterKeyGet,021203H
        ARGFRAME XSTACK, 0, STACK
        LOCFRAME XSTACK, 11, STACK
        PUBLIC APSME_SKA_TimerExpired
        FUNCTION APSME_SKA_TimerExpired,0203H
        ARGFRAME XSTACK, 0, STACK
        PUBLIC APSME_TCLinkKeyInit
        FUNCTION APSME_TCLinkKeyInit,021203H
        ARGFRAME XSTACK, 0, STACK
        LOCFRAME XSTACK, 46, STACK
        PUBLIC APSME_TCLinkKeyLoad
        FUNCTION APSME_TCLinkKeyLoad,021203H
        ARGFRAME XSTACK, 0, STACK
        LOCFRAME XSTACK, 64, STACK
        PUBLIC APSME_TCLinkKeySync
        FUNCTION APSME_TCLinkKeySync,021203H
        ARGFRAME XSTACK, 0, STACK
        LOCFRAME XSTACK, 52, STACK
        PUBLIC TrustCenterLinkKey
        PUBLIC ZDSecMgrAPSRemove
        FUNCTION ZDSecMgrAPSRemove,021203H
        ARGFRAME XSTACK, 2, STACK
        LOCFRAME ISTACK, 2, STACK
        LOCFRAME XSTACK, 10, STACK
        PUBLIC ZDSecMgrAddLinkKey
        FUNCTION ZDSecMgrAddLinkKey,021203H
        ARGFRAME XSTACK, 2, STACK
        LOCFRAME XSTACK, 18, STACK
        PUBLIC ZDSecMgrAddrMgrUpdate
        FUNCTION ZDSecMgrAddrMgrUpdate,021203H
        ARGFRAME XSTACK, 13, STACK
        ARGFRAME IOVERLAY, 0, STATIC
        ARGFRAME DOVERLAY, 0, STATIC
        LOCFRAME XSTACK, 22, STACK
        PUBLIC ZDSecMgrAddrStore
        FUNCTION ZDSecMgrAddrStore,021203H
        ARGFRAME XSTACK, 18, STACK
        ARGFRAME IOVERLAY, 0, STATIC
        ARGFRAME DOVERLAY, 0, STATIC
        LOCFRAME XSTACK, 22, STACK
        PUBLIC ZDSecMgrAppKeyGet
        FUNCTION ZDSecMgrAppKeyGet,021203H
        ARGFRAME XSTACK, 8, STACK
        LOCFRAME ISTACK, 1, STACK
        LOCFRAME XSTACK, 9, STACK
        PUBLIC ZDSecMgrAppKeyReq
        FUNCTION ZDSecMgrAppKeyReq,021203H
        ARGFRAME XSTACK, 0, STACK
        ARGFRAME IOVERLAY, 0, STATIC
        ARGFRAME DOVERLAY, 0, STATIC
        LOCFRAME ISTACK, 1, STACK
        LOCFRAME XSTACK, 49, STACK
        PUBLIC ZDSecMgrAppKeyType
        PUBLIC ZDSecMgrAssocDeviceAuth
        FUNCTION ZDSecMgrAssocDeviceAuth,0203H
        ARGFRAME XSTACK, 35, STACK
        ARGFRAME IOVERLAY, 0, STATIC
        ARGFRAME DOVERLAY, 0, STATIC
        LOCFRAME ISTACK, 2, STACK
        PUBLIC ZDSecMgrAuthInitiate
        FUNCTION ZDSecMgrAuthInitiate,021203H
        ARGFRAME XSTACK, 0, STACK
        LOCFRAME XSTACK, 16, STACK
        PUBLIC ZDSecMgrAuthNwkKey
        FUNCTION ZDSecMgrAuthNwkKey,021203H
        ARGFRAME XSTACK, 10, STACK
        ARGFRAME IOVERLAY, 0, STATIC
        ARGFRAME DOVERLAY, 0, STATIC
        LOCFRAME ISTACK, 2, STACK
        PUBLIC ZDSecMgrAuthenticateCfm
        FUNCTION ZDSecMgrAuthenticateCfm,021203H
        ARGFRAME XSTACK, 0, STACK
        LOCFRAME ISTACK, 2, STACK
        PUBLIC ZDSecMgrAuthenticateInd
        FUNCTION ZDSecMgrAuthenticateInd,021203H
        ARGFRAME XSTACK, 0, STACK
        LOCFRAME XSTACK, 32, STACK
        PUBLIC ZDSecMgrAuthenticationCheck
        FUNCTION ZDSecMgrAuthenticationCheck,0203H
        ARGFRAME XSTACK, 0, STACK
        PUBLIC ZDSecMgrAuthenticationSet
        FUNCTION ZDSecMgrAuthenticationSet,021203H
        ARGFRAME XSTACK, 0, STACK
        LOCFRAME ISTACK, 1, STACK
        LOCFRAME XSTACK, 11, STACK
        PUBLIC ZDSecMgrConfig
        FUNCTION ZDSecMgrConfig,021203H
        ARGFRAME XSTACK, 0, STACK
        LOCFRAME ISTACK, 2, STACK
        PUBLIC ZDSecMgrCtrlAdd
        FUNCTION ZDSecMgrCtrlAdd,021203H
        ARGFRAME XSTACK, 12, STACK
        ARGFRAME IOVERLAY, 0, STATIC
        ARGFRAME DOVERLAY, 0, STATIC
        LOCFRAME XSTACK, 14, STACK
        PUBLIC ZDSecMgrCtrlData
        PUBLIC ZDSecMgrCtrlInit
        FUNCTION ZDSecMgrCtrlInit,021203H
        ARGFRAME XSTACK, 0, STACK
        LOCFRAME ISTACK, 2, STACK
        PUBLIC ZDSecMgrCtrlLookup
        FUNCTION ZDSecMgrCtrlLookup,0203H
        ARGFRAME XSTACK, 13, STACK
        ARGFRAME IOVERLAY, 0, STATIC
        ARGFRAME DOVERLAY, 0, STATIC
        LOCFRAME XSTACK, 10, STACK
        PUBLIC ZDSecMgrCtrlRelease
        FUNCTION ZDSecMgrCtrlRelease,0203H
        ARGFRAME XSTACK, 0, STACK
        LOCFRAME ISTACK, 2, STACK
        PUBLIC ZDSecMgrCtrlReset
        FUNCTION ZDSecMgrCtrlReset,021203H
        ARGFRAME XSTACK, 0, STACK
        LOCFRAME XSTACK, 14, STACK
        PUBLIC ZDSecMgrCtrlSet
        FUNCTION ZDSecMgrCtrlSet,0203H
        ARGFRAME XSTACK, 14, STACK
        ARGFRAME IOVERLAY, 0, STATIC
        ARGFRAME DOVERLAY, 0, STATIC
        LOCFRAME ISTACK, 1, STACK
        LOCFRAME XSTACK, 9, STACK
        PUBLIC ZDSecMgrCtrlTerm
        FUNCTION ZDSecMgrCtrlTerm,021203H
        ARGFRAME XSTACK, 0, STACK
        LOCFRAME ISTACK, 2, STACK
        LOCFRAME XSTACK, 2, STACK
        PUBLIC ZDSecMgrDeviceCtrlHandler
        FUNCTION ZDSecMgrDeviceCtrlHandler,021203H
        ARGFRAME XSTACK, 33, STACK
        ARGFRAME IOVERLAY, 0, STATIC
        ARGFRAME DOVERLAY, 0, STATIC
        LOCFRAME ISTACK, 1, STACK
        LOCFRAME XSTACK, 9, STACK
        PUBLIC ZDSecMgrDeviceCtrlSetup
        FUNCTION ZDSecMgrDeviceCtrlSetup,021203H
        ARGFRAME XSTACK, 0, STACK
        LOCFRAME ISTACK, 2, STACK
        PUBLIC ZDSecMgrDeviceCtrlUpdate
        FUNCTION ZDSecMgrDeviceCtrlUpdate,021203H
        ARGFRAME XSTACK, 0, STACK
        LOCFRAME XSTACK, 13, STACK
        PUBLIC ZDSecMgrDeviceEntryAdd
        FUNCTION ZDSecMgrDeviceEntryAdd,021203H
        ARGFRAME XSTACK, 14, STACK
        ARGFRAME IOVERLAY, 0, STATIC
        ARGFRAME DOVERLAY, 0, STATIC
        LOCFRAME XSTACK, 13, STACK
        PUBLIC ZDSecMgrDeviceEntryRemove
        FUNCTION ZDSecMgrDeviceEntryRemove,0203H
        ARGFRAME XSTACK, 0, STACK
        LOCFRAME ISTACK, 2, STACK
        PUBLIC ZDSecMgrDeviceJoin
        FUNCTION ZDSecMgrDeviceJoin,021203H
        ARGFRAME XSTACK, 10, STACK
        ARGFRAME IOVERLAY, 0, STATIC
        ARGFRAME DOVERLAY, 0, STATIC
        LOCFRAME XSTACK, 14, STACK
        PUBLIC ZDSecMgrDeviceJoinDirect
        FUNCTION ZDSecMgrDeviceJoinDirect,021203H
        ARGFRAME XSTACK, 0, STACK
        LOCFRAME XSTACK, 9, STACK
        PUBLIC ZDSecMgrDeviceJoinFwd
        FUNCTION ZDSecMgrDeviceJoinFwd,021203H
        ARGFRAME XSTACK, 0, STACK
        ARGFRAME IOVERLAY, 0, STATIC
        ARGFRAME DOVERLAY, 0, STATIC
        LOCFRAME ISTACK, 2, STACK
        LOCFRAME XSTACK, 8, STACK
        PUBLIC ZDSecMgrDeviceNew
        FUNCTION ZDSecMgrDeviceNew,021203H
        ARGFRAME XSTACK, 35, STACK
        ARGFRAME IOVERLAY, 0, STATIC
        ARGFRAME DOVERLAY, 0, STATIC
        LOCFRAME ISTACK, 2, STACK
        PUBLIC ZDSecMgrDeviceRemove
        FUNCTION ZDSecMgrDeviceRemove,021203H
        ARGFRAME XSTACK, 19, STACK
        ARGFRAME IOVERLAY, 0, STATIC
        ARGFRAME DOVERLAY, 0, STATIC
        LOCFRAME XSTACK, 19, STACK
        PUBLIC ZDSecMgrDeviceRemoveByExtAddr
        FUNCTION ZDSecMgrDeviceRemoveByExtAddr,021203H
        ARGFRAME XSTACK, 0, STACK
        LOCFRAME ISTACK, 2, STACK
        LOCFRAME XSTACK, 2, STACK
        PUBLIC ZDSecMgrDeviceValidate
        FUNCTION ZDSecMgrDeviceValidate,021203H
        ARGFRAME XSTACK, 12, STACK
        ARGFRAME IOVERLAY, 0, STATIC
        ARGFRAME DOVERLAY, 0, STATIC
        LOCFRAME ISTACK, 2, STACK
        PUBLIC ZDSecMgrDeviceValidateCM
        FUNCTION ZDSecMgrDeviceValidateCM,021203H
        ARGFRAME XSTACK, 0, STACK
        LOCFRAME XSTACK, 16, STACK
        PUBLIC ZDSecMgrDeviceValidateRM
        FUNCTION ZDSecMgrDeviceValidateRM,0203H
        ARGFRAME XSTACK, 0, STACK
        ARGFRAME IOVERLAY, 0, STATIC
        ARGFRAME DOVERLAY, 0, STATIC
        LOCFRAME ISTACK, 2, STACK
        PUBLIC ZDSecMgrDeviceValidateSKKE
        FUNCTION ZDSecMgrDeviceValidateSKKE,021203H
        ARGFRAME XSTACK, 29, STACK
        ARGFRAME IOVERLAY, 0, STATIC
        ARGFRAME DOVERLAY, 0, STATIC
        LOCFRAME XSTACK, 13, STACK
        PUBLIC ZDSecMgrEntries
        PUBLIC ZDSecMgrEntryFree
        FUNCTION ZDSecMgrEntryFree,0203H
        ARGFRAME XSTACK, 0, STACK
        LOCFRAME ISTACK, 2, STACK
        PUBLIC ZDSecMgrEntryInit
        FUNCTION ZDSecMgrEntryInit,021203H
        ARGFRAME XSTACK, 0, STACK
        LOCFRAME ISTACK, 2, STACK
        PUBLIC ZDSecMgrEntryLookup
        FUNCTION ZDSecMgrEntryLookup,021203H
        ARGFRAME XSTACK, 13, STACK
        ARGFRAME IOVERLAY, 0, STATIC
        ARGFRAME DOVERLAY, 0, STATIC
        LOCFRAME XSTACK, 23, STACK
        PUBLIC ZDSecMgrEntryLookupAMI
        FUNCTION ZDSecMgrEntryLookupAMI,0203H
        ARGFRAME XSTACK, 16, STACK
        ARGFRAME IOVERLAY, 0, STATIC
        ARGFRAME DOVERLAY, 0, STATIC
        LOCFRAME XSTACK, 10, STACK
        PUBLIC ZDSecMgrEntryLookupExt
        FUNCTION ZDSecMgrEntryLookupExt,021203H
        ARGFRAME XSTACK, 14, STACK
        ARGFRAME IOVERLAY, 0, STATIC
        ARGFRAME DOVERLAY, 0, STATIC
        LOCFRAME XSTACK, 11, STACK
        PUBLIC ZDSecMgrEntryNew
        FUNCTION ZDSecMgrEntryNew,0203H
        ARGFRAME XSTACK, 16, STACK
        ARGFRAME IOVERLAY, 0, STATIC
        ARGFRAME DOVERLAY, 0, STATIC
        LOCFRAME XSTACK, 10, STACK
        PUBLIC ZDSecMgrEstablishKey
        FUNCTION ZDSecMgrEstablishKey,021203H
        ARGFRAME XSTACK, 9, STACK
        ARGFRAME IOVERLAY, 0, STATIC
        ARGFRAME DOVERLAY, 0, STATIC
        LOCFRAME XSTACK, 17, STACK
        PUBLIC ZDSecMgrEstablishKeyCfm
        FUNCTION ZDSecMgrEstablishKeyCfm,0203H
        ARGFRAME XSTACK, 0, STACK
        PUBLIC ZDSecMgrEstablishKeyInd
        FUNCTION ZDSecMgrEstablishKeyInd,021203H
        ARGFRAME XSTACK, 0, STACK
        LOCFRAME ISTACK, 1, STACK
        LOCFRAME XSTACK, 29, STACK
        PUBLIC ZDSecMgrEvent
        FUNCTION ZDSecMgrEvent,021203H
        ARGFRAME XSTACK, 0, STACK
        LOCFRAME ISTACK, 1, STACK
        LOCFRAME XSTACK, 33, STACK
        PUBLIC ZDSecMgrExtAddrLookup
        FUNCTION ZDSecMgrExtAddrLookup,021203H
        ARGFRAME XSTACK, 16, STACK
        ARGFRAME IOVERLAY, 0, STATIC
        ARGFRAME DOVERLAY, 0, STATIC
        LOCFRAME XSTACK, 22, STACK
        PUBLIC ZDSecMgrExtAddrStore
        FUNCTION ZDSecMgrExtAddrStore,021203H
        ARGFRAME XSTACK, 2, STACK
        LOCFRAME XSTACK, 22, STACK
        PUBLIC ZDSecMgrInit
        FUNCTION ZDSecMgrInit,021203H
        ARGFRAME XSTACK, 0, STACK
        LOCFRAME ISTACK, 2, STACK
        PUBLIC ZDSecMgrMasterKeyData
        PUBLIC ZDSecMgrMasterKeyInit
        FUNCTION ZDSecMgrMasterKeyInit,021203H
        ARGFRAME XSTACK, 0, STACK
        LOCFRAME ISTACK, 2, STACK
        PUBLIC ZDSecMgrMasterKeyLoad
        FUNCTION ZDSecMgrMasterKeyLoad,021203H
        ARGFRAME XSTACK, 14, STACK
        ARGFRAME IOVERLAY, 0, STATIC
        ARGFRAME DOVERLAY, 0, STATIC
        LOCFRAME XSTACK, 19, STACK
        PUBLIC ZDSecMgrMasterKeyLookup
        FUNCTION ZDSecMgrMasterKeyLookup,0203H
        ARGFRAME XSTACK, 23, STACK
        ARGFRAME IOVERLAY, 0, STATIC
        ARGFRAME DOVERLAY, 0, STATIC
        LOCFRAME XSTACK, 10, STACK
        PUBLIC ZDSecMgrMasterKeyStore
        FUNCTION ZDSecMgrMasterKeyStore,021203H
        ARGFRAME XSTACK, 16, STACK
        ARGFRAME IOVERLAY, 0, STATIC
        ARGFRAME DOVERLAY, 0, STATIC
        LOCFRAME XSTACK, 18, STACK
        PUBLIC ZDSecMgrNewDeviceEvent
        FUNCTION ZDSecMgrNewDeviceEvent,021203H
        ARGFRAME XSTACK, 0, STACK
        LOCFRAME ISTACK, 1, STACK
        LOCFRAME XSTACK, 35, STACK
        PUBLIC ZDSecMgrPermitJoining
        FUNCTION ZDSecMgrPermitJoining,0203H
        ARGFRAME XSTACK, 0, STACK
        LOCFRAME ISTACK, 2, STACK
        PUBLIC ZDSecMgrPermitJoiningEnabled
        PUBLIC ZDSecMgrPermitJoiningTimed
        PUBLIC ZDSecMgrPermitJoiningTimeout
        FUNCTION ZDSecMgrPermitJoiningTimeout,0203H
        ARGFRAME XSTACK, 0, STACK
        LOCFRAME ISTACK, 2, STACK
        PUBLIC ZDSecMgrRemoveDeviceInd
        FUNCTION ZDSecMgrRemoveDeviceInd,021203H
        ARGFRAME XSTACK, 0, STACK
        LOCFRAME XSTACK, 19, STACK
        PUBLIC ZDSecMgrRequestAppKey
        FUNCTION ZDSecMgrRequestAppKey,021203H
        ARGFRAME XSTACK, 0, STACK
        LOCFRAME ISTACK, 2, STACK
        LOCFRAME XSTACK, 12, STACK
        PUBLIC ZDSecMgrRequestKeyInd
        FUNCTION ZDSecMgrRequestKeyInd,021203H
        ARGFRAME XSTACK, 0, STACK
        LOCFRAME ISTACK, 2, STACK
        PUBLIC ZDSecMgrSendMasterKey
        FUNCTION ZDSecMgrSendMasterKey,021203H
        ARGFRAME XSTACK, 9, STACK
        ARGFRAME IOVERLAY, 0, STATIC
        ARGFRAME DOVERLAY, 0, STATIC
        LOCFRAME XSTACK, 23, STACK
        PUBLIC ZDSecMgrSendNwkKey
        FUNCTION ZDSecMgrSendNwkKey,021203H
        ARGFRAME XSTACK, 12, STACK
        ARGFRAME IOVERLAY, 0, STATIC
        ARGFRAME DOVERLAY, 0, STATIC
        LOCFRAME ISTACK, 1, STACK
        LOCFRAME XSTACK, 25, STACK
        PUBLIC ZDSecMgrSetupPartner
        FUNCTION ZDSecMgrSetupPartner,021203H
        ARGFRAME XSTACK, 0, STACK
        LOCFRAME XSTACK, 24, STACK
        PUBLIC ZDSecMgrSwitchKeyInd
        FUNCTION ZDSecMgrSwitchKeyInd,021203H
        ARGFRAME XSTACK, 0, STACK
        LOCFRAME ISTACK, 2, STACK
        PUBLIC ZDSecMgrTCAuthenticated
        PUBLIC ZDSecMgrTCDataLoad
        FUNCTION ZDSecMgrTCDataLoad,021203H
        ARGFRAME XSTACK, 29, STACK
        ARGFRAME IOVERLAY, 0, STATIC
        ARGFRAME DOVERLAY, 0, STATIC
        LOCFRAME XSTACK, 16, STACK
        PUBLIC ZDSecMgrTCDataLoaded
        PUBLIC ZDSecMgrTCExtAddr
        PUBLIC ZDSecMgrTCExtAddrCheck
        FUNCTION ZDSecMgrTCExtAddrCheck,021203H
        ARGFRAME XSTACK, 29, STACK
        ARGFRAME IOVERLAY, 0, STATIC
        ARGFRAME DOVERLAY, 0, STATIC
        LOCFRAME XSTACK, 17, STACK
        PUBLIC ZDSecMgrTCMasterKey
        PUBLIC ZDSecMgrTransportKeyInd
        FUNCTION ZDSecMgrTransportKeyInd,021203H
        ARGFRAME XSTACK, 0, STACK
        LOCFRAME XSTACK, 10, STACK
        PUBLIC ZDSecMgrUpdateDeviceInd
        FUNCTION ZDSecMgrUpdateDeviceInd,021203H
        ARGFRAME XSTACK, 0, STACK
        LOCFRAME ISTACK, 2, STACK
        LOCFRAME XSTACK, 10, STACK
        PUBWEAK __Constant_1
        
          CFI Names cfiNames0
          CFI StackFrame CFA_SP SP IDATA
          CFI StackFrame CFA_PSP16 PSP16 XDATA
          CFI StackFrame CFA_XSP16 XSP16 XDATA
          CFI StaticOverlayFrame CFA_IOVERLAY IOVERLAY
          CFI StaticOverlayFrame CFA_DOVERLAY DOVERLAY
          CFI Resource `PSW.CY`:1, `B.BR0`:1, `B.BR1`:1, `B.BR2`:1, `B.BR3`:1
          CFI Resource `B.BR4`:1, `B.BR5`:1, `B.BR6`:1, `B.BR7`:1, `VB.BR8`:1
          CFI Resource `VB.BR9`:1, `VB.BR10`:1, `VB.BR11`:1, `VB.BR12`:1
          CFI Resource `VB.BR13`:1, `VB.BR14`:1, `VB.BR15`:1, VB:8, B:8, A:8
          CFI Resource PSW:8, DPL0:8, DPH0:8, R0:8, R1:8, R2:8, R3:8, R4:8, R5:8
          CFI Resource R6:8, R7:8, V0:8, V1:8, V2:8, V3:8, V4:8, V5:8, V6:8, V7:8
          CFI Resource V8:8, V9:8, V10:8, V11:8, V12:8, V13:8, V14:8, V15:8, SP:8
          CFI Resource PSPH:8, PSPL:8, PSP16:16, XSPH:8, XSPL:8, XSP16:16
          CFI VirtualResource ?RET:24
          CFI Resource ?BRET_EXT:8
          CFI VirtualResource ?RET_HIGH:8, ?RET_LOW:8
          CFI ResourceParts PSP16 PSPH, PSPL
          CFI ResourceParts XSP16 XSPH, XSPL
          CFI ResourceParts ?RET ?BRET_EXT, ?RET_HIGH, ?RET_LOW
          CFI EndNames cfiNames0
        
          CFI Common cfiCommon0 Using cfiNames0
          CFI CodeAlign 1
          CFI DataAlign -1
          CFI ReturnAddress ?RET CODE
          CFI CFA_DOVERLAY Used
          CFI CFA_IOVERLAY Used
          CFI CFA_SP SP+-3
          CFI CFA_PSP16 PSP16+0
          CFI CFA_XSP16 XSP16+0
          CFI `PSW.CY` SameValue
          CFI `B.BR0` SameValue
          CFI `B.BR1` SameValue
          CFI `B.BR2` SameValue
          CFI `B.BR3` SameValue
          CFI `B.BR4` SameValue
          CFI `B.BR5` SameValue
          CFI `B.BR6` SameValue
          CFI `B.BR7` SameValue
          CFI `VB.BR8` SameValue
          CFI `VB.BR9` SameValue
          CFI `VB.BR10` SameValue
          CFI `VB.BR11` SameValue
          CFI `VB.BR12` SameValue
          CFI `VB.BR13` SameValue
          CFI `VB.BR14` SameValue
          CFI `VB.BR15` SameValue
          CFI VB SameValue
          CFI B Undefined
          CFI A Undefined
          CFI PSW SameValue
          CFI DPL0 SameValue
          CFI DPH0 SameValue
          CFI R0 Undefined
          CFI R1 Undefined
          CFI R2 Undefined
          CFI R3 Undefined
          CFI R4 Undefined
          CFI R5 Undefined
          CFI R6 SameValue
          CFI R7 SameValue
          CFI V0 SameValue
          CFI V1 SameValue
          CFI V2 SameValue
          CFI V3 SameValue
          CFI V4 SameValue
          CFI V5 SameValue
          CFI V6 SameValue
          CFI V7 SameValue
          CFI V8 SameValue
          CFI V9 SameValue
          CFI V10 SameValue
          CFI V11 SameValue
          CFI V12 SameValue
          CFI V13 SameValue
          CFI V14 SameValue
          CFI V15 SameValue
          CFI PSPH Undefined
          CFI PSPL Undefined
          CFI XSPH Undefined
          CFI XSPL Undefined
          CFI ?RET Concat
          CFI ?BRET_EXT Frame(CFA_SP, 3)
          CFI ?RET_HIGH Frame(CFA_SP, 2)
          CFI ?RET_LOW Frame(CFA_SP, 1)
          CFI EndCommon cfiCommon0
        
        
          CFI Common cfiCommon1 Using cfiNames0
          CFI CodeAlign 1
          CFI DataAlign -1
          CFI ReturnAddress ?RET CODE
          CFI CFA_DOVERLAY Used
          CFI CFA_IOVERLAY Used
          CFI CFA_SP SP+-2
          CFI CFA_PSP16 PSP16+0
          CFI CFA_XSP16 XSP16+0
          CFI `PSW.CY` SameValue
          CFI `B.BR0` SameValue
          CFI `B.BR1` SameValue
          CFI `B.BR2` SameValue
          CFI `B.BR3` SameValue
          CFI `B.BR4` SameValue
          CFI `B.BR5` SameValue
          CFI `B.BR6` SameValue
          CFI `B.BR7` SameValue
          CFI `VB.BR8` SameValue
          CFI `VB.BR9` SameValue
          CFI `VB.BR10` SameValue
          CFI `VB.BR11` SameValue
          CFI `VB.BR12` SameValue
          CFI `VB.BR13` SameValue
          CFI `VB.BR14` SameValue
          CFI `VB.BR15` SameValue
          CFI VB SameValue
          CFI B SameValue
          CFI A SameValue
          CFI PSW SameValue
          CFI DPL0 SameValue
          CFI DPH0 SameValue
          CFI R0 SameValue
          CFI R1 SameValue
          CFI R2 SameValue
          CFI R3 SameValue
          CFI R4 SameValue
          CFI R5 SameValue
          CFI R6 SameValue
          CFI R7 SameValue
          CFI V0 SameValue
          CFI V1 SameValue
          CFI V2 SameValue
          CFI V3 SameValue
          CFI V4 SameValue
          CFI V5 SameValue
          CFI V6 SameValue
          CFI V7 SameValue
          CFI V8 SameValue
          CFI V9 SameValue
          CFI V10 SameValue
          CFI V11 SameValue
          CFI V12 SameValue
          CFI V13 SameValue
          CFI V14 SameValue
          CFI V15 SameValue
          CFI PSPH Undefined
          CFI PSPL Undefined
          CFI XSPH Undefined
          CFI XSPL Undefined
          CFI ?RET Concat
          CFI ?BRET_EXT SameValue
          CFI ?RET_HIGH Frame(CFA_SP, 2)
          CFI ?RET_LOW Frame(CFA_SP, 1)
          CFI EndCommon cfiCommon1
        
APSME_AuthenticateReq SYMBOL "APSME_AuthenticateReq"
??APSME_AuthenticateReq?relay SYMBOL "?relay", APSME_AuthenticateReq
APSME_EstablishKeyReq SYMBOL "APSME_EstablishKeyReq"
??APSME_EstablishKeyReq?relay SYMBOL "?relay", APSME_EstablishKeyReq
APSME_EstablishKeyRsp SYMBOL "APSME_EstablishKeyRsp"
??APSME_EstablishKeyRsp?relay SYMBOL "?relay", APSME_EstablishKeyRsp
APSME_LookupExtAddr SYMBOL "APSME_LookupExtAddr"
??APSME_LookupExtAddr?relay SYMBOL "?relay", APSME_LookupExtAddr
APSME_LookupNwkAddr SYMBOL "APSME_LookupNwkAddr"
??APSME_LookupNwkAddr?relay SYMBOL "?relay", APSME_LookupNwkAddr
APSME_RemoveDeviceReq SYMBOL "APSME_RemoveDeviceReq"
??APSME_RemoveDeviceReq?relay SYMBOL "?relay", APSME_RemoveDeviceReq
APSME_RequestKeyReq SYMBOL "APSME_RequestKeyReq"
??APSME_RequestKeyReq?relay SYMBOL "?relay", APSME_RequestKeyReq
APSME_SecurityNM    SYMBOL "APSME_SecurityNM"
??APSME_SecurityNM?relay SYMBOL "?relay", APSME_SecurityNM
APSME_TransportKeyReq SYMBOL "APSME_TransportKeyReq"
??APSME_TransportKeyReq?relay SYMBOL "?relay", APSME_TransportKeyReq
APSME_UpdateDeviceReq SYMBOL "APSME_UpdateDeviceReq"
??APSME_UpdateDeviceReq?relay SYMBOL "?relay", APSME_UpdateDeviceReq
AddrMgrEntryGet     SYMBOL "AddrMgrEntryGet"
??AddrMgrEntryGet?relay SYMBOL "?relay", AddrMgrEntryGet
AddrMgrEntryLookupExt SYMBOL "AddrMgrEntryLookupExt"
??AddrMgrEntryLookupExt?relay SYMBOL "?relay", AddrMgrEntryLookupExt
AddrMgrEntryLookupNwk SYMBOL "AddrMgrEntryLookupNwk"
??AddrMgrEntryLookupNwk?relay SYMBOL "?relay", AddrMgrEntryLookupNwk
AddrMgrEntryRelease SYMBOL "AddrMgrEntryRelease"
??AddrMgrEntryRelease?relay SYMBOL "?relay", AddrMgrEntryRelease
AddrMgrEntryUpdate  SYMBOL "AddrMgrEntryUpdate"
??AddrMgrEntryUpdate?relay SYMBOL "?relay", AddrMgrEntryUpdate
AddrMgrExtAddrEqual SYMBOL "AddrMgrExtAddrEqual"
??AddrMgrExtAddrEqual?relay SYMBOL "?relay", AddrMgrExtAddrEqual
AddrMgrExtAddrLookup SYMBOL "AddrMgrExtAddrLookup"
??AddrMgrExtAddrLookup?relay SYMBOL "?relay", AddrMgrExtAddrLookup
AddrMgrExtAddrSet   SYMBOL "AddrMgrExtAddrSet"
??AddrMgrExtAddrSet?relay SYMBOL "?relay", AddrMgrExtAddrSet
AddrMgrExtAddrValid SYMBOL "AddrMgrExtAddrValid"
??AddrMgrExtAddrValid?relay SYMBOL "?relay", AddrMgrExtAddrValid
AssocGetWithExt     SYMBOL "AssocGetWithExt"
??AssocGetWithExt?relay SYMBOL "?relay", AssocGetWithExt
AssocGetWithShort   SYMBOL "AssocGetWithShort"
??AssocGetWithShort?relay SYMBOL "?relay", AssocGetWithShort
AssocMatchDeviceStatus SYMBOL "AssocMatchDeviceStatus"
??AssocMatchDeviceStatus?relay SYMBOL "?relay", AssocMatchDeviceStatus
AssocRemove         SYMBOL "AssocRemove"
??AssocRemove?relay SYMBOL "?relay", AssocRemove
NLME_GetShortAddr   SYMBOL "NLME_GetShortAddr"
??NLME_GetShortAddr?relay SYMBOL "?relay", NLME_GetShortAddr
NLME_LeaveReq       SYMBOL "NLME_LeaveReq"
??NLME_LeaveReq?relay SYMBOL "?relay", NLME_LeaveReq
SSP_GetTrueRand     SYMBOL "SSP_GetTrueRand"
??SSP_GetTrueRand?relay SYMBOL "?relay", SSP_GetTrueRand
SSP_SwitchNwkKey    SYMBOL "SSP_SwitchNwkKey"
??SSP_SwitchNwkKey?relay SYMBOL "?relay", SSP_SwitchNwkKey
SSP_UpdateNwkKey    SYMBOL "SSP_UpdateNwkKey"
??SSP_UpdateNwkKey?relay SYMBOL "?relay", SSP_UpdateNwkKey
ZDApp_NVUpdate      SYMBOL "ZDApp_NVUpdate"
??ZDApp_NVUpdate?relay SYMBOL "?relay", ZDApp_NVUpdate
ZDP_IEEEAddrReq     SYMBOL "ZDP_IEEEAddrReq"
??ZDP_IEEEAddrReq?relay SYMBOL "?relay", ZDP_IEEEAddrReq
ZDP_NwkAddrReq      SYMBOL "ZDP_NwkAddrReq"
??ZDP_NwkAddrReq?relay SYMBOL "?relay", ZDP_NwkAddrReq
osal_mem_alloc      SYMBOL "osal_mem_alloc"
??osal_mem_alloc?relay SYMBOL "?relay", osal_mem_alloc
osal_memcpy         SYMBOL "osal_memcpy"
??osal_memcpy?relay SYMBOL "?relay", osal_memcpy
osal_memset         SYMBOL "osal_memset"
??osal_memset?relay SYMBOL "?relay", osal_memset
osal_nv_item_init   SYMBOL "osal_nv_item_init"
??osal_nv_item_init?relay SYMBOL "?relay", osal_nv_item_init
osal_nv_read        SYMBOL "osal_nv_read"
??osal_nv_read?relay SYMBOL "?relay", osal_nv_read
osal_nv_write       SYMBOL "osal_nv_write"
??osal_nv_write?relay SYMBOL "?relay", osal_nv_write
osal_set_event      SYMBOL "osal_set_event"
??osal_set_event?relay SYMBOL "?relay", osal_set_event
osal_start_timerEx  SYMBOL "osal_start_timerEx"
??osal_start_timerEx?relay SYMBOL "?relay", osal_start_timerEx
APSME_IsDefaultTCLK SYMBOL "APSME_IsDefaultTCLK"
??APSME_IsDefaultTCLK?relay SYMBOL "?relay", APSME_IsDefaultTCLK
APSME_KeyFwdToChild SYMBOL "APSME_KeyFwdToChild"
??APSME_KeyFwdToChild?relay SYMBOL "?relay", APSME_KeyFwdToChild
APSME_LinkKeyDataGet SYMBOL "APSME_LinkKeyDataGet"
??APSME_LinkKeyDataGet?relay SYMBOL "?relay", APSME_LinkKeyDataGet
APSME_LinkKeySet    SYMBOL "APSME_LinkKeySet"
??APSME_LinkKeySet?relay SYMBOL "?relay", APSME_LinkKeySet
APSME_MasterKeyGet  SYMBOL "APSME_MasterKeyGet"
??APSME_MasterKeyGet?relay SYMBOL "?relay", APSME_MasterKeyGet
APSME_SKA_TimerExpired SYMBOL "APSME_SKA_TimerExpired"
??APSME_SKA_TimerExpired?relay SYMBOL "?relay", APSME_SKA_TimerExpired
APSME_TCLinkKeyInit SYMBOL "APSME_TCLinkKeyInit"
??APSME_TCLinkKeyInit?relay SYMBOL "?relay", APSME_TCLinkKeyInit
APSME_TCLinkKeyLoad SYMBOL "APSME_TCLinkKeyLoad"
??APSME_TCLinkKeyLoad?relay SYMBOL "?relay", APSME_TCLinkKeyLoad
APSME_TCLinkKeySync SYMBOL "APSME_TCLinkKeySync"
??APSME_TCLinkKeySync?relay SYMBOL "?relay", APSME_TCLinkKeySync
ZDSecMgrAPSRemove   SYMBOL "ZDSecMgrAPSRemove"
??ZDSecMgrAPSRemove?relay SYMBOL "?relay", ZDSecMgrAPSRemove
ZDSecMgrAddLinkKey  SYMBOL "ZDSecMgrAddLinkKey"
??ZDSecMgrAddLinkKey?relay SYMBOL "?relay", ZDSecMgrAddLinkKey
ZDSecMgrAddrMgrUpdate SYMBOL "ZDSecMgrAddrMgrUpdate"
??ZDSecMgrAddrMgrUpdate?relay SYMBOL "?relay", ZDSecMgrAddrMgrUpdate
ZDSecMgrAddrStore   SYMBOL "ZDSecMgrAddrStore"
??ZDSecMgrAddrStore?relay SYMBOL "?relay", ZDSecMgrAddrStore
ZDSecMgrAppKeyGet   SYMBOL "ZDSecMgrAppKeyGet"
??ZDSecMgrAppKeyGet?relay SYMBOL "?relay", ZDSecMgrAppKeyGet
ZDSecMgrAppKeyReq   SYMBOL "ZDSecMgrAppKeyReq"
??ZDSecMgrAppKeyReq?relay SYMBOL "?relay", ZDSecMgrAppKeyReq
ZDSecMgrAssocDeviceAuth SYMBOL "ZDSecMgrAssocDeviceAuth"
??ZDSecMgrAssocDeviceAuth?relay SYMBOL "?relay", ZDSecMgrAssocDeviceAuth
ZDSecMgrAuthInitiate SYMBOL "ZDSecMgrAuthInitiate"
??ZDSecMgrAuthInitiate?relay SYMBOL "?relay", ZDSecMgrAuthInitiate
ZDSecMgrAuthNwkKey  SYMBOL "ZDSecMgrAuthNwkKey"
??ZDSecMgrAuthNwkKey?relay SYMBOL "?relay", ZDSecMgrAuthNwkKey
ZDSecMgrAuthenticateCfm SYMBOL "ZDSecMgrAuthenticateCfm"
??ZDSecMgrAuthenticateCfm?relay SYMBOL "?relay", ZDSecMgrAuthenticateCfm
ZDSecMgrAuthenticateInd SYMBOL "ZDSecMgrAuthenticateInd"
??ZDSecMgrAuthenticateInd?relay SYMBOL "?relay", ZDSecMgrAuthenticateInd
ZDSecMgrAuthenticationCheck SYMBOL "ZDSecMgrAuthenticationCheck"
??ZDSecMgrAuthenticationCheck?relay SYMBOL "?relay", ZDSecMgrAuthenticationCheck
ZDSecMgrAuthenticationSet SYMBOL "ZDSecMgrAuthenticationSet"
??ZDSecMgrAuthenticationSet?relay SYMBOL "?relay", ZDSecMgrAuthenticationSet
ZDSecMgrConfig      SYMBOL "ZDSecMgrConfig"
??ZDSecMgrConfig?relay SYMBOL "?relay", ZDSecMgrConfig
ZDSecMgrCtrlAdd     SYMBOL "ZDSecMgrCtrlAdd"
??ZDSecMgrCtrlAdd?relay SYMBOL "?relay", ZDSecMgrCtrlAdd
ZDSecMgrCtrlInit    SYMBOL "ZDSecMgrCtrlInit"
??ZDSecMgrCtrlInit?relay SYMBOL "?relay", ZDSecMgrCtrlInit
ZDSecMgrCtrlLookup  SYMBOL "ZDSecMgrCtrlLookup"
??ZDSecMgrCtrlLookup?relay SYMBOL "?relay", ZDSecMgrCtrlLookup
ZDSecMgrCtrlRelease SYMBOL "ZDSecMgrCtrlRelease"
??ZDSecMgrCtrlRelease?relay SYMBOL "?relay", ZDSecMgrCtrlRelease
ZDSecMgrCtrlReset   SYMBOL "ZDSecMgrCtrlReset"
??ZDSecMgrCtrlReset?relay SYMBOL "?relay", ZDSecMgrCtrlReset
ZDSecMgrCtrlSet     SYMBOL "ZDSecMgrCtrlSet"
??ZDSecMgrCtrlSet?relay SYMBOL "?relay", ZDSecMgrCtrlSet
ZDSecMgrCtrlTerm    SYMBOL "ZDSecMgrCtrlTerm"
??ZDSecMgrCtrlTerm?relay SYMBOL "?relay", ZDSecMgrCtrlTerm
ZDSecMgrDeviceCtrlHandler SYMBOL "ZDSecMgrDeviceCtrlHandler"
??ZDSecMgrDeviceCtrlHandler?relay SYMBOL "?relay", ZDSecMgrDeviceCtrlHandler
ZDSecMgrDeviceCtrlSetup SYMBOL "ZDSecMgrDeviceCtrlSetup"
??ZDSecMgrDeviceCtrlSetup?relay SYMBOL "?relay", ZDSecMgrDeviceCtrlSetup
ZDSecMgrDeviceCtrlUpdate SYMBOL "ZDSecMgrDeviceCtrlUpdate"
??ZDSecMgrDeviceCtrlUpdate?relay SYMBOL "?relay", ZDSecMgrDeviceCtrlUpdate
ZDSecMgrDeviceEntryAdd SYMBOL "ZDSecMgrDeviceEntryAdd"
??ZDSecMgrDeviceEntryAdd?relay SYMBOL "?relay", ZDSecMgrDeviceEntryAdd
ZDSecMgrDeviceEntryRemove SYMBOL "ZDSecMgrDeviceEntryRemove"
??ZDSecMgrDeviceEntryRemove?relay SYMBOL "?relay", ZDSecMgrDeviceEntryRemove
ZDSecMgrDeviceJoin  SYMBOL "ZDSecMgrDeviceJoin"
??ZDSecMgrDeviceJoin?relay SYMBOL "?relay", ZDSecMgrDeviceJoin
ZDSecMgrDeviceJoinDirect SYMBOL "ZDSecMgrDeviceJoinDirect"
??ZDSecMgrDeviceJoinDirect?relay SYMBOL "?relay", ZDSecMgrDeviceJoinDirect
ZDSecMgrDeviceJoinFwd SYMBOL "ZDSecMgrDeviceJoinFwd"
??ZDSecMgrDeviceJoinFwd?relay SYMBOL "?relay", ZDSecMgrDeviceJoinFwd
ZDSecMgrDeviceNew   SYMBOL "ZDSecMgrDeviceNew"
??ZDSecMgrDeviceNew?relay SYMBOL "?relay", ZDSecMgrDeviceNew
ZDSecMgrDeviceRemove SYMBOL "ZDSecMgrDeviceRemove"
??ZDSecMgrDeviceRemove?relay SYMBOL "?relay", ZDSecMgrDeviceRemove
ZDSecMgrDeviceRemoveByExtAddr SYMBOL "ZDSecMgrDeviceRemoveByExtAddr"
??ZDSecMgrDeviceRemoveByExtAddr?relay SYMBOL "?relay", ZDSecMgrDeviceRemoveByExtAddr
ZDSecMgrDeviceValidate SYMBOL "ZDSecMgrDeviceValidate"
??ZDSecMgrDeviceValidate?relay SYMBOL "?relay", ZDSecMgrDeviceValidate
ZDSecMgrDeviceValidateCM SYMBOL "ZDSecMgrDeviceValidateCM"
??ZDSecMgrDeviceValidateCM?relay SYMBOL "?relay", ZDSecMgrDeviceValidateCM
ZDSecMgrDeviceValidateRM SYMBOL "ZDSecMgrDeviceValidateRM"
??ZDSecMgrDeviceValidateRM?relay SYMBOL "?relay", ZDSecMgrDeviceValidateRM
ZDSecMgrDeviceValidateSKKE SYMBOL "ZDSecMgrDeviceValidateSKKE"
??ZDSecMgrDeviceValidateSKKE?relay SYMBOL "?relay", ZDSecMgrDeviceValidateSKKE
ZDSecMgrEntryFree   SYMBOL "ZDSecMgrEntryFree"
??ZDSecMgrEntryFree?relay SYMBOL "?relay", ZDSecMgrEntryFree
ZDSecMgrEntryInit   SYMBOL "ZDSecMgrEntryInit"
??ZDSecMgrEntryInit?relay SYMBOL "?relay", ZDSecMgrEntryInit
ZDSecMgrEntryLookup SYMBOL "ZDSecMgrEntryLookup"
??ZDSecMgrEntryLookup?relay SYMBOL "?relay", ZDSecMgrEntryLookup
ZDSecMgrEntryLookupAMI SYMBOL "ZDSecMgrEntryLookupAMI"
??ZDSecMgrEntryLookupAMI?relay SYMBOL "?relay", ZDSecMgrEntryLookupAMI
ZDSecMgrEntryLookupExt SYMBOL "ZDSecMgrEntryLookupExt"
??ZDSecMgrEntryLookupExt?relay SYMBOL "?relay", ZDSecMgrEntryLookupExt
ZDSecMgrEntryNew    SYMBOL "ZDSecMgrEntryNew"
??ZDSecMgrEntryNew?relay SYMBOL "?relay", ZDSecMgrEntryNew
ZDSecMgrEstablishKey SYMBOL "ZDSecMgrEstablishKey"
??ZDSecMgrEstablishKey?relay SYMBOL "?relay", ZDSecMgrEstablishKey
ZDSecMgrEstablishKeyCfm SYMBOL "ZDSecMgrEstablishKeyCfm"
??ZDSecMgrEstablishKeyCfm?relay SYMBOL "?relay", ZDSecMgrEstablishKeyCfm
ZDSecMgrEstablishKeyInd SYMBOL "ZDSecMgrEstablishKeyInd"
??ZDSecMgrEstablishKeyInd?relay SYMBOL "?relay", ZDSecMgrEstablishKeyInd
ZDSecMgrEvent       SYMBOL "ZDSecMgrEvent"
??ZDSecMgrEvent?relay SYMBOL "?relay", ZDSecMgrEvent
ZDSecMgrExtAddrLookup SYMBOL "ZDSecMgrExtAddrLookup"
??ZDSecMgrExtAddrLookup?relay SYMBOL "?relay", ZDSecMgrExtAddrLookup
ZDSecMgrExtAddrStore SYMBOL "ZDSecMgrExtAddrStore"
??ZDSecMgrExtAddrStore?relay SYMBOL "?relay", ZDSecMgrExtAddrStore
ZDSecMgrInit        SYMBOL "ZDSecMgrInit"
??ZDSecMgrInit?relay SYMBOL "?relay", ZDSecMgrInit
ZDSecMgrMasterKeyInit SYMBOL "ZDSecMgrMasterKeyInit"
??ZDSecMgrMasterKeyInit?relay SYMBOL "?relay", ZDSecMgrMasterKeyInit
ZDSecMgrMasterKeyLoad SYMBOL "ZDSecMgrMasterKeyLoad"
??ZDSecMgrMasterKeyLoad?relay SYMBOL "?relay", ZDSecMgrMasterKeyLoad
ZDSecMgrMasterKeyLookup SYMBOL "ZDSecMgrMasterKeyLookup"
??ZDSecMgrMasterKeyLookup?relay SYMBOL "?relay", ZDSecMgrMasterKeyLookup
ZDSecMgrMasterKeyStore SYMBOL "ZDSecMgrMasterKeyStore"
??ZDSecMgrMasterKeyStore?relay SYMBOL "?relay", ZDSecMgrMasterKeyStore
ZDSecMgrNewDeviceEvent SYMBOL "ZDSecMgrNewDeviceEvent"
??ZDSecMgrNewDeviceEvent?relay SYMBOL "?relay", ZDSecMgrNewDeviceEvent
ZDSecMgrPermitJoining SYMBOL "ZDSecMgrPermitJoining"
??ZDSecMgrPermitJoining?relay SYMBOL "?relay", ZDSecMgrPermitJoining
ZDSecMgrPermitJoiningTimeout SYMBOL "ZDSecMgrPermitJoiningTimeout"
??ZDSecMgrPermitJoiningTimeout?relay SYMBOL "?relay", ZDSecMgrPermitJoiningTimeout
ZDSecMgrRemoveDeviceInd SYMBOL "ZDSecMgrRemoveDeviceInd"
??ZDSecMgrRemoveDeviceInd?relay SYMBOL "?relay", ZDSecMgrRemoveDeviceInd
ZDSecMgrRequestAppKey SYMBOL "ZDSecMgrRequestAppKey"
??ZDSecMgrRequestAppKey?relay SYMBOL "?relay", ZDSecMgrRequestAppKey
ZDSecMgrRequestKeyInd SYMBOL "ZDSecMgrRequestKeyInd"
??ZDSecMgrRequestKeyInd?relay SYMBOL "?relay", ZDSecMgrRequestKeyInd
ZDSecMgrSendMasterKey SYMBOL "ZDSecMgrSendMasterKey"
??ZDSecMgrSendMasterKey?relay SYMBOL "?relay", ZDSecMgrSendMasterKey
ZDSecMgrSendNwkKey  SYMBOL "ZDSecMgrSendNwkKey"
??ZDSecMgrSendNwkKey?relay SYMBOL "?relay", ZDSecMgrSendNwkKey
ZDSecMgrSetupPartner SYMBOL "ZDSecMgrSetupPartner"
??ZDSecMgrSetupPartner?relay SYMBOL "?relay", ZDSecMgrSetupPartner
ZDSecMgrSwitchKeyInd SYMBOL "ZDSecMgrSwitchKeyInd"
??ZDSecMgrSwitchKeyInd?relay SYMBOL "?relay", ZDSecMgrSwitchKeyInd
ZDSecMgrTCDataLoad  SYMBOL "ZDSecMgrTCDataLoad"
??ZDSecMgrTCDataLoad?relay SYMBOL "?relay", ZDSecMgrTCDataLoad
ZDSecMgrTCExtAddrCheck SYMBOL "ZDSecMgrTCExtAddrCheck"
??ZDSecMgrTCExtAddrCheck?relay SYMBOL "?relay", ZDSecMgrTCExtAddrCheck
ZDSecMgrTransportKeyInd SYMBOL "ZDSecMgrTransportKeyInd"
??ZDSecMgrTransportKeyInd?relay SYMBOL "?relay", ZDSecMgrTransportKeyInd
ZDSecMgrUpdateDeviceInd SYMBOL "ZDSecMgrUpdateDeviceInd"
??ZDSecMgrUpdateDeviceInd?relay SYMBOL "?relay", ZDSecMgrUpdateDeviceInd

        EXTERN ??APSME_AuthenticateReq?relay
        FUNCTION ??APSME_AuthenticateReq?relay,00H
        EXTERN ??APSME_EstablishKeyReq?relay
        FUNCTION ??APSME_EstablishKeyReq?relay,00H
        EXTERN ??APSME_EstablishKeyRsp?relay
        FUNCTION ??APSME_EstablishKeyRsp?relay,00H
        EXTERN ??APSME_LookupExtAddr?relay
        FUNCTION ??APSME_LookupExtAddr?relay,00H
        EXTERN ??APSME_LookupNwkAddr?relay
        FUNCTION ??APSME_LookupNwkAddr?relay,00H
        EXTERN ??APSME_RemoveDeviceReq?relay
        FUNCTION ??APSME_RemoveDeviceReq?relay,00H
        EXTERN ??APSME_RequestKeyReq?relay
        FUNCTION ??APSME_RequestKeyReq?relay,00H
        EXTERN ??APSME_SecurityNM?relay
        FUNCTION ??APSME_SecurityNM?relay,00H
        EXTERN ??APSME_TransportKeyReq?relay
        FUNCTION ??APSME_TransportKeyReq?relay,00H
        EXTERN ??APSME_UpdateDeviceReq?relay
        FUNCTION ??APSME_UpdateDeviceReq?relay,00H
        EXTERN ??AddrMgrEntryGet?relay
        FUNCTION ??AddrMgrEntryGet?relay,00H
        EXTERN ??AddrMgrEntryLookupExt?relay
        FUNCTION ??AddrMgrEntryLookupExt?relay,00H
        EXTERN ??AddrMgrEntryLookupNwk?relay
        FUNCTION ??AddrMgrEntryLookupNwk?relay,00H
        EXTERN ??AddrMgrEntryRelease?relay
        FUNCTION ??AddrMgrEntryRelease?relay,00H
        EXTERN ??AddrMgrEntryUpdate?relay
        FUNCTION ??AddrMgrEntryUpdate?relay,00H
        EXTERN ??AddrMgrExtAddrEqual?relay
        FUNCTION ??AddrMgrExtAddrEqual?relay,00H
        EXTERN ??AddrMgrExtAddrLookup?relay
        FUNCTION ??AddrMgrExtAddrLookup?relay,00H
        EXTERN ??AddrMgrExtAddrSet?relay
        FUNCTION ??AddrMgrExtAddrSet?relay,00H
        EXTERN ??AddrMgrExtAddrValid?relay
        FUNCTION ??AddrMgrExtAddrValid?relay,00H
        EXTERN ??AssocGetWithExt?relay
        FUNCTION ??AssocGetWithExt?relay,00H
        EXTERN ??AssocGetWithShort?relay
        FUNCTION ??AssocGetWithShort?relay,00H
        EXTERN ??AssocMatchDeviceStatus?relay
        FUNCTION ??AssocMatchDeviceStatus?relay,00H
        EXTERN ??AssocRemove?relay
        FUNCTION ??AssocRemove?relay,00H
        EXTERN ??NLME_GetShortAddr?relay
        FUNCTION ??NLME_GetShortAddr?relay,00H
        EXTERN ??NLME_LeaveReq?relay
        FUNCTION ??NLME_LeaveReq?relay,00H
        EXTERN ??SSP_GetTrueRand?relay
        FUNCTION ??SSP_GetTrueRand?relay,00H
        EXTERN ??SSP_SwitchNwkKey?relay
        FUNCTION ??SSP_SwitchNwkKey?relay,00H
        EXTERN ??SSP_UpdateNwkKey?relay
        FUNCTION ??SSP_UpdateNwkKey?relay,00H
        EXTERN ??ZDApp_NVUpdate?relay
        FUNCTION ??ZDApp_NVUpdate?relay,00H
        EXTERN ??ZDP_IEEEAddrReq?relay
        FUNCTION ??ZDP_IEEEAddrReq?relay,00H
        EXTERN ??ZDP_NwkAddrReq?relay
        FUNCTION ??ZDP_NwkAddrReq?relay,00H
        EXTERN ??osal_mem_alloc?relay
        FUNCTION ??osal_mem_alloc?relay,00H
        EXTERN ??osal_memcpy?relay
        FUNCTION ??osal_memcpy?relay,00H
        EXTERN ??osal_memset?relay
        FUNCTION ??osal_memset?relay,00H
        EXTERN ??osal_nv_item_init?relay
        FUNCTION ??osal_nv_item_init?relay,00H
        EXTERN ??osal_nv_read?relay
        FUNCTION ??osal_nv_read?relay,00H
        EXTERN ??osal_nv_write?relay
        FUNCTION ??osal_nv_write?relay,00H
        EXTERN ??osal_set_event?relay
        FUNCTION ??osal_set_event?relay,00H
        EXTERN ??osal_start_timerEx?relay
        FUNCTION ??osal_start_timerEx?relay,00H
        EXTERN APSME_AuthenticateReq
        FUNCTION APSME_AuthenticateReq,0202H
        ARGFRAME ISTACK, 0, STACK
        ARGFRAME PSTACK, 0, STACK
        ARGFRAME XSTACK, 32, STACK
        ARGFRAME IOVERLAY, 0, STATIC
        ARGFRAME DOVERLAY, 0, STATIC
        EXTERN APSME_EstablishKeyReq
        FUNCTION APSME_EstablishKeyReq,0202H
        ARGFRAME ISTACK, 0, STACK
        ARGFRAME PSTACK, 0, STACK
        ARGFRAME XSTACK, 17, STACK
        ARGFRAME IOVERLAY, 0, STATIC
        ARGFRAME DOVERLAY, 0, STATIC
        EXTERN APSME_EstablishKeyRsp
        FUNCTION APSME_EstablishKeyRsp,0202H
        ARGFRAME ISTACK, 0, STACK
        ARGFRAME PSTACK, 0, STACK
        ARGFRAME XSTACK, 29, STACK
        ARGFRAME IOVERLAY, 0, STATIC
        ARGFRAME DOVERLAY, 0, STATIC
        EXTERN APSME_LookupExtAddr
        FUNCTION APSME_LookupExtAddr,0202H
        ARGFRAME ISTACK, 0, STACK
        ARGFRAME PSTACK, 0, STACK
        ARGFRAME XSTACK, 60, STACK
        ARGFRAME IOVERLAY, 0, STATIC
        ARGFRAME DOVERLAY, 0, STATIC
        EXTERN APSME_LookupNwkAddr
        FUNCTION APSME_LookupNwkAddr,0202H
        ARGFRAME ISTACK, 0, STACK
        ARGFRAME PSTACK, 0, STACK
        ARGFRAME XSTACK, 49, STACK
        ARGFRAME IOVERLAY, 0, STATIC
        ARGFRAME DOVERLAY, 0, STATIC
        EXTERN APSME_RemoveDeviceReq
        FUNCTION APSME_RemoveDeviceReq,0202H
        ARGFRAME ISTACK, 0, STACK
        ARGFRAME PSTACK, 0, STACK
        ARGFRAME XSTACK, 19, STACK
        ARGFRAME IOVERLAY, 0, STATIC
        ARGFRAME DOVERLAY, 0, STATIC
        EXTERN APSME_RequestKeyReq
        FUNCTION APSME_RequestKeyReq,0202H
        ARGFRAME ISTACK, 2, STACK
        ARGFRAME PSTACK, 0, STACK
        ARGFRAME XSTACK, 12, STACK
        ARGFRAME IOVERLAY, 0, STATIC
        ARGFRAME DOVERLAY, 0, STATIC
        EXTERN APSME_SecurityNM
        FUNCTION APSME_SecurityNM,0202H
        ARGFRAME ISTACK, 2, STACK
        ARGFRAME PSTACK, 0, STACK
        ARGFRAME XSTACK, 0, STACK
        ARGFRAME IOVERLAY, 0, STATIC
        ARGFRAME DOVERLAY, 0, STATIC
        EXTERN APSME_TransportKeyReq
        FUNCTION APSME_TransportKeyReq,0202H
        ARGFRAME ISTACK, 0, STACK
        ARGFRAME PSTACK, 0, STACK
        ARGFRAME XSTACK, 49, STACK
        ARGFRAME IOVERLAY, 0, STATIC
        ARGFRAME DOVERLAY, 0, STATIC
        EXTERN APSME_UpdateDeviceReq
        FUNCTION APSME_UpdateDeviceReq,0202H
        ARGFRAME ISTACK, 2, STACK
        ARGFRAME PSTACK, 0, STACK
        ARGFRAME XSTACK, 8, STACK
        ARGFRAME IOVERLAY, 0, STATIC
        ARGFRAME DOVERLAY, 0, STATIC
        EXTERN AddrMgrEntryGet
        FUNCTION AddrMgrEntryGet,0202H
        ARGFRAME ISTACK, 0, STACK
        ARGFRAME PSTACK, 0, STACK
        ARGFRAME XSTACK, 35, STACK
        ARGFRAME IOVERLAY, 0, STATIC
        ARGFRAME DOVERLAY, 0, STATIC
        EXTERN AddrMgrEntryLookupExt
        FUNCTION AddrMgrEntryLookupExt,0202H
        ARGFRAME ISTACK, 0, STACK
        ARGFRAME PSTACK, 0, STACK
        ARGFRAME XSTACK, 22, STACK
        ARGFRAME IOVERLAY, 0, STATIC
        ARGFRAME DOVERLAY, 0, STATIC
        EXTERN AddrMgrEntryLookupNwk
        FUNCTION AddrMgrEntryLookupNwk,0202H
        ARGFRAME ISTACK, 0, STACK
        ARGFRAME PSTACK, 0, STACK
        ARGFRAME XSTACK, 60, STACK
        ARGFRAME IOVERLAY, 0, STATIC
        ARGFRAME DOVERLAY, 0, STATIC
        EXTERN AddrMgrEntryRelease
        FUNCTION AddrMgrEntryRelease,0202H
        ARGFRAME ISTACK, 0, STACK
        ARGFRAME PSTACK, 0, STACK
        ARGFRAME XSTACK, 60, STACK
        ARGFRAME IOVERLAY, 0, STATIC
        ARGFRAME DOVERLAY, 0, STATIC
        EXTERN AddrMgrEntryUpdate
        FUNCTION AddrMgrEntryUpdate,0202H
        ARGFRAME ISTACK, 0, STACK
        ARGFRAME PSTACK, 0, STACK
        ARGFRAME XSTACK, 32, STACK
        ARGFRAME IOVERLAY, 0, STATIC
        ARGFRAME DOVERLAY, 0, STATIC
        EXTERN AddrMgrExtAddrEqual
        FUNCTION AddrMgrExtAddrEqual,0202H
        ARGFRAME ISTACK, 0, STACK
        ARGFRAME PSTACK, 0, STACK
        ARGFRAME XSTACK, 60, STACK
        ARGFRAME IOVERLAY, 0, STATIC
        ARGFRAME DOVERLAY, 0, STATIC
        EXTERN AddrMgrExtAddrLookup
        FUNCTION AddrMgrExtAddrLookup,0202H
        ARGFRAME ISTACK, 2, STACK
        ARGFRAME PSTACK, 0, STACK
        ARGFRAME XSTACK, 17, STACK
        ARGFRAME IOVERLAY, 0, STATIC
        ARGFRAME DOVERLAY, 0, STATIC
        EXTERN AddrMgrExtAddrSet
        FUNCTION AddrMgrExtAddrSet,0202H
        ARGFRAME ISTACK, 0, STACK
        ARGFRAME PSTACK, 0, STACK
        ARGFRAME XSTACK, 32, STACK
        ARGFRAME IOVERLAY, 0, STATIC
        ARGFRAME DOVERLAY, 0, STATIC
        EXTERN AddrMgrExtAddrValid
        FUNCTION AddrMgrExtAddrValid,0202H
        ARGFRAME ISTACK, 0, STACK
        ARGFRAME PSTACK, 0, STACK
        ARGFRAME XSTACK, 60, STACK
        ARGFRAME IOVERLAY, 0, STATIC
        ARGFRAME DOVERLAY, 0, STATIC
        EXTERN AssocGetWithExt
        FUNCTION AssocGetWithExt,0202H
        ARGFRAME ISTACK, 0, STACK
        ARGFRAME PSTACK, 0, STACK
        ARGFRAME XSTACK, 19, STACK
        ARGFRAME IOVERLAY, 0, STATIC
        ARGFRAME DOVERLAY, 0, STATIC
        EXTERN AssocGetWithShort
        FUNCTION AssocGetWithShort,0202H
        ARGFRAME ISTACK, 0, STACK
        ARGFRAME PSTACK, 0, STACK
        ARGFRAME XSTACK, 9, STACK
        ARGFRAME IOVERLAY, 0, STATIC
        ARGFRAME DOVERLAY, 0, STATIC
        EXTERN AssocMatchDeviceStatus
        FUNCTION AssocMatchDeviceStatus,0202H
        ARGFRAME ISTACK, 0, STACK
        ARGFRAME PSTACK, 0, STACK
        ARGFRAME XSTACK, 35, STACK
        ARGFRAME IOVERLAY, 0, STATIC
        ARGFRAME DOVERLAY, 0, STATIC
        EXTERN AssocRemove
        FUNCTION AssocRemove,0202H
        ARGFRAME ISTACK, 0, STACK
        ARGFRAME PSTACK, 0, STACK
        ARGFRAME XSTACK, 35, STACK
        ARGFRAME IOVERLAY, 0, STATIC
        ARGFRAME DOVERLAY, 0, STATIC
        EXTERN NLME_GetShortAddr
        FUNCTION NLME_GetShortAddr,0202H
        ARGFRAME ISTACK, 0, STACK
        ARGFRAME PSTACK, 0, STACK
        ARGFRAME XSTACK, 35, STACK
        ARGFRAME IOVERLAY, 0, STATIC
        ARGFRAME DOVERLAY, 0, STATIC
        EXTERN NLME_LeaveReq
        FUNCTION NLME_LeaveReq,0202H
        ARGFRAME ISTACK, 0, STACK
        ARGFRAME PSTACK, 0, STACK
        ARGFRAME XSTACK, 19, STACK
        ARGFRAME IOVERLAY, 0, STATIC
        ARGFRAME DOVERLAY, 0, STATIC
        EXTERN SSP_GetTrueRand
        FUNCTION SSP_GetTrueRand,0202H
        ARGFRAME ISTACK, 0, STACK
        ARGFRAME PSTACK, 0, STACK
        ARGFRAME XSTACK, 49, STACK
        ARGFRAME IOVERLAY, 0, STATIC
        ARGFRAME DOVERLAY, 0, STATIC
        EXTERN SSP_SwitchNwkKey
        FUNCTION SSP_SwitchNwkKey,0202H
        ARGFRAME ISTACK, 2, STACK
        ARGFRAME PSTACK, 0, STACK
        ARGFRAME XSTACK, 10, STACK
        ARGFRAME IOVERLAY, 0, STATIC
        ARGFRAME DOVERLAY, 0, STATIC
        EXTERN SSP_UpdateNwkKey
        FUNCTION SSP_UpdateNwkKey,0202H
        ARGFRAME ISTACK, 0, STACK
        ARGFRAME PSTACK, 0, STACK
        ARGFRAME XSTACK, 10, STACK
        ARGFRAME IOVERLAY, 0, STATIC
        ARGFRAME DOVERLAY, 0, STATIC
        EXTERN ZDAppTaskID
        EXTERN ZDApp_NVUpdate
        FUNCTION ZDApp_NVUpdate,0202H
        ARGFRAME ISTACK, 2, STACK
        ARGFRAME PSTACK, 0, STACK
        ARGFRAME XSTACK, 0, STACK
        ARGFRAME IOVERLAY, 0, STATIC
        ARGFRAME DOVERLAY, 0, STATIC
        EXTERN ZDP_IEEEAddrReq
        FUNCTION ZDP_IEEEAddrReq,0202H
        ARGFRAME ISTACK, 0, STACK
        ARGFRAME PSTACK, 0, STACK
        ARGFRAME XSTACK, 24, STACK
        ARGFRAME IOVERLAY, 0, STATIC
        ARGFRAME DOVERLAY, 0, STATIC
        EXTERN ZDP_NwkAddrReq
        FUNCTION ZDP_NwkAddrReq,0202H
        ARGFRAME ISTACK, 0, STACK
        ARGFRAME PSTACK, 0, STACK
        ARGFRAME XSTACK, 24, STACK
        ARGFRAME IOVERLAY, 0, STATIC
        ARGFRAME DOVERLAY, 0, STATIC
        EXTERN _NIB
        EXTERN defaultTCLinkKey
        EXTERN devState
        EXTERN osal_mem_alloc
        FUNCTION osal_mem_alloc,0202H
        ARGFRAME ISTACK, 2, STACK
        ARGFRAME PSTACK, 0, STACK
        ARGFRAME XSTACK, 0, STACK
        ARGFRAME IOVERLAY, 0, STATIC
        ARGFRAME DOVERLAY, 0, STATIC
        EXTERN osal_memcpy
        FUNCTION osal_memcpy,0202H
        ARGFRAME ISTACK, 0, STACK
        ARGFRAME PSTACK, 0, STACK
        ARGFRAME XSTACK, 63, STACK
        ARGFRAME IOVERLAY, 0, STATIC
        ARGFRAME DOVERLAY, 0, STATIC
        EXTERN osal_memset
        FUNCTION osal_memset,0202H
        ARGFRAME ISTACK, 0, STACK
        ARGFRAME PSTACK, 0, STACK
        ARGFRAME XSTACK, 43, STACK
        ARGFRAME IOVERLAY, 0, STATIC
        ARGFRAME DOVERLAY, 0, STATIC
        EXTERN osal_nv_item_init
        FUNCTION osal_nv_item_init,0202H
        ARGFRAME ISTACK, 0, STACK
        ARGFRAME PSTACK, 0, STACK
        ARGFRAME XSTACK, 45, STACK
        ARGFRAME IOVERLAY, 0, STATIC
        ARGFRAME DOVERLAY, 0, STATIC
        EXTERN osal_nv_read
        FUNCTION osal_nv_read,0202H
        ARGFRAME ISTACK, 0, STACK
        ARGFRAME PSTACK, 0, STACK
        ARGFRAME XSTACK, 64, STACK
        ARGFRAME IOVERLAY, 0, STATIC
        ARGFRAME DOVERLAY, 0, STATIC
        EXTERN osal_nv_write
        FUNCTION osal_nv_write,0202H
        ARGFRAME ISTACK, 0, STACK
        ARGFRAME PSTACK, 0, STACK
        ARGFRAME XSTACK, 64, STACK
        ARGFRAME IOVERLAY, 0, STATIC
        ARGFRAME DOVERLAY, 0, STATIC
        EXTERN osal_set_event
        FUNCTION osal_set_event,0202H
        ARGFRAME ISTACK, 2, STACK
        ARGFRAME PSTACK, 0, STACK
        ARGFRAME XSTACK, 0, STACK
        ARGFRAME IOVERLAY, 0, STATIC
        ARGFRAME DOVERLAY, 0, STATIC
        EXTERN osal_start_timerEx
        FUNCTION osal_start_timerEx,0202H
        ARGFRAME ISTACK, 0, STACK
        ARGFRAME PSTACK, 0, STACK
        ARGFRAME XSTACK, 33, STACK
        ARGFRAME IOVERLAY, 0, STATIC
        ARGFRAME DOVERLAY, 0, STATIC
        EXTERN zgPreConfigKey
        EXTERN zgPreConfigKeys
        EXTERN zgSecurePermitJoin
        EXTERN zgUseDefaultTCLK

// C:\Users\ArnoldWorkStation\Desktop\ZigbeeTest\Components\stack\zdo\ZDSecMgr.c
//    1 /**************************************************************************************************
//    2   Filename:       ZDSecMgr.c
//    3   Revised:        $Date: 2010-01-08 13:29:59 -0800 (Fri, 08 Jan 2010) $
//    4   Revision:       $Revision: 21465 $
//    5 
//    6   Description:    The ZigBee Device Security Manager.
//    7 
//    8 
//    9   Copyright 2005-2009 Texas Instruments Incorporated. All rights reserved.
//   10 
//   11   IMPORTANT: Your use of this Software is limited to those specific rights
//   12   granted under the terms of a software license agreement between the user
//   13   who downloaded the software, his/her employer (which must be your employer)
//   14   and Texas Instruments Incorporated (the "License").  You may not use this
//   15   Software unless you agree to abide by the terms of the License. The License
//   16   limits your use, and you acknowledge, that the Software may not be modified,
//   17   copied or distributed unless embedded on a Texas Instruments microcontroller
//   18   or used solely and exclusively in conjunction with a Texas Instruments radio
//   19   frequency transceiver, which is integrated into your product.  Other than for
//   20   the foregoing purpose, you may not use, reproduce, copy, prepare derivative
//   21   works of, modify, distribute, perform, display or sell this Software and/or
//   22   its documentation for any purpose.
//   23 
//   24   YOU FURTHER ACKNOWLEDGE AND AGREE THAT THE SOFTWARE AND DOCUMENTATION ARE
//   25   PROVIDED AS IS WITHOUT WARRANTY OF ANY KIND, EITHER EXPRESS OR IMPLIED,
//   26   INCLUDING WITHOUT LIMITATION, ANY WARRANTY OF MERCHANTABILITY, TITLE,
//   27   NON-INFRINGEMENT AND FITNESS FOR A PARTICULAR PURPOSE. IN NO EVENT SHALL
//   28   TEXAS INSTRUMENTS OR ITS LICENSORS BE LIABLE OR OBLIGATED UNDER CONTRACT,
//   29   NEGLIGENCE, STRICT LIABILITY, CONTRIBUTION, BREACH OF WARRANTY, OR OTHER
//   30   LEGAL EQUITABLE THEORY ANY DIRECT OR INDIRECT DAMAGES OR EXPENSES
//   31   INCLUDING BUT NOT LIMITED TO ANY INCIDENTAL, SPECIAL, INDIRECT, PUNITIVE
//   32   OR CONSEQUENTIAL DAMAGES, LOST PROFITS OR LOST DATA, COST OF PROCUREMENT
//   33   OF SUBSTITUTE GOODS, TECHNOLOGY, SERVICES, OR ANY CLAIMS BY THIRD PARTIES
//   34   (INCLUDING BUT NOT LIMITED TO ANY DEFENSE THEREOF), OR OTHER SIMILAR COSTS.
//   35 
//   36   Should you have any questions regarding your right to use this Software,
//   37   contact Texas Instruments Incorporated at www.TI.com.
//   38 **************************************************************************************************/
//   39 
//   40 #ifdef __cplusplus
//   41 extern "C"
//   42 {
//   43 #endif
//   44 
//   45 /******************************************************************************
//   46  * INCLUDES
//   47  */
//   48 #include "ZComdef.h"
//   49 #include "OSAL.h"
//   50 #include "OSAL_NV.h"
//   51 #include "ZGlobals.h"
//   52 #include "ssp.h"
//   53 #include "nwk_globals.h"
//   54 #include "nwk.h"
//   55 #include "NLMEDE.h"
//   56 #include "AddrMgr.h"
//   57 #include "AssocList.h"
//   58 #include "APSMEDE.h"
//   59 #include "AF.h"
//   60 #include "ZDConfig.h"
//   61 #include "ZDApp.h"
//   62 #include "ZDSecMgr.h"
//   63 
//   64 
//   65 /******************************************************************************
//   66  * CONSTANTS
//   67  */
//   68 // maximum number of devices managed by this Security Manager
//   69 #if !defined ( ZDSECMGR_DEVICE_MAX )
//   70   #define ZDSECMGR_DEVICE_MAX 3
//   71 #endif
//   72 
//   73 // total number of preconfigured devices (EXT address, MASTER key)
//   74 //devtag.pro.security
//   75 //#define ZDSECMGR_PRECONFIG_MAX ZDSECMGR_DEVICE_MAX
//   76 #define ZDSECMGR_PRECONFIG_MAX 0
//   77 
//   78 // maximum number of MASTER keys this device may hold
//   79 #define ZDSECMGR_MASTERKEY_MAX ZDSECMGR_DEVICE_MAX
//   80 
//   81 // maximum number of LINK keys this device may store
//   82 #define ZDSECMGR_ENTRY_MAX ZDSECMGR_DEVICE_MAX
//   83 
//   84 // total number of devices under control - authentication, SKKE, etc.
//   85 #define ZDSECMGR_CTRL_MAX ZDSECMGR_DEVICE_MAX
//   86 
//   87 // total number of stored devices
//   88 #if !defined ( ZDSECMGR_STORED_DEVICES )
//   89   #define ZDSECMGR_STORED_DEVICES 3
//   90 #endif
//   91   
//   92 // Total number of preconfigured trust center link key
//   93 #if !defined ( ZDSECMGR_TC_DEVICE_MAX )
//   94   #define ZDSECMGR_TC_DEVICE_MAX 1
//   95 #endif
//   96   
//   97 #if ( ZDSECMGR_TC_DEVICE_MAX < 1 ) || ( ZDSECMGR_TC_DEVICE_MAX > 255 )
//   98   #error "ZDSECMGR_TC_DEVICE_MAX shall be between 1 and 255 !"
//   99 #endif
//  100   
//  101 #define ZDSECMGR_CTRL_NONE       0
//  102 #define ZDSECMGR_CTRL_INIT       1
//  103 #define ZDSECMGR_CTRL_TK_MASTER  2
//  104 #define ZDSECMGR_CTRL_SKKE_INIT  3
//  105 #define ZDSECMGR_CTRL_SKKE_WAIT  4
//  106 #define ZDSECMGR_CTRL_SKKE_DONE  5
//  107 #define ZDSECMGR_CTRL_SKKE_FAIL  6
//  108 #define ZDSECMGR_CTRL_TK_NWK     7
//  109 
//  110 #define ZDSECMGR_CTRL_BASE_CNTR      1
//  111 #define ZDSECMGR_CTRL_SKKE_INIT_CNTR 1
//  112 #define ZDSECMGR_CTRL_TK_NWK_CNTR    1
//  113 
//  114 // set SKA slot maximum
//  115 #define ZDSECMGR_SKA_SLOT_MAX 1
//  116 
//  117 // APSME Stub Implementations
//  118 #define ZDSecMgrMasterKeyGet   APSME_MasterKeyGet
//  119 #define ZDSecMgrLinkKeySet     APSME_LinkKeySet
//  120 #define ZDSecMgrLinkKeyDataGet APSME_LinkKeyDataGet
//  121 #define ZDSecMgrKeyFwdToChild  APSME_KeyFwdToChild
//  122 
//  123 #if !defined( MAX_APS_FRAMECOUNTER_CHANGES )
//  124   // The number of times the frame counter can change before
//  125   // saving to NV
//  126   #define MAX_APS_FRAMECOUNTER_CHANGES    10
//  127 #endif
//  128 
//  129 /******************************************************************************
//  130  * TYPEDEFS
//  131  */
//  132 typedef struct
//  133 {
//  134   uint8 extAddr[Z_EXTADDR_LEN];
//  135   uint8 key[SEC_KEY_LEN];
//  136 } ZDSecMgrPreConfigData_t;
//  137 
//  138 typedef struct
//  139 {
//  140   uint16 ami;
//  141   uint8  key[SEC_KEY_LEN];
//  142 } ZDSecMgrMasterKeyData_t;
//  143 
//  144 //should match APSME_LinkKeyData_t;
//  145 typedef struct
//  146 {
//  147   uint8               key[SEC_KEY_LEN];
//  148   APSME_LinkKeyData_t apsmelkd;
//  149 } ZDSecMgrLinkKeyData_t;
//  150 
//  151 typedef struct
//  152 {
//  153   uint16                ami;
//  154   ZDSecMgrLinkKeyData_t lkd;
//  155   ZDSecMgr_Authentication_Option authenticateOption;
//  156 } ZDSecMgrEntry_t;
//  157 
//  158 typedef struct
//  159 {
//  160   ZDSecMgrEntry_t* entry;
//  161   uint16           parentAddr;
//  162   uint8            secure;
//  163   uint8            state;
//  164   uint8            cntr;
//  165   //uint8          next;
//  166 } ZDSecMgrCtrl_t;
//  167 
//  168 typedef struct
//  169 {
//  170   uint16          nwkAddr;
//  171   uint8*          extAddr;
//  172   uint16          parentAddr;
//  173   uint8           secure;
//  174   uint8           devStatus;
//  175   ZDSecMgrCtrl_t* ctrl;
//  176 } ZDSecMgrDevice_t;
//  177 
//  178 /******************************************************************************
//  179  * LOCAL VARIABLES
//  180  */
//  181 #if 0 // Taken out because the following functionality is only used for test
//  182       // purpose. A more efficient (above) way is used. It can be put
//  183       // back in if customers request for a white/black list feature.
//  184 uint8 ZDSecMgrStoredDeviceList[ZDSECMGR_STORED_DEVICES][Z_EXTADDR_LEN] =
//  185 {
//  186   { 0x01, 0x00, 0x00, 0x00, 0x00, 0x00, 0x00, 0x00 },
//  187   { 0x00, 0x00, 0x00, 0x00, 0x00, 0x00, 0x00, 0x01 },
//  188   { 0x00, 0x00, 0x00, 0x00, 0x00, 0x00, 0x00, 0x00 },
//  189 };
//  190 #endif
//  191 

        RSEG XDATA_Z:XDATA:NOROOT(0)
        DATA8
//  192 uint8 ZDSecMgrTCExtAddr[Z_EXTADDR_LEN]=
ZDSecMgrTCExtAddr:
        DS 8
        REQUIRE __INIT_XDATA_Z
//  193   { 0x00, 0x00, 0x00, 0x00, 0x00, 0x00, 0x00, 0x00 };
//  194 

        RSEG XDATA_I:XDATA:NOROOT(0)
//  195 uint8 ZDSecMgrTCMasterKey[SEC_KEY_LEN] =
ZDSecMgrTCMasterKey:
        DATA8
        DS 16
        REQUIRE `?<Initializer for ZDSecMgrTCMasterKey>`
        REQUIRE __INIT_XDATA_I
//  196   {0x00,0x00,0x00,0x00,0x00,0x00,0x00,0x00,
//  197    0x89,0x67,0x45,0x23,0x01,0xEF,0xCD,0xAB};
//  198 

        RSEG XDATA_Z:XDATA:NOROOT(0)
        DATA8
//  199 uint8 ZDSecMgrTCAuthenticated = FALSE;
ZDSecMgrTCAuthenticated:
        DS 1
        REQUIRE __INIT_XDATA_Z

        RSEG XDATA_Z:XDATA:NOROOT(0)
        DATA8
//  200 uint8 ZDSecMgrTCDataLoaded    = FALSE;
ZDSecMgrTCDataLoaded:
        DS 1
        REQUIRE __INIT_XDATA_Z
//  201 
//  202 //devtag.pro.security - remove this
//  203 #if ( ZDSECMGR_PRECONFIG_MAX != 0 )
//  204 const ZDSecMgrPreConfigData_t ZDSecMgrPreConfigData[ZDSECMGR_PRECONFIG_MAX] =
//  205 {
//  206   //---------------------------------------------------------------------------
//  207   // DEVICE A
//  208   //---------------------------------------------------------------------------
//  209   {
//  210     // extAddr
//  211     {0x7C,0x01,0x12,0x13,0x14,0x15,0x16,0x17},
//  212 
//  213     // key
//  214     {0x00,0x00,0x00,0x00,0x00,0x00,0x00,0x00,
//  215      0x00,0x00,0x00,0x00,0x00,0x00,0x00,0x00}
//  216   },
//  217   //---------------------------------------------------------------------------
//  218   // DEVICE B
//  219   //---------------------------------------------------------------------------
//  220   {
//  221     // extAddr
//  222     {0x84,0x03,0x00,0x00,0x00,0x4B,0x12,0x00},
//  223 
//  224     // key
//  225     {0x00,0x00,0x00,0x00,0x00,0x00,0x00,0x00,
//  226      0x00,0x00,0x00,0x00,0x00,0x00,0x00,0x00}
//  227   },
//  228   //---------------------------------------------------------------------------
//  229   // DEVICE C
//  230   //---------------------------------------------------------------------------
//  231   {
//  232     // extAddr
//  233     {0x3E,0x01,0x12,0x13,0x14,0x15,0x16,0x17},
//  234 
//  235     // key
//  236     {0x00,0x00,0x00,0x00,0x00,0x00,0x00,0x00,
//  237      0x00,0x00,0x00,0x00,0x00,0x00,0x00,0x00}
//  238   },
//  239 };
//  240 #endif // ( ZDSECMGR_PRECONFIG_MAX != 0 )
//  241 

        RSEG XDATA_Z:XDATA:NOROOT(0)
        DATA16
//  242 ZDSecMgrMasterKeyData_t* ZDSecMgrMasterKeyData = NULL;
ZDSecMgrMasterKeyData:
        DS 2
        REQUIRE __INIT_XDATA_Z

        RSEG XDATA_Z:XDATA:NOROOT(0)
        DATA16
//  243 ZDSecMgrEntry_t*         ZDSecMgrEntries       = NULL;
ZDSecMgrEntries:
        DS 2
        REQUIRE __INIT_XDATA_Z

        RSEG XDATA_Z:XDATA:NOROOT(0)
        DATA16
//  244 ZDSecMgrCtrl_t*          ZDSecMgrCtrlData      = NULL;
ZDSecMgrCtrlData:
        DS 2
        REQUIRE __INIT_XDATA_Z
//  245 void ZDSecMgrAddrMgrUpdate( uint16 ami, uint16 nwkAddr );
//  246 void ZDSecMgrAddrMgrCB( uint8 update, AddrMgrEntry_t* newEntry, AddrMgrEntry_t* oldEntry );
//  247 

        RSEG XDATA_Z:XDATA:NOROOT(0)
        DATA8
//  248 uint8 ZDSecMgrPermitJoiningEnabled;
ZDSecMgrPermitJoiningEnabled:
        DS 1
        REQUIRE __INIT_XDATA_Z

        RSEG XDATA_Z:XDATA:NOROOT(0)
        DATA8
//  249 uint8 ZDSecMgrPermitJoiningTimed;
ZDSecMgrPermitJoiningTimed:
        DS 1
        REQUIRE __INIT_XDATA_Z
//  250 

        RSEG XDATA_Z:XDATA:NOROOT(0)
        DATA8
//  251 APSME_TCLinkKey_t TrustCenterLinkKey;
TrustCenterLinkKey:
        DS 32
        REQUIRE __INIT_XDATA_Z
//  252 
//  253 /******************************************************************************
//  254  * PRIVATE FUNCTIONS
//  255  *
//  256  *   ZDSecMgrMasterKeyInit
//  257  *   ZDSecMgrAddrStore
//  258  *   ZDSecMgrExtAddrStore
//  259  *   ZDSecMgrExtAddrLookup
//  260  *   ZDSecMgrMasterKeyLookup
//  261  *   ZDSecMgrMasterKeyStore
//  262  *   ZDSecMgrEntryInit
//  263  *   ZDSecMgrEntryLookup
//  264  *   ZDSecMgrEntryLookupAMI
//  265  *   ZDSecMgrEntryLookupExt
//  266  *   ZDSecMgrEntryFree
//  267  *   ZDSecMgrEntryNew
//  268  *   ZDSecMgrCtrlInit
//  269  *   ZDSecMgrCtrlRelease
//  270  *   ZDSecMgrCtrlLookup
//  271  *   ZDSecMgrCtrlSet
//  272  *   ZDSecMgrCtrlAdd
//  273  *   ZDSecMgrCtrlTerm
//  274  *   ZDSecMgrCtrlReset
//  275  *   ZDSecMgrMasterKeyLoad
//  276  *   ZDSecMgrAppKeyGet
//  277  *   ZDSecMgrAppKeyReq
//  278  *   ZDSecMgrEstablishKey
//  279  *   ZDSecMgrSendMasterKey
//  280  *   ZDSecMgrSendNwkKey
//  281  *   ZDSecMgrDeviceEntryRemove
//  282  *   ZDSecMgrDeviceEntryAdd
//  283  *   ZDSecMgrDeviceCtrlHandler
//  284  *   ZDSecMgrDeviceCtrlSetup
//  285  *   ZDSecMgrDeviceCtrlUpdate
//  286  *   ZDSecMgrDeviceRemove
//  287  *   ZDSecMgrDeviceValidateSKKE
//  288  *   ZDSecMgrDeviceValidateRM
//  289  *   ZDSecMgrDeviceValidateCM
//  290  *   ZDSecMgrDeviceValidate
//  291  *   ZDSecMgrDeviceJoin
//  292  *   ZDSecMgrDeviceJoinDirect
//  293  *   ZDSecMgrDeviceJoinFwd
//  294  *   ZDSecMgrDeviceNew
//  295  *   ZDSecMgrAssocDeviceAuth
//  296  *   ZDSecMgrAuthInitiate
//  297  *   ZDSecMgrAuthNwkKey
//  298  *   APSME_TCLinkKeyInit
//  299  *   APSME_IsDefaultTCLK
//  300  */
//  301 //-----------------------------------------------------------------------------
//  302 // master key data
//  303 //-----------------------------------------------------------------------------
//  304 void ZDSecMgrMasterKeyInit( void );
//  305 
//  306 //-----------------------------------------------------------------------------
//  307 // address management
//  308 //-----------------------------------------------------------------------------
//  309 ZStatus_t ZDSecMgrAddrStore( uint16 nwkAddr, uint8* extAddr, uint16* ami );
//  310 ZStatus_t ZDSecMgrExtAddrStore( uint16 nwkAddr, uint8* extAddr, uint16* ami );
//  311 ZStatus_t ZDSecMgrExtAddrLookup( uint8* extAddr, uint16* ami );
//  312 
//  313 //-----------------------------------------------------------------------------
//  314 // MASTER key data
//  315 //-----------------------------------------------------------------------------
//  316 ZStatus_t ZDSecMgrMasterKeyLookup( uint16 ami, uint8** key );
//  317 ZStatus_t ZDSecMgrMasterKeyStore( uint16 ami, uint8* key );
//  318 
//  319 //-----------------------------------------------------------------------------
//  320 // entry data
//  321 //-----------------------------------------------------------------------------
//  322 void ZDSecMgrEntryInit(uint8 state);
//  323 ZStatus_t ZDSecMgrEntryLookup( uint16 nwkAddr, ZDSecMgrEntry_t** entry );
//  324 ZStatus_t ZDSecMgrEntryLookupAMI( uint16 ami, ZDSecMgrEntry_t** entry );
//  325 ZStatus_t ZDSecMgrEntryLookupExt( uint8* extAddr, ZDSecMgrEntry_t** entry );
//  326 void ZDSecMgrEntryFree( ZDSecMgrEntry_t* entry );
//  327 ZStatus_t ZDSecMgrEntryNew( ZDSecMgrEntry_t** entry );
//  328 ZStatus_t ZDSecMgrAuthenticationSet( uint8* extAddr, ZDSecMgr_Authentication_Option option );
//  329 
//  330 //-----------------------------------------------------------------------------
//  331 // control data
//  332 //-----------------------------------------------------------------------------
//  333 void ZDSecMgrCtrlInit( void );
//  334 void ZDSecMgrCtrlRelease( ZDSecMgrCtrl_t* ctrl );
//  335 void ZDSecMgrCtrlLookup( ZDSecMgrEntry_t* entry, ZDSecMgrCtrl_t** ctrl );
//  336 void ZDSecMgrCtrlSet( ZDSecMgrDevice_t* device,
//  337                       ZDSecMgrEntry_t*  entry,
//  338                       ZDSecMgrCtrl_t*   ctrl );
//  339 ZStatus_t ZDSecMgrCtrlAdd( ZDSecMgrDevice_t* device, ZDSecMgrEntry_t*  entry );
//  340 void ZDSecMgrCtrlTerm( ZDSecMgrEntry_t* entry );
//  341 ZStatus_t ZDSecMgrCtrlReset( ZDSecMgrDevice_t* device,
//  342                              ZDSecMgrEntry_t*  entry );
//  343 
//  344 //-----------------------------------------------------------------------------
//  345 // key support
//  346 //-----------------------------------------------------------------------------
//  347 ZStatus_t ZDSecMgrMasterKeyLoad( uint8* extAddr, uint8* key );
//  348 ZStatus_t ZDSecMgrAppKeyGet( uint16  initNwkAddr,
//  349                              uint8*  initExtAddr,
//  350                              uint16  partNwkAddr,
//  351                              uint8*  partExtAddr,
//  352                              uint8** key,
//  353                              uint8*  keyType );
//  354 void ZDSecMgrAppKeyReq( ZDO_RequestKeyInd_t* ind );
//  355 ZStatus_t ZDSecMgrEstablishKey( ZDSecMgrDevice_t* device );
//  356 ZStatus_t ZDSecMgrSendMasterKey( ZDSecMgrDevice_t* device );
//  357 ZStatus_t ZDSecMgrSendNwkKey( ZDSecMgrDevice_t* device );
//  358 
//  359 //-----------------------------------------------------------------------------
//  360 // device entry
//  361 //-----------------------------------------------------------------------------
//  362 void ZDSecMgrDeviceEntryRemove( ZDSecMgrEntry_t* entry );
//  363 ZStatus_t ZDSecMgrDeviceEntryAdd( ZDSecMgrDevice_t* device, uint16 ami );
//  364 #if defined NV_RESTORE
//  365 static void ZDSecMgrWriteNV(void);
//  366 static void ZDSecMgrRestoreFromNV(void);
//  367 #endif
//  368 
//  369 //-----------------------------------------------------------------------------
//  370 // device control
//  371 //-----------------------------------------------------------------------------
//  372 void ZDSecMgrDeviceCtrlHandler( ZDSecMgrDevice_t* device );
//  373 void ZDSecMgrDeviceCtrlSetup( ZDSecMgrDevice_t* device );
//  374 void ZDSecMgrDeviceCtrlUpdate( uint8* extAddr, uint8 state );
//  375 
//  376 //-----------------------------------------------------------------------------
//  377 // device management
//  378 //-----------------------------------------------------------------------------
//  379 void ZDSecMgrDeviceRemove( ZDSecMgrDevice_t* device );
//  380 ZStatus_t ZDSecMgrDeviceValidateSKKE( ZDSecMgrDevice_t* device );
//  381 ZStatus_t ZDSecMgrDeviceValidateRM( ZDSecMgrDevice_t* device );
//  382 ZStatus_t ZDSecMgrDeviceValidateCM( ZDSecMgrDevice_t* device );
//  383 ZStatus_t ZDSecMgrDeviceValidate( ZDSecMgrDevice_t* device );
//  384 ZStatus_t ZDSecMgrDeviceJoin( ZDSecMgrDevice_t* device );
//  385 ZStatus_t ZDSecMgrDeviceJoinDirect( ZDSecMgrDevice_t* device );
//  386 ZStatus_t ZDSecMgrDeviceJoinFwd( ZDSecMgrDevice_t* device );
//  387 ZStatus_t ZDSecMgrDeviceNew( ZDSecMgrDevice_t* device );
//  388 
//  389 //-----------------------------------------------------------------------------
//  390 // association management
//  391 //-----------------------------------------------------------------------------
//  392 void ZDSecMgrAssocDeviceAuth( associated_devices_t* assoc );
//  393 
//  394 //-----------------------------------------------------------------------------
//  395 // authentication management
//  396 //-----------------------------------------------------------------------------
//  397 void ZDSecMgrAuthInitiate( uint8* responder );
//  398 void ZDSecMgrAuthNwkKey( void );
//  399 
//  400 //-----------------------------------------------------------------------------
//  401 // APSME function
//  402 //-----------------------------------------------------------------------------
//  403 void APSME_TCLinkKeyInit( void );
//  404 uint8 APSME_IsDefaultTCLK( uint8 *extAddr );
//  405 
//  406 /******************************************************************************
//  407  * @fn          ZDSecMgrMasterKeyInit                     ]
//  408  *
//  409  * @brief       Initialize master key data.
//  410  *
//  411  * @param       none
//  412  *
//  413  * @return      none
//  414  */

        RSEG BANKED_CODE:CODE:NOROOT(0)
//  415 void ZDSecMgrMasterKeyInit( void )
ZDSecMgrMasterKeyInit:
          CFI Block cfiBlock0 Using cfiCommon0
          CFI Function ZDSecMgrMasterKeyInit
        CODE
//  416 {
        FUNCALL ZDSecMgrMasterKeyInit, osal_mem_alloc
        LOCFRAME ISTACK, 2, STACK
        LOCFRAME PSTACK, 0, STACK
        LOCFRAME XSTACK, 0, STACK
        LOCFRAME IOVERLAY, 0, STATIC
        LOCFRAME DOVERLAY, 0, STATIC
        ARGFRAME ISTACK, 2, STACK
        ARGFRAME PSTACK, 0, STACK
        ARGFRAME XSTACK, 0, STACK
        ARGFRAME IOVERLAY, 0, STATIC
        ARGFRAME DOVERLAY, 0, STATIC
        PUSH    DPL
          CFI DPL0 Frame(CFA_SP, 4)
          CFI CFA_SP SP+-4
        PUSH    DPH
          CFI DPH0 Frame(CFA_SP, 5)
          CFI CFA_SP SP+-5
        ; Saved register size: 2
        ; Auto size: 0
//  417   uint16 index;
//  418   uint16 size;
//  419 
//  420   // allocate MASTER key data
//  421   size = (short)( sizeof(ZDSecMgrMasterKeyData_t) * ZDSECMGR_MASTERKEY_MAX );
//  422 
//  423   ZDSecMgrMasterKeyData = osal_mem_alloc( size );
        ; Setup parameters for call to function osal_mem_alloc
        MOV     R2,#0x36
        MOV     R3,#0x0
        LCALL   ??osal_mem_alloc?relay
        MOV     DPTR,#ZDSecMgrMasterKeyData
        LCALL   ?Subroutine36 & 0xFFFF
//  424 
//  425   // initialize MASTER key data
//  426   if ( ZDSecMgrMasterKeyData != NULL )
??CrossCallReturnLabel_36:
        MOV     DPTR,#ZDSecMgrMasterKeyData
        LCALL   ??Subroutine100_0 & 0xFFFF
??CrossCallReturnLabel_222:
        JZ      ??ZDSecMgrMasterKeyInit_0
//  427   {
//  428     for ( index = 0; index < ZDSECMGR_MASTERKEY_MAX; index++ )
        MOV     R0,#0x0
        MOV     R1,#0x0
//  429     {
//  430       ZDSecMgrMasterKeyData[index].ami = INVALID_NODE_ADDR;
??ZDSecMgrMasterKeyInit_1:
        MOV     A,R0
        MOV     R2,A
        MOV     A,R1
        MOV     R3,A
        MOV     A,R2
        MOV     B,#0x12
        MUL     AB
        MOV     R2,A
        MOV     R4,B
        MOV     B,#0x12
        MOV     A,R3
        MUL     AB
        ADD     A,R4
        MOV     R3,A
        MOV     DPTR,#ZDSecMgrMasterKeyData
        LCALL   ?Subroutine15 & 0xFFFF
//  431     }
//  432   }
??CrossCallReturnLabel_90:
        JC      ??ZDSecMgrMasterKeyInit_1
//  433 }
??ZDSecMgrMasterKeyInit_0:
        LJMP    ??Subroutine89_0 & 0xFFFF
          CFI EndBlock cfiBlock0

        RSEG BANKED_CODE:CODE:NOROOT(0)
?Subroutine15:
          CFI Block cfiCond1 Using cfiCommon0
          CFI Function ZDSecMgrMasterKeyInit
          CFI Conditional ??CrossCallReturnLabel_90
          CFI DPL0 Frame(CFA_SP, 4)
          CFI DPH0 Frame(CFA_SP, 5)
          CFI CFA_SP SP+-5
          CFI Block cfiCond2 Using cfiCommon0
          CFI (cfiCond2) Function ZDSecMgrEntryInit
          CFI (cfiCond2) Conditional ??CrossCallReturnLabel_91
          CFI (cfiCond2) DPL0 Frame(CFA_SP, 4)
          CFI (cfiCond2) DPH0 Frame(CFA_SP, 5)
          CFI (cfiCond2) CFA_SP SP+-5
          CFI Block cfiPicker3 Using cfiCommon1
          CFI (cfiPicker3) NoFunction
          CFI (cfiPicker3) Picker
        LCALL   ?Subroutine65 & 0xFFFF
??CrossCallReturnLabel_82:
        MOV     A,#-0x2
        MOVX    @DPTR,A
        INC     DPTR
        INC     A
          CFI EndBlock cfiCond1
          CFI EndBlock cfiCond2
          CFI EndBlock cfiPicker3
        REQUIRE ??Subroutine73_0
        ; // Fall through to label ??Subroutine73_0

        RSEG BANKED_CODE:CODE:NOROOT(0)
??Subroutine73_0:
          CFI Block cfiCond4 Using cfiCommon0
          CFI Function ZDSecMgrCtrlInit
          CFI Conditional ??CrossCallReturnLabel_92
          CFI DPL0 Frame(CFA_SP, 4)
          CFI DPH0 Frame(CFA_SP, 5)
          CFI CFA_SP SP+-5
          CFI Block cfiCond5 Using cfiCommon0
          CFI (cfiCond5) Function ZDSecMgrMasterKeyInit
          CFI (cfiCond5) Conditional ??CrossCallReturnLabel_90
          CFI (cfiCond5) DPL0 Frame(CFA_SP, 4)
          CFI (cfiCond5) DPH0 Frame(CFA_SP, 5)
          CFI (cfiCond5) CFA_SP SP+-5
          CFI Block cfiCond6 Using cfiCommon0
          CFI (cfiCond6) Function ZDSecMgrEntryInit
          CFI (cfiCond6) Conditional ??CrossCallReturnLabel_91
          CFI (cfiCond6) DPL0 Frame(CFA_SP, 4)
          CFI (cfiCond6) DPH0 Frame(CFA_SP, 5)
          CFI (cfiCond6) CFA_SP SP+-5
          CFI Block cfiPicker7 Using cfiCommon1
          CFI (cfiPicker7) NoFunction
          CFI (cfiPicker7) Picker
        MOVX    @DPTR,A
        LCALL   ?Subroutine70 & 0xFFFF
??CrossCallReturnLabel_93:
        RET
          CFI EndBlock cfiCond4
          CFI EndBlock cfiCond5
          CFI EndBlock cfiCond6
          CFI EndBlock cfiPicker7
//  434 //devtag.pro.security
//  435 #if 0
//  436 void ZDSecMgrMasterKeyInit( void )
//  437 {
//  438   uint16         index;
//  439   uint16         size;
//  440   AddrMgrEntry_t entry;
//  441 
//  442 
//  443   // allocate MASTER key data
//  444   size = (short)( sizeof(ZDSecMgrMasterKeyData_t) * ZDSECMGR_MASTERKEY_MAX );
//  445 
//  446   ZDSecMgrMasterKeyData = osal_mem_alloc( size );
//  447 
//  448   // initialize MASTER key data
//  449   if ( ZDSecMgrMasterKeyData != NULL )
//  450   {
//  451     for ( index = 0; index < ZDSECMGR_MASTERKEY_MAX; index++ )
//  452     {
//  453       ZDSecMgrMasterKeyData[index].ami = INVALID_NODE_ADDR;
//  454     }
//  455 
//  456     // check if preconfigured keys are enabled
//  457     //-------------------------------------------------------------------------
//  458     #if ( ZDSECMGR_PRECONFIG_MAX != 0 )
//  459     //-------------------------------------------------------------------------
//  460     if ( zgPreConfigKeys == TRUE )
//  461     {
//  462       // sync configured data
//  463       entry.user = ADDRMGR_USER_SECURITY;
//  464 
//  465       for ( index = 0; index < ZDSECMGR_PRECONFIG_MAX; index++ )
//  466       {
//  467         // check for Address Manager entry
//  468         AddrMgrExtAddrSet( entry.extAddr,
//  469                            (uint8*)ZDSecMgrPreConfigData[index].extAddr );
//  470 
//  471         if ( AddrMgrEntryLookupExt( &entry ) != TRUE )
//  472         {
//  473           // update Address Manager
//  474           AddrMgrEntryUpdate( &entry );
//  475         }
//  476 
//  477         if ( entry.index != INVALID_NODE_ADDR )
//  478         {
//  479           // sync MASTER keys with Address Manager index
//  480           ZDSecMgrMasterKeyData[index].ami = entry.index;
//  481 
//  482           osal_memcpy( ZDSecMgrMasterKeyData[index].key,
//  483                    (void*)ZDSecMgrPreConfigData[index].key, SEC_KEY_LEN );
//  484         }
//  485       }
//  486     }
//  487     //-------------------------------------------------------------------------
//  488     #endif // ( ZDSECMGR_PRECONFIG_MAX != 0 )
//  489     //-------------------------------------------------------------------------
//  490   }
//  491 }
//  492 #endif
//  493 
//  494 /******************************************************************************
//  495  * @fn          ZDSecMgrAddrStore
//  496  *
//  497  * @brief       Store device addresses.
//  498  *
//  499  * @param       nwkAddr - [in] NWK address
//  500  * @param       extAddr - [in] EXT address
//  501  * @param       ami     - [out] Address Manager index
//  502  *
//  503  * @return      ZStatus_t
//  504  */

        RSEG BANKED_CODE:CODE:NOROOT(0)
//  505 ZStatus_t ZDSecMgrAddrStore( uint16 nwkAddr, uint8* extAddr, uint16* ami )
ZDSecMgrAddrStore:
          CFI Block cfiBlock8 Using cfiCommon0
          CFI Function ZDSecMgrAddrStore
        CODE
//  506 {
        FUNCALL ZDSecMgrAddrStore, AddrMgrExtAddrSet
        LOCFRAME ISTACK, 0, STACK
        LOCFRAME PSTACK, 0, STACK
        LOCFRAME XSTACK, 22, STACK
        LOCFRAME IOVERLAY, 0, STATIC
        LOCFRAME DOVERLAY, 0, STATIC
        ARGFRAME ISTACK, 0, STACK
        ARGFRAME PSTACK, 0, STACK
        ARGFRAME XSTACK, 22, STACK
        ARGFRAME IOVERLAY, 0, STATIC
        ARGFRAME DOVERLAY, 0, STATIC
        FUNCALL ZDSecMgrAddrStore, AddrMgrEntryUpdate
        LOCFRAME ISTACK, 0, STACK
        LOCFRAME PSTACK, 0, STACK
        LOCFRAME XSTACK, 22, STACK
        LOCFRAME IOVERLAY, 0, STATIC
        LOCFRAME DOVERLAY, 0, STATIC
        ARGFRAME ISTACK, 0, STACK
        ARGFRAME PSTACK, 0, STACK
        ARGFRAME XSTACK, 22, STACK
        ARGFRAME IOVERLAY, 0, STATIC
        ARGFRAME DOVERLAY, 0, STATIC
        MOV     A,#-0x9
        LCALL   ?BANKED_ENTER_XDATA
          CFI DPH0 load(1, XDATA, add(CFA_XSP16, literal(-1)))
          CFI DPL0 load(1, XDATA, add(CFA_XSP16, literal(-2)))
          CFI ?BRET_EXT load(1, XDATA, add(CFA_XSP16, literal(-3)))
          CFI ?RET_HIGH load(1, XDATA, add(CFA_XSP16, literal(-4)))
          CFI ?RET_LOW load(1, XDATA, add(CFA_XSP16, literal(-5)))
          CFI R7 load(1, XDATA, add(CFA_XSP16, literal(-6)))
          CFI V0 load(1, XDATA, add(CFA_XSP16, literal(-7)))
          CFI VB load(1, XDATA, add(CFA_XSP16, literal(-8)))
          CFI R6 load(1, XDATA, add(CFA_XSP16, literal(-9)))
          CFI CFA_SP SP+0
          CFI CFA_XSP16 add(XSP16, 9)
        ; Saved register size: 9
        ; Auto size: 13
        MOV     A,#-0xd
        LCALL   ?ALLOC_XSTACK8
          CFI CFA_XSP16 add(XSP16, 22)
//  507   ZStatus_t      status;
//  508   AddrMgrEntry_t entry;
//  509 
//  510 
//  511   // add entry
//  512   entry.user    = ADDRMGR_USER_SECURITY;
        MOV     DPL,?XSP + 0
        MOV     DPH,?XSP + 1
        MOV     A,#0x2
        MOVX    @DPTR,A
//  513   entry.nwkAddr = nwkAddr;
        DEC     A
        LCALL   ?XSTACK_DISP0_8
        LCALL   ?Subroutine28 & 0xFFFF
//  514   AddrMgrExtAddrSet( entry.extAddr, extAddr );
??CrossCallReturnLabel_21:
        LCALL   ?XSTACK_DISP0_8
        MOV     R2,DPL
        MOV     R3,DPH
        LCALL   ??AddrMgrExtAddrSet?relay
        MOV     A,#0x16
        LCALL   ?XSTACK_DISP0_8
        LCALL   ?Subroutine40 & 0xFFFF
//  515 
//  516   if ( AddrMgrEntryUpdate( &entry ) == TRUE )
??CrossCallReturnLabel_45:
        LCALL   ??AddrMgrEntryUpdate?relay
        MOV     A,R1
        XRL     A,#0x1
        JNZ     ??ZDSecMgrAddrStore_0
//  517   {
//  518     // return successful results
//  519     *ami   = entry.index;
        MOV     A,#0xb
        LCALL   ?XSTACK_DISP0_8
        LCALL   ?Subroutine30 & 0xFFFF
//  520     status = ZSuccess;
//  521   }
??CrossCallReturnLabel_24:
        SJMP    ??CrossCallReturnLabel_27
//  522   else
//  523   {
//  524     // return failed results
//  525     *ami   = entry.index;
??ZDSecMgrAddrStore_0:
        MOV     A,#0xb
        LCALL   ?XSTACK_DISP0_8
        LCALL   ?Subroutine31 & 0xFFFF
//  526     status = ZNwkUnknownDevice;
//  527   }
//  528 
//  529   return status;
??CrossCallReturnLabel_27:
        LJMP    ?Subroutine8 & 0xFFFF
          CFI EndBlock cfiBlock8
//  530 }
//  531 
//  532 /******************************************************************************
//  533  * @fn          ZDSecMgrExtAddrStore
//  534  *
//  535  * @brief       Store EXT address.
//  536  *
//  537  * @param       extAddr - [in] EXT address
//  538  * @param       ami     - [out] Address Manager index
//  539  *
//  540  * @return      ZStatus_t
//  541  */

        RSEG BANKED_CODE:CODE:NOROOT(0)
//  542 ZStatus_t ZDSecMgrExtAddrStore( uint16 nwkAddr, uint8* extAddr, uint16* ami )
ZDSecMgrExtAddrStore:
          CFI Block cfiBlock9 Using cfiCommon0
          CFI Function ZDSecMgrExtAddrStore
        CODE
//  543 {
        FUNCALL ZDSecMgrExtAddrStore, AddrMgrExtAddrSet
        LOCFRAME ISTACK, 0, STACK
        LOCFRAME PSTACK, 0, STACK
        LOCFRAME XSTACK, 22, STACK
        LOCFRAME IOVERLAY, 0, STATIC
        LOCFRAME DOVERLAY, 0, STATIC
        ARGFRAME ISTACK, 0, STACK
        ARGFRAME PSTACK, 0, STACK
        ARGFRAME XSTACK, 22, STACK
        ARGFRAME IOVERLAY, 0, STATIC
        ARGFRAME DOVERLAY, 0, STATIC
        FUNCALL ZDSecMgrExtAddrStore, AddrMgrEntryUpdate
        LOCFRAME ISTACK, 0, STACK
        LOCFRAME PSTACK, 0, STACK
        LOCFRAME XSTACK, 22, STACK
        LOCFRAME IOVERLAY, 0, STATIC
        LOCFRAME DOVERLAY, 0, STATIC
        ARGFRAME ISTACK, 0, STACK
        ARGFRAME PSTACK, 0, STACK
        ARGFRAME XSTACK, 22, STACK
        ARGFRAME IOVERLAY, 0, STATIC
        ARGFRAME DOVERLAY, 0, STATIC
        MOV     A,#-0x9
        LCALL   ?BANKED_ENTER_XDATA
          CFI DPH0 load(1, XDATA, add(CFA_XSP16, literal(-1)))
          CFI DPL0 load(1, XDATA, add(CFA_XSP16, literal(-2)))
          CFI ?BRET_EXT load(1, XDATA, add(CFA_XSP16, literal(-3)))
          CFI ?RET_HIGH load(1, XDATA, add(CFA_XSP16, literal(-4)))
          CFI ?RET_LOW load(1, XDATA, add(CFA_XSP16, literal(-5)))
          CFI R7 load(1, XDATA, add(CFA_XSP16, literal(-6)))
          CFI V0 load(1, XDATA, add(CFA_XSP16, literal(-7)))
          CFI VB load(1, XDATA, add(CFA_XSP16, literal(-8)))
          CFI R6 load(1, XDATA, add(CFA_XSP16, literal(-9)))
          CFI CFA_SP SP+0
          CFI CFA_XSP16 add(XSP16, 9)
        ; Saved register size: 9
        ; Auto size: 13
        MOV     A,#-0xd
        LCALL   ?ALLOC_XSTACK8
          CFI CFA_XSP16 add(XSP16, 22)
//  544   ZStatus_t      status;
//  545   AddrMgrEntry_t entry;
//  546 
//  547 
//  548   // add entry
//  549   entry.user    = ADDRMGR_USER_SECURITY;
        MOV     DPL,?XSP + 0
        MOV     DPH,?XSP + 1
        MOV     A,#0x2
        MOVX    @DPTR,A
//  550   entry.nwkAddr = nwkAddr;
        DEC     A
        LCALL   ?XSTACK_DISP0_8
        LCALL   ?Subroutine28 & 0xFFFF
//  551   AddrMgrExtAddrSet( entry.extAddr, extAddr );
??CrossCallReturnLabel_22:
        LCALL   ?XSTACK_DISP0_8
        MOV     R2,DPL
        MOV     R3,DPH
        LCALL   ??AddrMgrExtAddrSet?relay
        MOV     A,#0x16
        LCALL   ?XSTACK_DISP0_8
        LCALL   ?Subroutine40 & 0xFFFF
//  552 
//  553   if ( AddrMgrEntryUpdate( &entry ) == TRUE )
??CrossCallReturnLabel_46:
        LCALL   ??AddrMgrEntryUpdate?relay
        MOV     A,R1
        XRL     A,#0x1
        JNZ     ??ZDSecMgrExtAddrStore_0
//  554   {
//  555     // return successful results
//  556     *ami   = entry.index;
        MOV     A,#0xb
        LCALL   ?XSTACK_DISP0_8
        LCALL   ?Subroutine30 & 0xFFFF
//  557     status = ZSuccess;
//  558   }
??CrossCallReturnLabel_25:
        SJMP    ??CrossCallReturnLabel_28
//  559   else
//  560   {
//  561     // return failed results
//  562     *ami   = entry.index;
??ZDSecMgrExtAddrStore_0:
        MOV     A,#0xb
        LCALL   ?XSTACK_DISP0_8
        LCALL   ?Subroutine31 & 0xFFFF
//  563     status = ZNwkUnknownDevice;
//  564   }
//  565 
//  566   return status;
??CrossCallReturnLabel_28:
        SJMP    ?Subroutine8
          CFI EndBlock cfiBlock9
//  567 }

        RSEG BANKED_CODE:CODE:NOROOT(0)
?Subroutine40:
          CFI Block cfiCond10 Using cfiCommon0
          CFI Function ZDSecMgrAddrStore
          CFI Conditional ??CrossCallReturnLabel_45
          CFI R6 load(1, XDATA, add(CFA_XSP16, literal(-9)))
          CFI VB load(1, XDATA, add(CFA_XSP16, literal(-8)))
          CFI V0 load(1, XDATA, add(CFA_XSP16, literal(-7)))
          CFI R7 load(1, XDATA, add(CFA_XSP16, literal(-6)))
          CFI ?RET_LOW load(1, XDATA, add(CFA_XSP16, literal(-5)))
          CFI ?RET_HIGH load(1, XDATA, add(CFA_XSP16, literal(-4)))
          CFI ?BRET_EXT load(1, XDATA, add(CFA_XSP16, literal(-3)))
          CFI DPL0 load(1, XDATA, add(CFA_XSP16, literal(-2)))
          CFI DPH0 load(1, XDATA, add(CFA_XSP16, literal(-1)))
          CFI CFA_SP SP+0
          CFI CFA_XSP16 add(XSP16, 22)
          CFI Block cfiCond11 Using cfiCommon0
          CFI (cfiCond11) Function ZDSecMgrExtAddrStore
          CFI (cfiCond11) Conditional ??CrossCallReturnLabel_46
          CFI (cfiCond11) R6 load(1, XDATA, add(CFA_XSP16, literal(-9)))
          CFI (cfiCond11) VB load(1, XDATA, add(CFA_XSP16, literal(-8)))
          CFI (cfiCond11) V0 load(1, XDATA, add(CFA_XSP16, literal(-7)))
          CFI (cfiCond11) R7 load(1, XDATA, add(CFA_XSP16, literal(-6)))
          CFI (cfiCond11) ?RET_LOW load(1, XDATA, add(CFA_XSP16, literal(-5)))
          CFI (cfiCond11) ?RET_HIGH load(1, XDATA, add(CFA_XSP16, literal(-4)))
          CFI (cfiCond11) ?BRET_EXT load(1, XDATA, add(CFA_XSP16, literal(-3)))
          CFI (cfiCond11) DPL0 load(1, XDATA, add(CFA_XSP16, literal(-2)))
          CFI (cfiCond11) DPH0 load(1, XDATA, add(CFA_XSP16, literal(-1)))
          CFI (cfiCond11) CFA_SP SP+0
          CFI (cfiCond11) CFA_XSP16 add(XSP16, 22)
          CFI Block cfiPicker12 Using cfiCommon1
          CFI (cfiPicker12) NoFunction
          CFI (cfiPicker12) Picker
        LCALL   ??Subroutine96_0 & 0xFFFF
??CrossCallReturnLabel_215:
        MOV     A,R0
        MOV     R6,A
        MOV     A,R1
        MOV     R7,A
        ; Setup parameters for call to function AddrMgrEntryUpdate
        ; Setup parameters for call to function AddrMgrEntryUpdate
        MOV     DPL,?XSP + 0
        MOV     DPH,?XSP + 1
        MOV     R2,DPL
        MOV     R3,DPH
        RET
          CFI EndBlock cfiCond10
          CFI EndBlock cfiCond11
          CFI EndBlock cfiPicker12

        RSEG BANKED_CODE:CODE:NOROOT(0)
?Subroutine31:
          CFI Block cfiCond13 Using cfiCommon0
          CFI Function ZDSecMgrAddrStore
          CFI Conditional ??CrossCallReturnLabel_27
          CFI R6 load(1, XDATA, add(CFA_XSP16, literal(-9)))
          CFI VB load(1, XDATA, add(CFA_XSP16, literal(-8)))
          CFI V0 load(1, XDATA, add(CFA_XSP16, literal(-7)))
          CFI R7 load(1, XDATA, add(CFA_XSP16, literal(-6)))
          CFI ?RET_LOW load(1, XDATA, add(CFA_XSP16, literal(-5)))
          CFI ?RET_HIGH load(1, XDATA, add(CFA_XSP16, literal(-4)))
          CFI ?BRET_EXT load(1, XDATA, add(CFA_XSP16, literal(-3)))
          CFI DPL0 load(1, XDATA, add(CFA_XSP16, literal(-2)))
          CFI DPH0 load(1, XDATA, add(CFA_XSP16, literal(-1)))
          CFI CFA_SP SP+0
          CFI CFA_XSP16 add(XSP16, 22)
          CFI Block cfiCond14 Using cfiCommon0
          CFI (cfiCond14) Function ZDSecMgrExtAddrStore
          CFI (cfiCond14) Conditional ??CrossCallReturnLabel_28
          CFI (cfiCond14) R6 load(1, XDATA, add(CFA_XSP16, literal(-9)))
          CFI (cfiCond14) VB load(1, XDATA, add(CFA_XSP16, literal(-8)))
          CFI (cfiCond14) V0 load(1, XDATA, add(CFA_XSP16, literal(-7)))
          CFI (cfiCond14) R7 load(1, XDATA, add(CFA_XSP16, literal(-6)))
          CFI (cfiCond14) ?RET_LOW load(1, XDATA, add(CFA_XSP16, literal(-5)))
          CFI (cfiCond14) ?RET_HIGH load(1, XDATA, add(CFA_XSP16, literal(-4)))
          CFI (cfiCond14) ?BRET_EXT load(1, XDATA, add(CFA_XSP16, literal(-3)))
          CFI (cfiCond14) DPL0 load(1, XDATA, add(CFA_XSP16, literal(-2)))
          CFI (cfiCond14) DPH0 load(1, XDATA, add(CFA_XSP16, literal(-1)))
          CFI (cfiCond14) CFA_SP SP+0
          CFI (cfiCond14) CFA_XSP16 add(XSP16, 22)
          CFI Block cfiCond15 Using cfiCommon0
          CFI (cfiCond15) Function ZDSecMgrExtAddrLookup
          CFI (cfiCond15) Conditional ??CrossCallReturnLabel_29
          CFI (cfiCond15) R6 load(1, XDATA, add(CFA_XSP16, literal(-9)))
          CFI (cfiCond15) VB load(1, XDATA, add(CFA_XSP16, literal(-8)))
          CFI (cfiCond15) V0 load(1, XDATA, add(CFA_XSP16, literal(-7)))
          CFI (cfiCond15) R7 load(1, XDATA, add(CFA_XSP16, literal(-6)))
          CFI (cfiCond15) ?RET_LOW load(1, XDATA, add(CFA_XSP16, literal(-5)))
          CFI (cfiCond15) ?RET_HIGH load(1, XDATA, add(CFA_XSP16, literal(-4)))
          CFI (cfiCond15) ?BRET_EXT load(1, XDATA, add(CFA_XSP16, literal(-3)))
          CFI (cfiCond15) DPL0 load(1, XDATA, add(CFA_XSP16, literal(-2)))
          CFI (cfiCond15) DPH0 load(1, XDATA, add(CFA_XSP16, literal(-1)))
          CFI (cfiCond15) CFA_SP SP+0
          CFI (cfiCond15) CFA_XSP16 add(XSP16, 22)
          CFI Block cfiPicker16 Using cfiCommon1
          CFI (cfiPicker16) NoFunction
          CFI (cfiPicker16) Picker
        LCALL   ?Subroutine62 & 0xFFFF
??CrossCallReturnLabel_80:
        MOV     R1,#-0x38
        RET
          CFI EndBlock cfiCond13
          CFI EndBlock cfiCond14
          CFI EndBlock cfiCond15
          CFI EndBlock cfiPicker16

        RSEG BANKED_CODE:CODE:NOROOT(0)
?Subroutine30:
          CFI Block cfiCond17 Using cfiCommon0
          CFI Function ZDSecMgrAddrStore
          CFI Conditional ??CrossCallReturnLabel_24
          CFI R6 load(1, XDATA, add(CFA_XSP16, literal(-9)))
          CFI VB load(1, XDATA, add(CFA_XSP16, literal(-8)))
          CFI V0 load(1, XDATA, add(CFA_XSP16, literal(-7)))
          CFI R7 load(1, XDATA, add(CFA_XSP16, literal(-6)))
          CFI ?RET_LOW load(1, XDATA, add(CFA_XSP16, literal(-5)))
          CFI ?RET_HIGH load(1, XDATA, add(CFA_XSP16, literal(-4)))
          CFI ?BRET_EXT load(1, XDATA, add(CFA_XSP16, literal(-3)))
          CFI DPL0 load(1, XDATA, add(CFA_XSP16, literal(-2)))
          CFI DPH0 load(1, XDATA, add(CFA_XSP16, literal(-1)))
          CFI CFA_SP SP+0
          CFI CFA_XSP16 add(XSP16, 22)
          CFI Block cfiCond18 Using cfiCommon0
          CFI (cfiCond18) Function ZDSecMgrExtAddrStore
          CFI (cfiCond18) Conditional ??CrossCallReturnLabel_25
          CFI (cfiCond18) R6 load(1, XDATA, add(CFA_XSP16, literal(-9)))
          CFI (cfiCond18) VB load(1, XDATA, add(CFA_XSP16, literal(-8)))
          CFI (cfiCond18) V0 load(1, XDATA, add(CFA_XSP16, literal(-7)))
          CFI (cfiCond18) R7 load(1, XDATA, add(CFA_XSP16, literal(-6)))
          CFI (cfiCond18) ?RET_LOW load(1, XDATA, add(CFA_XSP16, literal(-5)))
          CFI (cfiCond18) ?RET_HIGH load(1, XDATA, add(CFA_XSP16, literal(-4)))
          CFI (cfiCond18) ?BRET_EXT load(1, XDATA, add(CFA_XSP16, literal(-3)))
          CFI (cfiCond18) DPL0 load(1, XDATA, add(CFA_XSP16, literal(-2)))
          CFI (cfiCond18) DPH0 load(1, XDATA, add(CFA_XSP16, literal(-1)))
          CFI (cfiCond18) CFA_SP SP+0
          CFI (cfiCond18) CFA_XSP16 add(XSP16, 22)
          CFI Block cfiCond19 Using cfiCommon0
          CFI (cfiCond19) Function ZDSecMgrExtAddrLookup
          CFI (cfiCond19) Conditional ??CrossCallReturnLabel_26
          CFI (cfiCond19) R6 load(1, XDATA, add(CFA_XSP16, literal(-9)))
          CFI (cfiCond19) VB load(1, XDATA, add(CFA_XSP16, literal(-8)))
          CFI (cfiCond19) V0 load(1, XDATA, add(CFA_XSP16, literal(-7)))
          CFI (cfiCond19) R7 load(1, XDATA, add(CFA_XSP16, literal(-6)))
          CFI (cfiCond19) ?RET_LOW load(1, XDATA, add(CFA_XSP16, literal(-5)))
          CFI (cfiCond19) ?RET_HIGH load(1, XDATA, add(CFA_XSP16, literal(-4)))
          CFI (cfiCond19) ?BRET_EXT load(1, XDATA, add(CFA_XSP16, literal(-3)))
          CFI (cfiCond19) DPL0 load(1, XDATA, add(CFA_XSP16, literal(-2)))
          CFI (cfiCond19) DPH0 load(1, XDATA, add(CFA_XSP16, literal(-1)))
          CFI (cfiCond19) CFA_SP SP+0
          CFI (cfiCond19) CFA_XSP16 add(XSP16, 22)
          CFI Block cfiPicker20 Using cfiCommon1
          CFI (cfiPicker20) NoFunction
          CFI (cfiPicker20) Picker
        LCALL   ?Subroutine62 & 0xFFFF
??CrossCallReturnLabel_79:
        MOV     R1,#0x0
        RET
          CFI EndBlock cfiCond17
          CFI EndBlock cfiCond18
          CFI EndBlock cfiCond19
          CFI EndBlock cfiPicker20

        RSEG BANKED_CODE:CODE:NOROOT(0)
?Subroutine62:
          CFI Block cfiCond21 Using cfiCommon0
          CFI Function ZDSecMgrAddrStore
          CFI Conditional ??CrossCallReturnLabel_80, ??CrossCallReturnLabel_27
          CFI R6 load(1, XDATA, add(CFA_XSP16, literal(-9)))
          CFI VB load(1, XDATA, add(CFA_XSP16, literal(-8)))
          CFI V0 load(1, XDATA, add(CFA_XSP16, literal(-7)))
          CFI R7 load(1, XDATA, add(CFA_XSP16, literal(-6)))
          CFI ?RET_LOW load(1, XDATA, add(CFA_XSP16, literal(-5)))
          CFI ?RET_HIGH load(1, XDATA, add(CFA_XSP16, literal(-4)))
          CFI ?BRET_EXT load(1, XDATA, add(CFA_XSP16, literal(-3)))
          CFI DPL0 load(1, XDATA, add(CFA_XSP16, literal(-2)))
          CFI DPH0 load(1, XDATA, add(CFA_XSP16, literal(-1)))
          CFI CFA_SP SP+0
          CFI CFA_XSP16 add(XSP16, 22)
          CFI Block cfiCond22 Using cfiCommon0
          CFI (cfiCond22) Function ZDSecMgrExtAddrStore
          CFI (cfiCond22) Conditional ??CrossCallReturnLabel_80, ??CrossCallReturnLabel_28
          CFI (cfiCond22) R6 load(1, XDATA, add(CFA_XSP16, literal(-9)))
          CFI (cfiCond22) VB load(1, XDATA, add(CFA_XSP16, literal(-8)))
          CFI (cfiCond22) V0 load(1, XDATA, add(CFA_XSP16, literal(-7)))
          CFI (cfiCond22) R7 load(1, XDATA, add(CFA_XSP16, literal(-6)))
          CFI (cfiCond22) ?RET_LOW load(1, XDATA, add(CFA_XSP16, literal(-5)))
          CFI (cfiCond22) ?RET_HIGH load(1, XDATA, add(CFA_XSP16, literal(-4)))
          CFI (cfiCond22) ?BRET_EXT load(1, XDATA, add(CFA_XSP16, literal(-3)))
          CFI (cfiCond22) DPL0 load(1, XDATA, add(CFA_XSP16, literal(-2)))
          CFI (cfiCond22) DPH0 load(1, XDATA, add(CFA_XSP16, literal(-1)))
          CFI (cfiCond22) CFA_SP SP+0
          CFI (cfiCond22) CFA_XSP16 add(XSP16, 22)
          CFI Block cfiCond23 Using cfiCommon0
          CFI (cfiCond23) Function ZDSecMgrExtAddrLookup
          CFI (cfiCond23) Conditional ??CrossCallReturnLabel_80, ??CrossCallReturnLabel_29
          CFI (cfiCond23) R6 load(1, XDATA, add(CFA_XSP16, literal(-9)))
          CFI (cfiCond23) VB load(1, XDATA, add(CFA_XSP16, literal(-8)))
          CFI (cfiCond23) V0 load(1, XDATA, add(CFA_XSP16, literal(-7)))
          CFI (cfiCond23) R7 load(1, XDATA, add(CFA_XSP16, literal(-6)))
          CFI (cfiCond23) ?RET_LOW load(1, XDATA, add(CFA_XSP16, literal(-5)))
          CFI (cfiCond23) ?RET_HIGH load(1, XDATA, add(CFA_XSP16, literal(-4)))
          CFI (cfiCond23) ?BRET_EXT load(1, XDATA, add(CFA_XSP16, literal(-3)))
          CFI (cfiCond23) DPL0 load(1, XDATA, add(CFA_XSP16, literal(-2)))
          CFI (cfiCond23) DPH0 load(1, XDATA, add(CFA_XSP16, literal(-1)))
          CFI (cfiCond23) CFA_SP SP+0
          CFI (cfiCond23) CFA_XSP16 add(XSP16, 22)
          CFI Block cfiCond24 Using cfiCommon0
          CFI (cfiCond24) Function ZDSecMgrAddrStore
          CFI (cfiCond24) Conditional ??CrossCallReturnLabel_79, ??CrossCallReturnLabel_24
          CFI (cfiCond24) R6 load(1, XDATA, add(CFA_XSP16, literal(-9)))
          CFI (cfiCond24) VB load(1, XDATA, add(CFA_XSP16, literal(-8)))
          CFI (cfiCond24) V0 load(1, XDATA, add(CFA_XSP16, literal(-7)))
          CFI (cfiCond24) R7 load(1, XDATA, add(CFA_XSP16, literal(-6)))
          CFI (cfiCond24) ?RET_LOW load(1, XDATA, add(CFA_XSP16, literal(-5)))
          CFI (cfiCond24) ?RET_HIGH load(1, XDATA, add(CFA_XSP16, literal(-4)))
          CFI (cfiCond24) ?BRET_EXT load(1, XDATA, add(CFA_XSP16, literal(-3)))
          CFI (cfiCond24) DPL0 load(1, XDATA, add(CFA_XSP16, literal(-2)))
          CFI (cfiCond24) DPH0 load(1, XDATA, add(CFA_XSP16, literal(-1)))
          CFI (cfiCond24) CFA_SP SP+0
          CFI (cfiCond24) CFA_XSP16 add(XSP16, 22)
          CFI Block cfiCond25 Using cfiCommon0
          CFI (cfiCond25) Function ZDSecMgrExtAddrStore
          CFI (cfiCond25) Conditional ??CrossCallReturnLabel_79, ??CrossCallReturnLabel_25
          CFI (cfiCond25) R6 load(1, XDATA, add(CFA_XSP16, literal(-9)))
          CFI (cfiCond25) VB load(1, XDATA, add(CFA_XSP16, literal(-8)))
          CFI (cfiCond25) V0 load(1, XDATA, add(CFA_XSP16, literal(-7)))
          CFI (cfiCond25) R7 load(1, XDATA, add(CFA_XSP16, literal(-6)))
          CFI (cfiCond25) ?RET_LOW load(1, XDATA, add(CFA_XSP16, literal(-5)))
          CFI (cfiCond25) ?RET_HIGH load(1, XDATA, add(CFA_XSP16, literal(-4)))
          CFI (cfiCond25) ?BRET_EXT load(1, XDATA, add(CFA_XSP16, literal(-3)))
          CFI (cfiCond25) DPL0 load(1, XDATA, add(CFA_XSP16, literal(-2)))
          CFI (cfiCond25) DPH0 load(1, XDATA, add(CFA_XSP16, literal(-1)))
          CFI (cfiCond25) CFA_SP SP+0
          CFI (cfiCond25) CFA_XSP16 add(XSP16, 22)
          CFI Block cfiCond26 Using cfiCommon0
          CFI (cfiCond26) Function ZDSecMgrExtAddrLookup
          CFI (cfiCond26) Conditional ??CrossCallReturnLabel_79, ??CrossCallReturnLabel_26
          CFI (cfiCond26) R6 load(1, XDATA, add(CFA_XSP16, literal(-9)))
          CFI (cfiCond26) VB load(1, XDATA, add(CFA_XSP16, literal(-8)))
          CFI (cfiCond26) V0 load(1, XDATA, add(CFA_XSP16, literal(-7)))
          CFI (cfiCond26) R7 load(1, XDATA, add(CFA_XSP16, literal(-6)))
          CFI (cfiCond26) ?RET_LOW load(1, XDATA, add(CFA_XSP16, literal(-5)))
          CFI (cfiCond26) ?RET_HIGH load(1, XDATA, add(CFA_XSP16, literal(-4)))
          CFI (cfiCond26) ?BRET_EXT load(1, XDATA, add(CFA_XSP16, literal(-3)))
          CFI (cfiCond26) DPL0 load(1, XDATA, add(CFA_XSP16, literal(-2)))
          CFI (cfiCond26) DPH0 load(1, XDATA, add(CFA_XSP16, literal(-1)))
          CFI (cfiCond26) CFA_SP SP+0
          CFI (cfiCond26) CFA_XSP16 add(XSP16, 22)
          CFI Block cfiPicker27 Using cfiCommon1
          CFI (cfiPicker27) NoFunction
          CFI (cfiPicker27) Picker
        LCALL   ?Subroutine72 & 0xFFFF
??CrossCallReturnLabel_245:
        MOV     R1,A
        MOV     DPL,R6
        MOV     DPH,R7
        LCALL   ?Subroutine71 & 0xFFFF
??CrossCallReturnLabel_198:
        RET
          CFI EndBlock cfiCond21
          CFI EndBlock cfiCond22
          CFI EndBlock cfiCond23
          CFI EndBlock cfiCond24
          CFI EndBlock cfiCond25
          CFI EndBlock cfiCond26
          CFI EndBlock cfiPicker27

        RSEG BANKED_CODE:CODE:NOROOT(0)
?Subroutine28:
          CFI Block cfiCond28 Using cfiCommon0
          CFI Function ZDSecMgrAddrStore
          CFI Conditional ??CrossCallReturnLabel_21
          CFI R6 load(1, XDATA, add(CFA_XSP16, literal(-9)))
          CFI VB load(1, XDATA, add(CFA_XSP16, literal(-8)))
          CFI V0 load(1, XDATA, add(CFA_XSP16, literal(-7)))
          CFI R7 load(1, XDATA, add(CFA_XSP16, literal(-6)))
          CFI ?RET_LOW load(1, XDATA, add(CFA_XSP16, literal(-5)))
          CFI ?RET_HIGH load(1, XDATA, add(CFA_XSP16, literal(-4)))
          CFI ?BRET_EXT load(1, XDATA, add(CFA_XSP16, literal(-3)))
          CFI DPL0 load(1, XDATA, add(CFA_XSP16, literal(-2)))
          CFI DPH0 load(1, XDATA, add(CFA_XSP16, literal(-1)))
          CFI CFA_SP SP+0
          CFI CFA_XSP16 add(XSP16, 22)
          CFI Block cfiCond29 Using cfiCommon0
          CFI (cfiCond29) Function ZDSecMgrExtAddrStore
          CFI (cfiCond29) Conditional ??CrossCallReturnLabel_22
          CFI (cfiCond29) R6 load(1, XDATA, add(CFA_XSP16, literal(-9)))
          CFI (cfiCond29) VB load(1, XDATA, add(CFA_XSP16, literal(-8)))
          CFI (cfiCond29) V0 load(1, XDATA, add(CFA_XSP16, literal(-7)))
          CFI (cfiCond29) R7 load(1, XDATA, add(CFA_XSP16, literal(-6)))
          CFI (cfiCond29) ?RET_LOW load(1, XDATA, add(CFA_XSP16, literal(-5)))
          CFI (cfiCond29) ?RET_HIGH load(1, XDATA, add(CFA_XSP16, literal(-4)))
          CFI (cfiCond29) ?BRET_EXT load(1, XDATA, add(CFA_XSP16, literal(-3)))
          CFI (cfiCond29) DPL0 load(1, XDATA, add(CFA_XSP16, literal(-2)))
          CFI (cfiCond29) DPH0 load(1, XDATA, add(CFA_XSP16, literal(-1)))
          CFI (cfiCond29) CFA_SP SP+0
          CFI (cfiCond29) CFA_XSP16 add(XSP16, 22)
          CFI Block cfiCond30 Using cfiCommon0
          CFI (cfiCond30) Function ZDSecMgrSetupPartner
          CFI (cfiCond30) Conditional ??CrossCallReturnLabel_23
          CFI (cfiCond30) R6 load(1, XDATA, add(CFA_XSP16, literal(-11)))
          CFI (cfiCond30) VB load(1, XDATA, add(CFA_XSP16, literal(-10)))
          CFI (cfiCond30) V0 load(1, XDATA, add(CFA_XSP16, literal(-9)))
          CFI (cfiCond30) V1 load(1, XDATA, add(CFA_XSP16, literal(-8)))
          CFI (cfiCond30) V2 load(1, XDATA, add(CFA_XSP16, literal(-7)))
          CFI (cfiCond30) R7 load(1, XDATA, add(CFA_XSP16, literal(-6)))
          CFI (cfiCond30) ?RET_LOW load(1, XDATA, add(CFA_XSP16, literal(-5)))
          CFI (cfiCond30) ?RET_HIGH load(1, XDATA, add(CFA_XSP16, literal(-4)))
          CFI (cfiCond30) ?BRET_EXT load(1, XDATA, add(CFA_XSP16, literal(-3)))
          CFI (cfiCond30) DPL0 load(1, XDATA, add(CFA_XSP16, literal(-2)))
          CFI (cfiCond30) DPH0 load(1, XDATA, add(CFA_XSP16, literal(-1)))
          CFI (cfiCond30) CFA_SP SP+0
          CFI (cfiCond30) CFA_XSP16 add(XSP16, 24)
          CFI Block cfiPicker31 Using cfiCommon1
          CFI (cfiPicker31) NoFunction
          CFI (cfiPicker31) Picker
        MOV     A,R2
        MOVX    @DPTR,A
        INC     DPTR
        MOV     A,R3
        MOVX    @DPTR,A
        ; Setup parameters for call to function AddrMgrExtAddrSet
        ; Setup parameters for call to function AddrMgrExtAddrSet
        ; Setup parameters for call to function AddrMgrExtAddrSet
        MOV     A,#0x3
        RET
          CFI EndBlock cfiCond28
          CFI EndBlock cfiCond29
          CFI EndBlock cfiCond30
          CFI EndBlock cfiPicker31
//  568 
//  569 /******************************************************************************
//  570  * @fn          ZDSecMgrExtAddrLookup
//  571  *
//  572  * @brief       Lookup index for specified EXT address.
//  573  *
//  574  * @param       extAddr - [in] EXT address
//  575  * @param       ami     - [out] Address Manager index
//  576  *
//  577  * @return      ZStatus_t
//  578  */

        RSEG BANKED_CODE:CODE:NOROOT(0)
//  579 ZStatus_t ZDSecMgrExtAddrLookup( uint8* extAddr, uint16* ami )
ZDSecMgrExtAddrLookup:
          CFI Block cfiBlock32 Using cfiCommon0
          CFI Function ZDSecMgrExtAddrLookup
        CODE
//  580 {
        FUNCALL ZDSecMgrExtAddrLookup, AddrMgrExtAddrSet
        LOCFRAME ISTACK, 0, STACK
        LOCFRAME PSTACK, 0, STACK
        LOCFRAME XSTACK, 22, STACK
        LOCFRAME IOVERLAY, 0, STATIC
        LOCFRAME DOVERLAY, 0, STATIC
        ARGFRAME ISTACK, 0, STACK
        ARGFRAME PSTACK, 0, STACK
        ARGFRAME XSTACK, 22, STACK
        ARGFRAME IOVERLAY, 0, STATIC
        ARGFRAME DOVERLAY, 0, STATIC
        FUNCALL ZDSecMgrExtAddrLookup, AddrMgrEntryLookupExt
        LOCFRAME ISTACK, 0, STACK
        LOCFRAME PSTACK, 0, STACK
        LOCFRAME XSTACK, 22, STACK
        LOCFRAME IOVERLAY, 0, STATIC
        LOCFRAME DOVERLAY, 0, STATIC
        ARGFRAME ISTACK, 0, STACK
        ARGFRAME PSTACK, 0, STACK
        ARGFRAME XSTACK, 22, STACK
        ARGFRAME IOVERLAY, 0, STATIC
        ARGFRAME DOVERLAY, 0, STATIC
        MOV     A,#-0x9
        LCALL   ?BANKED_ENTER_XDATA
          CFI DPH0 load(1, XDATA, add(CFA_XSP16, literal(-1)))
          CFI DPL0 load(1, XDATA, add(CFA_XSP16, literal(-2)))
          CFI ?BRET_EXT load(1, XDATA, add(CFA_XSP16, literal(-3)))
          CFI ?RET_HIGH load(1, XDATA, add(CFA_XSP16, literal(-4)))
          CFI ?RET_LOW load(1, XDATA, add(CFA_XSP16, literal(-5)))
          CFI R7 load(1, XDATA, add(CFA_XSP16, literal(-6)))
          CFI V0 load(1, XDATA, add(CFA_XSP16, literal(-7)))
          CFI VB load(1, XDATA, add(CFA_XSP16, literal(-8)))
          CFI R6 load(1, XDATA, add(CFA_XSP16, literal(-9)))
          CFI CFA_SP SP+0
          CFI CFA_XSP16 add(XSP16, 9)
        ; Saved register size: 9
        ; Auto size: 13
        MOV     A,#-0xd
        LCALL   ?ALLOC_XSTACK8
          CFI CFA_XSP16 add(XSP16, 22)
        MOV     A,R4
        MOV     R6,A
        MOV     A,R5
        MOV     R7,A
//  581   ZStatus_t      status;
//  582   AddrMgrEntry_t entry;
//  583 
//  584 
//  585   // lookup entry
//  586   entry.user = ADDRMGR_USER_SECURITY;
        MOV     DPL,?XSP + 0
        MOV     DPH,?XSP + 1
        MOV     A,#0x2
        MOVX    @DPTR,A
//  587   AddrMgrExtAddrSet( entry.extAddr, extAddr );
        ; Setup parameters for call to function AddrMgrExtAddrSet
        MOV     A,R2
        MOV     R4,A
        MOV     A,R3
        MOV     R5,A
        MOV     A,#0x3
        LCALL   ?XSTACK_DISP0_8
        MOV     R2,DPL
        MOV     R3,DPH
        LCALL   ??AddrMgrExtAddrSet?relay
//  588 
//  589   if ( AddrMgrEntryLookupExt( &entry ) == TRUE )
        ; Setup parameters for call to function AddrMgrEntryLookupExt
        MOV     DPL,?XSP + 0
        MOV     DPH,?XSP + 1
        MOV     R2,DPL
        MOV     R3,DPH
        LCALL   ??AddrMgrEntryLookupExt?relay
        MOV     A,R1
        XRL     A,#0x1
        JNZ     ??ZDSecMgrExtAddrLookup_0
//  590   {
//  591     // return successful results
//  592     *ami   = entry.index;
        MOV     A,#0xb
        LCALL   ?XSTACK_DISP0_8
        LCALL   ?Subroutine30 & 0xFFFF
//  593     status = ZSuccess;
//  594   }
??CrossCallReturnLabel_26:
        SJMP    ??CrossCallReturnLabel_29
//  595   else
//  596   {
//  597     // return failed results
//  598     *ami   = entry.index;
??ZDSecMgrExtAddrLookup_0:
        MOV     A,#0xb
        LCALL   ?XSTACK_DISP0_8
        LCALL   ?Subroutine31 & 0xFFFF
          CFI EndBlock cfiBlock32
//  599     status = ZNwkUnknownDevice;
//  600   }
//  601 
//  602   return status;
??CrossCallReturnLabel_29:
        REQUIRE ?Subroutine8
        ; // Fall through to label ?Subroutine8
//  603 }

        RSEG BANKED_CODE:CODE:NOROOT(0)
?Subroutine8:
          CFI Block cfiBlock33 Using cfiCommon0
          CFI NoFunction
          CFI CFA_SP SP+0
          CFI CFA_XSP16 add(XSP16, 22)
          CFI VB load(1, XDATA, add(CFA_XSP16, literal(-8)))
          CFI DPL0 load(1, XDATA, add(CFA_XSP16, literal(-2)))
          CFI DPH0 load(1, XDATA, add(CFA_XSP16, literal(-1)))
          CFI R6 load(1, XDATA, add(CFA_XSP16, literal(-9)))
          CFI R7 load(1, XDATA, add(CFA_XSP16, literal(-6)))
          CFI V0 load(1, XDATA, add(CFA_XSP16, literal(-7)))
          CFI ?BRET_EXT load(1, XDATA, add(CFA_XSP16, literal(-3)))
          CFI ?RET_HIGH load(1, XDATA, add(CFA_XSP16, literal(-4)))
          CFI ?RET_LOW load(1, XDATA, add(CFA_XSP16, literal(-5)))
        MOV     A,#0xd
        LJMP    ??Subroutine82_0 & 0xFFFF
          CFI EndBlock cfiBlock33
//  604 
//  605 /******************************************************************************
//  606  * @fn          ZDSecMgrMasterKeyLookup
//  607  *
//  608  * @brief       Lookup MASTER key for specified address index.
//  609  *
//  610  * @param       ami - [in] Address Manager index
//  611  * @param       key - [out] valid MASTER key
//  612  *
//  613  * @return      ZStatus_t
//  614  */

        RSEG BANKED_CODE:CODE:NOROOT(0)
//  615 ZStatus_t ZDSecMgrMasterKeyLookup( uint16 ami, uint8** key )
ZDSecMgrMasterKeyLookup:
          CFI Block cfiBlock34 Using cfiCommon0
          CFI Function ZDSecMgrMasterKeyLookup
        CODE
//  616 {
        MOV     A,#-0xa
        LCALL   ?BANKED_ENTER_XDATA
          CFI DPH0 load(1, XDATA, add(CFA_XSP16, literal(-1)))
          CFI DPL0 load(1, XDATA, add(CFA_XSP16, literal(-2)))
          CFI ?BRET_EXT load(1, XDATA, add(CFA_XSP16, literal(-3)))
          CFI ?RET_HIGH load(1, XDATA, add(CFA_XSP16, literal(-4)))
          CFI ?RET_LOW load(1, XDATA, add(CFA_XSP16, literal(-5)))
          CFI R7 load(1, XDATA, add(CFA_XSP16, literal(-6)))
          CFI V1 load(1, XDATA, add(CFA_XSP16, literal(-7)))
          CFI V0 load(1, XDATA, add(CFA_XSP16, literal(-8)))
          CFI VB load(1, XDATA, add(CFA_XSP16, literal(-9)))
          CFI R6 load(1, XDATA, add(CFA_XSP16, literal(-10)))
          CFI CFA_SP SP+0
          CFI CFA_XSP16 add(XSP16, 10)
        ; Saved register size: 10
        ; Auto size: 0
//  617   ZStatus_t status;
//  618   uint16    index;
//  619 
//  620 
//  621   // initialize results
//  622   *key   = NULL;
        MOV     DPL,R4
        MOV     DPH,R5
        LCALL   ?Subroutine68 & 0xFFFF
//  623   status = ZNwkUnknownDevice;
//  624 
//  625   // verify data is available
//  626   if ( ZDSecMgrMasterKeyData != NULL )
??CrossCallReturnLabel_83:
        MOV     DPTR,#ZDSecMgrMasterKeyData
        LCALL   ??Subroutine100_0 & 0xFFFF
??CrossCallReturnLabel_223:
        JZ      ??ZDSecMgrMasterKeyLookup_0
//  627   {
//  628     for ( index = 0; index < ZDSECMGR_MASTERKEY_MAX ; index++ )
        MOV     R0,#0x0
        MOV     R1,#0x0
//  629     {
//  630       if ( ZDSecMgrMasterKeyData[index].ami == ami )
??ZDSecMgrMasterKeyLookup_1:
        MOV     A,R0
        MOV     R6,A
        MOV     A,R1
        MOV     R7,A
        MOV     A,R6
        MOV     B,#0x12
        MUL     AB
        MOV     R6,A
        MOV     ?V0 + 1,B
        MOV     B,#0x12
        MOV     A,R7
        MUL     AB
        ADD     A,?V0 + 1
        MOV     R7,A
        MOV     DPTR,#ZDSecMgrMasterKeyData
        MOVX    A,@DPTR
        ADD     A,R6
        MOV     R6,A
        INC     DPTR
        MOVX    A,@DPTR
        ADDC    A,R7
        MOV     R7,A
        MOV     DPL,R6
        MOV     DPH,R7
        MOVX    A,@DPTR
        XRL     A,R2
        JNZ     ??ZDSecMgrMasterKeyLookup_2
        INC     DPTR
        MOVX    A,@DPTR
        XRL     A,R3
??ZDSecMgrMasterKeyLookup_2:
        JNZ     ??CrossCallReturnLabel_95
//  631       {
//  632         // return successful results
//  633         *key   = ZDSecMgrMasterKeyData[index].key;
        LCALL   ?Subroutine60 & 0xFFFF
//  634         status = ZSuccess;
//  635 
//  636         // break from loop
//  637         index  = ZDSECMGR_MASTERKEY_MAX;
//  638       }
//  639     }
??CrossCallReturnLabel_74:
        LCALL   ?Subroutine16 & 0xFFFF
??CrossCallReturnLabel_95:
        LCALL   ?Subroutine51 & 0xFFFF
//  640   }
??CrossCallReturnLabel_60:
        JC      ??ZDSecMgrMasterKeyLookup_1
          CFI EndBlock cfiBlock34
//  641 
//  642   return status;
??ZDSecMgrMasterKeyLookup_0:
        REQUIRE ?Subroutine10
        ; // Fall through to label ?Subroutine10
//  643 }

        RSEG BANKED_CODE:CODE:NOROOT(0)
?Subroutine10:
          CFI Block cfiBlock35 Using cfiCommon0
          CFI NoFunction
          CFI CFA_SP SP+0
          CFI CFA_XSP16 add(XSP16, 10)
          CFI VB load(1, XDATA, add(CFA_XSP16, literal(-9)))
          CFI DPL0 load(1, XDATA, add(CFA_XSP16, literal(-2)))
          CFI DPH0 load(1, XDATA, add(CFA_XSP16, literal(-1)))
          CFI R6 load(1, XDATA, add(CFA_XSP16, literal(-10)))
          CFI R7 load(1, XDATA, add(CFA_XSP16, literal(-6)))
          CFI V0 load(1, XDATA, add(CFA_XSP16, literal(-8)))
          CFI V1 load(1, XDATA, add(CFA_XSP16, literal(-7)))
          CFI ?BRET_EXT load(1, XDATA, add(CFA_XSP16, literal(-3)))
          CFI ?RET_HIGH load(1, XDATA, add(CFA_XSP16, literal(-4)))
          CFI ?RET_LOW load(1, XDATA, add(CFA_XSP16, literal(-5)))
        MOV     R1,?V0 + 0
        LJMP    ??Subroutine94_0 & 0xFFFF
          CFI EndBlock cfiBlock35

        RSEG BANKED_CODE:CODE:NOROOT(0)
?Subroutine16:
          CFI Block cfiCond36 Using cfiCommon0
          CFI Function ZDSecMgrMasterKeyLookup
          CFI Conditional ??CrossCallReturnLabel_95
          CFI R6 load(1, XDATA, add(CFA_XSP16, literal(-10)))
          CFI VB load(1, XDATA, add(CFA_XSP16, literal(-9)))
          CFI V0 load(1, XDATA, add(CFA_XSP16, literal(-8)))
          CFI V1 load(1, XDATA, add(CFA_XSP16, literal(-7)))
          CFI R7 load(1, XDATA, add(CFA_XSP16, literal(-6)))
          CFI ?RET_LOW load(1, XDATA, add(CFA_XSP16, literal(-5)))
          CFI ?RET_HIGH load(1, XDATA, add(CFA_XSP16, literal(-4)))
          CFI ?BRET_EXT load(1, XDATA, add(CFA_XSP16, literal(-3)))
          CFI DPL0 load(1, XDATA, add(CFA_XSP16, literal(-2)))
          CFI DPH0 load(1, XDATA, add(CFA_XSP16, literal(-1)))
          CFI CFA_SP SP+0
          CFI CFA_XSP16 add(XSP16, 10)
          CFI Block cfiCond37 Using cfiCommon0
          CFI (cfiCond37) Function ZDSecMgrEntryLookupAMI
          CFI (cfiCond37) Conditional ??CrossCallReturnLabel_96
          CFI (cfiCond37) R6 load(1, XDATA, add(CFA_XSP16, literal(-10)))
          CFI (cfiCond37) VB load(1, XDATA, add(CFA_XSP16, literal(-9)))
          CFI (cfiCond37) V0 load(1, XDATA, add(CFA_XSP16, literal(-8)))
          CFI (cfiCond37) V1 load(1, XDATA, add(CFA_XSP16, literal(-7)))
          CFI (cfiCond37) R7 load(1, XDATA, add(CFA_XSP16, literal(-6)))
          CFI (cfiCond37) ?RET_LOW load(1, XDATA, add(CFA_XSP16, literal(-5)))
          CFI (cfiCond37) ?RET_HIGH load(1, XDATA, add(CFA_XSP16, literal(-4)))
          CFI (cfiCond37) ?BRET_EXT load(1, XDATA, add(CFA_XSP16, literal(-3)))
          CFI (cfiCond37) DPL0 load(1, XDATA, add(CFA_XSP16, literal(-2)))
          CFI (cfiCond37) DPH0 load(1, XDATA, add(CFA_XSP16, literal(-1)))
          CFI (cfiCond37) CFA_SP SP+0
          CFI (cfiCond37) CFA_XSP16 add(XSP16, 10)
          CFI Block cfiPicker38 Using cfiCommon1
          CFI (cfiPicker38) NoFunction
          CFI (cfiPicker38) Picker
        MOV     R1,A
        MOV     DPL,R4
        MOV     DPH,R5
          CFI EndBlock cfiCond36
          CFI EndBlock cfiCond37
          CFI EndBlock cfiPicker38
        REQUIRE ??Subroutine74_0
        ; // Fall through to label ??Subroutine74_0

        RSEG BANKED_CODE:CODE:NOROOT(0)
??Subroutine74_0:
          CFI Block cfiCond39 Using cfiCommon0
          CFI Function ZDSecMgrEntryLookup
          CFI Conditional ??CrossCallReturnLabel_97
          CFI R6 load(1, XDATA, add(CFA_XSP16, literal(-10)))
          CFI VB load(1, XDATA, add(CFA_XSP16, literal(-9)))
          CFI V0 load(1, XDATA, add(CFA_XSP16, literal(-8)))
          CFI V1 load(1, XDATA, add(CFA_XSP16, literal(-7)))
          CFI R7 load(1, XDATA, add(CFA_XSP16, literal(-6)))
          CFI ?RET_LOW load(1, XDATA, add(CFA_XSP16, literal(-5)))
          CFI ?RET_HIGH load(1, XDATA, add(CFA_XSP16, literal(-4)))
          CFI ?BRET_EXT load(1, XDATA, add(CFA_XSP16, literal(-3)))
          CFI DPL0 load(1, XDATA, add(CFA_XSP16, literal(-2)))
          CFI DPH0 load(1, XDATA, add(CFA_XSP16, literal(-1)))
          CFI CFA_SP SP+0
          CFI CFA_XSP16 add(XSP16, 23)
          CFI Block cfiCond40 Using cfiCommon0
          CFI (cfiCond40) Function ZDSecMgrMasterKeyLookup
          CFI (cfiCond40) Conditional ??CrossCallReturnLabel_95
          CFI (cfiCond40) R6 load(1, XDATA, add(CFA_XSP16, literal(-10)))
          CFI (cfiCond40) VB load(1, XDATA, add(CFA_XSP16, literal(-9)))
          CFI (cfiCond40) V0 load(1, XDATA, add(CFA_XSP16, literal(-8)))
          CFI (cfiCond40) V1 load(1, XDATA, add(CFA_XSP16, literal(-7)))
          CFI (cfiCond40) R7 load(1, XDATA, add(CFA_XSP16, literal(-6)))
          CFI (cfiCond40) ?RET_LOW load(1, XDATA, add(CFA_XSP16, literal(-5)))
          CFI (cfiCond40) ?RET_HIGH load(1, XDATA, add(CFA_XSP16, literal(-4)))
          CFI (cfiCond40) ?BRET_EXT load(1, XDATA, add(CFA_XSP16, literal(-3)))
          CFI (cfiCond40) DPL0 load(1, XDATA, add(CFA_XSP16, literal(-2)))
          CFI (cfiCond40) DPH0 load(1, XDATA, add(CFA_XSP16, literal(-1)))
          CFI (cfiCond40) CFA_SP SP+0
          CFI (cfiCond40) CFA_XSP16 add(XSP16, 10)
          CFI Block cfiCond41 Using cfiCommon0
          CFI (cfiCond41) Function ZDSecMgrEntryLookupAMI
          CFI (cfiCond41) Conditional ??CrossCallReturnLabel_96
          CFI (cfiCond41) R6 load(1, XDATA, add(CFA_XSP16, literal(-10)))
          CFI (cfiCond41) VB load(1, XDATA, add(CFA_XSP16, literal(-9)))
          CFI (cfiCond41) V0 load(1, XDATA, add(CFA_XSP16, literal(-8)))
          CFI (cfiCond41) V1 load(1, XDATA, add(CFA_XSP16, literal(-7)))
          CFI (cfiCond41) R7 load(1, XDATA, add(CFA_XSP16, literal(-6)))
          CFI (cfiCond41) ?RET_LOW load(1, XDATA, add(CFA_XSP16, literal(-5)))
          CFI (cfiCond41) ?RET_HIGH load(1, XDATA, add(CFA_XSP16, literal(-4)))
          CFI (cfiCond41) ?BRET_EXT load(1, XDATA, add(CFA_XSP16, literal(-3)))
          CFI (cfiCond41) DPL0 load(1, XDATA, add(CFA_XSP16, literal(-2)))
          CFI (cfiCond41) DPH0 load(1, XDATA, add(CFA_XSP16, literal(-1)))
          CFI (cfiCond41) CFA_SP SP+0
          CFI (cfiCond41) CFA_XSP16 add(XSP16, 10)
          CFI Block cfiPicker42 Using cfiCommon1
          CFI (cfiPicker42) NoFunction
          CFI (cfiPicker42) Picker
        LCALL   ?Subroutine71 & 0xFFFF
??CrossCallReturnLabel_199:
        MOV     ?V0 + 0,#0x0
        MOV     R0,#0x3
        MOV     R1,#0x0
        RET
          CFI EndBlock cfiCond39
          CFI EndBlock cfiCond40
          CFI EndBlock cfiCond41
          CFI EndBlock cfiPicker42
//  644 
//  645 /******************************************************************************
//  646  * @fn          ZDSecMgrMasterKeyStore
//  647  *
//  648  * @brief       Store MASTER key for specified address index.
//  649  *
//  650  * @param       ami - [in] Address Manager index
//  651  * @param       key - [in] valid key to store
//  652  *
//  653  * @return      ZStatus_t
//  654  */

        RSEG BANKED_CODE:CODE:NOROOT(0)
//  655 ZStatus_t ZDSecMgrMasterKeyStore( uint16 ami, uint8* key )
ZDSecMgrMasterKeyStore:
          CFI Block cfiBlock43 Using cfiCommon0
          CFI Function ZDSecMgrMasterKeyStore
        CODE
//  656 {
        FUNCALL ZDSecMgrMasterKeyStore, osal_memcpy
        LOCFRAME ISTACK, 0, STACK
        LOCFRAME PSTACK, 0, STACK
        LOCFRAME XSTACK, 18, STACK
        LOCFRAME IOVERLAY, 0, STATIC
        LOCFRAME DOVERLAY, 0, STATIC
        ARGFRAME ISTACK, 0, STACK
        ARGFRAME PSTACK, 0, STACK
        ARGFRAME XSTACK, 18, STACK
        ARGFRAME IOVERLAY, 0, STATIC
        ARGFRAME DOVERLAY, 0, STATIC
        FUNCALL ZDSecMgrMasterKeyStore, osal_memset
        LOCFRAME ISTACK, 0, STACK
        LOCFRAME PSTACK, 0, STACK
        LOCFRAME XSTACK, 15, STACK
        LOCFRAME IOVERLAY, 0, STATIC
        LOCFRAME DOVERLAY, 0, STATIC
        ARGFRAME ISTACK, 0, STACK
        ARGFRAME PSTACK, 0, STACK
        ARGFRAME XSTACK, 15, STACK
        ARGFRAME IOVERLAY, 0, STATIC
        ARGFRAME DOVERLAY, 0, STATIC
        MOV     A,#-0xf
        LCALL   ?BANKED_ENTER_XDATA
          CFI DPH0 load(1, XDATA, add(CFA_XSP16, literal(-1)))
          CFI DPL0 load(1, XDATA, add(CFA_XSP16, literal(-2)))
          CFI ?BRET_EXT load(1, XDATA, add(CFA_XSP16, literal(-3)))
          CFI ?RET_HIGH load(1, XDATA, add(CFA_XSP16, literal(-4)))
          CFI ?RET_LOW load(1, XDATA, add(CFA_XSP16, literal(-5)))
          CFI R7 load(1, XDATA, add(CFA_XSP16, literal(-6)))
          CFI V6 load(1, XDATA, add(CFA_XSP16, literal(-7)))
          CFI V5 load(1, XDATA, add(CFA_XSP16, literal(-8)))
          CFI V4 load(1, XDATA, add(CFA_XSP16, literal(-9)))
          CFI V3 load(1, XDATA, add(CFA_XSP16, literal(-10)))
          CFI V2 load(1, XDATA, add(CFA_XSP16, literal(-11)))
          CFI V1 load(1, XDATA, add(CFA_XSP16, literal(-12)))
          CFI V0 load(1, XDATA, add(CFA_XSP16, literal(-13)))
          CFI VB load(1, XDATA, add(CFA_XSP16, literal(-14)))
          CFI R6 load(1, XDATA, add(CFA_XSP16, literal(-15)))
          CFI CFA_SP SP+0
          CFI CFA_XSP16 add(XSP16, 15)
        ; Saved register size: 15
        ; Auto size: 0
        MOV     ?V0 + 0,R2
        MOV     ?V0 + 1,R3
        MOV     A,R4
        MOV     R6,A
        MOV     A,R5
        MOV     R7,A
//  657   ZStatus_t status;
//  658   uint16    index;
//  659   uint8*    entry;
//  660 
//  661 
//  662   // initialize results
//  663   status = ZNwkUnknownDevice;
        MOV     R1,#-0x38
//  664 
//  665   // verify data is available
//  666   if ( ZDSecMgrMasterKeyData != NULL )
        MOV     DPTR,#ZDSecMgrMasterKeyData
        LCALL   ??Subroutine85_0 & 0xFFFF
??CrossCallReturnLabel_123:
        MOV     A,R2
        ORL     A,R3
        JZ      ??ZDSecMgrMasterKeyStore_0
//  667   {
//  668     for ( index = 0; index < ZDSECMGR_MASTERKEY_MAX ; index++ )
        MOV     R2,#0x0
        MOV     R3,#0x0
//  669     {
//  670       if ( ZDSecMgrMasterKeyData[index].ami == INVALID_NODE_ADDR )
??ZDSecMgrMasterKeyStore_1:
        MOV     A,R2
        MOV     R4,A
        MOV     A,R3
        MOV     R5,A
        MOV     A,R4
        MOV     B,#0x12
        MUL     AB
        MOV     R4,A
        MOV     R0,B
        MOV     B,#0x12
        MOV     A,R5
        MUL     AB
        ADD     A,R0
        MOV     R5,A
        MOV     DPTR,#ZDSecMgrMasterKeyData
        MOVX    A,@DPTR
        ADD     A,R4
        MOV     R4,A
        INC     DPTR
        MOVX    A,@DPTR
        ADDC    A,R5
        MOV     R5,A
        MOV     DPL,R4
        MOV     DPH,R5
        MOVX    A,@DPTR
        XRL     A,#0xfe
        JNZ     ??ZDSecMgrMasterKeyStore_2
        INC     DPTR
        MOVX    A,@DPTR
        CPL     A
??ZDSecMgrMasterKeyStore_2:
        JNZ     ??ZDSecMgrMasterKeyStore_3
//  671       {
//  672         // store EXT address index
//  673         ZDSecMgrMasterKeyData[index].ami = ami;
        MOV     DPL,R4
        MOV     DPH,R5
        LCALL   ?Subroutine32 & 0xFFFF
//  674 
//  675         entry = ZDSecMgrMasterKeyData[index].key;
??CrossCallReturnLabel_30:
        MOV     A,R4
        ADD     A,#0x2
        MOV     R2,A
        MOV     A,R5
        ADDC    A,#0x0
        MOV     R3,A
//  676 
//  677         if ( key != NULL )
        MOV     A,R6
        ORL     A,R7
        JZ      ??ZDSecMgrMasterKeyStore_4
//  678         {
//  679           osal_memcpy( entry, key,  SEC_KEY_LEN );
        ; Setup parameters for call to function osal_memcpy
        MOV     ?V0 + 4,R6
        MOV     ?V0 + 5,R7
        MOV     ?V0 + 6,#0x0
        MOV     R0,#?V0 + 4
        LCALL   ?PUSH_XSTACK_I_THREE
          CFI CFA_XSP16 add(XSP16, 18)
        MOV     R4,#0x10
        MOV     R5,#0x0
        LCALL   ??osal_memcpy?relay
        MOV     A,#0x3
        LCALL   ?DEALLOC_XSTACK8
          CFI CFA_XSP16 add(XSP16, 15)
        SJMP    ??ZDSecMgrMasterKeyStore_5
//  680         }
//  681         else
//  682         {
//  683           osal_memset( entry, 0, SEC_KEY_LEN );
??ZDSecMgrMasterKeyStore_4:
        ; Setup parameters for call to function osal_memset
        MOV     R4,#0x10
        MOV     R5,#0x0
        MOV     R1,#0x0
        LCALL   ??osal_memset?relay
//  684         }
//  685 
//  686         // return successful results
//  687         status = ZSuccess;
??ZDSecMgrMasterKeyStore_5:
        MOV     R1,#0x0
//  688 
//  689         // break from loop
//  690         index  = ZDSECMGR_MASTERKEY_MAX;
        MOV     R2,#0x3
        MOV     R3,#0x0
//  691       }
//  692     }
??ZDSecMgrMasterKeyStore_3:
        LCALL   ?Subroutine52 & 0xFFFF
//  693   }
??CrossCallReturnLabel_64:
        JC      ??ZDSecMgrMasterKeyStore_1
          CFI EndBlock cfiBlock43
//  694 
//  695   return status;
??ZDSecMgrMasterKeyStore_0:
        REQUIRE ?Subroutine3
        ; // Fall through to label ?Subroutine3
//  696 }

        RSEG BANKED_CODE:CODE:NOROOT(0)
?Subroutine3:
          CFI Block cfiBlock44 Using cfiCommon0
          CFI NoFunction
          CFI CFA_SP SP+0
          CFI CFA_XSP16 add(XSP16, 15)
          CFI VB load(1, XDATA, add(CFA_XSP16, literal(-14)))
          CFI DPL0 load(1, XDATA, add(CFA_XSP16, literal(-2)))
          CFI DPH0 load(1, XDATA, add(CFA_XSP16, literal(-1)))
          CFI R6 load(1, XDATA, add(CFA_XSP16, literal(-15)))
          CFI R7 load(1, XDATA, add(CFA_XSP16, literal(-6)))
          CFI V0 load(1, XDATA, add(CFA_XSP16, literal(-13)))
          CFI V1 load(1, XDATA, add(CFA_XSP16, literal(-12)))
          CFI V2 load(1, XDATA, add(CFA_XSP16, literal(-11)))
          CFI V3 load(1, XDATA, add(CFA_XSP16, literal(-10)))
          CFI V4 load(1, XDATA, add(CFA_XSP16, literal(-9)))
          CFI V5 load(1, XDATA, add(CFA_XSP16, literal(-8)))
          CFI V6 load(1, XDATA, add(CFA_XSP16, literal(-7)))
          CFI ?BRET_EXT load(1, XDATA, add(CFA_XSP16, literal(-3)))
          CFI ?RET_HIGH load(1, XDATA, add(CFA_XSP16, literal(-4)))
          CFI ?RET_LOW load(1, XDATA, add(CFA_XSP16, literal(-5)))
        MOV     R7,#0x7
        LJMP    ?BANKED_LEAVE_XDATA
          CFI EndBlock cfiBlock44
//  697 
//  698 /******************************************************************************
//  699  * @fn          ZDSecMgrEntryInit
//  700  *
//  701  * @brief       Initialize entry sub module
//  702  *
//  703  * @param       state - device initialization state
//  704  *
//  705  * @return      none
//  706  */

        RSEG BANKED_CODE:CODE:NOROOT(0)
//  707 void ZDSecMgrEntryInit(uint8 state)
ZDSecMgrEntryInit:
          CFI Block cfiBlock45 Using cfiCommon0
          CFI Function ZDSecMgrEntryInit
        CODE
//  708 {
        FUNCALL ZDSecMgrEntryInit, osal_mem_alloc
        LOCFRAME ISTACK, 2, STACK
        LOCFRAME PSTACK, 0, STACK
        LOCFRAME XSTACK, 0, STACK
        LOCFRAME IOVERLAY, 0, STATIC
        LOCFRAME DOVERLAY, 0, STATIC
        ARGFRAME ISTACK, 2, STACK
        ARGFRAME PSTACK, 0, STACK
        ARGFRAME XSTACK, 0, STACK
        ARGFRAME IOVERLAY, 0, STATIC
        ARGFRAME DOVERLAY, 0, STATIC
        PUSH    DPL
          CFI DPL0 Frame(CFA_SP, 4)
          CFI CFA_SP SP+-4
        PUSH    DPH
          CFI DPH0 Frame(CFA_SP, 5)
          CFI CFA_SP SP+-5
        ; Saved register size: 2
        ; Auto size: 0
//  709   if (ZDSecMgrEntries == NULL)
        MOV     DPTR,#ZDSecMgrEntries
        LCALL   ??Subroutine100_0 & 0xFFFF
??CrossCallReturnLabel_224:
        JNZ     ??ZDSecMgrEntryInit_0
//  710   {
//  711     uint16 index;
//  712 
//  713     if ((ZDSecMgrEntries = osal_mem_alloc(sizeof(ZDSecMgrEntry_t) * ZDSECMGR_ENTRY_MAX)) == NULL)
        ; Setup parameters for call to function osal_mem_alloc
        MOV     R2,#0x57
        MOV     R3,#0x0
        LCALL   ??osal_mem_alloc?relay
        MOV     DPTR,#ZDSecMgrEntries
        LCALL   ?Subroutine36 & 0xFFFF
??CrossCallReturnLabel_37:
        MOV     DPTR,#ZDSecMgrEntries
        LCALL   ??Subroutine100_0 & 0xFFFF
??CrossCallReturnLabel_225:
        JZ      ??ZDSecMgrEntryInit_0
//  714     {
//  715       return;
//  716     }
//  717 
//  718     for (index = 0; index < ZDSECMGR_ENTRY_MAX; index++)
        MOV     R0,#0x0
        MOV     R1,#0x0
//  719     {
//  720       ZDSecMgrEntries[index].ami = INVALID_NODE_ADDR;
??ZDSecMgrEntryInit_1:
        MOV     A,R0
        MOV     R2,A
        MOV     A,R1
        MOV     R3,A
        MOV     A,R2
        MOV     B,#0x1d
        MUL     AB
        MOV     R2,A
        MOV     R4,B
        MOV     B,#0x1d
        MOV     A,R3
        MUL     AB
        ADD     A,R4
        MOV     R3,A
        MOV     DPTR,#ZDSecMgrEntries
        LCALL   ?Subroutine15 & 0xFFFF
//  721     }
//  722   }
??CrossCallReturnLabel_91:
        JC      ??ZDSecMgrEntryInit_1
??ZDSecMgrEntryInit_0:
        LJMP    ??Subroutine89_0 & 0xFFFF
          CFI EndBlock cfiBlock45
//  723 
//  724 #if defined NV_RESTORE
//  725   if (state == ZDO_INITDEV_RESTORED_NETWORK_STATE)
//  726   {
//  727     ZDSecMgrRestoreFromNV();
//  728   }
//  729 #else
//  730   (void)state;
//  731 #endif
//  732 }
//  733 
//  734 /******************************************************************************
//  735  * @fn          ZDSecMgrEntryLookup
//  736  *
//  737  * @brief       Lookup entry index using specified NWK address.
//  738  *
//  739  * @param       nwkAddr - [in] NWK address
//  740  * @param       entry   - [out] valid entry
//  741  *
//  742  * @return      ZStatus_t
//  743  */

        RSEG BANKED_CODE:CODE:NOROOT(0)
//  744 ZStatus_t ZDSecMgrEntryLookup( uint16 nwkAddr, ZDSecMgrEntry_t** entry )
ZDSecMgrEntryLookup:
          CFI Block cfiBlock46 Using cfiCommon0
          CFI Function ZDSecMgrEntryLookup
        CODE
//  745 {
        FUNCALL ZDSecMgrEntryLookup, AddrMgrEntryLookupNwk
        LOCFRAME ISTACK, 0, STACK
        LOCFRAME PSTACK, 0, STACK
        LOCFRAME XSTACK, 23, STACK
        LOCFRAME IOVERLAY, 0, STATIC
        LOCFRAME DOVERLAY, 0, STATIC
        ARGFRAME ISTACK, 0, STACK
        ARGFRAME PSTACK, 0, STACK
        ARGFRAME XSTACK, 23, STACK
        ARGFRAME IOVERLAY, 0, STATIC
        ARGFRAME DOVERLAY, 0, STATIC
        MOV     A,#-0xa
        LCALL   ?BANKED_ENTER_XDATA
          CFI DPH0 load(1, XDATA, add(CFA_XSP16, literal(-1)))
          CFI DPL0 load(1, XDATA, add(CFA_XSP16, literal(-2)))
          CFI ?BRET_EXT load(1, XDATA, add(CFA_XSP16, literal(-3)))
          CFI ?RET_HIGH load(1, XDATA, add(CFA_XSP16, literal(-4)))
          CFI ?RET_LOW load(1, XDATA, add(CFA_XSP16, literal(-5)))
          CFI R7 load(1, XDATA, add(CFA_XSP16, literal(-6)))
          CFI V1 load(1, XDATA, add(CFA_XSP16, literal(-7)))
          CFI V0 load(1, XDATA, add(CFA_XSP16, literal(-8)))
          CFI VB load(1, XDATA, add(CFA_XSP16, literal(-9)))
          CFI R6 load(1, XDATA, add(CFA_XSP16, literal(-10)))
          CFI CFA_SP SP+0
          CFI CFA_XSP16 add(XSP16, 10)
        ; Saved register size: 10
        ; Auto size: 13
        MOV     A,#-0xd
        LCALL   ?ALLOC_XSTACK8
          CFI CFA_XSP16 add(XSP16, 23)
        MOV     A,R4
        MOV     R6,A
        MOV     A,R5
        MOV     R7,A
//  746   ZStatus_t      status;
//  747   uint16         index;
//  748   AddrMgrEntry_t addrMgrEntry;
//  749 
//  750 
//  751   // initialize results
//  752   *entry = NULL;
        MOV     DPL,R6
        MOV     DPH,R7
        LCALL   ?Subroutine19 & 0xFFFF
//  753   status = ZNwkUnknownDevice;
//  754 
//  755   // verify data is available
//  756   if ( ZDSecMgrEntries != NULL )
??CrossCallReturnLabel_2:
        JZ      ??ZDSecMgrEntryLookup_0
//  757   {
//  758     addrMgrEntry.user    = ADDRMGR_USER_SECURITY;
        MOV     DPL,?XSP + 0
        MOV     DPH,?XSP + 1
        MOV     A,#0x2
        MOVX    @DPTR,A
//  759     addrMgrEntry.nwkAddr = nwkAddr;
        DEC     A
        LCALL   ?XSTACK_DISP0_8
        MOV     A,R2
        MOVX    @DPTR,A
        INC     DPTR
        MOV     A,R3
        LCALL   ??Subroutine90_0 & 0xFFFF
//  760 
//  761     if ( AddrMgrEntryLookupNwk( &addrMgrEntry ) == TRUE )
??CrossCallReturnLabel_176:
        LCALL   ??AddrMgrEntryLookupNwk?relay
        MOV     A,R1
        XRL     A,#0x1
        JNZ     ??ZDSecMgrEntryLookup_0
//  762     {
//  763       for ( index = 0; index < ZDSECMGR_ENTRY_MAX ; index++ )
        MOV     R0,#0x0
        MOV     R1,#0x0
//  764       {
//  765         if ( addrMgrEntry.index == ZDSecMgrEntries[index].ami )
??ZDSecMgrEntryLookup_1:
        MOV     A,R0
        MOV     R2,A
        MOV     A,R1
        MOV     R3,A
        MOV     A,R2
        MOV     B,#0x1d
        MUL     AB
        MOV     R2,A
        MOV     R4,B
        MOV     B,#0x1d
        MOV     A,R3
        MUL     AB
        ADD     A,R4
        MOV     R3,A
        MOV     DPTR,#ZDSecMgrEntries
        MOVX    A,@DPTR
        ADD     A,R2
        MOV     R2,A
        INC     DPTR
        MOVX    A,@DPTR
        ADDC    A,R3
        MOV     R3,A
        MOV     A,#0xb
        LCALL   ?XSTACK_DISP0_8
        LCALL   ?Subroutine66 & 0xFFFF
??CrossCallReturnLabel_119:
        MOV     DPL,R2
        MOV     DPH,R3
        MOVX    A,@DPTR
        XRL     A,R4
        JNZ     ??ZDSecMgrEntryLookup_2
        INC     DPTR
        MOVX    A,@DPTR
        XRL     A,R5
??ZDSecMgrEntryLookup_2:
        JNZ     ??CrossCallReturnLabel_97
//  766         {
//  767           // return successful results
//  768           *entry = &ZDSecMgrEntries[index];
        MOV     A,R2
        MOV     R0,A
        MOV     A,R3
        MOV     R1,A
        MOV     DPL,R6
        MOV     DPH,R7
        LCALL   ??Subroutine74_0 & 0xFFFF
//  769           status = ZSuccess;
//  770 
//  771           // break from loop
//  772           index = ZDSECMGR_ENTRY_MAX;
//  773         }
//  774       }
??CrossCallReturnLabel_97:
        LCALL   ?Subroutine51 & 0xFFFF
//  775     }
//  776   }
??CrossCallReturnLabel_61:
        JC      ??ZDSecMgrEntryLookup_1
//  777 
//  778   return status;
??ZDSecMgrEntryLookup_0:
        MOV     R1,?V0 + 0
        LJMP    ?Subroutine2 & 0xFFFF
          CFI EndBlock cfiBlock46
//  779 }
//  780 
//  781 /******************************************************************************
//  782  * @fn          ZDSecMgrEntryLookupAMI
//  783  *
//  784  * @brief       Lookup entry using specified address index
//  785  *
//  786  * @param       ami   - [in] Address Manager index
//  787  * @param       entry - [out] valid entry
//  788  *
//  789  * @return      ZStatus_t
//  790  */

        RSEG BANKED_CODE:CODE:NOROOT(0)
//  791 ZStatus_t ZDSecMgrEntryLookupAMI( uint16 ami, ZDSecMgrEntry_t** entry )
ZDSecMgrEntryLookupAMI:
          CFI Block cfiBlock47 Using cfiCommon0
          CFI Function ZDSecMgrEntryLookupAMI
        CODE
//  792 {
        MOV     A,#-0xa
        LCALL   ?BANKED_ENTER_XDATA
          CFI DPH0 load(1, XDATA, add(CFA_XSP16, literal(-1)))
          CFI DPL0 load(1, XDATA, add(CFA_XSP16, literal(-2)))
          CFI ?BRET_EXT load(1, XDATA, add(CFA_XSP16, literal(-3)))
          CFI ?RET_HIGH load(1, XDATA, add(CFA_XSP16, literal(-4)))
          CFI ?RET_LOW load(1, XDATA, add(CFA_XSP16, literal(-5)))
          CFI R7 load(1, XDATA, add(CFA_XSP16, literal(-6)))
          CFI V1 load(1, XDATA, add(CFA_XSP16, literal(-7)))
          CFI V0 load(1, XDATA, add(CFA_XSP16, literal(-8)))
          CFI VB load(1, XDATA, add(CFA_XSP16, literal(-9)))
          CFI R6 load(1, XDATA, add(CFA_XSP16, literal(-10)))
          CFI CFA_SP SP+0
          CFI CFA_XSP16 add(XSP16, 10)
        ; Saved register size: 10
        ; Auto size: 0
        MOV     A,R2
        MOV     R6,A
        MOV     A,R3
        MOV     R7,A
//  793   ZStatus_t status;
//  794   uint16    index;
//  795 
//  796 
//  797   // initialize results
//  798   *entry = NULL;
        MOV     DPL,R4
        MOV     DPH,R5
        LCALL   ?Subroutine19 & 0xFFFF
//  799   status = ZNwkUnknownDevice;
//  800 
//  801   // verify data is available
//  802   if ( ZDSecMgrEntries != NULL )
??CrossCallReturnLabel_3:
        JZ      ??ZDSecMgrEntryLookupAMI_0
//  803   {
//  804     for ( index = 0; index < ZDSECMGR_ENTRY_MAX ; index++ )
        MOV     R0,#0x0
        MOV     R1,#0x0
//  805     {
//  806       if ( ZDSecMgrEntries[index].ami == ami )
??ZDSecMgrEntryLookupAMI_1:
        MOV     A,R0
        MOV     R2,A
        MOV     A,R1
        MOV     R3,A
        MOV     A,R2
        MOV     B,#0x1d
        MUL     AB
        MOV     R2,A
        MOV     ?V0 + 1,B
        MOV     B,#0x1d
        MOV     A,R3
        MUL     AB
        ADD     A,?V0 + 1
        MOV     R3,A
        MOV     DPTR,#ZDSecMgrEntries
        LCALL   ?Subroutine42 & 0xFFFF
??CrossCallReturnLabel_47:
        MOVX    A,@DPTR
        XRL     A,R6
        JNZ     ??ZDSecMgrEntryLookupAMI_2
        INC     DPTR
        MOVX    A,@DPTR
        XRL     A,R7
??ZDSecMgrEntryLookupAMI_2:
        JNZ     ??CrossCallReturnLabel_96
//  807       {
//  808         // return successful results
//  809         *entry = &ZDSecMgrEntries[index];
        MOV     A,R2
        MOV     R0,A
        MOV     A,R3
        LCALL   ?Subroutine16 & 0xFFFF
//  810         status = ZSuccess;
//  811 
//  812         // break from loop
//  813         index = ZDSECMGR_ENTRY_MAX;
//  814       }
//  815     }
??CrossCallReturnLabel_96:
        LCALL   ?Subroutine51 & 0xFFFF
//  816   }
??CrossCallReturnLabel_62:
        JC      ??ZDSecMgrEntryLookupAMI_1
//  817 
//  818   return status;
??ZDSecMgrEntryLookupAMI_0:
        LJMP    ?Subroutine10 & 0xFFFF
          CFI EndBlock cfiBlock47
//  819 }

        RSEG BANKED_CODE:CODE:NOROOT(0)
?Subroutine51:
          CFI Block cfiCond48 Using cfiCommon0
          CFI Function ZDSecMgrMasterKeyLookup
          CFI Conditional ??CrossCallReturnLabel_60
          CFI R6 load(1, XDATA, add(CFA_XSP16, literal(-10)))
          CFI VB load(1, XDATA, add(CFA_XSP16, literal(-9)))
          CFI V0 load(1, XDATA, add(CFA_XSP16, literal(-8)))
          CFI V1 load(1, XDATA, add(CFA_XSP16, literal(-7)))
          CFI R7 load(1, XDATA, add(CFA_XSP16, literal(-6)))
          CFI ?RET_LOW load(1, XDATA, add(CFA_XSP16, literal(-5)))
          CFI ?RET_HIGH load(1, XDATA, add(CFA_XSP16, literal(-4)))
          CFI ?BRET_EXT load(1, XDATA, add(CFA_XSP16, literal(-3)))
          CFI DPL0 load(1, XDATA, add(CFA_XSP16, literal(-2)))
          CFI DPH0 load(1, XDATA, add(CFA_XSP16, literal(-1)))
          CFI CFA_SP SP+0
          CFI CFA_XSP16 add(XSP16, 10)
          CFI Block cfiCond49 Using cfiCommon0
          CFI (cfiCond49) Function ZDSecMgrEntryLookup
          CFI (cfiCond49) Conditional ??CrossCallReturnLabel_61
          CFI (cfiCond49) R6 load(1, XDATA, add(CFA_XSP16, literal(-10)))
          CFI (cfiCond49) VB load(1, XDATA, add(CFA_XSP16, literal(-9)))
          CFI (cfiCond49) V0 load(1, XDATA, add(CFA_XSP16, literal(-8)))
          CFI (cfiCond49) V1 load(1, XDATA, add(CFA_XSP16, literal(-7)))
          CFI (cfiCond49) R7 load(1, XDATA, add(CFA_XSP16, literal(-6)))
          CFI (cfiCond49) ?RET_LOW load(1, XDATA, add(CFA_XSP16, literal(-5)))
          CFI (cfiCond49) ?RET_HIGH load(1, XDATA, add(CFA_XSP16, literal(-4)))
          CFI (cfiCond49) ?BRET_EXT load(1, XDATA, add(CFA_XSP16, literal(-3)))
          CFI (cfiCond49) DPL0 load(1, XDATA, add(CFA_XSP16, literal(-2)))
          CFI (cfiCond49) DPH0 load(1, XDATA, add(CFA_XSP16, literal(-1)))
          CFI (cfiCond49) CFA_SP SP+0
          CFI (cfiCond49) CFA_XSP16 add(XSP16, 23)
          CFI Block cfiCond50 Using cfiCommon0
          CFI (cfiCond50) Function ZDSecMgrEntryLookupAMI
          CFI (cfiCond50) Conditional ??CrossCallReturnLabel_62
          CFI (cfiCond50) R6 load(1, XDATA, add(CFA_XSP16, literal(-10)))
          CFI (cfiCond50) VB load(1, XDATA, add(CFA_XSP16, literal(-9)))
          CFI (cfiCond50) V0 load(1, XDATA, add(CFA_XSP16, literal(-8)))
          CFI (cfiCond50) V1 load(1, XDATA, add(CFA_XSP16, literal(-7)))
          CFI (cfiCond50) R7 load(1, XDATA, add(CFA_XSP16, literal(-6)))
          CFI (cfiCond50) ?RET_LOW load(1, XDATA, add(CFA_XSP16, literal(-5)))
          CFI (cfiCond50) ?RET_HIGH load(1, XDATA, add(CFA_XSP16, literal(-4)))
          CFI (cfiCond50) ?BRET_EXT load(1, XDATA, add(CFA_XSP16, literal(-3)))
          CFI (cfiCond50) DPL0 load(1, XDATA, add(CFA_XSP16, literal(-2)))
          CFI (cfiCond50) DPH0 load(1, XDATA, add(CFA_XSP16, literal(-1)))
          CFI (cfiCond50) CFA_SP SP+0
          CFI (cfiCond50) CFA_XSP16 add(XSP16, 10)
          CFI Block cfiCond51 Using cfiCommon0
          CFI (cfiCond51) Function ZDSecMgrCtrlLookup
          CFI (cfiCond51) Conditional ??CrossCallReturnLabel_63
          CFI (cfiCond51) R6 load(1, XDATA, add(CFA_XSP16, literal(-10)))
          CFI (cfiCond51) VB load(1, XDATA, add(CFA_XSP16, literal(-9)))
          CFI (cfiCond51) V0 load(1, XDATA, add(CFA_XSP16, literal(-8)))
          CFI (cfiCond51) V1 load(1, XDATA, add(CFA_XSP16, literal(-7)))
          CFI (cfiCond51) R7 load(1, XDATA, add(CFA_XSP16, literal(-6)))
          CFI (cfiCond51) ?RET_LOW load(1, XDATA, add(CFA_XSP16, literal(-5)))
          CFI (cfiCond51) ?RET_HIGH load(1, XDATA, add(CFA_XSP16, literal(-4)))
          CFI (cfiCond51) ?BRET_EXT load(1, XDATA, add(CFA_XSP16, literal(-3)))
          CFI (cfiCond51) DPL0 load(1, XDATA, add(CFA_XSP16, literal(-2)))
          CFI (cfiCond51) DPH0 load(1, XDATA, add(CFA_XSP16, literal(-1)))
          CFI (cfiCond51) CFA_SP SP+0
          CFI (cfiCond51) CFA_XSP16 add(XSP16, 10)
          CFI Block cfiPicker52 Using cfiCommon1
          CFI (cfiPicker52) NoFunction
          CFI (cfiPicker52) Picker
        LCALL   ?Subroutine70 & 0xFFFF
??CrossCallReturnLabel_94:
        RET
          CFI EndBlock cfiCond48
          CFI EndBlock cfiCond49
          CFI EndBlock cfiCond50
          CFI EndBlock cfiCond51
          CFI EndBlock cfiPicker52

        RSEG BANKED_CODE:CODE:NOROOT(0)
?Subroutine70:
          CFI Block cfiCond53 Using cfiCommon0
          CFI Function ZDSecMgrMasterKeyInit
          CFI Conditional ??CrossCallReturnLabel_93, ??CrossCallReturnLabel_90
          CFI DPL0 Frame(CFA_SP, 4)
          CFI DPH0 Frame(CFA_SP, 5)
          CFI CFA_SP SP+-5
          CFI Block cfiCond54 Using cfiCommon0
          CFI (cfiCond54) Function ZDSecMgrEntryInit
          CFI (cfiCond54) Conditional ??CrossCallReturnLabel_93, ??CrossCallReturnLabel_91
          CFI (cfiCond54) DPL0 Frame(CFA_SP, 4)
          CFI (cfiCond54) DPH0 Frame(CFA_SP, 5)
          CFI (cfiCond54) CFA_SP SP+-5
          CFI Block cfiCond55 Using cfiCommon0
          CFI (cfiCond55) Function ZDSecMgrCtrlInit
          CFI (cfiCond55) Conditional ??CrossCallReturnLabel_93, ??CrossCallReturnLabel_92
          CFI (cfiCond55) DPL0 Frame(CFA_SP, 4)
          CFI (cfiCond55) DPH0 Frame(CFA_SP, 5)
          CFI (cfiCond55) CFA_SP SP+-5
          CFI Block cfiCond56 Using cfiCommon0
          CFI (cfiCond56) Function ZDSecMgrMasterKeyLookup
          CFI (cfiCond56) Conditional ??CrossCallReturnLabel_94, ??CrossCallReturnLabel_60
          CFI (cfiCond56) R6 load(1, XDATA, add(CFA_XSP16, literal(-10)))
          CFI (cfiCond56) VB load(1, XDATA, add(CFA_XSP16, literal(-9)))
          CFI (cfiCond56) V0 load(1, XDATA, add(CFA_XSP16, literal(-8)))
          CFI (cfiCond56) V1 load(1, XDATA, add(CFA_XSP16, literal(-7)))
          CFI (cfiCond56) R7 load(1, XDATA, add(CFA_XSP16, literal(-6)))
          CFI (cfiCond56) ?RET_LOW load(1, XDATA, add(CFA_XSP16, literal(-5)))
          CFI (cfiCond56) ?RET_HIGH load(1, XDATA, add(CFA_XSP16, literal(-4)))
          CFI (cfiCond56) ?BRET_EXT load(1, XDATA, add(CFA_XSP16, literal(-3)))
          CFI (cfiCond56) DPL0 load(1, XDATA, add(CFA_XSP16, literal(-2)))
          CFI (cfiCond56) DPH0 load(1, XDATA, add(CFA_XSP16, literal(-1)))
          CFI (cfiCond56) CFA_SP SP+0
          CFI (cfiCond56) CFA_XSP16 add(XSP16, 10)
          CFI Block cfiCond57 Using cfiCommon0
          CFI (cfiCond57) Function ZDSecMgrEntryLookup
          CFI (cfiCond57) Conditional ??CrossCallReturnLabel_94, ??CrossCallReturnLabel_61
          CFI (cfiCond57) R6 load(1, XDATA, add(CFA_XSP16, literal(-10)))
          CFI (cfiCond57) VB load(1, XDATA, add(CFA_XSP16, literal(-9)))
          CFI (cfiCond57) V0 load(1, XDATA, add(CFA_XSP16, literal(-8)))
          CFI (cfiCond57) V1 load(1, XDATA, add(CFA_XSP16, literal(-7)))
          CFI (cfiCond57) R7 load(1, XDATA, add(CFA_XSP16, literal(-6)))
          CFI (cfiCond57) ?RET_LOW load(1, XDATA, add(CFA_XSP16, literal(-5)))
          CFI (cfiCond57) ?RET_HIGH load(1, XDATA, add(CFA_XSP16, literal(-4)))
          CFI (cfiCond57) ?BRET_EXT load(1, XDATA, add(CFA_XSP16, literal(-3)))
          CFI (cfiCond57) DPL0 load(1, XDATA, add(CFA_XSP16, literal(-2)))
          CFI (cfiCond57) DPH0 load(1, XDATA, add(CFA_XSP16, literal(-1)))
          CFI (cfiCond57) CFA_SP SP+0
          CFI (cfiCond57) CFA_XSP16 add(XSP16, 23)
          CFI Block cfiCond58 Using cfiCommon0
          CFI (cfiCond58) Function ZDSecMgrEntryLookupAMI
          CFI (cfiCond58) Conditional ??CrossCallReturnLabel_94, ??CrossCallReturnLabel_62
          CFI (cfiCond58) R6 load(1, XDATA, add(CFA_XSP16, literal(-10)))
          CFI (cfiCond58) VB load(1, XDATA, add(CFA_XSP16, literal(-9)))
          CFI (cfiCond58) V0 load(1, XDATA, add(CFA_XSP16, literal(-8)))
          CFI (cfiCond58) V1 load(1, XDATA, add(CFA_XSP16, literal(-7)))
          CFI (cfiCond58) R7 load(1, XDATA, add(CFA_XSP16, literal(-6)))
          CFI (cfiCond58) ?RET_LOW load(1, XDATA, add(CFA_XSP16, literal(-5)))
          CFI (cfiCond58) ?RET_HIGH load(1, XDATA, add(CFA_XSP16, literal(-4)))
          CFI (cfiCond58) ?BRET_EXT load(1, XDATA, add(CFA_XSP16, literal(-3)))
          CFI (cfiCond58) DPL0 load(1, XDATA, add(CFA_XSP16, literal(-2)))
          CFI (cfiCond58) DPH0 load(1, XDATA, add(CFA_XSP16, literal(-1)))
          CFI (cfiCond58) CFA_SP SP+0
          CFI (cfiCond58) CFA_XSP16 add(XSP16, 10)
          CFI Block cfiCond59 Using cfiCommon0
          CFI (cfiCond59) Function ZDSecMgrCtrlLookup
          CFI (cfiCond59) Conditional ??CrossCallReturnLabel_94, ??CrossCallReturnLabel_63
          CFI (cfiCond59) R6 load(1, XDATA, add(CFA_XSP16, literal(-10)))
          CFI (cfiCond59) VB load(1, XDATA, add(CFA_XSP16, literal(-9)))
          CFI (cfiCond59) V0 load(1, XDATA, add(CFA_XSP16, literal(-8)))
          CFI (cfiCond59) V1 load(1, XDATA, add(CFA_XSP16, literal(-7)))
          CFI (cfiCond59) R7 load(1, XDATA, add(CFA_XSP16, literal(-6)))
          CFI (cfiCond59) ?RET_LOW load(1, XDATA, add(CFA_XSP16, literal(-5)))
          CFI (cfiCond59) ?RET_HIGH load(1, XDATA, add(CFA_XSP16, literal(-4)))
          CFI (cfiCond59) ?BRET_EXT load(1, XDATA, add(CFA_XSP16, literal(-3)))
          CFI (cfiCond59) DPL0 load(1, XDATA, add(CFA_XSP16, literal(-2)))
          CFI (cfiCond59) DPH0 load(1, XDATA, add(CFA_XSP16, literal(-1)))
          CFI (cfiCond59) CFA_SP SP+0
          CFI (cfiCond59) CFA_XSP16 add(XSP16, 10)
          CFI Block cfiPicker60 Using cfiCommon1
          CFI (cfiPicker60) NoFunction
          CFI (cfiPicker60) Picker
        MOV     A,R0
        ADD     A,#0x1
        INC     R0
        MOV     A,R1
        ADDC    A,#0x0
        MOV     R1,A
        CLR     C
        MOV     A,R0
        SUBB    A,#0x3
        MOV     A,R1
        SUBB    A,#0x0
        RET
          CFI EndBlock cfiCond53
          CFI EndBlock cfiCond54
          CFI EndBlock cfiCond55
          CFI EndBlock cfiCond56
          CFI EndBlock cfiCond57
          CFI EndBlock cfiCond58
          CFI EndBlock cfiCond59
          CFI EndBlock cfiPicker60

        RSEG BANKED_CODE:CODE:NOROOT(0)
?Subroutine19:
          CFI Block cfiCond61 Using cfiCommon0
          CFI Function ZDSecMgrEntryLookup
          CFI Conditional ??CrossCallReturnLabel_2
          CFI R6 load(1, XDATA, add(CFA_XSP16, literal(-10)))
          CFI VB load(1, XDATA, add(CFA_XSP16, literal(-9)))
          CFI V0 load(1, XDATA, add(CFA_XSP16, literal(-8)))
          CFI V1 load(1, XDATA, add(CFA_XSP16, literal(-7)))
          CFI R7 load(1, XDATA, add(CFA_XSP16, literal(-6)))
          CFI ?RET_LOW load(1, XDATA, add(CFA_XSP16, literal(-5)))
          CFI ?RET_HIGH load(1, XDATA, add(CFA_XSP16, literal(-4)))
          CFI ?BRET_EXT load(1, XDATA, add(CFA_XSP16, literal(-3)))
          CFI DPL0 load(1, XDATA, add(CFA_XSP16, literal(-2)))
          CFI DPH0 load(1, XDATA, add(CFA_XSP16, literal(-1)))
          CFI CFA_SP SP+0
          CFI CFA_XSP16 add(XSP16, 23)
          CFI Block cfiCond62 Using cfiCommon0
          CFI (cfiCond62) Function ZDSecMgrEntryLookupAMI
          CFI (cfiCond62) Conditional ??CrossCallReturnLabel_3
          CFI (cfiCond62) R6 load(1, XDATA, add(CFA_XSP16, literal(-10)))
          CFI (cfiCond62) VB load(1, XDATA, add(CFA_XSP16, literal(-9)))
          CFI (cfiCond62) V0 load(1, XDATA, add(CFA_XSP16, literal(-8)))
          CFI (cfiCond62) V1 load(1, XDATA, add(CFA_XSP16, literal(-7)))
          CFI (cfiCond62) R7 load(1, XDATA, add(CFA_XSP16, literal(-6)))
          CFI (cfiCond62) ?RET_LOW load(1, XDATA, add(CFA_XSP16, literal(-5)))
          CFI (cfiCond62) ?RET_HIGH load(1, XDATA, add(CFA_XSP16, literal(-4)))
          CFI (cfiCond62) ?BRET_EXT load(1, XDATA, add(CFA_XSP16, literal(-3)))
          CFI (cfiCond62) DPL0 load(1, XDATA, add(CFA_XSP16, literal(-2)))
          CFI (cfiCond62) DPH0 load(1, XDATA, add(CFA_XSP16, literal(-1)))
          CFI (cfiCond62) CFA_SP SP+0
          CFI (cfiCond62) CFA_XSP16 add(XSP16, 10)
          CFI Block cfiPicker63 Using cfiCommon1
          CFI (cfiPicker63) NoFunction
          CFI (cfiPicker63) Picker
        LCALL   ?Subroutine68 & 0xFFFF
??CrossCallReturnLabel_84:
        MOV     DPTR,#ZDSecMgrEntries
        LCALL   ?Subroutine63 & 0xFFFF
??CrossCallReturnLabel_236:
        RET
          CFI EndBlock cfiCond61
          CFI EndBlock cfiCond62
          CFI EndBlock cfiPicker63

        RSEG BANKED_CODE:CODE:NOROOT(0)
?Subroutine68:
          CFI Block cfiCond64 Using cfiCommon0
          CFI Function ZDSecMgrMasterKeyLookup
          CFI Conditional ??CrossCallReturnLabel_83
          CFI R6 load(1, XDATA, add(CFA_XSP16, literal(-10)))
          CFI VB load(1, XDATA, add(CFA_XSP16, literal(-9)))
          CFI V0 load(1, XDATA, add(CFA_XSP16, literal(-8)))
          CFI V1 load(1, XDATA, add(CFA_XSP16, literal(-7)))
          CFI R7 load(1, XDATA, add(CFA_XSP16, literal(-6)))
          CFI ?RET_LOW load(1, XDATA, add(CFA_XSP16, literal(-5)))
          CFI ?RET_HIGH load(1, XDATA, add(CFA_XSP16, literal(-4)))
          CFI ?BRET_EXT load(1, XDATA, add(CFA_XSP16, literal(-3)))
          CFI DPL0 load(1, XDATA, add(CFA_XSP16, literal(-2)))
          CFI DPH0 load(1, XDATA, add(CFA_XSP16, literal(-1)))
          CFI CFA_SP SP+0
          CFI CFA_XSP16 add(XSP16, 10)
          CFI Block cfiCond65 Using cfiCommon0
          CFI (cfiCond65) Function ZDSecMgrEntryLookup
          CFI (cfiCond65) Conditional ??CrossCallReturnLabel_84, ??CrossCallReturnLabel_2
          CFI (cfiCond65) R6 load(1, XDATA, add(CFA_XSP16, literal(-10)))
          CFI (cfiCond65) VB load(1, XDATA, add(CFA_XSP16, literal(-9)))
          CFI (cfiCond65) V0 load(1, XDATA, add(CFA_XSP16, literal(-8)))
          CFI (cfiCond65) V1 load(1, XDATA, add(CFA_XSP16, literal(-7)))
          CFI (cfiCond65) R7 load(1, XDATA, add(CFA_XSP16, literal(-6)))
          CFI (cfiCond65) ?RET_LOW load(1, XDATA, add(CFA_XSP16, literal(-5)))
          CFI (cfiCond65) ?RET_HIGH load(1, XDATA, add(CFA_XSP16, literal(-4)))
          CFI (cfiCond65) ?BRET_EXT load(1, XDATA, add(CFA_XSP16, literal(-3)))
          CFI (cfiCond65) DPL0 load(1, XDATA, add(CFA_XSP16, literal(-2)))
          CFI (cfiCond65) DPH0 load(1, XDATA, add(CFA_XSP16, literal(-1)))
          CFI (cfiCond65) CFA_SP SP+0
          CFI (cfiCond65) CFA_XSP16 add(XSP16, 23)
          CFI Block cfiCond66 Using cfiCommon0
          CFI (cfiCond66) Function ZDSecMgrEntryLookupAMI
          CFI (cfiCond66) Conditional ??CrossCallReturnLabel_84, ??CrossCallReturnLabel_3
          CFI (cfiCond66) R6 load(1, XDATA, add(CFA_XSP16, literal(-10)))
          CFI (cfiCond66) VB load(1, XDATA, add(CFA_XSP16, literal(-9)))
          CFI (cfiCond66) V0 load(1, XDATA, add(CFA_XSP16, literal(-8)))
          CFI (cfiCond66) V1 load(1, XDATA, add(CFA_XSP16, literal(-7)))
          CFI (cfiCond66) R7 load(1, XDATA, add(CFA_XSP16, literal(-6)))
          CFI (cfiCond66) ?RET_LOW load(1, XDATA, add(CFA_XSP16, literal(-5)))
          CFI (cfiCond66) ?RET_HIGH load(1, XDATA, add(CFA_XSP16, literal(-4)))
          CFI (cfiCond66) ?BRET_EXT load(1, XDATA, add(CFA_XSP16, literal(-3)))
          CFI (cfiCond66) DPL0 load(1, XDATA, add(CFA_XSP16, literal(-2)))
          CFI (cfiCond66) DPH0 load(1, XDATA, add(CFA_XSP16, literal(-1)))
          CFI (cfiCond66) CFA_SP SP+0
          CFI (cfiCond66) CFA_XSP16 add(XSP16, 10)
          CFI Block cfiCond67 Using cfiCommon0
          CFI (cfiCond67) Function ZDSecMgrEntryLookupExt
          CFI (cfiCond67) Conditional ??CrossCallReturnLabel_85
          CFI (cfiCond67) R6 load(1, XDATA, add(CFA_XSP16, literal(-9)))
          CFI (cfiCond67) VB load(1, XDATA, add(CFA_XSP16, literal(-8)))
          CFI (cfiCond67) V0 load(1, XDATA, add(CFA_XSP16, literal(-7)))
          CFI (cfiCond67) R7 load(1, XDATA, add(CFA_XSP16, literal(-6)))
          CFI (cfiCond67) ?RET_LOW load(1, XDATA, add(CFA_XSP16, literal(-5)))
          CFI (cfiCond67) ?RET_HIGH load(1, XDATA, add(CFA_XSP16, literal(-4)))
          CFI (cfiCond67) ?BRET_EXT load(1, XDATA, add(CFA_XSP16, literal(-3)))
          CFI (cfiCond67) DPL0 load(1, XDATA, add(CFA_XSP16, literal(-2)))
          CFI (cfiCond67) DPH0 load(1, XDATA, add(CFA_XSP16, literal(-1)))
          CFI (cfiCond67) CFA_SP SP+0
          CFI (cfiCond67) CFA_XSP16 add(XSP16, 11)
          CFI Block cfiPicker68 Using cfiCommon1
          CFI (cfiPicker68) NoFunction
          CFI (cfiPicker68) Picker
        CLR     A
        MOVX    @DPTR,A
        INC     DPTR
        MOVX    @DPTR,A
        MOV     ?V0 + 0,#-0x38
        RET
          CFI EndBlock cfiCond64
          CFI EndBlock cfiCond65
          CFI EndBlock cfiCond66
          CFI EndBlock cfiCond67
          CFI EndBlock cfiPicker68
//  820 
//  821 /******************************************************************************
//  822  * @fn          ZDSecMgrEntryLookupExt
//  823  *
//  824  * @brief       Lookup entry index using specified EXT address.
//  825  *
//  826  * @param       extAddr - [in] EXT address
//  827  * @param       entry   - [out] valid entry
//  828  *
//  829  * @return      ZStatus_t
//  830  */

        RSEG BANKED_CODE:CODE:NOROOT(0)
//  831 ZStatus_t ZDSecMgrEntryLookupExt( uint8* extAddr, ZDSecMgrEntry_t** entry )
ZDSecMgrEntryLookupExt:
          CFI Block cfiBlock69 Using cfiCommon0
          CFI Function ZDSecMgrEntryLookupExt
        CODE
//  832 {
        FUNCALL ZDSecMgrEntryLookupExt, ZDSecMgrExtAddrLookup
        LOCFRAME ISTACK, 0, STACK
        LOCFRAME PSTACK, 0, STACK
        LOCFRAME XSTACK, 11, STACK
        LOCFRAME IOVERLAY, 0, STATIC
        LOCFRAME DOVERLAY, 0, STATIC
        ARGFRAME ISTACK, 0, STACK
        ARGFRAME PSTACK, 0, STACK
        ARGFRAME XSTACK, 11, STACK
        ARGFRAME IOVERLAY, 0, STATIC
        ARGFRAME DOVERLAY, 0, STATIC
        FUNCALL ZDSecMgrEntryLookupExt, ZDSecMgrEntryLookupAMI
        LOCFRAME ISTACK, 0, STACK
        LOCFRAME PSTACK, 0, STACK
        LOCFRAME XSTACK, 11, STACK
        LOCFRAME IOVERLAY, 0, STATIC
        LOCFRAME DOVERLAY, 0, STATIC
        ARGFRAME ISTACK, 0, STACK
        ARGFRAME PSTACK, 0, STACK
        ARGFRAME XSTACK, 11, STACK
        ARGFRAME IOVERLAY, 0, STATIC
        ARGFRAME DOVERLAY, 0, STATIC
        MOV     A,#-0x9
        LCALL   ?BANKED_ENTER_XDATA
          CFI DPH0 load(1, XDATA, add(CFA_XSP16, literal(-1)))
          CFI DPL0 load(1, XDATA, add(CFA_XSP16, literal(-2)))
          CFI ?BRET_EXT load(1, XDATA, add(CFA_XSP16, literal(-3)))
          CFI ?RET_HIGH load(1, XDATA, add(CFA_XSP16, literal(-4)))
          CFI ?RET_LOW load(1, XDATA, add(CFA_XSP16, literal(-5)))
          CFI R7 load(1, XDATA, add(CFA_XSP16, literal(-6)))
          CFI V0 load(1, XDATA, add(CFA_XSP16, literal(-7)))
          CFI VB load(1, XDATA, add(CFA_XSP16, literal(-8)))
          CFI R6 load(1, XDATA, add(CFA_XSP16, literal(-9)))
          CFI CFA_SP SP+0
          CFI CFA_XSP16 add(XSP16, 9)
        ; Saved register size: 9
        ; Auto size: 2
        MOV     A,#-0x2
        LCALL   ?ALLOC_XSTACK8
          CFI CFA_XSP16 add(XSP16, 11)
        MOV     A,R4
        MOV     R6,A
        MOV     A,R5
        MOV     R7,A
//  833   ZStatus_t status;
//  834   uint16    ami;
//  835 
//  836 
//  837   // initialize results
//  838   *entry = NULL;
        MOV     DPL,R6
        MOV     DPH,R7
        LCALL   ?Subroutine68 & 0xFFFF
//  839   status = ZNwkUnknownDevice;
//  840 
//  841   // lookup address index
//  842   if ( ZDSecMgrExtAddrLookup( extAddr, &ami ) == ZSuccess )
??CrossCallReturnLabel_85:
        ; Setup parameters for call to function ZDSecMgrExtAddrLookup
        MOV     DPL,?XSP + 0
        MOV     DPH,?XSP + 1
        MOV     R4,DPL
        MOV     R5,DPH
        LCALL   ??ZDSecMgrExtAddrLookup?relay
        MOV     A,R1
        JNZ     ??ZDSecMgrEntryLookupExt_0
//  843   {
//  844     status = ZDSecMgrEntryLookupAMI( ami, entry );
        ; Setup parameters for call to function ZDSecMgrEntryLookupAMI
        LCALL   ?Subroutine37 & 0xFFFF
//  845   }
??CrossCallReturnLabel_148:
        LCALL   ??ZDSecMgrEntryLookupAMI?relay
        MOV     A,R1
        MOV     ?V0 + 0,A
//  846 
//  847   return status;
??ZDSecMgrEntryLookupExt_0:
        LJMP    ?Subroutine1 & 0xFFFF
          CFI EndBlock cfiBlock69
//  848 }
//  849 
//  850 /******************************************************************************
//  851  * @fn          ZDSecMgrEntryFree
//  852  *
//  853  * @brief       Free entry.
//  854  *
//  855  * @param       entry - [in] valid entry
//  856  *
//  857  * @return      ZStatus_t
//  858  */

        RSEG BANKED_CODE:CODE:NOROOT(0)
//  859 void ZDSecMgrEntryFree( ZDSecMgrEntry_t* entry )
ZDSecMgrEntryFree:
          CFI Block cfiBlock70 Using cfiCommon0
          CFI Function ZDSecMgrEntryFree
        CODE
        LJMP    ?Subroutine0 & 0xFFFF
          CFI EndBlock cfiBlock70
//  860 {
//  861   entry->ami = INVALID_NODE_ADDR;
//  862 }
//  863 
//  864 /******************************************************************************
//  865  * @fn          ZDSecMgrEntryNew
//  866  *
//  867  * @brief       Get a new entry.
//  868  *
//  869  * @param       entry - [out] valid entry
//  870  *
//  871  * @return      ZStatus_t
//  872  */

        RSEG BANKED_CODE:CODE:NOROOT(0)
//  873 ZStatus_t ZDSecMgrEntryNew( ZDSecMgrEntry_t** entry )
ZDSecMgrEntryNew:
          CFI Block cfiBlock71 Using cfiCommon0
          CFI Function ZDSecMgrEntryNew
        CODE
//  874 {
        MOV     A,#-0xa
        LCALL   ?BANKED_ENTER_XDATA
          CFI DPH0 load(1, XDATA, add(CFA_XSP16, literal(-1)))
          CFI DPL0 load(1, XDATA, add(CFA_XSP16, literal(-2)))
          CFI ?BRET_EXT load(1, XDATA, add(CFA_XSP16, literal(-3)))
          CFI ?RET_HIGH load(1, XDATA, add(CFA_XSP16, literal(-4)))
          CFI ?RET_LOW load(1, XDATA, add(CFA_XSP16, literal(-5)))
          CFI R7 load(1, XDATA, add(CFA_XSP16, literal(-6)))
          CFI V1 load(1, XDATA, add(CFA_XSP16, literal(-7)))
          CFI V0 load(1, XDATA, add(CFA_XSP16, literal(-8)))
          CFI VB load(1, XDATA, add(CFA_XSP16, literal(-9)))
          CFI R6 load(1, XDATA, add(CFA_XSP16, literal(-10)))
          CFI CFA_SP SP+0
          CFI CFA_XSP16 add(XSP16, 10)
        ; Saved register size: 10
        ; Auto size: 0
//  875   ZStatus_t status;
//  876   uint16    index;
//  877 
//  878 
//  879   // initialize results
//  880   *entry = NULL;
        MOV     DPL,R2
        MOV     DPH,R3
        CLR     A
        MOVX    @DPTR,A
        INC     DPTR
        MOVX    @DPTR,A
//  881   status = ZNwkUnknownDevice;
        MOV     R1,#-0x38
//  882 
//  883   // verify data is available
//  884   if ( ZDSecMgrEntries != NULL )
        MOV     DPTR,#ZDSecMgrEntries
        LCALL   ?Subroutine66 & 0xFFFF
??CrossCallReturnLabel_120:
        MOV     A,R4
        ORL     A,R5
        JZ      ??ZDSecMgrEntryNew_0
//  885   {
//  886     // find available entry
//  887     for ( index = 0; index < ZDSECMGR_ENTRY_MAX ; index++ )
        MOV     R6,#0x0
        MOV     R7,#0x0
//  888     {
//  889       if ( ZDSecMgrEntries[index].ami == INVALID_NODE_ADDR )
??ZDSecMgrEntryNew_1:
        MOV     A,R6
        MOV     R4,A
        MOV     A,R7
        MOV     R5,A
        MOV     A,R4
        MOV     B,#0x1d
        MUL     AB
        MOV     R4,A
        MOV     R0,B
        MOV     B,#0x1d
        MOV     A,R5
        MUL     AB
        ADD     A,R0
        MOV     R5,A
        MOV     DPTR,#ZDSecMgrEntries
        MOVX    A,@DPTR
        ADD     A,R4
        MOV     ?V0 + 0,A
        INC     DPTR
        MOVX    A,@DPTR
        ADDC    A,R5
        MOV     ?V0 + 1,A
        MOV     DPL,?V0 + 0
        MOV     DPH,A
        MOVX    A,@DPTR
        XRL     A,#0xfe
        JNZ     ??ZDSecMgrEntryNew_2
        INC     DPTR
        MOVX    A,@DPTR
        CPL     A
??ZDSecMgrEntryNew_2:
        JNZ     ??ZDSecMgrEntryNew_3
//  890       {
//  891         // return successful result
//  892         *entry = &ZDSecMgrEntries[index];
        MOV     DPL,R2
        MOV     DPH,R3
        LCALL   ?Subroutine32 & 0xFFFF
//  893         status = ZSuccess;
??CrossCallReturnLabel_31:
        MOV     R1,#0x0
//  894 
//  895         // Set the authentication option to default
//  896         ZDSecMgrEntries[index].authenticateOption = ZDSecMgr_Not_Authenticated;
        MOV     DPTR,#ZDSecMgrEntries
        MOVX    A,@DPTR
        ADD     A,R4
        MOV     R4,A
        INC     DPTR
        MOVX    A,@DPTR
        ADDC    A,R5
        MOV     R5,A
        MOV     A,R4
        ADD     A,#0x1c
        MOV     DPL,A
        MOV     A,R5
        LCALL   ??Subroutine103_0 & 0xFFFF
??CrossCallReturnLabel_249:
        CLR     A
        MOVX    @DPTR,A
//  897 
//  898         // break from loop
//  899         index = ZDSECMGR_ENTRY_MAX;
        MOV     R6,#0x3
        MOV     R7,A
//  900       }
//  901     }
??ZDSecMgrEntryNew_3:
        LCALL   ?Subroutine53 & 0xFFFF
//  902   }
??CrossCallReturnLabel_66:
        JC      ??ZDSecMgrEntryNew_1
//  903 
//  904   return status;
??ZDSecMgrEntryNew_0:
        LJMP    ??Subroutine94_0 & 0xFFFF
          CFI EndBlock cfiBlock71
//  905 }
//  906 
//  907 /******************************************************************************
//  908  * @fn          ZDSecMgrCtrlInit
//  909  *
//  910  * @brief       Initialize control sub module
//  911  *
//  912  * @param       none
//  913  *
//  914  * @return      none
//  915  */

        RSEG BANKED_CODE:CODE:NOROOT(0)
//  916 void ZDSecMgrCtrlInit( void )
ZDSecMgrCtrlInit:
          CFI Block cfiBlock72 Using cfiCommon0
          CFI Function ZDSecMgrCtrlInit
        CODE
//  917 {
        FUNCALL ZDSecMgrCtrlInit, osal_mem_alloc
        LOCFRAME ISTACK, 2, STACK
        LOCFRAME PSTACK, 0, STACK
        LOCFRAME XSTACK, 0, STACK
        LOCFRAME IOVERLAY, 0, STATIC
        LOCFRAME DOVERLAY, 0, STATIC
        ARGFRAME ISTACK, 2, STACK
        ARGFRAME PSTACK, 0, STACK
        ARGFRAME XSTACK, 0, STACK
        ARGFRAME IOVERLAY, 0, STATIC
        ARGFRAME DOVERLAY, 0, STATIC
        PUSH    DPL
          CFI DPL0 Frame(CFA_SP, 4)
          CFI CFA_SP SP+-4
        PUSH    DPH
          CFI DPH0 Frame(CFA_SP, 5)
          CFI CFA_SP SP+-5
        ; Saved register size: 2
        ; Auto size: 0
//  918   uint16 size;
//  919   uint16 index;
//  920 
//  921   // allocate entry data
//  922   size = (short)( sizeof(ZDSecMgrCtrl_t) * ZDSECMGR_CTRL_MAX );
//  923 
//  924   ZDSecMgrCtrlData = osal_mem_alloc( size );
        ; Setup parameters for call to function osal_mem_alloc
        MOV     R2,#0x15
        MOV     R3,#0x0
        LCALL   ??osal_mem_alloc?relay
        MOV     DPTR,#ZDSecMgrCtrlData
        MOV     A,R2
        MOVX    @DPTR,A
        INC     DPTR
        MOV     A,R3
        LCALL   ?Subroutine24 & 0xFFFF
//  925 
//  926   // initialize data
//  927   if ( ZDSecMgrCtrlData != NULL )
??CrossCallReturnLabel_13:
        JZ      ??ZDSecMgrCtrlInit_0
//  928   {
//  929     for( index = 0; index < ZDSECMGR_CTRL_MAX; index++ )
        MOV     R0,#0x0
        MOV     R1,#0x0
//  930     {
//  931       ZDSecMgrCtrlData[index].state = ZDSECMGR_CTRL_NONE;
??ZDSecMgrCtrlInit_1:
        MOV     A,R0
        MOV     R2,A
        MOV     A,R1
        MOV     R3,A
        MOV     A,R2
        MOV     B,#0x7
        MUL     AB
        MOV     R2,A
        MOV     R4,B
        MOV     B,#0x7
        MOV     A,R3
        MUL     AB
        ADD     A,R4
        MOV     R3,A
        MOV     DPTR,#ZDSecMgrCtrlData
        LCALL   ?Subroutine65 & 0xFFFF
//  932     }
//  933   }
??CrossCallReturnLabel_81:
        INC     DPTR
        INC     DPTR
        INC     DPTR
        INC     DPTR
        INC     DPTR
        CLR     A
        LCALL   ??Subroutine73_0 & 0xFFFF
??CrossCallReturnLabel_92:
        JC      ??ZDSecMgrCtrlInit_1
//  934 }
??ZDSecMgrCtrlInit_0:
        LJMP    ??Subroutine89_0 & 0xFFFF
          CFI EndBlock cfiBlock72

        RSEG BANKED_CODE:CODE:NOROOT(0)
?Subroutine65:
          CFI Block cfiCond73 Using cfiCommon0
          CFI Function ZDSecMgrMasterKeyInit
          CFI Conditional ??CrossCallReturnLabel_82, ??CrossCallReturnLabel_90
          CFI DPL0 Frame(CFA_SP, 4)
          CFI DPH0 Frame(CFA_SP, 5)
          CFI CFA_SP SP+-5
          CFI Block cfiCond74 Using cfiCommon0
          CFI (cfiCond74) Function ZDSecMgrEntryInit
          CFI (cfiCond74) Conditional ??CrossCallReturnLabel_82, ??CrossCallReturnLabel_91
          CFI (cfiCond74) DPL0 Frame(CFA_SP, 4)
          CFI (cfiCond74) DPH0 Frame(CFA_SP, 5)
          CFI (cfiCond74) CFA_SP SP+-5
          CFI Block cfiCond75 Using cfiCommon0
          CFI (cfiCond75) Function ZDSecMgrCtrlInit
          CFI (cfiCond75) Conditional ??CrossCallReturnLabel_81
          CFI (cfiCond75) DPL0 Frame(CFA_SP, 4)
          CFI (cfiCond75) DPH0 Frame(CFA_SP, 5)
          CFI (cfiCond75) CFA_SP SP+-5
          CFI Block cfiPicker76 Using cfiCommon1
          CFI (cfiPicker76) NoFunction
          CFI (cfiPicker76) Picker
        MOVX    A,@DPTR
        ADD     A,R2
        MOV     R4,A
        INC     DPTR
        MOVX    A,@DPTR
        ADDC    A,R3
        MOV     DPL,R4
        MOV     DPH,A
        RET
          CFI EndBlock cfiCond73
          CFI EndBlock cfiCond74
          CFI EndBlock cfiCond75
          CFI EndBlock cfiPicker76
//  935 
//  936 /******************************************************************************
//  937  * @fn          ZDSecMgrCtrlRelease
//  938  *
//  939  * @brief       Release control data.
//  940  *
//  941  * @param       ctrl - [in] valid control data
//  942  *
//  943  * @return      none
//  944  */

        RSEG BANKED_CODE:CODE:NOROOT(0)
//  945 void ZDSecMgrCtrlRelease( ZDSecMgrCtrl_t* ctrl )
ZDSecMgrCtrlRelease:
          CFI Block cfiBlock77 Using cfiCommon0
          CFI Function ZDSecMgrCtrlRelease
        CODE
//  946 {
        PUSH    DPL
          CFI DPL0 Frame(CFA_SP, 4)
          CFI CFA_SP SP+-4
        PUSH    DPH
          CFI DPH0 Frame(CFA_SP, 5)
          CFI CFA_SP SP+-5
        ; Saved register size: 2
        ; Auto size: 0
//  947   // should always be enough entry control data
//  948   ctrl->state = ZDSECMGR_CTRL_NONE;
        MOV     DPL,R2
        MOV     DPH,R3
        INC     DPTR
        INC     DPTR
        INC     DPTR
        INC     DPTR
        INC     DPTR
        CLR     A
        LJMP    ??Subroutine88_0 & 0xFFFF
          CFI EndBlock cfiBlock77
//  949 }
//  950 
//  951 /******************************************************************************
//  952  * @fn          ZDSecMgrCtrlLookup
//  953  *
//  954  * @brief       Lookup control data.
//  955  *
//  956  * @param       entry - [in] valid entry data
//  957  * @param       ctrl  - [out] control data - NULL if not found
//  958  *
//  959  * @return      none
//  960  */

        RSEG BANKED_CODE:CODE:NOROOT(0)
//  961 void ZDSecMgrCtrlLookup( ZDSecMgrEntry_t* entry, ZDSecMgrCtrl_t** ctrl )
ZDSecMgrCtrlLookup:
          CFI Block cfiBlock78 Using cfiCommon0
          CFI Function ZDSecMgrCtrlLookup
        CODE
//  962 {
        MOV     A,#-0xa
        LCALL   ?BANKED_ENTER_XDATA
          CFI DPH0 load(1, XDATA, add(CFA_XSP16, literal(-1)))
          CFI DPL0 load(1, XDATA, add(CFA_XSP16, literal(-2)))
          CFI ?BRET_EXT load(1, XDATA, add(CFA_XSP16, literal(-3)))
          CFI ?RET_HIGH load(1, XDATA, add(CFA_XSP16, literal(-4)))
          CFI ?RET_LOW load(1, XDATA, add(CFA_XSP16, literal(-5)))
          CFI R7 load(1, XDATA, add(CFA_XSP16, literal(-6)))
          CFI V1 load(1, XDATA, add(CFA_XSP16, literal(-7)))
          CFI V0 load(1, XDATA, add(CFA_XSP16, literal(-8)))
          CFI VB load(1, XDATA, add(CFA_XSP16, literal(-9)))
          CFI R6 load(1, XDATA, add(CFA_XSP16, literal(-10)))
          CFI CFA_SP SP+0
          CFI CFA_XSP16 add(XSP16, 10)
        ; Saved register size: 10
        ; Auto size: 0
        MOV     A,R2
        MOV     R6,A
        MOV     A,R3
        MOV     R7,A
//  963   uint16 index;
//  964 
//  965 
//  966   // initialize search results
//  967   *ctrl = NULL;
        MOV     DPL,R4
        MOV     DPH,R5
        CLR     A
        MOVX    @DPTR,A
        INC     DPTR
        LCALL   ?Subroutine24 & 0xFFFF
//  968 
//  969   // verify data is available
//  970   if ( ZDSecMgrCtrlData != NULL )
??CrossCallReturnLabel_14:
        JZ      ??ZDSecMgrCtrlLookup_0
//  971   {
//  972     for ( index = 0; index < ZDSECMGR_CTRL_MAX; index++ )
        MOV     R0,#0x0
        MOV     R1,#0x0
//  973     {
//  974       // make sure control data is in use
//  975       if ( ZDSecMgrCtrlData[index].state != ZDSECMGR_CTRL_NONE )
??ZDSecMgrCtrlLookup_1:
        MOV     A,R0
        MOV     R2,A
        MOV     A,R1
        MOV     R3,A
        MOV     A,R2
        MOV     B,#0x7
        MUL     AB
        MOV     R2,A
        MOV     ?V0 + 0,B
        MOV     B,#0x7
        MOV     A,R3
        MUL     AB
        ADD     A,?V0 + 0
        MOV     R3,A
        MOV     DPTR,#ZDSecMgrCtrlData
        LCALL   ?Subroutine42 & 0xFFFF
??CrossCallReturnLabel_48:
        INC     DPTR
        INC     DPTR
        INC     DPTR
        INC     DPTR
        INC     DPTR
        MOVX    A,@DPTR
        JZ      ??ZDSecMgrCtrlLookup_2
//  976       {
//  977         // check for entry match
//  978         if ( ZDSecMgrCtrlData[index].entry == entry )
        MOV     DPL,R2
        MOV     DPH,R3
        MOVX    A,@DPTR
        MOV     ?V0 + 0,A
        INC     DPTR
        MOVX    A,@DPTR
        MOV     ?V0 + 1,A
        MOV     A,R6
        XRL     A,?V0 + 0
        JNZ     ??ZDSecMgrCtrlLookup_3
        MOV     A,R7
        XRL     A,?V0 + 1
??ZDSecMgrCtrlLookup_3:
        JNZ     ??ZDSecMgrCtrlLookup_2
//  979         {
//  980           // return this control data
//  981           *ctrl = &ZDSecMgrCtrlData[index];
        MOV     A,R2
        MOV     R0,A
        MOV     A,R3
        MOV     R1,A
        MOV     DPL,R4
        MOV     DPH,R5
        LCALL   ??Subroutine87_0 & 0xFFFF
//  982 
//  983           // break from loop
//  984           index = ZDSECMGR_CTRL_MAX;
??CrossCallReturnLabel_151:
        MOV     R0,#0x3
        MOV     R1,#0x0
//  985         }
//  986       }
//  987     }
??ZDSecMgrCtrlLookup_2:
        LCALL   ?Subroutine51 & 0xFFFF
//  988   }
??CrossCallReturnLabel_63:
        JC      ??ZDSecMgrCtrlLookup_1
//  989 }
??ZDSecMgrCtrlLookup_0:
        LJMP    ??Subroutine94_0 & 0xFFFF
          CFI EndBlock cfiBlock78

        RSEG BANKED_CODE:CODE:NOROOT(0)
?Subroutine42:
          CFI Block cfiCond79 Using cfiCommon0
          CFI Function ZDSecMgrEntryLookupAMI
          CFI Conditional ??CrossCallReturnLabel_47
          CFI R6 load(1, XDATA, add(CFA_XSP16, literal(-10)))
          CFI VB load(1, XDATA, add(CFA_XSP16, literal(-9)))
          CFI V0 load(1, XDATA, add(CFA_XSP16, literal(-8)))
          CFI V1 load(1, XDATA, add(CFA_XSP16, literal(-7)))
          CFI R7 load(1, XDATA, add(CFA_XSP16, literal(-6)))
          CFI ?RET_LOW load(1, XDATA, add(CFA_XSP16, literal(-5)))
          CFI ?RET_HIGH load(1, XDATA, add(CFA_XSP16, literal(-4)))
          CFI ?BRET_EXT load(1, XDATA, add(CFA_XSP16, literal(-3)))
          CFI DPL0 load(1, XDATA, add(CFA_XSP16, literal(-2)))
          CFI DPH0 load(1, XDATA, add(CFA_XSP16, literal(-1)))
          CFI CFA_SP SP+0
          CFI CFA_XSP16 add(XSP16, 10)
          CFI Block cfiCond80 Using cfiCommon0
          CFI (cfiCond80) Function ZDSecMgrCtrlLookup
          CFI (cfiCond80) Conditional ??CrossCallReturnLabel_48
          CFI (cfiCond80) R6 load(1, XDATA, add(CFA_XSP16, literal(-10)))
          CFI (cfiCond80) VB load(1, XDATA, add(CFA_XSP16, literal(-9)))
          CFI (cfiCond80) V0 load(1, XDATA, add(CFA_XSP16, literal(-8)))
          CFI (cfiCond80) V1 load(1, XDATA, add(CFA_XSP16, literal(-7)))
          CFI (cfiCond80) R7 load(1, XDATA, add(CFA_XSP16, literal(-6)))
          CFI (cfiCond80) ?RET_LOW load(1, XDATA, add(CFA_XSP16, literal(-5)))
          CFI (cfiCond80) ?RET_HIGH load(1, XDATA, add(CFA_XSP16, literal(-4)))
          CFI (cfiCond80) ?BRET_EXT load(1, XDATA, add(CFA_XSP16, literal(-3)))
          CFI (cfiCond80) DPL0 load(1, XDATA, add(CFA_XSP16, literal(-2)))
          CFI (cfiCond80) DPH0 load(1, XDATA, add(CFA_XSP16, literal(-1)))
          CFI (cfiCond80) CFA_SP SP+0
          CFI (cfiCond80) CFA_XSP16 add(XSP16, 10)
          CFI Block cfiPicker81 Using cfiCommon1
          CFI (cfiPicker81) NoFunction
          CFI (cfiPicker81) Picker
        MOVX    A,@DPTR
        ADD     A,R2
        MOV     R2,A
        INC     DPTR
        MOVX    A,@DPTR
        ADDC    A,R3
        MOV     R3,A
        MOV     DPL,R2
        MOV     DPH,R3
        RET
          CFI EndBlock cfiCond79
          CFI EndBlock cfiCond80
          CFI EndBlock cfiPicker81

        RSEG BANKED_CODE:CODE:NOROOT(0)
?Subroutine24:
          CFI Block cfiCond82 Using cfiCommon0
          CFI Function ZDSecMgrCtrlInit
          CFI Conditional ??CrossCallReturnLabel_13
          CFI DPL0 Frame(CFA_SP, 4)
          CFI DPH0 Frame(CFA_SP, 5)
          CFI CFA_SP SP+-5
          CFI Block cfiCond83 Using cfiCommon0
          CFI (cfiCond83) Function ZDSecMgrCtrlLookup
          CFI (cfiCond83) Conditional ??CrossCallReturnLabel_14
          CFI (cfiCond83) R6 load(1, XDATA, add(CFA_XSP16, literal(-10)))
          CFI (cfiCond83) VB load(1, XDATA, add(CFA_XSP16, literal(-9)))
          CFI (cfiCond83) V0 load(1, XDATA, add(CFA_XSP16, literal(-8)))
          CFI (cfiCond83) V1 load(1, XDATA, add(CFA_XSP16, literal(-7)))
          CFI (cfiCond83) R7 load(1, XDATA, add(CFA_XSP16, literal(-6)))
          CFI (cfiCond83) ?RET_LOW load(1, XDATA, add(CFA_XSP16, literal(-5)))
          CFI (cfiCond83) ?RET_HIGH load(1, XDATA, add(CFA_XSP16, literal(-4)))
          CFI (cfiCond83) ?BRET_EXT load(1, XDATA, add(CFA_XSP16, literal(-3)))
          CFI (cfiCond83) DPL0 load(1, XDATA, add(CFA_XSP16, literal(-2)))
          CFI (cfiCond83) DPH0 load(1, XDATA, add(CFA_XSP16, literal(-1)))
          CFI (cfiCond83) CFA_SP SP+0
          CFI (cfiCond83) CFA_XSP16 add(XSP16, 10)
          CFI Block cfiPicker84 Using cfiCommon1
          CFI (cfiPicker84) NoFunction
          CFI (cfiPicker84) Picker
        MOVX    @DPTR,A
        MOV     DPTR,#ZDSecMgrCtrlData
        LCALL   ?Subroutine63 & 0xFFFF
??CrossCallReturnLabel_237:
        RET
          CFI EndBlock cfiCond82
          CFI EndBlock cfiCond83
          CFI EndBlock cfiPicker84

        RSEG BANKED_CODE:CODE:NOROOT(0)
?Subroutine63:
          CFI Block cfiCond85 Using cfiCommon0
          CFI Function ZDSecMgrEntryLookup
          CFI Conditional ??CrossCallReturnLabel_236, ??CrossCallReturnLabel_2
          CFI R6 load(1, XDATA, add(CFA_XSP16, literal(-10)))
          CFI VB load(1, XDATA, add(CFA_XSP16, literal(-9)))
          CFI V0 load(1, XDATA, add(CFA_XSP16, literal(-8)))
          CFI V1 load(1, XDATA, add(CFA_XSP16, literal(-7)))
          CFI R7 load(1, XDATA, add(CFA_XSP16, literal(-6)))
          CFI ?RET_LOW load(1, XDATA, add(CFA_XSP16, literal(-5)))
          CFI ?RET_HIGH load(1, XDATA, add(CFA_XSP16, literal(-4)))
          CFI ?BRET_EXT load(1, XDATA, add(CFA_XSP16, literal(-3)))
          CFI DPL0 load(1, XDATA, add(CFA_XSP16, literal(-2)))
          CFI DPH0 load(1, XDATA, add(CFA_XSP16, literal(-1)))
          CFI CFA_SP SP+0
          CFI CFA_XSP16 add(XSP16, 23)
          CFI Block cfiCond86 Using cfiCommon0
          CFI (cfiCond86) Function ZDSecMgrEntryLookupAMI
          CFI (cfiCond86) Conditional ??CrossCallReturnLabel_236, ??CrossCallReturnLabel_3
          CFI (cfiCond86) R6 load(1, XDATA, add(CFA_XSP16, literal(-10)))
          CFI (cfiCond86) VB load(1, XDATA, add(CFA_XSP16, literal(-9)))
          CFI (cfiCond86) V0 load(1, XDATA, add(CFA_XSP16, literal(-8)))
          CFI (cfiCond86) V1 load(1, XDATA, add(CFA_XSP16, literal(-7)))
          CFI (cfiCond86) R7 load(1, XDATA, add(CFA_XSP16, literal(-6)))
          CFI (cfiCond86) ?RET_LOW load(1, XDATA, add(CFA_XSP16, literal(-5)))
          CFI (cfiCond86) ?RET_HIGH load(1, XDATA, add(CFA_XSP16, literal(-4)))
          CFI (cfiCond86) ?BRET_EXT load(1, XDATA, add(CFA_XSP16, literal(-3)))
          CFI (cfiCond86) DPL0 load(1, XDATA, add(CFA_XSP16, literal(-2)))
          CFI (cfiCond86) DPH0 load(1, XDATA, add(CFA_XSP16, literal(-1)))
          CFI (cfiCond86) CFA_SP SP+0
          CFI (cfiCond86) CFA_XSP16 add(XSP16, 10)
          CFI Block cfiCond87 Using cfiCommon0
          CFI (cfiCond87) Function ZDSecMgrCtrlInit
          CFI (cfiCond87) Conditional ??CrossCallReturnLabel_237, ??CrossCallReturnLabel_13
          CFI (cfiCond87) DPL0 Frame(CFA_SP, 4)
          CFI (cfiCond87) DPH0 Frame(CFA_SP, 5)
          CFI (cfiCond87) CFA_SP SP+-5
          CFI Block cfiCond88 Using cfiCommon0
          CFI (cfiCond88) Function ZDSecMgrCtrlLookup
          CFI (cfiCond88) Conditional ??CrossCallReturnLabel_237, ??CrossCallReturnLabel_14
          CFI (cfiCond88) R6 load(1, XDATA, add(CFA_XSP16, literal(-10)))
          CFI (cfiCond88) VB load(1, XDATA, add(CFA_XSP16, literal(-9)))
          CFI (cfiCond88) V0 load(1, XDATA, add(CFA_XSP16, literal(-8)))
          CFI (cfiCond88) V1 load(1, XDATA, add(CFA_XSP16, literal(-7)))
          CFI (cfiCond88) R7 load(1, XDATA, add(CFA_XSP16, literal(-6)))
          CFI (cfiCond88) ?RET_LOW load(1, XDATA, add(CFA_XSP16, literal(-5)))
          CFI (cfiCond88) ?RET_HIGH load(1, XDATA, add(CFA_XSP16, literal(-4)))
          CFI (cfiCond88) ?BRET_EXT load(1, XDATA, add(CFA_XSP16, literal(-3)))
          CFI (cfiCond88) DPL0 load(1, XDATA, add(CFA_XSP16, literal(-2)))
          CFI (cfiCond88) DPH0 load(1, XDATA, add(CFA_XSP16, literal(-1)))
          CFI (cfiCond88) CFA_SP SP+0
          CFI (cfiCond88) CFA_XSP16 add(XSP16, 10)
          CFI Block cfiCond89 Using cfiCommon0
          CFI (cfiCond89) Function ZDSecMgrCtrlTerm
          CFI (cfiCond89) Conditional ??CrossCallReturnLabel_238, ??CrossCallReturnLabel_231
          CFI (cfiCond89) DPL0 Frame(CFA_SP, 4)
          CFI (cfiCond89) DPH0 Frame(CFA_SP, 5)
          CFI (cfiCond89) CFA_SP SP+-5
          CFI (cfiCond89) CFA_XSP16 add(XSP16, 2)
          CFI Block cfiCond90 Using cfiCommon0
          CFI (cfiCond90) Function ZDSecMgrCtrlReset
          CFI (cfiCond90) Conditional ??CrossCallReturnLabel_238, ??CrossCallReturnLabel_232
          CFI (cfiCond90) R6 load(1, XDATA, add(CFA_XSP16, literal(-10)))
          CFI (cfiCond90) VB load(1, XDATA, add(CFA_XSP16, literal(-9)))
          CFI (cfiCond90) V0 load(1, XDATA, add(CFA_XSP16, literal(-8)))
          CFI (cfiCond90) V1 load(1, XDATA, add(CFA_XSP16, literal(-7)))
          CFI (cfiCond90) R7 load(1, XDATA, add(CFA_XSP16, literal(-6)))
          CFI (cfiCond90) ?RET_LOW load(1, XDATA, add(CFA_XSP16, literal(-5)))
          CFI (cfiCond90) ?RET_HIGH load(1, XDATA, add(CFA_XSP16, literal(-4)))
          CFI (cfiCond90) ?BRET_EXT load(1, XDATA, add(CFA_XSP16, literal(-3)))
          CFI (cfiCond90) DPL0 load(1, XDATA, add(CFA_XSP16, literal(-2)))
          CFI (cfiCond90) DPH0 load(1, XDATA, add(CFA_XSP16, literal(-1)))
          CFI (cfiCond90) CFA_SP SP+0
          CFI (cfiCond90) CFA_XSP16 add(XSP16, 12)
          CFI Block cfiCond91 Using cfiCommon0
          CFI (cfiCond91) Function ZDSecMgrDeviceEntryAdd
          CFI (cfiCond91) Conditional ??CrossCallReturnLabel_238, ??CrossCallReturnLabel_233
          CFI (cfiCond91) R6 load(1, XDATA, add(CFA_XSP16, literal(-11)))
          CFI (cfiCond91) VB load(1, XDATA, add(CFA_XSP16, literal(-10)))
          CFI (cfiCond91) V0 load(1, XDATA, add(CFA_XSP16, literal(-9)))
          CFI (cfiCond91) V1 load(1, XDATA, add(CFA_XSP16, literal(-8)))
          CFI (cfiCond91) V2 load(1, XDATA, add(CFA_XSP16, literal(-7)))
          CFI (cfiCond91) R7 load(1, XDATA, add(CFA_XSP16, literal(-6)))
          CFI (cfiCond91) ?RET_LOW load(1, XDATA, add(CFA_XSP16, literal(-5)))
          CFI (cfiCond91) ?RET_HIGH load(1, XDATA, add(CFA_XSP16, literal(-4)))
          CFI (cfiCond91) ?BRET_EXT load(1, XDATA, add(CFA_XSP16, literal(-3)))
          CFI (cfiCond91) DPL0 load(1, XDATA, add(CFA_XSP16, literal(-2)))
          CFI (cfiCond91) DPH0 load(1, XDATA, add(CFA_XSP16, literal(-1)))
          CFI (cfiCond91) CFA_SP SP+0
          CFI (cfiCond91) CFA_XSP16 add(XSP16, 13)
          CFI Block cfiCond92 Using cfiCommon0
          CFI (cfiCond92) Function ZDSecMgrDeviceCtrlUpdate
          CFI (cfiCond92) Conditional ??CrossCallReturnLabel_238, ??CrossCallReturnLabel_234
          CFI (cfiCond92) R6 load(1, XDATA, add(CFA_XSP16, literal(-9)))
          CFI (cfiCond92) VB load(1, XDATA, add(CFA_XSP16, literal(-8)))
          CFI (cfiCond92) V0 load(1, XDATA, add(CFA_XSP16, literal(-7)))
          CFI (cfiCond92) R7 load(1, XDATA, add(CFA_XSP16, literal(-6)))
          CFI (cfiCond92) ?RET_LOW load(1, XDATA, add(CFA_XSP16, literal(-5)))
          CFI (cfiCond92) ?RET_HIGH load(1, XDATA, add(CFA_XSP16, literal(-4)))
          CFI (cfiCond92) ?BRET_EXT load(1, XDATA, add(CFA_XSP16, literal(-3)))
          CFI (cfiCond92) DPL0 load(1, XDATA, add(CFA_XSP16, literal(-2)))
          CFI (cfiCond92) DPH0 load(1, XDATA, add(CFA_XSP16, literal(-1)))
          CFI (cfiCond92) CFA_SP SP+0
          CFI (cfiCond92) CFA_XSP16 add(XSP16, 13)
          CFI Block cfiCond93 Using cfiCommon0
          CFI (cfiCond93) Function ZDSecMgrAddLinkKey
          CFI (cfiCond93) Conditional ??CrossCallReturnLabel_238, ??CrossCallReturnLabel_235
          CFI (cfiCond93) R6 load(1, XDATA, add(CFA_XSP16, literal(-12)))
          CFI (cfiCond93) VB load(1, XDATA, add(CFA_XSP16, literal(-11)))
          CFI (cfiCond93) V0 load(1, XDATA, add(CFA_XSP16, literal(-10)))
          CFI (cfiCond93) V1 load(1, XDATA, add(CFA_XSP16, literal(-9)))
          CFI (cfiCond93) V2 load(1, XDATA, add(CFA_XSP16, literal(-8)))
          CFI (cfiCond93) V3 load(1, XDATA, add(CFA_XSP16, literal(-7)))
          CFI (cfiCond93) R7 load(1, XDATA, add(CFA_XSP16, literal(-6)))
          CFI (cfiCond93) ?RET_LOW load(1, XDATA, add(CFA_XSP16, literal(-5)))
          CFI (cfiCond93) ?RET_HIGH load(1, XDATA, add(CFA_XSP16, literal(-4)))
          CFI (cfiCond93) ?BRET_EXT load(1, XDATA, add(CFA_XSP16, literal(-3)))
          CFI (cfiCond93) DPL0 load(1, XDATA, add(CFA_XSP16, literal(-2)))
          CFI (cfiCond93) DPH0 load(1, XDATA, add(CFA_XSP16, literal(-1)))
          CFI (cfiCond93) CFA_SP SP+0
          CFI (cfiCond93) CFA_XSP16 add(XSP16, 16)
          CFI Block cfiCond94 Using cfiCommon0
          CFI (cfiCond94) Function ZDSecMgrMasterKeyInit
          CFI (cfiCond94) Conditional ??CrossCallReturnLabel_238, ??CrossCallReturnLabel_222
          CFI (cfiCond94) DPL0 Frame(CFA_SP, 4)
          CFI (cfiCond94) DPH0 Frame(CFA_SP, 5)
          CFI (cfiCond94) CFA_SP SP+-5
          CFI Block cfiCond95 Using cfiCommon0
          CFI (cfiCond95) Function ZDSecMgrMasterKeyLookup
          CFI (cfiCond95) Conditional ??CrossCallReturnLabel_238, ??CrossCallReturnLabel_223
          CFI (cfiCond95) R6 load(1, XDATA, add(CFA_XSP16, literal(-10)))
          CFI (cfiCond95) VB load(1, XDATA, add(CFA_XSP16, literal(-9)))
          CFI (cfiCond95) V0 load(1, XDATA, add(CFA_XSP16, literal(-8)))
          CFI (cfiCond95) V1 load(1, XDATA, add(CFA_XSP16, literal(-7)))
          CFI (cfiCond95) R7 load(1, XDATA, add(CFA_XSP16, literal(-6)))
          CFI (cfiCond95) ?RET_LOW load(1, XDATA, add(CFA_XSP16, literal(-5)))
          CFI (cfiCond95) ?RET_HIGH load(1, XDATA, add(CFA_XSP16, literal(-4)))
          CFI (cfiCond95) ?BRET_EXT load(1, XDATA, add(CFA_XSP16, literal(-3)))
          CFI (cfiCond95) DPL0 load(1, XDATA, add(CFA_XSP16, literal(-2)))
          CFI (cfiCond95) DPH0 load(1, XDATA, add(CFA_XSP16, literal(-1)))
          CFI (cfiCond95) CFA_SP SP+0
          CFI (cfiCond95) CFA_XSP16 add(XSP16, 10)
          CFI Block cfiCond96 Using cfiCommon0
          CFI (cfiCond96) Function ZDSecMgrEntryInit
          CFI (cfiCond96) Conditional ??CrossCallReturnLabel_238, ??CrossCallReturnLabel_224
          CFI (cfiCond96) DPL0 Frame(CFA_SP, 4)
          CFI (cfiCond96) DPH0 Frame(CFA_SP, 5)
          CFI (cfiCond96) CFA_SP SP+-5
          CFI Block cfiCond97 Using cfiCommon0
          CFI (cfiCond97) Function ZDSecMgrEntryInit
          CFI (cfiCond97) Conditional ??CrossCallReturnLabel_238, ??CrossCallReturnLabel_225
          CFI (cfiCond97) DPL0 Frame(CFA_SP, 4)
          CFI (cfiCond97) DPH0 Frame(CFA_SP, 5)
          CFI (cfiCond97) CFA_SP SP+-5
          CFI Block cfiCond98 Using cfiCommon0
          CFI (cfiCond98) Function ZDSecMgrDeviceCtrlSetup
          CFI (cfiCond98) Conditional ??CrossCallReturnLabel_238, ??CrossCallReturnLabel_226
          CFI (cfiCond98) DPL0 Frame(CFA_SP, 4)
          CFI (cfiCond98) DPH0 Frame(CFA_SP, 5)
          CFI (cfiCond98) CFA_SP SP+-5
          CFI Block cfiCond99 Using cfiCommon0
          CFI (cfiCond99) Function ZDSecMgrDeviceCtrlUpdate
          CFI (cfiCond99) Conditional ??CrossCallReturnLabel_238, ??CrossCallReturnLabel_227
          CFI (cfiCond99) R6 load(1, XDATA, add(CFA_XSP16, literal(-9)))
          CFI (cfiCond99) VB load(1, XDATA, add(CFA_XSP16, literal(-8)))
          CFI (cfiCond99) V0 load(1, XDATA, add(CFA_XSP16, literal(-7)))
          CFI (cfiCond99) R7 load(1, XDATA, add(CFA_XSP16, literal(-6)))
          CFI (cfiCond99) ?RET_LOW load(1, XDATA, add(CFA_XSP16, literal(-5)))
          CFI (cfiCond99) ?RET_HIGH load(1, XDATA, add(CFA_XSP16, literal(-4)))
          CFI (cfiCond99) ?BRET_EXT load(1, XDATA, add(CFA_XSP16, literal(-3)))
          CFI (cfiCond99) DPL0 load(1, XDATA, add(CFA_XSP16, literal(-2)))
          CFI (cfiCond99) DPH0 load(1, XDATA, add(CFA_XSP16, literal(-1)))
          CFI (cfiCond99) CFA_SP SP+0
          CFI (cfiCond99) CFA_XSP16 add(XSP16, 13)
          CFI Block cfiCond100 Using cfiCommon0
          CFI (cfiCond100) Function ZDSecMgrEvent
          CFI (cfiCond100) Conditional ??CrossCallReturnLabel_238, ??CrossCallReturnLabel_228
          CFI (cfiCond100) R6 load(1, XDATA, add(CFA_XSP16, literal(-10)))
          CFI (cfiCond100) VB load(1, XDATA, add(CFA_XSP16, literal(-9)))
          CFI (cfiCond100) V0 load(1, XDATA, add(CFA_XSP16, literal(-8)))
          CFI (cfiCond100) V1 load(1, XDATA, add(CFA_XSP16, literal(-7)))
          CFI (cfiCond100) R7 load(1, XDATA, add(CFA_XSP16, literal(-6)))
          CFI (cfiCond100) ?RET_LOW load(1, XDATA, add(CFA_XSP16, literal(-5)))
          CFI (cfiCond100) ?RET_HIGH load(1, XDATA, add(CFA_XSP16, literal(-4)))
          CFI (cfiCond100) ?BRET_EXT load(1, XDATA, add(CFA_XSP16, literal(-3)))
          CFI (cfiCond100) DPL0 load(1, XDATA, add(CFA_XSP16, literal(-2)))
          CFI (cfiCond100) DPH0 load(1, XDATA, add(CFA_XSP16, literal(-1)))
          CFI (cfiCond100) CFA_SP SP+0
          CFI (cfiCond100) CFA_XSP16 add(XSP16, 33)
          CFI Block cfiCond101 Using cfiCommon0
          CFI (cfiCond101) Function ZDSecMgrRemoveDeviceInd
          CFI (cfiCond101) Conditional ??CrossCallReturnLabel_238, ??CrossCallReturnLabel_229
          CFI (cfiCond101) R6 load(1, XDATA, add(CFA_XSP16, literal(-9)))
          CFI (cfiCond101) VB load(1, XDATA, add(CFA_XSP16, literal(-8)))
          CFI (cfiCond101) V0 load(1, XDATA, add(CFA_XSP16, literal(-7)))
          CFI (cfiCond101) R7 load(1, XDATA, add(CFA_XSP16, literal(-6)))
          CFI (cfiCond101) ?RET_LOW load(1, XDATA, add(CFA_XSP16, literal(-5)))
          CFI (cfiCond101) ?RET_HIGH load(1, XDATA, add(CFA_XSP16, literal(-4)))
          CFI (cfiCond101) ?BRET_EXT load(1, XDATA, add(CFA_XSP16, literal(-3)))
          CFI (cfiCond101) DPL0 load(1, XDATA, add(CFA_XSP16, literal(-2)))
          CFI (cfiCond101) DPH0 load(1, XDATA, add(CFA_XSP16, literal(-1)))
          CFI (cfiCond101) CFA_SP SP+0
          CFI (cfiCond101) CFA_XSP16 add(XSP16, 19)
          CFI Block cfiCond102 Using cfiCommon0
          CFI (cfiCond102) Function APSME_KeyFwdToChild
          CFI (cfiCond102) Conditional ??CrossCallReturnLabel_238, ??CrossCallReturnLabel_230
          CFI (cfiCond102) R6 load(1, XDATA, add(CFA_XSP16, literal(-9)))
          CFI (cfiCond102) VB load(1, XDATA, add(CFA_XSP16, literal(-8)))
          CFI (cfiCond102) V0 load(1, XDATA, add(CFA_XSP16, literal(-7)))
          CFI (cfiCond102) R7 load(1, XDATA, add(CFA_XSP16, literal(-6)))
          CFI (cfiCond102) ?RET_LOW load(1, XDATA, add(CFA_XSP16, literal(-5)))
          CFI (cfiCond102) ?RET_HIGH load(1, XDATA, add(CFA_XSP16, literal(-4)))
          CFI (cfiCond102) ?BRET_EXT load(1, XDATA, add(CFA_XSP16, literal(-3)))
          CFI (cfiCond102) DPL0 load(1, XDATA, add(CFA_XSP16, literal(-2)))
          CFI (cfiCond102) DPH0 load(1, XDATA, add(CFA_XSP16, literal(-1)))
          CFI (cfiCond102) CFA_SP SP+0
          CFI (cfiCond102) CFA_XSP16 add(XSP16, 9)
          CFI Block cfiPicker103 Using cfiCommon1
          CFI (cfiPicker103) NoFunction
          CFI (cfiPicker103) Picker
        LCALL   ?Subroutine72 & 0xFFFF
??CrossCallReturnLabel_247:
        MOV     R1,A
        MOV     A,R0
        ORL     A,R1
        RET
          CFI EndBlock cfiCond85
          CFI EndBlock cfiCond86
          CFI EndBlock cfiCond87
          CFI EndBlock cfiCond88
          CFI EndBlock cfiCond89
          CFI EndBlock cfiCond90
          CFI EndBlock cfiCond91
          CFI EndBlock cfiCond92
          CFI EndBlock cfiCond93
          CFI EndBlock cfiCond94
          CFI EndBlock cfiCond95
          CFI EndBlock cfiCond96
          CFI EndBlock cfiCond97
          CFI EndBlock cfiCond98
          CFI EndBlock cfiCond99
          CFI EndBlock cfiCond100
          CFI EndBlock cfiCond101
          CFI EndBlock cfiCond102
          CFI EndBlock cfiPicker103
//  990 
//  991 /******************************************************************************
//  992  * @fn          ZDSecMgrCtrlSet
//  993  *
//  994  * @brief       Set control data.
//  995  *
//  996  * @param       device - [in] valid device data
//  997  * @param       entry  - [in] valid entry data
//  998  * @param       ctrl   - [in] valid control data
//  999  *
// 1000  * @return      none
// 1001  */

        RSEG BANKED_CODE:CODE:NOROOT(0)
// 1002 void ZDSecMgrCtrlSet( ZDSecMgrDevice_t* device,
ZDSecMgrCtrlSet:
          CFI Block cfiBlock104 Using cfiCommon0
          CFI Function ZDSecMgrCtrlSet
        CODE
// 1003                       ZDSecMgrEntry_t*  entry,
// 1004                       ZDSecMgrCtrl_t*   ctrl )
// 1005 {
        MOV     A,#-0x9
        LCALL   ?BANKED_ENTER_XDATA
          CFI DPH0 load(1, XDATA, add(CFA_XSP16, literal(-1)))
          CFI DPL0 load(1, XDATA, add(CFA_XSP16, literal(-2)))
          CFI ?BRET_EXT load(1, XDATA, add(CFA_XSP16, literal(-3)))
          CFI ?RET_HIGH load(1, XDATA, add(CFA_XSP16, literal(-4)))
          CFI ?RET_LOW load(1, XDATA, add(CFA_XSP16, literal(-5)))
          CFI R7 load(1, XDATA, add(CFA_XSP16, literal(-6)))
          CFI V0 load(1, XDATA, add(CFA_XSP16, literal(-7)))
          CFI VB load(1, XDATA, add(CFA_XSP16, literal(-8)))
          CFI R6 load(1, XDATA, add(CFA_XSP16, literal(-9)))
          CFI CFA_SP SP+0
          CFI CFA_XSP16 add(XSP16, 9)
        ; Saved register size: 9
        ; Auto size: 0
        MOV     A,#0x9
        LCALL   ?XSTACK_DISP0_8
        LCALL   ??Subroutine95_0 & 0xFFFF
// 1006   // set control date
// 1007   ctrl->parentAddr = device->parentAddr;
??CrossCallReturnLabel_203:
        MOV     DPL,R2
        MOV     DPH,R3
        INC     DPTR
        INC     DPTR
        INC     DPTR
        INC     DPTR
        MOVX    A,@DPTR
        MOV     R6,A
        INC     DPTR
        MOVX    A,@DPTR
        MOV     R7,A
        MOV     DPL,R0
        MOV     DPH,R1
        INC     DPTR
        INC     DPTR
        MOV     A,R6
        MOVX    @DPTR,A
        INC     DPTR
        MOV     A,R7
        LCALL   ?Subroutine25 & 0xFFFF
// 1008   ctrl->secure     = device->secure;
??CrossCallReturnLabel_15:
        MOVX    A,@DPTR
        MOV     DPL,R0
        MOV     DPH,R1
        INC     DPTR
        INC     DPTR
        INC     DPTR
        INC     DPTR
        LCALL   ?Subroutine69 & 0xFFFF
// 1009   ctrl->entry      = entry;
??CrossCallReturnLabel_86:
        MOV     A,R4
        MOVX    @DPTR,A
        INC     DPTR
        MOV     A,R5
        LCALL   ?Subroutine27 & 0xFFFF
// 1010   ctrl->state      = ZDSECMGR_CTRL_INIT;
??CrossCallReturnLabel_19:
        MOV     A,#0x1
        LCALL   ?Subroutine27 & 0xFFFF
// 1011   ctrl->cntr       = 0;
??CrossCallReturnLabel_20:
        INC     DPTR
        CLR     A
        LCALL   ?Subroutine25 & 0xFFFF
// 1012 
// 1013   // set device pointer
// 1014   device->ctrl = ctrl;
??CrossCallReturnLabel_16:
        INC     DPTR
        INC     DPTR
        LCALL   ??Subroutine87_0 & 0xFFFF
// 1015 }
??CrossCallReturnLabel_152:
        LJMP    ??Subroutine83_0 & 0xFFFF
          CFI EndBlock cfiBlock104

        RSEG BANKED_CODE:CODE:NOROOT(0)
?Subroutine27:
          CFI Block cfiCond105 Using cfiCommon0
          CFI Function ZDSecMgrCtrlSet
          CFI Conditional ??CrossCallReturnLabel_19
          CFI R6 load(1, XDATA, add(CFA_XSP16, literal(-9)))
          CFI VB load(1, XDATA, add(CFA_XSP16, literal(-8)))
          CFI V0 load(1, XDATA, add(CFA_XSP16, literal(-7)))
          CFI R7 load(1, XDATA, add(CFA_XSP16, literal(-6)))
          CFI ?RET_LOW load(1, XDATA, add(CFA_XSP16, literal(-5)))
          CFI ?RET_HIGH load(1, XDATA, add(CFA_XSP16, literal(-4)))
          CFI ?BRET_EXT load(1, XDATA, add(CFA_XSP16, literal(-3)))
          CFI DPL0 load(1, XDATA, add(CFA_XSP16, literal(-2)))
          CFI DPH0 load(1, XDATA, add(CFA_XSP16, literal(-1)))
          CFI CFA_SP SP+0
          CFI CFA_XSP16 add(XSP16, 9)
          CFI Block cfiCond106 Using cfiCommon0
          CFI (cfiCond106) Function ZDSecMgrCtrlSet
          CFI (cfiCond106) Conditional ??CrossCallReturnLabel_20
          CFI (cfiCond106) R6 load(1, XDATA, add(CFA_XSP16, literal(-9)))
          CFI (cfiCond106) VB load(1, XDATA, add(CFA_XSP16, literal(-8)))
          CFI (cfiCond106) V0 load(1, XDATA, add(CFA_XSP16, literal(-7)))
          CFI (cfiCond106) R7 load(1, XDATA, add(CFA_XSP16, literal(-6)))
          CFI (cfiCond106) ?RET_LOW load(1, XDATA, add(CFA_XSP16, literal(-5)))
          CFI (cfiCond106) ?RET_HIGH load(1, XDATA, add(CFA_XSP16, literal(-4)))
          CFI (cfiCond106) ?BRET_EXT load(1, XDATA, add(CFA_XSP16, literal(-3)))
          CFI (cfiCond106) DPL0 load(1, XDATA, add(CFA_XSP16, literal(-2)))
          CFI (cfiCond106) DPH0 load(1, XDATA, add(CFA_XSP16, literal(-1)))
          CFI (cfiCond106) CFA_SP SP+0
          CFI (cfiCond106) CFA_XSP16 add(XSP16, 9)
          CFI Block cfiPicker107 Using cfiCommon1
          CFI (cfiPicker107) NoFunction
          CFI (cfiPicker107) Picker
        LCALL   ?Subroutine69 & 0xFFFF
??CrossCallReturnLabel_87:
        INC     DPTR
        INC     DPTR
        INC     DPTR
        INC     DPTR
        INC     DPTR
        RET
          CFI EndBlock cfiCond105
          CFI EndBlock cfiCond106
          CFI EndBlock cfiPicker107

        RSEG BANKED_CODE:CODE:NOROOT(0)
?Subroutine25:
          CFI Block cfiCond108 Using cfiCommon0
          CFI Function ZDSecMgrCtrlSet
          CFI Conditional ??CrossCallReturnLabel_15
          CFI R6 load(1, XDATA, add(CFA_XSP16, literal(-9)))
          CFI VB load(1, XDATA, add(CFA_XSP16, literal(-8)))
          CFI V0 load(1, XDATA, add(CFA_XSP16, literal(-7)))
          CFI R7 load(1, XDATA, add(CFA_XSP16, literal(-6)))
          CFI ?RET_LOW load(1, XDATA, add(CFA_XSP16, literal(-5)))
          CFI ?RET_HIGH load(1, XDATA, add(CFA_XSP16, literal(-4)))
          CFI ?BRET_EXT load(1, XDATA, add(CFA_XSP16, literal(-3)))
          CFI DPL0 load(1, XDATA, add(CFA_XSP16, literal(-2)))
          CFI DPH0 load(1, XDATA, add(CFA_XSP16, literal(-1)))
          CFI CFA_SP SP+0
          CFI CFA_XSP16 add(XSP16, 9)
          CFI Block cfiCond109 Using cfiCommon0
          CFI (cfiCond109) Function ZDSecMgrCtrlSet
          CFI (cfiCond109) Conditional ??CrossCallReturnLabel_16
          CFI (cfiCond109) R6 load(1, XDATA, add(CFA_XSP16, literal(-9)))
          CFI (cfiCond109) VB load(1, XDATA, add(CFA_XSP16, literal(-8)))
          CFI (cfiCond109) V0 load(1, XDATA, add(CFA_XSP16, literal(-7)))
          CFI (cfiCond109) R7 load(1, XDATA, add(CFA_XSP16, literal(-6)))
          CFI (cfiCond109) ?RET_LOW load(1, XDATA, add(CFA_XSP16, literal(-5)))
          CFI (cfiCond109) ?RET_HIGH load(1, XDATA, add(CFA_XSP16, literal(-4)))
          CFI (cfiCond109) ?BRET_EXT load(1, XDATA, add(CFA_XSP16, literal(-3)))
          CFI (cfiCond109) DPL0 load(1, XDATA, add(CFA_XSP16, literal(-2)))
          CFI (cfiCond109) DPH0 load(1, XDATA, add(CFA_XSP16, literal(-1)))
          CFI (cfiCond109) CFA_SP SP+0
          CFI (cfiCond109) CFA_XSP16 add(XSP16, 9)
          CFI Block cfiPicker110 Using cfiCommon1
          CFI (cfiPicker110) NoFunction
          CFI (cfiPicker110) Picker
        MOVX    @DPTR,A
        MOV     DPL,R2
        MOV     DPH,R3
        INC     DPTR
        INC     DPTR
        INC     DPTR
        INC     DPTR
        INC     DPTR
        INC     DPTR
        RET
          CFI EndBlock cfiCond108
          CFI EndBlock cfiCond109
          CFI EndBlock cfiPicker110
// 1016 
// 1017 /******************************************************************************
// 1018  * @fn          ZDSecMgrCtrlAdd
// 1019  *
// 1020  * @brief       Add control data.
// 1021  *
// 1022  * @param       device - [in] valid device data
// 1023  * @param       entry  - [in] valid entry data
// 1024  *
// 1025  * @return      ZStatus_t
// 1026  */

        RSEG BANKED_CODE:CODE:NOROOT(0)
// 1027 ZStatus_t ZDSecMgrCtrlAdd( ZDSecMgrDevice_t* device, ZDSecMgrEntry_t*  entry )
ZDSecMgrCtrlAdd:
          CFI Block cfiBlock111 Using cfiCommon0
          CFI Function ZDSecMgrCtrlAdd
        CODE
// 1028 {
        FUNCALL ZDSecMgrCtrlAdd, ZDSecMgrCtrlSet
        LOCFRAME ISTACK, 0, STACK
        LOCFRAME PSTACK, 0, STACK
        LOCFRAME XSTACK, 14, STACK
        LOCFRAME IOVERLAY, 0, STATIC
        LOCFRAME DOVERLAY, 0, STATIC
        ARGFRAME ISTACK, 0, STACK
        ARGFRAME PSTACK, 0, STACK
        ARGFRAME XSTACK, 14, STACK
        ARGFRAME IOVERLAY, 0, STATIC
        ARGFRAME DOVERLAY, 0, STATIC
        MOV     A,#-0xc
        LCALL   ?BANKED_ENTER_XDATA
          CFI DPH0 load(1, XDATA, add(CFA_XSP16, literal(-1)))
          CFI DPL0 load(1, XDATA, add(CFA_XSP16, literal(-2)))
          CFI ?BRET_EXT load(1, XDATA, add(CFA_XSP16, literal(-3)))
          CFI ?RET_HIGH load(1, XDATA, add(CFA_XSP16, literal(-4)))
          CFI ?RET_LOW load(1, XDATA, add(CFA_XSP16, literal(-5)))
          CFI R7 load(1, XDATA, add(CFA_XSP16, literal(-6)))
          CFI V3 load(1, XDATA, add(CFA_XSP16, literal(-7)))
          CFI V2 load(1, XDATA, add(CFA_XSP16, literal(-8)))
          CFI V1 load(1, XDATA, add(CFA_XSP16, literal(-9)))
          CFI V0 load(1, XDATA, add(CFA_XSP16, literal(-10)))
          CFI VB load(1, XDATA, add(CFA_XSP16, literal(-11)))
          CFI R6 load(1, XDATA, add(CFA_XSP16, literal(-12)))
          CFI CFA_SP SP+0
          CFI CFA_XSP16 add(XSP16, 12)
        ; Saved register size: 12
        ; Auto size: 0
        MOV     A,R2
        MOV     R6,A
        MOV     A,R3
        MOV     R7,A
        MOV     ?V0 + 0,R4
        MOV     ?V0 + 1,R5
// 1029   ZStatus_t status;
// 1030   uint16    index;
// 1031 
// 1032 
// 1033   // initialize results
// 1034   status = ZNwkUnknownDevice;
        MOV     R1,#-0x38
// 1035 
// 1036   // verify data is available
// 1037   if ( ZDSecMgrCtrlData != NULL )
        MOV     DPTR,#ZDSecMgrCtrlData
        LCALL   ??Subroutine85_0 & 0xFFFF
??CrossCallReturnLabel_124:
        MOV     A,R2
        ORL     A,R3
        JZ      ??ZDSecMgrCtrlAdd_0
// 1038   {
// 1039     // look for an empty slot
// 1040     for ( index = 0; index < ZDSECMGR_CTRL_MAX; index++ )
        MOV     R2,#0x0
        MOV     R3,#0x0
// 1041     {
// 1042       if ( ZDSecMgrCtrlData[index].state == ZDSECMGR_CTRL_NONE )
??ZDSecMgrCtrlAdd_1:
        MOV     A,R2
        MOV     R4,A
        MOV     A,R3
        MOV     R5,A
        MOV     A,R4
        MOV     B,#0x7
        MUL     AB
        MOV     R4,A
        MOV     R0,B
        MOV     B,#0x7
        MOV     A,R5
        MUL     AB
        ADD     A,R0
        MOV     R5,A
        MOV     DPTR,#ZDSecMgrCtrlData
        MOVX    A,@DPTR
        ADD     A,R4
        MOV     ?V0 + 2,A
        INC     DPTR
        MOVX    A,@DPTR
        ADDC    A,R5
        MOV     ?V0 + 3,A
        MOV     DPL,?V0 + 2
        MOV     DPH,A
        INC     DPTR
        INC     DPTR
        INC     DPTR
        INC     DPTR
        INC     DPTR
        MOVX    A,@DPTR
        JNZ     ??ZDSecMgrCtrlAdd_2
// 1043       {
// 1044         // return successful results
// 1045         ZDSecMgrCtrlSet( device, entry, &ZDSecMgrCtrlData[index] );
        ; Setup parameters for call to function ZDSecMgrCtrlSet
        MOV     R0,#?V0 + 2
        LCALL   ?PUSH_XSTACK_I_TWO
          CFI CFA_XSP16 add(XSP16, 14)
        MOV     R4,?V0 + 0
        MOV     R5,?V0 + 1
        MOV     A,R6
        MOV     R2,A
        MOV     A,R7
        MOV     R3,A
        LCALL   ??ZDSecMgrCtrlSet?relay
        MOV     A,#0x2
        LCALL   ?DEALLOC_XSTACK8
          CFI CFA_XSP16 add(XSP16, 12)
// 1046 
// 1047         status = ZSuccess;
        MOV     R1,#0x0
// 1048 
// 1049         // break from loop
// 1050         index = ZDSECMGR_CTRL_MAX;
        MOV     R2,#0x3
        MOV     R3,#0x0
// 1051       }
// 1052     }
??ZDSecMgrCtrlAdd_2:
        LCALL   ?Subroutine52 & 0xFFFF
// 1053   }
??CrossCallReturnLabel_65:
        JC      ??ZDSecMgrCtrlAdd_1
// 1054 
// 1055   return status;
??ZDSecMgrCtrlAdd_0:
        LJMP    ??Subroutine98_0 & 0xFFFF
          CFI EndBlock cfiBlock111
// 1056 }

        RSEG BANKED_CODE:CODE:NOROOT(0)
?Subroutine52:
          CFI Block cfiCond112 Using cfiCommon0
          CFI Function ZDSecMgrMasterKeyStore
          CFI Conditional ??CrossCallReturnLabel_64
          CFI R6 load(1, XDATA, add(CFA_XSP16, literal(-15)))
          CFI VB load(1, XDATA, add(CFA_XSP16, literal(-14)))
          CFI V0 load(1, XDATA, add(CFA_XSP16, literal(-13)))
          CFI V1 load(1, XDATA, add(CFA_XSP16, literal(-12)))
          CFI V2 load(1, XDATA, add(CFA_XSP16, literal(-11)))
          CFI V3 load(1, XDATA, add(CFA_XSP16, literal(-10)))
          CFI V4 load(1, XDATA, add(CFA_XSP16, literal(-9)))
          CFI V5 load(1, XDATA, add(CFA_XSP16, literal(-8)))
          CFI V6 load(1, XDATA, add(CFA_XSP16, literal(-7)))
          CFI R7 load(1, XDATA, add(CFA_XSP16, literal(-6)))
          CFI ?RET_LOW load(1, XDATA, add(CFA_XSP16, literal(-5)))
          CFI ?RET_HIGH load(1, XDATA, add(CFA_XSP16, literal(-4)))
          CFI ?BRET_EXT load(1, XDATA, add(CFA_XSP16, literal(-3)))
          CFI DPL0 load(1, XDATA, add(CFA_XSP16, literal(-2)))
          CFI DPH0 load(1, XDATA, add(CFA_XSP16, literal(-1)))
          CFI CFA_SP SP+0
          CFI CFA_XSP16 add(XSP16, 15)
          CFI Block cfiCond113 Using cfiCommon0
          CFI (cfiCond113) Function ZDSecMgrCtrlAdd
          CFI (cfiCond113) Conditional ??CrossCallReturnLabel_65
          CFI (cfiCond113) R6 load(1, XDATA, add(CFA_XSP16, literal(-12)))
          CFI (cfiCond113) VB load(1, XDATA, add(CFA_XSP16, literal(-11)))
          CFI (cfiCond113) V0 load(1, XDATA, add(CFA_XSP16, literal(-10)))
          CFI (cfiCond113) V1 load(1, XDATA, add(CFA_XSP16, literal(-9)))
          CFI (cfiCond113) V2 load(1, XDATA, add(CFA_XSP16, literal(-8)))
          CFI (cfiCond113) V3 load(1, XDATA, add(CFA_XSP16, literal(-7)))
          CFI (cfiCond113) R7 load(1, XDATA, add(CFA_XSP16, literal(-6)))
          CFI (cfiCond113) ?RET_LOW load(1, XDATA, add(CFA_XSP16, literal(-5)))
          CFI (cfiCond113) ?RET_HIGH load(1, XDATA, add(CFA_XSP16, literal(-4)))
          CFI (cfiCond113) ?BRET_EXT load(1, XDATA, add(CFA_XSP16, literal(-3)))
          CFI (cfiCond113) DPL0 load(1, XDATA, add(CFA_XSP16, literal(-2)))
          CFI (cfiCond113) DPH0 load(1, XDATA, add(CFA_XSP16, literal(-1)))
          CFI (cfiCond113) CFA_SP SP+0
          CFI (cfiCond113) CFA_XSP16 add(XSP16, 12)
          CFI Block cfiPicker114 Using cfiCommon1
          CFI (cfiPicker114) NoFunction
          CFI (cfiPicker114) Picker
        MOV     A,R2
        ADD     A,#0x1
        INC     R2
        MOV     A,R3
        ADDC    A,#0x0
        MOV     R3,A
        CLR     C
        MOV     A,R2
        SUBB    A,#0x3
        MOV     A,R3
        SUBB    A,#0x0
        RET
          CFI EndBlock cfiCond112
          CFI EndBlock cfiCond113
          CFI EndBlock cfiPicker114
// 1057 
// 1058 /******************************************************************************
// 1059  * @fn          ZDSecMgrCtrlTerm
// 1060  *
// 1061  * @brief       Terminate device control.
// 1062  *
// 1063  * @param       entry - [in] valid entry data
// 1064  *
// 1065  * @return      none
// 1066  */

        RSEG BANKED_CODE:CODE:NOROOT(0)
// 1067 void ZDSecMgrCtrlTerm( ZDSecMgrEntry_t* entry )
ZDSecMgrCtrlTerm:
          CFI Block cfiBlock115 Using cfiCommon0
          CFI Function ZDSecMgrCtrlTerm
        CODE
// 1068 {
        FUNCALL ZDSecMgrCtrlTerm, ZDSecMgrCtrlLookup
        LOCFRAME ISTACK, 2, STACK
        LOCFRAME PSTACK, 0, STACK
        LOCFRAME XSTACK, 2, STACK
        LOCFRAME IOVERLAY, 0, STATIC
        LOCFRAME DOVERLAY, 0, STATIC
        ARGFRAME ISTACK, 2, STACK
        ARGFRAME PSTACK, 0, STACK
        ARGFRAME XSTACK, 2, STACK
        ARGFRAME IOVERLAY, 0, STATIC
        ARGFRAME DOVERLAY, 0, STATIC
        PUSH    DPL
          CFI DPL0 Frame(CFA_SP, 4)
          CFI CFA_SP SP+-4
        PUSH    DPH
          CFI DPH0 Frame(CFA_SP, 5)
          CFI CFA_SP SP+-5
        ; Saved register size: 2
        ; Auto size: 2
        MOV     A,#-0x2
        LCALL   ?ALLOC_XSTACK8
          CFI CFA_XSP16 add(XSP16, 2)
// 1069   ZDSecMgrCtrl_t* ctrl;
// 1070 
// 1071   // remove device from control data
// 1072   ZDSecMgrCtrlLookup ( entry, &ctrl );
        ; Setup parameters for call to function ZDSecMgrCtrlLookup
        MOV     DPL,?XSP + 0
        MOV     DPH,?XSP + 1
        MOV     R4,DPL
        MOV     R5,DPH
        LCALL   ??ZDSecMgrCtrlLookup?relay
// 1073 
// 1074   if ( ctrl != NULL )
        LCALL   ?Subroutine38 & 0xFFFF
??CrossCallReturnLabel_231:
        JZ      ??ZDSecMgrCtrlTerm_0
// 1075   {
// 1076     ZDSecMgrCtrlRelease ( ctrl );
        MOV     DPL,?XSP + 0
        MOV     DPH,?XSP + 1
        LCALL   ??Subroutine78_0 & 0xFFFF
??CrossCallReturnLabel_107:
        INC     DPTR
        INC     DPTR
        INC     DPTR
        INC     DPTR
        INC     DPTR
        CLR     A
        MOVX    @DPTR,A
// 1077   }
// 1078 }
??ZDSecMgrCtrlTerm_0:
        LJMP    ?Subroutine7 & 0xFFFF
          CFI EndBlock cfiBlock115
// 1079 
// 1080 /******************************************************************************
// 1081  * @fn          ZDSecMgrCtrlReset
// 1082  *
// 1083  * @brief       Reset control data.
// 1084  *
// 1085  * @param       device - [in] valid device data
// 1086  * @param       entry  - [in] valid entry data
// 1087  *
// 1088  * @return      ZStatus_t
// 1089  */

        RSEG BANKED_CODE:CODE:NOROOT(0)
// 1090 ZStatus_t ZDSecMgrCtrlReset( ZDSecMgrDevice_t* device, ZDSecMgrEntry_t* entry )
ZDSecMgrCtrlReset:
          CFI Block cfiBlock116 Using cfiCommon0
          CFI Function ZDSecMgrCtrlReset
        CODE
// 1091 {
        FUNCALL ZDSecMgrCtrlReset, ZDSecMgrCtrlLookup
        LOCFRAME ISTACK, 0, STACK
        LOCFRAME PSTACK, 0, STACK
        LOCFRAME XSTACK, 12, STACK
        LOCFRAME IOVERLAY, 0, STATIC
        LOCFRAME DOVERLAY, 0, STATIC
        ARGFRAME ISTACK, 0, STACK
        ARGFRAME PSTACK, 0, STACK
        ARGFRAME XSTACK, 12, STACK
        ARGFRAME IOVERLAY, 0, STATIC
        ARGFRAME DOVERLAY, 0, STATIC
        FUNCALL ZDSecMgrCtrlReset, ZDSecMgrCtrlSet
        LOCFRAME ISTACK, 0, STACK
        LOCFRAME PSTACK, 0, STACK
        LOCFRAME XSTACK, 14, STACK
        LOCFRAME IOVERLAY, 0, STATIC
        LOCFRAME DOVERLAY, 0, STATIC
        ARGFRAME ISTACK, 0, STACK
        ARGFRAME PSTACK, 0, STACK
        ARGFRAME XSTACK, 14, STACK
        ARGFRAME IOVERLAY, 0, STATIC
        ARGFRAME DOVERLAY, 0, STATIC
        FUNCALL ZDSecMgrCtrlReset, ZDSecMgrCtrlAdd
        LOCFRAME ISTACK, 0, STACK
        LOCFRAME PSTACK, 0, STACK
        LOCFRAME XSTACK, 12, STACK
        LOCFRAME IOVERLAY, 0, STATIC
        LOCFRAME DOVERLAY, 0, STATIC
        ARGFRAME ISTACK, 0, STACK
        ARGFRAME PSTACK, 0, STACK
        ARGFRAME XSTACK, 12, STACK
        ARGFRAME IOVERLAY, 0, STATIC
        ARGFRAME DOVERLAY, 0, STATIC
        MOV     A,#-0xa
        LCALL   ?BANKED_ENTER_XDATA
          CFI DPH0 load(1, XDATA, add(CFA_XSP16, literal(-1)))
          CFI DPL0 load(1, XDATA, add(CFA_XSP16, literal(-2)))
          CFI ?BRET_EXT load(1, XDATA, add(CFA_XSP16, literal(-3)))
          CFI ?RET_HIGH load(1, XDATA, add(CFA_XSP16, literal(-4)))
          CFI ?RET_LOW load(1, XDATA, add(CFA_XSP16, literal(-5)))
          CFI R7 load(1, XDATA, add(CFA_XSP16, literal(-6)))
          CFI V1 load(1, XDATA, add(CFA_XSP16, literal(-7)))
          CFI V0 load(1, XDATA, add(CFA_XSP16, literal(-8)))
          CFI VB load(1, XDATA, add(CFA_XSP16, literal(-9)))
          CFI R6 load(1, XDATA, add(CFA_XSP16, literal(-10)))
          CFI CFA_SP SP+0
          CFI CFA_XSP16 add(XSP16, 10)
        ; Saved register size: 10
        ; Auto size: 2
        MOV     A,#-0x2
        LCALL   ?ALLOC_XSTACK8
          CFI CFA_XSP16 add(XSP16, 12)
        MOV     ?V0 + 0,R2
        MOV     ?V0 + 1,R3
        MOV     A,R4
        MOV     R6,A
        MOV     A,R5
        MOV     R7,A
// 1092   ZStatus_t       status;
// 1093   ZDSecMgrCtrl_t* ctrl;
// 1094 
// 1095 
// 1096   // initialize results
// 1097   status = ZNwkUnknownDevice;
// 1098 
// 1099   // look for a match for the entry
// 1100   ZDSecMgrCtrlLookup( entry, &ctrl );
        ; Setup parameters for call to function ZDSecMgrCtrlLookup
        MOV     DPL,?XSP + 0
        MOV     DPH,?XSP + 1
        MOV     R4,DPL
        MOV     R5,DPH
        MOV     A,R6
        MOV     R2,A
        MOV     A,R7
        MOV     R3,A
        LCALL   ??ZDSecMgrCtrlLookup?relay
// 1101 
// 1102   if ( ctrl != NULL )
        LCALL   ?Subroutine38 & 0xFFFF
??CrossCallReturnLabel_232:
        JZ      ??ZDSecMgrCtrlReset_0
// 1103   {
// 1104     ZDSecMgrCtrlSet( device, entry, ctrl );
        ; Setup parameters for call to function ZDSecMgrCtrlSet
        MOV     DPL,?XSP + 0
        MOV     DPH,?XSP + 1
        LCALL   ?PUSH_XSTACK8_X_TWO
          CFI CFA_XSP16 add(XSP16, 14)
        MOV     A,R6
        MOV     R4,A
        MOV     A,R7
        MOV     R5,A
        MOV     R2,?V0 + 0
        MOV     R3,?V0 + 1
        LCALL   ??ZDSecMgrCtrlSet?relay
        MOV     A,#0x2
        LCALL   ?DEALLOC_XSTACK8
          CFI CFA_XSP16 add(XSP16, 12)
// 1105 
// 1106     status = ZSuccess;
        MOV     R1,#0x0
        SJMP    ??ZDSecMgrCtrlReset_1
// 1107   }
// 1108   else
// 1109   {
// 1110     status = ZDSecMgrCtrlAdd( device, entry );
??ZDSecMgrCtrlReset_0:
        ; Setup parameters for call to function ZDSecMgrCtrlAdd
        MOV     A,R6
        MOV     R4,A
        MOV     A,R7
        MOV     R5,A
        MOV     R2,?V0 + 0
        MOV     R3,?V0 + 1
        LCALL   ??ZDSecMgrCtrlAdd?relay
          CFI EndBlock cfiBlock116
// 1111   }
// 1112 
// 1113   return status;
??ZDSecMgrCtrlReset_1:
        REQUIRE ?Subroutine11
        ; // Fall through to label ?Subroutine11
// 1114 }

        RSEG BANKED_CODE:CODE:NOROOT(0)
?Subroutine11:
          CFI Block cfiBlock117 Using cfiCommon0
          CFI NoFunction
          CFI CFA_SP SP+0
          CFI CFA_XSP16 add(XSP16, 12)
          CFI VB load(1, XDATA, add(CFA_XSP16, literal(-9)))
          CFI DPL0 load(1, XDATA, add(CFA_XSP16, literal(-2)))
          CFI DPH0 load(1, XDATA, add(CFA_XSP16, literal(-1)))
          CFI R6 load(1, XDATA, add(CFA_XSP16, literal(-10)))
          CFI R7 load(1, XDATA, add(CFA_XSP16, literal(-6)))
          CFI V0 load(1, XDATA, add(CFA_XSP16, literal(-8)))
          CFI V1 load(1, XDATA, add(CFA_XSP16, literal(-7)))
          CFI ?BRET_EXT load(1, XDATA, add(CFA_XSP16, literal(-3)))
          CFI ?RET_HIGH load(1, XDATA, add(CFA_XSP16, literal(-4)))
          CFI ?RET_LOW load(1, XDATA, add(CFA_XSP16, literal(-5)))
        MOV     A,#0x2
        LJMP    ??Subroutine93_0 & 0xFFFF
          CFI EndBlock cfiBlock117
// 1115 
// 1116 /******************************************************************************
// 1117  * @fn          ZDSecMgrMasterKeyLoad
// 1118  *
// 1119  * @brief       Load the MASTER key for device with specified EXT
// 1120  *              address.
// 1121  *
// 1122  * @param       extAddr - [in] EXT address of device
// 1123  * @param       key     - [in] MASTER key shared with device
// 1124  *
// 1125  * @return      ZStatus_t
// 1126  */

        RSEG BANKED_CODE:CODE:NOROOT(0)
// 1127 ZStatus_t ZDSecMgrMasterKeyLoad( uint8* extAddr, uint8* key )
ZDSecMgrMasterKeyLoad:
          CFI Block cfiBlock118 Using cfiCommon0
          CFI Function ZDSecMgrMasterKeyLoad
        CODE
// 1128 {
        FUNCALL ZDSecMgrMasterKeyLoad, ZDSecMgrExtAddrLookup
        LOCFRAME ISTACK, 0, STACK
        LOCFRAME PSTACK, 0, STACK
        LOCFRAME XSTACK, 16, STACK
        LOCFRAME IOVERLAY, 0, STATIC
        LOCFRAME DOVERLAY, 0, STATIC
        ARGFRAME ISTACK, 0, STACK
        ARGFRAME PSTACK, 0, STACK
        ARGFRAME XSTACK, 16, STACK
        ARGFRAME IOVERLAY, 0, STATIC
        ARGFRAME DOVERLAY, 0, STATIC
        FUNCALL ZDSecMgrMasterKeyLoad, ZDSecMgrMasterKeyLookup
        LOCFRAME ISTACK, 0, STACK
        LOCFRAME PSTACK, 0, STACK
        LOCFRAME XSTACK, 16, STACK
        LOCFRAME IOVERLAY, 0, STATIC
        LOCFRAME DOVERLAY, 0, STATIC
        ARGFRAME ISTACK, 0, STACK
        ARGFRAME PSTACK, 0, STACK
        ARGFRAME XSTACK, 16, STACK
        ARGFRAME IOVERLAY, 0, STATIC
        ARGFRAME DOVERLAY, 0, STATIC
        FUNCALL ZDSecMgrMasterKeyLoad, osal_memcpy
        LOCFRAME ISTACK, 0, STACK
        LOCFRAME PSTACK, 0, STACK
        LOCFRAME XSTACK, 19, STACK
        LOCFRAME IOVERLAY, 0, STATIC
        LOCFRAME DOVERLAY, 0, STATIC
        ARGFRAME ISTACK, 0, STACK
        ARGFRAME PSTACK, 0, STACK
        ARGFRAME XSTACK, 19, STACK
        ARGFRAME IOVERLAY, 0, STATIC
        ARGFRAME DOVERLAY, 0, STATIC
        FUNCALL ZDSecMgrMasterKeyLoad, ZDSecMgrMasterKeyStore
        LOCFRAME ISTACK, 0, STACK
        LOCFRAME PSTACK, 0, STACK
        LOCFRAME XSTACK, 16, STACK
        LOCFRAME IOVERLAY, 0, STATIC
        LOCFRAME DOVERLAY, 0, STATIC
        ARGFRAME ISTACK, 0, STACK
        ARGFRAME PSTACK, 0, STACK
        ARGFRAME XSTACK, 16, STACK
        ARGFRAME IOVERLAY, 0, STATIC
        ARGFRAME DOVERLAY, 0, STATIC
        MOV     A,#-0xc
        LCALL   ?BANKED_ENTER_XDATA
          CFI DPH0 load(1, XDATA, add(CFA_XSP16, literal(-1)))
          CFI DPL0 load(1, XDATA, add(CFA_XSP16, literal(-2)))
          CFI ?BRET_EXT load(1, XDATA, add(CFA_XSP16, literal(-3)))
          CFI ?RET_HIGH load(1, XDATA, add(CFA_XSP16, literal(-4)))
          CFI ?RET_LOW load(1, XDATA, add(CFA_XSP16, literal(-5)))
          CFI R7 load(1, XDATA, add(CFA_XSP16, literal(-6)))
          CFI V3 load(1, XDATA, add(CFA_XSP16, literal(-7)))
          CFI V2 load(1, XDATA, add(CFA_XSP16, literal(-8)))
          CFI V1 load(1, XDATA, add(CFA_XSP16, literal(-9)))
          CFI V0 load(1, XDATA, add(CFA_XSP16, literal(-10)))
          CFI VB load(1, XDATA, add(CFA_XSP16, literal(-11)))
          CFI R6 load(1, XDATA, add(CFA_XSP16, literal(-12)))
          CFI CFA_SP SP+0
          CFI CFA_XSP16 add(XSP16, 12)
        ; Saved register size: 12
        ; Auto size: 4
        MOV     A,#-0x4
        LCALL   ?ALLOC_XSTACK8
          CFI CFA_XSP16 add(XSP16, 16)
        MOV     A,R4
        MOV     R6,A
        MOV     A,R5
        MOV     R7,A
// 1129   ZStatus_t status;
// 1130   uint8*    loaded;
// 1131   uint16    ami;
// 1132 
// 1133 
// 1134   // set status based on policy
// 1135   status = ZDSecMgrExtAddrLookup( extAddr, &ami );
        ; Setup parameters for call to function ZDSecMgrExtAddrLookup
        MOV     DPL,?XSP + 0
        MOV     DPH,?XSP + 1
        MOV     R4,DPL
        MOV     R5,DPH
        LCALL   ??ZDSecMgrExtAddrLookup?relay
        MOV     A,R1
        MOV     ?V0 + 3,A
// 1136 
// 1137   if ( status == ZSuccess )
        JNZ     ??ZDSecMgrMasterKeyLoad_0
// 1138   {
// 1139     // get the address index
// 1140     if ( ZDSecMgrMasterKeyLookup( ami, &loaded ) == ZSuccess )
        ; Setup parameters for call to function ZDSecMgrMasterKeyLookup
        MOV     A,#0x2
        LCALL   ?XSTACK_DISP0_8
        MOV     R4,DPL
        MOV     R5,DPH
        LCALL   ??Subroutine84_0 & 0xFFFF
??CrossCallReturnLabel_144:
        LCALL   ??ZDSecMgrMasterKeyLookup?relay
        MOV     A,R1
        JNZ     ??ZDSecMgrMasterKeyLoad_1
// 1141     {
// 1142       // overwrite old key
// 1143       osal_memcpy( loaded, key, SEC_KEY_LEN );
        ; Setup parameters for call to function osal_memcpy
        MOV     ?V0 + 0,R6
        MOV     ?V0 + 1,R7
        MOV     ?V0 + 2,#0x0
        MOV     R0,#?V0 + 0
        LCALL   ?PUSH_XSTACK_I_THREE
          CFI CFA_XSP16 add(XSP16, 19)
        MOV     R4,#0x10
        MOV     R5,#0x0
        MOV     A,#0x5
        LCALL   ?XSTACK_DISP0_8
        LCALL   ??Subroutine85_0 & 0xFFFF
// 1144     }
??CrossCallReturnLabel_125:
        LCALL   ??osal_memcpy?relay
        MOV     A,#0x3
        LCALL   ?DEALLOC_XSTACK8
          CFI CFA_XSP16 add(XSP16, 16)
        SJMP    ??ZDSecMgrMasterKeyLoad_0
// 1145     else
// 1146     {
// 1147       // store new key -- NULL will zero key
// 1148       status = ZDSecMgrMasterKeyStore( ami, key );
??ZDSecMgrMasterKeyLoad_1:
        ; Setup parameters for call to function ZDSecMgrMasterKeyStore
        LCALL   ?Subroutine37 & 0xFFFF
// 1149     }
// 1150   }
??CrossCallReturnLabel_149:
        LCALL   ??ZDSecMgrMasterKeyStore?relay
        MOV     A,R1
        MOV     ?V0 + 3,A
// 1151 
// 1152   return status;
??ZDSecMgrMasterKeyLoad_0:
        MOV     R1,?V0 + 3
        LJMP    ?Subroutine4 & 0xFFFF
          CFI EndBlock cfiBlock118
// 1153 }
// 1154 
// 1155 /******************************************************************************
// 1156  * @fn          ZDSecMgrAppKeyGet
// 1157  *
// 1158  * @brief       get an APP key - option APP(MASTER or LINK) key
// 1159  *
// 1160  * @param       initNwkAddr - [in] NWK address of initiator device
// 1161  * @param       initExtAddr - [in] EXT address of initiator device
// 1162  * @param       partNwkAddr - [in] NWK address of partner device
// 1163  * @param       partExtAddr - [in] EXT address of partner device
// 1164  * @param       key         - [out] APP(MASTER or LINK) key
// 1165  * @param       keyType     - [out] APP(MASTER or LINK) key type
// 1166  *
// 1167  * @return      ZStatus_t
// 1168  */

        RSEG XDATA_I:XDATA:NOROOT(0)
// 1169 uint8 ZDSecMgrAppKeyType = KEY_TYPE_APP_LINK;    // Set the default key type
ZDSecMgrAppKeyType:
        DATA8
        DS 1
        REQUIRE `?<Initializer for ZDSecMgrAppKeyType>`
        REQUIRE __INIT_XDATA_I
// 1170                                                  // to KEY_TYPE_APP_LINK since
// 1171                                                  // only specific requirement
// 1172                                                  // right now comes from SE profile
// 1173 

        RSEG BANKED_CODE:CODE:NOROOT(0)
// 1174 ZStatus_t ZDSecMgrAppKeyGet( uint16  initNwkAddr,
ZDSecMgrAppKeyGet:
          CFI Block cfiBlock119 Using cfiCommon0
          CFI Function ZDSecMgrAppKeyGet
        CODE
// 1175                              uint8*  initExtAddr,
// 1176                              uint16  partNwkAddr,
// 1177                              uint8*  partExtAddr,
// 1178                              uint8** key,
// 1179                              uint8*  keyType )
// 1180 {
        FUNCALL ZDSecMgrAppKeyGet, SSP_GetTrueRand
        LOCFRAME ISTACK, 0, STACK
        LOCFRAME PSTACK, 0, STACK
        LOCFRAME XSTACK, 9, STACK
        LOCFRAME IOVERLAY, 0, STATIC
        LOCFRAME DOVERLAY, 0, STATIC
        ARGFRAME ISTACK, 0, STACK
        ARGFRAME PSTACK, 0, STACK
        ARGFRAME XSTACK, 9, STACK
        ARGFRAME IOVERLAY, 0, STATIC
        ARGFRAME DOVERLAY, 0, STATIC
        MOV     A,#-0x9
        LCALL   ?BANKED_ENTER_XDATA
          CFI DPH0 load(1, XDATA, add(CFA_XSP16, literal(-1)))
          CFI DPL0 load(1, XDATA, add(CFA_XSP16, literal(-2)))
          CFI ?BRET_EXT load(1, XDATA, add(CFA_XSP16, literal(-3)))
          CFI ?RET_HIGH load(1, XDATA, add(CFA_XSP16, literal(-4)))
          CFI ?RET_LOW load(1, XDATA, add(CFA_XSP16, literal(-5)))
          CFI R7 load(1, XDATA, add(CFA_XSP16, literal(-6)))
          CFI V0 load(1, XDATA, add(CFA_XSP16, literal(-7)))
          CFI VB load(1, XDATA, add(CFA_XSP16, literal(-8)))
          CFI R6 load(1, XDATA, add(CFA_XSP16, literal(-9)))
          CFI CFA_SP SP+0
          CFI CFA_XSP16 add(XSP16, 9)
        ; Saved register size: 9
        ; Auto size: 0
        MOV     A,#0xd
        LCALL   ?XSTACK_DISP0_8
        LCALL   ??Subroutine95_0 & 0xFFFF
??CrossCallReturnLabel_204:
        MOV     A,R0
        MOV     R2,A
        MOV     A,R1
        MOV     R3,A
        MOV     A,#0xf
        LCALL   ?XSTACK_DISP0_8
        LCALL   ??Subroutine95_0 & 0xFFFF
??CrossCallReturnLabel_205:
        MOV     A,R0
        MOV     R6,A
        MOV     A,R1
        MOV     R7,A
// 1181   // Intentionally unreferenced parameters
// 1182   (void)initNwkAddr;
// 1183   (void)initExtAddr;
// 1184   (void)partNwkAddr;
// 1185   (void)partExtAddr;
// 1186   
// 1187   //---------------------------------------------------------------------------
// 1188   // note:
// 1189   // should use a robust mechanism to generate keys, for example
// 1190   // combine EXT addresses and call a hash function
// 1191   //---------------------------------------------------------------------------
// 1192   SSP_GetTrueRand( SEC_KEY_LEN, *key );
        ; Setup parameters for call to function SSP_GetTrueRand
        MOV     DPL,R2
        MOV     DPH,R3
        LCALL   ??Subroutine85_0 & 0xFFFF
??CrossCallReturnLabel_126:
        MOV     R1,#0x10
        LCALL   ??SSP_GetTrueRand?relay
// 1193 
// 1194   *keyType = ZDSecMgrAppKeyType;
        MOV     DPTR,#ZDSecMgrAppKeyType
        MOVX    A,@DPTR
        MOV     DPL,R6
        MOV     DPH,R7
        MOVX    @DPTR,A
// 1195 
// 1196   return ZSuccess;
        MOV     R1,#0x0
        LJMP    ??Subroutine83_0 & 0xFFFF
          CFI EndBlock cfiBlock119
// 1197 }
// 1198 
// 1199 /******************************************************************************
// 1200  * @fn          ZDSecMgrAppKeyReq
// 1201  *
// 1202  * @brief       Process request for APP key between two devices.
// 1203  *
// 1204  * @param       device - [in] ZDO_RequestKeyInd_t, request info
// 1205  *
// 1206  * @return      none
// 1207  */

        RSEG BANKED_CODE:CODE:NOROOT(0)
// 1208 void ZDSecMgrAppKeyReq( ZDO_RequestKeyInd_t* ind )
ZDSecMgrAppKeyReq:
          CFI Block cfiBlock120 Using cfiCommon0
          CFI Function ZDSecMgrAppKeyReq
        CODE
// 1209 {
        FUNCALL ZDSecMgrAppKeyReq, APSME_LookupNwkAddr
        LOCFRAME ISTACK, 0, STACK
        LOCFRAME PSTACK, 0, STACK
        LOCFRAME XSTACK, 49, STACK
        LOCFRAME IOVERLAY, 0, STATIC
        LOCFRAME DOVERLAY, 0, STATIC
        ARGFRAME ISTACK, 0, STACK
        ARGFRAME PSTACK, 0, STACK
        ARGFRAME XSTACK, 49, STACK
        ARGFRAME IOVERLAY, 0, STATIC
        ARGFRAME DOVERLAY, 0, STATIC
        FUNCALL ZDSecMgrAppKeyReq, APSME_LookupExtAddr
        LOCFRAME ISTACK, 0, STACK
        LOCFRAME PSTACK, 0, STACK
        LOCFRAME XSTACK, 49, STACK
        LOCFRAME IOVERLAY, 0, STATIC
        LOCFRAME DOVERLAY, 0, STATIC
        ARGFRAME ISTACK, 0, STACK
        ARGFRAME PSTACK, 0, STACK
        ARGFRAME XSTACK, 49, STACK
        ARGFRAME IOVERLAY, 0, STATIC
        ARGFRAME DOVERLAY, 0, STATIC
        FUNCALL ZDSecMgrAppKeyReq, SSP_GetTrueRand
        LOCFRAME ISTACK, 0, STACK
        LOCFRAME PSTACK, 0, STACK
        LOCFRAME XSTACK, 49, STACK
        LOCFRAME IOVERLAY, 0, STATIC
        LOCFRAME DOVERLAY, 0, STATIC
        ARGFRAME ISTACK, 0, STACK
        ARGFRAME PSTACK, 0, STACK
        ARGFRAME XSTACK, 49, STACK
        ARGFRAME IOVERLAY, 0, STATIC
        ARGFRAME DOVERLAY, 0, STATIC
        FUNCALL ZDSecMgrAppKeyReq, APSME_TransportKeyReq
        LOCFRAME ISTACK, 0, STACK
        LOCFRAME PSTACK, 0, STACK
        LOCFRAME XSTACK, 49, STACK
        LOCFRAME IOVERLAY, 0, STATIC
        LOCFRAME DOVERLAY, 0, STATIC
        ARGFRAME ISTACK, 0, STACK
        ARGFRAME PSTACK, 0, STACK
        ARGFRAME XSTACK, 49, STACK
        ARGFRAME IOVERLAY, 0, STATIC
        ARGFRAME DOVERLAY, 0, STATIC
        FUNCALL ZDSecMgrAppKeyReq, APSME_TransportKeyReq
        LOCFRAME ISTACK, 0, STACK
        LOCFRAME PSTACK, 0, STACK
        LOCFRAME XSTACK, 49, STACK
        LOCFRAME IOVERLAY, 0, STATIC
        LOCFRAME DOVERLAY, 0, STATIC
        ARGFRAME ISTACK, 0, STACK
        ARGFRAME PSTACK, 0, STACK
        ARGFRAME XSTACK, 49, STACK
        ARGFRAME IOVERLAY, 0, STATIC
        ARGFRAME DOVERLAY, 0, STATIC
        MOV     A,#-0xa
        LCALL   ?BANKED_ENTER_XDATA
          CFI DPH0 load(1, XDATA, add(CFA_XSP16, literal(-1)))
          CFI DPL0 load(1, XDATA, add(CFA_XSP16, literal(-2)))
          CFI ?BRET_EXT load(1, XDATA, add(CFA_XSP16, literal(-3)))
          CFI ?RET_HIGH load(1, XDATA, add(CFA_XSP16, literal(-4)))
          CFI ?RET_LOW load(1, XDATA, add(CFA_XSP16, literal(-5)))
          CFI R7 load(1, XDATA, add(CFA_XSP16, literal(-6)))
          CFI V1 load(1, XDATA, add(CFA_XSP16, literal(-7)))
          CFI V0 load(1, XDATA, add(CFA_XSP16, literal(-8)))
          CFI VB load(1, XDATA, add(CFA_XSP16, literal(-9)))
          CFI R6 load(1, XDATA, add(CFA_XSP16, literal(-10)))
          CFI CFA_SP SP+0
          CFI CFA_XSP16 add(XSP16, 10)
        ; Saved register size: 10
        ; Auto size: 39
        MOV     A,#-0x27
        LCALL   ?ALLOC_XSTACK8
          CFI CFA_XSP16 add(XSP16, 49)
        MOV     ?V0 + 0,R2
        MOV     ?V0 + 1,R3
// 1210   APSME_TransportKeyReq_t req;
// 1211   uint8                   initExtAddr[Z_EXTADDR_LEN];
// 1212   uint16                  partNwkAddr;
// 1213   uint8                   key[SEC_KEY_LEN];
// 1214 
// 1215 
// 1216   // validate initiator and partner
// 1217   if ( ( APSME_LookupNwkAddr( ind->partExtAddr, &partNwkAddr ) == TRUE ) &&
// 1218        ( APSME_LookupExtAddr( ind->srcAddr, initExtAddr ) == TRUE      )   )
        MOV     A,R2
        ADD     A,#0x5
        LCALL   ?Subroutine54 & 0xFFFF
??CrossCallReturnLabel_68:
        LCALL   ??APSME_LookupNwkAddr?relay
        MOV     A,R1
        XRL     A,#0x1
        JZ      $+5
        LJMP    ??ZDSecMgrAppKeyReq_0 & 0xFFFF
        MOV     A,?V0 + 0
        ADD     A,#0x2
        MOV     R0,A
        MOV     A,?V0 + 1
        LCALL   ??Subroutine77_0 & 0xFFFF
??CrossCallReturnLabel_104:
        ; Setup parameters for call to function APSME_LookupExtAddr
        MOV     A,#0xf
        LCALL   ?XSTACK_DISP0_8
        MOV     R4,DPL
        MOV     R5,DPH
        MOV     DPL,R0
        MOV     DPH,R1
        LCALL   ??Subroutine85_0 & 0xFFFF
??CrossCallReturnLabel_127:
        LCALL   ??APSME_LookupExtAddr?relay
        MOV     A,R1
        XRL     A,#0x1
        JZ      $+5
        LJMP    ??ZDSecMgrAppKeyReq_0 & 0xFFFF
// 1219   {
// 1220     // point the key to some memory
// 1221     req.key = key;
        MOV     A,#0x17
        LCALL   ?XSTACK_DISP0_8
        MOV     R0,DPL
        MOV     R1,DPH
        MOV     A,#0x6
        LCALL   ?XSTACK_DISP0_8
        LCALL   ??Subroutine87_0 & 0xFFFF
// 1222 
// 1223     // get an APP key - option APP (MASTER or LINK) key
// 1224     if ( ZDSecMgrAppKeyGet( ind->srcAddr,
// 1225                             initExtAddr,
// 1226                             partNwkAddr,
// 1227                             ind->partExtAddr,
// 1228                             &req.key,
// 1229                             &req.keyType ) == ZSuccess )
??CrossCallReturnLabel_153:
        ; Setup parameters for call to function SSP_GetTrueRand
        MOV     A,#0x17
        LCALL   ?XSTACK_DISP0_8
        MOV     R2,DPL
        MOV     R3,DPH
        MOV     R1,#0x10
        LCALL   ??SSP_GetTrueRand?relay
        MOV     DPTR,#ZDSecMgrAppKeyType
        MOVX    A,@DPTR
        PUSH    A
          CFI CFA_SP SP+-1
        MOV     A,#0x4
        LCALL   ?XSTACK_DISP0_8
        POP     A
          CFI CFA_SP SP+0
        MOVX    @DPTR,A
// 1230     {
// 1231       // always secure
// 1232       req.nwkSecure = TRUE;
        MOV     A,#0xc
        LCALL   ?XSTACK_DISP0_8
        MOV     A,#0x1
        MOVX    @DPTR,A
// 1233       req.apsSecure = TRUE;
        MOV     A,#0xb
        LCALL   ?XSTACK_DISP0_8
        MOV     A,#0x1
        MOVX    @DPTR,A
// 1234       req.tunnel    = NULL;
        MOV     A,#0xd
        LCALL   ?XSTACK_DISP0_8
        CLR     A
        MOVX    @DPTR,A
        INC     DPTR
        LCALL   ?Subroutine21 & 0xFFFF
// 1235 
// 1236       // send key to initiator device
// 1237       req.dstAddr   = ind->srcAddr;
??CrossCallReturnLabel_6:
        MOV     R0,A
        INC     DPTR
        MOVX    A,@DPTR
        MOV     R1,A
        MOV     A,#0x2
        LCALL   ?XSTACK_DISP0_8
        LCALL   ??Subroutine87_0 & 0xFFFF
// 1238       req.extAddr   = ind->partExtAddr;
??CrossCallReturnLabel_154:
        MOV     A,#0x8
        LCALL   ?XSTACK_DISP0_8
        MOV     A,R6
        MOVX    @DPTR,A
        INC     DPTR
        MOV     A,R7
        MOVX    @DPTR,A
// 1239       req.initiator = TRUE;
        MOV     A,#0xa
        LCALL   ?XSTACK_DISP0_8
        MOV     A,#0x1
        MOVX    @DPTR,A
// 1240       APSME_TransportKeyReq( &req );
        ; Setup parameters for call to function APSME_TransportKeyReq
        INC     A
        LCALL   ?XSTACK_DISP0_8
        MOV     R2,DPL
        MOV     R3,DPH
        LCALL   ??APSME_TransportKeyReq?relay
// 1241 
// 1242       // send key to partner device
// 1243       req.dstAddr   = partNwkAddr;
        MOV     DPL,?XSP + 0
        MOV     DPH,?XSP + 1
        LCALL   ?Subroutine43 & 0xFFFF
??CrossCallReturnLabel_49:
        LCALL   ?XSTACK_DISP0_8
        LCALL   ??Subroutine87_0 & 0xFFFF
// 1244       req.extAddr   = initExtAddr;
??CrossCallReturnLabel_155:
        MOV     A,#0xf
        LCALL   ?XSTACK_DISP0_8
        MOV     R0,DPL
        MOV     R1,DPH
        MOV     A,#0x8
        LCALL   ?XSTACK_DISP0_8
        LCALL   ??Subroutine92_0 & 0xFFFF
// 1245       req.initiator = FALSE;
??CrossCallReturnLabel_193:
        LCALL   ?XSTACK_DISP0_8
        CLR     A
        MOVX    @DPTR,A
// 1246 
// 1247       APSME_TransportKeyReq( &req );
        ; Setup parameters for call to function APSME_TransportKeyReq
        MOV     A,#0x2
        LCALL   ?XSTACK_DISP0_8
        MOV     R2,DPL
        MOV     R3,DPH
        LCALL   ??APSME_TransportKeyReq?relay
// 1248     }
// 1249   }
// 1250 }
??ZDSecMgrAppKeyReq_0:
        MOV     A,#0x27
        LJMP    ??Subroutine93_0 & 0xFFFF
          CFI EndBlock cfiBlock120
// 1251 
// 1252 /******************************************************************************
// 1253  * @fn          ZDSecMgrEstablishKey
// 1254  *
// 1255  * @brief       Start SKKE with device joining network.
// 1256  *
// 1257  * @param       device - [in] ZDSecMgrDevice_t, device info
// 1258  *
// 1259  * @return      ZStatus_t
// 1260  */

        RSEG BANKED_CODE:CODE:NOROOT(0)
// 1261 ZStatus_t ZDSecMgrEstablishKey( ZDSecMgrDevice_t* device )
ZDSecMgrEstablishKey:
          CFI Block cfiBlock121 Using cfiCommon0
          CFI Function ZDSecMgrEstablishKey
        CODE
// 1262 {
        FUNCALL ZDSecMgrEstablishKey, NLME_GetShortAddr
        LOCFRAME ISTACK, 0, STACK
        LOCFRAME PSTACK, 0, STACK
        LOCFRAME XSTACK, 17, STACK
        LOCFRAME IOVERLAY, 0, STATIC
        LOCFRAME DOVERLAY, 0, STATIC
        ARGFRAME ISTACK, 0, STACK
        ARGFRAME PSTACK, 0, STACK
        ARGFRAME XSTACK, 17, STACK
        ARGFRAME IOVERLAY, 0, STATIC
        ARGFRAME DOVERLAY, 0, STATIC
        FUNCALL ZDSecMgrEstablishKey, APSME_EstablishKeyReq
        LOCFRAME ISTACK, 0, STACK
        LOCFRAME PSTACK, 0, STACK
        LOCFRAME XSTACK, 17, STACK
        LOCFRAME IOVERLAY, 0, STATIC
        LOCFRAME DOVERLAY, 0, STATIC
        ARGFRAME ISTACK, 0, STACK
        ARGFRAME PSTACK, 0, STACK
        ARGFRAME XSTACK, 17, STACK
        ARGFRAME IOVERLAY, 0, STATIC
        ARGFRAME DOVERLAY, 0, STATIC
        MOV     A,#-0xa
        LCALL   ?BANKED_ENTER_XDATA
          CFI DPH0 load(1, XDATA, add(CFA_XSP16, literal(-1)))
          CFI DPL0 load(1, XDATA, add(CFA_XSP16, literal(-2)))
          CFI ?BRET_EXT load(1, XDATA, add(CFA_XSP16, literal(-3)))
          CFI ?RET_HIGH load(1, XDATA, add(CFA_XSP16, literal(-4)))
          CFI ?RET_LOW load(1, XDATA, add(CFA_XSP16, literal(-5)))
          CFI R7 load(1, XDATA, add(CFA_XSP16, literal(-6)))
          CFI V1 load(1, XDATA, add(CFA_XSP16, literal(-7)))
          CFI V0 load(1, XDATA, add(CFA_XSP16, literal(-8)))
          CFI VB load(1, XDATA, add(CFA_XSP16, literal(-9)))
          CFI R6 load(1, XDATA, add(CFA_XSP16, literal(-10)))
          CFI CFA_SP SP+0
          CFI CFA_XSP16 add(XSP16, 10)
        ; Saved register size: 10
        ; Auto size: 7
        MOV     A,#-0x7
        LCALL   ?ALLOC_XSTACK8
          CFI CFA_XSP16 add(XSP16, 17)
        MOV     A,R2
        MOV     R6,A
        MOV     A,R3
        MOV     R7,A
// 1263   ZStatus_t               status;
// 1264   APSME_EstablishKeyReq_t req;
// 1265 
// 1266 
// 1267   req.respExtAddr = device->extAddr;
        MOV     DPL,R6
        MOV     DPH,R7
        INC     DPTR
        INC     DPTR
        LCALL   ?Subroutine43 & 0xFFFF
??CrossCallReturnLabel_50:
        LCALL   ?XSTACK_DISP0_8
        LCALL   ??Subroutine87_0 & 0xFFFF
// 1268   req.method      = APSME_SKKE_METHOD;
??CrossCallReturnLabel_156:
        MOV     A,#0x4
        LCALL   ?XSTACK_DISP0_8
        CLR     A
        MOVX    @DPTR,A
// 1269 
// 1270   if ( device->parentAddr == NLME_GetShortAddr() )
        ; Setup parameters for call to function NLME_GetShortAddr
        LCALL   ??NLME_GetShortAddr?relay
        LCALL   ?Subroutine44 & 0xFFFF
??CrossCallReturnLabel_99:
        JNZ     ??ZDSecMgrEstablishKey_0
        MOV     A,R3
        XRL     A,R1
??ZDSecMgrEstablishKey_0:
        JNZ     ??ZDSecMgrEstablishKey_1
// 1271   {
// 1272     req.dstAddr   = device->nwkAddr;
        LCALL   ?Subroutine46 & 0xFFFF
??CrossCallReturnLabel_211:
        LCALL   ?Subroutine33 & 0xFFFF
// 1273     //devtag.0604.todo - remove obsolete
// 1274     req.apsSecure = FALSE;
??CrossCallReturnLabel_101:
        LCALL   ?XSTACK_DISP0_8
        CLR     A
        MOVX    @DPTR,A
// 1275     req.nwkSecure = FALSE;
        MOV     A,#0x6
        LCALL   ?XSTACK_DISP0_8
        CLR     A
        SJMP    ??ZDSecMgrEstablishKey_2
// 1276   }
// 1277   else
// 1278   {
// 1279     req.dstAddr   = device->parentAddr;
??ZDSecMgrEstablishKey_1:
        LCALL   ?Subroutine33 & 0xFFFF
// 1280     //devtag.0604.todo - remove obsolete
// 1281     req.apsSecure = TRUE;
??CrossCallReturnLabel_102:
        LCALL   ?XSTACK_DISP0_8
        MOV     A,#0x1
        MOVX    @DPTR,A
// 1282     req.nwkSecure = TRUE;
        MOV     A,#0x6
        LCALL   ?XSTACK_DISP0_8
        MOV     A,#0x1
// 1283   }
??ZDSecMgrEstablishKey_2:
        LCALL   ??Subroutine90_0 & 0xFFFF
// 1284 
// 1285   status = APSME_EstablishKeyReq( &req );
// 1286 
// 1287   return status;
??CrossCallReturnLabel_177:
        LCALL   ??APSME_EstablishKeyReq?relay
        MOV     A,#0x7
        LJMP    ??Subroutine93_0 & 0xFFFF
          CFI EndBlock cfiBlock121
// 1288 }

        RSEG BANKED_CODE:CODE:NOROOT(0)
?Subroutine44:
          CFI Block cfiCond122 Using cfiCommon0
          CFI Function ZDSecMgrEstablishKey
          CFI Conditional ??CrossCallReturnLabel_99
          CFI R6 load(1, XDATA, add(CFA_XSP16, literal(-10)))
          CFI VB load(1, XDATA, add(CFA_XSP16, literal(-9)))
          CFI V0 load(1, XDATA, add(CFA_XSP16, literal(-8)))
          CFI V1 load(1, XDATA, add(CFA_XSP16, literal(-7)))
          CFI R7 load(1, XDATA, add(CFA_XSP16, literal(-6)))
          CFI ?RET_LOW load(1, XDATA, add(CFA_XSP16, literal(-5)))
          CFI ?RET_HIGH load(1, XDATA, add(CFA_XSP16, literal(-4)))
          CFI ?BRET_EXT load(1, XDATA, add(CFA_XSP16, literal(-3)))
          CFI DPL0 load(1, XDATA, add(CFA_XSP16, literal(-2)))
          CFI DPH0 load(1, XDATA, add(CFA_XSP16, literal(-1)))
          CFI CFA_SP SP+0
          CFI CFA_XSP16 add(XSP16, 17)
          CFI Block cfiCond123 Using cfiCommon0
          CFI (cfiCond123) Function ZDSecMgrSendMasterKey
          CFI (cfiCond123) Conditional ??CrossCallReturnLabel_100
          CFI (cfiCond123) R6 load(1, XDATA, add(CFA_XSP16, literal(-10)))
          CFI (cfiCond123) VB load(1, XDATA, add(CFA_XSP16, literal(-9)))
          CFI (cfiCond123) V0 load(1, XDATA, add(CFA_XSP16, literal(-8)))
          CFI (cfiCond123) V1 load(1, XDATA, add(CFA_XSP16, literal(-7)))
          CFI (cfiCond123) R7 load(1, XDATA, add(CFA_XSP16, literal(-6)))
          CFI (cfiCond123) ?RET_LOW load(1, XDATA, add(CFA_XSP16, literal(-5)))
          CFI (cfiCond123) ?RET_HIGH load(1, XDATA, add(CFA_XSP16, literal(-4)))
          CFI (cfiCond123) ?BRET_EXT load(1, XDATA, add(CFA_XSP16, literal(-3)))
          CFI (cfiCond123) DPL0 load(1, XDATA, add(CFA_XSP16, literal(-2)))
          CFI (cfiCond123) DPH0 load(1, XDATA, add(CFA_XSP16, literal(-1)))
          CFI (cfiCond123) CFA_SP SP+0
          CFI (cfiCond123) CFA_XSP16 add(XSP16, 23)
          CFI Block cfiPicker124 Using cfiCommon1
          CFI (cfiPicker124) NoFunction
          CFI (cfiPicker124) Picker
        MOV     DPL,R6
        MOV     DPH,R7
        INC     DPTR
        INC     DPTR
        INC     DPTR
        INC     DPTR
          CFI EndBlock cfiCond122
          CFI EndBlock cfiCond123
          CFI EndBlock cfiPicker124
        REQUIRE ??Subroutine75_0
        ; // Fall through to label ??Subroutine75_0

        RSEG BANKED_CODE:CODE:NOROOT(0)
??Subroutine75_0:
          CFI Block cfiCond125 Using cfiCommon0
          CFI Function ZDSecMgrSendNwkKey
          CFI Conditional ??CrossCallReturnLabel_98
          CFI R6 load(1, XDATA, add(CFA_XSP16, literal(-12)))
          CFI VB load(1, XDATA, add(CFA_XSP16, literal(-11)))
          CFI V0 load(1, XDATA, add(CFA_XSP16, literal(-10)))
          CFI V1 load(1, XDATA, add(CFA_XSP16, literal(-9)))
          CFI V2 load(1, XDATA, add(CFA_XSP16, literal(-8)))
          CFI V3 load(1, XDATA, add(CFA_XSP16, literal(-7)))
          CFI R7 load(1, XDATA, add(CFA_XSP16, literal(-6)))
          CFI ?RET_LOW load(1, XDATA, add(CFA_XSP16, literal(-5)))
          CFI ?RET_HIGH load(1, XDATA, add(CFA_XSP16, literal(-4)))
          CFI ?BRET_EXT load(1, XDATA, add(CFA_XSP16, literal(-3)))
          CFI DPL0 load(1, XDATA, add(CFA_XSP16, literal(-2)))
          CFI DPH0 load(1, XDATA, add(CFA_XSP16, literal(-1)))
          CFI CFA_SP SP+0
          CFI CFA_XSP16 add(XSP16, 25)
          CFI Block cfiCond126 Using cfiCommon0
          CFI (cfiCond126) Function ZDSecMgrEstablishKey
          CFI (cfiCond126) Conditional ??CrossCallReturnLabel_99
          CFI (cfiCond126) R6 load(1, XDATA, add(CFA_XSP16, literal(-10)))
          CFI (cfiCond126) VB load(1, XDATA, add(CFA_XSP16, literal(-9)))
          CFI (cfiCond126) V0 load(1, XDATA, add(CFA_XSP16, literal(-8)))
          CFI (cfiCond126) V1 load(1, XDATA, add(CFA_XSP16, literal(-7)))
          CFI (cfiCond126) R7 load(1, XDATA, add(CFA_XSP16, literal(-6)))
          CFI (cfiCond126) ?RET_LOW load(1, XDATA, add(CFA_XSP16, literal(-5)))
          CFI (cfiCond126) ?RET_HIGH load(1, XDATA, add(CFA_XSP16, literal(-4)))
          CFI (cfiCond126) ?BRET_EXT load(1, XDATA, add(CFA_XSP16, literal(-3)))
          CFI (cfiCond126) DPL0 load(1, XDATA, add(CFA_XSP16, literal(-2)))
          CFI (cfiCond126) DPH0 load(1, XDATA, add(CFA_XSP16, literal(-1)))
          CFI (cfiCond126) CFA_SP SP+0
          CFI (cfiCond126) CFA_XSP16 add(XSP16, 17)
          CFI Block cfiCond127 Using cfiCommon0
          CFI (cfiCond127) Function ZDSecMgrSendMasterKey
          CFI (cfiCond127) Conditional ??CrossCallReturnLabel_100
          CFI (cfiCond127) R6 load(1, XDATA, add(CFA_XSP16, literal(-10)))
          CFI (cfiCond127) VB load(1, XDATA, add(CFA_XSP16, literal(-9)))
          CFI (cfiCond127) V0 load(1, XDATA, add(CFA_XSP16, literal(-8)))
          CFI (cfiCond127) V1 load(1, XDATA, add(CFA_XSP16, literal(-7)))
          CFI (cfiCond127) R7 load(1, XDATA, add(CFA_XSP16, literal(-6)))
          CFI (cfiCond127) ?RET_LOW load(1, XDATA, add(CFA_XSP16, literal(-5)))
          CFI (cfiCond127) ?RET_HIGH load(1, XDATA, add(CFA_XSP16, literal(-4)))
          CFI (cfiCond127) ?BRET_EXT load(1, XDATA, add(CFA_XSP16, literal(-3)))
          CFI (cfiCond127) DPL0 load(1, XDATA, add(CFA_XSP16, literal(-2)))
          CFI (cfiCond127) DPH0 load(1, XDATA, add(CFA_XSP16, literal(-1)))
          CFI (cfiCond127) CFA_SP SP+0
          CFI (cfiCond127) CFA_XSP16 add(XSP16, 23)
          CFI Block cfiPicker128 Using cfiCommon1
          CFI (cfiPicker128) NoFunction
          CFI (cfiPicker128) Picker
        LCALL   ??Subroutine96_0 & 0xFFFF
??CrossCallReturnLabel_220:
        MOV     A,R2
        XRL     A,R0
        RET
          CFI EndBlock cfiCond125
          CFI EndBlock cfiCond126
          CFI EndBlock cfiCond127
          CFI EndBlock cfiPicker128

        RSEG BANKED_CODE:CODE:NOROOT(0)
?Subroutine43:
          CFI Block cfiCond129 Using cfiCommon0
          CFI Function ZDSecMgrAppKeyReq
          CFI Conditional ??CrossCallReturnLabel_49
          CFI R6 load(1, XDATA, add(CFA_XSP16, literal(-10)))
          CFI VB load(1, XDATA, add(CFA_XSP16, literal(-9)))
          CFI V0 load(1, XDATA, add(CFA_XSP16, literal(-8)))
          CFI V1 load(1, XDATA, add(CFA_XSP16, literal(-7)))
          CFI R7 load(1, XDATA, add(CFA_XSP16, literal(-6)))
          CFI ?RET_LOW load(1, XDATA, add(CFA_XSP16, literal(-5)))
          CFI ?RET_HIGH load(1, XDATA, add(CFA_XSP16, literal(-4)))
          CFI ?BRET_EXT load(1, XDATA, add(CFA_XSP16, literal(-3)))
          CFI DPL0 load(1, XDATA, add(CFA_XSP16, literal(-2)))
          CFI DPH0 load(1, XDATA, add(CFA_XSP16, literal(-1)))
          CFI CFA_SP SP+0
          CFI CFA_XSP16 add(XSP16, 49)
          CFI Block cfiCond130 Using cfiCommon0
          CFI (cfiCond130) Function ZDSecMgrEstablishKey
          CFI (cfiCond130) Conditional ??CrossCallReturnLabel_50
          CFI (cfiCond130) R6 load(1, XDATA, add(CFA_XSP16, literal(-10)))
          CFI (cfiCond130) VB load(1, XDATA, add(CFA_XSP16, literal(-9)))
          CFI (cfiCond130) V0 load(1, XDATA, add(CFA_XSP16, literal(-8)))
          CFI (cfiCond130) V1 load(1, XDATA, add(CFA_XSP16, literal(-7)))
          CFI (cfiCond130) R7 load(1, XDATA, add(CFA_XSP16, literal(-6)))
          CFI (cfiCond130) ?RET_LOW load(1, XDATA, add(CFA_XSP16, literal(-5)))
          CFI (cfiCond130) ?RET_HIGH load(1, XDATA, add(CFA_XSP16, literal(-4)))
          CFI (cfiCond130) ?BRET_EXT load(1, XDATA, add(CFA_XSP16, literal(-3)))
          CFI (cfiCond130) DPL0 load(1, XDATA, add(CFA_XSP16, literal(-2)))
          CFI (cfiCond130) DPH0 load(1, XDATA, add(CFA_XSP16, literal(-1)))
          CFI (cfiCond130) CFA_SP SP+0
          CFI (cfiCond130) CFA_XSP16 add(XSP16, 17)
          CFI Block cfiCond131 Using cfiCommon0
          CFI (cfiCond131) Function ZDSecMgrDeviceJoinFwd
          CFI (cfiCond131) Conditional ??CrossCallReturnLabel_51
          CFI (cfiCond131) DPL0 Frame(CFA_SP, 4)
          CFI (cfiCond131) DPH0 Frame(CFA_SP, 5)
          CFI (cfiCond131) CFA_SP SP+-5
          CFI (cfiCond131) CFA_XSP16 add(XSP16, 8)
          CFI Block cfiPicker132 Using cfiCommon1
          CFI (cfiPicker132) NoFunction
          CFI (cfiPicker132) Picker
        LCALL   ??Subroutine96_0 & 0xFFFF
??CrossCallReturnLabel_216:
        MOV     A,#0x2
        RET
          CFI EndBlock cfiCond129
          CFI EndBlock cfiCond130
          CFI EndBlock cfiCond131
          CFI EndBlock cfiPicker132

        RSEG BANKED_CODE:CODE:NOROOT(0)
?Subroutine33:
          CFI Block cfiCond133 Using cfiCommon0
          CFI Function ZDSecMgrEstablishKey
          CFI Conditional ??CrossCallReturnLabel_101
          CFI R6 load(1, XDATA, add(CFA_XSP16, literal(-10)))
          CFI VB load(1, XDATA, add(CFA_XSP16, literal(-9)))
          CFI V0 load(1, XDATA, add(CFA_XSP16, literal(-8)))
          CFI V1 load(1, XDATA, add(CFA_XSP16, literal(-7)))
          CFI R7 load(1, XDATA, add(CFA_XSP16, literal(-6)))
          CFI ?RET_LOW load(1, XDATA, add(CFA_XSP16, literal(-5)))
          CFI ?RET_HIGH load(1, XDATA, add(CFA_XSP16, literal(-4)))
          CFI ?BRET_EXT load(1, XDATA, add(CFA_XSP16, literal(-3)))
          CFI DPL0 load(1, XDATA, add(CFA_XSP16, literal(-2)))
          CFI DPH0 load(1, XDATA, add(CFA_XSP16, literal(-1)))
          CFI CFA_SP SP+0
          CFI CFA_XSP16 add(XSP16, 17)
          CFI Block cfiCond134 Using cfiCommon0
          CFI (cfiCond134) Function ZDSecMgrEstablishKey
          CFI (cfiCond134) Conditional ??CrossCallReturnLabel_102
          CFI (cfiCond134) R6 load(1, XDATA, add(CFA_XSP16, literal(-10)))
          CFI (cfiCond134) VB load(1, XDATA, add(CFA_XSP16, literal(-9)))
          CFI (cfiCond134) V0 load(1, XDATA, add(CFA_XSP16, literal(-8)))
          CFI (cfiCond134) V1 load(1, XDATA, add(CFA_XSP16, literal(-7)))
          CFI (cfiCond134) R7 load(1, XDATA, add(CFA_XSP16, literal(-6)))
          CFI (cfiCond134) ?RET_LOW load(1, XDATA, add(CFA_XSP16, literal(-5)))
          CFI (cfiCond134) ?RET_HIGH load(1, XDATA, add(CFA_XSP16, literal(-4)))
          CFI (cfiCond134) ?BRET_EXT load(1, XDATA, add(CFA_XSP16, literal(-3)))
          CFI (cfiCond134) DPL0 load(1, XDATA, add(CFA_XSP16, literal(-2)))
          CFI (cfiCond134) DPH0 load(1, XDATA, add(CFA_XSP16, literal(-1)))
          CFI (cfiCond134) CFA_SP SP+0
          CFI (cfiCond134) CFA_XSP16 add(XSP16, 17)
          CFI Block cfiPicker135 Using cfiCommon1
          CFI (cfiPicker135) NoFunction
          CFI (cfiPicker135) Picker
        MOV     DPL,?XSP + 0
        MOV     DPH,?XSP + 1
          CFI EndBlock cfiCond133
          CFI EndBlock cfiCond134
          CFI EndBlock cfiPicker135
        REQUIRE ??Subroutine76_0
        ; // Fall through to label ??Subroutine76_0

        RSEG BANKED_CODE:CODE:NOROOT(0)
??Subroutine76_0:
          CFI Block cfiCond136 Using cfiCommon0
          CFI Function ZDSecMgrDeviceRemove
          CFI Conditional ??CrossCallReturnLabel_103
          CFI R6 load(1, XDATA, add(CFA_XSP16, literal(-10)))
          CFI VB load(1, XDATA, add(CFA_XSP16, literal(-9)))
          CFI V0 load(1, XDATA, add(CFA_XSP16, literal(-8)))
          CFI V1 load(1, XDATA, add(CFA_XSP16, literal(-7)))
          CFI R7 load(1, XDATA, add(CFA_XSP16, literal(-6)))
          CFI ?RET_LOW load(1, XDATA, add(CFA_XSP16, literal(-5)))
          CFI ?RET_HIGH load(1, XDATA, add(CFA_XSP16, literal(-4)))
          CFI ?BRET_EXT load(1, XDATA, add(CFA_XSP16, literal(-3)))
          CFI DPL0 load(1, XDATA, add(CFA_XSP16, literal(-2)))
          CFI DPH0 load(1, XDATA, add(CFA_XSP16, literal(-1)))
          CFI CFA_SP SP+0
          CFI CFA_XSP16 add(XSP16, 19)
          CFI Block cfiCond137 Using cfiCommon0
          CFI (cfiCond137) Function ZDSecMgrEstablishKey
          CFI (cfiCond137) Conditional ??CrossCallReturnLabel_101
          CFI (cfiCond137) R6 load(1, XDATA, add(CFA_XSP16, literal(-10)))
          CFI (cfiCond137) VB load(1, XDATA, add(CFA_XSP16, literal(-9)))
          CFI (cfiCond137) V0 load(1, XDATA, add(CFA_XSP16, literal(-8)))
          CFI (cfiCond137) V1 load(1, XDATA, add(CFA_XSP16, literal(-7)))
          CFI (cfiCond137) R7 load(1, XDATA, add(CFA_XSP16, literal(-6)))
          CFI (cfiCond137) ?RET_LOW load(1, XDATA, add(CFA_XSP16, literal(-5)))
          CFI (cfiCond137) ?RET_HIGH load(1, XDATA, add(CFA_XSP16, literal(-4)))
          CFI (cfiCond137) ?BRET_EXT load(1, XDATA, add(CFA_XSP16, literal(-3)))
          CFI (cfiCond137) DPL0 load(1, XDATA, add(CFA_XSP16, literal(-2)))
          CFI (cfiCond137) DPH0 load(1, XDATA, add(CFA_XSP16, literal(-1)))
          CFI (cfiCond137) CFA_SP SP+0
          CFI (cfiCond137) CFA_XSP16 add(XSP16, 17)
          CFI Block cfiCond138 Using cfiCommon0
          CFI (cfiCond138) Function ZDSecMgrEstablishKey
          CFI (cfiCond138) Conditional ??CrossCallReturnLabel_102
          CFI (cfiCond138) R6 load(1, XDATA, add(CFA_XSP16, literal(-10)))
          CFI (cfiCond138) VB load(1, XDATA, add(CFA_XSP16, literal(-9)))
          CFI (cfiCond138) V0 load(1, XDATA, add(CFA_XSP16, literal(-8)))
          CFI (cfiCond138) V1 load(1, XDATA, add(CFA_XSP16, literal(-7)))
          CFI (cfiCond138) R7 load(1, XDATA, add(CFA_XSP16, literal(-6)))
          CFI (cfiCond138) ?RET_LOW load(1, XDATA, add(CFA_XSP16, literal(-5)))
          CFI (cfiCond138) ?RET_HIGH load(1, XDATA, add(CFA_XSP16, literal(-4)))
          CFI (cfiCond138) ?BRET_EXT load(1, XDATA, add(CFA_XSP16, literal(-3)))
          CFI (cfiCond138) DPL0 load(1, XDATA, add(CFA_XSP16, literal(-2)))
          CFI (cfiCond138) DPH0 load(1, XDATA, add(CFA_XSP16, literal(-1)))
          CFI (cfiCond138) CFA_SP SP+0
          CFI (cfiCond138) CFA_XSP16 add(XSP16, 17)
          CFI Block cfiPicker139 Using cfiCommon1
          CFI (cfiPicker139) NoFunction
          CFI (cfiPicker139) Picker
        LCALL   ?Subroutine71 & 0xFFFF
??CrossCallReturnLabel_200:
        ; Setup parameters for call to function APSME_RemoveDeviceReq
        MOV     A,#0x5
        RET
          CFI EndBlock cfiCond136
          CFI EndBlock cfiCond137
          CFI EndBlock cfiCond138
          CFI EndBlock cfiPicker139
// 1289 
// 1290 /******************************************************************************
// 1291  * @fn          ZDSecMgrSendMasterKey
// 1292  *
// 1293  * @brief       Send MASTER key to device joining network.
// 1294  *
// 1295  * @param       device - [in] ZDSecMgrDevice_t, device info
// 1296  *
// 1297  * @return      ZStatus_t
// 1298  */

        RSEG BANKED_CODE:CODE:NOROOT(0)
// 1299 ZStatus_t ZDSecMgrSendMasterKey( ZDSecMgrDevice_t* device )
ZDSecMgrSendMasterKey:
          CFI Block cfiBlock140 Using cfiCommon0
          CFI Function ZDSecMgrSendMasterKey
        CODE
// 1300 {
        FUNCALL ZDSecMgrSendMasterKey, ZDSecMgrMasterKeyLookup
        LOCFRAME ISTACK, 0, STACK
        LOCFRAME PSTACK, 0, STACK
        LOCFRAME XSTACK, 23, STACK
        LOCFRAME IOVERLAY, 0, STATIC
        LOCFRAME DOVERLAY, 0, STATIC
        ARGFRAME ISTACK, 0, STACK
        ARGFRAME PSTACK, 0, STACK
        ARGFRAME XSTACK, 23, STACK
        ARGFRAME IOVERLAY, 0, STATIC
        ARGFRAME DOVERLAY, 0, STATIC
        FUNCALL ZDSecMgrSendMasterKey, NLME_GetShortAddr
        LOCFRAME ISTACK, 0, STACK
        LOCFRAME PSTACK, 0, STACK
        LOCFRAME XSTACK, 23, STACK
        LOCFRAME IOVERLAY, 0, STATIC
        LOCFRAME DOVERLAY, 0, STATIC
        ARGFRAME ISTACK, 0, STACK
        ARGFRAME PSTACK, 0, STACK
        ARGFRAME XSTACK, 23, STACK
        ARGFRAME IOVERLAY, 0, STATIC
        ARGFRAME DOVERLAY, 0, STATIC
        FUNCALL ZDSecMgrSendMasterKey, APSME_TransportKeyReq
        LOCFRAME ISTACK, 0, STACK
        LOCFRAME PSTACK, 0, STACK
        LOCFRAME XSTACK, 23, STACK
        LOCFRAME IOVERLAY, 0, STATIC
        LOCFRAME DOVERLAY, 0, STATIC
        ARGFRAME ISTACK, 0, STACK
        ARGFRAME PSTACK, 0, STACK
        ARGFRAME XSTACK, 23, STACK
        ARGFRAME IOVERLAY, 0, STATIC
        ARGFRAME DOVERLAY, 0, STATIC
        MOV     A,#-0xa
        LCALL   ?BANKED_ENTER_XDATA
          CFI DPH0 load(1, XDATA, add(CFA_XSP16, literal(-1)))
          CFI DPL0 load(1, XDATA, add(CFA_XSP16, literal(-2)))
          CFI ?BRET_EXT load(1, XDATA, add(CFA_XSP16, literal(-3)))
          CFI ?RET_HIGH load(1, XDATA, add(CFA_XSP16, literal(-4)))
          CFI ?RET_LOW load(1, XDATA, add(CFA_XSP16, literal(-5)))
          CFI R7 load(1, XDATA, add(CFA_XSP16, literal(-6)))
          CFI V1 load(1, XDATA, add(CFA_XSP16, literal(-7)))
          CFI V0 load(1, XDATA, add(CFA_XSP16, literal(-8)))
          CFI VB load(1, XDATA, add(CFA_XSP16, literal(-9)))
          CFI R6 load(1, XDATA, add(CFA_XSP16, literal(-10)))
          CFI CFA_SP SP+0
          CFI CFA_XSP16 add(XSP16, 10)
        ; Saved register size: 10
        ; Auto size: 13
        MOV     A,#-0xd
        LCALL   ?ALLOC_XSTACK8
          CFI CFA_XSP16 add(XSP16, 23)
        MOV     A,R2
        MOV     R6,A
        MOV     A,R3
        MOV     R7,A
// 1301   ZStatus_t               status;
// 1302   APSME_TransportKeyReq_t req;
// 1303 
// 1304 
// 1305   req.keyType = KEY_TYPE_TC_MASTER;
        MOV     A,#0x2
        LCALL   ?XSTACK_DISP0_8
        CLR     A
        LCALL   ?Subroutine20 & 0xFFFF
// 1306   req.extAddr = device->extAddr;
??CrossCallReturnLabel_4:
        LCALL   ?XSTACK_DISP0_8
        LCALL   ??Subroutine87_0 & 0xFFFF
// 1307   req.tunnel  = NULL;
??CrossCallReturnLabel_157:
        MOV     A,#0xb
        LCALL   ?XSTACK_DISP0_8
        CLR     A
        MOVX    @DPTR,A
        INC     DPTR
        MOVX    @DPTR,A
// 1308 
// 1309   ZDSecMgrMasterKeyLookup( device->ctrl->entry->ami, &req.key );
        ; Setup parameters for call to function ZDSecMgrMasterKeyLookup
        MOV     A,#0x4
        LCALL   ?XSTACK_DISP0_8
        MOV     R4,DPL
        MOV     R5,DPH
        MOV     DPL,R6
        MOV     DPH,R7
        INC     DPTR
        INC     DPTR
        INC     DPTR
        INC     DPTR
        INC     DPTR
        INC     DPTR
        INC     DPTR
        INC     DPTR
        LCALL   ?Subroutine48 & 0xFFFF
??CrossCallReturnLabel_108:
        LCALL   ?Subroutine48 & 0xFFFF
??CrossCallReturnLabel_109:
        LCALL   ??Subroutine85_0 & 0xFFFF
??CrossCallReturnLabel_128:
        LCALL   ??ZDSecMgrMasterKeyLookup?relay
// 1310 
// 1311   //check if using secure hop to to parent
// 1312   if ( device->parentAddr != NLME_GetShortAddr() )
        ; Setup parameters for call to function NLME_GetShortAddr
        LCALL   ??NLME_GetShortAddr?relay
        LCALL   ?Subroutine44 & 0xFFFF
??CrossCallReturnLabel_100:
        JNZ     ??ZDSecMgrSendMasterKey_0
        MOV     A,R3
        XRL     A,R1
??ZDSecMgrSendMasterKey_0:
        JZ      ??ZDSecMgrSendMasterKey_1
// 1313   {
// 1314     //send to parent with security
// 1315     req.dstAddr   = device->parentAddr;
        LCALL   ?Subroutine17 & 0xFFFF
// 1316     req.nwkSecure = TRUE;
??CrossCallReturnLabel_191:
        LCALL   ?XSTACK_DISP0_8
        MOV     A,#0x1
        MOVX    @DPTR,A
// 1317     req.apsSecure = TRUE;
        MOV     A,#0x9
        LCALL   ?XSTACK_DISP0_8
        MOV     A,#0x1
        SJMP    ??ZDSecMgrSendMasterKey_2
// 1318   }
// 1319   else
// 1320   {
// 1321     //direct with no security
// 1322     req.dstAddr   = device->nwkAddr;
??ZDSecMgrSendMasterKey_1:
        LCALL   ?Subroutine46 & 0xFFFF
??CrossCallReturnLabel_212:
        LCALL   ?Subroutine17 & 0xFFFF
// 1323     req.nwkSecure = FALSE;
??CrossCallReturnLabel_192:
        LCALL   ?XSTACK_DISP0_8
        CLR     A
        MOVX    @DPTR,A
// 1324     req.apsSecure = FALSE;
        MOV     A,#0x9
        LCALL   ?XSTACK_DISP0_8
        CLR     A
// 1325   }
??ZDSecMgrSendMasterKey_2:
        LCALL   ??Subroutine90_0 & 0xFFFF
// 1326 
// 1327   status = APSME_TransportKeyReq( &req );
// 1328 
// 1329   return status;
??CrossCallReturnLabel_178:
        LCALL   ??APSME_TransportKeyReq?relay
        LJMP    ?Subroutine2 & 0xFFFF
          CFI EndBlock cfiBlock140
// 1330 }
// 1331 
// 1332 /******************************************************************************
// 1333  * @fn          ZDSecMgrSendNwkKey
// 1334  *
// 1335  * @brief       Send NWK key to device joining network.
// 1336  *
// 1337  * @param       device - [in] ZDSecMgrDevice_t, device info
// 1338  *
// 1339  * @return      ZStatus_t
// 1340  */

        RSEG BANKED_CODE:CODE:NOROOT(0)
// 1341 ZStatus_t ZDSecMgrSendNwkKey( ZDSecMgrDevice_t* device )
ZDSecMgrSendNwkKey:
          CFI Block cfiBlock141 Using cfiCommon0
          CFI Function ZDSecMgrSendNwkKey
        CODE
// 1342 {
        FUNCALL ZDSecMgrSendNwkKey, NLME_GetShortAddr
        LOCFRAME ISTACK, 0, STACK
        LOCFRAME PSTACK, 0, STACK
        LOCFRAME XSTACK, 25, STACK
        LOCFRAME IOVERLAY, 0, STATIC
        LOCFRAME DOVERLAY, 0, STATIC
        ARGFRAME ISTACK, 0, STACK
        ARGFRAME PSTACK, 0, STACK
        ARGFRAME XSTACK, 25, STACK
        ARGFRAME IOVERLAY, 0, STATIC
        ARGFRAME DOVERLAY, 0, STATIC
        FUNCALL ZDSecMgrSendNwkKey, NLME_GetShortAddr
        LOCFRAME ISTACK, 0, STACK
        LOCFRAME PSTACK, 0, STACK
        LOCFRAME XSTACK, 25, STACK
        LOCFRAME IOVERLAY, 0, STATIC
        LOCFRAME DOVERLAY, 0, STATIC
        ARGFRAME ISTACK, 0, STACK
        ARGFRAME PSTACK, 0, STACK
        ARGFRAME XSTACK, 25, STACK
        ARGFRAME IOVERLAY, 0, STATIC
        ARGFRAME DOVERLAY, 0, STATIC
        FUNCALL ZDSecMgrSendNwkKey, APSME_TransportKeyReq
        LOCFRAME ISTACK, 0, STACK
        LOCFRAME PSTACK, 0, STACK
        LOCFRAME XSTACK, 25, STACK
        LOCFRAME IOVERLAY, 0, STATIC
        LOCFRAME DOVERLAY, 0, STATIC
        ARGFRAME ISTACK, 0, STACK
        ARGFRAME PSTACK, 0, STACK
        ARGFRAME XSTACK, 25, STACK
        ARGFRAME IOVERLAY, 0, STATIC
        ARGFRAME DOVERLAY, 0, STATIC
        MOV     A,#-0xc
        LCALL   ?BANKED_ENTER_XDATA
          CFI DPH0 load(1, XDATA, add(CFA_XSP16, literal(-1)))
          CFI DPL0 load(1, XDATA, add(CFA_XSP16, literal(-2)))
          CFI ?BRET_EXT load(1, XDATA, add(CFA_XSP16, literal(-3)))
          CFI ?RET_HIGH load(1, XDATA, add(CFA_XSP16, literal(-4)))
          CFI ?RET_LOW load(1, XDATA, add(CFA_XSP16, literal(-5)))
          CFI R7 load(1, XDATA, add(CFA_XSP16, literal(-6)))
          CFI V3 load(1, XDATA, add(CFA_XSP16, literal(-7)))
          CFI V2 load(1, XDATA, add(CFA_XSP16, literal(-8)))
          CFI V1 load(1, XDATA, add(CFA_XSP16, literal(-9)))
          CFI V0 load(1, XDATA, add(CFA_XSP16, literal(-10)))
          CFI VB load(1, XDATA, add(CFA_XSP16, literal(-11)))
          CFI R6 load(1, XDATA, add(CFA_XSP16, literal(-12)))
          CFI CFA_SP SP+0
          CFI CFA_XSP16 add(XSP16, 12)
        ; Saved register size: 12
        ; Auto size: 13
        MOV     A,#-0xd
        LCALL   ?ALLOC_XSTACK8
          CFI CFA_XSP16 add(XSP16, 25)
        MOV     A,R2
        MOV     R6,A
        MOV     A,R3
        MOV     R7,A
// 1343   ZStatus_t               status;
// 1344   APSME_TransportKeyReq_t req;
// 1345   APSDE_FrameTunnel_t     tunnel;
// 1346 
// 1347   req.dstAddr   = device->nwkAddr;
        MOV     DPL,R6
        MOV     DPH,R7
        LCALL   ?Subroutine45 & 0xFFFF
??CrossCallReturnLabel_52:
        MOV     A,R0
        MOVX    @DPTR,A
        INC     DPTR
        MOV     A,R1
        LCALL   ?Subroutine20 & 0xFFFF
// 1348   req.extAddr   = device->extAddr;
??CrossCallReturnLabel_5:
        LCALL   ?XSTACK_DISP0_8
        LCALL   ??Subroutine87_0 & 0xFFFF
// 1349 
// 1350   if ( ZG_CHECK_SECURITY_MODE == ZG_SECURITY_PRO_HIGH )
// 1351     req.keyType   = KEY_TYPE_NWK_HIGH;
// 1352   else
// 1353     req.keyType   = KEY_TYPE_NWK;
??CrossCallReturnLabel_158:
        MOV     A,#0x2
        LCALL   ?XSTACK_DISP0_8
        MOV     A,#0x1
        MOVX    @DPTR,A
// 1354 
// 1355   if ( (ZG_CHECK_SECURITY_MODE == ZG_SECURITY_PRO_HIGH)
// 1356       || (ZG_CHECK_SECURITY_MODE == ZG_SECURITY_SE_STANDARD) )
// 1357   {
// 1358     // set values
// 1359     req.keySeqNum = _NIB.nwkActiveKey.keySeqNum;
// 1360     req.key       = _NIB.nwkActiveKey.key;
// 1361     //devtag.pro.security.todo - make sure that if there is no link key the NWK
// 1362     //key isn't used to secure the frame at the APS layer -- since the receiving
// 1363     //device may not have a NWK key yet
// 1364     req.apsSecure = TRUE;
// 1365 
// 1366     // check if using secure hop to to parent
// 1367     if ( device->parentAddr == NLME_GetShortAddr() )
// 1368     {
// 1369       req.nwkSecure = FALSE;
// 1370       req.tunnel    = NULL;
// 1371     }
// 1372     else
// 1373     {
// 1374       req.nwkSecure   = TRUE;
// 1375       req.tunnel      = &tunnel;
// 1376       req.tunnel->tna = device->parentAddr;
// 1377       req.tunnel->dea = device->extAddr;
// 1378     }
// 1379   }
// 1380   else
// 1381   {
// 1382     // default values
// 1383     //devtag.0604.verify
// 1384     req.nwkSecure = TRUE;
        MOV     A,#0xa
        LCALL   ?XSTACK_DISP0_8
        MOV     A,#0x1
        MOVX    @DPTR,A
// 1385     req.apsSecure = FALSE;
        MOV     A,#0x9
        LCALL   ?XSTACK_DISP0_8
        CLR     A
        MOVX    @DPTR,A
// 1386     req.tunnel    = NULL;
        MOV     A,#0xb
        LCALL   ?XSTACK_DISP0_8
        CLR     A
        MOVX    @DPTR,A
        INC     DPTR
        MOVX    @DPTR,A
// 1387 
// 1388     if ( device->parentAddr != NLME_GetShortAddr() )
        ; Setup parameters for call to function NLME_GetShortAddr
        LCALL   ??NLME_GetShortAddr?relay
        MOV     A,R6
        ADD     A,#0x4
        LCALL   ?Subroutine57 & 0xFFFF
??CrossCallReturnLabel_105:
        MOV     DPL,R0
        MOV     DPH,A
        LCALL   ??Subroutine75_0 & 0xFFFF
??CrossCallReturnLabel_98:
        JNZ     ??ZDSecMgrSendNwkKey_0
        MOV     A,R3
        XRL     A,R1
??ZDSecMgrSendNwkKey_0:
        JZ      ??CrossCallReturnLabel_165
// 1389     {
// 1390       req.dstAddr = device->parentAddr;
        LCALL   ??Subroutine86_0 & 0xFFFF
// 1391     }
// 1392 
// 1393     // special cases
// 1394     //devtag.0604.todo - modify to preconfig flag
// 1395     if ( device->secure == FALSE )
??CrossCallReturnLabel_165:
        MOV     DPL,R6
        MOV     DPH,R7
        INC     DPTR
        INC     DPTR
        INC     DPTR
        INC     DPTR
        INC     DPTR
        INC     DPTR
        MOVX    A,@DPTR
        JNZ     ??ZDSecMgrSendNwkKey_1
// 1396     {
// 1397       req.keySeqNum = _NIB.nwkActiveKey.keySeqNum;
        MOV     DPTR,#_NIB + 62
        MOVX    A,@DPTR
        PUSH    A
          CFI CFA_SP SP+-1
        MOV     A,#0x3
        LCALL   ?XSTACK_DISP0_8
        POP     A
          CFI CFA_SP SP+0
        MOVX    @DPTR,A
// 1398       req.key       = _NIB.nwkActiveKey.key;
        MOV     A,#0x4
        LCALL   ?XSTACK_DISP0_8
        MOV     A,#(_NIB + 63) & 0xff
        MOVX    @DPTR,A
        INC     DPTR
        MOV     A,#((_NIB + 63) >> 8) & 0xff
        MOVX    @DPTR,A
// 1399 
// 1400       // check if using secure hop to to parent
// 1401       if ( device->parentAddr == NLME_GetShortAddr() )
        ; Setup parameters for call to function NLME_GetShortAddr
        LCALL   ??NLME_GetShortAddr?relay
        MOV     ?V0 + 2,R2
        MOV     ?V0 + 3,R3
        MOV     R0,?V0 + 2
        MOV     R1,?V0 + 3
        MOV     DPL,?V0 + 0
        MOV     DPH,?V0 + 1
        MOVX    A,@DPTR
        XRL     A,R0
        JNZ     ??ZDSecMgrSendNwkKey_2
        INC     DPTR
        MOVX    A,@DPTR
        XRL     A,R1
??ZDSecMgrSendNwkKey_2:
        JNZ     ??ZDSecMgrSendNwkKey_3
// 1402       {
// 1403         req.nwkSecure = FALSE;
        MOV     A,#0xa
        SJMP    ??ZDSecMgrSendNwkKey_4
// 1404       }
// 1405     }
// 1406     else
// 1407     {
// 1408       req.key       = NULL;
??ZDSecMgrSendNwkKey_1:
        MOV     A,#0x4
        LCALL   ?XSTACK_DISP0_8
        CLR     A
        MOVX    @DPTR,A
        INC     DPTR
        MOVX    @DPTR,A
// 1409       req.keySeqNum = 0;
        MOV     A,#0x3
??ZDSecMgrSendNwkKey_4:
        LCALL   ?XSTACK_DISP0_8
        CLR     A
        MOVX    @DPTR,A
// 1410     }
// 1411   }
// 1412 
// 1413   status = APSME_TransportKeyReq( &req );
// 1414 
// 1415   return status;
??ZDSecMgrSendNwkKey_3:
        ; Setup parameters for call to function APSME_TransportKeyReq
        MOV     DPL,?XSP + 0
        MOV     DPH,?XSP + 1
        MOV     R2,DPL
        MOV     R3,DPH
        LCALL   ??APSME_TransportKeyReq?relay
        MOV     A,#0xd
        LJMP    ??Subroutine97_0 & 0xFFFF
          CFI EndBlock cfiBlock141
// 1416 }

        RSEG BANKED_CODE:CODE:NOROOT(0)
?Subroutine57:
          CFI Block cfiCond142 Using cfiCommon0
          CFI Function ZDSecMgrSendNwkKey
          CFI Conditional ??CrossCallReturnLabel_105
          CFI R6 load(1, XDATA, add(CFA_XSP16, literal(-12)))
          CFI VB load(1, XDATA, add(CFA_XSP16, literal(-11)))
          CFI V0 load(1, XDATA, add(CFA_XSP16, literal(-10)))
          CFI V1 load(1, XDATA, add(CFA_XSP16, literal(-9)))
          CFI V2 load(1, XDATA, add(CFA_XSP16, literal(-8)))
          CFI V3 load(1, XDATA, add(CFA_XSP16, literal(-7)))
          CFI R7 load(1, XDATA, add(CFA_XSP16, literal(-6)))
          CFI ?RET_LOW load(1, XDATA, add(CFA_XSP16, literal(-5)))
          CFI ?RET_HIGH load(1, XDATA, add(CFA_XSP16, literal(-4)))
          CFI ?BRET_EXT load(1, XDATA, add(CFA_XSP16, literal(-3)))
          CFI DPL0 load(1, XDATA, add(CFA_XSP16, literal(-2)))
          CFI DPH0 load(1, XDATA, add(CFA_XSP16, literal(-1)))
          CFI CFA_SP SP+0
          CFI CFA_XSP16 add(XSP16, 25)
          CFI Block cfiCond143 Using cfiCommon0
          CFI (cfiCond143) Function ZDSecMgrDeviceValidateCM
          CFI (cfiCond143) Conditional ??CrossCallReturnLabel_106
          CFI (cfiCond143) R6 load(1, XDATA, add(CFA_XSP16, literal(-12)))
          CFI (cfiCond143) VB load(1, XDATA, add(CFA_XSP16, literal(-11)))
          CFI (cfiCond143) V0 load(1, XDATA, add(CFA_XSP16, literal(-10)))
          CFI (cfiCond143) V1 load(1, XDATA, add(CFA_XSP16, literal(-9)))
          CFI (cfiCond143) V2 load(1, XDATA, add(CFA_XSP16, literal(-8)))
          CFI (cfiCond143) V3 load(1, XDATA, add(CFA_XSP16, literal(-7)))
          CFI (cfiCond143) R7 load(1, XDATA, add(CFA_XSP16, literal(-6)))
          CFI (cfiCond143) ?RET_LOW load(1, XDATA, add(CFA_XSP16, literal(-5)))
          CFI (cfiCond143) ?RET_HIGH load(1, XDATA, add(CFA_XSP16, literal(-4)))
          CFI (cfiCond143) ?BRET_EXT load(1, XDATA, add(CFA_XSP16, literal(-3)))
          CFI (cfiCond143) DPL0 load(1, XDATA, add(CFA_XSP16, literal(-2)))
          CFI (cfiCond143) DPH0 load(1, XDATA, add(CFA_XSP16, literal(-1)))
          CFI (cfiCond143) CFA_SP SP+0
          CFI (cfiCond143) CFA_XSP16 add(XSP16, 14)
          CFI Block cfiPicker144 Using cfiCommon1
          CFI (cfiPicker144) NoFunction
          CFI (cfiPicker144) Picker
        MOV     R0,A
        MOV     A,R7
          CFI EndBlock cfiCond142
          CFI EndBlock cfiCond143
          CFI EndBlock cfiPicker144
        REQUIRE ??Subroutine77_0
        ; // Fall through to label ??Subroutine77_0

        RSEG BANKED_CODE:CODE:NOROOT(0)
??Subroutine77_0:
          CFI Block cfiCond145 Using cfiCommon0
          CFI Function ZDSecMgrAppKeyReq
          CFI Conditional ??CrossCallReturnLabel_104
          CFI R6 load(1, XDATA, add(CFA_XSP16, literal(-10)))
          CFI VB load(1, XDATA, add(CFA_XSP16, literal(-9)))
          CFI V0 load(1, XDATA, add(CFA_XSP16, literal(-8)))
          CFI V1 load(1, XDATA, add(CFA_XSP16, literal(-7)))
          CFI R7 load(1, XDATA, add(CFA_XSP16, literal(-6)))
          CFI ?RET_LOW load(1, XDATA, add(CFA_XSP16, literal(-5)))
          CFI ?RET_HIGH load(1, XDATA, add(CFA_XSP16, literal(-4)))
          CFI ?BRET_EXT load(1, XDATA, add(CFA_XSP16, literal(-3)))
          CFI DPL0 load(1, XDATA, add(CFA_XSP16, literal(-2)))
          CFI DPH0 load(1, XDATA, add(CFA_XSP16, literal(-1)))
          CFI CFA_SP SP+0
          CFI CFA_XSP16 add(XSP16, 49)
          CFI Block cfiCond146 Using cfiCommon0
          CFI (cfiCond146) Function ZDSecMgrSendNwkKey
          CFI (cfiCond146) Conditional ??CrossCallReturnLabel_105
          CFI (cfiCond146) R6 load(1, XDATA, add(CFA_XSP16, literal(-12)))
          CFI (cfiCond146) VB load(1, XDATA, add(CFA_XSP16, literal(-11)))
          CFI (cfiCond146) V0 load(1, XDATA, add(CFA_XSP16, literal(-10)))
          CFI (cfiCond146) V1 load(1, XDATA, add(CFA_XSP16, literal(-9)))
          CFI (cfiCond146) V2 load(1, XDATA, add(CFA_XSP16, literal(-8)))
          CFI (cfiCond146) V3 load(1, XDATA, add(CFA_XSP16, literal(-7)))
          CFI (cfiCond146) R7 load(1, XDATA, add(CFA_XSP16, literal(-6)))
          CFI (cfiCond146) ?RET_LOW load(1, XDATA, add(CFA_XSP16, literal(-5)))
          CFI (cfiCond146) ?RET_HIGH load(1, XDATA, add(CFA_XSP16, literal(-4)))
          CFI (cfiCond146) ?BRET_EXT load(1, XDATA, add(CFA_XSP16, literal(-3)))
          CFI (cfiCond146) DPL0 load(1, XDATA, add(CFA_XSP16, literal(-2)))
          CFI (cfiCond146) DPH0 load(1, XDATA, add(CFA_XSP16, literal(-1)))
          CFI (cfiCond146) CFA_SP SP+0
          CFI (cfiCond146) CFA_XSP16 add(XSP16, 25)
          CFI Block cfiCond147 Using cfiCommon0
          CFI (cfiCond147) Function ZDSecMgrDeviceValidateCM
          CFI (cfiCond147) Conditional ??CrossCallReturnLabel_106
          CFI (cfiCond147) R6 load(1, XDATA, add(CFA_XSP16, literal(-12)))
          CFI (cfiCond147) VB load(1, XDATA, add(CFA_XSP16, literal(-11)))
          CFI (cfiCond147) V0 load(1, XDATA, add(CFA_XSP16, literal(-10)))
          CFI (cfiCond147) V1 load(1, XDATA, add(CFA_XSP16, literal(-9)))
          CFI (cfiCond147) V2 load(1, XDATA, add(CFA_XSP16, literal(-8)))
          CFI (cfiCond147) V3 load(1, XDATA, add(CFA_XSP16, literal(-7)))
          CFI (cfiCond147) R7 load(1, XDATA, add(CFA_XSP16, literal(-6)))
          CFI (cfiCond147) ?RET_LOW load(1, XDATA, add(CFA_XSP16, literal(-5)))
          CFI (cfiCond147) ?RET_HIGH load(1, XDATA, add(CFA_XSP16, literal(-4)))
          CFI (cfiCond147) ?BRET_EXT load(1, XDATA, add(CFA_XSP16, literal(-3)))
          CFI (cfiCond147) DPL0 load(1, XDATA, add(CFA_XSP16, literal(-2)))
          CFI (cfiCond147) DPH0 load(1, XDATA, add(CFA_XSP16, literal(-1)))
          CFI (cfiCond147) CFA_SP SP+0
          CFI (cfiCond147) CFA_XSP16 add(XSP16, 14)
          CFI Block cfiPicker148 Using cfiCommon1
          CFI (cfiPicker148) NoFunction
          CFI (cfiPicker148) Picker
        ADDC    A,#0x0
        MOV     R1,A
        MOV     ?V0 + 0,R0
        MOV     ?V0 + 1,R1
        RET
          CFI EndBlock cfiCond145
          CFI EndBlock cfiCond146
          CFI EndBlock cfiCond147
          CFI EndBlock cfiPicker148

        RSEG BANKED_CODE:CODE:NOROOT(0)
?Subroutine20:
          CFI Block cfiCond149 Using cfiCommon0
          CFI Function ZDSecMgrSendMasterKey
          CFI Conditional ??CrossCallReturnLabel_4
          CFI R6 load(1, XDATA, add(CFA_XSP16, literal(-10)))
          CFI VB load(1, XDATA, add(CFA_XSP16, literal(-9)))
          CFI V0 load(1, XDATA, add(CFA_XSP16, literal(-8)))
          CFI V1 load(1, XDATA, add(CFA_XSP16, literal(-7)))
          CFI R7 load(1, XDATA, add(CFA_XSP16, literal(-6)))
          CFI ?RET_LOW load(1, XDATA, add(CFA_XSP16, literal(-5)))
          CFI ?RET_HIGH load(1, XDATA, add(CFA_XSP16, literal(-4)))
          CFI ?BRET_EXT load(1, XDATA, add(CFA_XSP16, literal(-3)))
          CFI DPL0 load(1, XDATA, add(CFA_XSP16, literal(-2)))
          CFI DPH0 load(1, XDATA, add(CFA_XSP16, literal(-1)))
          CFI CFA_SP SP+0
          CFI CFA_XSP16 add(XSP16, 23)
          CFI Block cfiCond150 Using cfiCommon0
          CFI (cfiCond150) Function ZDSecMgrSendNwkKey
          CFI (cfiCond150) Conditional ??CrossCallReturnLabel_5
          CFI (cfiCond150) R6 load(1, XDATA, add(CFA_XSP16, literal(-12)))
          CFI (cfiCond150) VB load(1, XDATA, add(CFA_XSP16, literal(-11)))
          CFI (cfiCond150) V0 load(1, XDATA, add(CFA_XSP16, literal(-10)))
          CFI (cfiCond150) V1 load(1, XDATA, add(CFA_XSP16, literal(-9)))
          CFI (cfiCond150) V2 load(1, XDATA, add(CFA_XSP16, literal(-8)))
          CFI (cfiCond150) V3 load(1, XDATA, add(CFA_XSP16, literal(-7)))
          CFI (cfiCond150) R7 load(1, XDATA, add(CFA_XSP16, literal(-6)))
          CFI (cfiCond150) ?RET_LOW load(1, XDATA, add(CFA_XSP16, literal(-5)))
          CFI (cfiCond150) ?RET_HIGH load(1, XDATA, add(CFA_XSP16, literal(-4)))
          CFI (cfiCond150) ?BRET_EXT load(1, XDATA, add(CFA_XSP16, literal(-3)))
          CFI (cfiCond150) DPL0 load(1, XDATA, add(CFA_XSP16, literal(-2)))
          CFI (cfiCond150) DPH0 load(1, XDATA, add(CFA_XSP16, literal(-1)))
          CFI (cfiCond150) CFA_SP SP+0
          CFI (cfiCond150) CFA_XSP16 add(XSP16, 25)
          CFI Block cfiPicker151 Using cfiCommon1
          CFI (cfiPicker151) NoFunction
          CFI (cfiPicker151) Picker
        MOVX    @DPTR,A
        MOV     DPL,R6
        MOV     DPH,R7
        LCALL   ?Subroutine64 & 0xFFFF
??CrossCallReturnLabel_219:
        MOV     A,#0x6
        RET
          CFI EndBlock cfiCond149
          CFI EndBlock cfiCond150
          CFI EndBlock cfiPicker151
// 1417 
// 1418 /******************************************************************************
// 1419  * @fn          ZDSecMgrDeviceEntryRemove
// 1420  *
// 1421  * @brief       Remove device entry.
// 1422  *
// 1423  * @param       entry - [in] valid entry
// 1424  *
// 1425  * @return      none
// 1426  */

        RSEG BANKED_CODE:CODE:NOROOT(0)
// 1427 void ZDSecMgrDeviceEntryRemove( ZDSecMgrEntry_t* entry )
ZDSecMgrDeviceEntryRemove:
          CFI Block cfiBlock152 Using cfiCommon0
          CFI Function ZDSecMgrDeviceEntryRemove
        CODE
        LJMP    ?Subroutine0 & 0xFFFF
          CFI EndBlock cfiBlock152
// 1428 {
// 1429   // terminate device control
// 1430   if ( ( ZG_BUILD_COORDINATOR_TYPE ) && ( ZG_DEVICE_COORDINATOR_TYPE ) )
// 1431   {
// 1432     ZDSecMgrCtrlTerm( entry );
// 1433   }
// 1434 
// 1435   // remove device from entry data
// 1436   ZDSecMgrEntryFree( entry );
// 1437 
// 1438   // remove EXT address
// 1439   //ZDSecMgrExtAddrRelease( aiOld );
// 1440 }
// 1441 
// 1442 /******************************************************************************
// 1443  * @fn          ZDSecMgrDeviceRemoveByExtAddr
// 1444  *
// 1445  * @brief       Remove device entry by its ext address.
// 1446  *
// 1447  * @param       pAddr - pointer to the extended address
// 1448  *
// 1449  * @return      ZStatus_t
// 1450  */

        RSEG BANKED_CODE:CODE:NOROOT(0)
// 1451 ZStatus_t ZDSecMgrDeviceRemoveByExtAddr( uint8 *pAddr )
ZDSecMgrDeviceRemoveByExtAddr:
          CFI Block cfiBlock153 Using cfiCommon0
          CFI Function ZDSecMgrDeviceRemoveByExtAddr
        CODE
// 1452 {
        FUNCALL ZDSecMgrDeviceRemoveByExtAddr, ZDSecMgrEntryLookupExt
        LOCFRAME ISTACK, 2, STACK
        LOCFRAME PSTACK, 0, STACK
        LOCFRAME XSTACK, 2, STACK
        LOCFRAME IOVERLAY, 0, STATIC
        LOCFRAME DOVERLAY, 0, STATIC
        ARGFRAME ISTACK, 2, STACK
        ARGFRAME PSTACK, 0, STACK
        ARGFRAME XSTACK, 2, STACK
        ARGFRAME IOVERLAY, 0, STATIC
        ARGFRAME DOVERLAY, 0, STATIC
        PUSH    DPL
          CFI DPL0 Frame(CFA_SP, 4)
          CFI CFA_SP SP+-4
        PUSH    DPH
          CFI DPH0 Frame(CFA_SP, 5)
          CFI CFA_SP SP+-5
        ; Saved register size: 2
        ; Auto size: 2
        MOV     A,#-0x2
        LCALL   ?ALLOC_XSTACK8
          CFI CFA_XSP16 add(XSP16, 2)
// 1453   ZDSecMgrEntry_t *pEntry;
// 1454   uint8           retValue;
// 1455   
// 1456   retValue = (uint8)ZDSecMgrEntryLookupExt( pAddr, &pEntry );
        ; Setup parameters for call to function ZDSecMgrEntryLookupExt
        MOV     DPL,?XSP + 0
        MOV     DPH,?XSP + 1
        MOV     R4,DPL
        MOV     R5,DPH
        LCALL   ??ZDSecMgrEntryLookupExt?relay
        MOV     A,R1
// 1457   
// 1458   if( retValue == ZSuccess )
        JNZ     ??ZDSecMgrDeviceRemoveByExtAddr_0
// 1459   {
// 1460     ZDSecMgrDeviceEntryRemove( pEntry );
        MOV     DPL,?XSP + 0
        MOV     DPH,?XSP + 1
        MOVX    A,@DPTR
        MOV     R0,A
        LCALL   ?Subroutine47 & 0xFFFF
??CrossCallReturnLabel_54:
        MOVX    @DPTR,A
// 1461   }
// 1462   
// 1463   return retValue;
??ZDSecMgrDeviceRemoveByExtAddr_0:
        LJMP    ?Subroutine7 & 0xFFFF
          CFI EndBlock cfiBlock153
// 1464 }
// 1465 
// 1466 /******************************************************************************
// 1467  * @fn          ZDSecMgrDeviceEntryAdd
// 1468  *
// 1469  * @brief       Add entry.
// 1470  *
// 1471  * @param       device - [in] ZDSecMgrDevice_t, device info
// 1472  * @param       ami    - [in] Address Manager index
// 1473  *
// 1474  * @return      ZStatus_t
// 1475  */

        RSEG BANKED_CODE:CODE:NOROOT(0)
// 1476 void ZDSecMgrAddrMgrUpdate( uint16 ami, uint16 nwkAddr )
ZDSecMgrAddrMgrUpdate:
          CFI Block cfiBlock154 Using cfiCommon0
          CFI Function ZDSecMgrAddrMgrUpdate
        CODE
// 1477 {
        FUNCALL ZDSecMgrAddrMgrUpdate, AddrMgrEntryGet
        LOCFRAME ISTACK, 0, STACK
        LOCFRAME PSTACK, 0, STACK
        LOCFRAME XSTACK, 22, STACK
        LOCFRAME IOVERLAY, 0, STATIC
        LOCFRAME DOVERLAY, 0, STATIC
        ARGFRAME ISTACK, 0, STACK
        ARGFRAME PSTACK, 0, STACK
        ARGFRAME XSTACK, 22, STACK
        ARGFRAME IOVERLAY, 0, STATIC
        ARGFRAME DOVERLAY, 0, STATIC
        FUNCALL ZDSecMgrAddrMgrUpdate, AddrMgrEntryUpdate
        LOCFRAME ISTACK, 0, STACK
        LOCFRAME PSTACK, 0, STACK
        LOCFRAME XSTACK, 22, STACK
        LOCFRAME IOVERLAY, 0, STATIC
        LOCFRAME DOVERLAY, 0, STATIC
        ARGFRAME ISTACK, 0, STACK
        ARGFRAME PSTACK, 0, STACK
        ARGFRAME XSTACK, 22, STACK
        ARGFRAME IOVERLAY, 0, STATIC
        ARGFRAME DOVERLAY, 0, STATIC
        MOV     A,#-0x9
        LCALL   ?BANKED_ENTER_XDATA
          CFI DPH0 load(1, XDATA, add(CFA_XSP16, literal(-1)))
          CFI DPL0 load(1, XDATA, add(CFA_XSP16, literal(-2)))
          CFI ?BRET_EXT load(1, XDATA, add(CFA_XSP16, literal(-3)))
          CFI ?RET_HIGH load(1, XDATA, add(CFA_XSP16, literal(-4)))
          CFI ?RET_LOW load(1, XDATA, add(CFA_XSP16, literal(-5)))
          CFI R7 load(1, XDATA, add(CFA_XSP16, literal(-6)))
          CFI V0 load(1, XDATA, add(CFA_XSP16, literal(-7)))
          CFI VB load(1, XDATA, add(CFA_XSP16, literal(-8)))
          CFI R6 load(1, XDATA, add(CFA_XSP16, literal(-9)))
          CFI CFA_SP SP+0
          CFI CFA_XSP16 add(XSP16, 9)
        ; Saved register size: 9
        ; Auto size: 13
        MOV     A,#-0xd
        LCALL   ?ALLOC_XSTACK8
          CFI CFA_XSP16 add(XSP16, 22)
        MOV     A,R4
        MOV     R6,A
        MOV     A,R5
        MOV     R7,A
// 1478   AddrMgrEntry_t entry;
// 1479 
// 1480   // get the ami data
// 1481   entry.user  = ADDRMGR_USER_SECURITY;
        MOV     DPL,?XSP + 0
        MOV     DPH,?XSP + 1
        MOV     A,#0x2
        MOVX    @DPTR,A
// 1482   entry.index = ami;
        MOV     A,#0xb
        LCALL   ?XSTACK_DISP0_8
        MOV     A,R2
        MOVX    @DPTR,A
        INC     DPTR
        MOV     A,R3
        LCALL   ??Subroutine90_0 & 0xFFFF
// 1483 
// 1484   AddrMgrEntryGet( &entry );
??CrossCallReturnLabel_179:
        LCALL   ??AddrMgrEntryGet?relay
// 1485 
// 1486   // check if NWK address is same
// 1487   if ( entry.nwkAddr != nwkAddr )
        MOV     A,#0x1
        LCALL   ?XSTACK_DISP0_8
        MOVX    A,@DPTR
        XRL     A,R6
        JNZ     ??ZDSecMgrAddrMgrUpdate_0
        INC     DPTR
        MOVX    A,@DPTR
        XRL     A,R7
??ZDSecMgrAddrMgrUpdate_0:
        JZ      ??ZDSecMgrAddrMgrUpdate_1
// 1488   {
// 1489     // update NWK address
// 1490     entry.nwkAddr = nwkAddr;
        MOV     A,#0x1
        LCALL   ?XSTACK_DISP0_8
        MOV     A,R6
        MOVX    @DPTR,A
        INC     DPTR
        MOV     A,R7
        LCALL   ??Subroutine90_0 & 0xFFFF
// 1491 
// 1492     AddrMgrEntryUpdate( &entry );
// 1493   }
??CrossCallReturnLabel_180:
        LCALL   ??AddrMgrEntryUpdate?relay
// 1494 }
??ZDSecMgrAddrMgrUpdate_1:
        LJMP    ?Subroutine8 & 0xFFFF
          CFI EndBlock cfiBlock154
// 1495 

        RSEG BANKED_CODE:CODE:NOROOT(0)
// 1496 ZStatus_t ZDSecMgrDeviceEntryAdd( ZDSecMgrDevice_t* device, uint16 ami )
ZDSecMgrDeviceEntryAdd:
          CFI Block cfiBlock155 Using cfiCommon0
          CFI Function ZDSecMgrDeviceEntryAdd
        CODE
// 1497 {
        FUNCALL ZDSecMgrDeviceEntryAdd, ZDSecMgrEntryLookup
        LOCFRAME ISTACK, 0, STACK
        LOCFRAME PSTACK, 0, STACK
        LOCFRAME XSTACK, 13, STACK
        LOCFRAME IOVERLAY, 0, STATIC
        LOCFRAME DOVERLAY, 0, STATIC
        ARGFRAME ISTACK, 0, STACK
        ARGFRAME PSTACK, 0, STACK
        ARGFRAME XSTACK, 13, STACK
        ARGFRAME IOVERLAY, 0, STATIC
        ARGFRAME DOVERLAY, 0, STATIC
        FUNCALL ZDSecMgrDeviceEntryAdd, ZDSecMgrEntryLookupAMI
        LOCFRAME ISTACK, 0, STACK
        LOCFRAME PSTACK, 0, STACK
        LOCFRAME XSTACK, 13, STACK
        LOCFRAME IOVERLAY, 0, STATIC
        LOCFRAME DOVERLAY, 0, STATIC
        ARGFRAME ISTACK, 0, STACK
        ARGFRAME PSTACK, 0, STACK
        ARGFRAME XSTACK, 13, STACK
        ARGFRAME IOVERLAY, 0, STATIC
        ARGFRAME DOVERLAY, 0, STATIC
        FUNCALL ZDSecMgrDeviceEntryAdd, ZDSecMgrEntryLookupAMI
        LOCFRAME ISTACK, 0, STACK
        LOCFRAME PSTACK, 0, STACK
        LOCFRAME XSTACK, 13, STACK
        LOCFRAME IOVERLAY, 0, STATIC
        LOCFRAME DOVERLAY, 0, STATIC
        ARGFRAME ISTACK, 0, STACK
        ARGFRAME PSTACK, 0, STACK
        ARGFRAME XSTACK, 13, STACK
        ARGFRAME IOVERLAY, 0, STATIC
        ARGFRAME DOVERLAY, 0, STATIC
        FUNCALL ZDSecMgrDeviceEntryAdd, ZDSecMgrAddrMgrUpdate
        LOCFRAME ISTACK, 0, STACK
        LOCFRAME PSTACK, 0, STACK
        LOCFRAME XSTACK, 13, STACK
        LOCFRAME IOVERLAY, 0, STATIC
        LOCFRAME DOVERLAY, 0, STATIC
        ARGFRAME ISTACK, 0, STACK
        ARGFRAME PSTACK, 0, STACK
        ARGFRAME XSTACK, 13, STACK
        ARGFRAME IOVERLAY, 0, STATIC
        ARGFRAME DOVERLAY, 0, STATIC
        FUNCALL ZDSecMgrDeviceEntryAdd, ZDSecMgrEntryNew
        LOCFRAME ISTACK, 0, STACK
        LOCFRAME PSTACK, 0, STACK
        LOCFRAME XSTACK, 13, STACK
        LOCFRAME IOVERLAY, 0, STATIC
        LOCFRAME DOVERLAY, 0, STATIC
        ARGFRAME ISTACK, 0, STACK
        ARGFRAME PSTACK, 0, STACK
        ARGFRAME XSTACK, 13, STACK
        ARGFRAME IOVERLAY, 0, STATIC
        ARGFRAME DOVERLAY, 0, STATIC
        FUNCALL ZDSecMgrDeviceEntryAdd, ZDSecMgrAddrMgrUpdate
        LOCFRAME ISTACK, 0, STACK
        LOCFRAME PSTACK, 0, STACK
        LOCFRAME XSTACK, 13, STACK
        LOCFRAME IOVERLAY, 0, STATIC
        LOCFRAME DOVERLAY, 0, STATIC
        ARGFRAME ISTACK, 0, STACK
        ARGFRAME PSTACK, 0, STACK
        ARGFRAME XSTACK, 13, STACK
        ARGFRAME IOVERLAY, 0, STATIC
        ARGFRAME DOVERLAY, 0, STATIC
        MOV     A,#-0xb
        LCALL   ?BANKED_ENTER_XDATA
          CFI DPH0 load(1, XDATA, add(CFA_XSP16, literal(-1)))
          CFI DPL0 load(1, XDATA, add(CFA_XSP16, literal(-2)))
          CFI ?BRET_EXT load(1, XDATA, add(CFA_XSP16, literal(-3)))
          CFI ?RET_HIGH load(1, XDATA, add(CFA_XSP16, literal(-4)))
          CFI ?RET_LOW load(1, XDATA, add(CFA_XSP16, literal(-5)))
          CFI R7 load(1, XDATA, add(CFA_XSP16, literal(-6)))
          CFI V2 load(1, XDATA, add(CFA_XSP16, literal(-7)))
          CFI V1 load(1, XDATA, add(CFA_XSP16, literal(-8)))
          CFI V0 load(1, XDATA, add(CFA_XSP16, literal(-9)))
          CFI VB load(1, XDATA, add(CFA_XSP16, literal(-10)))
          CFI R6 load(1, XDATA, add(CFA_XSP16, literal(-11)))
          CFI CFA_SP SP+0
          CFI CFA_XSP16 add(XSP16, 11)
        ; Saved register size: 11
        ; Auto size: 2
        MOV     A,#-0x2
        LCALL   ?ALLOC_XSTACK8
          CFI CFA_XSP16 add(XSP16, 13)
        MOV     ?V0 + 0,R2
        MOV     ?V0 + 1,R3
        MOV     A,R4
        MOV     R6,A
        MOV     A,R5
        MOV     R7,A
// 1498   ZStatus_t        status;
// 1499   ZDSecMgrEntry_t* entry;
// 1500 
// 1501 
// 1502   // initialize as unknown until completion
// 1503   status = ZNwkUnknownDevice;
        MOV     ?V0 + 2,#-0x38
// 1504 
// 1505   device->ctrl = NULL;
        MOV     DPL,R2
        MOV     DPH,R3
        INC     DPTR
        INC     DPTR
        INC     DPTR
        INC     DPTR
        INC     DPTR
        INC     DPTR
        INC     DPTR
        INC     DPTR
        CLR     A
        MOVX    @DPTR,A
        INC     DPTR
        LCALL   ?Subroutine26 & 0xFFFF
// 1506 
// 1507   // make sure not already registered
// 1508   if ( ZDSecMgrEntryLookup( device->nwkAddr, &entry ) == ZSuccess )
??CrossCallReturnLabel_17:
        MOV     DPL,R2
        MOV     DPH,R3
        LCALL   ??Subroutine85_0 & 0xFFFF
??CrossCallReturnLabel_129:
        LCALL   ??ZDSecMgrEntryLookup?relay
        MOV     A,R1
        MOV     DPL,?XSP + 0
        MOV     DPH,?XSP + 1
        JNZ     ??ZDSecMgrDeviceEntryAdd_0
// 1509   {
// 1510     // verify that address index is same
// 1511     if ( entry->ami != ami )
        LCALL   ?Subroutine48 & 0xFFFF
??CrossCallReturnLabel_110:
        MOVX    A,@DPTR
        XRL     A,R6
        JNZ     ??ZDSecMgrDeviceEntryAdd_1
        INC     DPTR
        MOVX    A,@DPTR
        XRL     A,R7
??ZDSecMgrDeviceEntryAdd_1:
        JZ      ??ZDSecMgrDeviceEntryAdd_2
// 1512     {
// 1513       // remove conflicting entry
// 1514       ZDSecMgrDeviceEntryRemove( entry );
        MOV     DPL,?XSP + 0
        MOV     DPH,?XSP + 1
        LCALL   ?Subroutine47 & 0xFFFF
// 1515 
// 1516       if ( ZDSecMgrEntryLookupAMI( ami, &entry ) == ZSuccess )
// 1517       {
// 1518         // update NWK address
// 1519         ZDSecMgrAddrMgrUpdate( ami, device->nwkAddr );
// 1520       }
// 1521     }
// 1522   }
??CrossCallReturnLabel_55:
        LCALL   ?Subroutine26 & 0xFFFF
??CrossCallReturnLabel_18:
        MOV     A,R6
        MOV     R2,A
        MOV     A,R7
        MOV     R3,A
        LCALL   ??ZDSecMgrEntryLookupAMI?relay
        MOV     A,R1
        JNZ     ??ZDSecMgrDeviceEntryAdd_2
        SJMP    ??ZDSecMgrDeviceEntryAdd_3
// 1523   else if ( ZDSecMgrEntryLookupAMI( ami, &entry ) == ZSuccess )
??ZDSecMgrDeviceEntryAdd_0:
        ; Setup parameters for call to function ZDSecMgrEntryLookupAMI
        MOV     R4,DPL
        MOV     R5,DPH
        MOV     A,R6
        MOV     R2,A
        MOV     A,R7
        MOV     R3,A
        LCALL   ??ZDSecMgrEntryLookupAMI?relay
        MOV     A,R1
        JNZ     ??ZDSecMgrDeviceEntryAdd_2
// 1524   {
// 1525     // update NWK address
// 1526     ZDSecMgrAddrMgrUpdate( ami, device->nwkAddr );
??ZDSecMgrDeviceEntryAdd_3:
        ; Setup parameters for call to function ZDSecMgrAddrMgrUpdate
        MOV     DPL,?V0 + 0
        MOV     DPH,?V0 + 1
        LCALL   ??Subroutine80_0 & 0xFFFF
// 1527   }
??CrossCallReturnLabel_116:
        LCALL   ??ZDSecMgrAddrMgrUpdate?relay
// 1528 
// 1529   // check if a new entry needs to be created
// 1530   if ( entry == NULL )
??ZDSecMgrDeviceEntryAdd_2:
        LCALL   ?Subroutine38 & 0xFFFF
??CrossCallReturnLabel_233:
        JNZ     ??ZDSecMgrDeviceEntryAdd_4
// 1531   {
// 1532     // get new entry
// 1533     if ( ZDSecMgrEntryNew( &entry ) == ZSuccess )
        ; Setup parameters for call to function ZDSecMgrEntryNew
        MOV     DPL,?XSP + 0
        MOV     DPH,?XSP + 1
        MOV     R2,DPL
        MOV     R3,DPH
        LCALL   ??ZDSecMgrEntryNew?relay
        MOV     A,R1
        JNZ     ??ZDSecMgrDeviceEntryAdd_5
// 1534     {
// 1535       // reset entry lkd
// 1536 
// 1537       // finish setting up entry
// 1538       entry->ami = ami;
        MOV     DPL,?XSP + 0
        MOV     DPH,?XSP + 1
        LCALL   ?Subroutine48 & 0xFFFF
??CrossCallReturnLabel_111:
        MOV     A,R6
        MOVX    @DPTR,A
        INC     DPTR
        MOV     A,R7
        LCALL   ?Subroutine21 & 0xFFFF
// 1539 
// 1540       // update NWK address
// 1541       ZDSecMgrAddrMgrUpdate( ami, device->nwkAddr );
??CrossCallReturnLabel_7:
        MOV     R4,A
        INC     DPTR
        MOVX    A,@DPTR
        MOV     R5,A
        MOV     A,R6
        MOV     R2,A
        MOV     A,R7
        MOV     R3,A
        LCALL   ??ZDSecMgrAddrMgrUpdate?relay
// 1542 
// 1543       // enter new device into device control
// 1544       if ( ( ZG_BUILD_COORDINATOR_TYPE ) && ( ZG_DEVICE_COORDINATOR_TYPE ) )
// 1545       {
// 1546         status = ZDSecMgrCtrlAdd( device, entry );
// 1547       }
// 1548       else
// 1549       {
// 1550         status = ZSuccess;
// 1551       }
// 1552     }
// 1553   }
// 1554   else
// 1555   {
// 1556     // reset entry lkd
// 1557 
// 1558     // reset entry in entry control
// 1559     if ( ( ZG_BUILD_COORDINATOR_TYPE ) && ( ZG_DEVICE_COORDINATOR_TYPE ) )
// 1560     {
// 1561       status = ZDSecMgrCtrlReset( device, entry );
// 1562     }
// 1563     else
// 1564     {
// 1565       status = ZSuccess;
??ZDSecMgrDeviceEntryAdd_4:
        MOV     ?V0 + 2,#0x0
// 1566     }
// 1567   }
// 1568 
// 1569   return status;
??ZDSecMgrDeviceEntryAdd_5:
        MOV     R1,?V0 + 2
        MOV     A,#0x2
          CFI EndBlock cfiBlock155
        REQUIRE ?Subroutine5
        ; // Fall through to label ?Subroutine5
// 1570 }

        RSEG BANKED_CODE:CODE:NOROOT(0)
?Subroutine5:
          CFI Block cfiBlock156 Using cfiCommon0
          CFI NoFunction
          CFI CFA_SP SP+0
          CFI CFA_XSP16 add(XSP16, 13)
          CFI VB load(1, XDATA, add(CFA_XSP16, literal(-10)))
          CFI DPL0 load(1, XDATA, add(CFA_XSP16, literal(-2)))
          CFI DPH0 load(1, XDATA, add(CFA_XSP16, literal(-1)))
          CFI R6 load(1, XDATA, add(CFA_XSP16, literal(-11)))
          CFI R7 load(1, XDATA, add(CFA_XSP16, literal(-6)))
          CFI V0 load(1, XDATA, add(CFA_XSP16, literal(-9)))
          CFI V1 load(1, XDATA, add(CFA_XSP16, literal(-8)))
          CFI V2 load(1, XDATA, add(CFA_XSP16, literal(-7)))
          CFI ?BRET_EXT load(1, XDATA, add(CFA_XSP16, literal(-3)))
          CFI ?RET_HIGH load(1, XDATA, add(CFA_XSP16, literal(-4)))
          CFI ?RET_LOW load(1, XDATA, add(CFA_XSP16, literal(-5)))
          CFI Invalid
        LCALL   ?DEALLOC_XSTACK8
          CFI CFA_XSP16 add(XSP16, 11)
          CFI Valid
        MOV     R7,#0x3
        LJMP    ?BANKED_LEAVE_XDATA
          CFI EndBlock cfiBlock156

        RSEG BANKED_CODE:CODE:NOROOT(0)
?Subroutine48:
          CFI Block cfiCond157 Using cfiCommon0
          CFI Function ZDSecMgrSendMasterKey
          CFI Conditional ??CrossCallReturnLabel_108
          CFI R6 load(1, XDATA, add(CFA_XSP16, literal(-10)))
          CFI VB load(1, XDATA, add(CFA_XSP16, literal(-9)))
          CFI V0 load(1, XDATA, add(CFA_XSP16, literal(-8)))
          CFI V1 load(1, XDATA, add(CFA_XSP16, literal(-7)))
          CFI R7 load(1, XDATA, add(CFA_XSP16, literal(-6)))
          CFI ?RET_LOW load(1, XDATA, add(CFA_XSP16, literal(-5)))
          CFI ?RET_HIGH load(1, XDATA, add(CFA_XSP16, literal(-4)))
          CFI ?BRET_EXT load(1, XDATA, add(CFA_XSP16, literal(-3)))
          CFI DPL0 load(1, XDATA, add(CFA_XSP16, literal(-2)))
          CFI DPH0 load(1, XDATA, add(CFA_XSP16, literal(-1)))
          CFI CFA_SP SP+0
          CFI CFA_XSP16 add(XSP16, 23)
          CFI Block cfiCond158 Using cfiCommon0
          CFI (cfiCond158) Function ZDSecMgrSendMasterKey
          CFI (cfiCond158) Conditional ??CrossCallReturnLabel_109
          CFI (cfiCond158) R6 load(1, XDATA, add(CFA_XSP16, literal(-10)))
          CFI (cfiCond158) VB load(1, XDATA, add(CFA_XSP16, literal(-9)))
          CFI (cfiCond158) V0 load(1, XDATA, add(CFA_XSP16, literal(-8)))
          CFI (cfiCond158) V1 load(1, XDATA, add(CFA_XSP16, literal(-7)))
          CFI (cfiCond158) R7 load(1, XDATA, add(CFA_XSP16, literal(-6)))
          CFI (cfiCond158) ?RET_LOW load(1, XDATA, add(CFA_XSP16, literal(-5)))
          CFI (cfiCond158) ?RET_HIGH load(1, XDATA, add(CFA_XSP16, literal(-4)))
          CFI (cfiCond158) ?BRET_EXT load(1, XDATA, add(CFA_XSP16, literal(-3)))
          CFI (cfiCond158) DPL0 load(1, XDATA, add(CFA_XSP16, literal(-2)))
          CFI (cfiCond158) DPH0 load(1, XDATA, add(CFA_XSP16, literal(-1)))
          CFI (cfiCond158) CFA_SP SP+0
          CFI (cfiCond158) CFA_XSP16 add(XSP16, 23)
          CFI Block cfiCond159 Using cfiCommon0
          CFI (cfiCond159) Function ZDSecMgrDeviceEntryAdd
          CFI (cfiCond159) Conditional ??CrossCallReturnLabel_110
          CFI (cfiCond159) R6 load(1, XDATA, add(CFA_XSP16, literal(-11)))
          CFI (cfiCond159) VB load(1, XDATA, add(CFA_XSP16, literal(-10)))
          CFI (cfiCond159) V0 load(1, XDATA, add(CFA_XSP16, literal(-9)))
          CFI (cfiCond159) V1 load(1, XDATA, add(CFA_XSP16, literal(-8)))
          CFI (cfiCond159) V2 load(1, XDATA, add(CFA_XSP16, literal(-7)))
          CFI (cfiCond159) R7 load(1, XDATA, add(CFA_XSP16, literal(-6)))
          CFI (cfiCond159) ?RET_LOW load(1, XDATA, add(CFA_XSP16, literal(-5)))
          CFI (cfiCond159) ?RET_HIGH load(1, XDATA, add(CFA_XSP16, literal(-4)))
          CFI (cfiCond159) ?BRET_EXT load(1, XDATA, add(CFA_XSP16, literal(-3)))
          CFI (cfiCond159) DPL0 load(1, XDATA, add(CFA_XSP16, literal(-2)))
          CFI (cfiCond159) DPH0 load(1, XDATA, add(CFA_XSP16, literal(-1)))
          CFI (cfiCond159) CFA_SP SP+0
          CFI (cfiCond159) CFA_XSP16 add(XSP16, 13)
          CFI Block cfiCond160 Using cfiCommon0
          CFI (cfiCond160) Function ZDSecMgrDeviceEntryAdd
          CFI (cfiCond160) Conditional ??CrossCallReturnLabel_111
          CFI (cfiCond160) R6 load(1, XDATA, add(CFA_XSP16, literal(-11)))
          CFI (cfiCond160) VB load(1, XDATA, add(CFA_XSP16, literal(-10)))
          CFI (cfiCond160) V0 load(1, XDATA, add(CFA_XSP16, literal(-9)))
          CFI (cfiCond160) V1 load(1, XDATA, add(CFA_XSP16, literal(-8)))
          CFI (cfiCond160) V2 load(1, XDATA, add(CFA_XSP16, literal(-7)))
          CFI (cfiCond160) R7 load(1, XDATA, add(CFA_XSP16, literal(-6)))
          CFI (cfiCond160) ?RET_LOW load(1, XDATA, add(CFA_XSP16, literal(-5)))
          CFI (cfiCond160) ?RET_HIGH load(1, XDATA, add(CFA_XSP16, literal(-4)))
          CFI (cfiCond160) ?BRET_EXT load(1, XDATA, add(CFA_XSP16, literal(-3)))
          CFI (cfiCond160) DPL0 load(1, XDATA, add(CFA_XSP16, literal(-2)))
          CFI (cfiCond160) DPH0 load(1, XDATA, add(CFA_XSP16, literal(-1)))
          CFI (cfiCond160) CFA_SP SP+0
          CFI (cfiCond160) CFA_XSP16 add(XSP16, 13)
          CFI Block cfiCond161 Using cfiCommon0
          CFI (cfiCond161) Function APSME_LinkKeyDataGet
          CFI (cfiCond161) Conditional ??CrossCallReturnLabel_112
          CFI (cfiCond161) R6 load(1, XDATA, add(CFA_XSP16, literal(-9)))
          CFI (cfiCond161) VB load(1, XDATA, add(CFA_XSP16, literal(-8)))
          CFI (cfiCond161) V0 load(1, XDATA, add(CFA_XSP16, literal(-7)))
          CFI (cfiCond161) R7 load(1, XDATA, add(CFA_XSP16, literal(-6)))
          CFI (cfiCond161) ?RET_LOW load(1, XDATA, add(CFA_XSP16, literal(-5)))
          CFI (cfiCond161) ?RET_HIGH load(1, XDATA, add(CFA_XSP16, literal(-4)))
          CFI (cfiCond161) ?BRET_EXT load(1, XDATA, add(CFA_XSP16, literal(-3)))
          CFI (cfiCond161) DPL0 load(1, XDATA, add(CFA_XSP16, literal(-2)))
          CFI (cfiCond161) DPH0 load(1, XDATA, add(CFA_XSP16, literal(-1)))
          CFI (cfiCond161) CFA_SP SP+0
          CFI (cfiCond161) CFA_XSP16 add(XSP16, 11)
          CFI Block cfiPicker162 Using cfiCommon1
          CFI (cfiPicker162) NoFunction
          CFI (cfiPicker162) Picker
        MOVX    A,@DPTR
        MOV     R0,A
          CFI EndBlock cfiCond157
          CFI EndBlock cfiCond158
          CFI EndBlock cfiCond159
          CFI EndBlock cfiCond160
          CFI EndBlock cfiCond161
          CFI EndBlock cfiPicker162
        REQUIRE ??Subroutine78_0
        ; // Fall through to label ??Subroutine78_0

        RSEG BANKED_CODE:CODE:NOROOT(0)
??Subroutine78_0:
          CFI Block cfiCond163 Using cfiCommon0
          CFI Function ZDSecMgrCtrlTerm
          CFI Conditional ??CrossCallReturnLabel_107
          CFI DPL0 Frame(CFA_SP, 4)
          CFI DPH0 Frame(CFA_SP, 5)
          CFI CFA_SP SP+-5
          CFI CFA_XSP16 add(XSP16, 2)
          CFI Block cfiCond164 Using cfiCommon0
          CFI (cfiCond164) Function ZDSecMgrSendMasterKey
          CFI (cfiCond164) Conditional ??CrossCallReturnLabel_108
          CFI (cfiCond164) R6 load(1, XDATA, add(CFA_XSP16, literal(-10)))
          CFI (cfiCond164) VB load(1, XDATA, add(CFA_XSP16, literal(-9)))
          CFI (cfiCond164) V0 load(1, XDATA, add(CFA_XSP16, literal(-8)))
          CFI (cfiCond164) V1 load(1, XDATA, add(CFA_XSP16, literal(-7)))
          CFI (cfiCond164) R7 load(1, XDATA, add(CFA_XSP16, literal(-6)))
          CFI (cfiCond164) ?RET_LOW load(1, XDATA, add(CFA_XSP16, literal(-5)))
          CFI (cfiCond164) ?RET_HIGH load(1, XDATA, add(CFA_XSP16, literal(-4)))
          CFI (cfiCond164) ?BRET_EXT load(1, XDATA, add(CFA_XSP16, literal(-3)))
          CFI (cfiCond164) DPL0 load(1, XDATA, add(CFA_XSP16, literal(-2)))
          CFI (cfiCond164) DPH0 load(1, XDATA, add(CFA_XSP16, literal(-1)))
          CFI (cfiCond164) CFA_SP SP+0
          CFI (cfiCond164) CFA_XSP16 add(XSP16, 23)
          CFI Block cfiCond165 Using cfiCommon0
          CFI (cfiCond165) Function ZDSecMgrSendMasterKey
          CFI (cfiCond165) Conditional ??CrossCallReturnLabel_109
          CFI (cfiCond165) R6 load(1, XDATA, add(CFA_XSP16, literal(-10)))
          CFI (cfiCond165) VB load(1, XDATA, add(CFA_XSP16, literal(-9)))
          CFI (cfiCond165) V0 load(1, XDATA, add(CFA_XSP16, literal(-8)))
          CFI (cfiCond165) V1 load(1, XDATA, add(CFA_XSP16, literal(-7)))
          CFI (cfiCond165) R7 load(1, XDATA, add(CFA_XSP16, literal(-6)))
          CFI (cfiCond165) ?RET_LOW load(1, XDATA, add(CFA_XSP16, literal(-5)))
          CFI (cfiCond165) ?RET_HIGH load(1, XDATA, add(CFA_XSP16, literal(-4)))
          CFI (cfiCond165) ?BRET_EXT load(1, XDATA, add(CFA_XSP16, literal(-3)))
          CFI (cfiCond165) DPL0 load(1, XDATA, add(CFA_XSP16, literal(-2)))
          CFI (cfiCond165) DPH0 load(1, XDATA, add(CFA_XSP16, literal(-1)))
          CFI (cfiCond165) CFA_SP SP+0
          CFI (cfiCond165) CFA_XSP16 add(XSP16, 23)
          CFI Block cfiCond166 Using cfiCommon0
          CFI (cfiCond166) Function ZDSecMgrDeviceEntryAdd
          CFI (cfiCond166) Conditional ??CrossCallReturnLabel_110
          CFI (cfiCond166) R6 load(1, XDATA, add(CFA_XSP16, literal(-11)))
          CFI (cfiCond166) VB load(1, XDATA, add(CFA_XSP16, literal(-10)))
          CFI (cfiCond166) V0 load(1, XDATA, add(CFA_XSP16, literal(-9)))
          CFI (cfiCond166) V1 load(1, XDATA, add(CFA_XSP16, literal(-8)))
          CFI (cfiCond166) V2 load(1, XDATA, add(CFA_XSP16, literal(-7)))
          CFI (cfiCond166) R7 load(1, XDATA, add(CFA_XSP16, literal(-6)))
          CFI (cfiCond166) ?RET_LOW load(1, XDATA, add(CFA_XSP16, literal(-5)))
          CFI (cfiCond166) ?RET_HIGH load(1, XDATA, add(CFA_XSP16, literal(-4)))
          CFI (cfiCond166) ?BRET_EXT load(1, XDATA, add(CFA_XSP16, literal(-3)))
          CFI (cfiCond166) DPL0 load(1, XDATA, add(CFA_XSP16, literal(-2)))
          CFI (cfiCond166) DPH0 load(1, XDATA, add(CFA_XSP16, literal(-1)))
          CFI (cfiCond166) CFA_SP SP+0
          CFI (cfiCond166) CFA_XSP16 add(XSP16, 13)
          CFI Block cfiCond167 Using cfiCommon0
          CFI (cfiCond167) Function ZDSecMgrDeviceEntryAdd
          CFI (cfiCond167) Conditional ??CrossCallReturnLabel_111
          CFI (cfiCond167) R6 load(1, XDATA, add(CFA_XSP16, literal(-11)))
          CFI (cfiCond167) VB load(1, XDATA, add(CFA_XSP16, literal(-10)))
          CFI (cfiCond167) V0 load(1, XDATA, add(CFA_XSP16, literal(-9)))
          CFI (cfiCond167) V1 load(1, XDATA, add(CFA_XSP16, literal(-8)))
          CFI (cfiCond167) V2 load(1, XDATA, add(CFA_XSP16, literal(-7)))
          CFI (cfiCond167) R7 load(1, XDATA, add(CFA_XSP16, literal(-6)))
          CFI (cfiCond167) ?RET_LOW load(1, XDATA, add(CFA_XSP16, literal(-5)))
          CFI (cfiCond167) ?RET_HIGH load(1, XDATA, add(CFA_XSP16, literal(-4)))
          CFI (cfiCond167) ?BRET_EXT load(1, XDATA, add(CFA_XSP16, literal(-3)))
          CFI (cfiCond167) DPL0 load(1, XDATA, add(CFA_XSP16, literal(-2)))
          CFI (cfiCond167) DPH0 load(1, XDATA, add(CFA_XSP16, literal(-1)))
          CFI (cfiCond167) CFA_SP SP+0
          CFI (cfiCond167) CFA_XSP16 add(XSP16, 13)
          CFI Block cfiCond168 Using cfiCommon0
          CFI (cfiCond168) Function APSME_LinkKeyDataGet
          CFI (cfiCond168) Conditional ??CrossCallReturnLabel_112
          CFI (cfiCond168) R6 load(1, XDATA, add(CFA_XSP16, literal(-9)))
          CFI (cfiCond168) VB load(1, XDATA, add(CFA_XSP16, literal(-8)))
          CFI (cfiCond168) V0 load(1, XDATA, add(CFA_XSP16, literal(-7)))
          CFI (cfiCond168) R7 load(1, XDATA, add(CFA_XSP16, literal(-6)))
          CFI (cfiCond168) ?RET_LOW load(1, XDATA, add(CFA_XSP16, literal(-5)))
          CFI (cfiCond168) ?RET_HIGH load(1, XDATA, add(CFA_XSP16, literal(-4)))
          CFI (cfiCond168) ?BRET_EXT load(1, XDATA, add(CFA_XSP16, literal(-3)))
          CFI (cfiCond168) DPL0 load(1, XDATA, add(CFA_XSP16, literal(-2)))
          CFI (cfiCond168) DPH0 load(1, XDATA, add(CFA_XSP16, literal(-1)))
          CFI (cfiCond168) CFA_SP SP+0
          CFI (cfiCond168) CFA_XSP16 add(XSP16, 11)
          CFI Block cfiPicker169 Using cfiCommon1
          CFI (cfiPicker169) NoFunction
          CFI (cfiPicker169) Picker
        INC     DPTR
        MOVX    A,@DPTR
        MOV     DPH,A
        MOV     DPL,R0
        RET
          CFI EndBlock cfiCond163
          CFI EndBlock cfiCond164
          CFI EndBlock cfiCond165
          CFI EndBlock cfiCond166
          CFI EndBlock cfiCond167
          CFI EndBlock cfiCond168
          CFI EndBlock cfiPicker169

        RSEG BANKED_CODE:CODE:NOROOT(0)
?Subroutine47:
          CFI Block cfiCond170 Using cfiCommon0
          CFI Function ZDSecMgrDeviceRemoveByExtAddr
          CFI Conditional ??CrossCallReturnLabel_54
          CFI DPL0 Frame(CFA_SP, 4)
          CFI DPH0 Frame(CFA_SP, 5)
          CFI CFA_SP SP+-5
          CFI CFA_XSP16 add(XSP16, 2)
          CFI Block cfiCond171 Using cfiCommon0
          CFI (cfiCond171) Function ZDSecMgrDeviceEntryAdd
          CFI (cfiCond171) Conditional ??CrossCallReturnLabel_55
          CFI (cfiCond171) R6 load(1, XDATA, add(CFA_XSP16, literal(-11)))
          CFI (cfiCond171) VB load(1, XDATA, add(CFA_XSP16, literal(-10)))
          CFI (cfiCond171) V0 load(1, XDATA, add(CFA_XSP16, literal(-9)))
          CFI (cfiCond171) V1 load(1, XDATA, add(CFA_XSP16, literal(-8)))
          CFI (cfiCond171) V2 load(1, XDATA, add(CFA_XSP16, literal(-7)))
          CFI (cfiCond171) R7 load(1, XDATA, add(CFA_XSP16, literal(-6)))
          CFI (cfiCond171) ?RET_LOW load(1, XDATA, add(CFA_XSP16, literal(-5)))
          CFI (cfiCond171) ?RET_HIGH load(1, XDATA, add(CFA_XSP16, literal(-4)))
          CFI (cfiCond171) ?BRET_EXT load(1, XDATA, add(CFA_XSP16, literal(-3)))
          CFI (cfiCond171) DPL0 load(1, XDATA, add(CFA_XSP16, literal(-2)))
          CFI (cfiCond171) DPH0 load(1, XDATA, add(CFA_XSP16, literal(-1)))
          CFI (cfiCond171) CFA_SP SP+0
          CFI (cfiCond171) CFA_XSP16 add(XSP16, 13)
          CFI Block cfiPicker172 Using cfiCommon1
          CFI (cfiPicker172) NoFunction
          CFI (cfiPicker172) Picker
        INC     DPTR
        MOVX    A,@DPTR
        MOV     DPH,A
        MOV     DPL,R0
        MOV     A,#-0x2
        MOVX    @DPTR,A
        INC     DPTR
        INC     A
        RET
          CFI EndBlock cfiCond170
          CFI EndBlock cfiCond171
          CFI EndBlock cfiPicker172

        RSEG BANKED_CODE:CODE:NOROOT(0)
?Subroutine26:
          CFI Block cfiCond173 Using cfiCommon0
          CFI Function ZDSecMgrDeviceEntryAdd
          CFI Conditional ??CrossCallReturnLabel_17
          CFI R6 load(1, XDATA, add(CFA_XSP16, literal(-11)))
          CFI VB load(1, XDATA, add(CFA_XSP16, literal(-10)))
          CFI V0 load(1, XDATA, add(CFA_XSP16, literal(-9)))
          CFI V1 load(1, XDATA, add(CFA_XSP16, literal(-8)))
          CFI V2 load(1, XDATA, add(CFA_XSP16, literal(-7)))
          CFI R7 load(1, XDATA, add(CFA_XSP16, literal(-6)))
          CFI ?RET_LOW load(1, XDATA, add(CFA_XSP16, literal(-5)))
          CFI ?RET_HIGH load(1, XDATA, add(CFA_XSP16, literal(-4)))
          CFI ?BRET_EXT load(1, XDATA, add(CFA_XSP16, literal(-3)))
          CFI DPL0 load(1, XDATA, add(CFA_XSP16, literal(-2)))
          CFI DPH0 load(1, XDATA, add(CFA_XSP16, literal(-1)))
          CFI CFA_SP SP+0
          CFI CFA_XSP16 add(XSP16, 13)
          CFI Block cfiCond174 Using cfiCommon0
          CFI (cfiCond174) Function ZDSecMgrDeviceEntryAdd
          CFI (cfiCond174) Conditional ??CrossCallReturnLabel_18
          CFI (cfiCond174) R6 load(1, XDATA, add(CFA_XSP16, literal(-11)))
          CFI (cfiCond174) VB load(1, XDATA, add(CFA_XSP16, literal(-10)))
          CFI (cfiCond174) V0 load(1, XDATA, add(CFA_XSP16, literal(-9)))
          CFI (cfiCond174) V1 load(1, XDATA, add(CFA_XSP16, literal(-8)))
          CFI (cfiCond174) V2 load(1, XDATA, add(CFA_XSP16, literal(-7)))
          CFI (cfiCond174) R7 load(1, XDATA, add(CFA_XSP16, literal(-6)))
          CFI (cfiCond174) ?RET_LOW load(1, XDATA, add(CFA_XSP16, literal(-5)))
          CFI (cfiCond174) ?RET_HIGH load(1, XDATA, add(CFA_XSP16, literal(-4)))
          CFI (cfiCond174) ?BRET_EXT load(1, XDATA, add(CFA_XSP16, literal(-3)))
          CFI (cfiCond174) DPL0 load(1, XDATA, add(CFA_XSP16, literal(-2)))
          CFI (cfiCond174) DPH0 load(1, XDATA, add(CFA_XSP16, literal(-1)))
          CFI (cfiCond174) CFA_SP SP+0
          CFI (cfiCond174) CFA_XSP16 add(XSP16, 13)
          CFI Block cfiPicker175 Using cfiCommon1
          CFI (cfiPicker175) NoFunction
          CFI (cfiPicker175) Picker
        MOVX    @DPTR,A
        ; Setup parameters for call to function ZDSecMgrEntryLookup
        ; Setup parameters for call to function ZDSecMgrEntryLookupAMI
        MOV     DPL,?XSP + 0
        MOV     DPH,?XSP + 1
        MOV     R4,DPL
        MOV     R5,DPH
        RET
          CFI EndBlock cfiCond173
          CFI EndBlock cfiCond174
          CFI EndBlock cfiPicker175

        RSEG BANKED_CODE:CODE:NOROOT(0)
?Subroutine21:
          CFI Block cfiCond176 Using cfiCommon0
          CFI Function ZDSecMgrAppKeyReq
          CFI Conditional ??CrossCallReturnLabel_6
          CFI R6 load(1, XDATA, add(CFA_XSP16, literal(-10)))
          CFI VB load(1, XDATA, add(CFA_XSP16, literal(-9)))
          CFI V0 load(1, XDATA, add(CFA_XSP16, literal(-8)))
          CFI V1 load(1, XDATA, add(CFA_XSP16, literal(-7)))
          CFI R7 load(1, XDATA, add(CFA_XSP16, literal(-6)))
          CFI ?RET_LOW load(1, XDATA, add(CFA_XSP16, literal(-5)))
          CFI ?RET_HIGH load(1, XDATA, add(CFA_XSP16, literal(-4)))
          CFI ?BRET_EXT load(1, XDATA, add(CFA_XSP16, literal(-3)))
          CFI DPL0 load(1, XDATA, add(CFA_XSP16, literal(-2)))
          CFI DPH0 load(1, XDATA, add(CFA_XSP16, literal(-1)))
          CFI CFA_SP SP+0
          CFI CFA_XSP16 add(XSP16, 49)
          CFI Block cfiCond177 Using cfiCommon0
          CFI (cfiCond177) Function ZDSecMgrDeviceEntryAdd
          CFI (cfiCond177) Conditional ??CrossCallReturnLabel_7
          CFI (cfiCond177) R6 load(1, XDATA, add(CFA_XSP16, literal(-11)))
          CFI (cfiCond177) VB load(1, XDATA, add(CFA_XSP16, literal(-10)))
          CFI (cfiCond177) V0 load(1, XDATA, add(CFA_XSP16, literal(-9)))
          CFI (cfiCond177) V1 load(1, XDATA, add(CFA_XSP16, literal(-8)))
          CFI (cfiCond177) V2 load(1, XDATA, add(CFA_XSP16, literal(-7)))
          CFI (cfiCond177) R7 load(1, XDATA, add(CFA_XSP16, literal(-6)))
          CFI (cfiCond177) ?RET_LOW load(1, XDATA, add(CFA_XSP16, literal(-5)))
          CFI (cfiCond177) ?RET_HIGH load(1, XDATA, add(CFA_XSP16, literal(-4)))
          CFI (cfiCond177) ?BRET_EXT load(1, XDATA, add(CFA_XSP16, literal(-3)))
          CFI (cfiCond177) DPL0 load(1, XDATA, add(CFA_XSP16, literal(-2)))
          CFI (cfiCond177) DPH0 load(1, XDATA, add(CFA_XSP16, literal(-1)))
          CFI (cfiCond177) CFA_SP SP+0
          CFI (cfiCond177) CFA_XSP16 add(XSP16, 13)
          CFI Block cfiCond178 Using cfiCommon0
          CFI (cfiCond178) Function ZDSecMgrEstablishKeyInd
          CFI (cfiCond178) Conditional ??CrossCallReturnLabel_8
          CFI (cfiCond178) R6 load(1, XDATA, add(CFA_XSP16, literal(-12)))
          CFI (cfiCond178) VB load(1, XDATA, add(CFA_XSP16, literal(-11)))
          CFI (cfiCond178) V0 load(1, XDATA, add(CFA_XSP16, literal(-10)))
          CFI (cfiCond178) V1 load(1, XDATA, add(CFA_XSP16, literal(-9)))
          CFI (cfiCond178) V2 load(1, XDATA, add(CFA_XSP16, literal(-8)))
          CFI (cfiCond178) V3 load(1, XDATA, add(CFA_XSP16, literal(-7)))
          CFI (cfiCond178) R7 load(1, XDATA, add(CFA_XSP16, literal(-6)))
          CFI (cfiCond178) ?RET_LOW load(1, XDATA, add(CFA_XSP16, literal(-5)))
          CFI (cfiCond178) ?RET_HIGH load(1, XDATA, add(CFA_XSP16, literal(-4)))
          CFI (cfiCond178) ?BRET_EXT load(1, XDATA, add(CFA_XSP16, literal(-3)))
          CFI (cfiCond178) DPL0 load(1, XDATA, add(CFA_XSP16, literal(-2)))
          CFI (cfiCond178) DPH0 load(1, XDATA, add(CFA_XSP16, literal(-1)))
          CFI (cfiCond178) CFA_SP SP+0
          CFI (cfiCond178) CFA_XSP16 add(XSP16, 29)
          CFI Block cfiPicker179 Using cfiCommon1
          CFI (cfiPicker179) NoFunction
          CFI (cfiPicker179) Picker
        MOVX    @DPTR,A
        ; Setup parameters for call to function ZDSecMgrAddrMgrUpdate
        MOV     DPL,?V0 + 0
        MOV     DPH,?V0 + 1
        MOVX    A,@DPTR
        RET
          CFI EndBlock cfiCond176
          CFI EndBlock cfiCond177
          CFI EndBlock cfiCond178
          CFI EndBlock cfiPicker179
// 1571 
// 1572 /******************************************************************************
// 1573  * @fn          ZDSecMgrDeviceCtrlHandler
// 1574  *
// 1575  * @brief       Device control handler.
// 1576  *
// 1577  * @param       device - [in] ZDSecMgrDevice_t, device info
// 1578  *
// 1579  * @return      none
// 1580  */

        RSEG BANKED_CODE:CODE:NOROOT(0)
// 1581 void ZDSecMgrDeviceCtrlHandler( ZDSecMgrDevice_t* device )
ZDSecMgrDeviceCtrlHandler:
          CFI Block cfiBlock180 Using cfiCommon0
          CFI Function ZDSecMgrDeviceCtrlHandler
        CODE
// 1582 {
        FUNCALL ZDSecMgrDeviceCtrlHandler, ZDSecMgrSendMasterKey
        LOCFRAME ISTACK, 0, STACK
        LOCFRAME PSTACK, 0, STACK
        LOCFRAME XSTACK, 9, STACK
        LOCFRAME IOVERLAY, 0, STATIC
        LOCFRAME DOVERLAY, 0, STATIC
        ARGFRAME ISTACK, 0, STACK
        ARGFRAME PSTACK, 0, STACK
        ARGFRAME XSTACK, 9, STACK
        ARGFRAME IOVERLAY, 0, STATIC
        ARGFRAME DOVERLAY, 0, STATIC
        FUNCALL ZDSecMgrDeviceCtrlHandler, ZDSecMgrEstablishKey
        LOCFRAME ISTACK, 0, STACK
        LOCFRAME PSTACK, 0, STACK
        LOCFRAME XSTACK, 9, STACK
        LOCFRAME IOVERLAY, 0, STATIC
        LOCFRAME DOVERLAY, 0, STATIC
        ARGFRAME ISTACK, 0, STACK
        ARGFRAME PSTACK, 0, STACK
        ARGFRAME XSTACK, 9, STACK
        ARGFRAME IOVERLAY, 0, STATIC
        ARGFRAME DOVERLAY, 0, STATIC
        FUNCALL ZDSecMgrDeviceCtrlHandler, ZDSecMgrSendNwkKey
        LOCFRAME ISTACK, 0, STACK
        LOCFRAME PSTACK, 0, STACK
        LOCFRAME XSTACK, 9, STACK
        LOCFRAME IOVERLAY, 0, STATIC
        LOCFRAME DOVERLAY, 0, STATIC
        ARGFRAME ISTACK, 0, STACK
        ARGFRAME PSTACK, 0, STACK
        ARGFRAME XSTACK, 9, STACK
        ARGFRAME IOVERLAY, 0, STATIC
        ARGFRAME DOVERLAY, 0, STATIC
        FUNCALL ZDSecMgrDeviceCtrlHandler, osal_start_timerEx
        LOCFRAME ISTACK, 0, STACK
        LOCFRAME PSTACK, 0, STACK
        LOCFRAME XSTACK, 9, STACK
        LOCFRAME IOVERLAY, 0, STATIC
        LOCFRAME DOVERLAY, 0, STATIC
        ARGFRAME ISTACK, 0, STACK
        ARGFRAME PSTACK, 0, STACK
        ARGFRAME XSTACK, 9, STACK
        ARGFRAME IOVERLAY, 0, STATIC
        ARGFRAME DOVERLAY, 0, STATIC
        MOV     A,#-0x9
        LCALL   ?BANKED_ENTER_XDATA
          CFI DPH0 load(1, XDATA, add(CFA_XSP16, literal(-1)))
          CFI DPL0 load(1, XDATA, add(CFA_XSP16, literal(-2)))
          CFI ?BRET_EXT load(1, XDATA, add(CFA_XSP16, literal(-3)))
          CFI ?RET_HIGH load(1, XDATA, add(CFA_XSP16, literal(-4)))
          CFI ?RET_LOW load(1, XDATA, add(CFA_XSP16, literal(-5)))
          CFI R7 load(1, XDATA, add(CFA_XSP16, literal(-6)))
          CFI V0 load(1, XDATA, add(CFA_XSP16, literal(-7)))
          CFI VB load(1, XDATA, add(CFA_XSP16, literal(-8)))
          CFI R6 load(1, XDATA, add(CFA_XSP16, literal(-9)))
          CFI CFA_SP SP+0
          CFI CFA_XSP16 add(XSP16, 9)
        ; Saved register size: 9
        ; Auto size: 0
// 1583   uint8 state;
// 1584   uint8 cntr;
// 1585 
// 1586 
// 1587   state = device->ctrl->state;
        MOV     A,R2
        ADD     A,#0x8
        MOV     R0,A
        MOV     A,R3
        ADDC    A,#0x0
        MOV     R1,A
        MOV     A,R0
        MOV     R6,A
        MOV     A,R1
        MOV     R7,A
        LCALL   ?Subroutine39 & 0xFFFF
??CrossCallReturnLabel_42:
        MOVX    A,@DPTR
        MOV     ?V0 + 0,A
// 1588   cntr  = ZDSECMGR_CTRL_BASE_CNTR;
// 1589 
// 1590   switch ( state )
        ADD     A,#-0x2
        JZ      ??ZDSecMgrDeviceCtrlHandler_0
        DEC     A
        JZ      ??ZDSecMgrDeviceCtrlHandler_1
        DEC     A
        JZ      ??ZDSecMgrDeviceCtrlHandler_2
        ADD     A,#-0x3
        JZ      ??ZDSecMgrDeviceCtrlHandler_3
        SJMP    ??ZDSecMgrDeviceCtrlHandler_4
// 1591   {
// 1592     case ZDSECMGR_CTRL_TK_MASTER:
// 1593       if ( ZDSecMgrSendMasterKey( device ) == ZSuccess )
??ZDSecMgrDeviceCtrlHandler_0:
        ; Setup parameters for call to function ZDSecMgrSendMasterKey
        LCALL   ??ZDSecMgrSendMasterKey?relay
        MOV     A,R1
        JNZ     ??ZDSecMgrDeviceCtrlHandler_2
// 1594       {
// 1595         state = ZDSECMGR_CTRL_SKKE_INIT;
        MOV     ?V0 + 0,#0x3
// 1596         cntr  = ZDSECMGR_CTRL_SKKE_INIT_CNTR;
        SJMP    ??ZDSecMgrDeviceCtrlHandler_2
// 1597       }
// 1598       break;
// 1599 
// 1600     case ZDSECMGR_CTRL_SKKE_INIT:
// 1601       if ( ZDSecMgrEstablishKey( device ) == ZSuccess )
??ZDSecMgrDeviceCtrlHandler_1:
        ; Setup parameters for call to function ZDSecMgrEstablishKey
        LCALL   ??ZDSecMgrEstablishKey?relay
        MOV     A,R1
        JNZ     ??ZDSecMgrDeviceCtrlHandler_2
// 1602       {
// 1603         state = ZDSECMGR_CTRL_SKKE_WAIT;
        MOV     ?V0 + 0,#0x4
        SJMP    ??ZDSecMgrDeviceCtrlHandler_2
// 1604       }
// 1605       break;
// 1606 
// 1607     case ZDSECMGR_CTRL_SKKE_WAIT:
// 1608       // continue to wait for SKA control timeout
// 1609       break;
// 1610 
// 1611     case ZDSECMGR_CTRL_TK_NWK:
// 1612       if ( ZDSecMgrSendNwkKey( device ) == ZSuccess )
??ZDSecMgrDeviceCtrlHandler_3:
        ; Setup parameters for call to function ZDSecMgrSendNwkKey
        LCALL   ??ZDSecMgrSendNwkKey?relay
        MOV     A,R1
        JZ      ??ZDSecMgrDeviceCtrlHandler_4
// 1613       {
// 1614         state = ZDSECMGR_CTRL_NONE;
// 1615       }
// 1616       break;
// 1617 
// 1618     default:
// 1619       state = ZDSECMGR_CTRL_NONE;
// 1620       break;
// 1621   }
// 1622 
// 1623   if ( state != ZDSECMGR_CTRL_NONE )
// 1624   {
// 1625     device->ctrl->state = state;
??ZDSecMgrDeviceCtrlHandler_2:
        LCALL   ?Subroutine39 & 0xFFFF
??CrossCallReturnLabel_43:
        MOV     A,?V0 + 0
        MOVX    @DPTR,A
// 1626     device->ctrl->cntr  = cntr;
        MOV     DPL,R6
        MOV     DPH,R7
        LCALL   ??Subroutine101_0 & 0xFFFF
??CrossCallReturnLabel_239:
        LCALL   ?Subroutine59 & 0xFFFF
??CrossCallReturnLabel_257:
        MOV     A,#0x1
        MOVX    @DPTR,A
// 1627 
// 1628     osal_start_timerEx(ZDAppTaskID, ZDO_SECMGR_EVENT, 100 );
        ; Setup parameters for call to function osal_start_timerEx
        MOV     R4,#0x64
        MOV     R5,#0x0
        MOV     R2,#0x0
        MOV     R3,A
        MOV     DPTR,#ZDAppTaskID
        MOVX    A,@DPTR
        MOV     R1,A
        LCALL   ??osal_start_timerEx?relay
        SJMP    ??ZDSecMgrDeviceCtrlHandler_5
// 1629   }
// 1630   else
// 1631   {
// 1632     ZDSecMgrCtrlRelease( device->ctrl );
??ZDSecMgrDeviceCtrlHandler_4:
        LCALL   ?Subroutine39 & 0xFFFF
??CrossCallReturnLabel_44:
        CLR     A
        MOVX    @DPTR,A
// 1633   }
// 1634 }
??ZDSecMgrDeviceCtrlHandler_5:
        LJMP    ??Subroutine83_0 & 0xFFFF
          CFI EndBlock cfiBlock180

        RSEG BANKED_CODE:CODE:NOROOT(0)
?Subroutine39:
          CFI Block cfiCond181 Using cfiCommon0
          CFI Function ZDSecMgrDeviceCtrlHandler
          CFI Conditional ??CrossCallReturnLabel_42
          CFI R6 load(1, XDATA, add(CFA_XSP16, literal(-9)))
          CFI VB load(1, XDATA, add(CFA_XSP16, literal(-8)))
          CFI V0 load(1, XDATA, add(CFA_XSP16, literal(-7)))
          CFI R7 load(1, XDATA, add(CFA_XSP16, literal(-6)))
          CFI ?RET_LOW load(1, XDATA, add(CFA_XSP16, literal(-5)))
          CFI ?RET_HIGH load(1, XDATA, add(CFA_XSP16, literal(-4)))
          CFI ?BRET_EXT load(1, XDATA, add(CFA_XSP16, literal(-3)))
          CFI DPL0 load(1, XDATA, add(CFA_XSP16, literal(-2)))
          CFI DPH0 load(1, XDATA, add(CFA_XSP16, literal(-1)))
          CFI CFA_SP SP+0
          CFI CFA_XSP16 add(XSP16, 9)
          CFI Block cfiCond182 Using cfiCommon0
          CFI (cfiCond182) Function ZDSecMgrDeviceCtrlHandler
          CFI (cfiCond182) Conditional ??CrossCallReturnLabel_43
          CFI (cfiCond182) R6 load(1, XDATA, add(CFA_XSP16, literal(-9)))
          CFI (cfiCond182) VB load(1, XDATA, add(CFA_XSP16, literal(-8)))
          CFI (cfiCond182) V0 load(1, XDATA, add(CFA_XSP16, literal(-7)))
          CFI (cfiCond182) R7 load(1, XDATA, add(CFA_XSP16, literal(-6)))
          CFI (cfiCond182) ?RET_LOW load(1, XDATA, add(CFA_XSP16, literal(-5)))
          CFI (cfiCond182) ?RET_HIGH load(1, XDATA, add(CFA_XSP16, literal(-4)))
          CFI (cfiCond182) ?BRET_EXT load(1, XDATA, add(CFA_XSP16, literal(-3)))
          CFI (cfiCond182) DPL0 load(1, XDATA, add(CFA_XSP16, literal(-2)))
          CFI (cfiCond182) DPH0 load(1, XDATA, add(CFA_XSP16, literal(-1)))
          CFI (cfiCond182) CFA_SP SP+0
          CFI (cfiCond182) CFA_XSP16 add(XSP16, 9)
          CFI Block cfiCond183 Using cfiCommon0
          CFI (cfiCond183) Function ZDSecMgrDeviceCtrlHandler
          CFI (cfiCond183) Conditional ??CrossCallReturnLabel_44
          CFI (cfiCond183) R6 load(1, XDATA, add(CFA_XSP16, literal(-9)))
          CFI (cfiCond183) VB load(1, XDATA, add(CFA_XSP16, literal(-8)))
          CFI (cfiCond183) V0 load(1, XDATA, add(CFA_XSP16, literal(-7)))
          CFI (cfiCond183) R7 load(1, XDATA, add(CFA_XSP16, literal(-6)))
          CFI (cfiCond183) ?RET_LOW load(1, XDATA, add(CFA_XSP16, literal(-5)))
          CFI (cfiCond183) ?RET_HIGH load(1, XDATA, add(CFA_XSP16, literal(-4)))
          CFI (cfiCond183) ?BRET_EXT load(1, XDATA, add(CFA_XSP16, literal(-3)))
          CFI (cfiCond183) DPL0 load(1, XDATA, add(CFA_XSP16, literal(-2)))
          CFI (cfiCond183) DPH0 load(1, XDATA, add(CFA_XSP16, literal(-1)))
          CFI (cfiCond183) CFA_SP SP+0
          CFI (cfiCond183) CFA_XSP16 add(XSP16, 9)
          CFI Block cfiPicker184 Using cfiCommon1
          CFI (cfiPicker184) NoFunction
          CFI (cfiPicker184) Picker
        MOV     DPL,R6
        MOV     DPH,R7
        LCALL   ?Subroutine72 & 0xFFFF
??CrossCallReturnLabel_244:
        MOV     DPH,A
        MOV     DPL,R0
        INC     DPTR
        INC     DPTR
        INC     DPTR
        INC     DPTR
        INC     DPTR
        RET
          CFI EndBlock cfiCond181
          CFI EndBlock cfiCond182
          CFI EndBlock cfiCond183
          CFI EndBlock cfiPicker184
// 1635 
// 1636 /******************************************************************************
// 1637  * @fn          ZDSecMgrDeviceCtrlSetup
// 1638  *
// 1639  * @brief       Setup device control.
// 1640  *
// 1641  * @param       device - [in] ZDSecMgrDevice_t, device info
// 1642  *
// 1643  * @return      ZStatus_t
// 1644  */

        RSEG BANKED_CODE:CODE:NOROOT(0)
// 1645 void ZDSecMgrDeviceCtrlSetup( ZDSecMgrDevice_t* device )
ZDSecMgrDeviceCtrlSetup:
          CFI Block cfiBlock185 Using cfiCommon0
          CFI Function ZDSecMgrDeviceCtrlSetup
        CODE
// 1646 {
        FUNCALL ZDSecMgrDeviceCtrlSetup, ZDSecMgrDeviceCtrlHandler
        LOCFRAME ISTACK, 2, STACK
        LOCFRAME PSTACK, 0, STACK
        LOCFRAME XSTACK, 0, STACK
        LOCFRAME IOVERLAY, 0, STATIC
        LOCFRAME DOVERLAY, 0, STATIC
        ARGFRAME ISTACK, 2, STACK
        ARGFRAME PSTACK, 0, STACK
        ARGFRAME XSTACK, 0, STACK
        ARGFRAME IOVERLAY, 0, STATIC
        ARGFRAME DOVERLAY, 0, STATIC
        PUSH    DPL
          CFI DPL0 Frame(CFA_SP, 4)
          CFI CFA_SP SP+-4
        PUSH    DPH
          CFI DPH0 Frame(CFA_SP, 5)
          CFI CFA_SP SP+-5
        ; Saved register size: 2
        ; Auto size: 0
// 1647   if ( device->ctrl != NULL )
        MOV     DPL,R2
        MOV     DPH,R3
        INC     DPTR
        INC     DPTR
        INC     DPTR
        INC     DPTR
        INC     DPTR
        INC     DPTR
        INC     DPTR
        INC     DPTR
        LCALL   ??Subroutine100_0 & 0xFFFF
??CrossCallReturnLabel_226:
        JZ      ??ZDSecMgrDeviceCtrlSetup_0
// 1648   {
// 1649     if ( device->secure == FALSE )
        MOV     A,R0
        ADD     A,#0x5
        MOV     R0,A
        MOV     A,R1
        ADDC    A,#0x0
        MOV     R1,A
        MOV     DPL,R2
        MOV     DPH,R3
        INC     DPTR
        INC     DPTR
        INC     DPTR
        INC     DPTR
        INC     DPTR
        INC     DPTR
        MOVX    A,@DPTR
        MOV     DPL,R0
        MOV     DPH,R1
        JNZ     ??ZDSecMgrDeviceCtrlSetup_1
// 1650     {
// 1651       // send the master key data to the joining device
// 1652       device->ctrl->state = ZDSECMGR_CTRL_TK_MASTER;
        MOV     A,#0x2
        SJMP    ??ZDSecMgrDeviceCtrlSetup_2
// 1653     }
// 1654     else
// 1655     {
// 1656       // start SKKE
// 1657       device->ctrl->state = ZDSECMGR_CTRL_SKKE_INIT;
??ZDSecMgrDeviceCtrlSetup_1:
        MOV     A,#0x3
??ZDSecMgrDeviceCtrlSetup_2:
        MOVX    @DPTR,A
// 1658     }
// 1659 
// 1660     ZDSecMgrDeviceCtrlHandler( device );
        ; Setup parameters for call to function ZDSecMgrDeviceCtrlHandler
        LCALL   ??ZDSecMgrDeviceCtrlHandler?relay
// 1661   }
// 1662 }
??ZDSecMgrDeviceCtrlSetup_0:
        LJMP    ??Subroutine89_0 & 0xFFFF
          CFI EndBlock cfiBlock185
// 1663 
// 1664 /******************************************************************************
// 1665  * @fn          ZDSecMgrDeviceCtrlUpdate
// 1666  *
// 1667  * @brief       Update control data.
// 1668  *
// 1669  * @param       extAddr - [in] EXT address
// 1670  * @param       state   - [in] new control state
// 1671  *
// 1672  * @return      none
// 1673  */

        RSEG BANKED_CODE:CODE:NOROOT(0)
// 1674 void ZDSecMgrDeviceCtrlUpdate( uint8* extAddr, uint8 state )
ZDSecMgrDeviceCtrlUpdate:
          CFI Block cfiBlock186 Using cfiCommon0
          CFI Function ZDSecMgrDeviceCtrlUpdate
        CODE
// 1675 {
        FUNCALL ZDSecMgrDeviceCtrlUpdate, ZDSecMgrEntryLookupExt
        LOCFRAME ISTACK, 0, STACK
        LOCFRAME PSTACK, 0, STACK
        LOCFRAME XSTACK, 13, STACK
        LOCFRAME IOVERLAY, 0, STATIC
        LOCFRAME DOVERLAY, 0, STATIC
        ARGFRAME ISTACK, 0, STACK
        ARGFRAME PSTACK, 0, STACK
        ARGFRAME XSTACK, 13, STACK
        ARGFRAME IOVERLAY, 0, STATIC
        ARGFRAME DOVERLAY, 0, STATIC
        FUNCALL ZDSecMgrDeviceCtrlUpdate, ZDSecMgrCtrlLookup
        LOCFRAME ISTACK, 0, STACK
        LOCFRAME PSTACK, 0, STACK
        LOCFRAME XSTACK, 13, STACK
        LOCFRAME IOVERLAY, 0, STATIC
        LOCFRAME DOVERLAY, 0, STATIC
        ARGFRAME ISTACK, 0, STACK
        ARGFRAME PSTACK, 0, STACK
        ARGFRAME XSTACK, 13, STACK
        ARGFRAME IOVERLAY, 0, STATIC
        ARGFRAME DOVERLAY, 0, STATIC
        MOV     A,#-0x9
        LCALL   ?BANKED_ENTER_XDATA
          CFI DPH0 load(1, XDATA, add(CFA_XSP16, literal(-1)))
          CFI DPL0 load(1, XDATA, add(CFA_XSP16, literal(-2)))
          CFI ?BRET_EXT load(1, XDATA, add(CFA_XSP16, literal(-3)))
          CFI ?RET_HIGH load(1, XDATA, add(CFA_XSP16, literal(-4)))
          CFI ?RET_LOW load(1, XDATA, add(CFA_XSP16, literal(-5)))
          CFI R7 load(1, XDATA, add(CFA_XSP16, literal(-6)))
          CFI V0 load(1, XDATA, add(CFA_XSP16, literal(-7)))
          CFI VB load(1, XDATA, add(CFA_XSP16, literal(-8)))
          CFI R6 load(1, XDATA, add(CFA_XSP16, literal(-9)))
          CFI CFA_SP SP+0
          CFI CFA_XSP16 add(XSP16, 9)
        ; Saved register size: 9
        ; Auto size: 4
        MOV     A,#-0x4
        LCALL   ?ALLOC_XSTACK8
          CFI CFA_XSP16 add(XSP16, 13)
        MOV     A,R1
        MOV     R6,A
// 1676   ZDSecMgrEntry_t* entry;
// 1677   ZDSecMgrCtrl_t*  ctrl;
// 1678 
// 1679 
// 1680   // lookup device entry data
// 1681   ZDSecMgrEntryLookupExt( extAddr, &entry );
        ; Setup parameters for call to function ZDSecMgrEntryLookupExt
        MOV     A,#0x2
        LCALL   ?XSTACK_DISP0_8
        MOV     R4,DPL
        MOV     R5,DPH
        LCALL   ??ZDSecMgrEntryLookupExt?relay
// 1682 
// 1683   if ( entry != NULL )
        MOV     A,#0x2
        LCALL   ?XSTACK_DISP0_8
        LCALL   ??Subroutine100_0 & 0xFFFF
??CrossCallReturnLabel_227:
        JZ      ??ZDSecMgrDeviceCtrlUpdate_0
// 1684   {
// 1685     // lookup device control data
// 1686     ZDSecMgrCtrlLookup( entry, &ctrl );
        ; Setup parameters for call to function ZDSecMgrCtrlLookup
        MOV     DPL,?XSP + 0
        MOV     DPH,?XSP + 1
        MOV     R4,DPL
        MOV     R5,DPH
        MOV     A,#0x2
        LCALL   ?XSTACK_DISP0_8
        LCALL   ??Subroutine85_0 & 0xFFFF
??CrossCallReturnLabel_130:
        LCALL   ??ZDSecMgrCtrlLookup?relay
// 1687 
// 1688     // make sure control data is valid
// 1689     if ( ctrl != NULL )
        LCALL   ?Subroutine38 & 0xFFFF
??CrossCallReturnLabel_234:
        JZ      ??ZDSecMgrDeviceCtrlUpdate_0
// 1690     {
// 1691       // possible state transitions
// 1692       if ( ctrl->state == ZDSECMGR_CTRL_SKKE_WAIT )
        MOV     DPL,?XSP + 0
        MOV     DPH,?XSP + 1
        MOVX    A,@DPTR
        ADD     A,#0x5
        MOV     R0,A
        INC     DPTR
        MOVX    A,@DPTR
        ADDC    A,#0x0
        MOV     R1,A
        MOV     DPL,R0
        MOV     DPH,R1
        MOVX    A,@DPTR
        XRL     A,#0x4
        JNZ     ??ZDSecMgrDeviceCtrlUpdate_0
// 1693       {
// 1694         if ( state == ZDSECMGR_CTRL_SKKE_DONE )
        MOV     A,#0x5
        XRL     A,R6
        JNZ     ??ZDSecMgrDeviceCtrlUpdate_1
// 1695         {
// 1696           // send the network key
// 1697           ctrl->state = ZDSECMGR_CTRL_TK_NWK;
        MOV     A,#0x7
        SJMP    ??ZDSecMgrDeviceCtrlUpdate_2
// 1698           ctrl->cntr  = ZDSECMGR_CTRL_TK_NWK_CNTR;
// 1699         }
// 1700         else if ( state == ZDSECMGR_CTRL_SKKE_FAIL )
??ZDSecMgrDeviceCtrlUpdate_1:
        MOV     A,#0x6
        XRL     A,R6
        JNZ     ??ZDSecMgrDeviceCtrlUpdate_0
// 1701         {
// 1702           // force default timeout in order to cleanup control logic
// 1703           ctrl->state = ZDSECMGR_CTRL_SKKE_FAIL;
        MOV     A,#0x6
// 1704           ctrl->cntr  = ZDSECMGR_CTRL_BASE_CNTR;
// 1705         }
// 1706       }
// 1707       // timer should be active
// 1708     }
// 1709   }
??ZDSecMgrDeviceCtrlUpdate_2:
        LCALL   ?Subroutine22 & 0xFFFF
??CrossCallReturnLabel_9:
        LCALL   ?Subroutine59 & 0xFFFF
??CrossCallReturnLabel_258:
        MOV     A,#0x1
        MOVX    @DPTR,A
          CFI EndBlock cfiBlock186
// 1710 }
??ZDSecMgrDeviceCtrlUpdate_0:
        REQUIRE ?Subroutine9
        ; // Fall through to label ?Subroutine9

        RSEG BANKED_CODE:CODE:NOROOT(0)
?Subroutine9:
          CFI Block cfiBlock187 Using cfiCommon0
          CFI NoFunction
          CFI CFA_SP SP+0
          CFI CFA_XSP16 add(XSP16, 13)
          CFI VB load(1, XDATA, add(CFA_XSP16, literal(-8)))
          CFI DPL0 load(1, XDATA, add(CFA_XSP16, literal(-2)))
          CFI DPH0 load(1, XDATA, add(CFA_XSP16, literal(-1)))
          CFI R6 load(1, XDATA, add(CFA_XSP16, literal(-9)))
          CFI R7 load(1, XDATA, add(CFA_XSP16, literal(-6)))
          CFI V0 load(1, XDATA, add(CFA_XSP16, literal(-7)))
          CFI ?BRET_EXT load(1, XDATA, add(CFA_XSP16, literal(-3)))
          CFI ?RET_HIGH load(1, XDATA, add(CFA_XSP16, literal(-4)))
          CFI ?RET_LOW load(1, XDATA, add(CFA_XSP16, literal(-5)))
        MOV     A,#0x4
        LJMP    ??Subroutine82_0 & 0xFFFF
          CFI EndBlock cfiBlock187
// 1711 
// 1712 void APSME_SKA_TimerExpired( uint8 initiator, uint8* partExtAddr );

        RSEG BANKED_CODE:CODE:NOROOT(0)
// 1713 void APSME_SKA_TimerExpired( uint8 initiator, uint8* partExtAddr )
APSME_SKA_TimerExpired:
          CFI Block cfiBlock188 Using cfiCommon0
          CFI Function APSME_SKA_TimerExpired
        CODE
// 1714 {
        ; Saved register size: 0
        ; Auto size: 0
// 1715   if ( ( ZG_BUILD_COORDINATOR_TYPE ) && ( ZG_DEVICE_COORDINATOR_TYPE ) )
// 1716   {
// 1717     if ( initiator == TRUE )
// 1718     {
// 1719       ZDSecMgrDeviceCtrlUpdate( partExtAddr, ZDSECMGR_CTRL_SKKE_FAIL );
// 1720     }
// 1721   }
// 1722 }
        LJMP    ?BRET
          CFI EndBlock cfiBlock188
// 1723 
// 1724 /******************************************************************************
// 1725  * @fn          ZDSecMgrDeviceRemove
// 1726  *
// 1727  * @brief       Remove device from network.
// 1728  *
// 1729  * @param       device - [in] ZDSecMgrDevice_t, device info
// 1730  *
// 1731  * @return      none
// 1732  */

        RSEG BANKED_CODE:CODE:NOROOT(0)
// 1733 void ZDSecMgrDeviceRemove( ZDSecMgrDevice_t* device )
ZDSecMgrDeviceRemove:
          CFI Block cfiBlock189 Using cfiCommon0
          CFI Function ZDSecMgrDeviceRemove
        CODE
// 1734 {
        FUNCALL ZDSecMgrDeviceRemove, NLME_GetShortAddr
        LOCFRAME ISTACK, 0, STACK
        LOCFRAME PSTACK, 0, STACK
        LOCFRAME XSTACK, 19, STACK
        LOCFRAME IOVERLAY, 0, STATIC
        LOCFRAME DOVERLAY, 0, STATIC
        ARGFRAME ISTACK, 0, STACK
        ARGFRAME PSTACK, 0, STACK
        ARGFRAME XSTACK, 19, STACK
        ARGFRAME IOVERLAY, 0, STATIC
        ARGFRAME DOVERLAY, 0, STATIC
        FUNCALL ZDSecMgrDeviceRemove, AssocGetWithExt
        LOCFRAME ISTACK, 0, STACK
        LOCFRAME PSTACK, 0, STACK
        LOCFRAME XSTACK, 19, STACK
        LOCFRAME IOVERLAY, 0, STATIC
        LOCFRAME DOVERLAY, 0, STATIC
        ARGFRAME ISTACK, 0, STACK
        ARGFRAME PSTACK, 0, STACK
        ARGFRAME XSTACK, 19, STACK
        ARGFRAME IOVERLAY, 0, STATIC
        ARGFRAME DOVERLAY, 0, STATIC
        FUNCALL ZDSecMgrDeviceRemove, NLME_LeaveReq
        LOCFRAME ISTACK, 0, STACK
        LOCFRAME PSTACK, 0, STACK
        LOCFRAME XSTACK, 19, STACK
        LOCFRAME IOVERLAY, 0, STATIC
        LOCFRAME DOVERLAY, 0, STATIC
        ARGFRAME ISTACK, 0, STACK
        ARGFRAME PSTACK, 0, STACK
        ARGFRAME XSTACK, 19, STACK
        ARGFRAME IOVERLAY, 0, STATIC
        ARGFRAME DOVERLAY, 0, STATIC
        FUNCALL ZDSecMgrDeviceRemove, APSME_RemoveDeviceReq
        LOCFRAME ISTACK, 0, STACK
        LOCFRAME PSTACK, 0, STACK
        LOCFRAME XSTACK, 19, STACK
        LOCFRAME IOVERLAY, 0, STATIC
        LOCFRAME DOVERLAY, 0, STATIC
        ARGFRAME ISTACK, 0, STACK
        ARGFRAME PSTACK, 0, STACK
        ARGFRAME XSTACK, 19, STACK
        ARGFRAME IOVERLAY, 0, STATIC
        ARGFRAME DOVERLAY, 0, STATIC
        MOV     A,#-0xa
        LCALL   ?BANKED_ENTER_XDATA
          CFI DPH0 load(1, XDATA, add(CFA_XSP16, literal(-1)))
          CFI DPL0 load(1, XDATA, add(CFA_XSP16, literal(-2)))
          CFI ?BRET_EXT load(1, XDATA, add(CFA_XSP16, literal(-3)))
          CFI ?RET_HIGH load(1, XDATA, add(CFA_XSP16, literal(-4)))
          CFI ?RET_LOW load(1, XDATA, add(CFA_XSP16, literal(-5)))
          CFI R7 load(1, XDATA, add(CFA_XSP16, literal(-6)))
          CFI V1 load(1, XDATA, add(CFA_XSP16, literal(-7)))
          CFI V0 load(1, XDATA, add(CFA_XSP16, literal(-8)))
          CFI VB load(1, XDATA, add(CFA_XSP16, literal(-9)))
          CFI R6 load(1, XDATA, add(CFA_XSP16, literal(-10)))
          CFI CFA_SP SP+0
          CFI CFA_XSP16 add(XSP16, 10)
        ; Saved register size: 10
        ; Auto size: 9
        MOV     A,#-0x9
        LCALL   ?ALLOC_XSTACK8
          CFI CFA_XSP16 add(XSP16, 19)
        MOV     A,R2
        MOV     R6,A
        MOV     A,R3
        MOV     R7,A
// 1735   APSME_RemoveDeviceReq_t remDevReq;
// 1736   NLME_LeaveReq_t         leaveReq;
// 1737   associated_devices_t*   assoc;
// 1738 
// 1739 
// 1740   // check if parent, remove the device
// 1741   if ( device->parentAddr == NLME_GetShortAddr() )
        ; Setup parameters for call to function NLME_GetShortAddr
        LCALL   ??NLME_GetShortAddr?relay
        MOV     ?V0 + 0,R2
        MOV     ?V0 + 1,R3
        MOV     DPL,R6
        MOV     DPH,R7
        INC     DPTR
        INC     DPTR
        INC     DPTR
        INC     DPTR
        LCALL   ??Subroutine85_0 & 0xFFFF
??CrossCallReturnLabel_131:
        LCALL   ?Subroutine60 & 0xFFFF
??CrossCallReturnLabel_75:
        MOV     R1,A
        MOV     A,?V0 + 0
        XRL     A,R2
        JNZ     ??ZDSecMgrDeviceRemove_0
        MOV     A,?V0 + 1
        XRL     A,R3
??ZDSecMgrDeviceRemove_0:
        JNZ     ??ZDSecMgrDeviceRemove_1
// 1742   {
// 1743     // this is the parent of the device
// 1744     leaveReq.extAddr        = device->extAddr;
        MOV     DPL,R0
        MOV     DPH,R1
        LCALL   ??Subroutine85_0 & 0xFFFF
??CrossCallReturnLabel_132:
        LCALL   ?Subroutine29 & 0xFFFF
// 1745     leaveReq.removeChildren = FALSE;
??CrossCallReturnLabel_113:
        LCALL   ?XSTACK_DISP0_8
        CLR     A
        MOVX    @DPTR,A
// 1746     leaveReq.rejoin         = FALSE;
        MOV     A,#0x3
        LCALL   ?XSTACK_DISP0_8
        CLR     A
        LCALL   ?Subroutine69 & 0xFFFF
// 1747 
// 1748     // find child association
// 1749     assoc = AssocGetWithExt( device->extAddr );
??CrossCallReturnLabel_88:
        LCALL   ??Subroutine85_0 & 0xFFFF
??CrossCallReturnLabel_133:
        LCALL   ??AssocGetWithExt?relay
        MOV     ?V0 + 0,R2
        MOV     ?V0 + 1,R3
        MOV     R0,?V0 + 0
        MOV     R1,?V0 + 1
// 1750 
// 1751     if ( ( assoc != NULL                            ) &&
// 1752          ( assoc->nodeRelation >= CHILD_RFD         ) &&
// 1753          ( assoc->nodeRelation <= CHILD_FFD_RX_IDLE )    )
        MOV     A,R0
        ORL     A,R1
        JZ      ??ZDSecMgrDeviceRemove_2
        MOV     DPL,R0
        MOV     DPH,R1
        INC     DPTR
        INC     DPTR
        INC     DPTR
        INC     DPTR
        MOVX    A,@DPTR
        DEC     A
        CLR     C
        SUBB    A,#0x4
        JNC     ??ZDSecMgrDeviceRemove_2
// 1754     {
// 1755       // check if associated device is authenticated
// 1756       if ( assoc->devStatus & DEV_SEC_AUTH_STATUS )
        MOV     DPL,R0
        MOV     DPH,R1
        INC     DPTR
        INC     DPTR
        INC     DPTR
        INC     DPTR
        INC     DPTR
        MOVX    A,@DPTR
        MOV     C,0xE0 /* A   */.3
        MOV     A,#0x4
        JNC     ??ZDSecMgrDeviceRemove_3
// 1757       {
// 1758         leaveReq.silent = FALSE;
        LCALL   ?XSTACK_DISP0_8
        CLR     A
        SJMP    ??ZDSecMgrDeviceRemove_4
// 1759       }
// 1760       else
// 1761       {
// 1762         leaveReq.silent = TRUE;
??ZDSecMgrDeviceRemove_3:
        LCALL   ?XSTACK_DISP0_8
        MOV     A,#0x1
// 1763       }
// 1764 
// 1765       NLME_LeaveReq( &leaveReq );
// 1766     }
// 1767   }
??ZDSecMgrDeviceRemove_4:
        LCALL   ??Subroutine90_0 & 0xFFFF
??CrossCallReturnLabel_181:
        LCALL   ??NLME_LeaveReq?relay
        SJMP    ??ZDSecMgrDeviceRemove_2
// 1768   else
// 1769   {
// 1770     // this is not the parent of the device
// 1771     remDevReq.parentAddr   = device->parentAddr;
??ZDSecMgrDeviceRemove_1:
        MOV     A,#0x5
        LCALL   ?XSTACK_DISP0_8
        MOV     A,R2
        MOVX    @DPTR,A
        INC     DPTR
        MOV     A,R3
        LCALL   ?Subroutine35 & 0xFFFF
// 1772     remDevReq.childExtAddr = device->extAddr;
// 1773 
// 1774     APSME_RemoveDeviceReq( &remDevReq );
// 1775   }
??CrossCallReturnLabel_34:
        MOV     R1,A
        MOV     A,#0x7
        LCALL   ?XSTACK_DISP0_8
        LCALL   ??Subroutine76_0 & 0xFFFF
??CrossCallReturnLabel_103:
        LCALL   ?XSTACK_DISP0_8
        MOV     R2,DPL
        MOV     R3,DPH
        LCALL   ??APSME_RemoveDeviceReq?relay
// 1776 }
??ZDSecMgrDeviceRemove_2:
        MOV     A,#0x9
        LJMP    ??Subroutine93_0 & 0xFFFF
          CFI EndBlock cfiBlock189

        RSEG BANKED_CODE:CODE:NOROOT(0)
?Subroutine69:
          CFI Block cfiCond190 Using cfiCommon0
          CFI Function ZDSecMgrCtrlSet
          CFI Conditional ??CrossCallReturnLabel_86
          CFI R6 load(1, XDATA, add(CFA_XSP16, literal(-9)))
          CFI VB load(1, XDATA, add(CFA_XSP16, literal(-8)))
          CFI V0 load(1, XDATA, add(CFA_XSP16, literal(-7)))
          CFI R7 load(1, XDATA, add(CFA_XSP16, literal(-6)))
          CFI ?RET_LOW load(1, XDATA, add(CFA_XSP16, literal(-5)))
          CFI ?RET_HIGH load(1, XDATA, add(CFA_XSP16, literal(-4)))
          CFI ?BRET_EXT load(1, XDATA, add(CFA_XSP16, literal(-3)))
          CFI DPL0 load(1, XDATA, add(CFA_XSP16, literal(-2)))
          CFI DPH0 load(1, XDATA, add(CFA_XSP16, literal(-1)))
          CFI CFA_SP SP+0
          CFI CFA_XSP16 add(XSP16, 9)
          CFI Block cfiCond191 Using cfiCommon0
          CFI (cfiCond191) Function ZDSecMgrCtrlSet
          CFI (cfiCond191) Conditional ??CrossCallReturnLabel_87, ??CrossCallReturnLabel_19
          CFI (cfiCond191) R6 load(1, XDATA, add(CFA_XSP16, literal(-9)))
          CFI (cfiCond191) VB load(1, XDATA, add(CFA_XSP16, literal(-8)))
          CFI (cfiCond191) V0 load(1, XDATA, add(CFA_XSP16, literal(-7)))
          CFI (cfiCond191) R7 load(1, XDATA, add(CFA_XSP16, literal(-6)))
          CFI (cfiCond191) ?RET_LOW load(1, XDATA, add(CFA_XSP16, literal(-5)))
          CFI (cfiCond191) ?RET_HIGH load(1, XDATA, add(CFA_XSP16, literal(-4)))
          CFI (cfiCond191) ?BRET_EXT load(1, XDATA, add(CFA_XSP16, literal(-3)))
          CFI (cfiCond191) DPL0 load(1, XDATA, add(CFA_XSP16, literal(-2)))
          CFI (cfiCond191) DPH0 load(1, XDATA, add(CFA_XSP16, literal(-1)))
          CFI (cfiCond191) CFA_SP SP+0
          CFI (cfiCond191) CFA_XSP16 add(XSP16, 9)
          CFI Block cfiCond192 Using cfiCommon0
          CFI (cfiCond192) Function ZDSecMgrCtrlSet
          CFI (cfiCond192) Conditional ??CrossCallReturnLabel_87, ??CrossCallReturnLabel_20
          CFI (cfiCond192) R6 load(1, XDATA, add(CFA_XSP16, literal(-9)))
          CFI (cfiCond192) VB load(1, XDATA, add(CFA_XSP16, literal(-8)))
          CFI (cfiCond192) V0 load(1, XDATA, add(CFA_XSP16, literal(-7)))
          CFI (cfiCond192) R7 load(1, XDATA, add(CFA_XSP16, literal(-6)))
          CFI (cfiCond192) ?RET_LOW load(1, XDATA, add(CFA_XSP16, literal(-5)))
          CFI (cfiCond192) ?RET_HIGH load(1, XDATA, add(CFA_XSP16, literal(-4)))
          CFI (cfiCond192) ?BRET_EXT load(1, XDATA, add(CFA_XSP16, literal(-3)))
          CFI (cfiCond192) DPL0 load(1, XDATA, add(CFA_XSP16, literal(-2)))
          CFI (cfiCond192) DPH0 load(1, XDATA, add(CFA_XSP16, literal(-1)))
          CFI (cfiCond192) CFA_SP SP+0
          CFI (cfiCond192) CFA_XSP16 add(XSP16, 9)
          CFI Block cfiCond193 Using cfiCommon0
          CFI (cfiCond193) Function ZDSecMgrDeviceRemove
          CFI (cfiCond193) Conditional ??CrossCallReturnLabel_88
          CFI (cfiCond193) R6 load(1, XDATA, add(CFA_XSP16, literal(-10)))
          CFI (cfiCond193) VB load(1, XDATA, add(CFA_XSP16, literal(-9)))
          CFI (cfiCond193) V0 load(1, XDATA, add(CFA_XSP16, literal(-8)))
          CFI (cfiCond193) V1 load(1, XDATA, add(CFA_XSP16, literal(-7)))
          CFI (cfiCond193) R7 load(1, XDATA, add(CFA_XSP16, literal(-6)))
          CFI (cfiCond193) ?RET_LOW load(1, XDATA, add(CFA_XSP16, literal(-5)))
          CFI (cfiCond193) ?RET_HIGH load(1, XDATA, add(CFA_XSP16, literal(-4)))
          CFI (cfiCond193) ?BRET_EXT load(1, XDATA, add(CFA_XSP16, literal(-3)))
          CFI (cfiCond193) DPL0 load(1, XDATA, add(CFA_XSP16, literal(-2)))
          CFI (cfiCond193) DPH0 load(1, XDATA, add(CFA_XSP16, literal(-1)))
          CFI (cfiCond193) CFA_SP SP+0
          CFI (cfiCond193) CFA_XSP16 add(XSP16, 19)
          CFI Block cfiCond194 Using cfiCommon0
          CFI (cfiCond194) Function ZDSecMgrDeviceRemove
          CFI (cfiCond194) Conditional ??CrossCallReturnLabel_89, ??CrossCallReturnLabel_34
          CFI (cfiCond194) R6 load(1, XDATA, add(CFA_XSP16, literal(-10)))
          CFI (cfiCond194) VB load(1, XDATA, add(CFA_XSP16, literal(-9)))
          CFI (cfiCond194) V0 load(1, XDATA, add(CFA_XSP16, literal(-8)))
          CFI (cfiCond194) V1 load(1, XDATA, add(CFA_XSP16, literal(-7)))
          CFI (cfiCond194) R7 load(1, XDATA, add(CFA_XSP16, literal(-6)))
          CFI (cfiCond194) ?RET_LOW load(1, XDATA, add(CFA_XSP16, literal(-5)))
          CFI (cfiCond194) ?RET_HIGH load(1, XDATA, add(CFA_XSP16, literal(-4)))
          CFI (cfiCond194) ?BRET_EXT load(1, XDATA, add(CFA_XSP16, literal(-3)))
          CFI (cfiCond194) DPL0 load(1, XDATA, add(CFA_XSP16, literal(-2)))
          CFI (cfiCond194) DPH0 load(1, XDATA, add(CFA_XSP16, literal(-1)))
          CFI (cfiCond194) CFA_SP SP+0
          CFI (cfiCond194) CFA_XSP16 add(XSP16, 19)
          CFI Block cfiCond195 Using cfiCommon0
          CFI (cfiCond195) Function ZDSecMgrEvent
          CFI (cfiCond195) Conditional ??CrossCallReturnLabel_89, ??CrossCallReturnLabel_35
          CFI (cfiCond195) R6 load(1, XDATA, add(CFA_XSP16, literal(-10)))
          CFI (cfiCond195) VB load(1, XDATA, add(CFA_XSP16, literal(-9)))
          CFI (cfiCond195) V0 load(1, XDATA, add(CFA_XSP16, literal(-8)))
          CFI (cfiCond195) V1 load(1, XDATA, add(CFA_XSP16, literal(-7)))
          CFI (cfiCond195) R7 load(1, XDATA, add(CFA_XSP16, literal(-6)))
          CFI (cfiCond195) ?RET_LOW load(1, XDATA, add(CFA_XSP16, literal(-5)))
          CFI (cfiCond195) ?RET_HIGH load(1, XDATA, add(CFA_XSP16, literal(-4)))
          CFI (cfiCond195) ?BRET_EXT load(1, XDATA, add(CFA_XSP16, literal(-3)))
          CFI (cfiCond195) DPL0 load(1, XDATA, add(CFA_XSP16, literal(-2)))
          CFI (cfiCond195) DPH0 load(1, XDATA, add(CFA_XSP16, literal(-1)))
          CFI (cfiCond195) CFA_SP SP+0
          CFI (cfiCond195) CFA_XSP16 add(XSP16, 33)
          CFI Block cfiPicker196 Using cfiCommon1
          CFI (cfiPicker196) NoFunction
          CFI (cfiPicker196) Picker
        MOVX    @DPTR,A
        ; Setup parameters for call to function AssocGetWithExt
        MOV     DPL,R0
        MOV     DPH,R1
        RET
          CFI EndBlock cfiCond190
          CFI EndBlock cfiCond191
          CFI EndBlock cfiCond192
          CFI EndBlock cfiCond193
          CFI EndBlock cfiCond194
          CFI EndBlock cfiCond195
          CFI EndBlock cfiPicker196

        RSEG BANKED_CODE:CODE:NOROOT(0)
?Subroutine60:
          CFI Block cfiCond197 Using cfiCommon0
          CFI Function ZDSecMgrMasterKeyLookup
          CFI Conditional ??CrossCallReturnLabel_74
          CFI R6 load(1, XDATA, add(CFA_XSP16, literal(-10)))
          CFI VB load(1, XDATA, add(CFA_XSP16, literal(-9)))
          CFI V0 load(1, XDATA, add(CFA_XSP16, literal(-8)))
          CFI V1 load(1, XDATA, add(CFA_XSP16, literal(-7)))
          CFI R7 load(1, XDATA, add(CFA_XSP16, literal(-6)))
          CFI ?RET_LOW load(1, XDATA, add(CFA_XSP16, literal(-5)))
          CFI ?RET_HIGH load(1, XDATA, add(CFA_XSP16, literal(-4)))
          CFI ?BRET_EXT load(1, XDATA, add(CFA_XSP16, literal(-3)))
          CFI DPL0 load(1, XDATA, add(CFA_XSP16, literal(-2)))
          CFI DPH0 load(1, XDATA, add(CFA_XSP16, literal(-1)))
          CFI CFA_SP SP+0
          CFI CFA_XSP16 add(XSP16, 10)
          CFI Block cfiCond198 Using cfiCommon0
          CFI (cfiCond198) Function ZDSecMgrDeviceRemove
          CFI (cfiCond198) Conditional ??CrossCallReturnLabel_75
          CFI (cfiCond198) R6 load(1, XDATA, add(CFA_XSP16, literal(-10)))
          CFI (cfiCond198) VB load(1, XDATA, add(CFA_XSP16, literal(-9)))
          CFI (cfiCond198) V0 load(1, XDATA, add(CFA_XSP16, literal(-8)))
          CFI (cfiCond198) V1 load(1, XDATA, add(CFA_XSP16, literal(-7)))
          CFI (cfiCond198) R7 load(1, XDATA, add(CFA_XSP16, literal(-6)))
          CFI (cfiCond198) ?RET_LOW load(1, XDATA, add(CFA_XSP16, literal(-5)))
          CFI (cfiCond198) ?RET_HIGH load(1, XDATA, add(CFA_XSP16, literal(-4)))
          CFI (cfiCond198) ?BRET_EXT load(1, XDATA, add(CFA_XSP16, literal(-3)))
          CFI (cfiCond198) DPL0 load(1, XDATA, add(CFA_XSP16, literal(-2)))
          CFI (cfiCond198) DPH0 load(1, XDATA, add(CFA_XSP16, literal(-1)))
          CFI (cfiCond198) CFA_SP SP+0
          CFI (cfiCond198) CFA_XSP16 add(XSP16, 19)
          CFI Block cfiCond199 Using cfiCommon0
          CFI (cfiCond199) Function ZDSecMgrEstablishKeyInd
          CFI (cfiCond199) Conditional ??CrossCallReturnLabel_76
          CFI (cfiCond199) R6 load(1, XDATA, add(CFA_XSP16, literal(-12)))
          CFI (cfiCond199) VB load(1, XDATA, add(CFA_XSP16, literal(-11)))
          CFI (cfiCond199) V0 load(1, XDATA, add(CFA_XSP16, literal(-10)))
          CFI (cfiCond199) V1 load(1, XDATA, add(CFA_XSP16, literal(-9)))
          CFI (cfiCond199) V2 load(1, XDATA, add(CFA_XSP16, literal(-8)))
          CFI (cfiCond199) V3 load(1, XDATA, add(CFA_XSP16, literal(-7)))
          CFI (cfiCond199) R7 load(1, XDATA, add(CFA_XSP16, literal(-6)))
          CFI (cfiCond199) ?RET_LOW load(1, XDATA, add(CFA_XSP16, literal(-5)))
          CFI (cfiCond199) ?RET_HIGH load(1, XDATA, add(CFA_XSP16, literal(-4)))
          CFI (cfiCond199) ?BRET_EXT load(1, XDATA, add(CFA_XSP16, literal(-3)))
          CFI (cfiCond199) DPL0 load(1, XDATA, add(CFA_XSP16, literal(-2)))
          CFI (cfiCond199) DPH0 load(1, XDATA, add(CFA_XSP16, literal(-1)))
          CFI (cfiCond199) CFA_SP SP+0
          CFI (cfiCond199) CFA_XSP16 add(XSP16, 29)
          CFI Block cfiPicker200 Using cfiCommon1
          CFI (cfiPicker200) NoFunction
          CFI (cfiPicker200) Picker
        MOV     A,R6
        ADD     A,#0x2
        MOV     R0,A
        MOV     A,R7
        ADDC    A,#0x0
        RET
          CFI EndBlock cfiCond197
          CFI EndBlock cfiCond198
          CFI EndBlock cfiCond199
          CFI EndBlock cfiPicker200

        RSEG BANKED_CODE:CODE:NOROOT(0)
?Subroutine29:
          CFI Block cfiCond201 Using cfiCommon0
          CFI Function ZDSecMgrDeviceRemove
          CFI Conditional ??CrossCallReturnLabel_113
          CFI R6 load(1, XDATA, add(CFA_XSP16, literal(-10)))
          CFI VB load(1, XDATA, add(CFA_XSP16, literal(-9)))
          CFI V0 load(1, XDATA, add(CFA_XSP16, literal(-8)))
          CFI V1 load(1, XDATA, add(CFA_XSP16, literal(-7)))
          CFI R7 load(1, XDATA, add(CFA_XSP16, literal(-6)))
          CFI ?RET_LOW load(1, XDATA, add(CFA_XSP16, literal(-5)))
          CFI ?RET_HIGH load(1, XDATA, add(CFA_XSP16, literal(-4)))
          CFI ?BRET_EXT load(1, XDATA, add(CFA_XSP16, literal(-3)))
          CFI DPL0 load(1, XDATA, add(CFA_XSP16, literal(-2)))
          CFI DPH0 load(1, XDATA, add(CFA_XSP16, literal(-1)))
          CFI CFA_SP SP+0
          CFI CFA_XSP16 add(XSP16, 19)
          CFI Block cfiCond202 Using cfiCommon0
          CFI (cfiCond202) Function ZDSecMgrAPSRemove
          CFI (cfiCond202) Conditional ??CrossCallReturnLabel_114
          CFI (cfiCond202) DPL0 Frame(CFA_SP, 4)
          CFI (cfiCond202) DPH0 Frame(CFA_SP, 5)
          CFI (cfiCond202) CFA_SP SP+-5
          CFI (cfiCond202) CFA_XSP16 add(XSP16, 10)
          CFI Block cfiPicker203 Using cfiCommon1
          CFI (cfiPicker203) NoFunction
          CFI (cfiPicker203) Picker
        MOV     DPL,?XSP + 0
        MOV     DPH,?XSP + 1
          CFI EndBlock cfiCond201
          CFI EndBlock cfiCond202
          CFI EndBlock cfiPicker203
        REQUIRE ??Subroutine79_0
        ; // Fall through to label ??Subroutine79_0

        RSEG BANKED_CODE:CODE:NOROOT(0)
??Subroutine79_0:
          CFI Block cfiCond204 Using cfiCommon0
          CFI Function ZDSecMgrRemoveDeviceInd
          CFI Conditional ??CrossCallReturnLabel_115
          CFI R6 load(1, XDATA, add(CFA_XSP16, literal(-9)))
          CFI VB load(1, XDATA, add(CFA_XSP16, literal(-8)))
          CFI V0 load(1, XDATA, add(CFA_XSP16, literal(-7)))
          CFI R7 load(1, XDATA, add(CFA_XSP16, literal(-6)))
          CFI ?RET_LOW load(1, XDATA, add(CFA_XSP16, literal(-5)))
          CFI ?RET_HIGH load(1, XDATA, add(CFA_XSP16, literal(-4)))
          CFI ?BRET_EXT load(1, XDATA, add(CFA_XSP16, literal(-3)))
          CFI DPL0 load(1, XDATA, add(CFA_XSP16, literal(-2)))
          CFI DPH0 load(1, XDATA, add(CFA_XSP16, literal(-1)))
          CFI CFA_SP SP+0
          CFI CFA_XSP16 add(XSP16, 19)
          CFI Block cfiCond205 Using cfiCommon0
          CFI (cfiCond205) Function ZDSecMgrDeviceRemove
          CFI (cfiCond205) Conditional ??CrossCallReturnLabel_113
          CFI (cfiCond205) R6 load(1, XDATA, add(CFA_XSP16, literal(-10)))
          CFI (cfiCond205) VB load(1, XDATA, add(CFA_XSP16, literal(-9)))
          CFI (cfiCond205) V0 load(1, XDATA, add(CFA_XSP16, literal(-8)))
          CFI (cfiCond205) V1 load(1, XDATA, add(CFA_XSP16, literal(-7)))
          CFI (cfiCond205) R7 load(1, XDATA, add(CFA_XSP16, literal(-6)))
          CFI (cfiCond205) ?RET_LOW load(1, XDATA, add(CFA_XSP16, literal(-5)))
          CFI (cfiCond205) ?RET_HIGH load(1, XDATA, add(CFA_XSP16, literal(-4)))
          CFI (cfiCond205) ?BRET_EXT load(1, XDATA, add(CFA_XSP16, literal(-3)))
          CFI (cfiCond205) DPL0 load(1, XDATA, add(CFA_XSP16, literal(-2)))
          CFI (cfiCond205) DPH0 load(1, XDATA, add(CFA_XSP16, literal(-1)))
          CFI (cfiCond205) CFA_SP SP+0
          CFI (cfiCond205) CFA_XSP16 add(XSP16, 19)
          CFI Block cfiCond206 Using cfiCommon0
          CFI (cfiCond206) Function ZDSecMgrAPSRemove
          CFI (cfiCond206) Conditional ??CrossCallReturnLabel_114
          CFI (cfiCond206) DPL0 Frame(CFA_SP, 4)
          CFI (cfiCond206) DPH0 Frame(CFA_SP, 5)
          CFI (cfiCond206) CFA_SP SP+-5
          CFI (cfiCond206) CFA_XSP16 add(XSP16, 10)
          CFI Block cfiPicker207 Using cfiCommon1
          CFI (cfiPicker207) NoFunction
          CFI (cfiPicker207) Picker
        MOV     A,R2
        MOVX    @DPTR,A
        INC     DPTR
        MOV     A,R3
        MOVX    @DPTR,A
        MOV     A,#0x2
        RET
          CFI EndBlock cfiCond204
          CFI EndBlock cfiCond205
          CFI EndBlock cfiCond206
          CFI EndBlock cfiPicker207
// 1777 
// 1778 /******************************************************************************
// 1779  * @fn          ZDSecMgrDeviceValidateSKKE
// 1780  *
// 1781  * @brief       Decide whether device is allowed for SKKE.
// 1782  *
// 1783  * @param       device - [in] ZDSecMgrDevice_t, device info
// 1784  *
// 1785  * @return      ZStatus_t
// 1786  */

        RSEG BANKED_CODE:CODE:NOROOT(0)
// 1787 ZStatus_t ZDSecMgrDeviceValidateSKKE( ZDSecMgrDevice_t* device )
ZDSecMgrDeviceValidateSKKE:
          CFI Block cfiBlock208 Using cfiCommon0
          CFI Function ZDSecMgrDeviceValidateSKKE
        CODE
// 1788 {
        FUNCALL ZDSecMgrDeviceValidateSKKE, ZDSecMgrExtAddrLookup
        LOCFRAME ISTACK, 0, STACK
        LOCFRAME PSTACK, 0, STACK
        LOCFRAME XSTACK, 13, STACK
        LOCFRAME IOVERLAY, 0, STATIC
        LOCFRAME DOVERLAY, 0, STATIC
        ARGFRAME ISTACK, 0, STACK
        ARGFRAME PSTACK, 0, STACK
        ARGFRAME XSTACK, 13, STACK
        ARGFRAME IOVERLAY, 0, STATIC
        ARGFRAME DOVERLAY, 0, STATIC
        FUNCALL ZDSecMgrDeviceValidateSKKE, ZDSecMgrMasterKeyLookup
        LOCFRAME ISTACK, 0, STACK
        LOCFRAME PSTACK, 0, STACK
        LOCFRAME XSTACK, 13, STACK
        LOCFRAME IOVERLAY, 0, STATIC
        LOCFRAME DOVERLAY, 0, STATIC
        ARGFRAME ISTACK, 0, STACK
        ARGFRAME PSTACK, 0, STACK
        ARGFRAME XSTACK, 13, STACK
        ARGFRAME IOVERLAY, 0, STATIC
        ARGFRAME DOVERLAY, 0, STATIC
        FUNCALL ZDSecMgrDeviceValidateSKKE, ZDSecMgrDeviceEntryAdd
        LOCFRAME ISTACK, 0, STACK
        LOCFRAME PSTACK, 0, STACK
        LOCFRAME XSTACK, 13, STACK
        LOCFRAME IOVERLAY, 0, STATIC
        LOCFRAME DOVERLAY, 0, STATIC
        ARGFRAME ISTACK, 0, STACK
        ARGFRAME PSTACK, 0, STACK
        ARGFRAME XSTACK, 13, STACK
        ARGFRAME IOVERLAY, 0, STATIC
        ARGFRAME DOVERLAY, 0, STATIC
        MOV     A,#-0x9
        LCALL   ?BANKED_ENTER_XDATA
          CFI DPH0 load(1, XDATA, add(CFA_XSP16, literal(-1)))
          CFI DPL0 load(1, XDATA, add(CFA_XSP16, literal(-2)))
          CFI ?BRET_EXT load(1, XDATA, add(CFA_XSP16, literal(-3)))
          CFI ?RET_HIGH load(1, XDATA, add(CFA_XSP16, literal(-4)))
          CFI ?RET_LOW load(1, XDATA, add(CFA_XSP16, literal(-5)))
          CFI R7 load(1, XDATA, add(CFA_XSP16, literal(-6)))
          CFI V0 load(1, XDATA, add(CFA_XSP16, literal(-7)))
          CFI VB load(1, XDATA, add(CFA_XSP16, literal(-8)))
          CFI R6 load(1, XDATA, add(CFA_XSP16, literal(-9)))
          CFI CFA_SP SP+0
          CFI CFA_XSP16 add(XSP16, 9)
        ; Saved register size: 9
        ; Auto size: 4
        MOV     A,#-0x4
        LCALL   ?ALLOC_XSTACK8
          CFI CFA_XSP16 add(XSP16, 13)
        MOV     A,R2
        MOV     R6,A
        MOV     A,R3
        MOV     R7,A
// 1789   ZStatus_t status;
// 1790   uint16    ami;
// 1791   uint8*    key;
// 1792 
// 1793 
// 1794   // get EXT address
// 1795   status = ZDSecMgrExtAddrLookup( device->extAddr, &ami );
        ; Setup parameters for call to function ZDSecMgrExtAddrLookup
        MOV     DPL,?XSP + 0
        MOV     DPH,?XSP + 1
        MOV     R4,DPL
        MOV     R5,DPH
        MOV     DPL,R6
        MOV     DPH,R7
        INC     DPTR
        INC     DPTR
        LCALL   ??Subroutine85_0 & 0xFFFF
??CrossCallReturnLabel_134:
        LCALL   ??ZDSecMgrExtAddrLookup?relay
        MOV     A,R1
// 1796 
// 1797   if ( status == ZSuccess )
        JNZ     ??ZDSecMgrDeviceValidateSKKE_0
// 1798   {
// 1799     // get MASTER key
// 1800     status = ZDSecMgrMasterKeyLookup( ami, &key );
        ; Setup parameters for call to function ZDSecMgrMasterKeyLookup
        MOV     A,#0x2
        LCALL   ?XSTACK_DISP0_8
        MOV     R4,DPL
        MOV     R5,DPH
        LCALL   ??Subroutine84_0 & 0xFFFF
??CrossCallReturnLabel_145:
        LCALL   ??ZDSecMgrMasterKeyLookup?relay
        MOV     A,R1
// 1801 
// 1802     if ( status == ZSuccess )
        JNZ     ??ZDSecMgrDeviceValidateSKKE_0
// 1803     {
// 1804     //  // check if initiator is Trust Center
// 1805     //  if ( device->nwkAddr == APSME_TRUSTCENTER_NWKADDR )
// 1806     //  {
// 1807     //    // verify NWK key not sent
// 1808     //    // devtag.todo
// 1809     //    // temporary - add device to internal data
// 1810     //    status = ZDSecMgrDeviceEntryAdd( device, ami );
// 1811     //  }
// 1812     //  else
// 1813     //  {
// 1814     //    // initiator not Trust Center - End to End SKKE - set policy
// 1815     //    // for accepting an SKKE initiation
// 1816     //    // temporary - add device to internal data
// 1817     //    status = ZDSecMgrDeviceEntryAdd( device, ami );
// 1818     //  }
// 1819         status = ZDSecMgrDeviceEntryAdd( device, ami );
        ; Setup parameters for call to function ZDSecMgrDeviceEntryAdd
        LCALL   ?Subroutine41 & 0xFFFF
// 1820     }
// 1821   }
??CrossCallReturnLabel_117:
        LCALL   ??ZDSecMgrDeviceEntryAdd?relay
// 1822 
// 1823   return status;
??ZDSecMgrDeviceValidateSKKE_0:
        LJMP    ?Subroutine9 & 0xFFFF
          CFI EndBlock cfiBlock208
// 1824 }

        RSEG BANKED_CODE:CODE:NOROOT(0)
?Subroutine41:
          CFI Block cfiCond209 Using cfiCommon0
          CFI Function ZDSecMgrDeviceValidateSKKE
          CFI Conditional ??CrossCallReturnLabel_117
          CFI R6 load(1, XDATA, add(CFA_XSP16, literal(-9)))
          CFI VB load(1, XDATA, add(CFA_XSP16, literal(-8)))
          CFI V0 load(1, XDATA, add(CFA_XSP16, literal(-7)))
          CFI R7 load(1, XDATA, add(CFA_XSP16, literal(-6)))
          CFI ?RET_LOW load(1, XDATA, add(CFA_XSP16, literal(-5)))
          CFI ?RET_HIGH load(1, XDATA, add(CFA_XSP16, literal(-4)))
          CFI ?BRET_EXT load(1, XDATA, add(CFA_XSP16, literal(-3)))
          CFI DPL0 load(1, XDATA, add(CFA_XSP16, literal(-2)))
          CFI DPH0 load(1, XDATA, add(CFA_XSP16, literal(-1)))
          CFI CFA_SP SP+0
          CFI CFA_XSP16 add(XSP16, 13)
          CFI Block cfiCond210 Using cfiCommon0
          CFI (cfiCond210) Function ZDSecMgrDeviceValidateCM
          CFI (cfiCond210) Conditional ??CrossCallReturnLabel_118
          CFI (cfiCond210) R6 load(1, XDATA, add(CFA_XSP16, literal(-12)))
          CFI (cfiCond210) VB load(1, XDATA, add(CFA_XSP16, literal(-11)))
          CFI (cfiCond210) V0 load(1, XDATA, add(CFA_XSP16, literal(-10)))
          CFI (cfiCond210) V1 load(1, XDATA, add(CFA_XSP16, literal(-9)))
          CFI (cfiCond210) V2 load(1, XDATA, add(CFA_XSP16, literal(-8)))
          CFI (cfiCond210) V3 load(1, XDATA, add(CFA_XSP16, literal(-7)))
          CFI (cfiCond210) R7 load(1, XDATA, add(CFA_XSP16, literal(-6)))
          CFI (cfiCond210) ?RET_LOW load(1, XDATA, add(CFA_XSP16, literal(-5)))
          CFI (cfiCond210) ?RET_HIGH load(1, XDATA, add(CFA_XSP16, literal(-4)))
          CFI (cfiCond210) ?BRET_EXT load(1, XDATA, add(CFA_XSP16, literal(-3)))
          CFI (cfiCond210) DPL0 load(1, XDATA, add(CFA_XSP16, literal(-2)))
          CFI (cfiCond210) DPH0 load(1, XDATA, add(CFA_XSP16, literal(-1)))
          CFI (cfiCond210) CFA_SP SP+0
          CFI (cfiCond210) CFA_XSP16 add(XSP16, 14)
          CFI Block cfiPicker211 Using cfiCommon1
          CFI (cfiPicker211) NoFunction
          CFI (cfiPicker211) Picker
        MOV     DPL,?XSP + 0
        MOV     DPH,?XSP + 1
          CFI EndBlock cfiCond209
          CFI EndBlock cfiCond210
          CFI EndBlock cfiPicker211
        REQUIRE ??Subroutine80_0
        ; // Fall through to label ??Subroutine80_0

        RSEG BANKED_CODE:CODE:NOROOT(0)
??Subroutine80_0:
          CFI Block cfiCond212 Using cfiCommon0
          CFI Function ZDSecMgrDeviceEntryAdd
          CFI Conditional ??CrossCallReturnLabel_116
          CFI R6 load(1, XDATA, add(CFA_XSP16, literal(-11)))
          CFI VB load(1, XDATA, add(CFA_XSP16, literal(-10)))
          CFI V0 load(1, XDATA, add(CFA_XSP16, literal(-9)))
          CFI V1 load(1, XDATA, add(CFA_XSP16, literal(-8)))
          CFI V2 load(1, XDATA, add(CFA_XSP16, literal(-7)))
          CFI R7 load(1, XDATA, add(CFA_XSP16, literal(-6)))
          CFI ?RET_LOW load(1, XDATA, add(CFA_XSP16, literal(-5)))
          CFI ?RET_HIGH load(1, XDATA, add(CFA_XSP16, literal(-4)))
          CFI ?BRET_EXT load(1, XDATA, add(CFA_XSP16, literal(-3)))
          CFI DPL0 load(1, XDATA, add(CFA_XSP16, literal(-2)))
          CFI DPH0 load(1, XDATA, add(CFA_XSP16, literal(-1)))
          CFI CFA_SP SP+0
          CFI CFA_XSP16 add(XSP16, 13)
          CFI Block cfiCond213 Using cfiCommon0
          CFI (cfiCond213) Function ZDSecMgrDeviceValidateSKKE
          CFI (cfiCond213) Conditional ??CrossCallReturnLabel_117
          CFI (cfiCond213) R6 load(1, XDATA, add(CFA_XSP16, literal(-9)))
          CFI (cfiCond213) VB load(1, XDATA, add(CFA_XSP16, literal(-8)))
          CFI (cfiCond213) V0 load(1, XDATA, add(CFA_XSP16, literal(-7)))
          CFI (cfiCond213) R7 load(1, XDATA, add(CFA_XSP16, literal(-6)))
          CFI (cfiCond213) ?RET_LOW load(1, XDATA, add(CFA_XSP16, literal(-5)))
          CFI (cfiCond213) ?RET_HIGH load(1, XDATA, add(CFA_XSP16, literal(-4)))
          CFI (cfiCond213) ?BRET_EXT load(1, XDATA, add(CFA_XSP16, literal(-3)))
          CFI (cfiCond213) DPL0 load(1, XDATA, add(CFA_XSP16, literal(-2)))
          CFI (cfiCond213) DPH0 load(1, XDATA, add(CFA_XSP16, literal(-1)))
          CFI (cfiCond213) CFA_SP SP+0
          CFI (cfiCond213) CFA_XSP16 add(XSP16, 13)
          CFI Block cfiCond214 Using cfiCommon0
          CFI (cfiCond214) Function ZDSecMgrDeviceValidateCM
          CFI (cfiCond214) Conditional ??CrossCallReturnLabel_118
          CFI (cfiCond214) R6 load(1, XDATA, add(CFA_XSP16, literal(-12)))
          CFI (cfiCond214) VB load(1, XDATA, add(CFA_XSP16, literal(-11)))
          CFI (cfiCond214) V0 load(1, XDATA, add(CFA_XSP16, literal(-10)))
          CFI (cfiCond214) V1 load(1, XDATA, add(CFA_XSP16, literal(-9)))
          CFI (cfiCond214) V2 load(1, XDATA, add(CFA_XSP16, literal(-8)))
          CFI (cfiCond214) V3 load(1, XDATA, add(CFA_XSP16, literal(-7)))
          CFI (cfiCond214) R7 load(1, XDATA, add(CFA_XSP16, literal(-6)))
          CFI (cfiCond214) ?RET_LOW load(1, XDATA, add(CFA_XSP16, literal(-5)))
          CFI (cfiCond214) ?RET_HIGH load(1, XDATA, add(CFA_XSP16, literal(-4)))
          CFI (cfiCond214) ?BRET_EXT load(1, XDATA, add(CFA_XSP16, literal(-3)))
          CFI (cfiCond214) DPL0 load(1, XDATA, add(CFA_XSP16, literal(-2)))
          CFI (cfiCond214) DPH0 load(1, XDATA, add(CFA_XSP16, literal(-1)))
          CFI (cfiCond214) CFA_SP SP+0
          CFI (cfiCond214) CFA_XSP16 add(XSP16, 14)
          CFI Block cfiPicker215 Using cfiCommon1
          CFI (cfiPicker215) NoFunction
          CFI (cfiPicker215) Picker
        LCALL   ?Subroutine66 & 0xFFFF
??CrossCallReturnLabel_122:
        MOV     A,R6
        MOV     R2,A
        MOV     A,R7
        MOV     R3,A
        RET
          CFI EndBlock cfiCond212
          CFI EndBlock cfiCond213
          CFI EndBlock cfiCond214
          CFI EndBlock cfiPicker215

        RSEG BANKED_CODE:CODE:NOROOT(0)
?Subroutine66:
          CFI Block cfiCond216 Using cfiCommon0
          CFI Function ZDSecMgrEntryLookup
          CFI Conditional ??CrossCallReturnLabel_119
          CFI R6 load(1, XDATA, add(CFA_XSP16, literal(-10)))
          CFI VB load(1, XDATA, add(CFA_XSP16, literal(-9)))
          CFI V0 load(1, XDATA, add(CFA_XSP16, literal(-8)))
          CFI V1 load(1, XDATA, add(CFA_XSP16, literal(-7)))
          CFI R7 load(1, XDATA, add(CFA_XSP16, literal(-6)))
          CFI ?RET_LOW load(1, XDATA, add(CFA_XSP16, literal(-5)))
          CFI ?RET_HIGH load(1, XDATA, add(CFA_XSP16, literal(-4)))
          CFI ?BRET_EXT load(1, XDATA, add(CFA_XSP16, literal(-3)))
          CFI DPL0 load(1, XDATA, add(CFA_XSP16, literal(-2)))
          CFI DPH0 load(1, XDATA, add(CFA_XSP16, literal(-1)))
          CFI CFA_SP SP+0
          CFI CFA_XSP16 add(XSP16, 23)
          CFI Block cfiCond217 Using cfiCommon0
          CFI (cfiCond217) Function ZDSecMgrEntryNew
          CFI (cfiCond217) Conditional ??CrossCallReturnLabel_120
          CFI (cfiCond217) R6 load(1, XDATA, add(CFA_XSP16, literal(-10)))
          CFI (cfiCond217) VB load(1, XDATA, add(CFA_XSP16, literal(-9)))
          CFI (cfiCond217) V0 load(1, XDATA, add(CFA_XSP16, literal(-8)))
          CFI (cfiCond217) V1 load(1, XDATA, add(CFA_XSP16, literal(-7)))
          CFI (cfiCond217) R7 load(1, XDATA, add(CFA_XSP16, literal(-6)))
          CFI (cfiCond217) ?RET_LOW load(1, XDATA, add(CFA_XSP16, literal(-5)))
          CFI (cfiCond217) ?RET_HIGH load(1, XDATA, add(CFA_XSP16, literal(-4)))
          CFI (cfiCond217) ?BRET_EXT load(1, XDATA, add(CFA_XSP16, literal(-3)))
          CFI (cfiCond217) DPL0 load(1, XDATA, add(CFA_XSP16, literal(-2)))
          CFI (cfiCond217) DPH0 load(1, XDATA, add(CFA_XSP16, literal(-1)))
          CFI (cfiCond217) CFA_SP SP+0
          CFI (cfiCond217) CFA_XSP16 add(XSP16, 10)
          CFI Block cfiCond218 Using cfiCommon0
          CFI (cfiCond218) Function ZDSecMgrDeviceValidateSKKE
          CFI (cfiCond218) Conditional ??CrossCallReturnLabel_122, ??CrossCallReturnLabel_117
          CFI (cfiCond218) R6 load(1, XDATA, add(CFA_XSP16, literal(-9)))
          CFI (cfiCond218) VB load(1, XDATA, add(CFA_XSP16, literal(-8)))
          CFI (cfiCond218) V0 load(1, XDATA, add(CFA_XSP16, literal(-7)))
          CFI (cfiCond218) R7 load(1, XDATA, add(CFA_XSP16, literal(-6)))
          CFI (cfiCond218) ?RET_LOW load(1, XDATA, add(CFA_XSP16, literal(-5)))
          CFI (cfiCond218) ?RET_HIGH load(1, XDATA, add(CFA_XSP16, literal(-4)))
          CFI (cfiCond218) ?BRET_EXT load(1, XDATA, add(CFA_XSP16, literal(-3)))
          CFI (cfiCond218) DPL0 load(1, XDATA, add(CFA_XSP16, literal(-2)))
          CFI (cfiCond218) DPH0 load(1, XDATA, add(CFA_XSP16, literal(-1)))
          CFI (cfiCond218) CFA_SP SP+0
          CFI (cfiCond218) CFA_XSP16 add(XSP16, 13)
          CFI Block cfiCond219 Using cfiCommon0
          CFI (cfiCond219) Function ZDSecMgrDeviceValidateCM
          CFI (cfiCond219) Conditional ??CrossCallReturnLabel_122, ??CrossCallReturnLabel_118
          CFI (cfiCond219) R6 load(1, XDATA, add(CFA_XSP16, literal(-12)))
          CFI (cfiCond219) VB load(1, XDATA, add(CFA_XSP16, literal(-11)))
          CFI (cfiCond219) V0 load(1, XDATA, add(CFA_XSP16, literal(-10)))
          CFI (cfiCond219) V1 load(1, XDATA, add(CFA_XSP16, literal(-9)))
          CFI (cfiCond219) V2 load(1, XDATA, add(CFA_XSP16, literal(-8)))
          CFI (cfiCond219) V3 load(1, XDATA, add(CFA_XSP16, literal(-7)))
          CFI (cfiCond219) R7 load(1, XDATA, add(CFA_XSP16, literal(-6)))
          CFI (cfiCond219) ?RET_LOW load(1, XDATA, add(CFA_XSP16, literal(-5)))
          CFI (cfiCond219) ?RET_HIGH load(1, XDATA, add(CFA_XSP16, literal(-4)))
          CFI (cfiCond219) ?BRET_EXT load(1, XDATA, add(CFA_XSP16, literal(-3)))
          CFI (cfiCond219) DPL0 load(1, XDATA, add(CFA_XSP16, literal(-2)))
          CFI (cfiCond219) DPH0 load(1, XDATA, add(CFA_XSP16, literal(-1)))
          CFI (cfiCond219) CFA_SP SP+0
          CFI (cfiCond219) CFA_XSP16 add(XSP16, 14)
          CFI Block cfiCond220 Using cfiCommon0
          CFI (cfiCond220) Function ZDSecMgrDeviceEntryAdd
          CFI (cfiCond220) Conditional ??CrossCallReturnLabel_122, ??CrossCallReturnLabel_116
          CFI (cfiCond220) R6 load(1, XDATA, add(CFA_XSP16, literal(-11)))
          CFI (cfiCond220) VB load(1, XDATA, add(CFA_XSP16, literal(-10)))
          CFI (cfiCond220) V0 load(1, XDATA, add(CFA_XSP16, literal(-9)))
          CFI (cfiCond220) V1 load(1, XDATA, add(CFA_XSP16, literal(-8)))
          CFI (cfiCond220) V2 load(1, XDATA, add(CFA_XSP16, literal(-7)))
          CFI (cfiCond220) R7 load(1, XDATA, add(CFA_XSP16, literal(-6)))
          CFI (cfiCond220) ?RET_LOW load(1, XDATA, add(CFA_XSP16, literal(-5)))
          CFI (cfiCond220) ?RET_HIGH load(1, XDATA, add(CFA_XSP16, literal(-4)))
          CFI (cfiCond220) ?BRET_EXT load(1, XDATA, add(CFA_XSP16, literal(-3)))
          CFI (cfiCond220) DPL0 load(1, XDATA, add(CFA_XSP16, literal(-2)))
          CFI (cfiCond220) DPH0 load(1, XDATA, add(CFA_XSP16, literal(-1)))
          CFI (cfiCond220) CFA_SP SP+0
          CFI (cfiCond220) CFA_XSP16 add(XSP16, 13)
          CFI Block cfiCond221 Using cfiCommon0
          CFI (cfiCond221) Function ZDSecMgrDeviceValidateCM
          CFI (cfiCond221) Conditional ??CrossCallReturnLabel_121, ??CrossCallReturnLabel_56
          CFI (cfiCond221) R6 load(1, XDATA, add(CFA_XSP16, literal(-12)))
          CFI (cfiCond221) VB load(1, XDATA, add(CFA_XSP16, literal(-11)))
          CFI (cfiCond221) V0 load(1, XDATA, add(CFA_XSP16, literal(-10)))
          CFI (cfiCond221) V1 load(1, XDATA, add(CFA_XSP16, literal(-9)))
          CFI (cfiCond221) V2 load(1, XDATA, add(CFA_XSP16, literal(-8)))
          CFI (cfiCond221) V3 load(1, XDATA, add(CFA_XSP16, literal(-7)))
          CFI (cfiCond221) R7 load(1, XDATA, add(CFA_XSP16, literal(-6)))
          CFI (cfiCond221) ?RET_LOW load(1, XDATA, add(CFA_XSP16, literal(-5)))
          CFI (cfiCond221) ?RET_HIGH load(1, XDATA, add(CFA_XSP16, literal(-4)))
          CFI (cfiCond221) ?BRET_EXT load(1, XDATA, add(CFA_XSP16, literal(-3)))
          CFI (cfiCond221) DPL0 load(1, XDATA, add(CFA_XSP16, literal(-2)))
          CFI (cfiCond221) DPH0 load(1, XDATA, add(CFA_XSP16, literal(-1)))
          CFI (cfiCond221) CFA_SP SP+0
          CFI (cfiCond221) CFA_XSP16 add(XSP16, 16)
          CFI Block cfiCond222 Using cfiCommon0
          CFI (cfiCond222) Function ZDSecMgrDeviceJoin
          CFI (cfiCond222) Conditional ??CrossCallReturnLabel_121, ??CrossCallReturnLabel_57
          CFI (cfiCond222) R6 load(1, XDATA, add(CFA_XSP16, literal(-10)))
          CFI (cfiCond222) VB load(1, XDATA, add(CFA_XSP16, literal(-9)))
          CFI (cfiCond222) V0 load(1, XDATA, add(CFA_XSP16, literal(-8)))
          CFI (cfiCond222) V1 load(1, XDATA, add(CFA_XSP16, literal(-7)))
          CFI (cfiCond222) R7 load(1, XDATA, add(CFA_XSP16, literal(-6)))
          CFI (cfiCond222) ?RET_LOW load(1, XDATA, add(CFA_XSP16, literal(-5)))
          CFI (cfiCond222) ?RET_HIGH load(1, XDATA, add(CFA_XSP16, literal(-4)))
          CFI (cfiCond222) ?BRET_EXT load(1, XDATA, add(CFA_XSP16, literal(-3)))
          CFI (cfiCond222) DPL0 load(1, XDATA, add(CFA_XSP16, literal(-2)))
          CFI (cfiCond222) DPH0 load(1, XDATA, add(CFA_XSP16, literal(-1)))
          CFI (cfiCond222) CFA_SP SP+0
          CFI (cfiCond222) CFA_XSP16 add(XSP16, 14)
          CFI Block cfiPicker223 Using cfiCommon1
          CFI (cfiPicker223) NoFunction
          CFI (cfiPicker223) Picker
        MOVX    A,@DPTR
        MOV     R4,A
        INC     DPTR
        MOVX    A,@DPTR
        MOV     R5,A
        RET
          CFI EndBlock cfiCond216
          CFI EndBlock cfiCond217
          CFI EndBlock cfiCond218
          CFI EndBlock cfiCond219
          CFI EndBlock cfiCond220
          CFI EndBlock cfiCond221
          CFI EndBlock cfiCond222
          CFI EndBlock cfiPicker223

        RSEG BANKED_CODE:CODE:NOROOT(0)
?Subroutine1:
          CFI Block cfiBlock224 Using cfiCommon0
          CFI NoFunction
          CFI CFA_SP SP+0
          CFI CFA_XSP16 add(XSP16, 11)
          CFI VB load(1, XDATA, add(CFA_XSP16, literal(-8)))
          CFI DPL0 load(1, XDATA, add(CFA_XSP16, literal(-2)))
          CFI DPH0 load(1, XDATA, add(CFA_XSP16, literal(-1)))
          CFI R6 load(1, XDATA, add(CFA_XSP16, literal(-9)))
          CFI R7 load(1, XDATA, add(CFA_XSP16, literal(-6)))
          CFI V0 load(1, XDATA, add(CFA_XSP16, literal(-7)))
          CFI ?BRET_EXT load(1, XDATA, add(CFA_XSP16, literal(-3)))
          CFI ?RET_HIGH load(1, XDATA, add(CFA_XSP16, literal(-4)))
          CFI ?RET_LOW load(1, XDATA, add(CFA_XSP16, literal(-5)))
        MOV     R1,?V0 + 0
          CFI EndBlock cfiBlock224
        REQUIRE ??Subroutine81_0
        ; // Fall through to label ??Subroutine81_0

        RSEG BANKED_CODE:CODE:NOROOT(0)
??Subroutine81_0:
          CFI Block cfiBlock225 Using cfiCommon0
          CFI NoFunction
          CFI CFA_SP SP+0
          CFI CFA_XSP16 add(XSP16, 11)
          CFI VB load(1, XDATA, add(CFA_XSP16, literal(-8)))
          CFI DPL0 load(1, XDATA, add(CFA_XSP16, literal(-2)))
          CFI DPH0 load(1, XDATA, add(CFA_XSP16, literal(-1)))
          CFI R6 load(1, XDATA, add(CFA_XSP16, literal(-9)))
          CFI R7 load(1, XDATA, add(CFA_XSP16, literal(-6)))
          CFI V0 load(1, XDATA, add(CFA_XSP16, literal(-7)))
          CFI ?BRET_EXT load(1, XDATA, add(CFA_XSP16, literal(-3)))
          CFI ?RET_HIGH load(1, XDATA, add(CFA_XSP16, literal(-4)))
          CFI ?RET_LOW load(1, XDATA, add(CFA_XSP16, literal(-5)))
        MOV     A,#0x2
          CFI EndBlock cfiBlock225
        REQUIRE ??Subroutine82_0
        ; // Fall through to label ??Subroutine82_0

        RSEG BANKED_CODE:CODE:NOROOT(0)
??Subroutine82_0:
          CFI Block cfiBlock226 Using cfiCommon0
          CFI NoFunction
          CFI CFA_SP SP+0
          CFI CFA_XSP16 add(XSP16, 22)
          CFI VB load(1, XDATA, add(CFA_XSP16, literal(-8)))
          CFI DPL0 load(1, XDATA, add(CFA_XSP16, literal(-2)))
          CFI DPH0 load(1, XDATA, add(CFA_XSP16, literal(-1)))
          CFI R6 load(1, XDATA, add(CFA_XSP16, literal(-9)))
          CFI R7 load(1, XDATA, add(CFA_XSP16, literal(-6)))
          CFI V0 load(1, XDATA, add(CFA_XSP16, literal(-7)))
          CFI ?BRET_EXT load(1, XDATA, add(CFA_XSP16, literal(-3)))
          CFI ?RET_HIGH load(1, XDATA, add(CFA_XSP16, literal(-4)))
          CFI ?RET_LOW load(1, XDATA, add(CFA_XSP16, literal(-5)))
          CFI Invalid
        LCALL   ?DEALLOC_XSTACK8
          CFI EndBlock cfiBlock226
        REQUIRE ??Subroutine83_0
        ; // Fall through to label ??Subroutine83_0

        RSEG BANKED_CODE:CODE:NOROOT(0)
??Subroutine83_0:
          CFI Block cfiBlock227 Using cfiCommon0
          CFI NoFunction
          CFI CFA_SP SP+0
          CFI CFA_XSP16 add(XSP16, 9)
          CFI VB load(1, XDATA, add(CFA_XSP16, literal(-8)))
          CFI DPL0 load(1, XDATA, add(CFA_XSP16, literal(-2)))
          CFI DPH0 load(1, XDATA, add(CFA_XSP16, literal(-1)))
          CFI R6 load(1, XDATA, add(CFA_XSP16, literal(-9)))
          CFI R7 load(1, XDATA, add(CFA_XSP16, literal(-6)))
          CFI V0 load(1, XDATA, add(CFA_XSP16, literal(-7)))
          CFI ?BRET_EXT load(1, XDATA, add(CFA_XSP16, literal(-3)))
          CFI ?RET_HIGH load(1, XDATA, add(CFA_XSP16, literal(-4)))
          CFI ?RET_LOW load(1, XDATA, add(CFA_XSP16, literal(-5)))
        MOV     R7,#0x1
        LJMP    ?BANKED_LEAVE_XDATA
          CFI EndBlock cfiBlock227
// 1825 
// 1826 /******************************************************************************
// 1827  * @fn          ZDSecMgrDeviceValidateRM (RESIDENTIAL MODE)
// 1828  *
// 1829  * @brief       Decide whether device is allowed.
// 1830  *
// 1831  * @param       device - [in] ZDSecMgrDevice_t, device info
// 1832  *
// 1833  * @return      ZStatus_t
// 1834  */

        RSEG BANKED_CODE:CODE:NOROOT(0)
// 1835 ZStatus_t ZDSecMgrDeviceValidateRM( ZDSecMgrDevice_t* device )
ZDSecMgrDeviceValidateRM:
          CFI Block cfiBlock228 Using cfiCommon0
          CFI Function ZDSecMgrDeviceValidateRM
        CODE
// 1836 {
        PUSH    DPL
          CFI DPL0 Frame(CFA_SP, 4)
          CFI CFA_SP SP+-4
        PUSH    DPH
          CFI DPH0 Frame(CFA_SP, 5)
          CFI CFA_SP SP+-5
        ; Saved register size: 2
        ; Auto size: 0
// 1837 
// 1838   ZStatus_t status;
// 1839   status = ZSuccess;
        MOV     R1,#0x0
// 1840 
// 1841   (void)device;  // Intentionally unreferenced parameter
// 1842   
// 1843   // For test purpose, turning off the zgSecurePermitJoin flag will force
// 1844   // the trust center to reject any newly joining devices by sending
// 1845   // Remove-device to the parents.
// 1846   if ( zgSecurePermitJoin == false )
        MOV     DPTR,#zgSecurePermitJoin
        MOVX    A,@DPTR
        JNZ     ??ZDSecMgrDeviceValidateRM_0
// 1847   {
// 1848     status = ZNwkUnknownDevice;
        MOV     R1,#-0x38
// 1849   }
// 1850 
// 1851 
// 1852 
// 1853 #if 0  // Taken out because the following functionality is only used for test
// 1854        // purpose. A more efficient (above) way is used. It can be put
// 1855        // back in if customers request for a white/black list feature.
// 1856        // ZDSecMgrStoredDeviceList[] is defined in ZDSecMgr.c
// 1857 
// 1858   // The following code processes the device black list (stored device list)
// 1859   // If the joining device is not part of the forbidden device list
// 1860   // Return ZSuccess. Otherwise, return ZNwkUnknownDevice. The trust center
// 1861   // will send Remove-device and ban the device from joining.
// 1862 
// 1863   uint8     index;
// 1864   uint8*    restricted;
// 1865 
// 1866   // Look through the stored device list - used for restricted devices
// 1867   for ( index = 0; index < ZDSECMGR_STORED_DEVICES; index++ )
// 1868   {
// 1869     restricted = ZDSecMgrStoredDeviceList[index];
// 1870 
// 1871     if ( AddrMgrExtAddrEqual( restricted, device->extAddr )  == TRUE )
// 1872     {
// 1873       // return as unknown device in regards to validation
// 1874       status = ZNwkUnknownDevice;
// 1875 
// 1876       // break from loop
// 1877       index = ZDSECMGR_STORED_DEVICES;
// 1878     }
// 1879   }
// 1880 
// 1881 #endif
// 1882 
// 1883   return status;
??ZDSecMgrDeviceValidateRM_0:
        LJMP    ??Subroutine89_0 & 0xFFFF
          CFI EndBlock cfiBlock228
// 1884 }
// 1885 
// 1886 /******************************************************************************
// 1887  * @fn          ZDSecMgrDeviceValidateCM (COMMERCIAL MODE)
// 1888  *
// 1889  * @brief       Decide whether device is allowed.
// 1890  *
// 1891  * @param       device - [in] ZDSecMgrDevice_t, device info
// 1892  *
// 1893  * @return      ZStatus_t
// 1894  */
// 1895 //devtag.pro.security

        RSEG BANKED_CODE:CODE:NOROOT(0)
// 1896 ZStatus_t ZDSecMgrDeviceValidateCM( ZDSecMgrDevice_t* device )
ZDSecMgrDeviceValidateCM:
          CFI Block cfiBlock229 Using cfiCommon0
          CFI Function ZDSecMgrDeviceValidateCM
        CODE
// 1897 {
        FUNCALL ZDSecMgrDeviceValidateCM, ZDSecMgrAddrStore
        LOCFRAME ISTACK, 0, STACK
        LOCFRAME PSTACK, 0, STACK
        LOCFRAME XSTACK, 16, STACK
        LOCFRAME IOVERLAY, 0, STATIC
        LOCFRAME DOVERLAY, 0, STATIC
        ARGFRAME ISTACK, 0, STACK
        ARGFRAME PSTACK, 0, STACK
        ARGFRAME XSTACK, 16, STACK
        ARGFRAME IOVERLAY, 0, STATIC
        ARGFRAME DOVERLAY, 0, STATIC
        FUNCALL ZDSecMgrDeviceValidateCM, ZDSecMgrMasterKeyLoad
        LOCFRAME ISTACK, 0, STACK
        LOCFRAME PSTACK, 0, STACK
        LOCFRAME XSTACK, 14, STACK
        LOCFRAME IOVERLAY, 0, STATIC
        LOCFRAME DOVERLAY, 0, STATIC
        ARGFRAME ISTACK, 0, STACK
        ARGFRAME PSTACK, 0, STACK
        ARGFRAME XSTACK, 14, STACK
        ARGFRAME IOVERLAY, 0, STATIC
        ARGFRAME DOVERLAY, 0, STATIC
        FUNCALL ZDSecMgrDeviceValidateCM, ZDSecMgrDeviceEntryAdd
        LOCFRAME ISTACK, 0, STACK
        LOCFRAME PSTACK, 0, STACK
        LOCFRAME XSTACK, 14, STACK
        LOCFRAME IOVERLAY, 0, STATIC
        LOCFRAME DOVERLAY, 0, STATIC
        ARGFRAME ISTACK, 0, STACK
        ARGFRAME PSTACK, 0, STACK
        ARGFRAME XSTACK, 14, STACK
        ARGFRAME IOVERLAY, 0, STATIC
        ARGFRAME DOVERLAY, 0, STATIC
        MOV     A,#-0xc
        LCALL   ?BANKED_ENTER_XDATA
          CFI DPH0 load(1, XDATA, add(CFA_XSP16, literal(-1)))
          CFI DPL0 load(1, XDATA, add(CFA_XSP16, literal(-2)))
          CFI ?BRET_EXT load(1, XDATA, add(CFA_XSP16, literal(-3)))
          CFI ?RET_HIGH load(1, XDATA, add(CFA_XSP16, literal(-4)))
          CFI ?RET_LOW load(1, XDATA, add(CFA_XSP16, literal(-5)))
          CFI R7 load(1, XDATA, add(CFA_XSP16, literal(-6)))
          CFI V3 load(1, XDATA, add(CFA_XSP16, literal(-7)))
          CFI V2 load(1, XDATA, add(CFA_XSP16, literal(-8)))
          CFI V1 load(1, XDATA, add(CFA_XSP16, literal(-9)))
          CFI V0 load(1, XDATA, add(CFA_XSP16, literal(-10)))
          CFI VB load(1, XDATA, add(CFA_XSP16, literal(-11)))
          CFI R6 load(1, XDATA, add(CFA_XSP16, literal(-12)))
          CFI CFA_SP SP+0
          CFI CFA_XSP16 add(XSP16, 12)
        ; Saved register size: 12
        ; Auto size: 2
        MOV     A,#-0x2
        LCALL   ?ALLOC_XSTACK8
          CFI CFA_XSP16 add(XSP16, 14)
        MOV     A,R2
        MOV     R6,A
        MOV     A,R3
        MOV     R7,A
// 1898   ZStatus_t status;
// 1899   uint16    ami;
// 1900   uint8*    key;
// 1901 
// 1902 
// 1903 //  // check for pre configured setting
// 1904 //  if ( device->secure == TRUE )
// 1905 //  {
// 1906 //    // get EXT address and MASTER key
// 1907 //    status = ZDSecMgrExtAddrLookup( device->extAddr, &ami );
// 1908 //
// 1909 //    if ( status == ZSuccess )
// 1910 //    {
// 1911 //      status = ZDSecMgrMasterKeyLookup( ami, &key );
// 1912 //    }
// 1913 //  }
// 1914 //  else
// 1915 //  {
// 1916     // implement EXT address and MASTER key policy here -- the total number of
// 1917     // Security Manager entries should never exceed the number of EXT addresses
// 1918     // and MASTER keys available
// 1919 
// 1920     // set status based on policy
// 1921     //status = ZNwkUnknownDevice;
// 1922 
// 1923     // set status based on policy
// 1924     status = ZSuccess; // ZNwkUnknownDevice;
// 1925 
// 1926     // get key based on policy
// 1927     key = ZDSecMgrTCMasterKey;
// 1928 
// 1929     // if policy, store new EXT address
// 1930     status = ZDSecMgrAddrStore( device->nwkAddr, device->extAddr, &ami );
        MOV     A,R6
        ADD     A,#0x2
        LCALL   ?Subroutine57 & 0xFFFF
??CrossCallReturnLabel_106:
        ; Setup parameters for call to function ZDSecMgrAddrStore
        MOV     DPL,?XSP + 0
        MOV     DPH,?XSP + 1
        MOV     ?V0 + 2,DPL
        MOV     ?V0 + 3,DPH
        MOV     R0,#?V0 + 2
        LCALL   ?PUSH_XSTACK_I_TWO
          CFI CFA_XSP16 add(XSP16, 16)
        MOV     DPL,?V0 + 0
        MOV     DPH,R1
        LCALL   ?Subroutine49 & 0xFFFF
??CrossCallReturnLabel_56:
        LCALL   ??Subroutine85_0 & 0xFFFF
??CrossCallReturnLabel_135:
        LCALL   ??ZDSecMgrAddrStore?relay
        MOV     A,#0x2
        LCALL   ?DEALLOC_XSTACK8
          CFI CFA_XSP16 add(XSP16, 14)
        MOV     A,R1
        MOV     ?V0 + 2,A
// 1931 
// 1932     // set the key
// 1933     ZDSecMgrMasterKeyLoad( device->extAddr, key );
        ; Setup parameters for call to function ZDSecMgrMasterKeyLoad
        MOV     R4,#ZDSecMgrTCMasterKey & 0xff
        MOV     R5,#(ZDSecMgrTCMasterKey >> 8) & 0xff
        MOV     DPL,?V0 + 0
        MOV     DPH,?V0 + 1
        LCALL   ??Subroutine85_0 & 0xFFFF
??CrossCallReturnLabel_136:
        LCALL   ??ZDSecMgrMasterKeyLoad?relay
// 1934 //  }
// 1935 
// 1936   // if EXT address and MASTER key available -- add device
// 1937   if ( status == ZSuccess )
        MOV     A,?V0 + 2
        JNZ     ??ZDSecMgrDeviceValidateCM_0
// 1938   {
// 1939     // add device to internal data - with control
// 1940     status = ZDSecMgrDeviceEntryAdd( device, ami );
        ; Setup parameters for call to function ZDSecMgrDeviceEntryAdd
        LCALL   ?Subroutine41 & 0xFFFF
// 1941   }
??CrossCallReturnLabel_118:
        LCALL   ??ZDSecMgrDeviceEntryAdd?relay
        MOV     A,R1
        MOV     ?V0 + 2,A
// 1942 
// 1943   return status;
??ZDSecMgrDeviceValidateCM_0:
        MOV     R1,?V0 + 2
          CFI EndBlock cfiBlock229
        REQUIRE ?Subroutine12
        ; // Fall through to label ?Subroutine12
// 1944 }

        RSEG BANKED_CODE:CODE:NOROOT(0)
?Subroutine12:
          CFI Block cfiBlock230 Using cfiCommon0
          CFI NoFunction
          CFI CFA_SP SP+0
          CFI CFA_XSP16 add(XSP16, 14)
          CFI VB load(1, XDATA, add(CFA_XSP16, literal(-11)))
          CFI DPL0 load(1, XDATA, add(CFA_XSP16, literal(-2)))
          CFI DPH0 load(1, XDATA, add(CFA_XSP16, literal(-1)))
          CFI R6 load(1, XDATA, add(CFA_XSP16, literal(-12)))
          CFI R7 load(1, XDATA, add(CFA_XSP16, literal(-6)))
          CFI V0 load(1, XDATA, add(CFA_XSP16, literal(-10)))
          CFI V1 load(1, XDATA, add(CFA_XSP16, literal(-9)))
          CFI V2 load(1, XDATA, add(CFA_XSP16, literal(-8)))
          CFI V3 load(1, XDATA, add(CFA_XSP16, literal(-7)))
          CFI ?BRET_EXT load(1, XDATA, add(CFA_XSP16, literal(-3)))
          CFI ?RET_HIGH load(1, XDATA, add(CFA_XSP16, literal(-4)))
          CFI ?RET_LOW load(1, XDATA, add(CFA_XSP16, literal(-5)))
        MOV     A,#0x2
        LJMP    ??Subroutine97_0 & 0xFFFF
          CFI EndBlock cfiBlock230

        RSEG BANKED_CODE:CODE:NOROOT(0)
?Subroutine37:
          CFI Block cfiCond231 Using cfiCommon0
          CFI Function ZDSecMgrEntryLookupExt
          CFI Conditional ??CrossCallReturnLabel_148
          CFI R6 load(1, XDATA, add(CFA_XSP16, literal(-9)))
          CFI VB load(1, XDATA, add(CFA_XSP16, literal(-8)))
          CFI V0 load(1, XDATA, add(CFA_XSP16, literal(-7)))
          CFI R7 load(1, XDATA, add(CFA_XSP16, literal(-6)))
          CFI ?RET_LOW load(1, XDATA, add(CFA_XSP16, literal(-5)))
          CFI ?RET_HIGH load(1, XDATA, add(CFA_XSP16, literal(-4)))
          CFI ?BRET_EXT load(1, XDATA, add(CFA_XSP16, literal(-3)))
          CFI DPL0 load(1, XDATA, add(CFA_XSP16, literal(-2)))
          CFI DPH0 load(1, XDATA, add(CFA_XSP16, literal(-1)))
          CFI CFA_SP SP+0
          CFI CFA_XSP16 add(XSP16, 11)
          CFI Block cfiCond232 Using cfiCommon0
          CFI (cfiCond232) Function ZDSecMgrMasterKeyLoad
          CFI (cfiCond232) Conditional ??CrossCallReturnLabel_149
          CFI (cfiCond232) R6 load(1, XDATA, add(CFA_XSP16, literal(-12)))
          CFI (cfiCond232) VB load(1, XDATA, add(CFA_XSP16, literal(-11)))
          CFI (cfiCond232) V0 load(1, XDATA, add(CFA_XSP16, literal(-10)))
          CFI (cfiCond232) V1 load(1, XDATA, add(CFA_XSP16, literal(-9)))
          CFI (cfiCond232) V2 load(1, XDATA, add(CFA_XSP16, literal(-8)))
          CFI (cfiCond232) V3 load(1, XDATA, add(CFA_XSP16, literal(-7)))
          CFI (cfiCond232) R7 load(1, XDATA, add(CFA_XSP16, literal(-6)))
          CFI (cfiCond232) ?RET_LOW load(1, XDATA, add(CFA_XSP16, literal(-5)))
          CFI (cfiCond232) ?RET_HIGH load(1, XDATA, add(CFA_XSP16, literal(-4)))
          CFI (cfiCond232) ?BRET_EXT load(1, XDATA, add(CFA_XSP16, literal(-3)))
          CFI (cfiCond232) DPL0 load(1, XDATA, add(CFA_XSP16, literal(-2)))
          CFI (cfiCond232) DPH0 load(1, XDATA, add(CFA_XSP16, literal(-1)))
          CFI (cfiCond232) CFA_SP SP+0
          CFI (cfiCond232) CFA_XSP16 add(XSP16, 16)
          CFI Block cfiCond233 Using cfiCommon0
          CFI (cfiCond233) Function APSME_MasterKeyGet
          CFI (cfiCond233) Conditional ??CrossCallReturnLabel_150
          CFI (cfiCond233) R6 load(1, XDATA, add(CFA_XSP16, literal(-9)))
          CFI (cfiCond233) VB load(1, XDATA, add(CFA_XSP16, literal(-8)))
          CFI (cfiCond233) V0 load(1, XDATA, add(CFA_XSP16, literal(-7)))
          CFI (cfiCond233) R7 load(1, XDATA, add(CFA_XSP16, literal(-6)))
          CFI (cfiCond233) ?RET_LOW load(1, XDATA, add(CFA_XSP16, literal(-5)))
          CFI (cfiCond233) ?RET_HIGH load(1, XDATA, add(CFA_XSP16, literal(-4)))
          CFI (cfiCond233) ?BRET_EXT load(1, XDATA, add(CFA_XSP16, literal(-3)))
          CFI (cfiCond233) DPL0 load(1, XDATA, add(CFA_XSP16, literal(-2)))
          CFI (cfiCond233) DPH0 load(1, XDATA, add(CFA_XSP16, literal(-1)))
          CFI (cfiCond233) CFA_SP SP+0
          CFI (cfiCond233) CFA_XSP16 add(XSP16, 11)
          CFI Block cfiPicker234 Using cfiCommon1
          CFI (cfiPicker234) NoFunction
          CFI (cfiPicker234) Picker
        MOV     A,R6
        MOV     R4,A
        MOV     A,R7
        MOV     R5,A
          CFI EndBlock cfiCond231
          CFI EndBlock cfiCond232
          CFI EndBlock cfiCond233
          CFI EndBlock cfiPicker234
        REQUIRE ??Subroutine84_0
        ; // Fall through to label ??Subroutine84_0

        RSEG BANKED_CODE:CODE:NOROOT(0)
??Subroutine84_0:
          CFI Block cfiCond235 Using cfiCommon0
          CFI Function ZDSecMgrMasterKeyLoad
          CFI Conditional ??CrossCallReturnLabel_144
          CFI R6 load(1, XDATA, add(CFA_XSP16, literal(-12)))
          CFI VB load(1, XDATA, add(CFA_XSP16, literal(-11)))
          CFI V0 load(1, XDATA, add(CFA_XSP16, literal(-10)))
          CFI V1 load(1, XDATA, add(CFA_XSP16, literal(-9)))
          CFI V2 load(1, XDATA, add(CFA_XSP16, literal(-8)))
          CFI V3 load(1, XDATA, add(CFA_XSP16, literal(-7)))
          CFI R7 load(1, XDATA, add(CFA_XSP16, literal(-6)))
          CFI ?RET_LOW load(1, XDATA, add(CFA_XSP16, literal(-5)))
          CFI ?RET_HIGH load(1, XDATA, add(CFA_XSP16, literal(-4)))
          CFI ?BRET_EXT load(1, XDATA, add(CFA_XSP16, literal(-3)))
          CFI DPL0 load(1, XDATA, add(CFA_XSP16, literal(-2)))
          CFI DPH0 load(1, XDATA, add(CFA_XSP16, literal(-1)))
          CFI CFA_SP SP+0
          CFI CFA_XSP16 add(XSP16, 16)
          CFI Block cfiCond236 Using cfiCommon0
          CFI (cfiCond236) Function ZDSecMgrDeviceValidateSKKE
          CFI (cfiCond236) Conditional ??CrossCallReturnLabel_145
          CFI (cfiCond236) R6 load(1, XDATA, add(CFA_XSP16, literal(-9)))
          CFI (cfiCond236) VB load(1, XDATA, add(CFA_XSP16, literal(-8)))
          CFI (cfiCond236) V0 load(1, XDATA, add(CFA_XSP16, literal(-7)))
          CFI (cfiCond236) R7 load(1, XDATA, add(CFA_XSP16, literal(-6)))
          CFI (cfiCond236) ?RET_LOW load(1, XDATA, add(CFA_XSP16, literal(-5)))
          CFI (cfiCond236) ?RET_HIGH load(1, XDATA, add(CFA_XSP16, literal(-4)))
          CFI (cfiCond236) ?BRET_EXT load(1, XDATA, add(CFA_XSP16, literal(-3)))
          CFI (cfiCond236) DPL0 load(1, XDATA, add(CFA_XSP16, literal(-2)))
          CFI (cfiCond236) DPH0 load(1, XDATA, add(CFA_XSP16, literal(-1)))
          CFI (cfiCond236) CFA_SP SP+0
          CFI (cfiCond236) CFA_XSP16 add(XSP16, 13)
          CFI Block cfiCond237 Using cfiCommon0
          CFI (cfiCond237) Function ZDSecMgrTCDataLoad
          CFI (cfiCond237) Conditional ??CrossCallReturnLabel_146
          CFI (cfiCond237) R6 load(1, XDATA, add(CFA_XSP16, literal(-10)))
          CFI (cfiCond237) VB load(1, XDATA, add(CFA_XSP16, literal(-9)))
          CFI (cfiCond237) V0 load(1, XDATA, add(CFA_XSP16, literal(-8)))
          CFI (cfiCond237) V1 load(1, XDATA, add(CFA_XSP16, literal(-7)))
          CFI (cfiCond237) R7 load(1, XDATA, add(CFA_XSP16, literal(-6)))
          CFI (cfiCond237) ?RET_LOW load(1, XDATA, add(CFA_XSP16, literal(-5)))
          CFI (cfiCond237) ?RET_HIGH load(1, XDATA, add(CFA_XSP16, literal(-4)))
          CFI (cfiCond237) ?BRET_EXT load(1, XDATA, add(CFA_XSP16, literal(-3)))
          CFI (cfiCond237) DPL0 load(1, XDATA, add(CFA_XSP16, literal(-2)))
          CFI (cfiCond237) DPH0 load(1, XDATA, add(CFA_XSP16, literal(-1)))
          CFI (cfiCond237) CFA_SP SP+0
          CFI (cfiCond237) CFA_XSP16 add(XSP16, 14)
          CFI Block cfiCond238 Using cfiCommon0
          CFI (cfiCond238) Function ZDSecMgrTCDataLoad
          CFI (cfiCond238) Conditional ??CrossCallReturnLabel_147
          CFI (cfiCond238) R6 load(1, XDATA, add(CFA_XSP16, literal(-10)))
          CFI (cfiCond238) VB load(1, XDATA, add(CFA_XSP16, literal(-9)))
          CFI (cfiCond238) V0 load(1, XDATA, add(CFA_XSP16, literal(-8)))
          CFI (cfiCond238) V1 load(1, XDATA, add(CFA_XSP16, literal(-7)))
          CFI (cfiCond238) R7 load(1, XDATA, add(CFA_XSP16, literal(-6)))
          CFI (cfiCond238) ?RET_LOW load(1, XDATA, add(CFA_XSP16, literal(-5)))
          CFI (cfiCond238) ?RET_HIGH load(1, XDATA, add(CFA_XSP16, literal(-4)))
          CFI (cfiCond238) ?BRET_EXT load(1, XDATA, add(CFA_XSP16, literal(-3)))
          CFI (cfiCond238) DPL0 load(1, XDATA, add(CFA_XSP16, literal(-2)))
          CFI (cfiCond238) DPH0 load(1, XDATA, add(CFA_XSP16, literal(-1)))
          CFI (cfiCond238) CFA_SP SP+0
          CFI (cfiCond238) CFA_XSP16 add(XSP16, 14)
          CFI Block cfiCond239 Using cfiCommon0
          CFI (cfiCond239) Function ZDSecMgrEntryLookupExt
          CFI (cfiCond239) Conditional ??CrossCallReturnLabel_148
          CFI (cfiCond239) R6 load(1, XDATA, add(CFA_XSP16, literal(-9)))
          CFI (cfiCond239) VB load(1, XDATA, add(CFA_XSP16, literal(-8)))
          CFI (cfiCond239) V0 load(1, XDATA, add(CFA_XSP16, literal(-7)))
          CFI (cfiCond239) R7 load(1, XDATA, add(CFA_XSP16, literal(-6)))
          CFI (cfiCond239) ?RET_LOW load(1, XDATA, add(CFA_XSP16, literal(-5)))
          CFI (cfiCond239) ?RET_HIGH load(1, XDATA, add(CFA_XSP16, literal(-4)))
          CFI (cfiCond239) ?BRET_EXT load(1, XDATA, add(CFA_XSP16, literal(-3)))
          CFI (cfiCond239) DPL0 load(1, XDATA, add(CFA_XSP16, literal(-2)))
          CFI (cfiCond239) DPH0 load(1, XDATA, add(CFA_XSP16, literal(-1)))
          CFI (cfiCond239) CFA_SP SP+0
          CFI (cfiCond239) CFA_XSP16 add(XSP16, 11)
          CFI Block cfiCond240 Using cfiCommon0
          CFI (cfiCond240) Function ZDSecMgrMasterKeyLoad
          CFI (cfiCond240) Conditional ??CrossCallReturnLabel_149
          CFI (cfiCond240) R6 load(1, XDATA, add(CFA_XSP16, literal(-12)))
          CFI (cfiCond240) VB load(1, XDATA, add(CFA_XSP16, literal(-11)))
          CFI (cfiCond240) V0 load(1, XDATA, add(CFA_XSP16, literal(-10)))
          CFI (cfiCond240) V1 load(1, XDATA, add(CFA_XSP16, literal(-9)))
          CFI (cfiCond240) V2 load(1, XDATA, add(CFA_XSP16, literal(-8)))
          CFI (cfiCond240) V3 load(1, XDATA, add(CFA_XSP16, literal(-7)))
          CFI (cfiCond240) R7 load(1, XDATA, add(CFA_XSP16, literal(-6)))
          CFI (cfiCond240) ?RET_LOW load(1, XDATA, add(CFA_XSP16, literal(-5)))
          CFI (cfiCond240) ?RET_HIGH load(1, XDATA, add(CFA_XSP16, literal(-4)))
          CFI (cfiCond240) ?BRET_EXT load(1, XDATA, add(CFA_XSP16, literal(-3)))
          CFI (cfiCond240) DPL0 load(1, XDATA, add(CFA_XSP16, literal(-2)))
          CFI (cfiCond240) DPH0 load(1, XDATA, add(CFA_XSP16, literal(-1)))
          CFI (cfiCond240) CFA_SP SP+0
          CFI (cfiCond240) CFA_XSP16 add(XSP16, 16)
          CFI Block cfiCond241 Using cfiCommon0
          CFI (cfiCond241) Function APSME_MasterKeyGet
          CFI (cfiCond241) Conditional ??CrossCallReturnLabel_150
          CFI (cfiCond241) R6 load(1, XDATA, add(CFA_XSP16, literal(-9)))
          CFI (cfiCond241) VB load(1, XDATA, add(CFA_XSP16, literal(-8)))
          CFI (cfiCond241) V0 load(1, XDATA, add(CFA_XSP16, literal(-7)))
          CFI (cfiCond241) R7 load(1, XDATA, add(CFA_XSP16, literal(-6)))
          CFI (cfiCond241) ?RET_LOW load(1, XDATA, add(CFA_XSP16, literal(-5)))
          CFI (cfiCond241) ?RET_HIGH load(1, XDATA, add(CFA_XSP16, literal(-4)))
          CFI (cfiCond241) ?BRET_EXT load(1, XDATA, add(CFA_XSP16, literal(-3)))
          CFI (cfiCond241) DPL0 load(1, XDATA, add(CFA_XSP16, literal(-2)))
          CFI (cfiCond241) DPH0 load(1, XDATA, add(CFA_XSP16, literal(-1)))
          CFI (cfiCond241) CFA_SP SP+0
          CFI (cfiCond241) CFA_XSP16 add(XSP16, 11)
          CFI Block cfiPicker242 Using cfiCommon1
          CFI (cfiPicker242) NoFunction
          CFI (cfiPicker242) Picker
        MOV     DPL,?XSP + 0
        MOV     DPH,?XSP + 1
          CFI EndBlock cfiCond235
          CFI EndBlock cfiCond236
          CFI EndBlock cfiCond237
          CFI EndBlock cfiCond238
          CFI EndBlock cfiCond239
          CFI EndBlock cfiCond240
          CFI EndBlock cfiCond241
          CFI EndBlock cfiPicker242
        REQUIRE ??Subroutine85_0
        ; // Fall through to label ??Subroutine85_0

        RSEG BANKED_CODE:CODE:NOROOT(0)
??Subroutine85_0:
          CFI Block cfiCond243 Using cfiCommon0
          CFI Function ZDSecMgrMasterKeyStore
          CFI Conditional ??CrossCallReturnLabel_123
          CFI R6 load(1, XDATA, add(CFA_XSP16, literal(-15)))
          CFI VB load(1, XDATA, add(CFA_XSP16, literal(-14)))
          CFI V0 load(1, XDATA, add(CFA_XSP16, literal(-13)))
          CFI V1 load(1, XDATA, add(CFA_XSP16, literal(-12)))
          CFI V2 load(1, XDATA, add(CFA_XSP16, literal(-11)))
          CFI V3 load(1, XDATA, add(CFA_XSP16, literal(-10)))
          CFI V4 load(1, XDATA, add(CFA_XSP16, literal(-9)))
          CFI V5 load(1, XDATA, add(CFA_XSP16, literal(-8)))
          CFI V6 load(1, XDATA, add(CFA_XSP16, literal(-7)))
          CFI R7 load(1, XDATA, add(CFA_XSP16, literal(-6)))
          CFI ?RET_LOW load(1, XDATA, add(CFA_XSP16, literal(-5)))
          CFI ?RET_HIGH load(1, XDATA, add(CFA_XSP16, literal(-4)))
          CFI ?BRET_EXT load(1, XDATA, add(CFA_XSP16, literal(-3)))
          CFI DPL0 load(1, XDATA, add(CFA_XSP16, literal(-2)))
          CFI DPH0 load(1, XDATA, add(CFA_XSP16, literal(-1)))
          CFI CFA_SP SP+0
          CFI CFA_XSP16 add(XSP16, 15)
          CFI Block cfiCond244 Using cfiCommon0
          CFI (cfiCond244) Function ZDSecMgrCtrlAdd
          CFI (cfiCond244) Conditional ??CrossCallReturnLabel_124
          CFI (cfiCond244) R6 load(1, XDATA, add(CFA_XSP16, literal(-12)))
          CFI (cfiCond244) VB load(1, XDATA, add(CFA_XSP16, literal(-11)))
          CFI (cfiCond244) V0 load(1, XDATA, add(CFA_XSP16, literal(-10)))
          CFI (cfiCond244) V1 load(1, XDATA, add(CFA_XSP16, literal(-9)))
          CFI (cfiCond244) V2 load(1, XDATA, add(CFA_XSP16, literal(-8)))
          CFI (cfiCond244) V3 load(1, XDATA, add(CFA_XSP16, literal(-7)))
          CFI (cfiCond244) R7 load(1, XDATA, add(CFA_XSP16, literal(-6)))
          CFI (cfiCond244) ?RET_LOW load(1, XDATA, add(CFA_XSP16, literal(-5)))
          CFI (cfiCond244) ?RET_HIGH load(1, XDATA, add(CFA_XSP16, literal(-4)))
          CFI (cfiCond244) ?BRET_EXT load(1, XDATA, add(CFA_XSP16, literal(-3)))
          CFI (cfiCond244) DPL0 load(1, XDATA, add(CFA_XSP16, literal(-2)))
          CFI (cfiCond244) DPH0 load(1, XDATA, add(CFA_XSP16, literal(-1)))
          CFI (cfiCond244) CFA_SP SP+0
          CFI (cfiCond244) CFA_XSP16 add(XSP16, 12)
          CFI Block cfiCond245 Using cfiCommon0
          CFI (cfiCond245) Function ZDSecMgrMasterKeyLoad
          CFI (cfiCond245) Conditional ??CrossCallReturnLabel_125
          CFI (cfiCond245) R6 load(1, XDATA, add(CFA_XSP16, literal(-12)))
          CFI (cfiCond245) VB load(1, XDATA, add(CFA_XSP16, literal(-11)))
          CFI (cfiCond245) V0 load(1, XDATA, add(CFA_XSP16, literal(-10)))
          CFI (cfiCond245) V1 load(1, XDATA, add(CFA_XSP16, literal(-9)))
          CFI (cfiCond245) V2 load(1, XDATA, add(CFA_XSP16, literal(-8)))
          CFI (cfiCond245) V3 load(1, XDATA, add(CFA_XSP16, literal(-7)))
          CFI (cfiCond245) R7 load(1, XDATA, add(CFA_XSP16, literal(-6)))
          CFI (cfiCond245) ?RET_LOW load(1, XDATA, add(CFA_XSP16, literal(-5)))
          CFI (cfiCond245) ?RET_HIGH load(1, XDATA, add(CFA_XSP16, literal(-4)))
          CFI (cfiCond245) ?BRET_EXT load(1, XDATA, add(CFA_XSP16, literal(-3)))
          CFI (cfiCond245) DPL0 load(1, XDATA, add(CFA_XSP16, literal(-2)))
          CFI (cfiCond245) DPH0 load(1, XDATA, add(CFA_XSP16, literal(-1)))
          CFI (cfiCond245) CFA_SP SP+0
          CFI (cfiCond245) CFA_XSP16 add(XSP16, 19)
          CFI Block cfiCond246 Using cfiCommon0
          CFI (cfiCond246) Function ZDSecMgrAppKeyGet
          CFI (cfiCond246) Conditional ??CrossCallReturnLabel_126
          CFI (cfiCond246) R6 load(1, XDATA, add(CFA_XSP16, literal(-9)))
          CFI (cfiCond246) VB load(1, XDATA, add(CFA_XSP16, literal(-8)))
          CFI (cfiCond246) V0 load(1, XDATA, add(CFA_XSP16, literal(-7)))
          CFI (cfiCond246) R7 load(1, XDATA, add(CFA_XSP16, literal(-6)))
          CFI (cfiCond246) ?RET_LOW load(1, XDATA, add(CFA_XSP16, literal(-5)))
          CFI (cfiCond246) ?RET_HIGH load(1, XDATA, add(CFA_XSP16, literal(-4)))
          CFI (cfiCond246) ?BRET_EXT load(1, XDATA, add(CFA_XSP16, literal(-3)))
          CFI (cfiCond246) DPL0 load(1, XDATA, add(CFA_XSP16, literal(-2)))
          CFI (cfiCond246) DPH0 load(1, XDATA, add(CFA_XSP16, literal(-1)))
          CFI (cfiCond246) CFA_SP SP+0
          CFI (cfiCond246) CFA_XSP16 add(XSP16, 9)
          CFI Block cfiCond247 Using cfiCommon0
          CFI (cfiCond247) Function ZDSecMgrAppKeyReq
          CFI (cfiCond247) Conditional ??CrossCallReturnLabel_127
          CFI (cfiCond247) R6 load(1, XDATA, add(CFA_XSP16, literal(-10)))
          CFI (cfiCond247) VB load(1, XDATA, add(CFA_XSP16, literal(-9)))
          CFI (cfiCond247) V0 load(1, XDATA, add(CFA_XSP16, literal(-8)))
          CFI (cfiCond247) V1 load(1, XDATA, add(CFA_XSP16, literal(-7)))
          CFI (cfiCond247) R7 load(1, XDATA, add(CFA_XSP16, literal(-6)))
          CFI (cfiCond247) ?RET_LOW load(1, XDATA, add(CFA_XSP16, literal(-5)))
          CFI (cfiCond247) ?RET_HIGH load(1, XDATA, add(CFA_XSP16, literal(-4)))
          CFI (cfiCond247) ?BRET_EXT load(1, XDATA, add(CFA_XSP16, literal(-3)))
          CFI (cfiCond247) DPL0 load(1, XDATA, add(CFA_XSP16, literal(-2)))
          CFI (cfiCond247) DPH0 load(1, XDATA, add(CFA_XSP16, literal(-1)))
          CFI (cfiCond247) CFA_SP SP+0
          CFI (cfiCond247) CFA_XSP16 add(XSP16, 49)
          CFI Block cfiCond248 Using cfiCommon0
          CFI (cfiCond248) Function ZDSecMgrSendMasterKey
          CFI (cfiCond248) Conditional ??CrossCallReturnLabel_128
          CFI (cfiCond248) R6 load(1, XDATA, add(CFA_XSP16, literal(-10)))
          CFI (cfiCond248) VB load(1, XDATA, add(CFA_XSP16, literal(-9)))
          CFI (cfiCond248) V0 load(1, XDATA, add(CFA_XSP16, literal(-8)))
          CFI (cfiCond248) V1 load(1, XDATA, add(CFA_XSP16, literal(-7)))
          CFI (cfiCond248) R7 load(1, XDATA, add(CFA_XSP16, literal(-6)))
          CFI (cfiCond248) ?RET_LOW load(1, XDATA, add(CFA_XSP16, literal(-5)))
          CFI (cfiCond248) ?RET_HIGH load(1, XDATA, add(CFA_XSP16, literal(-4)))
          CFI (cfiCond248) ?BRET_EXT load(1, XDATA, add(CFA_XSP16, literal(-3)))
          CFI (cfiCond248) DPL0 load(1, XDATA, add(CFA_XSP16, literal(-2)))
          CFI (cfiCond248) DPH0 load(1, XDATA, add(CFA_XSP16, literal(-1)))
          CFI (cfiCond248) CFA_SP SP+0
          CFI (cfiCond248) CFA_XSP16 add(XSP16, 23)
          CFI Block cfiCond249 Using cfiCommon0
          CFI (cfiCond249) Function ZDSecMgrDeviceEntryAdd
          CFI (cfiCond249) Conditional ??CrossCallReturnLabel_129
          CFI (cfiCond249) R6 load(1, XDATA, add(CFA_XSP16, literal(-11)))
          CFI (cfiCond249) VB load(1, XDATA, add(CFA_XSP16, literal(-10)))
          CFI (cfiCond249) V0 load(1, XDATA, add(CFA_XSP16, literal(-9)))
          CFI (cfiCond249) V1 load(1, XDATA, add(CFA_XSP16, literal(-8)))
          CFI (cfiCond249) V2 load(1, XDATA, add(CFA_XSP16, literal(-7)))
          CFI (cfiCond249) R7 load(1, XDATA, add(CFA_XSP16, literal(-6)))
          CFI (cfiCond249) ?RET_LOW load(1, XDATA, add(CFA_XSP16, literal(-5)))
          CFI (cfiCond249) ?RET_HIGH load(1, XDATA, add(CFA_XSP16, literal(-4)))
          CFI (cfiCond249) ?BRET_EXT load(1, XDATA, add(CFA_XSP16, literal(-3)))
          CFI (cfiCond249) DPL0 load(1, XDATA, add(CFA_XSP16, literal(-2)))
          CFI (cfiCond249) DPH0 load(1, XDATA, add(CFA_XSP16, literal(-1)))
          CFI (cfiCond249) CFA_SP SP+0
          CFI (cfiCond249) CFA_XSP16 add(XSP16, 13)
          CFI Block cfiCond250 Using cfiCommon0
          CFI (cfiCond250) Function ZDSecMgrDeviceCtrlUpdate
          CFI (cfiCond250) Conditional ??CrossCallReturnLabel_130
          CFI (cfiCond250) R6 load(1, XDATA, add(CFA_XSP16, literal(-9)))
          CFI (cfiCond250) VB load(1, XDATA, add(CFA_XSP16, literal(-8)))
          CFI (cfiCond250) V0 load(1, XDATA, add(CFA_XSP16, literal(-7)))
          CFI (cfiCond250) R7 load(1, XDATA, add(CFA_XSP16, literal(-6)))
          CFI (cfiCond250) ?RET_LOW load(1, XDATA, add(CFA_XSP16, literal(-5)))
          CFI (cfiCond250) ?RET_HIGH load(1, XDATA, add(CFA_XSP16, literal(-4)))
          CFI (cfiCond250) ?BRET_EXT load(1, XDATA, add(CFA_XSP16, literal(-3)))
          CFI (cfiCond250) DPL0 load(1, XDATA, add(CFA_XSP16, literal(-2)))
          CFI (cfiCond250) DPH0 load(1, XDATA, add(CFA_XSP16, literal(-1)))
          CFI (cfiCond250) CFA_SP SP+0
          CFI (cfiCond250) CFA_XSP16 add(XSP16, 13)
          CFI Block cfiCond251 Using cfiCommon0
          CFI (cfiCond251) Function ZDSecMgrDeviceRemove
          CFI (cfiCond251) Conditional ??CrossCallReturnLabel_131
          CFI (cfiCond251) R6 load(1, XDATA, add(CFA_XSP16, literal(-10)))
          CFI (cfiCond251) VB load(1, XDATA, add(CFA_XSP16, literal(-9)))
          CFI (cfiCond251) V0 load(1, XDATA, add(CFA_XSP16, literal(-8)))
          CFI (cfiCond251) V1 load(1, XDATA, add(CFA_XSP16, literal(-7)))
          CFI (cfiCond251) R7 load(1, XDATA, add(CFA_XSP16, literal(-6)))
          CFI (cfiCond251) ?RET_LOW load(1, XDATA, add(CFA_XSP16, literal(-5)))
          CFI (cfiCond251) ?RET_HIGH load(1, XDATA, add(CFA_XSP16, literal(-4)))
          CFI (cfiCond251) ?BRET_EXT load(1, XDATA, add(CFA_XSP16, literal(-3)))
          CFI (cfiCond251) DPL0 load(1, XDATA, add(CFA_XSP16, literal(-2)))
          CFI (cfiCond251) DPH0 load(1, XDATA, add(CFA_XSP16, literal(-1)))
          CFI (cfiCond251) CFA_SP SP+0
          CFI (cfiCond251) CFA_XSP16 add(XSP16, 19)
          CFI Block cfiCond252 Using cfiCommon0
          CFI (cfiCond252) Function ZDSecMgrDeviceRemove
          CFI (cfiCond252) Conditional ??CrossCallReturnLabel_132
          CFI (cfiCond252) R6 load(1, XDATA, add(CFA_XSP16, literal(-10)))
          CFI (cfiCond252) VB load(1, XDATA, add(CFA_XSP16, literal(-9)))
          CFI (cfiCond252) V0 load(1, XDATA, add(CFA_XSP16, literal(-8)))
          CFI (cfiCond252) V1 load(1, XDATA, add(CFA_XSP16, literal(-7)))
          CFI (cfiCond252) R7 load(1, XDATA, add(CFA_XSP16, literal(-6)))
          CFI (cfiCond252) ?RET_LOW load(1, XDATA, add(CFA_XSP16, literal(-5)))
          CFI (cfiCond252) ?RET_HIGH load(1, XDATA, add(CFA_XSP16, literal(-4)))
          CFI (cfiCond252) ?BRET_EXT load(1, XDATA, add(CFA_XSP16, literal(-3)))
          CFI (cfiCond252) DPL0 load(1, XDATA, add(CFA_XSP16, literal(-2)))
          CFI (cfiCond252) DPH0 load(1, XDATA, add(CFA_XSP16, literal(-1)))
          CFI (cfiCond252) CFA_SP SP+0
          CFI (cfiCond252) CFA_XSP16 add(XSP16, 19)
          CFI Block cfiCond253 Using cfiCommon0
          CFI (cfiCond253) Function ZDSecMgrDeviceRemove
          CFI (cfiCond253) Conditional ??CrossCallReturnLabel_133
          CFI (cfiCond253) R6 load(1, XDATA, add(CFA_XSP16, literal(-10)))
          CFI (cfiCond253) VB load(1, XDATA, add(CFA_XSP16, literal(-9)))
          CFI (cfiCond253) V0 load(1, XDATA, add(CFA_XSP16, literal(-8)))
          CFI (cfiCond253) V1 load(1, XDATA, add(CFA_XSP16, literal(-7)))
          CFI (cfiCond253) R7 load(1, XDATA, add(CFA_XSP16, literal(-6)))
          CFI (cfiCond253) ?RET_LOW load(1, XDATA, add(CFA_XSP16, literal(-5)))
          CFI (cfiCond253) ?RET_HIGH load(1, XDATA, add(CFA_XSP16, literal(-4)))
          CFI (cfiCond253) ?BRET_EXT load(1, XDATA, add(CFA_XSP16, literal(-3)))
          CFI (cfiCond253) DPL0 load(1, XDATA, add(CFA_XSP16, literal(-2)))
          CFI (cfiCond253) DPH0 load(1, XDATA, add(CFA_XSP16, literal(-1)))
          CFI (cfiCond253) CFA_SP SP+0
          CFI (cfiCond253) CFA_XSP16 add(XSP16, 19)
          CFI Block cfiCond254 Using cfiCommon0
          CFI (cfiCond254) Function ZDSecMgrDeviceValidateSKKE
          CFI (cfiCond254) Conditional ??CrossCallReturnLabel_134
          CFI (cfiCond254) R6 load(1, XDATA, add(CFA_XSP16, literal(-9)))
          CFI (cfiCond254) VB load(1, XDATA, add(CFA_XSP16, literal(-8)))
          CFI (cfiCond254) V0 load(1, XDATA, add(CFA_XSP16, literal(-7)))
          CFI (cfiCond254) R7 load(1, XDATA, add(CFA_XSP16, literal(-6)))
          CFI (cfiCond254) ?RET_LOW load(1, XDATA, add(CFA_XSP16, literal(-5)))
          CFI (cfiCond254) ?RET_HIGH load(1, XDATA, add(CFA_XSP16, literal(-4)))
          CFI (cfiCond254) ?BRET_EXT load(1, XDATA, add(CFA_XSP16, literal(-3)))
          CFI (cfiCond254) DPL0 load(1, XDATA, add(CFA_XSP16, literal(-2)))
          CFI (cfiCond254) DPH0 load(1, XDATA, add(CFA_XSP16, literal(-1)))
          CFI (cfiCond254) CFA_SP SP+0
          CFI (cfiCond254) CFA_XSP16 add(XSP16, 13)
          CFI Block cfiCond255 Using cfiCommon0
          CFI (cfiCond255) Function ZDSecMgrDeviceValidateCM
          CFI (cfiCond255) Conditional ??CrossCallReturnLabel_135
          CFI (cfiCond255) R6 load(1, XDATA, add(CFA_XSP16, literal(-12)))
          CFI (cfiCond255) VB load(1, XDATA, add(CFA_XSP16, literal(-11)))
          CFI (cfiCond255) V0 load(1, XDATA, add(CFA_XSP16, literal(-10)))
          CFI (cfiCond255) V1 load(1, XDATA, add(CFA_XSP16, literal(-9)))
          CFI (cfiCond255) V2 load(1, XDATA, add(CFA_XSP16, literal(-8)))
          CFI (cfiCond255) V3 load(1, XDATA, add(CFA_XSP16, literal(-7)))
          CFI (cfiCond255) R7 load(1, XDATA, add(CFA_XSP16, literal(-6)))
          CFI (cfiCond255) ?RET_LOW load(1, XDATA, add(CFA_XSP16, literal(-5)))
          CFI (cfiCond255) ?RET_HIGH load(1, XDATA, add(CFA_XSP16, literal(-4)))
          CFI (cfiCond255) ?BRET_EXT load(1, XDATA, add(CFA_XSP16, literal(-3)))
          CFI (cfiCond255) DPL0 load(1, XDATA, add(CFA_XSP16, literal(-2)))
          CFI (cfiCond255) DPH0 load(1, XDATA, add(CFA_XSP16, literal(-1)))
          CFI (cfiCond255) CFA_SP SP+0
          CFI (cfiCond255) CFA_XSP16 add(XSP16, 16)
          CFI Block cfiCond256 Using cfiCommon0
          CFI (cfiCond256) Function ZDSecMgrDeviceValidateCM
          CFI (cfiCond256) Conditional ??CrossCallReturnLabel_136
          CFI (cfiCond256) R6 load(1, XDATA, add(CFA_XSP16, literal(-12)))
          CFI (cfiCond256) VB load(1, XDATA, add(CFA_XSP16, literal(-11)))
          CFI (cfiCond256) V0 load(1, XDATA, add(CFA_XSP16, literal(-10)))
          CFI (cfiCond256) V1 load(1, XDATA, add(CFA_XSP16, literal(-9)))
          CFI (cfiCond256) V2 load(1, XDATA, add(CFA_XSP16, literal(-8)))
          CFI (cfiCond256) V3 load(1, XDATA, add(CFA_XSP16, literal(-7)))
          CFI (cfiCond256) R7 load(1, XDATA, add(CFA_XSP16, literal(-6)))
          CFI (cfiCond256) ?RET_LOW load(1, XDATA, add(CFA_XSP16, literal(-5)))
          CFI (cfiCond256) ?RET_HIGH load(1, XDATA, add(CFA_XSP16, literal(-4)))
          CFI (cfiCond256) ?BRET_EXT load(1, XDATA, add(CFA_XSP16, literal(-3)))
          CFI (cfiCond256) DPL0 load(1, XDATA, add(CFA_XSP16, literal(-2)))
          CFI (cfiCond256) DPH0 load(1, XDATA, add(CFA_XSP16, literal(-1)))
          CFI (cfiCond256) CFA_SP SP+0
          CFI (cfiCond256) CFA_XSP16 add(XSP16, 14)
          CFI Block cfiCond257 Using cfiCommon0
          CFI (cfiCond257) Function ZDSecMgrDeviceJoin
          CFI (cfiCond257) Conditional ??CrossCallReturnLabel_137
          CFI (cfiCond257) R6 load(1, XDATA, add(CFA_XSP16, literal(-10)))
          CFI (cfiCond257) VB load(1, XDATA, add(CFA_XSP16, literal(-9)))
          CFI (cfiCond257) V0 load(1, XDATA, add(CFA_XSP16, literal(-8)))
          CFI (cfiCond257) V1 load(1, XDATA, add(CFA_XSP16, literal(-7)))
          CFI (cfiCond257) R7 load(1, XDATA, add(CFA_XSP16, literal(-6)))
          CFI (cfiCond257) ?RET_LOW load(1, XDATA, add(CFA_XSP16, literal(-5)))
          CFI (cfiCond257) ?RET_HIGH load(1, XDATA, add(CFA_XSP16, literal(-4)))
          CFI (cfiCond257) ?BRET_EXT load(1, XDATA, add(CFA_XSP16, literal(-3)))
          CFI (cfiCond257) DPL0 load(1, XDATA, add(CFA_XSP16, literal(-2)))
          CFI (cfiCond257) DPH0 load(1, XDATA, add(CFA_XSP16, literal(-1)))
          CFI (cfiCond257) CFA_SP SP+0
          CFI (cfiCond257) CFA_XSP16 add(XSP16, 14)
          CFI Block cfiCond258 Using cfiCommon0
          CFI (cfiCond258) Function ZDSecMgrDeviceJoinDirect
          CFI (cfiCond258) Conditional ??CrossCallReturnLabel_138
          CFI (cfiCond258) R6 load(1, XDATA, add(CFA_XSP16, literal(-9)))
          CFI (cfiCond258) VB load(1, XDATA, add(CFA_XSP16, literal(-8)))
          CFI (cfiCond258) V0 load(1, XDATA, add(CFA_XSP16, literal(-7)))
          CFI (cfiCond258) R7 load(1, XDATA, add(CFA_XSP16, literal(-6)))
          CFI (cfiCond258) ?RET_LOW load(1, XDATA, add(CFA_XSP16, literal(-5)))
          CFI (cfiCond258) ?RET_HIGH load(1, XDATA, add(CFA_XSP16, literal(-4)))
          CFI (cfiCond258) ?BRET_EXT load(1, XDATA, add(CFA_XSP16, literal(-3)))
          CFI (cfiCond258) DPL0 load(1, XDATA, add(CFA_XSP16, literal(-2)))
          CFI (cfiCond258) DPH0 load(1, XDATA, add(CFA_XSP16, literal(-1)))
          CFI (cfiCond258) CFA_SP SP+0
          CFI (cfiCond258) CFA_XSP16 add(XSP16, 9)
          CFI Block cfiCond259 Using cfiCommon0
          CFI (cfiCond259) Function ZDSecMgrEvent
          CFI (cfiCond259) Conditional ??CrossCallReturnLabel_139
          CFI (cfiCond259) R6 load(1, XDATA, add(CFA_XSP16, literal(-10)))
          CFI (cfiCond259) VB load(1, XDATA, add(CFA_XSP16, literal(-9)))
          CFI (cfiCond259) V0 load(1, XDATA, add(CFA_XSP16, literal(-8)))
          CFI (cfiCond259) V1 load(1, XDATA, add(CFA_XSP16, literal(-7)))
          CFI (cfiCond259) R7 load(1, XDATA, add(CFA_XSP16, literal(-6)))
          CFI (cfiCond259) ?RET_LOW load(1, XDATA, add(CFA_XSP16, literal(-5)))
          CFI (cfiCond259) ?RET_HIGH load(1, XDATA, add(CFA_XSP16, literal(-4)))
          CFI (cfiCond259) ?BRET_EXT load(1, XDATA, add(CFA_XSP16, literal(-3)))
          CFI (cfiCond259) DPL0 load(1, XDATA, add(CFA_XSP16, literal(-2)))
          CFI (cfiCond259) DPH0 load(1, XDATA, add(CFA_XSP16, literal(-1)))
          CFI (cfiCond259) CFA_SP SP+0
          CFI (cfiCond259) CFA_XSP16 add(XSP16, 33)
          CFI Block cfiCond260 Using cfiCommon0
          CFI (cfiCond260) Function APSME_KeyFwdToChild
          CFI (cfiCond260) Conditional ??CrossCallReturnLabel_140
          CFI (cfiCond260) R6 load(1, XDATA, add(CFA_XSP16, literal(-9)))
          CFI (cfiCond260) VB load(1, XDATA, add(CFA_XSP16, literal(-8)))
          CFI (cfiCond260) V0 load(1, XDATA, add(CFA_XSP16, literal(-7)))
          CFI (cfiCond260) R7 load(1, XDATA, add(CFA_XSP16, literal(-6)))
          CFI (cfiCond260) ?RET_LOW load(1, XDATA, add(CFA_XSP16, literal(-5)))
          CFI (cfiCond260) ?RET_HIGH load(1, XDATA, add(CFA_XSP16, literal(-4)))
          CFI (cfiCond260) ?BRET_EXT load(1, XDATA, add(CFA_XSP16, literal(-3)))
          CFI (cfiCond260) DPL0 load(1, XDATA, add(CFA_XSP16, literal(-2)))
          CFI (cfiCond260) DPH0 load(1, XDATA, add(CFA_XSP16, literal(-1)))
          CFI (cfiCond260) CFA_SP SP+0
          CFI (cfiCond260) CFA_XSP16 add(XSP16, 9)
          CFI Block cfiCond261 Using cfiCommon0
          CFI (cfiCond261) Function ZDSecMgrAddLinkKey
          CFI (cfiCond261) Conditional ??CrossCallReturnLabel_141
          CFI (cfiCond261) R6 load(1, XDATA, add(CFA_XSP16, literal(-12)))
          CFI (cfiCond261) VB load(1, XDATA, add(CFA_XSP16, literal(-11)))
          CFI (cfiCond261) V0 load(1, XDATA, add(CFA_XSP16, literal(-10)))
          CFI (cfiCond261) V1 load(1, XDATA, add(CFA_XSP16, literal(-9)))
          CFI (cfiCond261) V2 load(1, XDATA, add(CFA_XSP16, literal(-8)))
          CFI (cfiCond261) V3 load(1, XDATA, add(CFA_XSP16, literal(-7)))
          CFI (cfiCond261) R7 load(1, XDATA, add(CFA_XSP16, literal(-6)))
          CFI (cfiCond261) ?RET_LOW load(1, XDATA, add(CFA_XSP16, literal(-5)))
          CFI (cfiCond261) ?RET_HIGH load(1, XDATA, add(CFA_XSP16, literal(-4)))
          CFI (cfiCond261) ?BRET_EXT load(1, XDATA, add(CFA_XSP16, literal(-3)))
          CFI (cfiCond261) DPL0 load(1, XDATA, add(CFA_XSP16, literal(-2)))
          CFI (cfiCond261) DPH0 load(1, XDATA, add(CFA_XSP16, literal(-1)))
          CFI (cfiCond261) CFA_SP SP+0
          CFI (cfiCond261) CFA_XSP16 add(XSP16, 16)
          CFI Block cfiCond262 Using cfiCommon0
          CFI (cfiCond262) Function APSME_TCLinkKeySync
          CFI (cfiCond262) Conditional ??CrossCallReturnLabel_142
          CFI (cfiCond262) R6 load(1, XDATA, add(CFA_XSP16, literal(-16)))
          CFI (cfiCond262) VB load(1, XDATA, add(CFA_XSP16, literal(-15)))
          CFI (cfiCond262) V0 load(1, XDATA, add(CFA_XSP16, literal(-14)))
          CFI (cfiCond262) V1 load(1, XDATA, add(CFA_XSP16, literal(-13)))
          CFI (cfiCond262) V2 load(1, XDATA, add(CFA_XSP16, literal(-12)))
          CFI (cfiCond262) V3 load(1, XDATA, add(CFA_XSP16, literal(-11)))
          CFI (cfiCond262) V4 load(1, XDATA, add(CFA_XSP16, literal(-10)))
          CFI (cfiCond262) V5 load(1, XDATA, add(CFA_XSP16, literal(-9)))
          CFI (cfiCond262) V6 load(1, XDATA, add(CFA_XSP16, literal(-8)))
          CFI (cfiCond262) V7 load(1, XDATA, add(CFA_XSP16, literal(-7)))
          CFI (cfiCond262) R7 load(1, XDATA, add(CFA_XSP16, literal(-6)))
          CFI (cfiCond262) ?RET_LOW load(1, XDATA, add(CFA_XSP16, literal(-5)))
          CFI (cfiCond262) ?RET_HIGH load(1, XDATA, add(CFA_XSP16, literal(-4)))
          CFI (cfiCond262) ?BRET_EXT load(1, XDATA, add(CFA_XSP16, literal(-3)))
          CFI (cfiCond262) DPL0 load(1, XDATA, add(CFA_XSP16, literal(-2)))
          CFI (cfiCond262) DPH0 load(1, XDATA, add(CFA_XSP16, literal(-1)))
          CFI (cfiCond262) CFA_SP SP+0
          CFI (cfiCond262) CFA_XSP16 add(XSP16, 51)
          CFI Block cfiCond263 Using cfiCommon0
          CFI (cfiCond263) Function APSME_TCLinkKeyLoad
          CFI (cfiCond263) Conditional ??CrossCallReturnLabel_143
          CFI (cfiCond263) R6 load(1, XDATA, add(CFA_XSP16, literal(-15)))
          CFI (cfiCond263) VB load(1, XDATA, add(CFA_XSP16, literal(-14)))
          CFI (cfiCond263) V0 load(1, XDATA, add(CFA_XSP16, literal(-13)))
          CFI (cfiCond263) V1 load(1, XDATA, add(CFA_XSP16, literal(-12)))
          CFI (cfiCond263) V2 load(1, XDATA, add(CFA_XSP16, literal(-11)))
          CFI (cfiCond263) V3 load(1, XDATA, add(CFA_XSP16, literal(-10)))
          CFI (cfiCond263) V4 load(1, XDATA, add(CFA_XSP16, literal(-9)))
          CFI (cfiCond263) V5 load(1, XDATA, add(CFA_XSP16, literal(-8)))
          CFI (cfiCond263) V6 load(1, XDATA, add(CFA_XSP16, literal(-7)))
          CFI (cfiCond263) R7 load(1, XDATA, add(CFA_XSP16, literal(-6)))
          CFI (cfiCond263) ?RET_LOW load(1, XDATA, add(CFA_XSP16, literal(-5)))
          CFI (cfiCond263) ?RET_HIGH load(1, XDATA, add(CFA_XSP16, literal(-4)))
          CFI (cfiCond263) ?BRET_EXT load(1, XDATA, add(CFA_XSP16, literal(-3)))
          CFI (cfiCond263) DPL0 load(1, XDATA, add(CFA_XSP16, literal(-2)))
          CFI (cfiCond263) DPH0 load(1, XDATA, add(CFA_XSP16, literal(-1)))
          CFI (cfiCond263) CFA_SP SP+0
          CFI (cfiCond263) CFA_XSP16 add(XSP16, 63)
          CFI Block cfiCond264 Using cfiCommon0
          CFI (cfiCond264) Function ZDSecMgrMasterKeyLoad
          CFI (cfiCond264) Conditional ??CrossCallReturnLabel_144
          CFI (cfiCond264) R6 load(1, XDATA, add(CFA_XSP16, literal(-12)))
          CFI (cfiCond264) VB load(1, XDATA, add(CFA_XSP16, literal(-11)))
          CFI (cfiCond264) V0 load(1, XDATA, add(CFA_XSP16, literal(-10)))
          CFI (cfiCond264) V1 load(1, XDATA, add(CFA_XSP16, literal(-9)))
          CFI (cfiCond264) V2 load(1, XDATA, add(CFA_XSP16, literal(-8)))
          CFI (cfiCond264) V3 load(1, XDATA, add(CFA_XSP16, literal(-7)))
          CFI (cfiCond264) R7 load(1, XDATA, add(CFA_XSP16, literal(-6)))
          CFI (cfiCond264) ?RET_LOW load(1, XDATA, add(CFA_XSP16, literal(-5)))
          CFI (cfiCond264) ?RET_HIGH load(1, XDATA, add(CFA_XSP16, literal(-4)))
          CFI (cfiCond264) ?BRET_EXT load(1, XDATA, add(CFA_XSP16, literal(-3)))
          CFI (cfiCond264) DPL0 load(1, XDATA, add(CFA_XSP16, literal(-2)))
          CFI (cfiCond264) DPH0 load(1, XDATA, add(CFA_XSP16, literal(-1)))
          CFI (cfiCond264) CFA_SP SP+0
          CFI (cfiCond264) CFA_XSP16 add(XSP16, 16)
          CFI Block cfiCond265 Using cfiCommon0
          CFI (cfiCond265) Function ZDSecMgrDeviceValidateSKKE
          CFI (cfiCond265) Conditional ??CrossCallReturnLabel_145
          CFI (cfiCond265) R6 load(1, XDATA, add(CFA_XSP16, literal(-9)))
          CFI (cfiCond265) VB load(1, XDATA, add(CFA_XSP16, literal(-8)))
          CFI (cfiCond265) V0 load(1, XDATA, add(CFA_XSP16, literal(-7)))
          CFI (cfiCond265) R7 load(1, XDATA, add(CFA_XSP16, literal(-6)))
          CFI (cfiCond265) ?RET_LOW load(1, XDATA, add(CFA_XSP16, literal(-5)))
          CFI (cfiCond265) ?RET_HIGH load(1, XDATA, add(CFA_XSP16, literal(-4)))
          CFI (cfiCond265) ?BRET_EXT load(1, XDATA, add(CFA_XSP16, literal(-3)))
          CFI (cfiCond265) DPL0 load(1, XDATA, add(CFA_XSP16, literal(-2)))
          CFI (cfiCond265) DPH0 load(1, XDATA, add(CFA_XSP16, literal(-1)))
          CFI (cfiCond265) CFA_SP SP+0
          CFI (cfiCond265) CFA_XSP16 add(XSP16, 13)
          CFI Block cfiCond266 Using cfiCommon0
          CFI (cfiCond266) Function ZDSecMgrTCDataLoad
          CFI (cfiCond266) Conditional ??CrossCallReturnLabel_146
          CFI (cfiCond266) R6 load(1, XDATA, add(CFA_XSP16, literal(-10)))
          CFI (cfiCond266) VB load(1, XDATA, add(CFA_XSP16, literal(-9)))
          CFI (cfiCond266) V0 load(1, XDATA, add(CFA_XSP16, literal(-8)))
          CFI (cfiCond266) V1 load(1, XDATA, add(CFA_XSP16, literal(-7)))
          CFI (cfiCond266) R7 load(1, XDATA, add(CFA_XSP16, literal(-6)))
          CFI (cfiCond266) ?RET_LOW load(1, XDATA, add(CFA_XSP16, literal(-5)))
          CFI (cfiCond266) ?RET_HIGH load(1, XDATA, add(CFA_XSP16, literal(-4)))
          CFI (cfiCond266) ?BRET_EXT load(1, XDATA, add(CFA_XSP16, literal(-3)))
          CFI (cfiCond266) DPL0 load(1, XDATA, add(CFA_XSP16, literal(-2)))
          CFI (cfiCond266) DPH0 load(1, XDATA, add(CFA_XSP16, literal(-1)))
          CFI (cfiCond266) CFA_SP SP+0
          CFI (cfiCond266) CFA_XSP16 add(XSP16, 14)
          CFI Block cfiCond267 Using cfiCommon0
          CFI (cfiCond267) Function ZDSecMgrTCDataLoad
          CFI (cfiCond267) Conditional ??CrossCallReturnLabel_147
          CFI (cfiCond267) R6 load(1, XDATA, add(CFA_XSP16, literal(-10)))
          CFI (cfiCond267) VB load(1, XDATA, add(CFA_XSP16, literal(-9)))
          CFI (cfiCond267) V0 load(1, XDATA, add(CFA_XSP16, literal(-8)))
          CFI (cfiCond267) V1 load(1, XDATA, add(CFA_XSP16, literal(-7)))
          CFI (cfiCond267) R7 load(1, XDATA, add(CFA_XSP16, literal(-6)))
          CFI (cfiCond267) ?RET_LOW load(1, XDATA, add(CFA_XSP16, literal(-5)))
          CFI (cfiCond267) ?RET_HIGH load(1, XDATA, add(CFA_XSP16, literal(-4)))
          CFI (cfiCond267) ?BRET_EXT load(1, XDATA, add(CFA_XSP16, literal(-3)))
          CFI (cfiCond267) DPL0 load(1, XDATA, add(CFA_XSP16, literal(-2)))
          CFI (cfiCond267) DPH0 load(1, XDATA, add(CFA_XSP16, literal(-1)))
          CFI (cfiCond267) CFA_SP SP+0
          CFI (cfiCond267) CFA_XSP16 add(XSP16, 14)
          CFI Block cfiCond268 Using cfiCommon0
          CFI (cfiCond268) Function ZDSecMgrEntryLookupExt
          CFI (cfiCond268) Conditional ??CrossCallReturnLabel_148
          CFI (cfiCond268) R6 load(1, XDATA, add(CFA_XSP16, literal(-9)))
          CFI (cfiCond268) VB load(1, XDATA, add(CFA_XSP16, literal(-8)))
          CFI (cfiCond268) V0 load(1, XDATA, add(CFA_XSP16, literal(-7)))
          CFI (cfiCond268) R7 load(1, XDATA, add(CFA_XSP16, literal(-6)))
          CFI (cfiCond268) ?RET_LOW load(1, XDATA, add(CFA_XSP16, literal(-5)))
          CFI (cfiCond268) ?RET_HIGH load(1, XDATA, add(CFA_XSP16, literal(-4)))
          CFI (cfiCond268) ?BRET_EXT load(1, XDATA, add(CFA_XSP16, literal(-3)))
          CFI (cfiCond268) DPL0 load(1, XDATA, add(CFA_XSP16, literal(-2)))
          CFI (cfiCond268) DPH0 load(1, XDATA, add(CFA_XSP16, literal(-1)))
          CFI (cfiCond268) CFA_SP SP+0
          CFI (cfiCond268) CFA_XSP16 add(XSP16, 11)
          CFI Block cfiCond269 Using cfiCommon0
          CFI (cfiCond269) Function ZDSecMgrMasterKeyLoad
          CFI (cfiCond269) Conditional ??CrossCallReturnLabel_149
          CFI (cfiCond269) R6 load(1, XDATA, add(CFA_XSP16, literal(-12)))
          CFI (cfiCond269) VB load(1, XDATA, add(CFA_XSP16, literal(-11)))
          CFI (cfiCond269) V0 load(1, XDATA, add(CFA_XSP16, literal(-10)))
          CFI (cfiCond269) V1 load(1, XDATA, add(CFA_XSP16, literal(-9)))
          CFI (cfiCond269) V2 load(1, XDATA, add(CFA_XSP16, literal(-8)))
          CFI (cfiCond269) V3 load(1, XDATA, add(CFA_XSP16, literal(-7)))
          CFI (cfiCond269) R7 load(1, XDATA, add(CFA_XSP16, literal(-6)))
          CFI (cfiCond269) ?RET_LOW load(1, XDATA, add(CFA_XSP16, literal(-5)))
          CFI (cfiCond269) ?RET_HIGH load(1, XDATA, add(CFA_XSP16, literal(-4)))
          CFI (cfiCond269) ?BRET_EXT load(1, XDATA, add(CFA_XSP16, literal(-3)))
          CFI (cfiCond269) DPL0 load(1, XDATA, add(CFA_XSP16, literal(-2)))
          CFI (cfiCond269) DPH0 load(1, XDATA, add(CFA_XSP16, literal(-1)))
          CFI (cfiCond269) CFA_SP SP+0
          CFI (cfiCond269) CFA_XSP16 add(XSP16, 16)
          CFI Block cfiCond270 Using cfiCommon0
          CFI (cfiCond270) Function APSME_MasterKeyGet
          CFI (cfiCond270) Conditional ??CrossCallReturnLabel_150
          CFI (cfiCond270) R6 load(1, XDATA, add(CFA_XSP16, literal(-9)))
          CFI (cfiCond270) VB load(1, XDATA, add(CFA_XSP16, literal(-8)))
          CFI (cfiCond270) V0 load(1, XDATA, add(CFA_XSP16, literal(-7)))
          CFI (cfiCond270) R7 load(1, XDATA, add(CFA_XSP16, literal(-6)))
          CFI (cfiCond270) ?RET_LOW load(1, XDATA, add(CFA_XSP16, literal(-5)))
          CFI (cfiCond270) ?RET_HIGH load(1, XDATA, add(CFA_XSP16, literal(-4)))
          CFI (cfiCond270) ?BRET_EXT load(1, XDATA, add(CFA_XSP16, literal(-3)))
          CFI (cfiCond270) DPL0 load(1, XDATA, add(CFA_XSP16, literal(-2)))
          CFI (cfiCond270) DPH0 load(1, XDATA, add(CFA_XSP16, literal(-1)))
          CFI (cfiCond270) CFA_SP SP+0
          CFI (cfiCond270) CFA_XSP16 add(XSP16, 11)
          CFI Block cfiPicker271 Using cfiCommon1
          CFI (cfiPicker271) NoFunction
          CFI (cfiPicker271) Picker
        MOVX    A,@DPTR
        MOV     R2,A
        INC     DPTR
        MOVX    A,@DPTR
        MOV     R3,A
        RET
          CFI EndBlock cfiCond243
          CFI EndBlock cfiCond244
          CFI EndBlock cfiCond245
          CFI EndBlock cfiCond246
          CFI EndBlock cfiCond247
          CFI EndBlock cfiCond248
          CFI EndBlock cfiCond249
          CFI EndBlock cfiCond250
          CFI EndBlock cfiCond251
          CFI EndBlock cfiCond252
          CFI EndBlock cfiCond253
          CFI EndBlock cfiCond254
          CFI EndBlock cfiCond255
          CFI EndBlock cfiCond256
          CFI EndBlock cfiCond257
          CFI EndBlock cfiCond258
          CFI EndBlock cfiCond259
          CFI EndBlock cfiCond260
          CFI EndBlock cfiCond261
          CFI EndBlock cfiCond262
          CFI EndBlock cfiCond263
          CFI EndBlock cfiCond264
          CFI EndBlock cfiCond265
          CFI EndBlock cfiCond266
          CFI EndBlock cfiCond267
          CFI EndBlock cfiCond268
          CFI EndBlock cfiCond269
          CFI EndBlock cfiCond270
          CFI EndBlock cfiPicker271
// 1945 //devtag.pro.security
// 1946 #if 0
// 1947 ZStatus_t ZDSecMgrDeviceValidateCM( ZDSecMgrDevice_t* device )
// 1948 {
// 1949   ZStatus_t status;
// 1950   uint16    ami;
// 1951   uint8*    key;
// 1952 
// 1953 
// 1954   // check for pre configured setting
// 1955   if ( device->secure == TRUE )
// 1956   {
// 1957     // get EXT address and MASTER key
// 1958     status = ZDSecMgrExtAddrLookup( device->extAddr, &ami );
// 1959 
// 1960     if ( status == ZSuccess )
// 1961     {
// 1962       status = ZDSecMgrMasterKeyLookup( ami, &key );
// 1963     }
// 1964   }
// 1965   else
// 1966   {
// 1967     // implement EXT address and MASTER key policy here -- the total number of
// 1968     // Security Manager entries should never exceed the number of EXT addresses
// 1969     // and MASTER keys available
// 1970 
// 1971     // set status based on policy
// 1972     status = ZSuccess; // ZNwkUnknownDevice;
// 1973 
// 1974     // get the address index
// 1975     if ( ZDSecMgrExtAddrLookup( device->extAddr, &ami ) != ZSuccess )
// 1976     {
// 1977       // if policy, store new EXT address
// 1978       status = ZDSecMgrAddrStore( device->nwkAddr, device->extAddr, &ami );
// 1979     }
// 1980 
// 1981     // get the address index
// 1982     if ( ZDSecMgrMasterKeyLookup( ami, &key ) != ZSuccess )
// 1983     {
// 1984       // if policy, store new key -- NULL will zero key
// 1985       status = ZDSecMgrMasterKeyStore( ami, NULL );
// 1986     }
// 1987   }
// 1988 
// 1989   // if EXT address and MASTER key available -- add device
// 1990   if ( status == ZSuccess )
// 1991   {
// 1992     // add device to internal data - with control
// 1993     status = ZDSecMgrDeviceEntryAdd( device, ami );
// 1994   }
// 1995 
// 1996   return status;
// 1997 }
// 1998 #endif
// 1999 
// 2000 /******************************************************************************
// 2001  * @fn          ZDSecMgrDeviceValidate
// 2002  *
// 2003  * @brief       Decide whether device is allowed.
// 2004  *
// 2005  * @param       device - [in] ZDSecMgrDevice_t, device info
// 2006  *
// 2007  * @return      ZStatus_t
// 2008  */

        RSEG BANKED_CODE:CODE:NOROOT(0)
// 2009 ZStatus_t ZDSecMgrDeviceValidate( ZDSecMgrDevice_t* device )
ZDSecMgrDeviceValidate:
          CFI Block cfiBlock272 Using cfiCommon0
          CFI Function ZDSecMgrDeviceValidate
        CODE
// 2010 {
        FUNCALL ZDSecMgrDeviceValidate, ZDSecMgrDeviceValidateRM
        LOCFRAME ISTACK, 2, STACK
        LOCFRAME PSTACK, 0, STACK
        LOCFRAME XSTACK, 0, STACK
        LOCFRAME IOVERLAY, 0, STATIC
        LOCFRAME DOVERLAY, 0, STATIC
        ARGFRAME ISTACK, 2, STACK
        ARGFRAME PSTACK, 0, STACK
        ARGFRAME XSTACK, 0, STACK
        ARGFRAME IOVERLAY, 0, STATIC
        ARGFRAME DOVERLAY, 0, STATIC
        PUSH    DPL
          CFI DPL0 Frame(CFA_SP, 4)
          CFI CFA_SP SP+-4
        PUSH    DPH
          CFI DPH0 Frame(CFA_SP, 5)
          CFI CFA_SP SP+-5
        ; Saved register size: 2
        ; Auto size: 0
// 2011   ZStatus_t status;
// 2012 
// 2013 
// 2014   if ( ZDSecMgrPermitJoiningEnabled == TRUE )
        MOV     DPTR,#ZDSecMgrPermitJoiningEnabled
        MOVX    A,@DPTR
        XRL     A,#0x1
        JNZ     ??ZDSecMgrDeviceValidate_0
// 2015   {
// 2016     // device may be joining with a secure flag but it is ultimately the Trust
// 2017     // Center that decides -- check if expected pre configured device --
// 2018     // override settings
// 2019     if ( zgPreConfigKeys == TRUE )
        MOV     A,R2
        ADD     A,#0x6
        MOV     R0,A
        MOV     A,R3
        ADDC    A,#0x0
        MOV     R1,A
        MOV     DPTR,#zgPreConfigKeys
        MOVX    A,@DPTR
        XRL     A,#0x1
        MOV     DPL,R0
        MOV     DPH,R1
        JNZ     ??ZDSecMgrDeviceValidate_1
// 2020     {
// 2021       device->secure = TRUE;
        MOV     A,#0x1
        SJMP    ??ZDSecMgrDeviceValidate_2
// 2022     }
// 2023     else
// 2024     {
// 2025       device->secure = FALSE;
??ZDSecMgrDeviceValidate_1:
        CLR     A
??ZDSecMgrDeviceValidate_2:
        MOVX    @DPTR,A
// 2026     }
// 2027 
// 2028     if ( ZG_CHECK_SECURITY_MODE == ZG_SECURITY_PRO_HIGH )
// 2029     {
// 2030       status = ZDSecMgrDeviceValidateCM( device );
// 2031     }
// 2032     else // ( ZG_CHECK_SECURITY_MODE == ZG_SECURITY_RESIDENTIAL )
// 2033     {
// 2034       status = ZDSecMgrDeviceValidateRM( device );
        ; Setup parameters for call to function ZDSecMgrDeviceValidateRM
        LCALL   ??ZDSecMgrDeviceValidateRM?relay
        SJMP    ??ZDSecMgrDeviceValidate_3
// 2035     }
// 2036   }
// 2037   else
// 2038   {
// 2039     status = ZNwkUnknownDevice;
??ZDSecMgrDeviceValidate_0:
        MOV     R1,#-0x38
// 2040   }
// 2041 
// 2042   return status;
??ZDSecMgrDeviceValidate_3:
        LJMP    ??Subroutine89_0 & 0xFFFF
          CFI EndBlock cfiBlock272
// 2043 }
// 2044 
// 2045 /******************************************************************************
// 2046  * @fn          ZDSecMgrDeviceJoin
// 2047  *
// 2048  * @brief       Try to join this device.
// 2049  *
// 2050  * @param       device - [in] ZDSecMgrDevice_t, device info
// 2051  *
// 2052  * @return      ZStatus_t
// 2053  */

        RSEG BANKED_CODE:CODE:NOROOT(0)
// 2054 ZStatus_t ZDSecMgrDeviceJoin( ZDSecMgrDevice_t* device )
ZDSecMgrDeviceJoin:
          CFI Block cfiBlock273 Using cfiCommon0
          CFI Function ZDSecMgrDeviceJoin
        CODE
// 2055 {
        FUNCALL ZDSecMgrDeviceJoin, ZDSecMgrDeviceValidate
        LOCFRAME ISTACK, 0, STACK
        LOCFRAME PSTACK, 0, STACK
        LOCFRAME XSTACK, 12, STACK
        LOCFRAME IOVERLAY, 0, STATIC
        LOCFRAME DOVERLAY, 0, STATIC
        ARGFRAME ISTACK, 0, STACK
        ARGFRAME PSTACK, 0, STACK
        ARGFRAME XSTACK, 12, STACK
        ARGFRAME IOVERLAY, 0, STATIC
        ARGFRAME DOVERLAY, 0, STATIC
        FUNCALL ZDSecMgrDeviceJoin, ZDSecMgrAddrStore
        LOCFRAME ISTACK, 0, STACK
        LOCFRAME PSTACK, 0, STACK
        LOCFRAME XSTACK, 14, STACK
        LOCFRAME IOVERLAY, 0, STATIC
        LOCFRAME DOVERLAY, 0, STATIC
        ARGFRAME ISTACK, 0, STACK
        ARGFRAME PSTACK, 0, STACK
        ARGFRAME XSTACK, 14, STACK
        ARGFRAME IOVERLAY, 0, STATIC
        ARGFRAME DOVERLAY, 0, STATIC
        FUNCALL ZDSecMgrDeviceJoin, ZDSecMgrSendNwkKey
        LOCFRAME ISTACK, 0, STACK
        LOCFRAME PSTACK, 0, STACK
        LOCFRAME XSTACK, 12, STACK
        LOCFRAME IOVERLAY, 0, STATIC
        LOCFRAME DOVERLAY, 0, STATIC
        ARGFRAME ISTACK, 0, STACK
        ARGFRAME PSTACK, 0, STACK
        ARGFRAME XSTACK, 12, STACK
        ARGFRAME IOVERLAY, 0, STATIC
        ARGFRAME DOVERLAY, 0, STATIC
        FUNCALL ZDSecMgrDeviceJoin, ZDSecMgrDeviceRemove
        LOCFRAME ISTACK, 0, STACK
        LOCFRAME PSTACK, 0, STACK
        LOCFRAME XSTACK, 12, STACK
        LOCFRAME IOVERLAY, 0, STATIC
        LOCFRAME DOVERLAY, 0, STATIC
        ARGFRAME ISTACK, 0, STACK
        ARGFRAME PSTACK, 0, STACK
        ARGFRAME XSTACK, 12, STACK
        ARGFRAME IOVERLAY, 0, STATIC
        ARGFRAME DOVERLAY, 0, STATIC
        MOV     A,#-0xa
        LCALL   ?BANKED_ENTER_XDATA
          CFI DPH0 load(1, XDATA, add(CFA_XSP16, literal(-1)))
          CFI DPL0 load(1, XDATA, add(CFA_XSP16, literal(-2)))
          CFI ?BRET_EXT load(1, XDATA, add(CFA_XSP16, literal(-3)))
          CFI ?RET_HIGH load(1, XDATA, add(CFA_XSP16, literal(-4)))
          CFI ?RET_LOW load(1, XDATA, add(CFA_XSP16, literal(-5)))
          CFI R7 load(1, XDATA, add(CFA_XSP16, literal(-6)))
          CFI V1 load(1, XDATA, add(CFA_XSP16, literal(-7)))
          CFI V0 load(1, XDATA, add(CFA_XSP16, literal(-8)))
          CFI VB load(1, XDATA, add(CFA_XSP16, literal(-9)))
          CFI R6 load(1, XDATA, add(CFA_XSP16, literal(-10)))
          CFI CFA_SP SP+0
          CFI CFA_XSP16 add(XSP16, 10)
        ; Saved register size: 10
        ; Auto size: 2
        MOV     A,#-0x2
        LCALL   ?ALLOC_XSTACK8
          CFI CFA_XSP16 add(XSP16, 12)
        MOV     A,R2
        MOV     R6,A
        MOV     A,R3
        MOV     R7,A
// 2056   ZStatus_t status;
// 2057   uint16    ami;
// 2058 
// 2059   // attempt to validate device
// 2060   status = ZDSecMgrDeviceValidate( device );
        ; Setup parameters for call to function ZDSecMgrDeviceValidate
        LCALL   ??ZDSecMgrDeviceValidate?relay
        MOV     A,R1
        MOV     ?V0 + 0,A
// 2061 
// 2062   if ( status == ZSuccess )
        JNZ     ??ZDSecMgrDeviceJoin_0
// 2063   {
// 2064     if ( ZG_CHECK_SECURITY_MODE == ZG_SECURITY_PRO_HIGH )
// 2065     {
// 2066       ZDSecMgrDeviceCtrlSetup( device );
// 2067     }
// 2068     else // ( ZG_CHECK_SECURITY_MODE == ZG_SECURITY_RESIDENTIAL )
// 2069     {
// 2070       // Add the device to the address manager
// 2071       ZDSecMgrAddrStore( device->nwkAddr, device->extAddr, &ami );
        ; Setup parameters for call to function ZDSecMgrAddrStore
        MOV     DPL,?XSP + 0
        MOV     DPH,?XSP + 1
        MOV     ?V0 + 0,DPL
        MOV     ?V0 + 1,DPH
        MOV     R0,#?V0 + 0
        LCALL   ?PUSH_XSTACK_I_TWO
          CFI CFA_XSP16 add(XSP16, 14)
        MOV     DPL,R6
        MOV     DPH,R7
        INC     DPTR
        INC     DPTR
        LCALL   ?Subroutine49 & 0xFFFF
??CrossCallReturnLabel_57:
        LCALL   ??Subroutine85_0 & 0xFFFF
??CrossCallReturnLabel_137:
        LCALL   ??ZDSecMgrAddrStore?relay
        MOV     A,#0x2
        LCALL   ?DEALLOC_XSTACK8
          CFI CFA_XSP16 add(XSP16, 12)
// 2072       //send the nwk key data to the joining device
// 2073       status = ZDSecMgrSendNwkKey( device );
        ; Setup parameters for call to function ZDSecMgrSendNwkKey
        MOV     A,R6
        MOV     R2,A
        MOV     A,R7
        MOV     R3,A
        LCALL   ??ZDSecMgrSendNwkKey?relay
        MOV     A,R1
        MOV     ?V0 + 0,A
        SJMP    ??ZDSecMgrDeviceJoin_1
// 2074     }
// 2075   }
// 2076   else
// 2077   {
// 2078     // not allowed, remove the device
// 2079     ZDSecMgrDeviceRemove( device );
??ZDSecMgrDeviceJoin_0:
        ; Setup parameters for call to function ZDSecMgrDeviceRemove
        MOV     A,R6
        MOV     R2,A
        MOV     A,R7
        MOV     R3,A
        LCALL   ??ZDSecMgrDeviceRemove?relay
// 2080   }
// 2081 
// 2082   return status;
??ZDSecMgrDeviceJoin_1:
        MOV     R1,?V0 + 0
        LJMP    ?Subroutine11 & 0xFFFF
          CFI EndBlock cfiBlock273
// 2083 }

        RSEG BANKED_CODE:CODE:NOROOT(0)
?Subroutine49:
          CFI Block cfiCond274 Using cfiCommon0
          CFI Function ZDSecMgrDeviceValidateCM
          CFI Conditional ??CrossCallReturnLabel_56
          CFI R6 load(1, XDATA, add(CFA_XSP16, literal(-12)))
          CFI VB load(1, XDATA, add(CFA_XSP16, literal(-11)))
          CFI V0 load(1, XDATA, add(CFA_XSP16, literal(-10)))
          CFI V1 load(1, XDATA, add(CFA_XSP16, literal(-9)))
          CFI V2 load(1, XDATA, add(CFA_XSP16, literal(-8)))
          CFI V3 load(1, XDATA, add(CFA_XSP16, literal(-7)))
          CFI R7 load(1, XDATA, add(CFA_XSP16, literal(-6)))
          CFI ?RET_LOW load(1, XDATA, add(CFA_XSP16, literal(-5)))
          CFI ?RET_HIGH load(1, XDATA, add(CFA_XSP16, literal(-4)))
          CFI ?BRET_EXT load(1, XDATA, add(CFA_XSP16, literal(-3)))
          CFI DPL0 load(1, XDATA, add(CFA_XSP16, literal(-2)))
          CFI DPH0 load(1, XDATA, add(CFA_XSP16, literal(-1)))
          CFI CFA_SP SP+0
          CFI CFA_XSP16 add(XSP16, 16)
          CFI Block cfiCond275 Using cfiCommon0
          CFI (cfiCond275) Function ZDSecMgrDeviceJoin
          CFI (cfiCond275) Conditional ??CrossCallReturnLabel_57
          CFI (cfiCond275) R6 load(1, XDATA, add(CFA_XSP16, literal(-10)))
          CFI (cfiCond275) VB load(1, XDATA, add(CFA_XSP16, literal(-9)))
          CFI (cfiCond275) V0 load(1, XDATA, add(CFA_XSP16, literal(-8)))
          CFI (cfiCond275) V1 load(1, XDATA, add(CFA_XSP16, literal(-7)))
          CFI (cfiCond275) R7 load(1, XDATA, add(CFA_XSP16, literal(-6)))
          CFI (cfiCond275) ?RET_LOW load(1, XDATA, add(CFA_XSP16, literal(-5)))
          CFI (cfiCond275) ?RET_HIGH load(1, XDATA, add(CFA_XSP16, literal(-4)))
          CFI (cfiCond275) ?BRET_EXT load(1, XDATA, add(CFA_XSP16, literal(-3)))
          CFI (cfiCond275) DPL0 load(1, XDATA, add(CFA_XSP16, literal(-2)))
          CFI (cfiCond275) DPH0 load(1, XDATA, add(CFA_XSP16, literal(-1)))
          CFI (cfiCond275) CFA_SP SP+0
          CFI (cfiCond275) CFA_XSP16 add(XSP16, 14)
          CFI Block cfiPicker276 Using cfiCommon1
          CFI (cfiPicker276) NoFunction
          CFI (cfiPicker276) Picker
        LCALL   ?Subroutine66 & 0xFFFF
??CrossCallReturnLabel_121:
        MOV     DPL,R6
        MOV     DPH,R7
        RET
          CFI EndBlock cfiCond274
          CFI EndBlock cfiCond275
          CFI EndBlock cfiPicker276
// 2084 
// 2085 /******************************************************************************
// 2086  * @fn          ZDSecMgrDeviceJoinDirect
// 2087  *
// 2088  * @brief       Try to join this device as a direct child.
// 2089  *
// 2090  * @param       device - [in] ZDSecMgrDevice_t, device info
// 2091  *
// 2092  * @return      ZStatus_t
// 2093  */

        RSEG BANKED_CODE:CODE:NOROOT(0)
// 2094 ZStatus_t ZDSecMgrDeviceJoinDirect( ZDSecMgrDevice_t* device )
ZDSecMgrDeviceJoinDirect:
          CFI Block cfiBlock277 Using cfiCommon0
          CFI Function ZDSecMgrDeviceJoinDirect
        CODE
// 2095 {
        FUNCALL ZDSecMgrDeviceJoinDirect, ZDSecMgrDeviceJoin
        LOCFRAME ISTACK, 0, STACK
        LOCFRAME PSTACK, 0, STACK
        LOCFRAME XSTACK, 9, STACK
        LOCFRAME IOVERLAY, 0, STATIC
        LOCFRAME DOVERLAY, 0, STATIC
        ARGFRAME ISTACK, 0, STACK
        ARGFRAME PSTACK, 0, STACK
        ARGFRAME XSTACK, 9, STACK
        ARGFRAME IOVERLAY, 0, STATIC
        ARGFRAME DOVERLAY, 0, STATIC
        FUNCALL ZDSecMgrDeviceJoinDirect, AssocGetWithShort
        LOCFRAME ISTACK, 0, STACK
        LOCFRAME PSTACK, 0, STACK
        LOCFRAME XSTACK, 9, STACK
        LOCFRAME IOVERLAY, 0, STATIC
        LOCFRAME DOVERLAY, 0, STATIC
        ARGFRAME ISTACK, 0, STACK
        ARGFRAME PSTACK, 0, STACK
        ARGFRAME XSTACK, 9, STACK
        ARGFRAME IOVERLAY, 0, STATIC
        ARGFRAME DOVERLAY, 0, STATIC
        FUNCALL ZDSecMgrDeviceJoinDirect, ZDSecMgrAssocDeviceAuth
        LOCFRAME ISTACK, 0, STACK
        LOCFRAME PSTACK, 0, STACK
        LOCFRAME XSTACK, 9, STACK
        LOCFRAME IOVERLAY, 0, STATIC
        LOCFRAME DOVERLAY, 0, STATIC
        ARGFRAME ISTACK, 0, STACK
        ARGFRAME PSTACK, 0, STACK
        ARGFRAME XSTACK, 9, STACK
        ARGFRAME IOVERLAY, 0, STATIC
        ARGFRAME DOVERLAY, 0, STATIC
        MOV     A,#-0x9
        LCALL   ?BANKED_ENTER_XDATA
          CFI DPH0 load(1, XDATA, add(CFA_XSP16, literal(-1)))
          CFI DPL0 load(1, XDATA, add(CFA_XSP16, literal(-2)))
          CFI ?BRET_EXT load(1, XDATA, add(CFA_XSP16, literal(-3)))
          CFI ?RET_HIGH load(1, XDATA, add(CFA_XSP16, literal(-4)))
          CFI ?RET_LOW load(1, XDATA, add(CFA_XSP16, literal(-5)))
          CFI R7 load(1, XDATA, add(CFA_XSP16, literal(-6)))
          CFI V0 load(1, XDATA, add(CFA_XSP16, literal(-7)))
          CFI VB load(1, XDATA, add(CFA_XSP16, literal(-8)))
          CFI R6 load(1, XDATA, add(CFA_XSP16, literal(-9)))
          CFI CFA_SP SP+0
          CFI CFA_XSP16 add(XSP16, 9)
        ; Saved register size: 9
        ; Auto size: 0
        MOV     A,R2
        MOV     R6,A
        MOV     A,R3
        MOV     R7,A
// 2096   ZStatus_t status;
// 2097 
// 2098   status = ZDSecMgrDeviceJoin( device );
        ; Setup parameters for call to function ZDSecMgrDeviceJoin
        LCALL   ??ZDSecMgrDeviceJoin?relay
        MOV     A,R1
        MOV     ?V0 + 0,A
// 2099 
// 2100   if ( status == ZSuccess )
        JNZ     ??ZDSecMgrDeviceJoinDirect_0
// 2101   {
// 2102     // set association status to authenticated
// 2103     ZDSecMgrAssocDeviceAuth( AssocGetWithShort( device->nwkAddr ) );
        ; Setup parameters for call to function ZDSecMgrAssocDeviceAuth
        ; Setup parameters for call to function AssocGetWithShort
        MOV     DPL,R6
        MOV     DPH,R7
        LCALL   ??Subroutine85_0 & 0xFFFF
// 2104   }
??CrossCallReturnLabel_138:
        LCALL   ??AssocGetWithShort?relay
        LCALL   ??ZDSecMgrAssocDeviceAuth?relay
// 2105 
// 2106   return status;
??ZDSecMgrDeviceJoinDirect_0:
        MOV     R1,?V0 + 0
        LJMP    ??Subroutine83_0 & 0xFFFF
          CFI EndBlock cfiBlock277
// 2107 }
// 2108 
// 2109 /******************************************************************************
// 2110  * @fn          ZDSecMgrDeviceJoinFwd
// 2111  *
// 2112  * @brief       Forward join to Trust Center.
// 2113  *
// 2114  * @param       device - [in] ZDSecMgrDevice_t, device info
// 2115  *
// 2116  * @return      ZStatus_t
// 2117  */

        RSEG BANKED_CODE:CODE:NOROOT(0)
// 2118 ZStatus_t ZDSecMgrDeviceJoinFwd( ZDSecMgrDevice_t* device )
ZDSecMgrDeviceJoinFwd:
          CFI Block cfiBlock278 Using cfiCommon0
          CFI Function ZDSecMgrDeviceJoinFwd
        CODE
// 2119 {
        FUNCALL ZDSecMgrDeviceJoinFwd, APSME_UpdateDeviceReq
        LOCFRAME ISTACK, 2, STACK
        LOCFRAME PSTACK, 0, STACK
        LOCFRAME XSTACK, 8, STACK
        LOCFRAME IOVERLAY, 0, STATIC
        LOCFRAME DOVERLAY, 0, STATIC
        ARGFRAME ISTACK, 2, STACK
        ARGFRAME PSTACK, 0, STACK
        ARGFRAME XSTACK, 8, STACK
        ARGFRAME IOVERLAY, 0, STATIC
        ARGFRAME DOVERLAY, 0, STATIC
        PUSH    DPL
          CFI DPL0 Frame(CFA_SP, 4)
          CFI CFA_SP SP+-4
        PUSH    DPH
          CFI DPH0 Frame(CFA_SP, 5)
          CFI CFA_SP SP+-5
        ; Saved register size: 2
        ; Auto size: 8
        MOV     A,#-0x8
        LCALL   ?ALLOC_XSTACK8
          CFI CFA_XSP16 add(XSP16, 8)
// 2120   ZStatus_t               status;
// 2121   APSME_UpdateDeviceReq_t req;
// 2122 
// 2123 
// 2124   // forward any joining device to the Trust Center -- the Trust Center will
// 2125   // decide if the device is allowed to join
// 2126   status = ZSuccess;
// 2127 
// 2128   // forward authorization to the Trust Center
// 2129   req.dstAddr    = APSME_TRUSTCENTER_NWKADDR;
        MOV     DPL,?XSP + 0
        MOV     DPH,?XSP + 1
        CLR     A
        MOVX    @DPTR,A
        INC     DPTR
        MOVX    @DPTR,A
// 2130   req.devAddr    = device->nwkAddr;
        MOV     DPL,R2
        MOV     DPH,R3
        LCALL   ?Subroutine43 & 0xFFFF
??CrossCallReturnLabel_51:
        LCALL   ?XSTACK_DISP0_8
        LCALL   ?Subroutine18 & 0xFFFF
// 2131   req.devExtAddr = device->extAddr;
??CrossCallReturnLabel_0:
        LCALL   ?XSTACK_DISP0_8
        LCALL   ??Subroutine87_0 & 0xFFFF
// 2132 
// 2133   // set security status, option for router to reject if policy set
// 2134   if ( (device->devStatus & DEV_HIGH_SEC_STATUS) )
??CrossCallReturnLabel_159:
        MOV     A,R2
        ADD     A,#0x7
        LCALL   ?Subroutine58 & 0xFFFF
??CrossCallReturnLabel_188:
        MOV     C,0xE0 /* A   */.7
        JNC     ??ZDSecMgrDeviceJoinFwd_0
// 2135   {
// 2136     if ( device->devStatus & DEV_REJOIN_STATUS )
        MOV     C,0xE0 /* A   */.6
        JNC     ??ZDSecMgrDeviceJoinFwd_1
// 2137     {
// 2138       if ( device->secure == TRUE )
        MOV     DPL,R2
        MOV     DPH,R3
        INC     DPTR
        INC     DPTR
        INC     DPTR
        INC     DPTR
        INC     DPTR
        INC     DPTR
        MOVX    A,@DPTR
        XRL     A,#0x1
        JNZ     ??ZDSecMgrDeviceJoinFwd_2
// 2139         req.status = APSME_UD_HIGH_SECURED_REJOIN;
        MOV     A,#0x6
        LCALL   ?XSTACK_DISP0_8
        MOV     A,#0x4
        SJMP    ??ZDSecMgrDeviceJoinFwd_3
// 2140       else
// 2141         req.status = APSME_UD_HIGH_UNSECURED_REJOIN;
??ZDSecMgrDeviceJoinFwd_2:
        MOV     A,#0x6
        LCALL   ?XSTACK_DISP0_8
        MOV     A,#0x7
        SJMP    ??ZDSecMgrDeviceJoinFwd_3
// 2142     }
// 2143     else
// 2144       req.status = APSME_UD_HIGH_UNSECURED_JOIN;
??ZDSecMgrDeviceJoinFwd_1:
        MOV     A,#0x6
        LCALL   ?XSTACK_DISP0_8
        MOV     A,#0x5
        SJMP    ??ZDSecMgrDeviceJoinFwd_3
// 2145   }
// 2146   else
// 2147   {
// 2148     if ( device->devStatus & DEV_REJOIN_STATUS )
??ZDSecMgrDeviceJoinFwd_0:
        MOV     C,0xE0 /* A   */.6
        JNC     ??ZDSecMgrDeviceJoinFwd_4
// 2149     {
// 2150       if ( device->secure == TRUE )
        MOV     DPL,R2
        MOV     DPH,R3
        INC     DPTR
        INC     DPTR
        INC     DPTR
        INC     DPTR
        INC     DPTR
        INC     DPTR
        MOVX    A,@DPTR
        XRL     A,#0x1
        JNZ     ??ZDSecMgrDeviceJoinFwd_5
// 2151         req.status = APSME_UD_STANDARD_SECURED_REJOIN;
        MOV     A,#0x6
        LCALL   ?XSTACK_DISP0_8
        CLR     A
        SJMP    ??ZDSecMgrDeviceJoinFwd_3
// 2152       else
// 2153         req.status = APSME_UD_STANDARD_UNSECURED_REJOIN;
??ZDSecMgrDeviceJoinFwd_5:
        MOV     A,#0x6
        LCALL   ?XSTACK_DISP0_8
        MOV     A,#0x3
        SJMP    ??ZDSecMgrDeviceJoinFwd_3
// 2154     }
// 2155     else
// 2156       req.status = APSME_UD_STANDARD_UNSECURED_JOIN;
??ZDSecMgrDeviceJoinFwd_4:
        MOV     A,#0x6
        LCALL   ?XSTACK_DISP0_8
        MOV     A,#0x1
??ZDSecMgrDeviceJoinFwd_3:
        MOVX    @DPTR,A
// 2157   }
// 2158 
// 2159   if ( ZG_CHECK_SECURITY_MODE == ZG_SECURITY_PRO_HIGH )
// 2160     req.apsSecure = TRUE;
// 2161   else
// 2162     req.apsSecure = FALSE;
        MOV     A,#0x7
        LCALL   ?XSTACK_DISP0_8
        CLR     A
        LCALL   ??Subroutine90_0 & 0xFFFF
// 2163 
// 2164   // send and APSME_UPDATE_DEVICE request to the trust center
// 2165   status = APSME_UpdateDeviceReq( &req );
// 2166 
// 2167   return status;
??CrossCallReturnLabel_182:
        LCALL   ??APSME_UpdateDeviceReq?relay
        MOV     A,#0x8
        LJMP    ??Subroutine99_0 & 0xFFFF
          CFI EndBlock cfiBlock278
// 2168 }

        RSEG BANKED_CODE:CODE:NOROOT(0)
?Subroutine34:
          CFI Block cfiCond279 Using cfiCommon0
          CFI Function ZDSecMgrNewDeviceEvent
          CFI Conditional ??CrossCallReturnLabel_167
          CFI R6 load(1, XDATA, add(CFA_XSP16, literal(-12)))
          CFI VB load(1, XDATA, add(CFA_XSP16, literal(-11)))
          CFI V0 load(1, XDATA, add(CFA_XSP16, literal(-10)))
          CFI V1 load(1, XDATA, add(CFA_XSP16, literal(-9)))
          CFI V2 load(1, XDATA, add(CFA_XSP16, literal(-8)))
          CFI V3 load(1, XDATA, add(CFA_XSP16, literal(-7)))
          CFI R7 load(1, XDATA, add(CFA_XSP16, literal(-6)))
          CFI ?RET_LOW load(1, XDATA, add(CFA_XSP16, literal(-5)))
          CFI ?RET_HIGH load(1, XDATA, add(CFA_XSP16, literal(-4)))
          CFI ?BRET_EXT load(1, XDATA, add(CFA_XSP16, literal(-3)))
          CFI DPL0 load(1, XDATA, add(CFA_XSP16, literal(-2)))
          CFI DPH0 load(1, XDATA, add(CFA_XSP16, literal(-1)))
          CFI CFA_SP SP+0
          CFI CFA_XSP16 add(XSP16, 35)
          CFI Block cfiCond280 Using cfiCommon0
          CFI (cfiCond280) Function ZDSecMgrEvent
          CFI (cfiCond280) Conditional ??CrossCallReturnLabel_168
          CFI (cfiCond280) R6 load(1, XDATA, add(CFA_XSP16, literal(-10)))
          CFI (cfiCond280) VB load(1, XDATA, add(CFA_XSP16, literal(-9)))
          CFI (cfiCond280) V0 load(1, XDATA, add(CFA_XSP16, literal(-8)))
          CFI (cfiCond280) V1 load(1, XDATA, add(CFA_XSP16, literal(-7)))
          CFI (cfiCond280) R7 load(1, XDATA, add(CFA_XSP16, literal(-6)))
          CFI (cfiCond280) ?RET_LOW load(1, XDATA, add(CFA_XSP16, literal(-5)))
          CFI (cfiCond280) ?RET_HIGH load(1, XDATA, add(CFA_XSP16, literal(-4)))
          CFI (cfiCond280) ?BRET_EXT load(1, XDATA, add(CFA_XSP16, literal(-3)))
          CFI (cfiCond280) DPL0 load(1, XDATA, add(CFA_XSP16, literal(-2)))
          CFI (cfiCond280) DPH0 load(1, XDATA, add(CFA_XSP16, literal(-1)))
          CFI (cfiCond280) CFA_SP SP+0
          CFI (cfiCond280) CFA_XSP16 add(XSP16, 33)
          CFI Block cfiCond281 Using cfiCommon0
          CFI (cfiCond281) Function ZDSecMgrUpdateDeviceInd
          CFI (cfiCond281) Conditional ??CrossCallReturnLabel_169
          CFI (cfiCond281) DPL0 Frame(CFA_SP, 4)
          CFI (cfiCond281) DPH0 Frame(CFA_SP, 5)
          CFI (cfiCond281) CFA_SP SP+-5
          CFI (cfiCond281) CFA_XSP16 add(XSP16, 10)
          CFI Block cfiCond282 Using cfiCommon0
          CFI (cfiCond282) Function ZDSecMgrAuthenticateInd
          CFI (cfiCond282) Conditional ??CrossCallReturnLabel_170
          CFI (cfiCond282) R6 load(1, XDATA, add(CFA_XSP16, literal(-12)))
          CFI (cfiCond282) VB load(1, XDATA, add(CFA_XSP16, literal(-11)))
          CFI (cfiCond282) V0 load(1, XDATA, add(CFA_XSP16, literal(-10)))
          CFI (cfiCond282) V1 load(1, XDATA, add(CFA_XSP16, literal(-9)))
          CFI (cfiCond282) V2 load(1, XDATA, add(CFA_XSP16, literal(-8)))
          CFI (cfiCond282) V3 load(1, XDATA, add(CFA_XSP16, literal(-7)))
          CFI (cfiCond282) R7 load(1, XDATA, add(CFA_XSP16, literal(-6)))
          CFI (cfiCond282) ?RET_LOW load(1, XDATA, add(CFA_XSP16, literal(-5)))
          CFI (cfiCond282) ?RET_HIGH load(1, XDATA, add(CFA_XSP16, literal(-4)))
          CFI (cfiCond282) ?BRET_EXT load(1, XDATA, add(CFA_XSP16, literal(-3)))
          CFI (cfiCond282) DPL0 load(1, XDATA, add(CFA_XSP16, literal(-2)))
          CFI (cfiCond282) DPH0 load(1, XDATA, add(CFA_XSP16, literal(-1)))
          CFI (cfiCond282) CFA_SP SP+0
          CFI (cfiCond282) CFA_XSP16 add(XSP16, 32)
          CFI Block cfiPicker283 Using cfiCommon1
          CFI (cfiPicker283) NoFunction
          CFI (cfiPicker283) Picker
        LCALL   ??Subroutine96_0 & 0xFFFF
          CFI EndBlock cfiCond279
          CFI EndBlock cfiCond280
          CFI EndBlock cfiCond281
          CFI EndBlock cfiCond282
          CFI EndBlock cfiPicker283
??CrossCallReturnLabel_214:
        REQUIRE ??Subroutine86_0
        ; // Fall through to label ??Subroutine86_0

        RSEG BANKED_CODE:CODE:NOROOT(0)
??Subroutine86_0:
          CFI Block cfiCond284 Using cfiCommon0
          CFI Function ZDSecMgrSendNwkKey
          CFI Conditional ??CrossCallReturnLabel_165
          CFI R6 load(1, XDATA, add(CFA_XSP16, literal(-12)))
          CFI VB load(1, XDATA, add(CFA_XSP16, literal(-11)))
          CFI V0 load(1, XDATA, add(CFA_XSP16, literal(-10)))
          CFI V1 load(1, XDATA, add(CFA_XSP16, literal(-9)))
          CFI V2 load(1, XDATA, add(CFA_XSP16, literal(-8)))
          CFI V3 load(1, XDATA, add(CFA_XSP16, literal(-7)))
          CFI R7 load(1, XDATA, add(CFA_XSP16, literal(-6)))
          CFI ?RET_LOW load(1, XDATA, add(CFA_XSP16, literal(-5)))
          CFI ?RET_HIGH load(1, XDATA, add(CFA_XSP16, literal(-4)))
          CFI ?BRET_EXT load(1, XDATA, add(CFA_XSP16, literal(-3)))
          CFI DPL0 load(1, XDATA, add(CFA_XSP16, literal(-2)))
          CFI DPH0 load(1, XDATA, add(CFA_XSP16, literal(-1)))
          CFI CFA_SP SP+0
          CFI CFA_XSP16 add(XSP16, 25)
          CFI Block cfiCond285 Using cfiCommon0
          CFI (cfiCond285) Function ZDSecMgrEstablishKeyInd
          CFI (cfiCond285) Conditional ??CrossCallReturnLabel_166
          CFI (cfiCond285) R6 load(1, XDATA, add(CFA_XSP16, literal(-12)))
          CFI (cfiCond285) VB load(1, XDATA, add(CFA_XSP16, literal(-11)))
          CFI (cfiCond285) V0 load(1, XDATA, add(CFA_XSP16, literal(-10)))
          CFI (cfiCond285) V1 load(1, XDATA, add(CFA_XSP16, literal(-9)))
          CFI (cfiCond285) V2 load(1, XDATA, add(CFA_XSP16, literal(-8)))
          CFI (cfiCond285) V3 load(1, XDATA, add(CFA_XSP16, literal(-7)))
          CFI (cfiCond285) R7 load(1, XDATA, add(CFA_XSP16, literal(-6)))
          CFI (cfiCond285) ?RET_LOW load(1, XDATA, add(CFA_XSP16, literal(-5)))
          CFI (cfiCond285) ?RET_HIGH load(1, XDATA, add(CFA_XSP16, literal(-4)))
          CFI (cfiCond285) ?BRET_EXT load(1, XDATA, add(CFA_XSP16, literal(-3)))
          CFI (cfiCond285) DPL0 load(1, XDATA, add(CFA_XSP16, literal(-2)))
          CFI (cfiCond285) DPH0 load(1, XDATA, add(CFA_XSP16, literal(-1)))
          CFI (cfiCond285) CFA_SP SP+0
          CFI (cfiCond285) CFA_XSP16 add(XSP16, 29)
          CFI Block cfiCond286 Using cfiCommon0
          CFI (cfiCond286) Function ZDSecMgrNewDeviceEvent
          CFI (cfiCond286) Conditional ??CrossCallReturnLabel_167
          CFI (cfiCond286) R6 load(1, XDATA, add(CFA_XSP16, literal(-12)))
          CFI (cfiCond286) VB load(1, XDATA, add(CFA_XSP16, literal(-11)))
          CFI (cfiCond286) V0 load(1, XDATA, add(CFA_XSP16, literal(-10)))
          CFI (cfiCond286) V1 load(1, XDATA, add(CFA_XSP16, literal(-9)))
          CFI (cfiCond286) V2 load(1, XDATA, add(CFA_XSP16, literal(-8)))
          CFI (cfiCond286) V3 load(1, XDATA, add(CFA_XSP16, literal(-7)))
          CFI (cfiCond286) R7 load(1, XDATA, add(CFA_XSP16, literal(-6)))
          CFI (cfiCond286) ?RET_LOW load(1, XDATA, add(CFA_XSP16, literal(-5)))
          CFI (cfiCond286) ?RET_HIGH load(1, XDATA, add(CFA_XSP16, literal(-4)))
          CFI (cfiCond286) ?BRET_EXT load(1, XDATA, add(CFA_XSP16, literal(-3)))
          CFI (cfiCond286) DPL0 load(1, XDATA, add(CFA_XSP16, literal(-2)))
          CFI (cfiCond286) DPH0 load(1, XDATA, add(CFA_XSP16, literal(-1)))
          CFI (cfiCond286) CFA_SP SP+0
          CFI (cfiCond286) CFA_XSP16 add(XSP16, 35)
          CFI Block cfiCond287 Using cfiCommon0
          CFI (cfiCond287) Function ZDSecMgrEvent
          CFI (cfiCond287) Conditional ??CrossCallReturnLabel_168
          CFI (cfiCond287) R6 load(1, XDATA, add(CFA_XSP16, literal(-10)))
          CFI (cfiCond287) VB load(1, XDATA, add(CFA_XSP16, literal(-9)))
          CFI (cfiCond287) V0 load(1, XDATA, add(CFA_XSP16, literal(-8)))
          CFI (cfiCond287) V1 load(1, XDATA, add(CFA_XSP16, literal(-7)))
          CFI (cfiCond287) R7 load(1, XDATA, add(CFA_XSP16, literal(-6)))
          CFI (cfiCond287) ?RET_LOW load(1, XDATA, add(CFA_XSP16, literal(-5)))
          CFI (cfiCond287) ?RET_HIGH load(1, XDATA, add(CFA_XSP16, literal(-4)))
          CFI (cfiCond287) ?BRET_EXT load(1, XDATA, add(CFA_XSP16, literal(-3)))
          CFI (cfiCond287) DPL0 load(1, XDATA, add(CFA_XSP16, literal(-2)))
          CFI (cfiCond287) DPH0 load(1, XDATA, add(CFA_XSP16, literal(-1)))
          CFI (cfiCond287) CFA_SP SP+0
          CFI (cfiCond287) CFA_XSP16 add(XSP16, 33)
          CFI Block cfiCond288 Using cfiCommon0
          CFI (cfiCond288) Function ZDSecMgrUpdateDeviceInd
          CFI (cfiCond288) Conditional ??CrossCallReturnLabel_169
          CFI (cfiCond288) DPL0 Frame(CFA_SP, 4)
          CFI (cfiCond288) DPH0 Frame(CFA_SP, 5)
          CFI (cfiCond288) CFA_SP SP+-5
          CFI (cfiCond288) CFA_XSP16 add(XSP16, 10)
          CFI Block cfiCond289 Using cfiCommon0
          CFI (cfiCond289) Function ZDSecMgrAuthenticateInd
          CFI (cfiCond289) Conditional ??CrossCallReturnLabel_170
          CFI (cfiCond289) R6 load(1, XDATA, add(CFA_XSP16, literal(-12)))
          CFI (cfiCond289) VB load(1, XDATA, add(CFA_XSP16, literal(-11)))
          CFI (cfiCond289) V0 load(1, XDATA, add(CFA_XSP16, literal(-10)))
          CFI (cfiCond289) V1 load(1, XDATA, add(CFA_XSP16, literal(-9)))
          CFI (cfiCond289) V2 load(1, XDATA, add(CFA_XSP16, literal(-8)))
          CFI (cfiCond289) V3 load(1, XDATA, add(CFA_XSP16, literal(-7)))
          CFI (cfiCond289) R7 load(1, XDATA, add(CFA_XSP16, literal(-6)))
          CFI (cfiCond289) ?RET_LOW load(1, XDATA, add(CFA_XSP16, literal(-5)))
          CFI (cfiCond289) ?RET_HIGH load(1, XDATA, add(CFA_XSP16, literal(-4)))
          CFI (cfiCond289) ?BRET_EXT load(1, XDATA, add(CFA_XSP16, literal(-3)))
          CFI (cfiCond289) DPL0 load(1, XDATA, add(CFA_XSP16, literal(-2)))
          CFI (cfiCond289) DPH0 load(1, XDATA, add(CFA_XSP16, literal(-1)))
          CFI (cfiCond289) CFA_SP SP+0
          CFI (cfiCond289) CFA_XSP16 add(XSP16, 32)
          CFI Block cfiPicker290 Using cfiCommon1
          CFI (cfiPicker290) NoFunction
          CFI (cfiPicker290) Picker
        MOV     DPL,?XSP + 0
        MOV     DPH,?XSP + 1
          CFI EndBlock cfiCond284
          CFI EndBlock cfiCond285
          CFI EndBlock cfiCond286
          CFI EndBlock cfiCond287
          CFI EndBlock cfiCond288
          CFI EndBlock cfiCond289
          CFI EndBlock cfiPicker290
        REQUIRE ??Subroutine87_0
        ; // Fall through to label ??Subroutine87_0

        RSEG BANKED_CODE:CODE:NOROOT(0)
??Subroutine87_0:
          CFI Block cfiCond291 Using cfiCommon0
          CFI Function ZDSecMgrCtrlLookup
          CFI Conditional ??CrossCallReturnLabel_151
          CFI R6 load(1, XDATA, add(CFA_XSP16, literal(-10)))
          CFI VB load(1, XDATA, add(CFA_XSP16, literal(-9)))
          CFI V0 load(1, XDATA, add(CFA_XSP16, literal(-8)))
          CFI V1 load(1, XDATA, add(CFA_XSP16, literal(-7)))
          CFI R7 load(1, XDATA, add(CFA_XSP16, literal(-6)))
          CFI ?RET_LOW load(1, XDATA, add(CFA_XSP16, literal(-5)))
          CFI ?RET_HIGH load(1, XDATA, add(CFA_XSP16, literal(-4)))
          CFI ?BRET_EXT load(1, XDATA, add(CFA_XSP16, literal(-3)))
          CFI DPL0 load(1, XDATA, add(CFA_XSP16, literal(-2)))
          CFI DPH0 load(1, XDATA, add(CFA_XSP16, literal(-1)))
          CFI CFA_SP SP+0
          CFI CFA_XSP16 add(XSP16, 10)
          CFI Block cfiCond292 Using cfiCommon0
          CFI (cfiCond292) Function ZDSecMgrCtrlSet
          CFI (cfiCond292) Conditional ??CrossCallReturnLabel_152
          CFI (cfiCond292) R6 load(1, XDATA, add(CFA_XSP16, literal(-9)))
          CFI (cfiCond292) VB load(1, XDATA, add(CFA_XSP16, literal(-8)))
          CFI (cfiCond292) V0 load(1, XDATA, add(CFA_XSP16, literal(-7)))
          CFI (cfiCond292) R7 load(1, XDATA, add(CFA_XSP16, literal(-6)))
          CFI (cfiCond292) ?RET_LOW load(1, XDATA, add(CFA_XSP16, literal(-5)))
          CFI (cfiCond292) ?RET_HIGH load(1, XDATA, add(CFA_XSP16, literal(-4)))
          CFI (cfiCond292) ?BRET_EXT load(1, XDATA, add(CFA_XSP16, literal(-3)))
          CFI (cfiCond292) DPL0 load(1, XDATA, add(CFA_XSP16, literal(-2)))
          CFI (cfiCond292) DPH0 load(1, XDATA, add(CFA_XSP16, literal(-1)))
          CFI (cfiCond292) CFA_SP SP+0
          CFI (cfiCond292) CFA_XSP16 add(XSP16, 9)
          CFI Block cfiCond293 Using cfiCommon0
          CFI (cfiCond293) Function ZDSecMgrAppKeyReq
          CFI (cfiCond293) Conditional ??CrossCallReturnLabel_153
          CFI (cfiCond293) R6 load(1, XDATA, add(CFA_XSP16, literal(-10)))
          CFI (cfiCond293) VB load(1, XDATA, add(CFA_XSP16, literal(-9)))
          CFI (cfiCond293) V0 load(1, XDATA, add(CFA_XSP16, literal(-8)))
          CFI (cfiCond293) V1 load(1, XDATA, add(CFA_XSP16, literal(-7)))
          CFI (cfiCond293) R7 load(1, XDATA, add(CFA_XSP16, literal(-6)))
          CFI (cfiCond293) ?RET_LOW load(1, XDATA, add(CFA_XSP16, literal(-5)))
          CFI (cfiCond293) ?RET_HIGH load(1, XDATA, add(CFA_XSP16, literal(-4)))
          CFI (cfiCond293) ?BRET_EXT load(1, XDATA, add(CFA_XSP16, literal(-3)))
          CFI (cfiCond293) DPL0 load(1, XDATA, add(CFA_XSP16, literal(-2)))
          CFI (cfiCond293) DPH0 load(1, XDATA, add(CFA_XSP16, literal(-1)))
          CFI (cfiCond293) CFA_SP SP+0
          CFI (cfiCond293) CFA_XSP16 add(XSP16, 49)
          CFI Block cfiCond294 Using cfiCommon0
          CFI (cfiCond294) Function ZDSecMgrAppKeyReq
          CFI (cfiCond294) Conditional ??CrossCallReturnLabel_154
          CFI (cfiCond294) R6 load(1, XDATA, add(CFA_XSP16, literal(-10)))
          CFI (cfiCond294) VB load(1, XDATA, add(CFA_XSP16, literal(-9)))
          CFI (cfiCond294) V0 load(1, XDATA, add(CFA_XSP16, literal(-8)))
          CFI (cfiCond294) V1 load(1, XDATA, add(CFA_XSP16, literal(-7)))
          CFI (cfiCond294) R7 load(1, XDATA, add(CFA_XSP16, literal(-6)))
          CFI (cfiCond294) ?RET_LOW load(1, XDATA, add(CFA_XSP16, literal(-5)))
          CFI (cfiCond294) ?RET_HIGH load(1, XDATA, add(CFA_XSP16, literal(-4)))
          CFI (cfiCond294) ?BRET_EXT load(1, XDATA, add(CFA_XSP16, literal(-3)))
          CFI (cfiCond294) DPL0 load(1, XDATA, add(CFA_XSP16, literal(-2)))
          CFI (cfiCond294) DPH0 load(1, XDATA, add(CFA_XSP16, literal(-1)))
          CFI (cfiCond294) CFA_SP SP+0
          CFI (cfiCond294) CFA_XSP16 add(XSP16, 49)
          CFI Block cfiCond295 Using cfiCommon0
          CFI (cfiCond295) Function ZDSecMgrAppKeyReq
          CFI (cfiCond295) Conditional ??CrossCallReturnLabel_155
          CFI (cfiCond295) R6 load(1, XDATA, add(CFA_XSP16, literal(-10)))
          CFI (cfiCond295) VB load(1, XDATA, add(CFA_XSP16, literal(-9)))
          CFI (cfiCond295) V0 load(1, XDATA, add(CFA_XSP16, literal(-8)))
          CFI (cfiCond295) V1 load(1, XDATA, add(CFA_XSP16, literal(-7)))
          CFI (cfiCond295) R7 load(1, XDATA, add(CFA_XSP16, literal(-6)))
          CFI (cfiCond295) ?RET_LOW load(1, XDATA, add(CFA_XSP16, literal(-5)))
          CFI (cfiCond295) ?RET_HIGH load(1, XDATA, add(CFA_XSP16, literal(-4)))
          CFI (cfiCond295) ?BRET_EXT load(1, XDATA, add(CFA_XSP16, literal(-3)))
          CFI (cfiCond295) DPL0 load(1, XDATA, add(CFA_XSP16, literal(-2)))
          CFI (cfiCond295) DPH0 load(1, XDATA, add(CFA_XSP16, literal(-1)))
          CFI (cfiCond295) CFA_SP SP+0
          CFI (cfiCond295) CFA_XSP16 add(XSP16, 49)
          CFI Block cfiCond296 Using cfiCommon0
          CFI (cfiCond296) Function ZDSecMgrEstablishKey
          CFI (cfiCond296) Conditional ??CrossCallReturnLabel_156
          CFI (cfiCond296) R6 load(1, XDATA, add(CFA_XSP16, literal(-10)))
          CFI (cfiCond296) VB load(1, XDATA, add(CFA_XSP16, literal(-9)))
          CFI (cfiCond296) V0 load(1, XDATA, add(CFA_XSP16, literal(-8)))
          CFI (cfiCond296) V1 load(1, XDATA, add(CFA_XSP16, literal(-7)))
          CFI (cfiCond296) R7 load(1, XDATA, add(CFA_XSP16, literal(-6)))
          CFI (cfiCond296) ?RET_LOW load(1, XDATA, add(CFA_XSP16, literal(-5)))
          CFI (cfiCond296) ?RET_HIGH load(1, XDATA, add(CFA_XSP16, literal(-4)))
          CFI (cfiCond296) ?BRET_EXT load(1, XDATA, add(CFA_XSP16, literal(-3)))
          CFI (cfiCond296) DPL0 load(1, XDATA, add(CFA_XSP16, literal(-2)))
          CFI (cfiCond296) DPH0 load(1, XDATA, add(CFA_XSP16, literal(-1)))
          CFI (cfiCond296) CFA_SP SP+0
          CFI (cfiCond296) CFA_XSP16 add(XSP16, 17)
          CFI Block cfiCond297 Using cfiCommon0
          CFI (cfiCond297) Function ZDSecMgrSendMasterKey
          CFI (cfiCond297) Conditional ??CrossCallReturnLabel_157
          CFI (cfiCond297) R6 load(1, XDATA, add(CFA_XSP16, literal(-10)))
          CFI (cfiCond297) VB load(1, XDATA, add(CFA_XSP16, literal(-9)))
          CFI (cfiCond297) V0 load(1, XDATA, add(CFA_XSP16, literal(-8)))
          CFI (cfiCond297) V1 load(1, XDATA, add(CFA_XSP16, literal(-7)))
          CFI (cfiCond297) R7 load(1, XDATA, add(CFA_XSP16, literal(-6)))
          CFI (cfiCond297) ?RET_LOW load(1, XDATA, add(CFA_XSP16, literal(-5)))
          CFI (cfiCond297) ?RET_HIGH load(1, XDATA, add(CFA_XSP16, literal(-4)))
          CFI (cfiCond297) ?BRET_EXT load(1, XDATA, add(CFA_XSP16, literal(-3)))
          CFI (cfiCond297) DPL0 load(1, XDATA, add(CFA_XSP16, literal(-2)))
          CFI (cfiCond297) DPH0 load(1, XDATA, add(CFA_XSP16, literal(-1)))
          CFI (cfiCond297) CFA_SP SP+0
          CFI (cfiCond297) CFA_XSP16 add(XSP16, 23)
          CFI Block cfiCond298 Using cfiCommon0
          CFI (cfiCond298) Function ZDSecMgrSendNwkKey
          CFI (cfiCond298) Conditional ??CrossCallReturnLabel_158
          CFI (cfiCond298) R6 load(1, XDATA, add(CFA_XSP16, literal(-12)))
          CFI (cfiCond298) VB load(1, XDATA, add(CFA_XSP16, literal(-11)))
          CFI (cfiCond298) V0 load(1, XDATA, add(CFA_XSP16, literal(-10)))
          CFI (cfiCond298) V1 load(1, XDATA, add(CFA_XSP16, literal(-9)))
          CFI (cfiCond298) V2 load(1, XDATA, add(CFA_XSP16, literal(-8)))
          CFI (cfiCond298) V3 load(1, XDATA, add(CFA_XSP16, literal(-7)))
          CFI (cfiCond298) R7 load(1, XDATA, add(CFA_XSP16, literal(-6)))
          CFI (cfiCond298) ?RET_LOW load(1, XDATA, add(CFA_XSP16, literal(-5)))
          CFI (cfiCond298) ?RET_HIGH load(1, XDATA, add(CFA_XSP16, literal(-4)))
          CFI (cfiCond298) ?BRET_EXT load(1, XDATA, add(CFA_XSP16, literal(-3)))
          CFI (cfiCond298) DPL0 load(1, XDATA, add(CFA_XSP16, literal(-2)))
          CFI (cfiCond298) DPH0 load(1, XDATA, add(CFA_XSP16, literal(-1)))
          CFI (cfiCond298) CFA_SP SP+0
          CFI (cfiCond298) CFA_XSP16 add(XSP16, 25)
          CFI Block cfiCond299 Using cfiCommon0
          CFI (cfiCond299) Function ZDSecMgrDeviceJoinFwd
          CFI (cfiCond299) Conditional ??CrossCallReturnLabel_159
          CFI (cfiCond299) DPL0 Frame(CFA_SP, 4)
          CFI (cfiCond299) DPH0 Frame(CFA_SP, 5)
          CFI (cfiCond299) CFA_SP SP+-5
          CFI (cfiCond299) CFA_XSP16 add(XSP16, 8)
          CFI Block cfiCond300 Using cfiCommon0
          CFI (cfiCond300) Function ZDSecMgrNewDeviceEvent
          CFI (cfiCond300) Conditional ??CrossCallReturnLabel_160
          CFI (cfiCond300) R6 load(1, XDATA, add(CFA_XSP16, literal(-12)))
          CFI (cfiCond300) VB load(1, XDATA, add(CFA_XSP16, literal(-11)))
          CFI (cfiCond300) V0 load(1, XDATA, add(CFA_XSP16, literal(-10)))
          CFI (cfiCond300) V1 load(1, XDATA, add(CFA_XSP16, literal(-9)))
          CFI (cfiCond300) V2 load(1, XDATA, add(CFA_XSP16, literal(-8)))
          CFI (cfiCond300) V3 load(1, XDATA, add(CFA_XSP16, literal(-7)))
          CFI (cfiCond300) R7 load(1, XDATA, add(CFA_XSP16, literal(-6)))
          CFI (cfiCond300) ?RET_LOW load(1, XDATA, add(CFA_XSP16, literal(-5)))
          CFI (cfiCond300) ?RET_HIGH load(1, XDATA, add(CFA_XSP16, literal(-4)))
          CFI (cfiCond300) ?BRET_EXT load(1, XDATA, add(CFA_XSP16, literal(-3)))
          CFI (cfiCond300) DPL0 load(1, XDATA, add(CFA_XSP16, literal(-2)))
          CFI (cfiCond300) DPH0 load(1, XDATA, add(CFA_XSP16, literal(-1)))
          CFI (cfiCond300) CFA_SP SP+0
          CFI (cfiCond300) CFA_XSP16 add(XSP16, 35)
          CFI Block cfiCond301 Using cfiCommon0
          CFI (cfiCond301) Function ZDSecMgrEstablishKeyInd
          CFI (cfiCond301) Conditional ??CrossCallReturnLabel_161
          CFI (cfiCond301) R6 load(1, XDATA, add(CFA_XSP16, literal(-12)))
          CFI (cfiCond301) VB load(1, XDATA, add(CFA_XSP16, literal(-11)))
          CFI (cfiCond301) V0 load(1, XDATA, add(CFA_XSP16, literal(-10)))
          CFI (cfiCond301) V1 load(1, XDATA, add(CFA_XSP16, literal(-9)))
          CFI (cfiCond301) V2 load(1, XDATA, add(CFA_XSP16, literal(-8)))
          CFI (cfiCond301) V3 load(1, XDATA, add(CFA_XSP16, literal(-7)))
          CFI (cfiCond301) R7 load(1, XDATA, add(CFA_XSP16, literal(-6)))
          CFI (cfiCond301) ?RET_LOW load(1, XDATA, add(CFA_XSP16, literal(-5)))
          CFI (cfiCond301) ?RET_HIGH load(1, XDATA, add(CFA_XSP16, literal(-4)))
          CFI (cfiCond301) ?BRET_EXT load(1, XDATA, add(CFA_XSP16, literal(-3)))
          CFI (cfiCond301) DPL0 load(1, XDATA, add(CFA_XSP16, literal(-2)))
          CFI (cfiCond301) DPH0 load(1, XDATA, add(CFA_XSP16, literal(-1)))
          CFI (cfiCond301) CFA_SP SP+0
          CFI (cfiCond301) CFA_XSP16 add(XSP16, 29)
          CFI Block cfiCond302 Using cfiCommon0
          CFI (cfiCond302) Function ZDSecMgrEstablishKeyInd
          CFI (cfiCond302) Conditional ??CrossCallReturnLabel_162
          CFI (cfiCond302) R6 load(1, XDATA, add(CFA_XSP16, literal(-12)))
          CFI (cfiCond302) VB load(1, XDATA, add(CFA_XSP16, literal(-11)))
          CFI (cfiCond302) V0 load(1, XDATA, add(CFA_XSP16, literal(-10)))
          CFI (cfiCond302) V1 load(1, XDATA, add(CFA_XSP16, literal(-9)))
          CFI (cfiCond302) V2 load(1, XDATA, add(CFA_XSP16, literal(-8)))
          CFI (cfiCond302) V3 load(1, XDATA, add(CFA_XSP16, literal(-7)))
          CFI (cfiCond302) R7 load(1, XDATA, add(CFA_XSP16, literal(-6)))
          CFI (cfiCond302) ?RET_LOW load(1, XDATA, add(CFA_XSP16, literal(-5)))
          CFI (cfiCond302) ?RET_HIGH load(1, XDATA, add(CFA_XSP16, literal(-4)))
          CFI (cfiCond302) ?BRET_EXT load(1, XDATA, add(CFA_XSP16, literal(-3)))
          CFI (cfiCond302) DPL0 load(1, XDATA, add(CFA_XSP16, literal(-2)))
          CFI (cfiCond302) DPH0 load(1, XDATA, add(CFA_XSP16, literal(-1)))
          CFI (cfiCond302) CFA_SP SP+0
          CFI (cfiCond302) CFA_XSP16 add(XSP16, 29)
          CFI Block cfiCond303 Using cfiCommon0
          CFI (cfiCond303) Function ZDSecMgrAuthenticateInd
          CFI (cfiCond303) Conditional ??CrossCallReturnLabel_163
          CFI (cfiCond303) R6 load(1, XDATA, add(CFA_XSP16, literal(-12)))
          CFI (cfiCond303) VB load(1, XDATA, add(CFA_XSP16, literal(-11)))
          CFI (cfiCond303) V0 load(1, XDATA, add(CFA_XSP16, literal(-10)))
          CFI (cfiCond303) V1 load(1, XDATA, add(CFA_XSP16, literal(-9)))
          CFI (cfiCond303) V2 load(1, XDATA, add(CFA_XSP16, literal(-8)))
          CFI (cfiCond303) V3 load(1, XDATA, add(CFA_XSP16, literal(-7)))
          CFI (cfiCond303) R7 load(1, XDATA, add(CFA_XSP16, literal(-6)))
          CFI (cfiCond303) ?RET_LOW load(1, XDATA, add(CFA_XSP16, literal(-5)))
          CFI (cfiCond303) ?RET_HIGH load(1, XDATA, add(CFA_XSP16, literal(-4)))
          CFI (cfiCond303) ?BRET_EXT load(1, XDATA, add(CFA_XSP16, literal(-3)))
          CFI (cfiCond303) DPL0 load(1, XDATA, add(CFA_XSP16, literal(-2)))
          CFI (cfiCond303) DPH0 load(1, XDATA, add(CFA_XSP16, literal(-1)))
          CFI (cfiCond303) CFA_SP SP+0
          CFI (cfiCond303) CFA_XSP16 add(XSP16, 32)
          CFI Block cfiCond304 Using cfiCommon0
          CFI (cfiCond304) Function ZDSecMgrAddLinkKey
          CFI (cfiCond304) Conditional ??CrossCallReturnLabel_164
          CFI (cfiCond304) R6 load(1, XDATA, add(CFA_XSP16, literal(-12)))
          CFI (cfiCond304) VB load(1, XDATA, add(CFA_XSP16, literal(-11)))
          CFI (cfiCond304) V0 load(1, XDATA, add(CFA_XSP16, literal(-10)))
          CFI (cfiCond304) V1 load(1, XDATA, add(CFA_XSP16, literal(-9)))
          CFI (cfiCond304) V2 load(1, XDATA, add(CFA_XSP16, literal(-8)))
          CFI (cfiCond304) V3 load(1, XDATA, add(CFA_XSP16, literal(-7)))
          CFI (cfiCond304) R7 load(1, XDATA, add(CFA_XSP16, literal(-6)))
          CFI (cfiCond304) ?RET_LOW load(1, XDATA, add(CFA_XSP16, literal(-5)))
          CFI (cfiCond304) ?RET_HIGH load(1, XDATA, add(CFA_XSP16, literal(-4)))
          CFI (cfiCond304) ?BRET_EXT load(1, XDATA, add(CFA_XSP16, literal(-3)))
          CFI (cfiCond304) DPL0 load(1, XDATA, add(CFA_XSP16, literal(-2)))
          CFI (cfiCond304) DPH0 load(1, XDATA, add(CFA_XSP16, literal(-1)))
          CFI (cfiCond304) CFA_SP SP+0
          CFI (cfiCond304) CFA_XSP16 add(XSP16, 16)
          CFI Block cfiCond305 Using cfiCommon0
          CFI (cfiCond305) Function ZDSecMgrSendNwkKey
          CFI (cfiCond305) Conditional ??CrossCallReturnLabel_165
          CFI (cfiCond305) R6 load(1, XDATA, add(CFA_XSP16, literal(-12)))
          CFI (cfiCond305) VB load(1, XDATA, add(CFA_XSP16, literal(-11)))
          CFI (cfiCond305) V0 load(1, XDATA, add(CFA_XSP16, literal(-10)))
          CFI (cfiCond305) V1 load(1, XDATA, add(CFA_XSP16, literal(-9)))
          CFI (cfiCond305) V2 load(1, XDATA, add(CFA_XSP16, literal(-8)))
          CFI (cfiCond305) V3 load(1, XDATA, add(CFA_XSP16, literal(-7)))
          CFI (cfiCond305) R7 load(1, XDATA, add(CFA_XSP16, literal(-6)))
          CFI (cfiCond305) ?RET_LOW load(1, XDATA, add(CFA_XSP16, literal(-5)))
          CFI (cfiCond305) ?RET_HIGH load(1, XDATA, add(CFA_XSP16, literal(-4)))
          CFI (cfiCond305) ?BRET_EXT load(1, XDATA, add(CFA_XSP16, literal(-3)))
          CFI (cfiCond305) DPL0 load(1, XDATA, add(CFA_XSP16, literal(-2)))
          CFI (cfiCond305) DPH0 load(1, XDATA, add(CFA_XSP16, literal(-1)))
          CFI (cfiCond305) CFA_SP SP+0
          CFI (cfiCond305) CFA_XSP16 add(XSP16, 25)
          CFI Block cfiCond306 Using cfiCommon0
          CFI (cfiCond306) Function ZDSecMgrEstablishKeyInd
          CFI (cfiCond306) Conditional ??CrossCallReturnLabel_166
          CFI (cfiCond306) R6 load(1, XDATA, add(CFA_XSP16, literal(-12)))
          CFI (cfiCond306) VB load(1, XDATA, add(CFA_XSP16, literal(-11)))
          CFI (cfiCond306) V0 load(1, XDATA, add(CFA_XSP16, literal(-10)))
          CFI (cfiCond306) V1 load(1, XDATA, add(CFA_XSP16, literal(-9)))
          CFI (cfiCond306) V2 load(1, XDATA, add(CFA_XSP16, literal(-8)))
          CFI (cfiCond306) V3 load(1, XDATA, add(CFA_XSP16, literal(-7)))
          CFI (cfiCond306) R7 load(1, XDATA, add(CFA_XSP16, literal(-6)))
          CFI (cfiCond306) ?RET_LOW load(1, XDATA, add(CFA_XSP16, literal(-5)))
          CFI (cfiCond306) ?RET_HIGH load(1, XDATA, add(CFA_XSP16, literal(-4)))
          CFI (cfiCond306) ?BRET_EXT load(1, XDATA, add(CFA_XSP16, literal(-3)))
          CFI (cfiCond306) DPL0 load(1, XDATA, add(CFA_XSP16, literal(-2)))
          CFI (cfiCond306) DPH0 load(1, XDATA, add(CFA_XSP16, literal(-1)))
          CFI (cfiCond306) CFA_SP SP+0
          CFI (cfiCond306) CFA_XSP16 add(XSP16, 29)
          CFI Block cfiCond307 Using cfiCommon0
          CFI (cfiCond307) Function ZDSecMgrNewDeviceEvent
          CFI (cfiCond307) Conditional ??CrossCallReturnLabel_167
          CFI (cfiCond307) R6 load(1, XDATA, add(CFA_XSP16, literal(-12)))
          CFI (cfiCond307) VB load(1, XDATA, add(CFA_XSP16, literal(-11)))
          CFI (cfiCond307) V0 load(1, XDATA, add(CFA_XSP16, literal(-10)))
          CFI (cfiCond307) V1 load(1, XDATA, add(CFA_XSP16, literal(-9)))
          CFI (cfiCond307) V2 load(1, XDATA, add(CFA_XSP16, literal(-8)))
          CFI (cfiCond307) V3 load(1, XDATA, add(CFA_XSP16, literal(-7)))
          CFI (cfiCond307) R7 load(1, XDATA, add(CFA_XSP16, literal(-6)))
          CFI (cfiCond307) ?RET_LOW load(1, XDATA, add(CFA_XSP16, literal(-5)))
          CFI (cfiCond307) ?RET_HIGH load(1, XDATA, add(CFA_XSP16, literal(-4)))
          CFI (cfiCond307) ?BRET_EXT load(1, XDATA, add(CFA_XSP16, literal(-3)))
          CFI (cfiCond307) DPL0 load(1, XDATA, add(CFA_XSP16, literal(-2)))
          CFI (cfiCond307) DPH0 load(1, XDATA, add(CFA_XSP16, literal(-1)))
          CFI (cfiCond307) CFA_SP SP+0
          CFI (cfiCond307) CFA_XSP16 add(XSP16, 35)
          CFI Block cfiCond308 Using cfiCommon0
          CFI (cfiCond308) Function ZDSecMgrEvent
          CFI (cfiCond308) Conditional ??CrossCallReturnLabel_168
          CFI (cfiCond308) R6 load(1, XDATA, add(CFA_XSP16, literal(-10)))
          CFI (cfiCond308) VB load(1, XDATA, add(CFA_XSP16, literal(-9)))
          CFI (cfiCond308) V0 load(1, XDATA, add(CFA_XSP16, literal(-8)))
          CFI (cfiCond308) V1 load(1, XDATA, add(CFA_XSP16, literal(-7)))
          CFI (cfiCond308) R7 load(1, XDATA, add(CFA_XSP16, literal(-6)))
          CFI (cfiCond308) ?RET_LOW load(1, XDATA, add(CFA_XSP16, literal(-5)))
          CFI (cfiCond308) ?RET_HIGH load(1, XDATA, add(CFA_XSP16, literal(-4)))
          CFI (cfiCond308) ?BRET_EXT load(1, XDATA, add(CFA_XSP16, literal(-3)))
          CFI (cfiCond308) DPL0 load(1, XDATA, add(CFA_XSP16, literal(-2)))
          CFI (cfiCond308) DPH0 load(1, XDATA, add(CFA_XSP16, literal(-1)))
          CFI (cfiCond308) CFA_SP SP+0
          CFI (cfiCond308) CFA_XSP16 add(XSP16, 33)
          CFI Block cfiCond309 Using cfiCommon0
          CFI (cfiCond309) Function ZDSecMgrUpdateDeviceInd
          CFI (cfiCond309) Conditional ??CrossCallReturnLabel_169
          CFI (cfiCond309) DPL0 Frame(CFA_SP, 4)
          CFI (cfiCond309) DPH0 Frame(CFA_SP, 5)
          CFI (cfiCond309) CFA_SP SP+-5
          CFI (cfiCond309) CFA_XSP16 add(XSP16, 10)
          CFI Block cfiCond310 Using cfiCommon0
          CFI (cfiCond310) Function ZDSecMgrAuthenticateInd
          CFI (cfiCond310) Conditional ??CrossCallReturnLabel_170
          CFI (cfiCond310) R6 load(1, XDATA, add(CFA_XSP16, literal(-12)))
          CFI (cfiCond310) VB load(1, XDATA, add(CFA_XSP16, literal(-11)))
          CFI (cfiCond310) V0 load(1, XDATA, add(CFA_XSP16, literal(-10)))
          CFI (cfiCond310) V1 load(1, XDATA, add(CFA_XSP16, literal(-9)))
          CFI (cfiCond310) V2 load(1, XDATA, add(CFA_XSP16, literal(-8)))
          CFI (cfiCond310) V3 load(1, XDATA, add(CFA_XSP16, literal(-7)))
          CFI (cfiCond310) R7 load(1, XDATA, add(CFA_XSP16, literal(-6)))
          CFI (cfiCond310) ?RET_LOW load(1, XDATA, add(CFA_XSP16, literal(-5)))
          CFI (cfiCond310) ?RET_HIGH load(1, XDATA, add(CFA_XSP16, literal(-4)))
          CFI (cfiCond310) ?BRET_EXT load(1, XDATA, add(CFA_XSP16, literal(-3)))
          CFI (cfiCond310) DPL0 load(1, XDATA, add(CFA_XSP16, literal(-2)))
          CFI (cfiCond310) DPH0 load(1, XDATA, add(CFA_XSP16, literal(-1)))
          CFI (cfiCond310) CFA_SP SP+0
          CFI (cfiCond310) CFA_XSP16 add(XSP16, 32)
          CFI Block cfiPicker311 Using cfiCommon1
          CFI (cfiPicker311) NoFunction
          CFI (cfiPicker311) Picker
        LCALL   ?Subroutine71 & 0xFFFF
??CrossCallReturnLabel_201:
        RET
          CFI EndBlock cfiCond291
          CFI EndBlock cfiCond292
          CFI EndBlock cfiCond293
          CFI EndBlock cfiCond294
          CFI EndBlock cfiCond295
          CFI EndBlock cfiCond296
          CFI EndBlock cfiCond297
          CFI EndBlock cfiCond298
          CFI EndBlock cfiCond299
          CFI EndBlock cfiCond300
          CFI EndBlock cfiCond301
          CFI EndBlock cfiCond302
          CFI EndBlock cfiCond303
          CFI EndBlock cfiCond304
          CFI EndBlock cfiCond305
          CFI EndBlock cfiCond306
          CFI EndBlock cfiCond307
          CFI EndBlock cfiCond308
          CFI EndBlock cfiCond309
          CFI EndBlock cfiCond310
          CFI EndBlock cfiPicker311

        RSEG BANKED_CODE:CODE:NOROOT(0)
?Subroutine71:
          CFI Block cfiCond312 Using cfiCommon0
          CFI Function ZDSecMgrAddrStore
          CFI Conditional ??CrossCallReturnLabel_198, ??CrossCallReturnLabel_80, ??CrossCallReturnLabel_27
          CFI R6 load(1, XDATA, add(CFA_XSP16, literal(-9)))
          CFI VB load(1, XDATA, add(CFA_XSP16, literal(-8)))
          CFI V0 load(1, XDATA, add(CFA_XSP16, literal(-7)))
          CFI R7 load(1, XDATA, add(CFA_XSP16, literal(-6)))
          CFI ?RET_LOW load(1, XDATA, add(CFA_XSP16, literal(-5)))
          CFI ?RET_HIGH load(1, XDATA, add(CFA_XSP16, literal(-4)))
          CFI ?BRET_EXT load(1, XDATA, add(CFA_XSP16, literal(-3)))
          CFI DPL0 load(1, XDATA, add(CFA_XSP16, literal(-2)))
          CFI DPH0 load(1, XDATA, add(CFA_XSP16, literal(-1)))
          CFI CFA_SP SP+0
          CFI CFA_XSP16 add(XSP16, 22)
          CFI Block cfiCond313 Using cfiCommon0
          CFI (cfiCond313) Function ZDSecMgrExtAddrStore
          CFI (cfiCond313) Conditional ??CrossCallReturnLabel_198, ??CrossCallReturnLabel_80, ??CrossCallReturnLabel_28
          CFI (cfiCond313) R6 load(1, XDATA, add(CFA_XSP16, literal(-9)))
          CFI (cfiCond313) VB load(1, XDATA, add(CFA_XSP16, literal(-8)))
          CFI (cfiCond313) V0 load(1, XDATA, add(CFA_XSP16, literal(-7)))
          CFI (cfiCond313) R7 load(1, XDATA, add(CFA_XSP16, literal(-6)))
          CFI (cfiCond313) ?RET_LOW load(1, XDATA, add(CFA_XSP16, literal(-5)))
          CFI (cfiCond313) ?RET_HIGH load(1, XDATA, add(CFA_XSP16, literal(-4)))
          CFI (cfiCond313) ?BRET_EXT load(1, XDATA, add(CFA_XSP16, literal(-3)))
          CFI (cfiCond313) DPL0 load(1, XDATA, add(CFA_XSP16, literal(-2)))
          CFI (cfiCond313) DPH0 load(1, XDATA, add(CFA_XSP16, literal(-1)))
          CFI (cfiCond313) CFA_SP SP+0
          CFI (cfiCond313) CFA_XSP16 add(XSP16, 22)
          CFI Block cfiCond314 Using cfiCommon0
          CFI (cfiCond314) Function ZDSecMgrExtAddrLookup
          CFI (cfiCond314) Conditional ??CrossCallReturnLabel_198, ??CrossCallReturnLabel_80, ??CrossCallReturnLabel_29
          CFI (cfiCond314) R6 load(1, XDATA, add(CFA_XSP16, literal(-9)))
          CFI (cfiCond314) VB load(1, XDATA, add(CFA_XSP16, literal(-8)))
          CFI (cfiCond314) V0 load(1, XDATA, add(CFA_XSP16, literal(-7)))
          CFI (cfiCond314) R7 load(1, XDATA, add(CFA_XSP16, literal(-6)))
          CFI (cfiCond314) ?RET_LOW load(1, XDATA, add(CFA_XSP16, literal(-5)))
          CFI (cfiCond314) ?RET_HIGH load(1, XDATA, add(CFA_XSP16, literal(-4)))
          CFI (cfiCond314) ?BRET_EXT load(1, XDATA, add(CFA_XSP16, literal(-3)))
          CFI (cfiCond314) DPL0 load(1, XDATA, add(CFA_XSP16, literal(-2)))
          CFI (cfiCond314) DPH0 load(1, XDATA, add(CFA_XSP16, literal(-1)))
          CFI (cfiCond314) CFA_SP SP+0
          CFI (cfiCond314) CFA_XSP16 add(XSP16, 22)
          CFI Block cfiCond315 Using cfiCommon0
          CFI (cfiCond315) Function ZDSecMgrAddrStore
          CFI (cfiCond315) Conditional ??CrossCallReturnLabel_198, ??CrossCallReturnLabel_79, ??CrossCallReturnLabel_24
          CFI (cfiCond315) R6 load(1, XDATA, add(CFA_XSP16, literal(-9)))
          CFI (cfiCond315) VB load(1, XDATA, add(CFA_XSP16, literal(-8)))
          CFI (cfiCond315) V0 load(1, XDATA, add(CFA_XSP16, literal(-7)))
          CFI (cfiCond315) R7 load(1, XDATA, add(CFA_XSP16, literal(-6)))
          CFI (cfiCond315) ?RET_LOW load(1, XDATA, add(CFA_XSP16, literal(-5)))
          CFI (cfiCond315) ?RET_HIGH load(1, XDATA, add(CFA_XSP16, literal(-4)))
          CFI (cfiCond315) ?BRET_EXT load(1, XDATA, add(CFA_XSP16, literal(-3)))
          CFI (cfiCond315) DPL0 load(1, XDATA, add(CFA_XSP16, literal(-2)))
          CFI (cfiCond315) DPH0 load(1, XDATA, add(CFA_XSP16, literal(-1)))
          CFI (cfiCond315) CFA_SP SP+0
          CFI (cfiCond315) CFA_XSP16 add(XSP16, 22)
          CFI Block cfiCond316 Using cfiCommon0
          CFI (cfiCond316) Function ZDSecMgrExtAddrStore
          CFI (cfiCond316) Conditional ??CrossCallReturnLabel_198, ??CrossCallReturnLabel_79, ??CrossCallReturnLabel_25
          CFI (cfiCond316) R6 load(1, XDATA, add(CFA_XSP16, literal(-9)))
          CFI (cfiCond316) VB load(1, XDATA, add(CFA_XSP16, literal(-8)))
          CFI (cfiCond316) V0 load(1, XDATA, add(CFA_XSP16, literal(-7)))
          CFI (cfiCond316) R7 load(1, XDATA, add(CFA_XSP16, literal(-6)))
          CFI (cfiCond316) ?RET_LOW load(1, XDATA, add(CFA_XSP16, literal(-5)))
          CFI (cfiCond316) ?RET_HIGH load(1, XDATA, add(CFA_XSP16, literal(-4)))
          CFI (cfiCond316) ?BRET_EXT load(1, XDATA, add(CFA_XSP16, literal(-3)))
          CFI (cfiCond316) DPL0 load(1, XDATA, add(CFA_XSP16, literal(-2)))
          CFI (cfiCond316) DPH0 load(1, XDATA, add(CFA_XSP16, literal(-1)))
          CFI (cfiCond316) CFA_SP SP+0
          CFI (cfiCond316) CFA_XSP16 add(XSP16, 22)
          CFI Block cfiCond317 Using cfiCommon0
          CFI (cfiCond317) Function ZDSecMgrExtAddrLookup
          CFI (cfiCond317) Conditional ??CrossCallReturnLabel_198, ??CrossCallReturnLabel_79, ??CrossCallReturnLabel_26
          CFI (cfiCond317) R6 load(1, XDATA, add(CFA_XSP16, literal(-9)))
          CFI (cfiCond317) VB load(1, XDATA, add(CFA_XSP16, literal(-8)))
          CFI (cfiCond317) V0 load(1, XDATA, add(CFA_XSP16, literal(-7)))
          CFI (cfiCond317) R7 load(1, XDATA, add(CFA_XSP16, literal(-6)))
          CFI (cfiCond317) ?RET_LOW load(1, XDATA, add(CFA_XSP16, literal(-5)))
          CFI (cfiCond317) ?RET_HIGH load(1, XDATA, add(CFA_XSP16, literal(-4)))
          CFI (cfiCond317) ?BRET_EXT load(1, XDATA, add(CFA_XSP16, literal(-3)))
          CFI (cfiCond317) DPL0 load(1, XDATA, add(CFA_XSP16, literal(-2)))
          CFI (cfiCond317) DPH0 load(1, XDATA, add(CFA_XSP16, literal(-1)))
          CFI (cfiCond317) CFA_SP SP+0
          CFI (cfiCond317) CFA_XSP16 add(XSP16, 22)
          CFI Block cfiCond318 Using cfiCommon0
          CFI (cfiCond318) Function ZDSecMgrMasterKeyLookup
          CFI (cfiCond318) Conditional ??CrossCallReturnLabel_199, ??CrossCallReturnLabel_95
          CFI (cfiCond318) R6 load(1, XDATA, add(CFA_XSP16, literal(-10)))
          CFI (cfiCond318) VB load(1, XDATA, add(CFA_XSP16, literal(-9)))
          CFI (cfiCond318) V0 load(1, XDATA, add(CFA_XSP16, literal(-8)))
          CFI (cfiCond318) V1 load(1, XDATA, add(CFA_XSP16, literal(-7)))
          CFI (cfiCond318) R7 load(1, XDATA, add(CFA_XSP16, literal(-6)))
          CFI (cfiCond318) ?RET_LOW load(1, XDATA, add(CFA_XSP16, literal(-5)))
          CFI (cfiCond318) ?RET_HIGH load(1, XDATA, add(CFA_XSP16, literal(-4)))
          CFI (cfiCond318) ?BRET_EXT load(1, XDATA, add(CFA_XSP16, literal(-3)))
          CFI (cfiCond318) DPL0 load(1, XDATA, add(CFA_XSP16, literal(-2)))
          CFI (cfiCond318) DPH0 load(1, XDATA, add(CFA_XSP16, literal(-1)))
          CFI (cfiCond318) CFA_SP SP+0
          CFI (cfiCond318) CFA_XSP16 add(XSP16, 10)
          CFI Block cfiCond319 Using cfiCommon0
          CFI (cfiCond319) Function ZDSecMgrEntryLookupAMI
          CFI (cfiCond319) Conditional ??CrossCallReturnLabel_199, ??CrossCallReturnLabel_96
          CFI (cfiCond319) R6 load(1, XDATA, add(CFA_XSP16, literal(-10)))
          CFI (cfiCond319) VB load(1, XDATA, add(CFA_XSP16, literal(-9)))
          CFI (cfiCond319) V0 load(1, XDATA, add(CFA_XSP16, literal(-8)))
          CFI (cfiCond319) V1 load(1, XDATA, add(CFA_XSP16, literal(-7)))
          CFI (cfiCond319) R7 load(1, XDATA, add(CFA_XSP16, literal(-6)))
          CFI (cfiCond319) ?RET_LOW load(1, XDATA, add(CFA_XSP16, literal(-5)))
          CFI (cfiCond319) ?RET_HIGH load(1, XDATA, add(CFA_XSP16, literal(-4)))
          CFI (cfiCond319) ?BRET_EXT load(1, XDATA, add(CFA_XSP16, literal(-3)))
          CFI (cfiCond319) DPL0 load(1, XDATA, add(CFA_XSP16, literal(-2)))
          CFI (cfiCond319) DPH0 load(1, XDATA, add(CFA_XSP16, literal(-1)))
          CFI (cfiCond319) CFA_SP SP+0
          CFI (cfiCond319) CFA_XSP16 add(XSP16, 10)
          CFI Block cfiCond320 Using cfiCommon0
          CFI (cfiCond320) Function ZDSecMgrEntryLookup
          CFI (cfiCond320) Conditional ??CrossCallReturnLabel_199, ??CrossCallReturnLabel_97
          CFI (cfiCond320) R6 load(1, XDATA, add(CFA_XSP16, literal(-10)))
          CFI (cfiCond320) VB load(1, XDATA, add(CFA_XSP16, literal(-9)))
          CFI (cfiCond320) V0 load(1, XDATA, add(CFA_XSP16, literal(-8)))
          CFI (cfiCond320) V1 load(1, XDATA, add(CFA_XSP16, literal(-7)))
          CFI (cfiCond320) R7 load(1, XDATA, add(CFA_XSP16, literal(-6)))
          CFI (cfiCond320) ?RET_LOW load(1, XDATA, add(CFA_XSP16, literal(-5)))
          CFI (cfiCond320) ?RET_HIGH load(1, XDATA, add(CFA_XSP16, literal(-4)))
          CFI (cfiCond320) ?BRET_EXT load(1, XDATA, add(CFA_XSP16, literal(-3)))
          CFI (cfiCond320) DPL0 load(1, XDATA, add(CFA_XSP16, literal(-2)))
          CFI (cfiCond320) DPH0 load(1, XDATA, add(CFA_XSP16, literal(-1)))
          CFI (cfiCond320) CFA_SP SP+0
          CFI (cfiCond320) CFA_XSP16 add(XSP16, 23)
          CFI Block cfiCond321 Using cfiCommon0
          CFI (cfiCond321) Function ZDSecMgrEstablishKey
          CFI (cfiCond321) Conditional ??CrossCallReturnLabel_200, ??CrossCallReturnLabel_101
          CFI (cfiCond321) R6 load(1, XDATA, add(CFA_XSP16, literal(-10)))
          CFI (cfiCond321) VB load(1, XDATA, add(CFA_XSP16, literal(-9)))
          CFI (cfiCond321) V0 load(1, XDATA, add(CFA_XSP16, literal(-8)))
          CFI (cfiCond321) V1 load(1, XDATA, add(CFA_XSP16, literal(-7)))
          CFI (cfiCond321) R7 load(1, XDATA, add(CFA_XSP16, literal(-6)))
          CFI (cfiCond321) ?RET_LOW load(1, XDATA, add(CFA_XSP16, literal(-5)))
          CFI (cfiCond321) ?RET_HIGH load(1, XDATA, add(CFA_XSP16, literal(-4)))
          CFI (cfiCond321) ?BRET_EXT load(1, XDATA, add(CFA_XSP16, literal(-3)))
          CFI (cfiCond321) DPL0 load(1, XDATA, add(CFA_XSP16, literal(-2)))
          CFI (cfiCond321) DPH0 load(1, XDATA, add(CFA_XSP16, literal(-1)))
          CFI (cfiCond321) CFA_SP SP+0
          CFI (cfiCond321) CFA_XSP16 add(XSP16, 17)
          CFI Block cfiCond322 Using cfiCommon0
          CFI (cfiCond322) Function ZDSecMgrEstablishKey
          CFI (cfiCond322) Conditional ??CrossCallReturnLabel_200, ??CrossCallReturnLabel_102
          CFI (cfiCond322) R6 load(1, XDATA, add(CFA_XSP16, literal(-10)))
          CFI (cfiCond322) VB load(1, XDATA, add(CFA_XSP16, literal(-9)))
          CFI (cfiCond322) V0 load(1, XDATA, add(CFA_XSP16, literal(-8)))
          CFI (cfiCond322) V1 load(1, XDATA, add(CFA_XSP16, literal(-7)))
          CFI (cfiCond322) R7 load(1, XDATA, add(CFA_XSP16, literal(-6)))
          CFI (cfiCond322) ?RET_LOW load(1, XDATA, add(CFA_XSP16, literal(-5)))
          CFI (cfiCond322) ?RET_HIGH load(1, XDATA, add(CFA_XSP16, literal(-4)))
          CFI (cfiCond322) ?BRET_EXT load(1, XDATA, add(CFA_XSP16, literal(-3)))
          CFI (cfiCond322) DPL0 load(1, XDATA, add(CFA_XSP16, literal(-2)))
          CFI (cfiCond322) DPH0 load(1, XDATA, add(CFA_XSP16, literal(-1)))
          CFI (cfiCond322) CFA_SP SP+0
          CFI (cfiCond322) CFA_XSP16 add(XSP16, 17)
          CFI Block cfiCond323 Using cfiCommon0
          CFI (cfiCond323) Function ZDSecMgrDeviceRemove
          CFI (cfiCond323) Conditional ??CrossCallReturnLabel_200, ??CrossCallReturnLabel_103
          CFI (cfiCond323) R6 load(1, XDATA, add(CFA_XSP16, literal(-10)))
          CFI (cfiCond323) VB load(1, XDATA, add(CFA_XSP16, literal(-9)))
          CFI (cfiCond323) V0 load(1, XDATA, add(CFA_XSP16, literal(-8)))
          CFI (cfiCond323) V1 load(1, XDATA, add(CFA_XSP16, literal(-7)))
          CFI (cfiCond323) R7 load(1, XDATA, add(CFA_XSP16, literal(-6)))
          CFI (cfiCond323) ?RET_LOW load(1, XDATA, add(CFA_XSP16, literal(-5)))
          CFI (cfiCond323) ?RET_HIGH load(1, XDATA, add(CFA_XSP16, literal(-4)))
          CFI (cfiCond323) ?BRET_EXT load(1, XDATA, add(CFA_XSP16, literal(-3)))
          CFI (cfiCond323) DPL0 load(1, XDATA, add(CFA_XSP16, literal(-2)))
          CFI (cfiCond323) DPH0 load(1, XDATA, add(CFA_XSP16, literal(-1)))
          CFI (cfiCond323) CFA_SP SP+0
          CFI (cfiCond323) CFA_XSP16 add(XSP16, 19)
          CFI Block cfiCond324 Using cfiCommon0
          CFI (cfiCond324) Function ZDSecMgrNewDeviceEvent
          CFI (cfiCond324) Conditional ??CrossCallReturnLabel_201, ??CrossCallReturnLabel_167
          CFI (cfiCond324) R6 load(1, XDATA, add(CFA_XSP16, literal(-12)))
          CFI (cfiCond324) VB load(1, XDATA, add(CFA_XSP16, literal(-11)))
          CFI (cfiCond324) V0 load(1, XDATA, add(CFA_XSP16, literal(-10)))
          CFI (cfiCond324) V1 load(1, XDATA, add(CFA_XSP16, literal(-9)))
          CFI (cfiCond324) V2 load(1, XDATA, add(CFA_XSP16, literal(-8)))
          CFI (cfiCond324) V3 load(1, XDATA, add(CFA_XSP16, literal(-7)))
          CFI (cfiCond324) R7 load(1, XDATA, add(CFA_XSP16, literal(-6)))
          CFI (cfiCond324) ?RET_LOW load(1, XDATA, add(CFA_XSP16, literal(-5)))
          CFI (cfiCond324) ?RET_HIGH load(1, XDATA, add(CFA_XSP16, literal(-4)))
          CFI (cfiCond324) ?BRET_EXT load(1, XDATA, add(CFA_XSP16, literal(-3)))
          CFI (cfiCond324) DPL0 load(1, XDATA, add(CFA_XSP16, literal(-2)))
          CFI (cfiCond324) DPH0 load(1, XDATA, add(CFA_XSP16, literal(-1)))
          CFI (cfiCond324) CFA_SP SP+0
          CFI (cfiCond324) CFA_XSP16 add(XSP16, 35)
          CFI Block cfiCond325 Using cfiCommon0
          CFI (cfiCond325) Function ZDSecMgrEvent
          CFI (cfiCond325) Conditional ??CrossCallReturnLabel_201, ??CrossCallReturnLabel_168
          CFI (cfiCond325) R6 load(1, XDATA, add(CFA_XSP16, literal(-10)))
          CFI (cfiCond325) VB load(1, XDATA, add(CFA_XSP16, literal(-9)))
          CFI (cfiCond325) V0 load(1, XDATA, add(CFA_XSP16, literal(-8)))
          CFI (cfiCond325) V1 load(1, XDATA, add(CFA_XSP16, literal(-7)))
          CFI (cfiCond325) R7 load(1, XDATA, add(CFA_XSP16, literal(-6)))
          CFI (cfiCond325) ?RET_LOW load(1, XDATA, add(CFA_XSP16, literal(-5)))
          CFI (cfiCond325) ?RET_HIGH load(1, XDATA, add(CFA_XSP16, literal(-4)))
          CFI (cfiCond325) ?BRET_EXT load(1, XDATA, add(CFA_XSP16, literal(-3)))
          CFI (cfiCond325) DPL0 load(1, XDATA, add(CFA_XSP16, literal(-2)))
          CFI (cfiCond325) DPH0 load(1, XDATA, add(CFA_XSP16, literal(-1)))
          CFI (cfiCond325) CFA_SP SP+0
          CFI (cfiCond325) CFA_XSP16 add(XSP16, 33)
          CFI Block cfiCond326 Using cfiCommon0
          CFI (cfiCond326) Function ZDSecMgrUpdateDeviceInd
          CFI (cfiCond326) Conditional ??CrossCallReturnLabel_201, ??CrossCallReturnLabel_169
          CFI (cfiCond326) DPL0 Frame(CFA_SP, 4)
          CFI (cfiCond326) DPH0 Frame(CFA_SP, 5)
          CFI (cfiCond326) CFA_SP SP+-5
          CFI (cfiCond326) CFA_XSP16 add(XSP16, 10)
          CFI Block cfiCond327 Using cfiCommon0
          CFI (cfiCond327) Function ZDSecMgrAuthenticateInd
          CFI (cfiCond327) Conditional ??CrossCallReturnLabel_201, ??CrossCallReturnLabel_170
          CFI (cfiCond327) R6 load(1, XDATA, add(CFA_XSP16, literal(-12)))
          CFI (cfiCond327) VB load(1, XDATA, add(CFA_XSP16, literal(-11)))
          CFI (cfiCond327) V0 load(1, XDATA, add(CFA_XSP16, literal(-10)))
          CFI (cfiCond327) V1 load(1, XDATA, add(CFA_XSP16, literal(-9)))
          CFI (cfiCond327) V2 load(1, XDATA, add(CFA_XSP16, literal(-8)))
          CFI (cfiCond327) V3 load(1, XDATA, add(CFA_XSP16, literal(-7)))
          CFI (cfiCond327) R7 load(1, XDATA, add(CFA_XSP16, literal(-6)))
          CFI (cfiCond327) ?RET_LOW load(1, XDATA, add(CFA_XSP16, literal(-5)))
          CFI (cfiCond327) ?RET_HIGH load(1, XDATA, add(CFA_XSP16, literal(-4)))
          CFI (cfiCond327) ?BRET_EXT load(1, XDATA, add(CFA_XSP16, literal(-3)))
          CFI (cfiCond327) DPL0 load(1, XDATA, add(CFA_XSP16, literal(-2)))
          CFI (cfiCond327) DPH0 load(1, XDATA, add(CFA_XSP16, literal(-1)))
          CFI (cfiCond327) CFA_SP SP+0
          CFI (cfiCond327) CFA_XSP16 add(XSP16, 32)
          CFI Block cfiCond328 Using cfiCommon0
          CFI (cfiCond328) Function ZDSecMgrSendNwkKey
          CFI (cfiCond328) Conditional ??CrossCallReturnLabel_201, ??CrossCallReturnLabel_165
          CFI (cfiCond328) R6 load(1, XDATA, add(CFA_XSP16, literal(-12)))
          CFI (cfiCond328) VB load(1, XDATA, add(CFA_XSP16, literal(-11)))
          CFI (cfiCond328) V0 load(1, XDATA, add(CFA_XSP16, literal(-10)))
          CFI (cfiCond328) V1 load(1, XDATA, add(CFA_XSP16, literal(-9)))
          CFI (cfiCond328) V2 load(1, XDATA, add(CFA_XSP16, literal(-8)))
          CFI (cfiCond328) V3 load(1, XDATA, add(CFA_XSP16, literal(-7)))
          CFI (cfiCond328) R7 load(1, XDATA, add(CFA_XSP16, literal(-6)))
          CFI (cfiCond328) ?RET_LOW load(1, XDATA, add(CFA_XSP16, literal(-5)))
          CFI (cfiCond328) ?RET_HIGH load(1, XDATA, add(CFA_XSP16, literal(-4)))
          CFI (cfiCond328) ?BRET_EXT load(1, XDATA, add(CFA_XSP16, literal(-3)))
          CFI (cfiCond328) DPL0 load(1, XDATA, add(CFA_XSP16, literal(-2)))
          CFI (cfiCond328) DPH0 load(1, XDATA, add(CFA_XSP16, literal(-1)))
          CFI (cfiCond328) CFA_SP SP+0
          CFI (cfiCond328) CFA_XSP16 add(XSP16, 25)
          CFI Block cfiCond329 Using cfiCommon0
          CFI (cfiCond329) Function ZDSecMgrEstablishKeyInd
          CFI (cfiCond329) Conditional ??CrossCallReturnLabel_201, ??CrossCallReturnLabel_166
          CFI (cfiCond329) R6 load(1, XDATA, add(CFA_XSP16, literal(-12)))
          CFI (cfiCond329) VB load(1, XDATA, add(CFA_XSP16, literal(-11)))
          CFI (cfiCond329) V0 load(1, XDATA, add(CFA_XSP16, literal(-10)))
          CFI (cfiCond329) V1 load(1, XDATA, add(CFA_XSP16, literal(-9)))
          CFI (cfiCond329) V2 load(1, XDATA, add(CFA_XSP16, literal(-8)))
          CFI (cfiCond329) V3 load(1, XDATA, add(CFA_XSP16, literal(-7)))
          CFI (cfiCond329) R7 load(1, XDATA, add(CFA_XSP16, literal(-6)))
          CFI (cfiCond329) ?RET_LOW load(1, XDATA, add(CFA_XSP16, literal(-5)))
          CFI (cfiCond329) ?RET_HIGH load(1, XDATA, add(CFA_XSP16, literal(-4)))
          CFI (cfiCond329) ?BRET_EXT load(1, XDATA, add(CFA_XSP16, literal(-3)))
          CFI (cfiCond329) DPL0 load(1, XDATA, add(CFA_XSP16, literal(-2)))
          CFI (cfiCond329) DPH0 load(1, XDATA, add(CFA_XSP16, literal(-1)))
          CFI (cfiCond329) CFA_SP SP+0
          CFI (cfiCond329) CFA_XSP16 add(XSP16, 29)
          CFI Block cfiCond330 Using cfiCommon0
          CFI (cfiCond330) Function ZDSecMgrCtrlLookup
          CFI (cfiCond330) Conditional ??CrossCallReturnLabel_201, ??CrossCallReturnLabel_151
          CFI (cfiCond330) R6 load(1, XDATA, add(CFA_XSP16, literal(-10)))
          CFI (cfiCond330) VB load(1, XDATA, add(CFA_XSP16, literal(-9)))
          CFI (cfiCond330) V0 load(1, XDATA, add(CFA_XSP16, literal(-8)))
          CFI (cfiCond330) V1 load(1, XDATA, add(CFA_XSP16, literal(-7)))
          CFI (cfiCond330) R7 load(1, XDATA, add(CFA_XSP16, literal(-6)))
          CFI (cfiCond330) ?RET_LOW load(1, XDATA, add(CFA_XSP16, literal(-5)))
          CFI (cfiCond330) ?RET_HIGH load(1, XDATA, add(CFA_XSP16, literal(-4)))
          CFI (cfiCond330) ?BRET_EXT load(1, XDATA, add(CFA_XSP16, literal(-3)))
          CFI (cfiCond330) DPL0 load(1, XDATA, add(CFA_XSP16, literal(-2)))
          CFI (cfiCond330) DPH0 load(1, XDATA, add(CFA_XSP16, literal(-1)))
          CFI (cfiCond330) CFA_SP SP+0
          CFI (cfiCond330) CFA_XSP16 add(XSP16, 10)
          CFI Block cfiCond331 Using cfiCommon0
          CFI (cfiCond331) Function ZDSecMgrCtrlSet
          CFI (cfiCond331) Conditional ??CrossCallReturnLabel_201, ??CrossCallReturnLabel_152
          CFI (cfiCond331) R6 load(1, XDATA, add(CFA_XSP16, literal(-9)))
          CFI (cfiCond331) VB load(1, XDATA, add(CFA_XSP16, literal(-8)))
          CFI (cfiCond331) V0 load(1, XDATA, add(CFA_XSP16, literal(-7)))
          CFI (cfiCond331) R7 load(1, XDATA, add(CFA_XSP16, literal(-6)))
          CFI (cfiCond331) ?RET_LOW load(1, XDATA, add(CFA_XSP16, literal(-5)))
          CFI (cfiCond331) ?RET_HIGH load(1, XDATA, add(CFA_XSP16, literal(-4)))
          CFI (cfiCond331) ?BRET_EXT load(1, XDATA, add(CFA_XSP16, literal(-3)))
          CFI (cfiCond331) DPL0 load(1, XDATA, add(CFA_XSP16, literal(-2)))
          CFI (cfiCond331) DPH0 load(1, XDATA, add(CFA_XSP16, literal(-1)))
          CFI (cfiCond331) CFA_SP SP+0
          CFI (cfiCond331) CFA_XSP16 add(XSP16, 9)
          CFI Block cfiCond332 Using cfiCommon0
          CFI (cfiCond332) Function ZDSecMgrAppKeyReq
          CFI (cfiCond332) Conditional ??CrossCallReturnLabel_201, ??CrossCallReturnLabel_153
          CFI (cfiCond332) R6 load(1, XDATA, add(CFA_XSP16, literal(-10)))
          CFI (cfiCond332) VB load(1, XDATA, add(CFA_XSP16, literal(-9)))
          CFI (cfiCond332) V0 load(1, XDATA, add(CFA_XSP16, literal(-8)))
          CFI (cfiCond332) V1 load(1, XDATA, add(CFA_XSP16, literal(-7)))
          CFI (cfiCond332) R7 load(1, XDATA, add(CFA_XSP16, literal(-6)))
          CFI (cfiCond332) ?RET_LOW load(1, XDATA, add(CFA_XSP16, literal(-5)))
          CFI (cfiCond332) ?RET_HIGH load(1, XDATA, add(CFA_XSP16, literal(-4)))
          CFI (cfiCond332) ?BRET_EXT load(1, XDATA, add(CFA_XSP16, literal(-3)))
          CFI (cfiCond332) DPL0 load(1, XDATA, add(CFA_XSP16, literal(-2)))
          CFI (cfiCond332) DPH0 load(1, XDATA, add(CFA_XSP16, literal(-1)))
          CFI (cfiCond332) CFA_SP SP+0
          CFI (cfiCond332) CFA_XSP16 add(XSP16, 49)
          CFI Block cfiCond333 Using cfiCommon0
          CFI (cfiCond333) Function ZDSecMgrAppKeyReq
          CFI (cfiCond333) Conditional ??CrossCallReturnLabel_201, ??CrossCallReturnLabel_154
          CFI (cfiCond333) R6 load(1, XDATA, add(CFA_XSP16, literal(-10)))
          CFI (cfiCond333) VB load(1, XDATA, add(CFA_XSP16, literal(-9)))
          CFI (cfiCond333) V0 load(1, XDATA, add(CFA_XSP16, literal(-8)))
          CFI (cfiCond333) V1 load(1, XDATA, add(CFA_XSP16, literal(-7)))
          CFI (cfiCond333) R7 load(1, XDATA, add(CFA_XSP16, literal(-6)))
          CFI (cfiCond333) ?RET_LOW load(1, XDATA, add(CFA_XSP16, literal(-5)))
          CFI (cfiCond333) ?RET_HIGH load(1, XDATA, add(CFA_XSP16, literal(-4)))
          CFI (cfiCond333) ?BRET_EXT load(1, XDATA, add(CFA_XSP16, literal(-3)))
          CFI (cfiCond333) DPL0 load(1, XDATA, add(CFA_XSP16, literal(-2)))
          CFI (cfiCond333) DPH0 load(1, XDATA, add(CFA_XSP16, literal(-1)))
          CFI (cfiCond333) CFA_SP SP+0
          CFI (cfiCond333) CFA_XSP16 add(XSP16, 49)
          CFI Block cfiCond334 Using cfiCommon0
          CFI (cfiCond334) Function ZDSecMgrAppKeyReq
          CFI (cfiCond334) Conditional ??CrossCallReturnLabel_201, ??CrossCallReturnLabel_155
          CFI (cfiCond334) R6 load(1, XDATA, add(CFA_XSP16, literal(-10)))
          CFI (cfiCond334) VB load(1, XDATA, add(CFA_XSP16, literal(-9)))
          CFI (cfiCond334) V0 load(1, XDATA, add(CFA_XSP16, literal(-8)))
          CFI (cfiCond334) V1 load(1, XDATA, add(CFA_XSP16, literal(-7)))
          CFI (cfiCond334) R7 load(1, XDATA, add(CFA_XSP16, literal(-6)))
          CFI (cfiCond334) ?RET_LOW load(1, XDATA, add(CFA_XSP16, literal(-5)))
          CFI (cfiCond334) ?RET_HIGH load(1, XDATA, add(CFA_XSP16, literal(-4)))
          CFI (cfiCond334) ?BRET_EXT load(1, XDATA, add(CFA_XSP16, literal(-3)))
          CFI (cfiCond334) DPL0 load(1, XDATA, add(CFA_XSP16, literal(-2)))
          CFI (cfiCond334) DPH0 load(1, XDATA, add(CFA_XSP16, literal(-1)))
          CFI (cfiCond334) CFA_SP SP+0
          CFI (cfiCond334) CFA_XSP16 add(XSP16, 49)
          CFI Block cfiCond335 Using cfiCommon0
          CFI (cfiCond335) Function ZDSecMgrEstablishKey
          CFI (cfiCond335) Conditional ??CrossCallReturnLabel_201, ??CrossCallReturnLabel_156
          CFI (cfiCond335) R6 load(1, XDATA, add(CFA_XSP16, literal(-10)))
          CFI (cfiCond335) VB load(1, XDATA, add(CFA_XSP16, literal(-9)))
          CFI (cfiCond335) V0 load(1, XDATA, add(CFA_XSP16, literal(-8)))
          CFI (cfiCond335) V1 load(1, XDATA, add(CFA_XSP16, literal(-7)))
          CFI (cfiCond335) R7 load(1, XDATA, add(CFA_XSP16, literal(-6)))
          CFI (cfiCond335) ?RET_LOW load(1, XDATA, add(CFA_XSP16, literal(-5)))
          CFI (cfiCond335) ?RET_HIGH load(1, XDATA, add(CFA_XSP16, literal(-4)))
          CFI (cfiCond335) ?BRET_EXT load(1, XDATA, add(CFA_XSP16, literal(-3)))
          CFI (cfiCond335) DPL0 load(1, XDATA, add(CFA_XSP16, literal(-2)))
          CFI (cfiCond335) DPH0 load(1, XDATA, add(CFA_XSP16, literal(-1)))
          CFI (cfiCond335) CFA_SP SP+0
          CFI (cfiCond335) CFA_XSP16 add(XSP16, 17)
          CFI Block cfiCond336 Using cfiCommon0
          CFI (cfiCond336) Function ZDSecMgrSendMasterKey
          CFI (cfiCond336) Conditional ??CrossCallReturnLabel_201, ??CrossCallReturnLabel_157
          CFI (cfiCond336) R6 load(1, XDATA, add(CFA_XSP16, literal(-10)))
          CFI (cfiCond336) VB load(1, XDATA, add(CFA_XSP16, literal(-9)))
          CFI (cfiCond336) V0 load(1, XDATA, add(CFA_XSP16, literal(-8)))
          CFI (cfiCond336) V1 load(1, XDATA, add(CFA_XSP16, literal(-7)))
          CFI (cfiCond336) R7 load(1, XDATA, add(CFA_XSP16, literal(-6)))
          CFI (cfiCond336) ?RET_LOW load(1, XDATA, add(CFA_XSP16, literal(-5)))
          CFI (cfiCond336) ?RET_HIGH load(1, XDATA, add(CFA_XSP16, literal(-4)))
          CFI (cfiCond336) ?BRET_EXT load(1, XDATA, add(CFA_XSP16, literal(-3)))
          CFI (cfiCond336) DPL0 load(1, XDATA, add(CFA_XSP16, literal(-2)))
          CFI (cfiCond336) DPH0 load(1, XDATA, add(CFA_XSP16, literal(-1)))
          CFI (cfiCond336) CFA_SP SP+0
          CFI (cfiCond336) CFA_XSP16 add(XSP16, 23)
          CFI Block cfiCond337 Using cfiCommon0
          CFI (cfiCond337) Function ZDSecMgrSendNwkKey
          CFI (cfiCond337) Conditional ??CrossCallReturnLabel_201, ??CrossCallReturnLabel_158
          CFI (cfiCond337) R6 load(1, XDATA, add(CFA_XSP16, literal(-12)))
          CFI (cfiCond337) VB load(1, XDATA, add(CFA_XSP16, literal(-11)))
          CFI (cfiCond337) V0 load(1, XDATA, add(CFA_XSP16, literal(-10)))
          CFI (cfiCond337) V1 load(1, XDATA, add(CFA_XSP16, literal(-9)))
          CFI (cfiCond337) V2 load(1, XDATA, add(CFA_XSP16, literal(-8)))
          CFI (cfiCond337) V3 load(1, XDATA, add(CFA_XSP16, literal(-7)))
          CFI (cfiCond337) R7 load(1, XDATA, add(CFA_XSP16, literal(-6)))
          CFI (cfiCond337) ?RET_LOW load(1, XDATA, add(CFA_XSP16, literal(-5)))
          CFI (cfiCond337) ?RET_HIGH load(1, XDATA, add(CFA_XSP16, literal(-4)))
          CFI (cfiCond337) ?BRET_EXT load(1, XDATA, add(CFA_XSP16, literal(-3)))
          CFI (cfiCond337) DPL0 load(1, XDATA, add(CFA_XSP16, literal(-2)))
          CFI (cfiCond337) DPH0 load(1, XDATA, add(CFA_XSP16, literal(-1)))
          CFI (cfiCond337) CFA_SP SP+0
          CFI (cfiCond337) CFA_XSP16 add(XSP16, 25)
          CFI Block cfiCond338 Using cfiCommon0
          CFI (cfiCond338) Function ZDSecMgrDeviceJoinFwd
          CFI (cfiCond338) Conditional ??CrossCallReturnLabel_201, ??CrossCallReturnLabel_159
          CFI (cfiCond338) DPL0 Frame(CFA_SP, 4)
          CFI (cfiCond338) DPH0 Frame(CFA_SP, 5)
          CFI (cfiCond338) CFA_SP SP+-5
          CFI (cfiCond338) CFA_XSP16 add(XSP16, 8)
          CFI Block cfiCond339 Using cfiCommon0
          CFI (cfiCond339) Function ZDSecMgrNewDeviceEvent
          CFI (cfiCond339) Conditional ??CrossCallReturnLabel_201, ??CrossCallReturnLabel_160
          CFI (cfiCond339) R6 load(1, XDATA, add(CFA_XSP16, literal(-12)))
          CFI (cfiCond339) VB load(1, XDATA, add(CFA_XSP16, literal(-11)))
          CFI (cfiCond339) V0 load(1, XDATA, add(CFA_XSP16, literal(-10)))
          CFI (cfiCond339) V1 load(1, XDATA, add(CFA_XSP16, literal(-9)))
          CFI (cfiCond339) V2 load(1, XDATA, add(CFA_XSP16, literal(-8)))
          CFI (cfiCond339) V3 load(1, XDATA, add(CFA_XSP16, literal(-7)))
          CFI (cfiCond339) R7 load(1, XDATA, add(CFA_XSP16, literal(-6)))
          CFI (cfiCond339) ?RET_LOW load(1, XDATA, add(CFA_XSP16, literal(-5)))
          CFI (cfiCond339) ?RET_HIGH load(1, XDATA, add(CFA_XSP16, literal(-4)))
          CFI (cfiCond339) ?BRET_EXT load(1, XDATA, add(CFA_XSP16, literal(-3)))
          CFI (cfiCond339) DPL0 load(1, XDATA, add(CFA_XSP16, literal(-2)))
          CFI (cfiCond339) DPH0 load(1, XDATA, add(CFA_XSP16, literal(-1)))
          CFI (cfiCond339) CFA_SP SP+0
          CFI (cfiCond339) CFA_XSP16 add(XSP16, 35)
          CFI Block cfiCond340 Using cfiCommon0
          CFI (cfiCond340) Function ZDSecMgrEstablishKeyInd
          CFI (cfiCond340) Conditional ??CrossCallReturnLabel_201, ??CrossCallReturnLabel_161
          CFI (cfiCond340) R6 load(1, XDATA, add(CFA_XSP16, literal(-12)))
          CFI (cfiCond340) VB load(1, XDATA, add(CFA_XSP16, literal(-11)))
          CFI (cfiCond340) V0 load(1, XDATA, add(CFA_XSP16, literal(-10)))
          CFI (cfiCond340) V1 load(1, XDATA, add(CFA_XSP16, literal(-9)))
          CFI (cfiCond340) V2 load(1, XDATA, add(CFA_XSP16, literal(-8)))
          CFI (cfiCond340) V3 load(1, XDATA, add(CFA_XSP16, literal(-7)))
          CFI (cfiCond340) R7 load(1, XDATA, add(CFA_XSP16, literal(-6)))
          CFI (cfiCond340) ?RET_LOW load(1, XDATA, add(CFA_XSP16, literal(-5)))
          CFI (cfiCond340) ?RET_HIGH load(1, XDATA, add(CFA_XSP16, literal(-4)))
          CFI (cfiCond340) ?BRET_EXT load(1, XDATA, add(CFA_XSP16, literal(-3)))
          CFI (cfiCond340) DPL0 load(1, XDATA, add(CFA_XSP16, literal(-2)))
          CFI (cfiCond340) DPH0 load(1, XDATA, add(CFA_XSP16, literal(-1)))
          CFI (cfiCond340) CFA_SP SP+0
          CFI (cfiCond340) CFA_XSP16 add(XSP16, 29)
          CFI Block cfiCond341 Using cfiCommon0
          CFI (cfiCond341) Function ZDSecMgrEstablishKeyInd
          CFI (cfiCond341) Conditional ??CrossCallReturnLabel_201, ??CrossCallReturnLabel_162
          CFI (cfiCond341) R6 load(1, XDATA, add(CFA_XSP16, literal(-12)))
          CFI (cfiCond341) VB load(1, XDATA, add(CFA_XSP16, literal(-11)))
          CFI (cfiCond341) V0 load(1, XDATA, add(CFA_XSP16, literal(-10)))
          CFI (cfiCond341) V1 load(1, XDATA, add(CFA_XSP16, literal(-9)))
          CFI (cfiCond341) V2 load(1, XDATA, add(CFA_XSP16, literal(-8)))
          CFI (cfiCond341) V3 load(1, XDATA, add(CFA_XSP16, literal(-7)))
          CFI (cfiCond341) R7 load(1, XDATA, add(CFA_XSP16, literal(-6)))
          CFI (cfiCond341) ?RET_LOW load(1, XDATA, add(CFA_XSP16, literal(-5)))
          CFI (cfiCond341) ?RET_HIGH load(1, XDATA, add(CFA_XSP16, literal(-4)))
          CFI (cfiCond341) ?BRET_EXT load(1, XDATA, add(CFA_XSP16, literal(-3)))
          CFI (cfiCond341) DPL0 load(1, XDATA, add(CFA_XSP16, literal(-2)))
          CFI (cfiCond341) DPH0 load(1, XDATA, add(CFA_XSP16, literal(-1)))
          CFI (cfiCond341) CFA_SP SP+0
          CFI (cfiCond341) CFA_XSP16 add(XSP16, 29)
          CFI Block cfiCond342 Using cfiCommon0
          CFI (cfiCond342) Function ZDSecMgrAuthenticateInd
          CFI (cfiCond342) Conditional ??CrossCallReturnLabel_201, ??CrossCallReturnLabel_163
          CFI (cfiCond342) R6 load(1, XDATA, add(CFA_XSP16, literal(-12)))
          CFI (cfiCond342) VB load(1, XDATA, add(CFA_XSP16, literal(-11)))
          CFI (cfiCond342) V0 load(1, XDATA, add(CFA_XSP16, literal(-10)))
          CFI (cfiCond342) V1 load(1, XDATA, add(CFA_XSP16, literal(-9)))
          CFI (cfiCond342) V2 load(1, XDATA, add(CFA_XSP16, literal(-8)))
          CFI (cfiCond342) V3 load(1, XDATA, add(CFA_XSP16, literal(-7)))
          CFI (cfiCond342) R7 load(1, XDATA, add(CFA_XSP16, literal(-6)))
          CFI (cfiCond342) ?RET_LOW load(1, XDATA, add(CFA_XSP16, literal(-5)))
          CFI (cfiCond342) ?RET_HIGH load(1, XDATA, add(CFA_XSP16, literal(-4)))
          CFI (cfiCond342) ?BRET_EXT load(1, XDATA, add(CFA_XSP16, literal(-3)))
          CFI (cfiCond342) DPL0 load(1, XDATA, add(CFA_XSP16, literal(-2)))
          CFI (cfiCond342) DPH0 load(1, XDATA, add(CFA_XSP16, literal(-1)))
          CFI (cfiCond342) CFA_SP SP+0
          CFI (cfiCond342) CFA_XSP16 add(XSP16, 32)
          CFI Block cfiCond343 Using cfiCommon0
          CFI (cfiCond343) Function ZDSecMgrAddLinkKey
          CFI (cfiCond343) Conditional ??CrossCallReturnLabel_201, ??CrossCallReturnLabel_164
          CFI (cfiCond343) R6 load(1, XDATA, add(CFA_XSP16, literal(-12)))
          CFI (cfiCond343) VB load(1, XDATA, add(CFA_XSP16, literal(-11)))
          CFI (cfiCond343) V0 load(1, XDATA, add(CFA_XSP16, literal(-10)))
          CFI (cfiCond343) V1 load(1, XDATA, add(CFA_XSP16, literal(-9)))
          CFI (cfiCond343) V2 load(1, XDATA, add(CFA_XSP16, literal(-8)))
          CFI (cfiCond343) V3 load(1, XDATA, add(CFA_XSP16, literal(-7)))
          CFI (cfiCond343) R7 load(1, XDATA, add(CFA_XSP16, literal(-6)))
          CFI (cfiCond343) ?RET_LOW load(1, XDATA, add(CFA_XSP16, literal(-5)))
          CFI (cfiCond343) ?RET_HIGH load(1, XDATA, add(CFA_XSP16, literal(-4)))
          CFI (cfiCond343) ?BRET_EXT load(1, XDATA, add(CFA_XSP16, literal(-3)))
          CFI (cfiCond343) DPL0 load(1, XDATA, add(CFA_XSP16, literal(-2)))
          CFI (cfiCond343) DPH0 load(1, XDATA, add(CFA_XSP16, literal(-1)))
          CFI (cfiCond343) CFA_SP SP+0
          CFI (cfiCond343) CFA_XSP16 add(XSP16, 16)
          CFI Block cfiCond344 Using cfiCommon0
          CFI (cfiCond344) Function ZDSecMgrSendMasterKey
          CFI (cfiCond344) Conditional ??CrossCallReturnLabel_202, ??CrossCallReturnLabel_191
          CFI (cfiCond344) R6 load(1, XDATA, add(CFA_XSP16, literal(-10)))
          CFI (cfiCond344) VB load(1, XDATA, add(CFA_XSP16, literal(-9)))
          CFI (cfiCond344) V0 load(1, XDATA, add(CFA_XSP16, literal(-8)))
          CFI (cfiCond344) V1 load(1, XDATA, add(CFA_XSP16, literal(-7)))
          CFI (cfiCond344) R7 load(1, XDATA, add(CFA_XSP16, literal(-6)))
          CFI (cfiCond344) ?RET_LOW load(1, XDATA, add(CFA_XSP16, literal(-5)))
          CFI (cfiCond344) ?RET_HIGH load(1, XDATA, add(CFA_XSP16, literal(-4)))
          CFI (cfiCond344) ?BRET_EXT load(1, XDATA, add(CFA_XSP16, literal(-3)))
          CFI (cfiCond344) DPL0 load(1, XDATA, add(CFA_XSP16, literal(-2)))
          CFI (cfiCond344) DPH0 load(1, XDATA, add(CFA_XSP16, literal(-1)))
          CFI (cfiCond344) CFA_SP SP+0
          CFI (cfiCond344) CFA_XSP16 add(XSP16, 23)
          CFI Block cfiCond345 Using cfiCommon0
          CFI (cfiCond345) Function ZDSecMgrSendMasterKey
          CFI (cfiCond345) Conditional ??CrossCallReturnLabel_202, ??CrossCallReturnLabel_192
          CFI (cfiCond345) R6 load(1, XDATA, add(CFA_XSP16, literal(-10)))
          CFI (cfiCond345) VB load(1, XDATA, add(CFA_XSP16, literal(-9)))
          CFI (cfiCond345) V0 load(1, XDATA, add(CFA_XSP16, literal(-8)))
          CFI (cfiCond345) V1 load(1, XDATA, add(CFA_XSP16, literal(-7)))
          CFI (cfiCond345) R7 load(1, XDATA, add(CFA_XSP16, literal(-6)))
          CFI (cfiCond345) ?RET_LOW load(1, XDATA, add(CFA_XSP16, literal(-5)))
          CFI (cfiCond345) ?RET_HIGH load(1, XDATA, add(CFA_XSP16, literal(-4)))
          CFI (cfiCond345) ?BRET_EXT load(1, XDATA, add(CFA_XSP16, literal(-3)))
          CFI (cfiCond345) DPL0 load(1, XDATA, add(CFA_XSP16, literal(-2)))
          CFI (cfiCond345) DPH0 load(1, XDATA, add(CFA_XSP16, literal(-1)))
          CFI (cfiCond345) CFA_SP SP+0
          CFI (cfiCond345) CFA_XSP16 add(XSP16, 23)
          CFI Block cfiCond346 Using cfiCommon0
          CFI (cfiCond346) Function ZDSecMgrAppKeyReq
          CFI (cfiCond346) Conditional ??CrossCallReturnLabel_202, ??CrossCallReturnLabel_193
          CFI (cfiCond346) R6 load(1, XDATA, add(CFA_XSP16, literal(-10)))
          CFI (cfiCond346) VB load(1, XDATA, add(CFA_XSP16, literal(-9)))
          CFI (cfiCond346) V0 load(1, XDATA, add(CFA_XSP16, literal(-8)))
          CFI (cfiCond346) V1 load(1, XDATA, add(CFA_XSP16, literal(-7)))
          CFI (cfiCond346) R7 load(1, XDATA, add(CFA_XSP16, literal(-6)))
          CFI (cfiCond346) ?RET_LOW load(1, XDATA, add(CFA_XSP16, literal(-5)))
          CFI (cfiCond346) ?RET_HIGH load(1, XDATA, add(CFA_XSP16, literal(-4)))
          CFI (cfiCond346) ?BRET_EXT load(1, XDATA, add(CFA_XSP16, literal(-3)))
          CFI (cfiCond346) DPL0 load(1, XDATA, add(CFA_XSP16, literal(-2)))
          CFI (cfiCond346) DPH0 load(1, XDATA, add(CFA_XSP16, literal(-1)))
          CFI (cfiCond346) CFA_SP SP+0
          CFI (cfiCond346) CFA_XSP16 add(XSP16, 49)
          CFI Block cfiCond347 Using cfiCommon0
          CFI (cfiCond347) Function ZDSecMgrNewDeviceEvent
          CFI (cfiCond347) Conditional ??CrossCallReturnLabel_202, ??CrossCallReturnLabel_194
          CFI (cfiCond347) R6 load(1, XDATA, add(CFA_XSP16, literal(-12)))
          CFI (cfiCond347) VB load(1, XDATA, add(CFA_XSP16, literal(-11)))
          CFI (cfiCond347) V0 load(1, XDATA, add(CFA_XSP16, literal(-10)))
          CFI (cfiCond347) V1 load(1, XDATA, add(CFA_XSP16, literal(-9)))
          CFI (cfiCond347) V2 load(1, XDATA, add(CFA_XSP16, literal(-8)))
          CFI (cfiCond347) V3 load(1, XDATA, add(CFA_XSP16, literal(-7)))
          CFI (cfiCond347) R7 load(1, XDATA, add(CFA_XSP16, literal(-6)))
          CFI (cfiCond347) ?RET_LOW load(1, XDATA, add(CFA_XSP16, literal(-5)))
          CFI (cfiCond347) ?RET_HIGH load(1, XDATA, add(CFA_XSP16, literal(-4)))
          CFI (cfiCond347) ?BRET_EXT load(1, XDATA, add(CFA_XSP16, literal(-3)))
          CFI (cfiCond347) DPL0 load(1, XDATA, add(CFA_XSP16, literal(-2)))
          CFI (cfiCond347) DPH0 load(1, XDATA, add(CFA_XSP16, literal(-1)))
          CFI (cfiCond347) CFA_SP SP+0
          CFI (cfiCond347) CFA_XSP16 add(XSP16, 35)
          CFI Block cfiCond348 Using cfiCommon0
          CFI (cfiCond348) Function ZDSecMgrEvent
          CFI (cfiCond348) Conditional ??CrossCallReturnLabel_202, ??CrossCallReturnLabel_195
          CFI (cfiCond348) R6 load(1, XDATA, add(CFA_XSP16, literal(-10)))
          CFI (cfiCond348) VB load(1, XDATA, add(CFA_XSP16, literal(-9)))
          CFI (cfiCond348) V0 load(1, XDATA, add(CFA_XSP16, literal(-8)))
          CFI (cfiCond348) V1 load(1, XDATA, add(CFA_XSP16, literal(-7)))
          CFI (cfiCond348) R7 load(1, XDATA, add(CFA_XSP16, literal(-6)))
          CFI (cfiCond348) ?RET_LOW load(1, XDATA, add(CFA_XSP16, literal(-5)))
          CFI (cfiCond348) ?RET_HIGH load(1, XDATA, add(CFA_XSP16, literal(-4)))
          CFI (cfiCond348) ?BRET_EXT load(1, XDATA, add(CFA_XSP16, literal(-3)))
          CFI (cfiCond348) DPL0 load(1, XDATA, add(CFA_XSP16, literal(-2)))
          CFI (cfiCond348) DPH0 load(1, XDATA, add(CFA_XSP16, literal(-1)))
          CFI (cfiCond348) CFA_SP SP+0
          CFI (cfiCond348) CFA_XSP16 add(XSP16, 33)
          CFI Block cfiCond349 Using cfiCommon0
          CFI (cfiCond349) Function ZDSecMgrEvent
          CFI (cfiCond349) Conditional ??CrossCallReturnLabel_202, ??CrossCallReturnLabel_196
          CFI (cfiCond349) R6 load(1, XDATA, add(CFA_XSP16, literal(-10)))
          CFI (cfiCond349) VB load(1, XDATA, add(CFA_XSP16, literal(-9)))
          CFI (cfiCond349) V0 load(1, XDATA, add(CFA_XSP16, literal(-8)))
          CFI (cfiCond349) V1 load(1, XDATA, add(CFA_XSP16, literal(-7)))
          CFI (cfiCond349) R7 load(1, XDATA, add(CFA_XSP16, literal(-6)))
          CFI (cfiCond349) ?RET_LOW load(1, XDATA, add(CFA_XSP16, literal(-5)))
          CFI (cfiCond349) ?RET_HIGH load(1, XDATA, add(CFA_XSP16, literal(-4)))
          CFI (cfiCond349) ?BRET_EXT load(1, XDATA, add(CFA_XSP16, literal(-3)))
          CFI (cfiCond349) DPL0 load(1, XDATA, add(CFA_XSP16, literal(-2)))
          CFI (cfiCond349) DPH0 load(1, XDATA, add(CFA_XSP16, literal(-1)))
          CFI (cfiCond349) CFA_SP SP+0
          CFI (cfiCond349) CFA_XSP16 add(XSP16, 33)
          CFI Block cfiCond350 Using cfiCommon0
          CFI (cfiCond350) Function ZDSecMgrDeviceJoinFwd
          CFI (cfiCond350) Conditional ??CrossCallReturnLabel_197, ??CrossCallReturnLabel_0
          CFI (cfiCond350) DPL0 Frame(CFA_SP, 4)
          CFI (cfiCond350) DPH0 Frame(CFA_SP, 5)
          CFI (cfiCond350) CFA_SP SP+-5
          CFI (cfiCond350) CFA_XSP16 add(XSP16, 8)
          CFI Block cfiCond351 Using cfiCommon0
          CFI (cfiCond351) Function ZDSecMgrUpdateDeviceInd
          CFI (cfiCond351) Conditional ??CrossCallReturnLabel_197, ??CrossCallReturnLabel_1
          CFI (cfiCond351) DPL0 Frame(CFA_SP, 4)
          CFI (cfiCond351) DPH0 Frame(CFA_SP, 5)
          CFI (cfiCond351) CFA_SP SP+-5
          CFI (cfiCond351) CFA_XSP16 add(XSP16, 10)
          CFI Block cfiPicker352 Using cfiCommon1
          CFI (cfiPicker352) NoFunction
          CFI (cfiPicker352) Picker
        MOV     A,R0
        MOVX    @DPTR,A
        INC     DPTR
        MOV     A,R1
        MOVX    @DPTR,A
        RET
          CFI EndBlock cfiCond312
          CFI EndBlock cfiCond313
          CFI EndBlock cfiCond314
          CFI EndBlock cfiCond315
          CFI EndBlock cfiCond316
          CFI EndBlock cfiCond317
          CFI EndBlock cfiCond318
          CFI EndBlock cfiCond319
          CFI EndBlock cfiCond320
          CFI EndBlock cfiCond321
          CFI EndBlock cfiCond322
          CFI EndBlock cfiCond323
          CFI EndBlock cfiCond324
          CFI EndBlock cfiCond325
          CFI EndBlock cfiCond326
          CFI EndBlock cfiCond327
          CFI EndBlock cfiCond328
          CFI EndBlock cfiCond329
          CFI EndBlock cfiCond330
          CFI EndBlock cfiCond331
          CFI EndBlock cfiCond332
          CFI EndBlock cfiCond333
          CFI EndBlock cfiCond334
          CFI EndBlock cfiCond335
          CFI EndBlock cfiCond336
          CFI EndBlock cfiCond337
          CFI EndBlock cfiCond338
          CFI EndBlock cfiCond339
          CFI EndBlock cfiCond340
          CFI EndBlock cfiCond341
          CFI EndBlock cfiCond342
          CFI EndBlock cfiCond343
          CFI EndBlock cfiCond344
          CFI EndBlock cfiCond345
          CFI EndBlock cfiCond346
          CFI EndBlock cfiCond347
          CFI EndBlock cfiCond348
          CFI EndBlock cfiCond349
          CFI EndBlock cfiCond350
          CFI EndBlock cfiCond351
          CFI EndBlock cfiPicker352
// 2169 
// 2170 /******************************************************************************
// 2171  * @fn          ZDSecMgrDeviceNew
// 2172  *
// 2173  * @brief       Process a new device.
// 2174  *
// 2175  * @param       device - [in] ZDSecMgrDevice_t, device info
// 2176  *
// 2177  * @return      ZStatus_t
// 2178  */

        RSEG BANKED_CODE:CODE:NOROOT(0)
// 2179 ZStatus_t ZDSecMgrDeviceNew( ZDSecMgrDevice_t* joiner )
ZDSecMgrDeviceNew:
          CFI Block cfiBlock353 Using cfiCommon0
          CFI Function ZDSecMgrDeviceNew
        CODE
// 2180 {
        FUNCALL ZDSecMgrDeviceNew, ZDSecMgrDeviceJoinFwd
        LOCFRAME ISTACK, 2, STACK
        LOCFRAME PSTACK, 0, STACK
        LOCFRAME XSTACK, 0, STACK
        LOCFRAME IOVERLAY, 0, STATIC
        LOCFRAME DOVERLAY, 0, STATIC
        ARGFRAME ISTACK, 2, STACK
        ARGFRAME PSTACK, 0, STACK
        ARGFRAME XSTACK, 0, STACK
        ARGFRAME IOVERLAY, 0, STATIC
        ARGFRAME DOVERLAY, 0, STATIC
        PUSH    DPL
          CFI DPL0 Frame(CFA_SP, 4)
          CFI CFA_SP SP+-4
        PUSH    DPH
          CFI DPH0 Frame(CFA_SP, 5)
          CFI CFA_SP SP+-5
        ; Saved register size: 2
        ; Auto size: 0
// 2181   ZStatus_t status;
// 2182 
// 2183   if ( ( ZG_BUILD_COORDINATOR_TYPE ) && ( ZG_DEVICE_COORDINATOR_TYPE ) )
// 2184   {
// 2185     // try to join this device
// 2186     status = ZDSecMgrDeviceJoinDirect( joiner );
// 2187   }
// 2188   else
// 2189   {
// 2190     status = ZDSecMgrDeviceJoinFwd( joiner );
// 2191   }
// 2192 
// 2193   return status;
        ; Setup parameters for call to function ZDSecMgrDeviceJoinFwd
        LCALL   ??ZDSecMgrDeviceJoinFwd?relay
        SJMP    ??Subroutine89_0
          CFI EndBlock cfiBlock353
// 2194 }

        RSEG BANKED_CODE:CODE:NOROOT(0)
?Subroutine0:
          CFI Block cfiBlock354 Using cfiCommon0
          CFI NoFunction
        PUSH    DPL
          CFI CFA_SP SP+-4
          CFI DPL0 Frame(CFA_SP, 4)
        PUSH    DPH
          CFI CFA_SP SP+-5
          CFI DPH0 Frame(CFA_SP, 5)
        ; Saved register size: 2
        ; Auto size: 0
        ; Saved register size: 2
        ; Auto size: 0
        MOV     DPL,R2
        MOV     DPH,R3
        MOV     A,#-0x2
        MOVX    @DPTR,A
        INC     DPTR
        INC     A
          CFI EndBlock cfiBlock354
        REQUIRE ??Subroutine88_0
        ; // Fall through to label ??Subroutine88_0

        RSEG BANKED_CODE:CODE:NOROOT(0)
??Subroutine88_0:
          CFI Block cfiBlock355 Using cfiCommon0
          CFI NoFunction
          CFI CFA_SP SP+-5
          CFI DPL0 Frame(CFA_SP, 4)
          CFI DPH0 Frame(CFA_SP, 5)
        MOVX    @DPTR,A
          CFI EndBlock cfiBlock355
        REQUIRE ??Subroutine89_0
        ; // Fall through to label ??Subroutine89_0

        RSEG BANKED_CODE:CODE:NOROOT(0)
??Subroutine89_0:
          CFI Block cfiBlock356 Using cfiCommon0
          CFI NoFunction
          CFI CFA_SP SP+-5
          CFI DPL0 Frame(CFA_SP, 4)
          CFI DPH0 Frame(CFA_SP, 5)
        POP     DPH
          CFI CFA_SP SP+-4
          CFI DPH0 SameValue
        POP     DPL
          CFI CFA_SP SP+-3
          CFI DPL0 SameValue
        LJMP    ?BRET
          CFI EndBlock cfiBlock356
// 2195 
// 2196 /******************************************************************************
// 2197  * @fn          ZDSecMgrAssocDeviceAuth
// 2198  *
// 2199  * @brief       Set associated device status to authenticated
// 2200  *
// 2201  * @param       assoc - [in, out] associated_devices_t
// 2202  *
// 2203  * @return      none
// 2204  */

        RSEG BANKED_CODE:CODE:NOROOT(0)
// 2205 void ZDSecMgrAssocDeviceAuth( associated_devices_t* assoc )
ZDSecMgrAssocDeviceAuth:
          CFI Block cfiBlock357 Using cfiCommon0
          CFI Function ZDSecMgrAssocDeviceAuth
        CODE
// 2206 {
        PUSH    DPL
          CFI DPL0 Frame(CFA_SP, 4)
          CFI CFA_SP SP+-4
        PUSH    DPH
          CFI DPH0 Frame(CFA_SP, 5)
          CFI CFA_SP SP+-5
        ; Saved register size: 2
        ; Auto size: 0
// 2207   if ( assoc != NULL )
        MOV     A,R2
        ORL     A,R3
        JZ      ??ZDSecMgrAssocDeviceAuth_0
// 2208   {
// 2209     assoc->devStatus |= DEV_SEC_AUTH_STATUS;
        MOV     DPL,R2
        MOV     DPH,R3
        INC     DPTR
        INC     DPTR
        INC     DPTR
        INC     DPTR
        INC     DPTR
        MOVX    A,@DPTR
        SETB    0xE0 /* A   */.3
        MOVX    @DPTR,A
// 2210   }
// 2211 }
??ZDSecMgrAssocDeviceAuth_0:
        SJMP    ??Subroutine89_0
          CFI EndBlock cfiBlock357
// 2212 
// 2213 /******************************************************************************
// 2214  * @fn          ZDSecMgrAuthInitiate
// 2215  *
// 2216  * @brief       Initiate entity authentication
// 2217  *
// 2218  * @param       responder - [in] responder EXT address
// 2219  *
// 2220  * @return      none
// 2221  */

        RSEG BANKED_CODE:CODE:NOROOT(0)
// 2222 void ZDSecMgrAuthInitiate( uint8* responder )
ZDSecMgrAuthInitiate:
          CFI Block cfiBlock358 Using cfiCommon0
          CFI Function ZDSecMgrAuthInitiate
        CODE
// 2223 {
        FUNCALL ZDSecMgrAuthInitiate, APSME_LookupNwkAddr
        LOCFRAME ISTACK, 0, STACK
        LOCFRAME PSTACK, 0, STACK
        LOCFRAME XSTACK, 16, STACK
        LOCFRAME IOVERLAY, 0, STATIC
        LOCFRAME DOVERLAY, 0, STATIC
        ARGFRAME ISTACK, 0, STACK
        ARGFRAME PSTACK, 0, STACK
        ARGFRAME XSTACK, 16, STACK
        ARGFRAME IOVERLAY, 0, STATIC
        ARGFRAME DOVERLAY, 0, STATIC
        FUNCALL ZDSecMgrAuthInitiate, APSME_AuthenticateReq
        LOCFRAME ISTACK, 0, STACK
        LOCFRAME PSTACK, 0, STACK
        LOCFRAME XSTACK, 16, STACK
        LOCFRAME IOVERLAY, 0, STATIC
        LOCFRAME DOVERLAY, 0, STATIC
        ARGFRAME ISTACK, 0, STACK
        ARGFRAME PSTACK, 0, STACK
        ARGFRAME XSTACK, 16, STACK
        ARGFRAME IOVERLAY, 0, STATIC
        ARGFRAME DOVERLAY, 0, STATIC
        MOV     A,#-0x9
        LCALL   ?BANKED_ENTER_XDATA
          CFI DPH0 load(1, XDATA, add(CFA_XSP16, literal(-1)))
          CFI DPL0 load(1, XDATA, add(CFA_XSP16, literal(-2)))
          CFI ?BRET_EXT load(1, XDATA, add(CFA_XSP16, literal(-3)))
          CFI ?RET_HIGH load(1, XDATA, add(CFA_XSP16, literal(-4)))
          CFI ?RET_LOW load(1, XDATA, add(CFA_XSP16, literal(-5)))
          CFI R7 load(1, XDATA, add(CFA_XSP16, literal(-6)))
          CFI V0 load(1, XDATA, add(CFA_XSP16, literal(-7)))
          CFI VB load(1, XDATA, add(CFA_XSP16, literal(-8)))
          CFI R6 load(1, XDATA, add(CFA_XSP16, literal(-9)))
          CFI CFA_SP SP+0
          CFI CFA_XSP16 add(XSP16, 9)
        ; Saved register size: 9
        ; Auto size: 7
        MOV     A,#-0x7
        LCALL   ?ALLOC_XSTACK8
          CFI CFA_XSP16 add(XSP16, 16)
        MOV     A,R2
        MOV     R6,A
        MOV     A,R3
        MOV     R7,A
// 2224   APSME_AuthenticateReq_t req;
// 2225 
// 2226 
// 2227   // make sure NWK address is available
// 2228   if ( APSME_LookupNwkAddr( responder, &req.nwkAddr ) )
        ; Setup parameters for call to function APSME_LookupNwkAddr
        MOV     DPL,?XSP + 0
        MOV     DPH,?XSP + 1
        MOV     R4,DPL
        MOV     R5,DPH
        LCALL   ??APSME_LookupNwkAddr?relay
        MOV     A,R1
        JZ      ??ZDSecMgrAuthInitiate_0
// 2229   {
// 2230     // set request fields
// 2231     req.extAddr   = responder;
        MOV     A,#0x2
        LCALL   ?XSTACK_DISP0_8
        MOV     A,R6
        MOVX    @DPTR,A
        INC     DPTR
        MOV     A,R7
        MOVX    @DPTR,A
// 2232     req.action    = APSME_EA_INITIATE;
        MOV     A,#0x6
        LCALL   ?XSTACK_DISP0_8
        CLR     A
        MOVX    @DPTR,A
// 2233     req.challenge = NULL;
        MOV     A,#0x4
        LCALL   ?XSTACK_DISP0_8
        CLR     A
        MOVX    @DPTR,A
        INC     DPTR
        LCALL   ??Subroutine90_0 & 0xFFFF
// 2234 
// 2235     // start EA processing
// 2236     APSME_AuthenticateReq( &req );
// 2237   }
??CrossCallReturnLabel_183:
        LCALL   ??APSME_AuthenticateReq?relay
// 2238 }
??ZDSecMgrAuthInitiate_0:
        MOV     A,#0x7
        LJMP    ??Subroutine82_0 & 0xFFFF
          CFI EndBlock cfiBlock358
// 2239 
// 2240 /******************************************************************************
// 2241  * @fn          ZDSecMgrAuthNwkKey
// 2242  *
// 2243  * @brief       Handle next step in authentication process
// 2244  *
// 2245  * @param       none
// 2246  *
// 2247  * @return      none
// 2248  */

        RSEG BANKED_CODE:CODE:NOROOT(0)
// 2249 void ZDSecMgrAuthNwkKey()
ZDSecMgrAuthNwkKey:
          CFI Block cfiBlock359 Using cfiCommon0
          CFI Function ZDSecMgrAuthNwkKey
        CODE
// 2250 {
        FUNCALL ZDSecMgrAuthNwkKey, osal_set_event
        LOCFRAME ISTACK, 2, STACK
        LOCFRAME PSTACK, 0, STACK
        LOCFRAME XSTACK, 0, STACK
        LOCFRAME IOVERLAY, 0, STATIC
        LOCFRAME DOVERLAY, 0, STATIC
        ARGFRAME ISTACK, 2, STACK
        ARGFRAME PSTACK, 0, STACK
        ARGFRAME XSTACK, 0, STACK
        ARGFRAME IOVERLAY, 0, STATIC
        ARGFRAME DOVERLAY, 0, STATIC
        PUSH    DPL
          CFI DPL0 Frame(CFA_SP, 4)
          CFI CFA_SP SP+-4
        PUSH    DPH
          CFI DPH0 Frame(CFA_SP, 5)
          CFI CFA_SP SP+-5
        ; Saved register size: 2
        ; Auto size: 0
// 2251   if ( devState == DEV_END_DEVICE_UNAUTH )
        MOV     DPTR,#devState
        MOVX    A,@DPTR
        XRL     A,#0x5
        JNZ     ??ZDSecMgrAuthNwkKey_0
// 2252   {
// 2253     if ( ZG_CHECK_SECURITY_MODE == ZG_SECURITY_PRO_HIGH )
// 2254     {
// 2255       uint8 parent[Z_EXTADDR_LEN];
// 2256 
// 2257       // get parent's EXT address
// 2258       NLME_GetCoordExtAddr( parent );
// 2259 
// 2260       // begin entity authentication with parent
// 2261       ZDSecMgrAuthInitiate( parent );
// 2262     }
// 2263     else // ( ZG_CHECK_SECURITY_MODE == ZG_SECURITY_RESIDENTIAL )
// 2264     {
// 2265       // inform ZDO that device has been authenticated
// 2266       osal_set_event ( ZDAppTaskID, ZDO_DEVICE_AUTH );
        ; Setup parameters for call to function osal_set_event
        MOV     R2,#-0x80
        MOV     R3,#0x0
        MOV     DPTR,#ZDAppTaskID
        MOVX    A,@DPTR
        MOV     R1,A
        LCALL   ??osal_set_event?relay
// 2267     }
// 2268   }
// 2269 }
??ZDSecMgrAuthNwkKey_0:
        SJMP    ??Subroutine89_0
          CFI EndBlock cfiBlock359
// 2270 
// 2271 /******************************************************************************
// 2272  * PUBLIC FUNCTIONS
// 2273  */
// 2274 /******************************************************************************
// 2275  * @fn          ZDSecMgrInit
// 2276  *
// 2277  * @brief       Initialize ZigBee Device Security Manager.
// 2278  *
// 2279  * @param       state - device initialization state
// 2280  *
// 2281  * @return      none
// 2282  */
// 2283 #if ( ADDRMGR_CALLBACK_ENABLED == 1 )
// 2284 void ZDSecMgrAddrMgrCB( uint8 update, AddrMgrEntry_t* newEntry, AddrMgrEntry_t* oldEntry );
// 2285 void ZDSecMgrAddrMgrCB( uint8           update,
// 2286                         AddrMgrEntry_t* newEntry,
// 2287                         AddrMgrEntry_t* oldEntry )
// 2288 {
// 2289   (void)update;
// 2290   (void)newEntry;
// 2291   (void)oldEntry;
// 2292 }
// 2293 #endif // ( ADDRMGR_CALLBACK_ENABLED == 1 )
// 2294 

        RSEG BANKED_CODE:CODE:NOROOT(0)
// 2295 void ZDSecMgrInit(uint8 state)
ZDSecMgrInit:
        CODE
        FUNCALL ZDSecMgrInit, APSME_SecurityNM
        LOCFRAME ISTACK, 2, STACK
        LOCFRAME PSTACK, 0, STACK
        LOCFRAME XSTACK, 0, STACK
        LOCFRAME IOVERLAY, 0, STATIC
        LOCFRAME DOVERLAY, 0, STATIC
        ARGFRAME ISTACK, 2, STACK
        ARGFRAME PSTACK, 0, STACK
        ARGFRAME XSTACK, 0, STACK
        ARGFRAME IOVERLAY, 0, STATIC
        ARGFRAME DOVERLAY, 0, STATIC
        REQUIRE ?Subroutine6
        ; // Fall through to label ?Subroutine6

        RSEG BANKED_CODE:CODE:NOROOT(0)
?Subroutine6:
          CFI Block cfiBlock360 Using cfiCommon0
          CFI NoFunction
// 2296 {
        PUSH    DPL
          CFI CFA_SP SP+-4
          CFI DPL0 Frame(CFA_SP, 4)
        PUSH    DPH
          CFI CFA_SP SP+-5
          CFI DPH0 Frame(CFA_SP, 5)
        ; Saved register size: 2
        ; Auto size: 0
// 2297   if ( (ZG_CHECK_SECURITY_MODE == ZG_SECURITY_PRO_HIGH)
// 2298       || (ZG_CHECK_SECURITY_MODE == ZG_SECURITY_SE_STANDARD) )
// 2299   {
// 2300     // initialize sub modules
// 2301     ZDSecMgrMasterKeyInit();
// 2302     ZDSecMgrEntryInit(state);
// 2303 
// 2304     if ( ( ZG_BUILD_COORDINATOR_TYPE ) && ( ZG_DEVICE_COORDINATOR_TYPE ) )
// 2305     {
// 2306       ZDSecMgrCtrlInit();
// 2307     }
// 2308 
// 2309     // register with Address Manager
// 2310     #if ( ADDRMGR_CALLBACK_ENABLED == 1 )
// 2311     AddrMgrRegister( ADDRMGR_REG_SECURITY, ZDSecMgrAddrMgrCB );
// 2312     #endif
// 2313   }
// 2314 
// 2315   if ( ZG_CHECK_SECURITY_MODE == ZG_SECURITY_PRO_HIGH )
// 2316   {
// 2317     // configure SKA slot data
// 2318     APSME_SKA_SlotInit( ZDSECMGR_SKA_SLOT_MAX );
// 2319   }
// 2320   else if ( ZG_CHECK_SECURITY_MODE == ZG_SECURITY_SE_STANDARD )
// 2321   {
// 2322     APSME_TCLinkKeyInit();  
// 2323     APSME_TCAddrSetup( zgTrustCenterAddr );    
// 2324   
// 2325   }
// 2326 
// 2327   if ( ZG_SECURE_ENABLED )
// 2328   {
// 2329     if ( ( ZG_BUILD_COORDINATOR_TYPE ) && ( ZG_DEVICE_COORDINATOR_TYPE ) )
// 2330     {
// 2331       // setup joining permissions
// 2332       ZDSecMgrPermitJoiningEnabled = TRUE;
// 2333       ZDSecMgrPermitJoiningTimed   = FALSE;
// 2334     }
// 2335   }
// 2336 
// 2337   // configure security based on security mode and type of device
// 2338   ZDSecMgrConfig();
        ; Setup parameters for call to function APSME_SecurityNM
        ; Saved register size: 2
        ; Auto size: 0
        ; Setup parameters for call to function APSME_SecurityNM
        LCALL   ??APSME_SecurityNM?relay
// 2339 }
        LJMP    ??Subroutine89_0 & 0xFFFF
          CFI EndBlock cfiBlock360
// 2340 
// 2341 /******************************************************************************
// 2342  * @fn          ZDSecMgrConfig
// 2343  *
// 2344  * @brief       Configure ZigBee Device Security Manager.
// 2345  *
// 2346  * @param       none
// 2347  *
// 2348  * @return      none
// 2349  */

        RSEG BANKED_CODE:CODE:NOROOT(0)
// 2350 void ZDSecMgrConfig( void )
ZDSecMgrConfig:
          CFI Block cfiBlock361 Using cfiCommon0
          CFI Function ZDSecMgrConfig
        CODE
        FUNCALL ZDSecMgrConfig, APSME_SecurityNM
        LOCFRAME ISTACK, 2, STACK
        LOCFRAME PSTACK, 0, STACK
        LOCFRAME XSTACK, 0, STACK
        LOCFRAME IOVERLAY, 0, STATIC
        LOCFRAME DOVERLAY, 0, STATIC
        ARGFRAME ISTACK, 2, STACK
        ARGFRAME PSTACK, 0, STACK
        ARGFRAME XSTACK, 0, STACK
        ARGFRAME IOVERLAY, 0, STATIC
        ARGFRAME DOVERLAY, 0, STATIC
        SJMP    ?Subroutine6
          CFI EndBlock cfiBlock361
// 2351 {
// 2352   if ( ZG_SECURE_ENABLED )
// 2353   {
// 2354     SSP_Init();
// 2355 
// 2356     if ( (ZG_CHECK_SECURITY_MODE == ZG_SECURITY_PRO_HIGH)
// 2357         || (ZG_CHECK_SECURITY_MODE == ZG_SECURITY_SE_STANDARD) )
// 2358     {
// 2359       if ( ( ZG_BUILD_COORDINATOR_TYPE ) && ( ZG_DEVICE_COORDINATOR_TYPE ) )
// 2360       {
// 2361         // COMMERCIAL MODE - COORDINATOR DEVICE
// 2362         APSME_SecurityCM_CD();
// 2363       }
// 2364       else if ( ZSTACK_ROUTER_BUILD )
// 2365       {
// 2366         // COMMERCIAL MODE - ROUTER DEVICE
// 2367         APSME_SecurityCM_RD();
// 2368       }
// 2369       else
// 2370       {
// 2371         // COMMERCIAL MODE - END DEVICE
// 2372         APSME_SecurityCM_ED();
// 2373       }
// 2374     }
// 2375     else // ( ZG_CHECK_SECURITY_MODE == ZG_SECURITY_RESIDENTIAL )
// 2376     {
// 2377       if ( ( ZG_BUILD_COORDINATOR_TYPE ) && ( ZG_DEVICE_COORDINATOR_TYPE ) )
// 2378       {
// 2379         // RESIDENTIAL MODE - COORDINATOR DEVICE
// 2380         APSME_SecurityRM_CD();
// 2381       }
// 2382       else if ( ZSTACK_ROUTER_BUILD )
// 2383       {
// 2384         // RESIDENTIAL MODE - ROUTER DEVICE
// 2385         APSME_SecurityRM_RD();
// 2386       }
// 2387       else
// 2388       {
// 2389         // RESIDENTIAL MODE - END DEVICE
// 2390         APSME_SecurityRM_ED();
// 2391       }
// 2392     }
// 2393   }
// 2394   else
// 2395   {
// 2396     // NO SECURITY
// 2397     APSME_SecurityNM();
// 2398   }
// 2399 }
// 2400 
// 2401 /******************************************************************************
// 2402  * @fn          ZDSecMgrPermitJoining
// 2403  *
// 2404  * @brief       Process request to change joining permissions.
// 2405  *
// 2406  * @param       duration - [in] timed duration for join in seconds
// 2407  *                         - 0x00 not allowed
// 2408  *                         - 0xFF allowed without timeout
// 2409  *
// 2410  * @return      uint8 - success(TRUE:FALSE)
// 2411  */

        RSEG BANKED_CODE:CODE:NOROOT(0)
// 2412 uint8 ZDSecMgrPermitJoining( uint8 duration )
ZDSecMgrPermitJoining:
          CFI Block cfiBlock362 Using cfiCommon0
          CFI Function ZDSecMgrPermitJoining
        CODE
// 2413 {
        PUSH    DPL
          CFI DPL0 Frame(CFA_SP, 4)
          CFI CFA_SP SP+-4
        PUSH    DPH
          CFI DPH0 Frame(CFA_SP, 5)
          CFI CFA_SP SP+-5
        ; Saved register size: 2
        ; Auto size: 0
        MOV     A,R1
        MOV     R0,A
// 2414   uint8 accept;
// 2415 
// 2416 
// 2417   ZDSecMgrPermitJoiningTimed = FALSE;
        MOV     DPTR,#ZDSecMgrPermitJoiningTimed
        CLR     A
        MOVX    @DPTR,A
// 2418 
// 2419   if ( duration > 0 )
        MOV     A,R0
        MOV     DPTR,#ZDSecMgrPermitJoiningEnabled
        JZ      ??ZDSecMgrPermitJoining_0
// 2420   {
// 2421     ZDSecMgrPermitJoiningEnabled = TRUE;
        MOV     A,#0x1
        MOVX    @DPTR,A
// 2422 
// 2423     if ( duration != 0xFF )
        MOV     A,#-0x1
        XRL     A,R0
        JZ      ??ZDSecMgrPermitJoining_1
// 2424     {
// 2425       ZDSecMgrPermitJoiningTimed = TRUE;
        MOV     DPTR,#ZDSecMgrPermitJoiningTimed
        MOV     A,#0x1
        SJMP    ??ZDSecMgrPermitJoining_2
// 2426     }
// 2427   }
// 2428   else
// 2429   {
// 2430     ZDSecMgrPermitJoiningEnabled = FALSE;
??ZDSecMgrPermitJoining_0:
        CLR     A
??ZDSecMgrPermitJoining_2:
        MOVX    @DPTR,A
// 2431   }
// 2432 
// 2433   accept = TRUE;
// 2434 
// 2435   return accept;
??ZDSecMgrPermitJoining_1:
        MOV     R1,#0x1
        LJMP    ??Subroutine89_0 & 0xFFFF
          CFI EndBlock cfiBlock362
// 2436 }
// 2437 
// 2438 /******************************************************************************
// 2439  * @fn          ZDSecMgrPermitJoiningTimeout
// 2440  *
// 2441  * @brief       Process permit joining timeout
// 2442  *
// 2443  * @param       none
// 2444  *
// 2445  * @return      none
// 2446  */

        RSEG BANKED_CODE:CODE:NOROOT(0)
// 2447 void ZDSecMgrPermitJoiningTimeout( void )
ZDSecMgrPermitJoiningTimeout:
          CFI Block cfiBlock363 Using cfiCommon0
          CFI Function ZDSecMgrPermitJoiningTimeout
        CODE
// 2448 {
        PUSH    DPL
          CFI DPL0 Frame(CFA_SP, 4)
          CFI CFA_SP SP+-4
        PUSH    DPH
          CFI DPH0 Frame(CFA_SP, 5)
          CFI CFA_SP SP+-5
        ; Saved register size: 2
        ; Auto size: 0
// 2449   if ( ZDSecMgrPermitJoiningTimed == TRUE )
        MOV     DPTR,#ZDSecMgrPermitJoiningTimed
        MOVX    A,@DPTR
        XRL     A,#0x1
        JNZ     ??ZDSecMgrPermitJoiningTimeout_0
// 2450   {
// 2451     ZDSecMgrPermitJoiningEnabled = FALSE;
        MOV     DPTR,#ZDSecMgrPermitJoiningEnabled
        CLR     A
        MOVX    @DPTR,A
// 2452     ZDSecMgrPermitJoiningTimed   = FALSE;
        MOV     DPTR,#ZDSecMgrPermitJoiningTimed
        MOVX    @DPTR,A
// 2453   }
// 2454 }
??ZDSecMgrPermitJoiningTimeout_0:
        LJMP    ??Subroutine89_0 & 0xFFFF
          CFI EndBlock cfiBlock363
// 2455 
// 2456 /******************************************************************************
// 2457  * @fn          ZDSecMgrNewDeviceEvent
// 2458  *
// 2459  * @brief       Process a the new device event, if found reset new device
// 2460  *              event/timer.
// 2461  *
// 2462  * @param       none
// 2463  *
// 2464  * @return      uint8 - found(TRUE:FALSE)
// 2465  */

        RSEG BANKED_CODE:CODE:NOROOT(0)
// 2466 uint8 ZDSecMgrNewDeviceEvent( void )
ZDSecMgrNewDeviceEvent:
          CFI Block cfiBlock364 Using cfiCommon0
          CFI Function ZDSecMgrNewDeviceEvent
        CODE
// 2467 {
        FUNCALL ZDSecMgrNewDeviceEvent, AssocMatchDeviceStatus
        LOCFRAME ISTACK, 0, STACK
        LOCFRAME PSTACK, 0, STACK
        LOCFRAME XSTACK, 35, STACK
        LOCFRAME IOVERLAY, 0, STATIC
        LOCFRAME DOVERLAY, 0, STATIC
        ARGFRAME ISTACK, 0, STACK
        ARGFRAME PSTACK, 0, STACK
        ARGFRAME XSTACK, 35, STACK
        ARGFRAME IOVERLAY, 0, STATIC
        ARGFRAME DOVERLAY, 0, STATIC
        FUNCALL ZDSecMgrNewDeviceEvent, ZDSecMgrAssocDeviceAuth
        LOCFRAME ISTACK, 0, STACK
        LOCFRAME PSTACK, 0, STACK
        LOCFRAME XSTACK, 35, STACK
        LOCFRAME IOVERLAY, 0, STATIC
        LOCFRAME DOVERLAY, 0, STATIC
        ARGFRAME ISTACK, 0, STACK
        ARGFRAME PSTACK, 0, STACK
        ARGFRAME XSTACK, 35, STACK
        ARGFRAME IOVERLAY, 0, STATIC
        ARGFRAME DOVERLAY, 0, STATIC
        FUNCALL ZDSecMgrNewDeviceEvent, AddrMgrEntryGet
        LOCFRAME ISTACK, 0, STACK
        LOCFRAME PSTACK, 0, STACK
        LOCFRAME XSTACK, 35, STACK
        LOCFRAME IOVERLAY, 0, STATIC
        LOCFRAME DOVERLAY, 0, STATIC
        ARGFRAME ISTACK, 0, STACK
        ARGFRAME PSTACK, 0, STACK
        ARGFRAME XSTACK, 35, STACK
        ARGFRAME IOVERLAY, 0, STATIC
        ARGFRAME DOVERLAY, 0, STATIC
        FUNCALL ZDSecMgrNewDeviceEvent, NLME_GetShortAddr
        LOCFRAME ISTACK, 0, STACK
        LOCFRAME PSTACK, 0, STACK
        LOCFRAME XSTACK, 35, STACK
        LOCFRAME IOVERLAY, 0, STATIC
        LOCFRAME DOVERLAY, 0, STATIC
        ARGFRAME ISTACK, 0, STACK
        ARGFRAME PSTACK, 0, STACK
        ARGFRAME XSTACK, 35, STACK
        ARGFRAME IOVERLAY, 0, STATIC
        ARGFRAME DOVERLAY, 0, STATIC
        FUNCALL ZDSecMgrNewDeviceEvent, ZDSecMgrDeviceNew
        LOCFRAME ISTACK, 0, STACK
        LOCFRAME PSTACK, 0, STACK
        LOCFRAME XSTACK, 35, STACK
        LOCFRAME IOVERLAY, 0, STATIC
        LOCFRAME DOVERLAY, 0, STATIC
        ARGFRAME ISTACK, 0, STACK
        ARGFRAME PSTACK, 0, STACK
        ARGFRAME XSTACK, 35, STACK
        ARGFRAME IOVERLAY, 0, STATIC
        ARGFRAME DOVERLAY, 0, STATIC
        FUNCALL ZDSecMgrNewDeviceEvent, AssocRemove
        LOCFRAME ISTACK, 0, STACK
        LOCFRAME PSTACK, 0, STACK
        LOCFRAME XSTACK, 35, STACK
        LOCFRAME IOVERLAY, 0, STATIC
        LOCFRAME DOVERLAY, 0, STATIC
        ARGFRAME ISTACK, 0, STACK
        ARGFRAME PSTACK, 0, STACK
        ARGFRAME XSTACK, 35, STACK
        ARGFRAME IOVERLAY, 0, STATIC
        ARGFRAME DOVERLAY, 0, STATIC
        MOV     A,#-0xc
        LCALL   ?BANKED_ENTER_XDATA
          CFI DPH0 load(1, XDATA, add(CFA_XSP16, literal(-1)))
          CFI DPL0 load(1, XDATA, add(CFA_XSP16, literal(-2)))
          CFI ?BRET_EXT load(1, XDATA, add(CFA_XSP16, literal(-3)))
          CFI ?RET_HIGH load(1, XDATA, add(CFA_XSP16, literal(-4)))
          CFI ?RET_LOW load(1, XDATA, add(CFA_XSP16, literal(-5)))
          CFI R7 load(1, XDATA, add(CFA_XSP16, literal(-6)))
          CFI V3 load(1, XDATA, add(CFA_XSP16, literal(-7)))
          CFI V2 load(1, XDATA, add(CFA_XSP16, literal(-8)))
          CFI V1 load(1, XDATA, add(CFA_XSP16, literal(-9)))
          CFI V0 load(1, XDATA, add(CFA_XSP16, literal(-10)))
          CFI VB load(1, XDATA, add(CFA_XSP16, literal(-11)))
          CFI R6 load(1, XDATA, add(CFA_XSP16, literal(-12)))
          CFI CFA_SP SP+0
          CFI CFA_XSP16 add(XSP16, 12)
        ; Saved register size: 12
        ; Auto size: 23
        MOV     A,#-0x17
        LCALL   ?ALLOC_XSTACK8
          CFI CFA_XSP16 add(XSP16, 35)
// 2468   uint8                 found;
// 2469   ZDSecMgrDevice_t      device;
// 2470   AddrMgrEntry_t        addrEntry;
// 2471   associated_devices_t* assoc;
// 2472   ZStatus_t             status;
// 2473 
// 2474   // initialize return results
// 2475   found = FALSE;
        MOV     ?V0 + 0,#0x0
// 2476 
// 2477   // look for device in the security init state
// 2478   assoc = AssocMatchDeviceStatus( DEV_SEC_INIT_STATUS );
        ; Setup parameters for call to function AssocMatchDeviceStatus
        MOV     R1,#0x4
        LCALL   ??AssocMatchDeviceStatus?relay
        MOV     ?V0 + 2,R2
        MOV     ?V0 + 3,R3
        MOV     R6,?V0 + 2
        MOV     R7,?V0 + 3
// 2479 
// 2480   if ( assoc != NULL )
        MOV     A,R6
        ORL     A,R7
        JNZ     $+5
        LJMP    ??ZDSecMgrNewDeviceEvent_0 & 0xFFFF
// 2481   {
// 2482     // device found
// 2483     found = TRUE;
        MOV     ?V0 + 0,#0x1
// 2484 
// 2485     // check for preconfigured security
// 2486     if ( zgPreConfigKeys == TRUE )
        MOV     DPTR,#zgPreConfigKeys
        MOVX    A,@DPTR
        XRL     A,#0x1
        JNZ     ??ZDSecMgrNewDeviceEvent_1
// 2487     {
// 2488       // set association status to authenticated
// 2489       ZDSecMgrAssocDeviceAuth( assoc );
        ; Setup parameters for call to function ZDSecMgrAssocDeviceAuth
        LCALL   ??ZDSecMgrAssocDeviceAuth?relay
// 2490     }
// 2491 
// 2492     // set up device info
// 2493     addrEntry.user  = ADDRMGR_USER_DEFAULT;
??ZDSecMgrNewDeviceEvent_1:
        MOV     A,#0xa
        LCALL   ?XSTACK_DISP0_8
        CLR     A
        MOVX    @DPTR,A
// 2494     addrEntry.index = assoc->addrIdx;
        MOV     DPL,R6
        MOV     DPH,R7
        INC     DPTR
        INC     DPTR
        LCALL   ??Subroutine95_0 & 0xFFFF
??CrossCallReturnLabel_206:
        MOV     A,#0x15
        LCALL   ?XSTACK_DISP0_8
        LCALL   ??Subroutine92_0 & 0xFFFF
// 2495     AddrMgrEntryGet( &addrEntry );
??CrossCallReturnLabel_194:
        LCALL   ?XSTACK_DISP0_8
        MOV     R2,DPL
        MOV     R3,DPH
        LCALL   ??AddrMgrEntryGet?relay
// 2496 
// 2497     device.nwkAddr    = assoc->shortAddr;
        MOV     DPL,R6
        MOV     DPH,R7
        LCALL   ?Subroutine34 & 0xFFFF
// 2498     device.extAddr    = addrEntry.extAddr;
??CrossCallReturnLabel_167:
        MOV     A,#0xd
        LCALL   ?XSTACK_DISP0_8
        MOV     R0,DPL
        MOV     R1,DPH
        MOV     A,#0x2
        LCALL   ?XSTACK_DISP0_8
        LCALL   ??Subroutine87_0 & 0xFFFF
// 2499     device.parentAddr = NLME_GetShortAddr();
??CrossCallReturnLabel_160:
        ; Setup parameters for call to function NLME_GetShortAddr
        LCALL   ??NLME_GetShortAddr?relay
        MOV     A,#0x4
        LCALL   ?XSTACK_DISP0_8
        LCALL   ?Subroutine36 & 0xFFFF
// 2500     device.secure     = FALSE;
??CrossCallReturnLabel_38:
        MOV     A,#0x6
        LCALL   ?XSTACK_DISP0_8
        CLR     A
        MOVX    @DPTR,A
// 2501     device.devStatus  = assoc->devStatus;
        MOV     A,R6
        ADD     A,#0x5
        MOV     R0,A
        MOV     A,R7
        ADDC    A,#0x0
        MOV     R1,A
        MOV     A,R0
        MOV     R6,A
        MOV     A,R1
        MOV     R7,A
        MOV     DPL,R6
        MOV     DPH,R7
        MOVX    A,@DPTR
        PUSH    A
          CFI CFA_SP SP+-1
        MOV     A,#0x7
        LCALL   ?XSTACK_DISP0_8
        POP     A
          CFI CFA_SP SP+0
        LCALL   ??Subroutine90_0 & 0xFFFF
// 2502 
// 2503     // process new device
// 2504     status = ZDSecMgrDeviceNew( &device );
??CrossCallReturnLabel_184:
        LCALL   ??ZDSecMgrDeviceNew?relay
        MOV     A,R1
        MOV     R0,A
// 2505 
// 2506     if ( status == ZSuccess )
        JNZ     ??ZDSecMgrNewDeviceEvent_2
// 2507     {
// 2508       assoc->devStatus &= ~DEV_SEC_INIT_STATUS;
        MOV     DPL,R6
        MOV     DPH,R7
        MOVX    A,@DPTR
        CLR     0xE0 /* A   */.2
        MOVX    @DPTR,A
        SJMP    ??ZDSecMgrNewDeviceEvent_0
// 2509     }
// 2510     else if ( status == ZNwkUnknownDevice )
??ZDSecMgrNewDeviceEvent_2:
        MOV     A,#-0x38
        XRL     A,R0
        JNZ     ??ZDSecMgrNewDeviceEvent_0
// 2511     {
// 2512       AssocRemove( addrEntry.extAddr );
        ; Setup parameters for call to function AssocRemove
        MOV     A,#0xd
        LCALL   ?XSTACK_DISP0_8
        MOV     R2,DPL
        MOV     R3,DPH
        LCALL   ??AssocRemove?relay
// 2513     }
// 2514   }
// 2515 
// 2516   return found;
??ZDSecMgrNewDeviceEvent_0:
        MOV     R1,?V0 + 0
        MOV     A,#0x17
        LJMP    ??Subroutine97_0 & 0xFFFF
          CFI EndBlock cfiBlock364
// 2517 }
// 2518 
// 2519 /******************************************************************************
// 2520  * @fn          ZDSecMgrEvent
// 2521  *
// 2522  * @brief       Handle ZDO Security Manager event/timer(ZDO_SECMGR_EVENT).
// 2523  *
// 2524  * @param       none
// 2525  *
// 2526  * @return      none
// 2527  */

        RSEG BANKED_CODE:CODE:NOROOT(0)
?Subroutine14:
          CFI Block cfiCond365 Using cfiCommon0
          CFI Function ZDSecMgrEvent
          CFI Conditional ??CrossCallReturnLabel_171
          CFI R6 load(1, XDATA, add(CFA_XSP16, literal(-10)))
          CFI VB load(1, XDATA, add(CFA_XSP16, literal(-9)))
          CFI V0 load(1, XDATA, add(CFA_XSP16, literal(-8)))
          CFI V1 load(1, XDATA, add(CFA_XSP16, literal(-7)))
          CFI R7 load(1, XDATA, add(CFA_XSP16, literal(-6)))
          CFI ?RET_LOW load(1, XDATA, add(CFA_XSP16, literal(-5)))
          CFI ?RET_HIGH load(1, XDATA, add(CFA_XSP16, literal(-4)))
          CFI ?BRET_EXT load(1, XDATA, add(CFA_XSP16, literal(-3)))
          CFI DPL0 load(1, XDATA, add(CFA_XSP16, literal(-2)))
          CFI DPH0 load(1, XDATA, add(CFA_XSP16, literal(-1)))
          CFI CFA_SP SP+0
          CFI CFA_XSP16 add(XSP16, 33)
          CFI Block cfiCond366 Using cfiCommon0
          CFI (cfiCond366) Function ZDSecMgrUpdateDeviceInd
          CFI (cfiCond366) Conditional ??CrossCallReturnLabel_172
          CFI (cfiCond366) DPL0 Frame(CFA_SP, 4)
          CFI (cfiCond366) DPH0 Frame(CFA_SP, 5)
          CFI (cfiCond366) CFA_SP SP+-5
          CFI (cfiCond366) CFA_XSP16 add(XSP16, 10)
          CFI Block cfiCond367 Using cfiCommon0
          CFI (cfiCond367) Function ZDSecMgrAuthenticateInd
          CFI (cfiCond367) Conditional ??CrossCallReturnLabel_173
          CFI (cfiCond367) R6 load(1, XDATA, add(CFA_XSP16, literal(-12)))
          CFI (cfiCond367) VB load(1, XDATA, add(CFA_XSP16, literal(-11)))
          CFI (cfiCond367) V0 load(1, XDATA, add(CFA_XSP16, literal(-10)))
          CFI (cfiCond367) V1 load(1, XDATA, add(CFA_XSP16, literal(-9)))
          CFI (cfiCond367) V2 load(1, XDATA, add(CFA_XSP16, literal(-8)))
          CFI (cfiCond367) V3 load(1, XDATA, add(CFA_XSP16, literal(-7)))
          CFI (cfiCond367) R7 load(1, XDATA, add(CFA_XSP16, literal(-6)))
          CFI (cfiCond367) ?RET_LOW load(1, XDATA, add(CFA_XSP16, literal(-5)))
          CFI (cfiCond367) ?RET_HIGH load(1, XDATA, add(CFA_XSP16, literal(-4)))
          CFI (cfiCond367) ?BRET_EXT load(1, XDATA, add(CFA_XSP16, literal(-3)))
          CFI (cfiCond367) DPL0 load(1, XDATA, add(CFA_XSP16, literal(-2)))
          CFI (cfiCond367) DPH0 load(1, XDATA, add(CFA_XSP16, literal(-1)))
          CFI (cfiCond367) CFA_SP SP+0
          CFI (cfiCond367) CFA_XSP16 add(XSP16, 32)
          CFI Block cfiCond368 Using cfiCommon0
          CFI (cfiCond368) Function ZDSecMgrRequestAppKey
          CFI (cfiCond368) Conditional ??CrossCallReturnLabel_174
          CFI (cfiCond368) DPL0 Frame(CFA_SP, 4)
          CFI (cfiCond368) DPH0 Frame(CFA_SP, 5)
          CFI (cfiCond368) CFA_SP SP+-5
          CFI (cfiCond368) CFA_XSP16 add(XSP16, 12)
          CFI Block cfiCond369 Using cfiCommon0
          CFI (cfiCond369) Function ZDSecMgrAPSRemove
          CFI (cfiCond369) Conditional ??CrossCallReturnLabel_175
          CFI (cfiCond369) DPL0 Frame(CFA_SP, 4)
          CFI (cfiCond369) DPH0 Frame(CFA_SP, 5)
          CFI (cfiCond369) CFA_SP SP+-5
          CFI (cfiCond369) CFA_XSP16 add(XSP16, 10)
          CFI Block cfiPicker370 Using cfiCommon1
          CFI (cfiPicker370) NoFunction
          CFI (cfiPicker370) Picker
        MOV     A,R0
        MOVX    @DPTR,A
        INC     DPTR
        MOV     A,R1
          CFI EndBlock cfiCond365
          CFI EndBlock cfiCond366
          CFI EndBlock cfiCond367
          CFI EndBlock cfiCond368
          CFI EndBlock cfiCond369
          CFI EndBlock cfiPicker370
        REQUIRE ??Subroutine90_0
        ; // Fall through to label ??Subroutine90_0

        RSEG BANKED_CODE:CODE:NOROOT(0)
??Subroutine90_0:
          CFI Block cfiCond371 Using cfiCommon0
          CFI Function ZDSecMgrEntryLookup
          CFI Conditional ??CrossCallReturnLabel_176
          CFI R6 load(1, XDATA, add(CFA_XSP16, literal(-10)))
          CFI VB load(1, XDATA, add(CFA_XSP16, literal(-9)))
          CFI V0 load(1, XDATA, add(CFA_XSP16, literal(-8)))
          CFI V1 load(1, XDATA, add(CFA_XSP16, literal(-7)))
          CFI R7 load(1, XDATA, add(CFA_XSP16, literal(-6)))
          CFI ?RET_LOW load(1, XDATA, add(CFA_XSP16, literal(-5)))
          CFI ?RET_HIGH load(1, XDATA, add(CFA_XSP16, literal(-4)))
          CFI ?BRET_EXT load(1, XDATA, add(CFA_XSP16, literal(-3)))
          CFI DPL0 load(1, XDATA, add(CFA_XSP16, literal(-2)))
          CFI DPH0 load(1, XDATA, add(CFA_XSP16, literal(-1)))
          CFI CFA_SP SP+0
          CFI CFA_XSP16 add(XSP16, 23)
          CFI Block cfiCond372 Using cfiCommon0
          CFI (cfiCond372) Function ZDSecMgrEstablishKey
          CFI (cfiCond372) Conditional ??CrossCallReturnLabel_177
          CFI (cfiCond372) R6 load(1, XDATA, add(CFA_XSP16, literal(-10)))
          CFI (cfiCond372) VB load(1, XDATA, add(CFA_XSP16, literal(-9)))
          CFI (cfiCond372) V0 load(1, XDATA, add(CFA_XSP16, literal(-8)))
          CFI (cfiCond372) V1 load(1, XDATA, add(CFA_XSP16, literal(-7)))
          CFI (cfiCond372) R7 load(1, XDATA, add(CFA_XSP16, literal(-6)))
          CFI (cfiCond372) ?RET_LOW load(1, XDATA, add(CFA_XSP16, literal(-5)))
          CFI (cfiCond372) ?RET_HIGH load(1, XDATA, add(CFA_XSP16, literal(-4)))
          CFI (cfiCond372) ?BRET_EXT load(1, XDATA, add(CFA_XSP16, literal(-3)))
          CFI (cfiCond372) DPL0 load(1, XDATA, add(CFA_XSP16, literal(-2)))
          CFI (cfiCond372) DPH0 load(1, XDATA, add(CFA_XSP16, literal(-1)))
          CFI (cfiCond372) CFA_SP SP+0
          CFI (cfiCond372) CFA_XSP16 add(XSP16, 17)
          CFI Block cfiCond373 Using cfiCommon0
          CFI (cfiCond373) Function ZDSecMgrSendMasterKey
          CFI (cfiCond373) Conditional ??CrossCallReturnLabel_178
          CFI (cfiCond373) R6 load(1, XDATA, add(CFA_XSP16, literal(-10)))
          CFI (cfiCond373) VB load(1, XDATA, add(CFA_XSP16, literal(-9)))
          CFI (cfiCond373) V0 load(1, XDATA, add(CFA_XSP16, literal(-8)))
          CFI (cfiCond373) V1 load(1, XDATA, add(CFA_XSP16, literal(-7)))
          CFI (cfiCond373) R7 load(1, XDATA, add(CFA_XSP16, literal(-6)))
          CFI (cfiCond373) ?RET_LOW load(1, XDATA, add(CFA_XSP16, literal(-5)))
          CFI (cfiCond373) ?RET_HIGH load(1, XDATA, add(CFA_XSP16, literal(-4)))
          CFI (cfiCond373) ?BRET_EXT load(1, XDATA, add(CFA_XSP16, literal(-3)))
          CFI (cfiCond373) DPL0 load(1, XDATA, add(CFA_XSP16, literal(-2)))
          CFI (cfiCond373) DPH0 load(1, XDATA, add(CFA_XSP16, literal(-1)))
          CFI (cfiCond373) CFA_SP SP+0
          CFI (cfiCond373) CFA_XSP16 add(XSP16, 23)
          CFI Block cfiCond374 Using cfiCommon0
          CFI (cfiCond374) Function ZDSecMgrAddrMgrUpdate
          CFI (cfiCond374) Conditional ??CrossCallReturnLabel_179
          CFI (cfiCond374) R6 load(1, XDATA, add(CFA_XSP16, literal(-9)))
          CFI (cfiCond374) VB load(1, XDATA, add(CFA_XSP16, literal(-8)))
          CFI (cfiCond374) V0 load(1, XDATA, add(CFA_XSP16, literal(-7)))
          CFI (cfiCond374) R7 load(1, XDATA, add(CFA_XSP16, literal(-6)))
          CFI (cfiCond374) ?RET_LOW load(1, XDATA, add(CFA_XSP16, literal(-5)))
          CFI (cfiCond374) ?RET_HIGH load(1, XDATA, add(CFA_XSP16, literal(-4)))
          CFI (cfiCond374) ?BRET_EXT load(1, XDATA, add(CFA_XSP16, literal(-3)))
          CFI (cfiCond374) DPL0 load(1, XDATA, add(CFA_XSP16, literal(-2)))
          CFI (cfiCond374) DPH0 load(1, XDATA, add(CFA_XSP16, literal(-1)))
          CFI (cfiCond374) CFA_SP SP+0
          CFI (cfiCond374) CFA_XSP16 add(XSP16, 22)
          CFI Block cfiCond375 Using cfiCommon0
          CFI (cfiCond375) Function ZDSecMgrAddrMgrUpdate
          CFI (cfiCond375) Conditional ??CrossCallReturnLabel_180
          CFI (cfiCond375) R6 load(1, XDATA, add(CFA_XSP16, literal(-9)))
          CFI (cfiCond375) VB load(1, XDATA, add(CFA_XSP16, literal(-8)))
          CFI (cfiCond375) V0 load(1, XDATA, add(CFA_XSP16, literal(-7)))
          CFI (cfiCond375) R7 load(1, XDATA, add(CFA_XSP16, literal(-6)))
          CFI (cfiCond375) ?RET_LOW load(1, XDATA, add(CFA_XSP16, literal(-5)))
          CFI (cfiCond375) ?RET_HIGH load(1, XDATA, add(CFA_XSP16, literal(-4)))
          CFI (cfiCond375) ?BRET_EXT load(1, XDATA, add(CFA_XSP16, literal(-3)))
          CFI (cfiCond375) DPL0 load(1, XDATA, add(CFA_XSP16, literal(-2)))
          CFI (cfiCond375) DPH0 load(1, XDATA, add(CFA_XSP16, literal(-1)))
          CFI (cfiCond375) CFA_SP SP+0
          CFI (cfiCond375) CFA_XSP16 add(XSP16, 22)
          CFI Block cfiCond376 Using cfiCommon0
          CFI (cfiCond376) Function ZDSecMgrDeviceRemove
          CFI (cfiCond376) Conditional ??CrossCallReturnLabel_181
          CFI (cfiCond376) R6 load(1, XDATA, add(CFA_XSP16, literal(-10)))
          CFI (cfiCond376) VB load(1, XDATA, add(CFA_XSP16, literal(-9)))
          CFI (cfiCond376) V0 load(1, XDATA, add(CFA_XSP16, literal(-8)))
          CFI (cfiCond376) V1 load(1, XDATA, add(CFA_XSP16, literal(-7)))
          CFI (cfiCond376) R7 load(1, XDATA, add(CFA_XSP16, literal(-6)))
          CFI (cfiCond376) ?RET_LOW load(1, XDATA, add(CFA_XSP16, literal(-5)))
          CFI (cfiCond376) ?RET_HIGH load(1, XDATA, add(CFA_XSP16, literal(-4)))
          CFI (cfiCond376) ?BRET_EXT load(1, XDATA, add(CFA_XSP16, literal(-3)))
          CFI (cfiCond376) DPL0 load(1, XDATA, add(CFA_XSP16, literal(-2)))
          CFI (cfiCond376) DPH0 load(1, XDATA, add(CFA_XSP16, literal(-1)))
          CFI (cfiCond376) CFA_SP SP+0
          CFI (cfiCond376) CFA_XSP16 add(XSP16, 19)
          CFI Block cfiCond377 Using cfiCommon0
          CFI (cfiCond377) Function ZDSecMgrDeviceJoinFwd
          CFI (cfiCond377) Conditional ??CrossCallReturnLabel_182
          CFI (cfiCond377) DPL0 Frame(CFA_SP, 4)
          CFI (cfiCond377) DPH0 Frame(CFA_SP, 5)
          CFI (cfiCond377) CFA_SP SP+-5
          CFI (cfiCond377) CFA_XSP16 add(XSP16, 8)
          CFI Block cfiCond378 Using cfiCommon0
          CFI (cfiCond378) Function ZDSecMgrAuthInitiate
          CFI (cfiCond378) Conditional ??CrossCallReturnLabel_183
          CFI (cfiCond378) R6 load(1, XDATA, add(CFA_XSP16, literal(-9)))
          CFI (cfiCond378) VB load(1, XDATA, add(CFA_XSP16, literal(-8)))
          CFI (cfiCond378) V0 load(1, XDATA, add(CFA_XSP16, literal(-7)))
          CFI (cfiCond378) R7 load(1, XDATA, add(CFA_XSP16, literal(-6)))
          CFI (cfiCond378) ?RET_LOW load(1, XDATA, add(CFA_XSP16, literal(-5)))
          CFI (cfiCond378) ?RET_HIGH load(1, XDATA, add(CFA_XSP16, literal(-4)))
          CFI (cfiCond378) ?BRET_EXT load(1, XDATA, add(CFA_XSP16, literal(-3)))
          CFI (cfiCond378) DPL0 load(1, XDATA, add(CFA_XSP16, literal(-2)))
          CFI (cfiCond378) DPH0 load(1, XDATA, add(CFA_XSP16, literal(-1)))
          CFI (cfiCond378) CFA_SP SP+0
          CFI (cfiCond378) CFA_XSP16 add(XSP16, 16)
          CFI Block cfiCond379 Using cfiCommon0
          CFI (cfiCond379) Function ZDSecMgrNewDeviceEvent
          CFI (cfiCond379) Conditional ??CrossCallReturnLabel_184
          CFI (cfiCond379) R6 load(1, XDATA, add(CFA_XSP16, literal(-12)))
          CFI (cfiCond379) VB load(1, XDATA, add(CFA_XSP16, literal(-11)))
          CFI (cfiCond379) V0 load(1, XDATA, add(CFA_XSP16, literal(-10)))
          CFI (cfiCond379) V1 load(1, XDATA, add(CFA_XSP16, literal(-9)))
          CFI (cfiCond379) V2 load(1, XDATA, add(CFA_XSP16, literal(-8)))
          CFI (cfiCond379) V3 load(1, XDATA, add(CFA_XSP16, literal(-7)))
          CFI (cfiCond379) R7 load(1, XDATA, add(CFA_XSP16, literal(-6)))
          CFI (cfiCond379) ?RET_LOW load(1, XDATA, add(CFA_XSP16, literal(-5)))
          CFI (cfiCond379) ?RET_HIGH load(1, XDATA, add(CFA_XSP16, literal(-4)))
          CFI (cfiCond379) ?BRET_EXT load(1, XDATA, add(CFA_XSP16, literal(-3)))
          CFI (cfiCond379) DPL0 load(1, XDATA, add(CFA_XSP16, literal(-2)))
          CFI (cfiCond379) DPH0 load(1, XDATA, add(CFA_XSP16, literal(-1)))
          CFI (cfiCond379) CFA_SP SP+0
          CFI (cfiCond379) CFA_XSP16 add(XSP16, 35)
          CFI Block cfiCond380 Using cfiCommon0
          CFI (cfiCond380) Function ZDSecMgrEstablishKeyInd
          CFI (cfiCond380) Conditional ??CrossCallReturnLabel_185
          CFI (cfiCond380) R6 load(1, XDATA, add(CFA_XSP16, literal(-12)))
          CFI (cfiCond380) VB load(1, XDATA, add(CFA_XSP16, literal(-11)))
          CFI (cfiCond380) V0 load(1, XDATA, add(CFA_XSP16, literal(-10)))
          CFI (cfiCond380) V1 load(1, XDATA, add(CFA_XSP16, literal(-9)))
          CFI (cfiCond380) V2 load(1, XDATA, add(CFA_XSP16, literal(-8)))
          CFI (cfiCond380) V3 load(1, XDATA, add(CFA_XSP16, literal(-7)))
          CFI (cfiCond380) R7 load(1, XDATA, add(CFA_XSP16, literal(-6)))
          CFI (cfiCond380) ?RET_LOW load(1, XDATA, add(CFA_XSP16, literal(-5)))
          CFI (cfiCond380) ?RET_HIGH load(1, XDATA, add(CFA_XSP16, literal(-4)))
          CFI (cfiCond380) ?BRET_EXT load(1, XDATA, add(CFA_XSP16, literal(-3)))
          CFI (cfiCond380) DPL0 load(1, XDATA, add(CFA_XSP16, literal(-2)))
          CFI (cfiCond380) DPH0 load(1, XDATA, add(CFA_XSP16, literal(-1)))
          CFI (cfiCond380) CFA_SP SP+0
          CFI (cfiCond380) CFA_XSP16 add(XSP16, 29)
          CFI Block cfiCond381 Using cfiCommon0
          CFI (cfiCond381) Function ZDSecMgrRemoveDeviceInd
          CFI (cfiCond381) Conditional ??CrossCallReturnLabel_186
          CFI (cfiCond381) R6 load(1, XDATA, add(CFA_XSP16, literal(-9)))
          CFI (cfiCond381) VB load(1, XDATA, add(CFA_XSP16, literal(-8)))
          CFI (cfiCond381) V0 load(1, XDATA, add(CFA_XSP16, literal(-7)))
          CFI (cfiCond381) R7 load(1, XDATA, add(CFA_XSP16, literal(-6)))
          CFI (cfiCond381) ?RET_LOW load(1, XDATA, add(CFA_XSP16, literal(-5)))
          CFI (cfiCond381) ?RET_HIGH load(1, XDATA, add(CFA_XSP16, literal(-4)))
          CFI (cfiCond381) ?BRET_EXT load(1, XDATA, add(CFA_XSP16, literal(-3)))
          CFI (cfiCond381) DPL0 load(1, XDATA, add(CFA_XSP16, literal(-2)))
          CFI (cfiCond381) DPH0 load(1, XDATA, add(CFA_XSP16, literal(-1)))
          CFI (cfiCond381) CFA_SP SP+0
          CFI (cfiCond381) CFA_XSP16 add(XSP16, 19)
          CFI Block cfiCond382 Using cfiCommon0
          CFI (cfiCond382) Function ZDSecMgrEvent
          CFI (cfiCond382) Conditional ??CrossCallReturnLabel_171
          CFI (cfiCond382) R6 load(1, XDATA, add(CFA_XSP16, literal(-10)))
          CFI (cfiCond382) VB load(1, XDATA, add(CFA_XSP16, literal(-9)))
          CFI (cfiCond382) V0 load(1, XDATA, add(CFA_XSP16, literal(-8)))
          CFI (cfiCond382) V1 load(1, XDATA, add(CFA_XSP16, literal(-7)))
          CFI (cfiCond382) R7 load(1, XDATA, add(CFA_XSP16, literal(-6)))
          CFI (cfiCond382) ?RET_LOW load(1, XDATA, add(CFA_XSP16, literal(-5)))
          CFI (cfiCond382) ?RET_HIGH load(1, XDATA, add(CFA_XSP16, literal(-4)))
          CFI (cfiCond382) ?BRET_EXT load(1, XDATA, add(CFA_XSP16, literal(-3)))
          CFI (cfiCond382) DPL0 load(1, XDATA, add(CFA_XSP16, literal(-2)))
          CFI (cfiCond382) DPH0 load(1, XDATA, add(CFA_XSP16, literal(-1)))
          CFI (cfiCond382) CFA_SP SP+0
          CFI (cfiCond382) CFA_XSP16 add(XSP16, 33)
          CFI Block cfiCond383 Using cfiCommon0
          CFI (cfiCond383) Function ZDSecMgrUpdateDeviceInd
          CFI (cfiCond383) Conditional ??CrossCallReturnLabel_172
          CFI (cfiCond383) DPL0 Frame(CFA_SP, 4)
          CFI (cfiCond383) DPH0 Frame(CFA_SP, 5)
          CFI (cfiCond383) CFA_SP SP+-5
          CFI (cfiCond383) CFA_XSP16 add(XSP16, 10)
          CFI Block cfiCond384 Using cfiCommon0
          CFI (cfiCond384) Function ZDSecMgrAuthenticateInd
          CFI (cfiCond384) Conditional ??CrossCallReturnLabel_173
          CFI (cfiCond384) R6 load(1, XDATA, add(CFA_XSP16, literal(-12)))
          CFI (cfiCond384) VB load(1, XDATA, add(CFA_XSP16, literal(-11)))
          CFI (cfiCond384) V0 load(1, XDATA, add(CFA_XSP16, literal(-10)))
          CFI (cfiCond384) V1 load(1, XDATA, add(CFA_XSP16, literal(-9)))
          CFI (cfiCond384) V2 load(1, XDATA, add(CFA_XSP16, literal(-8)))
          CFI (cfiCond384) V3 load(1, XDATA, add(CFA_XSP16, literal(-7)))
          CFI (cfiCond384) R7 load(1, XDATA, add(CFA_XSP16, literal(-6)))
          CFI (cfiCond384) ?RET_LOW load(1, XDATA, add(CFA_XSP16, literal(-5)))
          CFI (cfiCond384) ?RET_HIGH load(1, XDATA, add(CFA_XSP16, literal(-4)))
          CFI (cfiCond384) ?BRET_EXT load(1, XDATA, add(CFA_XSP16, literal(-3)))
          CFI (cfiCond384) DPL0 load(1, XDATA, add(CFA_XSP16, literal(-2)))
          CFI (cfiCond384) DPH0 load(1, XDATA, add(CFA_XSP16, literal(-1)))
          CFI (cfiCond384) CFA_SP SP+0
          CFI (cfiCond384) CFA_XSP16 add(XSP16, 32)
          CFI Block cfiCond385 Using cfiCommon0
          CFI (cfiCond385) Function ZDSecMgrRequestAppKey
          CFI (cfiCond385) Conditional ??CrossCallReturnLabel_174
          CFI (cfiCond385) DPL0 Frame(CFA_SP, 4)
          CFI (cfiCond385) DPH0 Frame(CFA_SP, 5)
          CFI (cfiCond385) CFA_SP SP+-5
          CFI (cfiCond385) CFA_XSP16 add(XSP16, 12)
          CFI Block cfiCond386 Using cfiCommon0
          CFI (cfiCond386) Function ZDSecMgrAPSRemove
          CFI (cfiCond386) Conditional ??CrossCallReturnLabel_175
          CFI (cfiCond386) DPL0 Frame(CFA_SP, 4)
          CFI (cfiCond386) DPH0 Frame(CFA_SP, 5)
          CFI (cfiCond386) CFA_SP SP+-5
          CFI (cfiCond386) CFA_XSP16 add(XSP16, 10)
          CFI Block cfiPicker387 Using cfiCommon1
          CFI (cfiPicker387) NoFunction
          CFI (cfiPicker387) Picker
        MOVX    @DPTR,A
        ; Setup parameters for call to function ZDSecMgrDeviceCtrlHandler
        ; Setup parameters for call to function ZDSecMgrDeviceJoin
        ; Setup parameters for call to function APSME_AuthenticateReq
        ; Setup parameters for call to function APSME_RequestKeyReq
        ; Setup parameters for call to function ZDSecMgrDeviceRemove
        ; Setup parameters for call to function AddrMgrEntryLookupNwk
        ; Setup parameters for call to function APSME_EstablishKeyReq
        ; Setup parameters for call to function APSME_TransportKeyReq
        ; Setup parameters for call to function AddrMgrEntryGet
        ; Setup parameters for call to function AddrMgrEntryUpdate
        ; Setup parameters for call to function NLME_LeaveReq
        ; Setup parameters for call to function APSME_UpdateDeviceReq
        ; Setup parameters for call to function APSME_AuthenticateReq
        ; Setup parameters for call to function ZDSecMgrDeviceNew
        ; Setup parameters for call to function APSME_EstablishKeyRsp
        ; Setup parameters for call to function ZDSecMgrDeviceRemove
        MOV     DPL,?XSP + 0
        MOV     DPH,?XSP + 1
        MOV     R2,DPL
        MOV     R3,DPH
        RET
          CFI EndBlock cfiCond371
          CFI EndBlock cfiCond372
          CFI EndBlock cfiCond373
          CFI EndBlock cfiCond374
          CFI EndBlock cfiCond375
          CFI EndBlock cfiCond376
          CFI EndBlock cfiCond377
          CFI EndBlock cfiCond378
          CFI EndBlock cfiCond379
          CFI EndBlock cfiCond380
          CFI EndBlock cfiCond381
          CFI EndBlock cfiCond382
          CFI EndBlock cfiCond383
          CFI EndBlock cfiCond384
          CFI EndBlock cfiCond385
          CFI EndBlock cfiCond386
          CFI EndBlock cfiPicker387

        RSEG BANKED_CODE:CODE:NOROOT(0)
// 2528 void ZDSecMgrEvent( void )
ZDSecMgrEvent:
          CFI Block cfiBlock388 Using cfiCommon0
          CFI Function ZDSecMgrEvent
        CODE
// 2529 {
        FUNCALL ZDSecMgrEvent, AddrMgrEntryGet
        LOCFRAME ISTACK, 0, STACK
        LOCFRAME PSTACK, 0, STACK
        LOCFRAME XSTACK, 33, STACK
        LOCFRAME IOVERLAY, 0, STATIC
        LOCFRAME DOVERLAY, 0, STATIC
        ARGFRAME ISTACK, 0, STACK
        ARGFRAME PSTACK, 0, STACK
        ARGFRAME XSTACK, 33, STACK
        ARGFRAME IOVERLAY, 0, STATIC
        ARGFRAME DOVERLAY, 0, STATIC
        FUNCALL ZDSecMgrEvent, ZDSecMgrDeviceCtrlHandler
        LOCFRAME ISTACK, 0, STACK
        LOCFRAME PSTACK, 0, STACK
        LOCFRAME XSTACK, 33, STACK
        LOCFRAME IOVERLAY, 0, STATIC
        LOCFRAME DOVERLAY, 0, STATIC
        ARGFRAME ISTACK, 0, STACK
        ARGFRAME PSTACK, 0, STACK
        ARGFRAME XSTACK, 33, STACK
        ARGFRAME IOVERLAY, 0, STATIC
        ARGFRAME DOVERLAY, 0, STATIC
        FUNCALL ZDSecMgrEvent, osal_start_timerEx
        LOCFRAME ISTACK, 0, STACK
        LOCFRAME PSTACK, 0, STACK
        LOCFRAME XSTACK, 33, STACK
        LOCFRAME IOVERLAY, 0, STATIC
        LOCFRAME DOVERLAY, 0, STATIC
        ARGFRAME ISTACK, 0, STACK
        ARGFRAME PSTACK, 0, STACK
        ARGFRAME XSTACK, 33, STACK
        ARGFRAME IOVERLAY, 0, STATIC
        ARGFRAME DOVERLAY, 0, STATIC
        MOV     A,#-0xa
        LCALL   ?BANKED_ENTER_XDATA
          CFI DPH0 load(1, XDATA, add(CFA_XSP16, literal(-1)))
          CFI DPL0 load(1, XDATA, add(CFA_XSP16, literal(-2)))
          CFI ?BRET_EXT load(1, XDATA, add(CFA_XSP16, literal(-3)))
          CFI ?RET_HIGH load(1, XDATA, add(CFA_XSP16, literal(-4)))
          CFI ?RET_LOW load(1, XDATA, add(CFA_XSP16, literal(-5)))
          CFI R7 load(1, XDATA, add(CFA_XSP16, literal(-6)))
          CFI V1 load(1, XDATA, add(CFA_XSP16, literal(-7)))
          CFI V0 load(1, XDATA, add(CFA_XSP16, literal(-8)))
          CFI VB load(1, XDATA, add(CFA_XSP16, literal(-9)))
          CFI R6 load(1, XDATA, add(CFA_XSP16, literal(-10)))
          CFI CFA_SP SP+0
          CFI CFA_XSP16 add(XSP16, 10)
        ; Saved register size: 10
        ; Auto size: 23
        MOV     A,#-0x17
        LCALL   ?ALLOC_XSTACK8
          CFI CFA_XSP16 add(XSP16, 33)
// 2530   uint8            action;
// 2531   uint8            restart;
// 2532   uint16           index;
// 2533   AddrMgrEntry_t   entry;
// 2534   ZDSecMgrDevice_t device;
// 2535 
// 2536 
// 2537   // verify data is available
// 2538   if ( ZDSecMgrCtrlData != NULL )
        MOV     DPTR,#ZDSecMgrCtrlData
        LCALL   ??Subroutine100_0 & 0xFFFF
??CrossCallReturnLabel_228:
        JNZ     $+5
        LJMP    ??ZDSecMgrEvent_0 & 0xFFFF
// 2539   {
// 2540     action  = FALSE;
        MOV     ?V0 + 0,#0x0
// 2541     restart = FALSE;
        MOV     ?V0 + 1,#0x0
// 2542 
// 2543     // update all the counters
// 2544     for ( index = 0; index < ZDSECMGR_ENTRY_MAX; index++ )
        MOV     R6,#0x0
        MOV     R7,#0x0
// 2545     {
// 2546       if ( ZDSecMgrCtrlData[index].state !=  ZDSECMGR_CTRL_NONE )
??ZDSecMgrEvent_1:
        MOV     A,R6
        MOV     R0,A
        MOV     A,R7
        MOV     R1,A
        MOV     A,R0
        MOV     B,#0x7
        MUL     AB
        MOV     R0,A
        MOV     R2,B
        MOV     B,#0x7
        MOV     A,R1
        MUL     AB
        ADD     A,R2
        MOV     R1,A
        MOV     DPTR,#ZDSecMgrCtrlData
        MOVX    A,@DPTR
        ADD     A,R0
        MOV     R2,A
        INC     DPTR
        MOVX    A,@DPTR
        ADDC    A,R1
        MOV     R3,A
        MOV     DPL,R2
        MOV     DPH,R3
        INC     DPTR
        INC     DPTR
        INC     DPTR
        INC     DPTR
        INC     DPTR
        MOVX    A,@DPTR
        JNZ     $+5
        LJMP    ??ZDSecMgrEvent_2 & 0xFFFF
// 2547       {
// 2548         if ( ZDSecMgrCtrlData[index].cntr != 0 )
        MOV     A,R2
        ADD     A,#0x6
        LCALL   ?Subroutine58 & 0xFFFF
??CrossCallReturnLabel_189:
        JZ      ??ZDSecMgrEvent_3
// 2549         {
// 2550           ZDSecMgrCtrlData[index].cntr--;
        DEC     A
        MOVX    @DPTR,A
// 2551         }
// 2552 
// 2553         if ( ( action == FALSE ) && ( ZDSecMgrCtrlData[index].cntr == 0 ) )
??ZDSecMgrEvent_3:
        MOV     A,?V0 + 0
        MOV     C,0xE0 /* A   */.0
        JNC     $+5
        LJMP    ??ZDSecMgrEvent_4 & 0xFFFF
        MOV     DPTR,#ZDSecMgrCtrlData
        MOVX    A,@DPTR
        ADD     A,R0
        MOV     R0,A
        INC     DPTR
        MOVX    A,@DPTR
        ADDC    A,R1
        MOV     R1,A
        MOV     DPL,R0
        MOV     DPH,R1
        INC     DPTR
        INC     DPTR
        INC     DPTR
        INC     DPTR
        INC     DPTR
        INC     DPTR
        MOVX    A,@DPTR
        JNZ     ??ZDSecMgrEvent_4
// 2554         {
// 2555           action = TRUE;
        MOV     ?V0 + 0,#0x1
// 2556 
// 2557           // update from control data
// 2558           device.parentAddr = ZDSecMgrCtrlData[index].parentAddr;
        MOV     DPL,R0
        MOV     DPH,R1
        INC     DPTR
        INC     DPTR
        LCALL   ??Subroutine85_0 & 0xFFFF
??CrossCallReturnLabel_139:
        MOV     A,#0x4
        LCALL   ?XSTACK_DISP0_8
        LCALL   ?Subroutine36 & 0xFFFF
// 2559           device.secure     = ZDSecMgrCtrlData[index].secure;
??CrossCallReturnLabel_39:
        MOV     DPL,R0
        MOV     DPH,R1
        INC     DPTR
        INC     DPTR
        INC     DPTR
        INC     DPTR
        MOVX    A,@DPTR
        PUSH    A
          CFI CFA_SP SP+-1
        MOV     A,#0x6
        LCALL   ?XSTACK_DISP0_8
        POP     A
          CFI CFA_SP SP+0
        MOVX    @DPTR,A
// 2560           device.ctrl       = &ZDSecMgrCtrlData[index];
        MOV     A,#0x8
        LCALL   ?XSTACK_DISP0_8
        LCALL   ??Subroutine92_0 & 0xFFFF
// 2561 
// 2562           // set the user and address index
// 2563           entry.user  = ADDRMGR_USER_SECURITY;
??CrossCallReturnLabel_195:
        LCALL   ?XSTACK_DISP0_8
        MOV     A,#0x2
        LCALL   ?Subroutine35 & 0xFFFF
// 2564           entry.index = ZDSecMgrCtrlData[index].entry->ami;
??CrossCallReturnLabel_35:
        MOV     DPH,A
        MOV     DPL,R0
        LCALL   ??Subroutine95_0 & 0xFFFF
??CrossCallReturnLabel_207:
        MOV     A,#0x15
        LCALL   ?XSTACK_DISP0_8
        LCALL   ??Subroutine92_0 & 0xFFFF
// 2565 
// 2566           // get the address data
// 2567           AddrMgrEntryGet( &entry );
??CrossCallReturnLabel_196:
        LCALL   ?XSTACK_DISP0_8
        MOV     R2,DPL
        MOV     R3,DPH
        LCALL   ??AddrMgrEntryGet?relay
// 2568 
// 2569           // set device address data
// 2570           device.nwkAddr = entry.nwkAddr;
        MOV     A,#0xb
        LCALL   ?XSTACK_DISP0_8
        LCALL   ?Subroutine34 & 0xFFFF
// 2571           device.extAddr = entry.extAddr;
??CrossCallReturnLabel_168:
        MOV     A,#0xd
        LCALL   ?XSTACK_DISP0_8
        MOV     R0,DPL
        MOV     R1,DPH
        MOV     A,#0x2
        LCALL   ?XSTACK_DISP0_8
        LCALL   ?Subroutine14 & 0xFFFF
// 2572 
// 2573           // update from entry data
// 2574           ZDSecMgrDeviceCtrlHandler( &device );
// 2575         }
??CrossCallReturnLabel_171:
        LCALL   ??ZDSecMgrDeviceCtrlHandler?relay
        SJMP    ??ZDSecMgrEvent_2
// 2576         else
// 2577         {
// 2578           restart = TRUE;
??ZDSecMgrEvent_4:
        MOV     ?V0 + 1,#0x1
// 2579         }
// 2580       }
// 2581     }
??ZDSecMgrEvent_2:
        LCALL   ?Subroutine53 & 0xFFFF
??CrossCallReturnLabel_67:
        JNC     $+5
        LJMP    ??ZDSecMgrEvent_1 & 0xFFFF
// 2582 
// 2583     // check for timer restart
// 2584     if ( restart == TRUE )
        MOV     A,?V0 + 1
        MOV     C,0xE0 /* A   */.0
        JNC     ??ZDSecMgrEvent_0
// 2585     {
// 2586       osal_start_timerEx(ZDAppTaskID, ZDO_SECMGR_EVENT, 100 );
        ; Setup parameters for call to function osal_start_timerEx
        MOV     R4,#0x64
        MOV     R5,#0x0
        MOV     R2,#0x0
        MOV     R3,#0x1
        MOV     DPTR,#ZDAppTaskID
        MOVX    A,@DPTR
        MOV     R1,A
        LCALL   ??osal_start_timerEx?relay
// 2587     }
// 2588   }
// 2589 }
??ZDSecMgrEvent_0:
        MOV     A,#0x17
        SJMP    ??Subroutine93_0
          CFI EndBlock cfiBlock388

        RSEG BANKED_CODE:CODE:NOROOT(0)
?Subroutine58:
          CFI Block cfiCond389 Using cfiCommon0
          CFI Function ZDSecMgrDeviceJoinFwd
          CFI Conditional ??CrossCallReturnLabel_188
          CFI DPL0 Frame(CFA_SP, 4)
          CFI DPH0 Frame(CFA_SP, 5)
          CFI CFA_SP SP+-5
          CFI CFA_XSP16 add(XSP16, 8)
          CFI Block cfiCond390 Using cfiCommon0
          CFI (cfiCond390) Function ZDSecMgrEvent
          CFI (cfiCond390) Conditional ??CrossCallReturnLabel_189
          CFI (cfiCond390) R6 load(1, XDATA, add(CFA_XSP16, literal(-10)))
          CFI (cfiCond390) VB load(1, XDATA, add(CFA_XSP16, literal(-9)))
          CFI (cfiCond390) V0 load(1, XDATA, add(CFA_XSP16, literal(-8)))
          CFI (cfiCond390) V1 load(1, XDATA, add(CFA_XSP16, literal(-7)))
          CFI (cfiCond390) R7 load(1, XDATA, add(CFA_XSP16, literal(-6)))
          CFI (cfiCond390) ?RET_LOW load(1, XDATA, add(CFA_XSP16, literal(-5)))
          CFI (cfiCond390) ?RET_HIGH load(1, XDATA, add(CFA_XSP16, literal(-4)))
          CFI (cfiCond390) ?BRET_EXT load(1, XDATA, add(CFA_XSP16, literal(-3)))
          CFI (cfiCond390) DPL0 load(1, XDATA, add(CFA_XSP16, literal(-2)))
          CFI (cfiCond390) DPH0 load(1, XDATA, add(CFA_XSP16, literal(-1)))
          CFI (cfiCond390) CFA_SP SP+0
          CFI (cfiCond390) CFA_XSP16 add(XSP16, 33)
          CFI Block cfiCond391 Using cfiCommon0
          CFI (cfiCond391) Function ZDSecMgrAuthenticateCfm
          CFI (cfiCond391) Conditional ??CrossCallReturnLabel_190
          CFI (cfiCond391) DPL0 Frame(CFA_SP, 4)
          CFI (cfiCond391) DPH0 Frame(CFA_SP, 5)
          CFI (cfiCond391) CFA_SP SP+-5
          CFI Block cfiPicker392 Using cfiCommon1
          CFI (cfiPicker392) NoFunction
          CFI (cfiPicker392) Picker
        MOV     DPL,A
        MOV     A,R3
          CFI EndBlock cfiCond389
          CFI EndBlock cfiCond390
          CFI EndBlock cfiCond391
          CFI EndBlock cfiPicker392
        REQUIRE ??Subroutine91_0
        ; // Fall through to label ??Subroutine91_0

        RSEG BANKED_CODE:CODE:NOROOT(0)
??Subroutine91_0:
          CFI Block cfiCond393 Using cfiCommon0
          CFI Function ZDSecMgrEstablishKeyInd
          CFI Conditional ??CrossCallReturnLabel_187
          CFI R6 load(1, XDATA, add(CFA_XSP16, literal(-12)))
          CFI VB load(1, XDATA, add(CFA_XSP16, literal(-11)))
          CFI V0 load(1, XDATA, add(CFA_XSP16, literal(-10)))
          CFI V1 load(1, XDATA, add(CFA_XSP16, literal(-9)))
          CFI V2 load(1, XDATA, add(CFA_XSP16, literal(-8)))
          CFI V3 load(1, XDATA, add(CFA_XSP16, literal(-7)))
          CFI R7 load(1, XDATA, add(CFA_XSP16, literal(-6)))
          CFI ?RET_LOW load(1, XDATA, add(CFA_XSP16, literal(-5)))
          CFI ?RET_HIGH load(1, XDATA, add(CFA_XSP16, literal(-4)))
          CFI ?BRET_EXT load(1, XDATA, add(CFA_XSP16, literal(-3)))
          CFI DPL0 load(1, XDATA, add(CFA_XSP16, literal(-2)))
          CFI DPH0 load(1, XDATA, add(CFA_XSP16, literal(-1)))
          CFI CFA_SP SP+0
          CFI CFA_XSP16 add(XSP16, 29)
          CFI Block cfiCond394 Using cfiCommon0
          CFI (cfiCond394) Function ZDSecMgrDeviceJoinFwd
          CFI (cfiCond394) Conditional ??CrossCallReturnLabel_188
          CFI (cfiCond394) DPL0 Frame(CFA_SP, 4)
          CFI (cfiCond394) DPH0 Frame(CFA_SP, 5)
          CFI (cfiCond394) CFA_SP SP+-5
          CFI (cfiCond394) CFA_XSP16 add(XSP16, 8)
          CFI Block cfiCond395 Using cfiCommon0
          CFI (cfiCond395) Function ZDSecMgrEvent
          CFI (cfiCond395) Conditional ??CrossCallReturnLabel_189
          CFI (cfiCond395) R6 load(1, XDATA, add(CFA_XSP16, literal(-10)))
          CFI (cfiCond395) VB load(1, XDATA, add(CFA_XSP16, literal(-9)))
          CFI (cfiCond395) V0 load(1, XDATA, add(CFA_XSP16, literal(-8)))
          CFI (cfiCond395) V1 load(1, XDATA, add(CFA_XSP16, literal(-7)))
          CFI (cfiCond395) R7 load(1, XDATA, add(CFA_XSP16, literal(-6)))
          CFI (cfiCond395) ?RET_LOW load(1, XDATA, add(CFA_XSP16, literal(-5)))
          CFI (cfiCond395) ?RET_HIGH load(1, XDATA, add(CFA_XSP16, literal(-4)))
          CFI (cfiCond395) ?BRET_EXT load(1, XDATA, add(CFA_XSP16, literal(-3)))
          CFI (cfiCond395) DPL0 load(1, XDATA, add(CFA_XSP16, literal(-2)))
          CFI (cfiCond395) DPH0 load(1, XDATA, add(CFA_XSP16, literal(-1)))
          CFI (cfiCond395) CFA_SP SP+0
          CFI (cfiCond395) CFA_XSP16 add(XSP16, 33)
          CFI Block cfiCond396 Using cfiCommon0
          CFI (cfiCond396) Function ZDSecMgrAuthenticateCfm
          CFI (cfiCond396) Conditional ??CrossCallReturnLabel_190
          CFI (cfiCond396) DPL0 Frame(CFA_SP, 4)
          CFI (cfiCond396) DPH0 Frame(CFA_SP, 5)
          CFI (cfiCond396) CFA_SP SP+-5
          CFI Block cfiPicker397 Using cfiCommon1
          CFI (cfiPicker397) NoFunction
          CFI (cfiPicker397) Picker
        ADDC    A,#0x0
        MOV     DPH,A
        MOVX    A,@DPTR
        RET
          CFI EndBlock cfiCond393
          CFI EndBlock cfiCond394
          CFI EndBlock cfiCond395
          CFI EndBlock cfiCond396
          CFI EndBlock cfiPicker397

        RSEG BANKED_CODE:CODE:NOROOT(0)
?Subroutine53:
          CFI Block cfiCond398 Using cfiCommon0
          CFI Function ZDSecMgrEntryNew
          CFI Conditional ??CrossCallReturnLabel_66
          CFI R6 load(1, XDATA, add(CFA_XSP16, literal(-10)))
          CFI VB load(1, XDATA, add(CFA_XSP16, literal(-9)))
          CFI V0 load(1, XDATA, add(CFA_XSP16, literal(-8)))
          CFI V1 load(1, XDATA, add(CFA_XSP16, literal(-7)))
          CFI R7 load(1, XDATA, add(CFA_XSP16, literal(-6)))
          CFI ?RET_LOW load(1, XDATA, add(CFA_XSP16, literal(-5)))
          CFI ?RET_HIGH load(1, XDATA, add(CFA_XSP16, literal(-4)))
          CFI ?BRET_EXT load(1, XDATA, add(CFA_XSP16, literal(-3)))
          CFI DPL0 load(1, XDATA, add(CFA_XSP16, literal(-2)))
          CFI DPH0 load(1, XDATA, add(CFA_XSP16, literal(-1)))
          CFI CFA_SP SP+0
          CFI CFA_XSP16 add(XSP16, 10)
          CFI Block cfiCond399 Using cfiCommon0
          CFI (cfiCond399) Function ZDSecMgrEvent
          CFI (cfiCond399) Conditional ??CrossCallReturnLabel_67
          CFI (cfiCond399) R6 load(1, XDATA, add(CFA_XSP16, literal(-10)))
          CFI (cfiCond399) VB load(1, XDATA, add(CFA_XSP16, literal(-9)))
          CFI (cfiCond399) V0 load(1, XDATA, add(CFA_XSP16, literal(-8)))
          CFI (cfiCond399) V1 load(1, XDATA, add(CFA_XSP16, literal(-7)))
          CFI (cfiCond399) R7 load(1, XDATA, add(CFA_XSP16, literal(-6)))
          CFI (cfiCond399) ?RET_LOW load(1, XDATA, add(CFA_XSP16, literal(-5)))
          CFI (cfiCond399) ?RET_HIGH load(1, XDATA, add(CFA_XSP16, literal(-4)))
          CFI (cfiCond399) ?BRET_EXT load(1, XDATA, add(CFA_XSP16, literal(-3)))
          CFI (cfiCond399) DPL0 load(1, XDATA, add(CFA_XSP16, literal(-2)))
          CFI (cfiCond399) DPH0 load(1, XDATA, add(CFA_XSP16, literal(-1)))
          CFI (cfiCond399) CFA_SP SP+0
          CFI (cfiCond399) CFA_XSP16 add(XSP16, 33)
          CFI Block cfiPicker400 Using cfiCommon1
          CFI (cfiPicker400) NoFunction
          CFI (cfiPicker400) Picker
        MOV     A,R6
        ADD     A,#0x1
        INC     R6
        MOV     A,R7
        ADDC    A,#0x0
        MOV     R7,A
        CLR     C
        MOV     A,R6
        SUBB    A,#0x3
        MOV     A,R7
        SUBB    A,#0x0
        RET
          CFI EndBlock cfiCond398
          CFI EndBlock cfiCond399
          CFI EndBlock cfiPicker400

        RSEG BANKED_CODE:CODE:NOROOT(0)
?Subroutine36:
          CFI Block cfiCond401 Using cfiCommon0
          CFI Function ZDSecMgrMasterKeyInit
          CFI Conditional ??CrossCallReturnLabel_36
          CFI DPL0 Frame(CFA_SP, 4)
          CFI DPH0 Frame(CFA_SP, 5)
          CFI CFA_SP SP+-5
          CFI Block cfiCond402 Using cfiCommon0
          CFI (cfiCond402) Function ZDSecMgrEntryInit
          CFI (cfiCond402) Conditional ??CrossCallReturnLabel_37
          CFI (cfiCond402) DPL0 Frame(CFA_SP, 4)
          CFI (cfiCond402) DPH0 Frame(CFA_SP, 5)
          CFI (cfiCond402) CFA_SP SP+-5
          CFI Block cfiCond403 Using cfiCommon0
          CFI (cfiCond403) Function ZDSecMgrNewDeviceEvent
          CFI (cfiCond403) Conditional ??CrossCallReturnLabel_38
          CFI (cfiCond403) R6 load(1, XDATA, add(CFA_XSP16, literal(-12)))
          CFI (cfiCond403) VB load(1, XDATA, add(CFA_XSP16, literal(-11)))
          CFI (cfiCond403) V0 load(1, XDATA, add(CFA_XSP16, literal(-10)))
          CFI (cfiCond403) V1 load(1, XDATA, add(CFA_XSP16, literal(-9)))
          CFI (cfiCond403) V2 load(1, XDATA, add(CFA_XSP16, literal(-8)))
          CFI (cfiCond403) V3 load(1, XDATA, add(CFA_XSP16, literal(-7)))
          CFI (cfiCond403) R7 load(1, XDATA, add(CFA_XSP16, literal(-6)))
          CFI (cfiCond403) ?RET_LOW load(1, XDATA, add(CFA_XSP16, literal(-5)))
          CFI (cfiCond403) ?RET_HIGH load(1, XDATA, add(CFA_XSP16, literal(-4)))
          CFI (cfiCond403) ?BRET_EXT load(1, XDATA, add(CFA_XSP16, literal(-3)))
          CFI (cfiCond403) DPL0 load(1, XDATA, add(CFA_XSP16, literal(-2)))
          CFI (cfiCond403) DPH0 load(1, XDATA, add(CFA_XSP16, literal(-1)))
          CFI (cfiCond403) CFA_SP SP+0
          CFI (cfiCond403) CFA_XSP16 add(XSP16, 35)
          CFI Block cfiCond404 Using cfiCommon0
          CFI (cfiCond404) Function ZDSecMgrEvent
          CFI (cfiCond404) Conditional ??CrossCallReturnLabel_39
          CFI (cfiCond404) R6 load(1, XDATA, add(CFA_XSP16, literal(-10)))
          CFI (cfiCond404) VB load(1, XDATA, add(CFA_XSP16, literal(-9)))
          CFI (cfiCond404) V0 load(1, XDATA, add(CFA_XSP16, literal(-8)))
          CFI (cfiCond404) V1 load(1, XDATA, add(CFA_XSP16, literal(-7)))
          CFI (cfiCond404) R7 load(1, XDATA, add(CFA_XSP16, literal(-6)))
          CFI (cfiCond404) ?RET_LOW load(1, XDATA, add(CFA_XSP16, literal(-5)))
          CFI (cfiCond404) ?RET_HIGH load(1, XDATA, add(CFA_XSP16, literal(-4)))
          CFI (cfiCond404) ?BRET_EXT load(1, XDATA, add(CFA_XSP16, literal(-3)))
          CFI (cfiCond404) DPL0 load(1, XDATA, add(CFA_XSP16, literal(-2)))
          CFI (cfiCond404) DPH0 load(1, XDATA, add(CFA_XSP16, literal(-1)))
          CFI (cfiCond404) CFA_SP SP+0
          CFI (cfiCond404) CFA_XSP16 add(XSP16, 33)
          CFI Block cfiCond405 Using cfiCommon0
          CFI (cfiCond405) Function APSME_LinkKeyDataGet
          CFI (cfiCond405) Conditional ??CrossCallReturnLabel_40
          CFI (cfiCond405) R6 load(1, XDATA, add(CFA_XSP16, literal(-9)))
          CFI (cfiCond405) VB load(1, XDATA, add(CFA_XSP16, literal(-8)))
          CFI (cfiCond405) V0 load(1, XDATA, add(CFA_XSP16, literal(-7)))
          CFI (cfiCond405) R7 load(1, XDATA, add(CFA_XSP16, literal(-6)))
          CFI (cfiCond405) ?RET_LOW load(1, XDATA, add(CFA_XSP16, literal(-5)))
          CFI (cfiCond405) ?RET_HIGH load(1, XDATA, add(CFA_XSP16, literal(-4)))
          CFI (cfiCond405) ?BRET_EXT load(1, XDATA, add(CFA_XSP16, literal(-3)))
          CFI (cfiCond405) DPL0 load(1, XDATA, add(CFA_XSP16, literal(-2)))
          CFI (cfiCond405) DPH0 load(1, XDATA, add(CFA_XSP16, literal(-1)))
          CFI (cfiCond405) CFA_SP SP+0
          CFI (cfiCond405) CFA_XSP16 add(XSP16, 11)
          CFI Block cfiCond406 Using cfiCommon0
          CFI (cfiCond406) Function APSME_TCLinkKeyLoad
          CFI (cfiCond406) Conditional ??CrossCallReturnLabel_41
          CFI (cfiCond406) R6 load(1, XDATA, add(CFA_XSP16, literal(-15)))
          CFI (cfiCond406) VB load(1, XDATA, add(CFA_XSP16, literal(-14)))
          CFI (cfiCond406) V0 load(1, XDATA, add(CFA_XSP16, literal(-13)))
          CFI (cfiCond406) V1 load(1, XDATA, add(CFA_XSP16, literal(-12)))
          CFI (cfiCond406) V2 load(1, XDATA, add(CFA_XSP16, literal(-11)))
          CFI (cfiCond406) V3 load(1, XDATA, add(CFA_XSP16, literal(-10)))
          CFI (cfiCond406) V4 load(1, XDATA, add(CFA_XSP16, literal(-9)))
          CFI (cfiCond406) V5 load(1, XDATA, add(CFA_XSP16, literal(-8)))
          CFI (cfiCond406) V6 load(1, XDATA, add(CFA_XSP16, literal(-7)))
          CFI (cfiCond406) R7 load(1, XDATA, add(CFA_XSP16, literal(-6)))
          CFI (cfiCond406) ?RET_LOW load(1, XDATA, add(CFA_XSP16, literal(-5)))
          CFI (cfiCond406) ?RET_HIGH load(1, XDATA, add(CFA_XSP16, literal(-4)))
          CFI (cfiCond406) ?BRET_EXT load(1, XDATA, add(CFA_XSP16, literal(-3)))
          CFI (cfiCond406) DPL0 load(1, XDATA, add(CFA_XSP16, literal(-2)))
          CFI (cfiCond406) DPH0 load(1, XDATA, add(CFA_XSP16, literal(-1)))
          CFI (cfiCond406) CFA_SP SP+0
          CFI (cfiCond406) CFA_XSP16 add(XSP16, 60)
          CFI Block cfiPicker407 Using cfiCommon1
          CFI (cfiPicker407) NoFunction
          CFI (cfiPicker407) Picker
        MOV     A,R2
        MOVX    @DPTR,A
        INC     DPTR
        MOV     A,R3
        MOVX    @DPTR,A
        RET
          CFI EndBlock cfiCond401
          CFI EndBlock cfiCond402
          CFI EndBlock cfiCond403
          CFI EndBlock cfiCond404
          CFI EndBlock cfiCond405
          CFI EndBlock cfiCond406
          CFI EndBlock cfiPicker407

        RSEG BANKED_CODE:CODE:NOROOT(0)
?Subroutine35:
          CFI Block cfiCond408 Using cfiCommon0
          CFI Function ZDSecMgrDeviceRemove
          CFI Conditional ??CrossCallReturnLabel_34
          CFI R6 load(1, XDATA, add(CFA_XSP16, literal(-10)))
          CFI VB load(1, XDATA, add(CFA_XSP16, literal(-9)))
          CFI V0 load(1, XDATA, add(CFA_XSP16, literal(-8)))
          CFI V1 load(1, XDATA, add(CFA_XSP16, literal(-7)))
          CFI R7 load(1, XDATA, add(CFA_XSP16, literal(-6)))
          CFI ?RET_LOW load(1, XDATA, add(CFA_XSP16, literal(-5)))
          CFI ?RET_HIGH load(1, XDATA, add(CFA_XSP16, literal(-4)))
          CFI ?BRET_EXT load(1, XDATA, add(CFA_XSP16, literal(-3)))
          CFI DPL0 load(1, XDATA, add(CFA_XSP16, literal(-2)))
          CFI DPH0 load(1, XDATA, add(CFA_XSP16, literal(-1)))
          CFI CFA_SP SP+0
          CFI CFA_XSP16 add(XSP16, 19)
          CFI Block cfiCond409 Using cfiCommon0
          CFI (cfiCond409) Function ZDSecMgrEvent
          CFI (cfiCond409) Conditional ??CrossCallReturnLabel_35
          CFI (cfiCond409) R6 load(1, XDATA, add(CFA_XSP16, literal(-10)))
          CFI (cfiCond409) VB load(1, XDATA, add(CFA_XSP16, literal(-9)))
          CFI (cfiCond409) V0 load(1, XDATA, add(CFA_XSP16, literal(-8)))
          CFI (cfiCond409) V1 load(1, XDATA, add(CFA_XSP16, literal(-7)))
          CFI (cfiCond409) R7 load(1, XDATA, add(CFA_XSP16, literal(-6)))
          CFI (cfiCond409) ?RET_LOW load(1, XDATA, add(CFA_XSP16, literal(-5)))
          CFI (cfiCond409) ?RET_HIGH load(1, XDATA, add(CFA_XSP16, literal(-4)))
          CFI (cfiCond409) ?BRET_EXT load(1, XDATA, add(CFA_XSP16, literal(-3)))
          CFI (cfiCond409) DPL0 load(1, XDATA, add(CFA_XSP16, literal(-2)))
          CFI (cfiCond409) DPH0 load(1, XDATA, add(CFA_XSP16, literal(-1)))
          CFI (cfiCond409) CFA_SP SP+0
          CFI (cfiCond409) CFA_XSP16 add(XSP16, 33)
          CFI Block cfiPicker410 Using cfiCommon1
          CFI (cfiPicker410) NoFunction
          CFI (cfiPicker410) Picker
        LCALL   ?Subroutine69 & 0xFFFF
??CrossCallReturnLabel_89:
        LCALL   ?Subroutine72 & 0xFFFF
??CrossCallReturnLabel_243:
        RET
          CFI EndBlock cfiCond408
          CFI EndBlock cfiCond409
          CFI EndBlock cfiPicker410

        RSEG BANKED_CODE:CODE:NOROOT(0)
?Subroutine72:
          CFI Block cfiCond411 Using cfiCommon0
          CFI Function ZDSecMgrAddrStore
          CFI Conditional ??CrossCallReturnLabel_245, ??CrossCallReturnLabel_80, ??CrossCallReturnLabel_27
          CFI R6 load(1, XDATA, add(CFA_XSP16, literal(-9)))
          CFI VB load(1, XDATA, add(CFA_XSP16, literal(-8)))
          CFI V0 load(1, XDATA, add(CFA_XSP16, literal(-7)))
          CFI R7 load(1, XDATA, add(CFA_XSP16, literal(-6)))
          CFI ?RET_LOW load(1, XDATA, add(CFA_XSP16, literal(-5)))
          CFI ?RET_HIGH load(1, XDATA, add(CFA_XSP16, literal(-4)))
          CFI ?BRET_EXT load(1, XDATA, add(CFA_XSP16, literal(-3)))
          CFI DPL0 load(1, XDATA, add(CFA_XSP16, literal(-2)))
          CFI DPH0 load(1, XDATA, add(CFA_XSP16, literal(-1)))
          CFI CFA_SP SP+0
          CFI CFA_XSP16 add(XSP16, 22)
          CFI Block cfiCond412 Using cfiCommon0
          CFI (cfiCond412) Function ZDSecMgrExtAddrStore
          CFI (cfiCond412) Conditional ??CrossCallReturnLabel_245, ??CrossCallReturnLabel_80, ??CrossCallReturnLabel_28
          CFI (cfiCond412) R6 load(1, XDATA, add(CFA_XSP16, literal(-9)))
          CFI (cfiCond412) VB load(1, XDATA, add(CFA_XSP16, literal(-8)))
          CFI (cfiCond412) V0 load(1, XDATA, add(CFA_XSP16, literal(-7)))
          CFI (cfiCond412) R7 load(1, XDATA, add(CFA_XSP16, literal(-6)))
          CFI (cfiCond412) ?RET_LOW load(1, XDATA, add(CFA_XSP16, literal(-5)))
          CFI (cfiCond412) ?RET_HIGH load(1, XDATA, add(CFA_XSP16, literal(-4)))
          CFI (cfiCond412) ?BRET_EXT load(1, XDATA, add(CFA_XSP16, literal(-3)))
          CFI (cfiCond412) DPL0 load(1, XDATA, add(CFA_XSP16, literal(-2)))
          CFI (cfiCond412) DPH0 load(1, XDATA, add(CFA_XSP16, literal(-1)))
          CFI (cfiCond412) CFA_SP SP+0
          CFI (cfiCond412) CFA_XSP16 add(XSP16, 22)
          CFI Block cfiCond413 Using cfiCommon0
          CFI (cfiCond413) Function ZDSecMgrExtAddrLookup
          CFI (cfiCond413) Conditional ??CrossCallReturnLabel_245, ??CrossCallReturnLabel_80, ??CrossCallReturnLabel_29
          CFI (cfiCond413) R6 load(1, XDATA, add(CFA_XSP16, literal(-9)))
          CFI (cfiCond413) VB load(1, XDATA, add(CFA_XSP16, literal(-8)))
          CFI (cfiCond413) V0 load(1, XDATA, add(CFA_XSP16, literal(-7)))
          CFI (cfiCond413) R7 load(1, XDATA, add(CFA_XSP16, literal(-6)))
          CFI (cfiCond413) ?RET_LOW load(1, XDATA, add(CFA_XSP16, literal(-5)))
          CFI (cfiCond413) ?RET_HIGH load(1, XDATA, add(CFA_XSP16, literal(-4)))
          CFI (cfiCond413) ?BRET_EXT load(1, XDATA, add(CFA_XSP16, literal(-3)))
          CFI (cfiCond413) DPL0 load(1, XDATA, add(CFA_XSP16, literal(-2)))
          CFI (cfiCond413) DPH0 load(1, XDATA, add(CFA_XSP16, literal(-1)))
          CFI (cfiCond413) CFA_SP SP+0
          CFI (cfiCond413) CFA_XSP16 add(XSP16, 22)
          CFI Block cfiCond414 Using cfiCommon0
          CFI (cfiCond414) Function ZDSecMgrAddrStore
          CFI (cfiCond414) Conditional ??CrossCallReturnLabel_245, ??CrossCallReturnLabel_79, ??CrossCallReturnLabel_24
          CFI (cfiCond414) R6 load(1, XDATA, add(CFA_XSP16, literal(-9)))
          CFI (cfiCond414) VB load(1, XDATA, add(CFA_XSP16, literal(-8)))
          CFI (cfiCond414) V0 load(1, XDATA, add(CFA_XSP16, literal(-7)))
          CFI (cfiCond414) R7 load(1, XDATA, add(CFA_XSP16, literal(-6)))
          CFI (cfiCond414) ?RET_LOW load(1, XDATA, add(CFA_XSP16, literal(-5)))
          CFI (cfiCond414) ?RET_HIGH load(1, XDATA, add(CFA_XSP16, literal(-4)))
          CFI (cfiCond414) ?BRET_EXT load(1, XDATA, add(CFA_XSP16, literal(-3)))
          CFI (cfiCond414) DPL0 load(1, XDATA, add(CFA_XSP16, literal(-2)))
          CFI (cfiCond414) DPH0 load(1, XDATA, add(CFA_XSP16, literal(-1)))
          CFI (cfiCond414) CFA_SP SP+0
          CFI (cfiCond414) CFA_XSP16 add(XSP16, 22)
          CFI Block cfiCond415 Using cfiCommon0
          CFI (cfiCond415) Function ZDSecMgrExtAddrStore
          CFI (cfiCond415) Conditional ??CrossCallReturnLabel_245, ??CrossCallReturnLabel_79, ??CrossCallReturnLabel_25
          CFI (cfiCond415) R6 load(1, XDATA, add(CFA_XSP16, literal(-9)))
          CFI (cfiCond415) VB load(1, XDATA, add(CFA_XSP16, literal(-8)))
          CFI (cfiCond415) V0 load(1, XDATA, add(CFA_XSP16, literal(-7)))
          CFI (cfiCond415) R7 load(1, XDATA, add(CFA_XSP16, literal(-6)))
          CFI (cfiCond415) ?RET_LOW load(1, XDATA, add(CFA_XSP16, literal(-5)))
          CFI (cfiCond415) ?RET_HIGH load(1, XDATA, add(CFA_XSP16, literal(-4)))
          CFI (cfiCond415) ?BRET_EXT load(1, XDATA, add(CFA_XSP16, literal(-3)))
          CFI (cfiCond415) DPL0 load(1, XDATA, add(CFA_XSP16, literal(-2)))
          CFI (cfiCond415) DPH0 load(1, XDATA, add(CFA_XSP16, literal(-1)))
          CFI (cfiCond415) CFA_SP SP+0
          CFI (cfiCond415) CFA_XSP16 add(XSP16, 22)
          CFI Block cfiCond416 Using cfiCommon0
          CFI (cfiCond416) Function ZDSecMgrExtAddrLookup
          CFI (cfiCond416) Conditional ??CrossCallReturnLabel_245, ??CrossCallReturnLabel_79, ??CrossCallReturnLabel_26
          CFI (cfiCond416) R6 load(1, XDATA, add(CFA_XSP16, literal(-9)))
          CFI (cfiCond416) VB load(1, XDATA, add(CFA_XSP16, literal(-8)))
          CFI (cfiCond416) V0 load(1, XDATA, add(CFA_XSP16, literal(-7)))
          CFI (cfiCond416) R7 load(1, XDATA, add(CFA_XSP16, literal(-6)))
          CFI (cfiCond416) ?RET_LOW load(1, XDATA, add(CFA_XSP16, literal(-5)))
          CFI (cfiCond416) ?RET_HIGH load(1, XDATA, add(CFA_XSP16, literal(-4)))
          CFI (cfiCond416) ?BRET_EXT load(1, XDATA, add(CFA_XSP16, literal(-3)))
          CFI (cfiCond416) DPL0 load(1, XDATA, add(CFA_XSP16, literal(-2)))
          CFI (cfiCond416) DPH0 load(1, XDATA, add(CFA_XSP16, literal(-1)))
          CFI (cfiCond416) CFA_SP SP+0
          CFI (cfiCond416) CFA_XSP16 add(XSP16, 22)
          CFI Block cfiCond417 Using cfiCommon0
          CFI (cfiCond417) Function ZDSecMgrEntryLookup
          CFI (cfiCond417) Conditional ??CrossCallReturnLabel_247, ??CrossCallReturnLabel_236, ??CrossCallReturnLabel_2
          CFI (cfiCond417) R6 load(1, XDATA, add(CFA_XSP16, literal(-10)))
          CFI (cfiCond417) VB load(1, XDATA, add(CFA_XSP16, literal(-9)))
          CFI (cfiCond417) V0 load(1, XDATA, add(CFA_XSP16, literal(-8)))
          CFI (cfiCond417) V1 load(1, XDATA, add(CFA_XSP16, literal(-7)))
          CFI (cfiCond417) R7 load(1, XDATA, add(CFA_XSP16, literal(-6)))
          CFI (cfiCond417) ?RET_LOW load(1, XDATA, add(CFA_XSP16, literal(-5)))
          CFI (cfiCond417) ?RET_HIGH load(1, XDATA, add(CFA_XSP16, literal(-4)))
          CFI (cfiCond417) ?BRET_EXT load(1, XDATA, add(CFA_XSP16, literal(-3)))
          CFI (cfiCond417) DPL0 load(1, XDATA, add(CFA_XSP16, literal(-2)))
          CFI (cfiCond417) DPH0 load(1, XDATA, add(CFA_XSP16, literal(-1)))
          CFI (cfiCond417) CFA_SP SP+0
          CFI (cfiCond417) CFA_XSP16 add(XSP16, 23)
          CFI Block cfiCond418 Using cfiCommon0
          CFI (cfiCond418) Function ZDSecMgrEntryLookupAMI
          CFI (cfiCond418) Conditional ??CrossCallReturnLabel_247, ??CrossCallReturnLabel_236, ??CrossCallReturnLabel_3
          CFI (cfiCond418) R6 load(1, XDATA, add(CFA_XSP16, literal(-10)))
          CFI (cfiCond418) VB load(1, XDATA, add(CFA_XSP16, literal(-9)))
          CFI (cfiCond418) V0 load(1, XDATA, add(CFA_XSP16, literal(-8)))
          CFI (cfiCond418) V1 load(1, XDATA, add(CFA_XSP16, literal(-7)))
          CFI (cfiCond418) R7 load(1, XDATA, add(CFA_XSP16, literal(-6)))
          CFI (cfiCond418) ?RET_LOW load(1, XDATA, add(CFA_XSP16, literal(-5)))
          CFI (cfiCond418) ?RET_HIGH load(1, XDATA, add(CFA_XSP16, literal(-4)))
          CFI (cfiCond418) ?BRET_EXT load(1, XDATA, add(CFA_XSP16, literal(-3)))
          CFI (cfiCond418) DPL0 load(1, XDATA, add(CFA_XSP16, literal(-2)))
          CFI (cfiCond418) DPH0 load(1, XDATA, add(CFA_XSP16, literal(-1)))
          CFI (cfiCond418) CFA_SP SP+0
          CFI (cfiCond418) CFA_XSP16 add(XSP16, 10)
          CFI Block cfiCond419 Using cfiCommon0
          CFI (cfiCond419) Function ZDSecMgrCtrlInit
          CFI (cfiCond419) Conditional ??CrossCallReturnLabel_247, ??CrossCallReturnLabel_237, ??CrossCallReturnLabel_13
          CFI (cfiCond419) DPL0 Frame(CFA_SP, 4)
          CFI (cfiCond419) DPH0 Frame(CFA_SP, 5)
          CFI (cfiCond419) CFA_SP SP+-5
          CFI Block cfiCond420 Using cfiCommon0
          CFI (cfiCond420) Function ZDSecMgrCtrlLookup
          CFI (cfiCond420) Conditional ??CrossCallReturnLabel_247, ??CrossCallReturnLabel_237, ??CrossCallReturnLabel_14
          CFI (cfiCond420) R6 load(1, XDATA, add(CFA_XSP16, literal(-10)))
          CFI (cfiCond420) VB load(1, XDATA, add(CFA_XSP16, literal(-9)))
          CFI (cfiCond420) V0 load(1, XDATA, add(CFA_XSP16, literal(-8)))
          CFI (cfiCond420) V1 load(1, XDATA, add(CFA_XSP16, literal(-7)))
          CFI (cfiCond420) R7 load(1, XDATA, add(CFA_XSP16, literal(-6)))
          CFI (cfiCond420) ?RET_LOW load(1, XDATA, add(CFA_XSP16, literal(-5)))
          CFI (cfiCond420) ?RET_HIGH load(1, XDATA, add(CFA_XSP16, literal(-4)))
          CFI (cfiCond420) ?BRET_EXT load(1, XDATA, add(CFA_XSP16, literal(-3)))
          CFI (cfiCond420) DPL0 load(1, XDATA, add(CFA_XSP16, literal(-2)))
          CFI (cfiCond420) DPH0 load(1, XDATA, add(CFA_XSP16, literal(-1)))
          CFI (cfiCond420) CFA_SP SP+0
          CFI (cfiCond420) CFA_XSP16 add(XSP16, 10)
          CFI Block cfiCond421 Using cfiCommon0
          CFI (cfiCond421) Function ZDSecMgrCtrlTerm
          CFI (cfiCond421) Conditional ??CrossCallReturnLabel_247, ??CrossCallReturnLabel_238, ??CrossCallReturnLabel_231
          CFI (cfiCond421) DPL0 Frame(CFA_SP, 4)
          CFI (cfiCond421) DPH0 Frame(CFA_SP, 5)
          CFI (cfiCond421) CFA_SP SP+-5
          CFI (cfiCond421) CFA_XSP16 add(XSP16, 2)
          CFI Block cfiCond422 Using cfiCommon0
          CFI (cfiCond422) Function ZDSecMgrCtrlReset
          CFI (cfiCond422) Conditional ??CrossCallReturnLabel_247, ??CrossCallReturnLabel_238, ??CrossCallReturnLabel_232
          CFI (cfiCond422) R6 load(1, XDATA, add(CFA_XSP16, literal(-10)))
          CFI (cfiCond422) VB load(1, XDATA, add(CFA_XSP16, literal(-9)))
          CFI (cfiCond422) V0 load(1, XDATA, add(CFA_XSP16, literal(-8)))
          CFI (cfiCond422) V1 load(1, XDATA, add(CFA_XSP16, literal(-7)))
          CFI (cfiCond422) R7 load(1, XDATA, add(CFA_XSP16, literal(-6)))
          CFI (cfiCond422) ?RET_LOW load(1, XDATA, add(CFA_XSP16, literal(-5)))
          CFI (cfiCond422) ?RET_HIGH load(1, XDATA, add(CFA_XSP16, literal(-4)))
          CFI (cfiCond422) ?BRET_EXT load(1, XDATA, add(CFA_XSP16, literal(-3)))
          CFI (cfiCond422) DPL0 load(1, XDATA, add(CFA_XSP16, literal(-2)))
          CFI (cfiCond422) DPH0 load(1, XDATA, add(CFA_XSP16, literal(-1)))
          CFI (cfiCond422) CFA_SP SP+0
          CFI (cfiCond422) CFA_XSP16 add(XSP16, 12)
          CFI Block cfiCond423 Using cfiCommon0
          CFI (cfiCond423) Function ZDSecMgrDeviceEntryAdd
          CFI (cfiCond423) Conditional ??CrossCallReturnLabel_247, ??CrossCallReturnLabel_238, ??CrossCallReturnLabel_233
          CFI (cfiCond423) R6 load(1, XDATA, add(CFA_XSP16, literal(-11)))
          CFI (cfiCond423) VB load(1, XDATA, add(CFA_XSP16, literal(-10)))
          CFI (cfiCond423) V0 load(1, XDATA, add(CFA_XSP16, literal(-9)))
          CFI (cfiCond423) V1 load(1, XDATA, add(CFA_XSP16, literal(-8)))
          CFI (cfiCond423) V2 load(1, XDATA, add(CFA_XSP16, literal(-7)))
          CFI (cfiCond423) R7 load(1, XDATA, add(CFA_XSP16, literal(-6)))
          CFI (cfiCond423) ?RET_LOW load(1, XDATA, add(CFA_XSP16, literal(-5)))
          CFI (cfiCond423) ?RET_HIGH load(1, XDATA, add(CFA_XSP16, literal(-4)))
          CFI (cfiCond423) ?BRET_EXT load(1, XDATA, add(CFA_XSP16, literal(-3)))
          CFI (cfiCond423) DPL0 load(1, XDATA, add(CFA_XSP16, literal(-2)))
          CFI (cfiCond423) DPH0 load(1, XDATA, add(CFA_XSP16, literal(-1)))
          CFI (cfiCond423) CFA_SP SP+0
          CFI (cfiCond423) CFA_XSP16 add(XSP16, 13)
          CFI Block cfiCond424 Using cfiCommon0
          CFI (cfiCond424) Function ZDSecMgrDeviceCtrlUpdate
          CFI (cfiCond424) Conditional ??CrossCallReturnLabel_247, ??CrossCallReturnLabel_238, ??CrossCallReturnLabel_234
          CFI (cfiCond424) R6 load(1, XDATA, add(CFA_XSP16, literal(-9)))
          CFI (cfiCond424) VB load(1, XDATA, add(CFA_XSP16, literal(-8)))
          CFI (cfiCond424) V0 load(1, XDATA, add(CFA_XSP16, literal(-7)))
          CFI (cfiCond424) R7 load(1, XDATA, add(CFA_XSP16, literal(-6)))
          CFI (cfiCond424) ?RET_LOW load(1, XDATA, add(CFA_XSP16, literal(-5)))
          CFI (cfiCond424) ?RET_HIGH load(1, XDATA, add(CFA_XSP16, literal(-4)))
          CFI (cfiCond424) ?BRET_EXT load(1, XDATA, add(CFA_XSP16, literal(-3)))
          CFI (cfiCond424) DPL0 load(1, XDATA, add(CFA_XSP16, literal(-2)))
          CFI (cfiCond424) DPH0 load(1, XDATA, add(CFA_XSP16, literal(-1)))
          CFI (cfiCond424) CFA_SP SP+0
          CFI (cfiCond424) CFA_XSP16 add(XSP16, 13)
          CFI Block cfiCond425 Using cfiCommon0
          CFI (cfiCond425) Function ZDSecMgrAddLinkKey
          CFI (cfiCond425) Conditional ??CrossCallReturnLabel_247, ??CrossCallReturnLabel_238, ??CrossCallReturnLabel_235
          CFI (cfiCond425) R6 load(1, XDATA, add(CFA_XSP16, literal(-12)))
          CFI (cfiCond425) VB load(1, XDATA, add(CFA_XSP16, literal(-11)))
          CFI (cfiCond425) V0 load(1, XDATA, add(CFA_XSP16, literal(-10)))
          CFI (cfiCond425) V1 load(1, XDATA, add(CFA_XSP16, literal(-9)))
          CFI (cfiCond425) V2 load(1, XDATA, add(CFA_XSP16, literal(-8)))
          CFI (cfiCond425) V3 load(1, XDATA, add(CFA_XSP16, literal(-7)))
          CFI (cfiCond425) R7 load(1, XDATA, add(CFA_XSP16, literal(-6)))
          CFI (cfiCond425) ?RET_LOW load(1, XDATA, add(CFA_XSP16, literal(-5)))
          CFI (cfiCond425) ?RET_HIGH load(1, XDATA, add(CFA_XSP16, literal(-4)))
          CFI (cfiCond425) ?BRET_EXT load(1, XDATA, add(CFA_XSP16, literal(-3)))
          CFI (cfiCond425) DPL0 load(1, XDATA, add(CFA_XSP16, literal(-2)))
          CFI (cfiCond425) DPH0 load(1, XDATA, add(CFA_XSP16, literal(-1)))
          CFI (cfiCond425) CFA_SP SP+0
          CFI (cfiCond425) CFA_XSP16 add(XSP16, 16)
          CFI Block cfiCond426 Using cfiCommon0
          CFI (cfiCond426) Function ZDSecMgrMasterKeyInit
          CFI (cfiCond426) Conditional ??CrossCallReturnLabel_247, ??CrossCallReturnLabel_238, ??CrossCallReturnLabel_222
          CFI (cfiCond426) DPL0 Frame(CFA_SP, 4)
          CFI (cfiCond426) DPH0 Frame(CFA_SP, 5)
          CFI (cfiCond426) CFA_SP SP+-5
          CFI Block cfiCond427 Using cfiCommon0
          CFI (cfiCond427) Function ZDSecMgrMasterKeyLookup
          CFI (cfiCond427) Conditional ??CrossCallReturnLabel_247, ??CrossCallReturnLabel_238, ??CrossCallReturnLabel_223
          CFI (cfiCond427) R6 load(1, XDATA, add(CFA_XSP16, literal(-10)))
          CFI (cfiCond427) VB load(1, XDATA, add(CFA_XSP16, literal(-9)))
          CFI (cfiCond427) V0 load(1, XDATA, add(CFA_XSP16, literal(-8)))
          CFI (cfiCond427) V1 load(1, XDATA, add(CFA_XSP16, literal(-7)))
          CFI (cfiCond427) R7 load(1, XDATA, add(CFA_XSP16, literal(-6)))
          CFI (cfiCond427) ?RET_LOW load(1, XDATA, add(CFA_XSP16, literal(-5)))
          CFI (cfiCond427) ?RET_HIGH load(1, XDATA, add(CFA_XSP16, literal(-4)))
          CFI (cfiCond427) ?BRET_EXT load(1, XDATA, add(CFA_XSP16, literal(-3)))
          CFI (cfiCond427) DPL0 load(1, XDATA, add(CFA_XSP16, literal(-2)))
          CFI (cfiCond427) DPH0 load(1, XDATA, add(CFA_XSP16, literal(-1)))
          CFI (cfiCond427) CFA_SP SP+0
          CFI (cfiCond427) CFA_XSP16 add(XSP16, 10)
          CFI Block cfiCond428 Using cfiCommon0
          CFI (cfiCond428) Function ZDSecMgrEntryInit
          CFI (cfiCond428) Conditional ??CrossCallReturnLabel_247, ??CrossCallReturnLabel_238, ??CrossCallReturnLabel_224
          CFI (cfiCond428) DPL0 Frame(CFA_SP, 4)
          CFI (cfiCond428) DPH0 Frame(CFA_SP, 5)
          CFI (cfiCond428) CFA_SP SP+-5
          CFI Block cfiCond429 Using cfiCommon0
          CFI (cfiCond429) Function ZDSecMgrEntryInit
          CFI (cfiCond429) Conditional ??CrossCallReturnLabel_247, ??CrossCallReturnLabel_238, ??CrossCallReturnLabel_225
          CFI (cfiCond429) DPL0 Frame(CFA_SP, 4)
          CFI (cfiCond429) DPH0 Frame(CFA_SP, 5)
          CFI (cfiCond429) CFA_SP SP+-5
          CFI Block cfiCond430 Using cfiCommon0
          CFI (cfiCond430) Function ZDSecMgrDeviceCtrlSetup
          CFI (cfiCond430) Conditional ??CrossCallReturnLabel_247, ??CrossCallReturnLabel_238, ??CrossCallReturnLabel_226
          CFI (cfiCond430) DPL0 Frame(CFA_SP, 4)
          CFI (cfiCond430) DPH0 Frame(CFA_SP, 5)
          CFI (cfiCond430) CFA_SP SP+-5
          CFI Block cfiCond431 Using cfiCommon0
          CFI (cfiCond431) Function ZDSecMgrDeviceCtrlUpdate
          CFI (cfiCond431) Conditional ??CrossCallReturnLabel_247, ??CrossCallReturnLabel_238, ??CrossCallReturnLabel_227
          CFI (cfiCond431) R6 load(1, XDATA, add(CFA_XSP16, literal(-9)))
          CFI (cfiCond431) VB load(1, XDATA, add(CFA_XSP16, literal(-8)))
          CFI (cfiCond431) V0 load(1, XDATA, add(CFA_XSP16, literal(-7)))
          CFI (cfiCond431) R7 load(1, XDATA, add(CFA_XSP16, literal(-6)))
          CFI (cfiCond431) ?RET_LOW load(1, XDATA, add(CFA_XSP16, literal(-5)))
          CFI (cfiCond431) ?RET_HIGH load(1, XDATA, add(CFA_XSP16, literal(-4)))
          CFI (cfiCond431) ?BRET_EXT load(1, XDATA, add(CFA_XSP16, literal(-3)))
          CFI (cfiCond431) DPL0 load(1, XDATA, add(CFA_XSP16, literal(-2)))
          CFI (cfiCond431) DPH0 load(1, XDATA, add(CFA_XSP16, literal(-1)))
          CFI (cfiCond431) CFA_SP SP+0
          CFI (cfiCond431) CFA_XSP16 add(XSP16, 13)
          CFI Block cfiCond432 Using cfiCommon0
          CFI (cfiCond432) Function ZDSecMgrEvent
          CFI (cfiCond432) Conditional ??CrossCallReturnLabel_247, ??CrossCallReturnLabel_238, ??CrossCallReturnLabel_228
          CFI (cfiCond432) R6 load(1, XDATA, add(CFA_XSP16, literal(-10)))
          CFI (cfiCond432) VB load(1, XDATA, add(CFA_XSP16, literal(-9)))
          CFI (cfiCond432) V0 load(1, XDATA, add(CFA_XSP16, literal(-8)))
          CFI (cfiCond432) V1 load(1, XDATA, add(CFA_XSP16, literal(-7)))
          CFI (cfiCond432) R7 load(1, XDATA, add(CFA_XSP16, literal(-6)))
          CFI (cfiCond432) ?RET_LOW load(1, XDATA, add(CFA_XSP16, literal(-5)))
          CFI (cfiCond432) ?RET_HIGH load(1, XDATA, add(CFA_XSP16, literal(-4)))
          CFI (cfiCond432) ?BRET_EXT load(1, XDATA, add(CFA_XSP16, literal(-3)))
          CFI (cfiCond432) DPL0 load(1, XDATA, add(CFA_XSP16, literal(-2)))
          CFI (cfiCond432) DPH0 load(1, XDATA, add(CFA_XSP16, literal(-1)))
          CFI (cfiCond432) CFA_SP SP+0
          CFI (cfiCond432) CFA_XSP16 add(XSP16, 33)
          CFI Block cfiCond433 Using cfiCommon0
          CFI (cfiCond433) Function ZDSecMgrRemoveDeviceInd
          CFI (cfiCond433) Conditional ??CrossCallReturnLabel_247, ??CrossCallReturnLabel_238, ??CrossCallReturnLabel_229
          CFI (cfiCond433) R6 load(1, XDATA, add(CFA_XSP16, literal(-9)))
          CFI (cfiCond433) VB load(1, XDATA, add(CFA_XSP16, literal(-8)))
          CFI (cfiCond433) V0 load(1, XDATA, add(CFA_XSP16, literal(-7)))
          CFI (cfiCond433) R7 load(1, XDATA, add(CFA_XSP16, literal(-6)))
          CFI (cfiCond433) ?RET_LOW load(1, XDATA, add(CFA_XSP16, literal(-5)))
          CFI (cfiCond433) ?RET_HIGH load(1, XDATA, add(CFA_XSP16, literal(-4)))
          CFI (cfiCond433) ?BRET_EXT load(1, XDATA, add(CFA_XSP16, literal(-3)))
          CFI (cfiCond433) DPL0 load(1, XDATA, add(CFA_XSP16, literal(-2)))
          CFI (cfiCond433) DPH0 load(1, XDATA, add(CFA_XSP16, literal(-1)))
          CFI (cfiCond433) CFA_SP SP+0
          CFI (cfiCond433) CFA_XSP16 add(XSP16, 19)
          CFI Block cfiCond434 Using cfiCommon0
          CFI (cfiCond434) Function APSME_KeyFwdToChild
          CFI (cfiCond434) Conditional ??CrossCallReturnLabel_247, ??CrossCallReturnLabel_238, ??CrossCallReturnLabel_230
          CFI (cfiCond434) R6 load(1, XDATA, add(CFA_XSP16, literal(-9)))
          CFI (cfiCond434) VB load(1, XDATA, add(CFA_XSP16, literal(-8)))
          CFI (cfiCond434) V0 load(1, XDATA, add(CFA_XSP16, literal(-7)))
          CFI (cfiCond434) R7 load(1, XDATA, add(CFA_XSP16, literal(-6)))
          CFI (cfiCond434) ?RET_LOW load(1, XDATA, add(CFA_XSP16, literal(-5)))
          CFI (cfiCond434) ?RET_HIGH load(1, XDATA, add(CFA_XSP16, literal(-4)))
          CFI (cfiCond434) ?BRET_EXT load(1, XDATA, add(CFA_XSP16, literal(-3)))
          CFI (cfiCond434) DPL0 load(1, XDATA, add(CFA_XSP16, literal(-2)))
          CFI (cfiCond434) DPH0 load(1, XDATA, add(CFA_XSP16, literal(-1)))
          CFI (cfiCond434) CFA_SP SP+0
          CFI (cfiCond434) CFA_XSP16 add(XSP16, 9)
          CFI Block cfiCond435 Using cfiCommon0
          CFI (cfiCond435) Function ZDSecMgrDeviceCtrlHandler
          CFI (cfiCond435) Conditional ??CrossCallReturnLabel_244, ??CrossCallReturnLabel_42
          CFI (cfiCond435) R6 load(1, XDATA, add(CFA_XSP16, literal(-9)))
          CFI (cfiCond435) VB load(1, XDATA, add(CFA_XSP16, literal(-8)))
          CFI (cfiCond435) V0 load(1, XDATA, add(CFA_XSP16, literal(-7)))
          CFI (cfiCond435) R7 load(1, XDATA, add(CFA_XSP16, literal(-6)))
          CFI (cfiCond435) ?RET_LOW load(1, XDATA, add(CFA_XSP16, literal(-5)))
          CFI (cfiCond435) ?RET_HIGH load(1, XDATA, add(CFA_XSP16, literal(-4)))
          CFI (cfiCond435) ?BRET_EXT load(1, XDATA, add(CFA_XSP16, literal(-3)))
          CFI (cfiCond435) DPL0 load(1, XDATA, add(CFA_XSP16, literal(-2)))
          CFI (cfiCond435) DPH0 load(1, XDATA, add(CFA_XSP16, literal(-1)))
          CFI (cfiCond435) CFA_SP SP+0
          CFI (cfiCond435) CFA_XSP16 add(XSP16, 9)
          CFI Block cfiCond436 Using cfiCommon0
          CFI (cfiCond436) Function ZDSecMgrDeviceCtrlHandler
          CFI (cfiCond436) Conditional ??CrossCallReturnLabel_244, ??CrossCallReturnLabel_43
          CFI (cfiCond436) R6 load(1, XDATA, add(CFA_XSP16, literal(-9)))
          CFI (cfiCond436) VB load(1, XDATA, add(CFA_XSP16, literal(-8)))
          CFI (cfiCond436) V0 load(1, XDATA, add(CFA_XSP16, literal(-7)))
          CFI (cfiCond436) R7 load(1, XDATA, add(CFA_XSP16, literal(-6)))
          CFI (cfiCond436) ?RET_LOW load(1, XDATA, add(CFA_XSP16, literal(-5)))
          CFI (cfiCond436) ?RET_HIGH load(1, XDATA, add(CFA_XSP16, literal(-4)))
          CFI (cfiCond436) ?BRET_EXT load(1, XDATA, add(CFA_XSP16, literal(-3)))
          CFI (cfiCond436) DPL0 load(1, XDATA, add(CFA_XSP16, literal(-2)))
          CFI (cfiCond436) DPH0 load(1, XDATA, add(CFA_XSP16, literal(-1)))
          CFI (cfiCond436) CFA_SP SP+0
          CFI (cfiCond436) CFA_XSP16 add(XSP16, 9)
          CFI Block cfiCond437 Using cfiCommon0
          CFI (cfiCond437) Function ZDSecMgrDeviceCtrlHandler
          CFI (cfiCond437) Conditional ??CrossCallReturnLabel_244, ??CrossCallReturnLabel_44
          CFI (cfiCond437) R6 load(1, XDATA, add(CFA_XSP16, literal(-9)))
          CFI (cfiCond437) VB load(1, XDATA, add(CFA_XSP16, literal(-8)))
          CFI (cfiCond437) V0 load(1, XDATA, add(CFA_XSP16, literal(-7)))
          CFI (cfiCond437) R7 load(1, XDATA, add(CFA_XSP16, literal(-6)))
          CFI (cfiCond437) ?RET_LOW load(1, XDATA, add(CFA_XSP16, literal(-5)))
          CFI (cfiCond437) ?RET_HIGH load(1, XDATA, add(CFA_XSP16, literal(-4)))
          CFI (cfiCond437) ?BRET_EXT load(1, XDATA, add(CFA_XSP16, literal(-3)))
          CFI (cfiCond437) DPL0 load(1, XDATA, add(CFA_XSP16, literal(-2)))
          CFI (cfiCond437) DPH0 load(1, XDATA, add(CFA_XSP16, literal(-1)))
          CFI (cfiCond437) CFA_SP SP+0
          CFI (cfiCond437) CFA_XSP16 add(XSP16, 9)
          CFI Block cfiCond438 Using cfiCommon0
          CFI (cfiCond438) Function ZDSecMgrDeviceRemove
          CFI (cfiCond438) Conditional ??CrossCallReturnLabel_243, ??CrossCallReturnLabel_34
          CFI (cfiCond438) R6 load(1, XDATA, add(CFA_XSP16, literal(-10)))
          CFI (cfiCond438) VB load(1, XDATA, add(CFA_XSP16, literal(-9)))
          CFI (cfiCond438) V0 load(1, XDATA, add(CFA_XSP16, literal(-8)))
          CFI (cfiCond438) V1 load(1, XDATA, add(CFA_XSP16, literal(-7)))
          CFI (cfiCond438) R7 load(1, XDATA, add(CFA_XSP16, literal(-6)))
          CFI (cfiCond438) ?RET_LOW load(1, XDATA, add(CFA_XSP16, literal(-5)))
          CFI (cfiCond438) ?RET_HIGH load(1, XDATA, add(CFA_XSP16, literal(-4)))
          CFI (cfiCond438) ?BRET_EXT load(1, XDATA, add(CFA_XSP16, literal(-3)))
          CFI (cfiCond438) DPL0 load(1, XDATA, add(CFA_XSP16, literal(-2)))
          CFI (cfiCond438) DPH0 load(1, XDATA, add(CFA_XSP16, literal(-1)))
          CFI (cfiCond438) CFA_SP SP+0
          CFI (cfiCond438) CFA_XSP16 add(XSP16, 19)
          CFI Block cfiCond439 Using cfiCommon0
          CFI (cfiCond439) Function ZDSecMgrEvent
          CFI (cfiCond439) Conditional ??CrossCallReturnLabel_243, ??CrossCallReturnLabel_35
          CFI (cfiCond439) R6 load(1, XDATA, add(CFA_XSP16, literal(-10)))
          CFI (cfiCond439) VB load(1, XDATA, add(CFA_XSP16, literal(-9)))
          CFI (cfiCond439) V0 load(1, XDATA, add(CFA_XSP16, literal(-8)))
          CFI (cfiCond439) V1 load(1, XDATA, add(CFA_XSP16, literal(-7)))
          CFI (cfiCond439) R7 load(1, XDATA, add(CFA_XSP16, literal(-6)))
          CFI (cfiCond439) ?RET_LOW load(1, XDATA, add(CFA_XSP16, literal(-5)))
          CFI (cfiCond439) ?RET_HIGH load(1, XDATA, add(CFA_XSP16, literal(-4)))
          CFI (cfiCond439) ?BRET_EXT load(1, XDATA, add(CFA_XSP16, literal(-3)))
          CFI (cfiCond439) DPL0 load(1, XDATA, add(CFA_XSP16, literal(-2)))
          CFI (cfiCond439) DPH0 load(1, XDATA, add(CFA_XSP16, literal(-1)))
          CFI (cfiCond439) CFA_SP SP+0
          CFI (cfiCond439) CFA_XSP16 add(XSP16, 33)
          CFI Block cfiCond440 Using cfiCommon0
          CFI (cfiCond440) Function ZDSecMgrSendMasterKey
          CFI (cfiCond440) Conditional ??CrossCallReturnLabel_246, ??CrossCallReturnLabel_219, ??CrossCallReturnLabel_4
          CFI (cfiCond440) R6 load(1, XDATA, add(CFA_XSP16, literal(-10)))
          CFI (cfiCond440) VB load(1, XDATA, add(CFA_XSP16, literal(-9)))
          CFI (cfiCond440) V0 load(1, XDATA, add(CFA_XSP16, literal(-8)))
          CFI (cfiCond440) V1 load(1, XDATA, add(CFA_XSP16, literal(-7)))
          CFI (cfiCond440) R7 load(1, XDATA, add(CFA_XSP16, literal(-6)))
          CFI (cfiCond440) ?RET_LOW load(1, XDATA, add(CFA_XSP16, literal(-5)))
          CFI (cfiCond440) ?RET_HIGH load(1, XDATA, add(CFA_XSP16, literal(-4)))
          CFI (cfiCond440) ?BRET_EXT load(1, XDATA, add(CFA_XSP16, literal(-3)))
          CFI (cfiCond440) DPL0 load(1, XDATA, add(CFA_XSP16, literal(-2)))
          CFI (cfiCond440) DPH0 load(1, XDATA, add(CFA_XSP16, literal(-1)))
          CFI (cfiCond440) CFA_SP SP+0
          CFI (cfiCond440) CFA_XSP16 add(XSP16, 23)
          CFI Block cfiCond441 Using cfiCommon0
          CFI (cfiCond441) Function ZDSecMgrSendNwkKey
          CFI (cfiCond441) Conditional ??CrossCallReturnLabel_246, ??CrossCallReturnLabel_219, ??CrossCallReturnLabel_5
          CFI (cfiCond441) R6 load(1, XDATA, add(CFA_XSP16, literal(-12)))
          CFI (cfiCond441) VB load(1, XDATA, add(CFA_XSP16, literal(-11)))
          CFI (cfiCond441) V0 load(1, XDATA, add(CFA_XSP16, literal(-10)))
          CFI (cfiCond441) V1 load(1, XDATA, add(CFA_XSP16, literal(-9)))
          CFI (cfiCond441) V2 load(1, XDATA, add(CFA_XSP16, literal(-8)))
          CFI (cfiCond441) V3 load(1, XDATA, add(CFA_XSP16, literal(-7)))
          CFI (cfiCond441) R7 load(1, XDATA, add(CFA_XSP16, literal(-6)))
          CFI (cfiCond441) ?RET_LOW load(1, XDATA, add(CFA_XSP16, literal(-5)))
          CFI (cfiCond441) ?RET_HIGH load(1, XDATA, add(CFA_XSP16, literal(-4)))
          CFI (cfiCond441) ?BRET_EXT load(1, XDATA, add(CFA_XSP16, literal(-3)))
          CFI (cfiCond441) DPL0 load(1, XDATA, add(CFA_XSP16, literal(-2)))
          CFI (cfiCond441) DPH0 load(1, XDATA, add(CFA_XSP16, literal(-1)))
          CFI (cfiCond441) CFA_SP SP+0
          CFI (cfiCond441) CFA_XSP16 add(XSP16, 25)
          CFI Block cfiCond442 Using cfiCommon0
          CFI (cfiCond442) Function ZDSecMgrDeviceJoinFwd
          CFI (cfiCond442) Conditional ??CrossCallReturnLabel_246, ??CrossCallReturnLabel_218, ??CrossCallReturnLabel_0
          CFI (cfiCond442) DPL0 Frame(CFA_SP, 4)
          CFI (cfiCond442) DPH0 Frame(CFA_SP, 5)
          CFI (cfiCond442) CFA_SP SP+-5
          CFI (cfiCond442) CFA_XSP16 add(XSP16, 8)
          CFI Block cfiCond443 Using cfiCommon0
          CFI (cfiCond443) Function ZDSecMgrUpdateDeviceInd
          CFI (cfiCond443) Conditional ??CrossCallReturnLabel_246, ??CrossCallReturnLabel_218, ??CrossCallReturnLabel_1
          CFI (cfiCond443) DPL0 Frame(CFA_SP, 4)
          CFI (cfiCond443) DPH0 Frame(CFA_SP, 5)
          CFI (cfiCond443) CFA_SP SP+-5
          CFI (cfiCond443) CFA_XSP16 add(XSP16, 10)
          CFI Block cfiCond444 Using cfiCommon0
          CFI (cfiCond444) Function ZDSecMgrAddrStore
          CFI (cfiCond444) Conditional ??CrossCallReturnLabel_246, ??CrossCallReturnLabel_215, ??CrossCallReturnLabel_45
          CFI (cfiCond444) R6 load(1, XDATA, add(CFA_XSP16, literal(-9)))
          CFI (cfiCond444) VB load(1, XDATA, add(CFA_XSP16, literal(-8)))
          CFI (cfiCond444) V0 load(1, XDATA, add(CFA_XSP16, literal(-7)))
          CFI (cfiCond444) R7 load(1, XDATA, add(CFA_XSP16, literal(-6)))
          CFI (cfiCond444) ?RET_LOW load(1, XDATA, add(CFA_XSP16, literal(-5)))
          CFI (cfiCond444) ?RET_HIGH load(1, XDATA, add(CFA_XSP16, literal(-4)))
          CFI (cfiCond444) ?BRET_EXT load(1, XDATA, add(CFA_XSP16, literal(-3)))
          CFI (cfiCond444) DPL0 load(1, XDATA, add(CFA_XSP16, literal(-2)))
          CFI (cfiCond444) DPH0 load(1, XDATA, add(CFA_XSP16, literal(-1)))
          CFI (cfiCond444) CFA_SP SP+0
          CFI (cfiCond444) CFA_XSP16 add(XSP16, 22)
          CFI Block cfiCond445 Using cfiCommon0
          CFI (cfiCond445) Function ZDSecMgrExtAddrStore
          CFI (cfiCond445) Conditional ??CrossCallReturnLabel_246, ??CrossCallReturnLabel_215, ??CrossCallReturnLabel_46
          CFI (cfiCond445) R6 load(1, XDATA, add(CFA_XSP16, literal(-9)))
          CFI (cfiCond445) VB load(1, XDATA, add(CFA_XSP16, literal(-8)))
          CFI (cfiCond445) V0 load(1, XDATA, add(CFA_XSP16, literal(-7)))
          CFI (cfiCond445) R7 load(1, XDATA, add(CFA_XSP16, literal(-6)))
          CFI (cfiCond445) ?RET_LOW load(1, XDATA, add(CFA_XSP16, literal(-5)))
          CFI (cfiCond445) ?RET_HIGH load(1, XDATA, add(CFA_XSP16, literal(-4)))
          CFI (cfiCond445) ?BRET_EXT load(1, XDATA, add(CFA_XSP16, literal(-3)))
          CFI (cfiCond445) DPL0 load(1, XDATA, add(CFA_XSP16, literal(-2)))
          CFI (cfiCond445) DPH0 load(1, XDATA, add(CFA_XSP16, literal(-1)))
          CFI (cfiCond445) CFA_SP SP+0
          CFI (cfiCond445) CFA_XSP16 add(XSP16, 22)
          CFI Block cfiCond446 Using cfiCommon0
          CFI (cfiCond446) Function ZDSecMgrEstablishKey
          CFI (cfiCond446) Conditional ??CrossCallReturnLabel_246, ??CrossCallReturnLabel_220, ??CrossCallReturnLabel_99
          CFI (cfiCond446) R6 load(1, XDATA, add(CFA_XSP16, literal(-10)))
          CFI (cfiCond446) VB load(1, XDATA, add(CFA_XSP16, literal(-9)))
          CFI (cfiCond446) V0 load(1, XDATA, add(CFA_XSP16, literal(-8)))
          CFI (cfiCond446) V1 load(1, XDATA, add(CFA_XSP16, literal(-7)))
          CFI (cfiCond446) R7 load(1, XDATA, add(CFA_XSP16, literal(-6)))
          CFI (cfiCond446) ?RET_LOW load(1, XDATA, add(CFA_XSP16, literal(-5)))
          CFI (cfiCond446) ?RET_HIGH load(1, XDATA, add(CFA_XSP16, literal(-4)))
          CFI (cfiCond446) ?BRET_EXT load(1, XDATA, add(CFA_XSP16, literal(-3)))
          CFI (cfiCond446) DPL0 load(1, XDATA, add(CFA_XSP16, literal(-2)))
          CFI (cfiCond446) DPH0 load(1, XDATA, add(CFA_XSP16, literal(-1)))
          CFI (cfiCond446) CFA_SP SP+0
          CFI (cfiCond446) CFA_XSP16 add(XSP16, 17)
          CFI Block cfiCond447 Using cfiCommon0
          CFI (cfiCond447) Function ZDSecMgrSendMasterKey
          CFI (cfiCond447) Conditional ??CrossCallReturnLabel_246, ??CrossCallReturnLabel_220, ??CrossCallReturnLabel_100
          CFI (cfiCond447) R6 load(1, XDATA, add(CFA_XSP16, literal(-10)))
          CFI (cfiCond447) VB load(1, XDATA, add(CFA_XSP16, literal(-9)))
          CFI (cfiCond447) V0 load(1, XDATA, add(CFA_XSP16, literal(-8)))
          CFI (cfiCond447) V1 load(1, XDATA, add(CFA_XSP16, literal(-7)))
          CFI (cfiCond447) R7 load(1, XDATA, add(CFA_XSP16, literal(-6)))
          CFI (cfiCond447) ?RET_LOW load(1, XDATA, add(CFA_XSP16, literal(-5)))
          CFI (cfiCond447) ?RET_HIGH load(1, XDATA, add(CFA_XSP16, literal(-4)))
          CFI (cfiCond447) ?BRET_EXT load(1, XDATA, add(CFA_XSP16, literal(-3)))
          CFI (cfiCond447) DPL0 load(1, XDATA, add(CFA_XSP16, literal(-2)))
          CFI (cfiCond447) DPH0 load(1, XDATA, add(CFA_XSP16, literal(-1)))
          CFI (cfiCond447) CFA_SP SP+0
          CFI (cfiCond447) CFA_XSP16 add(XSP16, 23)
          CFI Block cfiCond448 Using cfiCommon0
          CFI (cfiCond448) Function ZDSecMgrSendNwkKey
          CFI (cfiCond448) Conditional ??CrossCallReturnLabel_246, ??CrossCallReturnLabel_220, ??CrossCallReturnLabel_98
          CFI (cfiCond448) R6 load(1, XDATA, add(CFA_XSP16, literal(-12)))
          CFI (cfiCond448) VB load(1, XDATA, add(CFA_XSP16, literal(-11)))
          CFI (cfiCond448) V0 load(1, XDATA, add(CFA_XSP16, literal(-10)))
          CFI (cfiCond448) V1 load(1, XDATA, add(CFA_XSP16, literal(-9)))
          CFI (cfiCond448) V2 load(1, XDATA, add(CFA_XSP16, literal(-8)))
          CFI (cfiCond448) V3 load(1, XDATA, add(CFA_XSP16, literal(-7)))
          CFI (cfiCond448) R7 load(1, XDATA, add(CFA_XSP16, literal(-6)))
          CFI (cfiCond448) ?RET_LOW load(1, XDATA, add(CFA_XSP16, literal(-5)))
          CFI (cfiCond448) ?RET_HIGH load(1, XDATA, add(CFA_XSP16, literal(-4)))
          CFI (cfiCond448) ?BRET_EXT load(1, XDATA, add(CFA_XSP16, literal(-3)))
          CFI (cfiCond448) DPL0 load(1, XDATA, add(CFA_XSP16, literal(-2)))
          CFI (cfiCond448) DPH0 load(1, XDATA, add(CFA_XSP16, literal(-1)))
          CFI (cfiCond448) CFA_SP SP+0
          CFI (cfiCond448) CFA_XSP16 add(XSP16, 25)
          CFI Block cfiCond449 Using cfiCommon0
          CFI (cfiCond449) Function ZDSecMgrAppKeyReq
          CFI (cfiCond449) Conditional ??CrossCallReturnLabel_246, ??CrossCallReturnLabel_216, ??CrossCallReturnLabel_49
          CFI (cfiCond449) R6 load(1, XDATA, add(CFA_XSP16, literal(-10)))
          CFI (cfiCond449) VB load(1, XDATA, add(CFA_XSP16, literal(-9)))
          CFI (cfiCond449) V0 load(1, XDATA, add(CFA_XSP16, literal(-8)))
          CFI (cfiCond449) V1 load(1, XDATA, add(CFA_XSP16, literal(-7)))
          CFI (cfiCond449) R7 load(1, XDATA, add(CFA_XSP16, literal(-6)))
          CFI (cfiCond449) ?RET_LOW load(1, XDATA, add(CFA_XSP16, literal(-5)))
          CFI (cfiCond449) ?RET_HIGH load(1, XDATA, add(CFA_XSP16, literal(-4)))
          CFI (cfiCond449) ?BRET_EXT load(1, XDATA, add(CFA_XSP16, literal(-3)))
          CFI (cfiCond449) DPL0 load(1, XDATA, add(CFA_XSP16, literal(-2)))
          CFI (cfiCond449) DPH0 load(1, XDATA, add(CFA_XSP16, literal(-1)))
          CFI (cfiCond449) CFA_SP SP+0
          CFI (cfiCond449) CFA_XSP16 add(XSP16, 49)
          CFI Block cfiCond450 Using cfiCommon0
          CFI (cfiCond450) Function ZDSecMgrEstablishKey
          CFI (cfiCond450) Conditional ??CrossCallReturnLabel_246, ??CrossCallReturnLabel_216, ??CrossCallReturnLabel_50
          CFI (cfiCond450) R6 load(1, XDATA, add(CFA_XSP16, literal(-10)))
          CFI (cfiCond450) VB load(1, XDATA, add(CFA_XSP16, literal(-9)))
          CFI (cfiCond450) V0 load(1, XDATA, add(CFA_XSP16, literal(-8)))
          CFI (cfiCond450) V1 load(1, XDATA, add(CFA_XSP16, literal(-7)))
          CFI (cfiCond450) R7 load(1, XDATA, add(CFA_XSP16, literal(-6)))
          CFI (cfiCond450) ?RET_LOW load(1, XDATA, add(CFA_XSP16, literal(-5)))
          CFI (cfiCond450) ?RET_HIGH load(1, XDATA, add(CFA_XSP16, literal(-4)))
          CFI (cfiCond450) ?BRET_EXT load(1, XDATA, add(CFA_XSP16, literal(-3)))
          CFI (cfiCond450) DPL0 load(1, XDATA, add(CFA_XSP16, literal(-2)))
          CFI (cfiCond450) DPH0 load(1, XDATA, add(CFA_XSP16, literal(-1)))
          CFI (cfiCond450) CFA_SP SP+0
          CFI (cfiCond450) CFA_XSP16 add(XSP16, 17)
          CFI Block cfiCond451 Using cfiCommon0
          CFI (cfiCond451) Function ZDSecMgrDeviceJoinFwd
          CFI (cfiCond451) Conditional ??CrossCallReturnLabel_246, ??CrossCallReturnLabel_216, ??CrossCallReturnLabel_51
          CFI (cfiCond451) DPL0 Frame(CFA_SP, 4)
          CFI (cfiCond451) DPH0 Frame(CFA_SP, 5)
          CFI (cfiCond451) CFA_SP SP+-5
          CFI (cfiCond451) CFA_XSP16 add(XSP16, 8)
          CFI Block cfiCond452 Using cfiCommon0
          CFI (cfiCond452) Function ZDSecMgrNewDeviceEvent
          CFI (cfiCond452) Conditional ??CrossCallReturnLabel_246, ??CrossCallReturnLabel_214, ??CrossCallReturnLabel_167
          CFI (cfiCond452) R6 load(1, XDATA, add(CFA_XSP16, literal(-12)))
          CFI (cfiCond452) VB load(1, XDATA, add(CFA_XSP16, literal(-11)))
          CFI (cfiCond452) V0 load(1, XDATA, add(CFA_XSP16, literal(-10)))
          CFI (cfiCond452) V1 load(1, XDATA, add(CFA_XSP16, literal(-9)))
          CFI (cfiCond452) V2 load(1, XDATA, add(CFA_XSP16, literal(-8)))
          CFI (cfiCond452) V3 load(1, XDATA, add(CFA_XSP16, literal(-7)))
          CFI (cfiCond452) R7 load(1, XDATA, add(CFA_XSP16, literal(-6)))
          CFI (cfiCond452) ?RET_LOW load(1, XDATA, add(CFA_XSP16, literal(-5)))
          CFI (cfiCond452) ?RET_HIGH load(1, XDATA, add(CFA_XSP16, literal(-4)))
          CFI (cfiCond452) ?BRET_EXT load(1, XDATA, add(CFA_XSP16, literal(-3)))
          CFI (cfiCond452) DPL0 load(1, XDATA, add(CFA_XSP16, literal(-2)))
          CFI (cfiCond452) DPH0 load(1, XDATA, add(CFA_XSP16, literal(-1)))
          CFI (cfiCond452) CFA_SP SP+0
          CFI (cfiCond452) CFA_XSP16 add(XSP16, 35)
          CFI Block cfiCond453 Using cfiCommon0
          CFI (cfiCond453) Function ZDSecMgrEvent
          CFI (cfiCond453) Conditional ??CrossCallReturnLabel_246, ??CrossCallReturnLabel_214, ??CrossCallReturnLabel_168
          CFI (cfiCond453) R6 load(1, XDATA, add(CFA_XSP16, literal(-10)))
          CFI (cfiCond453) VB load(1, XDATA, add(CFA_XSP16, literal(-9)))
          CFI (cfiCond453) V0 load(1, XDATA, add(CFA_XSP16, literal(-8)))
          CFI (cfiCond453) V1 load(1, XDATA, add(CFA_XSP16, literal(-7)))
          CFI (cfiCond453) R7 load(1, XDATA, add(CFA_XSP16, literal(-6)))
          CFI (cfiCond453) ?RET_LOW load(1, XDATA, add(CFA_XSP16, literal(-5)))
          CFI (cfiCond453) ?RET_HIGH load(1, XDATA, add(CFA_XSP16, literal(-4)))
          CFI (cfiCond453) ?BRET_EXT load(1, XDATA, add(CFA_XSP16, literal(-3)))
          CFI (cfiCond453) DPL0 load(1, XDATA, add(CFA_XSP16, literal(-2)))
          CFI (cfiCond453) DPH0 load(1, XDATA, add(CFA_XSP16, literal(-1)))
          CFI (cfiCond453) CFA_SP SP+0
          CFI (cfiCond453) CFA_XSP16 add(XSP16, 33)
          CFI Block cfiCond454 Using cfiCommon0
          CFI (cfiCond454) Function ZDSecMgrUpdateDeviceInd
          CFI (cfiCond454) Conditional ??CrossCallReturnLabel_246, ??CrossCallReturnLabel_214, ??CrossCallReturnLabel_169
          CFI (cfiCond454) DPL0 Frame(CFA_SP, 4)
          CFI (cfiCond454) DPH0 Frame(CFA_SP, 5)
          CFI (cfiCond454) CFA_SP SP+-5
          CFI (cfiCond454) CFA_XSP16 add(XSP16, 10)
          CFI Block cfiCond455 Using cfiCommon0
          CFI (cfiCond455) Function ZDSecMgrAuthenticateInd
          CFI (cfiCond455) Conditional ??CrossCallReturnLabel_246, ??CrossCallReturnLabel_214, ??CrossCallReturnLabel_170
          CFI (cfiCond455) R6 load(1, XDATA, add(CFA_XSP16, literal(-12)))
          CFI (cfiCond455) VB load(1, XDATA, add(CFA_XSP16, literal(-11)))
          CFI (cfiCond455) V0 load(1, XDATA, add(CFA_XSP16, literal(-10)))
          CFI (cfiCond455) V1 load(1, XDATA, add(CFA_XSP16, literal(-9)))
          CFI (cfiCond455) V2 load(1, XDATA, add(CFA_XSP16, literal(-8)))
          CFI (cfiCond455) V3 load(1, XDATA, add(CFA_XSP16, literal(-7)))
          CFI (cfiCond455) R7 load(1, XDATA, add(CFA_XSP16, literal(-6)))
          CFI (cfiCond455) ?RET_LOW load(1, XDATA, add(CFA_XSP16, literal(-5)))
          CFI (cfiCond455) ?RET_HIGH load(1, XDATA, add(CFA_XSP16, literal(-4)))
          CFI (cfiCond455) ?BRET_EXT load(1, XDATA, add(CFA_XSP16, literal(-3)))
          CFI (cfiCond455) DPL0 load(1, XDATA, add(CFA_XSP16, literal(-2)))
          CFI (cfiCond455) DPH0 load(1, XDATA, add(CFA_XSP16, literal(-1)))
          CFI (cfiCond455) CFA_SP SP+0
          CFI (cfiCond455) CFA_XSP16 add(XSP16, 32)
          CFI Block cfiCond456 Using cfiCommon0
          CFI (cfiCond456) Function ZDSecMgrEstablishKey
          CFI (cfiCond456) Conditional ??CrossCallReturnLabel_246, ??CrossCallReturnLabel_221, ??CrossCallReturnLabel_211
          CFI (cfiCond456) R6 load(1, XDATA, add(CFA_XSP16, literal(-10)))
          CFI (cfiCond456) VB load(1, XDATA, add(CFA_XSP16, literal(-9)))
          CFI (cfiCond456) V0 load(1, XDATA, add(CFA_XSP16, literal(-8)))
          CFI (cfiCond456) V1 load(1, XDATA, add(CFA_XSP16, literal(-7)))
          CFI (cfiCond456) R7 load(1, XDATA, add(CFA_XSP16, literal(-6)))
          CFI (cfiCond456) ?RET_LOW load(1, XDATA, add(CFA_XSP16, literal(-5)))
          CFI (cfiCond456) ?RET_HIGH load(1, XDATA, add(CFA_XSP16, literal(-4)))
          CFI (cfiCond456) ?BRET_EXT load(1, XDATA, add(CFA_XSP16, literal(-3)))
          CFI (cfiCond456) DPL0 load(1, XDATA, add(CFA_XSP16, literal(-2)))
          CFI (cfiCond456) DPH0 load(1, XDATA, add(CFA_XSP16, literal(-1)))
          CFI (cfiCond456) CFA_SP SP+0
          CFI (cfiCond456) CFA_XSP16 add(XSP16, 17)
          CFI Block cfiCond457 Using cfiCommon0
          CFI (cfiCond457) Function ZDSecMgrSendMasterKey
          CFI (cfiCond457) Conditional ??CrossCallReturnLabel_246, ??CrossCallReturnLabel_221, ??CrossCallReturnLabel_212
          CFI (cfiCond457) R6 load(1, XDATA, add(CFA_XSP16, literal(-10)))
          CFI (cfiCond457) VB load(1, XDATA, add(CFA_XSP16, literal(-9)))
          CFI (cfiCond457) V0 load(1, XDATA, add(CFA_XSP16, literal(-8)))
          CFI (cfiCond457) V1 load(1, XDATA, add(CFA_XSP16, literal(-7)))
          CFI (cfiCond457) R7 load(1, XDATA, add(CFA_XSP16, literal(-6)))
          CFI (cfiCond457) ?RET_LOW load(1, XDATA, add(CFA_XSP16, literal(-5)))
          CFI (cfiCond457) ?RET_HIGH load(1, XDATA, add(CFA_XSP16, literal(-4)))
          CFI (cfiCond457) ?BRET_EXT load(1, XDATA, add(CFA_XSP16, literal(-3)))
          CFI (cfiCond457) DPL0 load(1, XDATA, add(CFA_XSP16, literal(-2)))
          CFI (cfiCond457) DPH0 load(1, XDATA, add(CFA_XSP16, literal(-1)))
          CFI (cfiCond457) CFA_SP SP+0
          CFI (cfiCond457) CFA_XSP16 add(XSP16, 23)
          CFI Block cfiCond458 Using cfiCommon0
          CFI (cfiCond458) Function ZDSecMgrCtrlSet
          CFI (cfiCond458) Conditional ??CrossCallReturnLabel_246, ??CrossCallReturnLabel_221, ??CrossCallReturnLabel_203
          CFI (cfiCond458) R6 load(1, XDATA, add(CFA_XSP16, literal(-9)))
          CFI (cfiCond458) VB load(1, XDATA, add(CFA_XSP16, literal(-8)))
          CFI (cfiCond458) V0 load(1, XDATA, add(CFA_XSP16, literal(-7)))
          CFI (cfiCond458) R7 load(1, XDATA, add(CFA_XSP16, literal(-6)))
          CFI (cfiCond458) ?RET_LOW load(1, XDATA, add(CFA_XSP16, literal(-5)))
          CFI (cfiCond458) ?RET_HIGH load(1, XDATA, add(CFA_XSP16, literal(-4)))
          CFI (cfiCond458) ?BRET_EXT load(1, XDATA, add(CFA_XSP16, literal(-3)))
          CFI (cfiCond458) DPL0 load(1, XDATA, add(CFA_XSP16, literal(-2)))
          CFI (cfiCond458) DPH0 load(1, XDATA, add(CFA_XSP16, literal(-1)))
          CFI (cfiCond458) CFA_SP SP+0
          CFI (cfiCond458) CFA_XSP16 add(XSP16, 9)
          CFI Block cfiCond459 Using cfiCommon0
          CFI (cfiCond459) Function ZDSecMgrAppKeyGet
          CFI (cfiCond459) Conditional ??CrossCallReturnLabel_246, ??CrossCallReturnLabel_221, ??CrossCallReturnLabel_204
          CFI (cfiCond459) R6 load(1, XDATA, add(CFA_XSP16, literal(-9)))
          CFI (cfiCond459) VB load(1, XDATA, add(CFA_XSP16, literal(-8)))
          CFI (cfiCond459) V0 load(1, XDATA, add(CFA_XSP16, literal(-7)))
          CFI (cfiCond459) R7 load(1, XDATA, add(CFA_XSP16, literal(-6)))
          CFI (cfiCond459) ?RET_LOW load(1, XDATA, add(CFA_XSP16, literal(-5)))
          CFI (cfiCond459) ?RET_HIGH load(1, XDATA, add(CFA_XSP16, literal(-4)))
          CFI (cfiCond459) ?BRET_EXT load(1, XDATA, add(CFA_XSP16, literal(-3)))
          CFI (cfiCond459) DPL0 load(1, XDATA, add(CFA_XSP16, literal(-2)))
          CFI (cfiCond459) DPH0 load(1, XDATA, add(CFA_XSP16, literal(-1)))
          CFI (cfiCond459) CFA_SP SP+0
          CFI (cfiCond459) CFA_XSP16 add(XSP16, 9)
          CFI Block cfiCond460 Using cfiCommon0
          CFI (cfiCond460) Function ZDSecMgrAppKeyGet
          CFI (cfiCond460) Conditional ??CrossCallReturnLabel_246, ??CrossCallReturnLabel_221, ??CrossCallReturnLabel_205
          CFI (cfiCond460) R6 load(1, XDATA, add(CFA_XSP16, literal(-9)))
          CFI (cfiCond460) VB load(1, XDATA, add(CFA_XSP16, literal(-8)))
          CFI (cfiCond460) V0 load(1, XDATA, add(CFA_XSP16, literal(-7)))
          CFI (cfiCond460) R7 load(1, XDATA, add(CFA_XSP16, literal(-6)))
          CFI (cfiCond460) ?RET_LOW load(1, XDATA, add(CFA_XSP16, literal(-5)))
          CFI (cfiCond460) ?RET_HIGH load(1, XDATA, add(CFA_XSP16, literal(-4)))
          CFI (cfiCond460) ?BRET_EXT load(1, XDATA, add(CFA_XSP16, literal(-3)))
          CFI (cfiCond460) DPL0 load(1, XDATA, add(CFA_XSP16, literal(-2)))
          CFI (cfiCond460) DPH0 load(1, XDATA, add(CFA_XSP16, literal(-1)))
          CFI (cfiCond460) CFA_SP SP+0
          CFI (cfiCond460) CFA_XSP16 add(XSP16, 9)
          CFI Block cfiCond461 Using cfiCommon0
          CFI (cfiCond461) Function ZDSecMgrNewDeviceEvent
          CFI (cfiCond461) Conditional ??CrossCallReturnLabel_246, ??CrossCallReturnLabel_221, ??CrossCallReturnLabel_206
          CFI (cfiCond461) R6 load(1, XDATA, add(CFA_XSP16, literal(-12)))
          CFI (cfiCond461) VB load(1, XDATA, add(CFA_XSP16, literal(-11)))
          CFI (cfiCond461) V0 load(1, XDATA, add(CFA_XSP16, literal(-10)))
          CFI (cfiCond461) V1 load(1, XDATA, add(CFA_XSP16, literal(-9)))
          CFI (cfiCond461) V2 load(1, XDATA, add(CFA_XSP16, literal(-8)))
          CFI (cfiCond461) V3 load(1, XDATA, add(CFA_XSP16, literal(-7)))
          CFI (cfiCond461) R7 load(1, XDATA, add(CFA_XSP16, literal(-6)))
          CFI (cfiCond461) ?RET_LOW load(1, XDATA, add(CFA_XSP16, literal(-5)))
          CFI (cfiCond461) ?RET_HIGH load(1, XDATA, add(CFA_XSP16, literal(-4)))
          CFI (cfiCond461) ?BRET_EXT load(1, XDATA, add(CFA_XSP16, literal(-3)))
          CFI (cfiCond461) DPL0 load(1, XDATA, add(CFA_XSP16, literal(-2)))
          CFI (cfiCond461) DPH0 load(1, XDATA, add(CFA_XSP16, literal(-1)))
          CFI (cfiCond461) CFA_SP SP+0
          CFI (cfiCond461) CFA_XSP16 add(XSP16, 35)
          CFI Block cfiCond462 Using cfiCommon0
          CFI (cfiCond462) Function ZDSecMgrEvent
          CFI (cfiCond462) Conditional ??CrossCallReturnLabel_246, ??CrossCallReturnLabel_221, ??CrossCallReturnLabel_207
          CFI (cfiCond462) R6 load(1, XDATA, add(CFA_XSP16, literal(-10)))
          CFI (cfiCond462) VB load(1, XDATA, add(CFA_XSP16, literal(-9)))
          CFI (cfiCond462) V0 load(1, XDATA, add(CFA_XSP16, literal(-8)))
          CFI (cfiCond462) V1 load(1, XDATA, add(CFA_XSP16, literal(-7)))
          CFI (cfiCond462) R7 load(1, XDATA, add(CFA_XSP16, literal(-6)))
          CFI (cfiCond462) ?RET_LOW load(1, XDATA, add(CFA_XSP16, literal(-5)))
          CFI (cfiCond462) ?RET_HIGH load(1, XDATA, add(CFA_XSP16, literal(-4)))
          CFI (cfiCond462) ?BRET_EXT load(1, XDATA, add(CFA_XSP16, literal(-3)))
          CFI (cfiCond462) DPL0 load(1, XDATA, add(CFA_XSP16, literal(-2)))
          CFI (cfiCond462) DPH0 load(1, XDATA, add(CFA_XSP16, literal(-1)))
          CFI (cfiCond462) CFA_SP SP+0
          CFI (cfiCond462) CFA_XSP16 add(XSP16, 33)
          CFI Block cfiCond463 Using cfiCommon0
          CFI (cfiCond463) Function ZDSecMgrEstablishKeyInd
          CFI (cfiCond463) Conditional ??CrossCallReturnLabel_246, ??CrossCallReturnLabel_221, ??CrossCallReturnLabel_208
          CFI (cfiCond463) R6 load(1, XDATA, add(CFA_XSP16, literal(-12)))
          CFI (cfiCond463) VB load(1, XDATA, add(CFA_XSP16, literal(-11)))
          CFI (cfiCond463) V0 load(1, XDATA, add(CFA_XSP16, literal(-10)))
          CFI (cfiCond463) V1 load(1, XDATA, add(CFA_XSP16, literal(-9)))
          CFI (cfiCond463) V2 load(1, XDATA, add(CFA_XSP16, literal(-8)))
          CFI (cfiCond463) V3 load(1, XDATA, add(CFA_XSP16, literal(-7)))
          CFI (cfiCond463) R7 load(1, XDATA, add(CFA_XSP16, literal(-6)))
          CFI (cfiCond463) ?RET_LOW load(1, XDATA, add(CFA_XSP16, literal(-5)))
          CFI (cfiCond463) ?RET_HIGH load(1, XDATA, add(CFA_XSP16, literal(-4)))
          CFI (cfiCond463) ?BRET_EXT load(1, XDATA, add(CFA_XSP16, literal(-3)))
          CFI (cfiCond463) DPL0 load(1, XDATA, add(CFA_XSP16, literal(-2)))
          CFI (cfiCond463) DPH0 load(1, XDATA, add(CFA_XSP16, literal(-1)))
          CFI (cfiCond463) CFA_SP SP+0
          CFI (cfiCond463) CFA_XSP16 add(XSP16, 29)
          CFI Block cfiCond464 Using cfiCommon0
          CFI (cfiCond464) Function ZDSecMgrAuthenticateInd
          CFI (cfiCond464) Conditional ??CrossCallReturnLabel_246, ??CrossCallReturnLabel_221, ??CrossCallReturnLabel_209
          CFI (cfiCond464) R6 load(1, XDATA, add(CFA_XSP16, literal(-12)))
          CFI (cfiCond464) VB load(1, XDATA, add(CFA_XSP16, literal(-11)))
          CFI (cfiCond464) V0 load(1, XDATA, add(CFA_XSP16, literal(-10)))
          CFI (cfiCond464) V1 load(1, XDATA, add(CFA_XSP16, literal(-9)))
          CFI (cfiCond464) V2 load(1, XDATA, add(CFA_XSP16, literal(-8)))
          CFI (cfiCond464) V3 load(1, XDATA, add(CFA_XSP16, literal(-7)))
          CFI (cfiCond464) R7 load(1, XDATA, add(CFA_XSP16, literal(-6)))
          CFI (cfiCond464) ?RET_LOW load(1, XDATA, add(CFA_XSP16, literal(-5)))
          CFI (cfiCond464) ?RET_HIGH load(1, XDATA, add(CFA_XSP16, literal(-4)))
          CFI (cfiCond464) ?BRET_EXT load(1, XDATA, add(CFA_XSP16, literal(-3)))
          CFI (cfiCond464) DPL0 load(1, XDATA, add(CFA_XSP16, literal(-2)))
          CFI (cfiCond464) DPH0 load(1, XDATA, add(CFA_XSP16, literal(-1)))
          CFI (cfiCond464) CFA_SP SP+0
          CFI (cfiCond464) CFA_XSP16 add(XSP16, 32)
          CFI Block cfiCond465 Using cfiCommon0
          CFI (cfiCond465) Function ZDSecMgrAPSRemove
          CFI (cfiCond465) Conditional ??CrossCallReturnLabel_246, ??CrossCallReturnLabel_221, ??CrossCallReturnLabel_210
          CFI (cfiCond465) DPL0 Frame(CFA_SP, 4)
          CFI (cfiCond465) DPH0 Frame(CFA_SP, 5)
          CFI (cfiCond465) CFA_SP SP+-5
          CFI (cfiCond465) CFA_XSP16 add(XSP16, 10)
          CFI Block cfiCond466 Using cfiCommon0
          CFI (cfiCond466) Function ZDSecMgrEstablishKeyInd
          CFI (cfiCond466) Conditional ??CrossCallReturnLabel_246, ??CrossCallReturnLabel_213, ??CrossCallReturnLabel_11
          CFI (cfiCond466) R6 load(1, XDATA, add(CFA_XSP16, literal(-12)))
          CFI (cfiCond466) VB load(1, XDATA, add(CFA_XSP16, literal(-11)))
          CFI (cfiCond466) V0 load(1, XDATA, add(CFA_XSP16, literal(-10)))
          CFI (cfiCond466) V1 load(1, XDATA, add(CFA_XSP16, literal(-9)))
          CFI (cfiCond466) V2 load(1, XDATA, add(CFA_XSP16, literal(-8)))
          CFI (cfiCond466) V3 load(1, XDATA, add(CFA_XSP16, literal(-7)))
          CFI (cfiCond466) R7 load(1, XDATA, add(CFA_XSP16, literal(-6)))
          CFI (cfiCond466) ?RET_LOW load(1, XDATA, add(CFA_XSP16, literal(-5)))
          CFI (cfiCond466) ?RET_HIGH load(1, XDATA, add(CFA_XSP16, literal(-4)))
          CFI (cfiCond466) ?BRET_EXT load(1, XDATA, add(CFA_XSP16, literal(-3)))
          CFI (cfiCond466) DPL0 load(1, XDATA, add(CFA_XSP16, literal(-2)))
          CFI (cfiCond466) DPH0 load(1, XDATA, add(CFA_XSP16, literal(-1)))
          CFI (cfiCond466) CFA_SP SP+0
          CFI (cfiCond466) CFA_XSP16 add(XSP16, 29)
          CFI Block cfiCond467 Using cfiCommon0
          CFI (cfiCond467) Function ZDSecMgrEstablishKeyInd
          CFI (cfiCond467) Conditional ??CrossCallReturnLabel_246, ??CrossCallReturnLabel_213, ??CrossCallReturnLabel_12
          CFI (cfiCond467) R6 load(1, XDATA, add(CFA_XSP16, literal(-12)))
          CFI (cfiCond467) VB load(1, XDATA, add(CFA_XSP16, literal(-11)))
          CFI (cfiCond467) V0 load(1, XDATA, add(CFA_XSP16, literal(-10)))
          CFI (cfiCond467) V1 load(1, XDATA, add(CFA_XSP16, literal(-9)))
          CFI (cfiCond467) V2 load(1, XDATA, add(CFA_XSP16, literal(-8)))
          CFI (cfiCond467) V3 load(1, XDATA, add(CFA_XSP16, literal(-7)))
          CFI (cfiCond467) R7 load(1, XDATA, add(CFA_XSP16, literal(-6)))
          CFI (cfiCond467) ?RET_LOW load(1, XDATA, add(CFA_XSP16, literal(-5)))
          CFI (cfiCond467) ?RET_HIGH load(1, XDATA, add(CFA_XSP16, literal(-4)))
          CFI (cfiCond467) ?BRET_EXT load(1, XDATA, add(CFA_XSP16, literal(-3)))
          CFI (cfiCond467) DPL0 load(1, XDATA, add(CFA_XSP16, literal(-2)))
          CFI (cfiCond467) DPH0 load(1, XDATA, add(CFA_XSP16, literal(-1)))
          CFI (cfiCond467) CFA_SP SP+0
          CFI (cfiCond467) CFA_XSP16 add(XSP16, 29)
          CFI Block cfiCond468 Using cfiCommon0
          CFI (cfiCond468) Function ZDSecMgrSendNwkKey
          CFI (cfiCond468) Conditional ??CrossCallReturnLabel_246, ??CrossCallReturnLabel_217, ??CrossCallReturnLabel_52
          CFI (cfiCond468) R6 load(1, XDATA, add(CFA_XSP16, literal(-12)))
          CFI (cfiCond468) VB load(1, XDATA, add(CFA_XSP16, literal(-11)))
          CFI (cfiCond468) V0 load(1, XDATA, add(CFA_XSP16, literal(-10)))
          CFI (cfiCond468) V1 load(1, XDATA, add(CFA_XSP16, literal(-9)))
          CFI (cfiCond468) V2 load(1, XDATA, add(CFA_XSP16, literal(-8)))
          CFI (cfiCond468) V3 load(1, XDATA, add(CFA_XSP16, literal(-7)))
          CFI (cfiCond468) R7 load(1, XDATA, add(CFA_XSP16, literal(-6)))
          CFI (cfiCond468) ?RET_LOW load(1, XDATA, add(CFA_XSP16, literal(-5)))
          CFI (cfiCond468) ?RET_HIGH load(1, XDATA, add(CFA_XSP16, literal(-4)))
          CFI (cfiCond468) ?BRET_EXT load(1, XDATA, add(CFA_XSP16, literal(-3)))
          CFI (cfiCond468) DPL0 load(1, XDATA, add(CFA_XSP16, literal(-2)))
          CFI (cfiCond468) DPH0 load(1, XDATA, add(CFA_XSP16, literal(-1)))
          CFI (cfiCond468) CFA_SP SP+0
          CFI (cfiCond468) CFA_XSP16 add(XSP16, 25)
          CFI Block cfiCond469 Using cfiCommon0
          CFI (cfiCond469) Function ZDSecMgrAddLinkKey
          CFI (cfiCond469) Conditional ??CrossCallReturnLabel_246, ??CrossCallReturnLabel_217, ??CrossCallReturnLabel_53
          CFI (cfiCond469) R6 load(1, XDATA, add(CFA_XSP16, literal(-12)))
          CFI (cfiCond469) VB load(1, XDATA, add(CFA_XSP16, literal(-11)))
          CFI (cfiCond469) V0 load(1, XDATA, add(CFA_XSP16, literal(-10)))
          CFI (cfiCond469) V1 load(1, XDATA, add(CFA_XSP16, literal(-9)))
          CFI (cfiCond469) V2 load(1, XDATA, add(CFA_XSP16, literal(-8)))
          CFI (cfiCond469) V3 load(1, XDATA, add(CFA_XSP16, literal(-7)))
          CFI (cfiCond469) R7 load(1, XDATA, add(CFA_XSP16, literal(-6)))
          CFI (cfiCond469) ?RET_LOW load(1, XDATA, add(CFA_XSP16, literal(-5)))
          CFI (cfiCond469) ?RET_HIGH load(1, XDATA, add(CFA_XSP16, literal(-4)))
          CFI (cfiCond469) ?BRET_EXT load(1, XDATA, add(CFA_XSP16, literal(-3)))
          CFI (cfiCond469) DPL0 load(1, XDATA, add(CFA_XSP16, literal(-2)))
          CFI (cfiCond469) DPH0 load(1, XDATA, add(CFA_XSP16, literal(-1)))
          CFI (cfiCond469) CFA_SP SP+0
          CFI (cfiCond469) CFA_XSP16 add(XSP16, 16)
          CFI Block cfiCond470 Using cfiCommon0
          CFI (cfiCond470) Function APSME_LinkKeySet
          CFI (cfiCond470) Conditional ??CrossCallReturnLabel_248, ??CrossCallReturnLabel_240
          CFI (cfiCond470) R6 load(1, XDATA, add(CFA_XSP16, literal(-12)))
          CFI (cfiCond470) VB load(1, XDATA, add(CFA_XSP16, literal(-11)))
          CFI (cfiCond470) V0 load(1, XDATA, add(CFA_XSP16, literal(-10)))
          CFI (cfiCond470) V1 load(1, XDATA, add(CFA_XSP16, literal(-9)))
          CFI (cfiCond470) V2 load(1, XDATA, add(CFA_XSP16, literal(-8)))
          CFI (cfiCond470) V3 load(1, XDATA, add(CFA_XSP16, literal(-7)))
          CFI (cfiCond470) R7 load(1, XDATA, add(CFA_XSP16, literal(-6)))
          CFI (cfiCond470) ?RET_LOW load(1, XDATA, add(CFA_XSP16, literal(-5)))
          CFI (cfiCond470) ?RET_HIGH load(1, XDATA, add(CFA_XSP16, literal(-4)))
          CFI (cfiCond470) ?BRET_EXT load(1, XDATA, add(CFA_XSP16, literal(-3)))
          CFI (cfiCond470) DPL0 load(1, XDATA, add(CFA_XSP16, literal(-2)))
          CFI (cfiCond470) DPH0 load(1, XDATA, add(CFA_XSP16, literal(-1)))
          CFI (cfiCond470) CFA_SP SP+0
          CFI (cfiCond470) CFA_XSP16 add(XSP16, 14)
          CFI Block cfiCond471 Using cfiCommon0
          CFI (cfiCond471) Function ZDSecMgrDeviceCtrlUpdate
          CFI (cfiCond471) Conditional ??CrossCallReturnLabel_248, ??CrossCallReturnLabel_242, ??CrossCallReturnLabel_9
          CFI (cfiCond471) R6 load(1, XDATA, add(CFA_XSP16, literal(-9)))
          CFI (cfiCond471) VB load(1, XDATA, add(CFA_XSP16, literal(-8)))
          CFI (cfiCond471) V0 load(1, XDATA, add(CFA_XSP16, literal(-7)))
          CFI (cfiCond471) R7 load(1, XDATA, add(CFA_XSP16, literal(-6)))
          CFI (cfiCond471) ?RET_LOW load(1, XDATA, add(CFA_XSP16, literal(-5)))
          CFI (cfiCond471) ?RET_HIGH load(1, XDATA, add(CFA_XSP16, literal(-4)))
          CFI (cfiCond471) ?BRET_EXT load(1, XDATA, add(CFA_XSP16, literal(-3)))
          CFI (cfiCond471) DPL0 load(1, XDATA, add(CFA_XSP16, literal(-2)))
          CFI (cfiCond471) DPH0 load(1, XDATA, add(CFA_XSP16, literal(-1)))
          CFI (cfiCond471) CFA_SP SP+0
          CFI (cfiCond471) CFA_XSP16 add(XSP16, 13)
          CFI Block cfiCond472 Using cfiCommon0
          CFI (cfiCond472) Function APSME_LinkKeySet
          CFI (cfiCond472) Conditional ??CrossCallReturnLabel_248, ??CrossCallReturnLabel_242, ??CrossCallReturnLabel_10
          CFI (cfiCond472) R6 load(1, XDATA, add(CFA_XSP16, literal(-12)))
          CFI (cfiCond472) VB load(1, XDATA, add(CFA_XSP16, literal(-11)))
          CFI (cfiCond472) V0 load(1, XDATA, add(CFA_XSP16, literal(-10)))
          CFI (cfiCond472) V1 load(1, XDATA, add(CFA_XSP16, literal(-9)))
          CFI (cfiCond472) V2 load(1, XDATA, add(CFA_XSP16, literal(-8)))
          CFI (cfiCond472) V3 load(1, XDATA, add(CFA_XSP16, literal(-7)))
          CFI (cfiCond472) R7 load(1, XDATA, add(CFA_XSP16, literal(-6)))
          CFI (cfiCond472) ?RET_LOW load(1, XDATA, add(CFA_XSP16, literal(-5)))
          CFI (cfiCond472) ?RET_HIGH load(1, XDATA, add(CFA_XSP16, literal(-4)))
          CFI (cfiCond472) ?BRET_EXT load(1, XDATA, add(CFA_XSP16, literal(-3)))
          CFI (cfiCond472) DPL0 load(1, XDATA, add(CFA_XSP16, literal(-2)))
          CFI (cfiCond472) DPH0 load(1, XDATA, add(CFA_XSP16, literal(-1)))
          CFI (cfiCond472) CFA_SP SP+0
          CFI (cfiCond472) CFA_XSP16 add(XSP16, 14)
          CFI Block cfiCond473 Using cfiCommon0
          CFI (cfiCond473) Function ZDSecMgrAuthenticationSet
          CFI (cfiCond473) Conditional ??CrossCallReturnLabel_248, ??CrossCallReturnLabel_241
          CFI (cfiCond473) R6 load(1, XDATA, add(CFA_XSP16, literal(-9)))
          CFI (cfiCond473) VB load(1, XDATA, add(CFA_XSP16, literal(-8)))
          CFI (cfiCond473) V0 load(1, XDATA, add(CFA_XSP16, literal(-7)))
          CFI (cfiCond473) R7 load(1, XDATA, add(CFA_XSP16, literal(-6)))
          CFI (cfiCond473) ?RET_LOW load(1, XDATA, add(CFA_XSP16, literal(-5)))
          CFI (cfiCond473) ?RET_HIGH load(1, XDATA, add(CFA_XSP16, literal(-4)))
          CFI (cfiCond473) ?BRET_EXT load(1, XDATA, add(CFA_XSP16, literal(-3)))
          CFI (cfiCond473) DPL0 load(1, XDATA, add(CFA_XSP16, literal(-2)))
          CFI (cfiCond473) DPH0 load(1, XDATA, add(CFA_XSP16, literal(-1)))
          CFI (cfiCond473) CFA_SP SP+0
          CFI (cfiCond473) CFA_XSP16 add(XSP16, 11)
          CFI Block cfiCond474 Using cfiCommon0
          CFI (cfiCond474) Function ZDSecMgrDeviceCtrlHandler
          CFI (cfiCond474) Conditional ??CrossCallReturnLabel_248, ??CrossCallReturnLabel_239
          CFI (cfiCond474) R6 load(1, XDATA, add(CFA_XSP16, literal(-9)))
          CFI (cfiCond474) VB load(1, XDATA, add(CFA_XSP16, literal(-8)))
          CFI (cfiCond474) V0 load(1, XDATA, add(CFA_XSP16, literal(-7)))
          CFI (cfiCond474) R7 load(1, XDATA, add(CFA_XSP16, literal(-6)))
          CFI (cfiCond474) ?RET_LOW load(1, XDATA, add(CFA_XSP16, literal(-5)))
          CFI (cfiCond474) ?RET_HIGH load(1, XDATA, add(CFA_XSP16, literal(-4)))
          CFI (cfiCond474) ?BRET_EXT load(1, XDATA, add(CFA_XSP16, literal(-3)))
          CFI (cfiCond474) DPL0 load(1, XDATA, add(CFA_XSP16, literal(-2)))
          CFI (cfiCond474) DPH0 load(1, XDATA, add(CFA_XSP16, literal(-1)))
          CFI (cfiCond474) CFA_SP SP+0
          CFI (cfiCond474) CFA_XSP16 add(XSP16, 9)
          CFI Block cfiPicker475 Using cfiCommon1
          CFI (cfiPicker475) NoFunction
          CFI (cfiPicker475) Picker
        MOVX    A,@DPTR
        MOV     R0,A
        INC     DPTR
        MOVX    A,@DPTR
        RET
          CFI EndBlock cfiCond411
          CFI EndBlock cfiCond412
          CFI EndBlock cfiCond413
          CFI EndBlock cfiCond414
          CFI EndBlock cfiCond415
          CFI EndBlock cfiCond416
          CFI EndBlock cfiCond417
          CFI EndBlock cfiCond418
          CFI EndBlock cfiCond419
          CFI EndBlock cfiCond420
          CFI EndBlock cfiCond421
          CFI EndBlock cfiCond422
          CFI EndBlock cfiCond423
          CFI EndBlock cfiCond424
          CFI EndBlock cfiCond425
          CFI EndBlock cfiCond426
          CFI EndBlock cfiCond427
          CFI EndBlock cfiCond428
          CFI EndBlock cfiCond429
          CFI EndBlock cfiCond430
          CFI EndBlock cfiCond431
          CFI EndBlock cfiCond432
          CFI EndBlock cfiCond433
          CFI EndBlock cfiCond434
          CFI EndBlock cfiCond435
          CFI EndBlock cfiCond436
          CFI EndBlock cfiCond437
          CFI EndBlock cfiCond438
          CFI EndBlock cfiCond439
          CFI EndBlock cfiCond440
          CFI EndBlock cfiCond441
          CFI EndBlock cfiCond442
          CFI EndBlock cfiCond443
          CFI EndBlock cfiCond444
          CFI EndBlock cfiCond445
          CFI EndBlock cfiCond446
          CFI EndBlock cfiCond447
          CFI EndBlock cfiCond448
          CFI EndBlock cfiCond449
          CFI EndBlock cfiCond450
          CFI EndBlock cfiCond451
          CFI EndBlock cfiCond452
          CFI EndBlock cfiCond453
          CFI EndBlock cfiCond454
          CFI EndBlock cfiCond455
          CFI EndBlock cfiCond456
          CFI EndBlock cfiCond457
          CFI EndBlock cfiCond458
          CFI EndBlock cfiCond459
          CFI EndBlock cfiCond460
          CFI EndBlock cfiCond461
          CFI EndBlock cfiCond462
          CFI EndBlock cfiCond463
          CFI EndBlock cfiCond464
          CFI EndBlock cfiCond465
          CFI EndBlock cfiCond466
          CFI EndBlock cfiCond467
          CFI EndBlock cfiCond468
          CFI EndBlock cfiCond469
          CFI EndBlock cfiCond470
          CFI EndBlock cfiCond471
          CFI EndBlock cfiCond472
          CFI EndBlock cfiCond473
          CFI EndBlock cfiCond474
          CFI EndBlock cfiPicker475

        RSEG BANKED_CODE:CODE:NOROOT(0)
?Subroutine17:
          CFI Block cfiCond476 Using cfiCommon0
          CFI Function ZDSecMgrSendMasterKey
          CFI Conditional ??CrossCallReturnLabel_191
          CFI R6 load(1, XDATA, add(CFA_XSP16, literal(-10)))
          CFI VB load(1, XDATA, add(CFA_XSP16, literal(-9)))
          CFI V0 load(1, XDATA, add(CFA_XSP16, literal(-8)))
          CFI V1 load(1, XDATA, add(CFA_XSP16, literal(-7)))
          CFI R7 load(1, XDATA, add(CFA_XSP16, literal(-6)))
          CFI ?RET_LOW load(1, XDATA, add(CFA_XSP16, literal(-5)))
          CFI ?RET_HIGH load(1, XDATA, add(CFA_XSP16, literal(-4)))
          CFI ?BRET_EXT load(1, XDATA, add(CFA_XSP16, literal(-3)))
          CFI DPL0 load(1, XDATA, add(CFA_XSP16, literal(-2)))
          CFI DPH0 load(1, XDATA, add(CFA_XSP16, literal(-1)))
          CFI CFA_SP SP+0
          CFI CFA_XSP16 add(XSP16, 23)
          CFI Block cfiCond477 Using cfiCommon0
          CFI (cfiCond477) Function ZDSecMgrSendMasterKey
          CFI (cfiCond477) Conditional ??CrossCallReturnLabel_192
          CFI (cfiCond477) R6 load(1, XDATA, add(CFA_XSP16, literal(-10)))
          CFI (cfiCond477) VB load(1, XDATA, add(CFA_XSP16, literal(-9)))
          CFI (cfiCond477) V0 load(1, XDATA, add(CFA_XSP16, literal(-8)))
          CFI (cfiCond477) V1 load(1, XDATA, add(CFA_XSP16, literal(-7)))
          CFI (cfiCond477) R7 load(1, XDATA, add(CFA_XSP16, literal(-6)))
          CFI (cfiCond477) ?RET_LOW load(1, XDATA, add(CFA_XSP16, literal(-5)))
          CFI (cfiCond477) ?RET_HIGH load(1, XDATA, add(CFA_XSP16, literal(-4)))
          CFI (cfiCond477) ?BRET_EXT load(1, XDATA, add(CFA_XSP16, literal(-3)))
          CFI (cfiCond477) DPL0 load(1, XDATA, add(CFA_XSP16, literal(-2)))
          CFI (cfiCond477) DPH0 load(1, XDATA, add(CFA_XSP16, literal(-1)))
          CFI (cfiCond477) CFA_SP SP+0
          CFI (cfiCond477) CFA_XSP16 add(XSP16, 23)
          CFI Block cfiPicker478 Using cfiCommon1
          CFI (cfiPicker478) NoFunction
          CFI (cfiPicker478) Picker
        MOV     DPL,?XSP + 0
        MOV     DPH,?XSP + 1
          CFI EndBlock cfiCond476
          CFI EndBlock cfiCond477
          CFI EndBlock cfiPicker478
        REQUIRE ??Subroutine92_0
        ; // Fall through to label ??Subroutine92_0

        RSEG BANKED_CODE:CODE:NOROOT(0)
??Subroutine92_0:
          CFI Block cfiCond479 Using cfiCommon0
          CFI Function ZDSecMgrAppKeyReq
          CFI Conditional ??CrossCallReturnLabel_193
          CFI R6 load(1, XDATA, add(CFA_XSP16, literal(-10)))
          CFI VB load(1, XDATA, add(CFA_XSP16, literal(-9)))
          CFI V0 load(1, XDATA, add(CFA_XSP16, literal(-8)))
          CFI V1 load(1, XDATA, add(CFA_XSP16, literal(-7)))
          CFI R7 load(1, XDATA, add(CFA_XSP16, literal(-6)))
          CFI ?RET_LOW load(1, XDATA, add(CFA_XSP16, literal(-5)))
          CFI ?RET_HIGH load(1, XDATA, add(CFA_XSP16, literal(-4)))
          CFI ?BRET_EXT load(1, XDATA, add(CFA_XSP16, literal(-3)))
          CFI DPL0 load(1, XDATA, add(CFA_XSP16, literal(-2)))
          CFI DPH0 load(1, XDATA, add(CFA_XSP16, literal(-1)))
          CFI CFA_SP SP+0
          CFI CFA_XSP16 add(XSP16, 49)
          CFI Block cfiCond480 Using cfiCommon0
          CFI (cfiCond480) Function ZDSecMgrNewDeviceEvent
          CFI (cfiCond480) Conditional ??CrossCallReturnLabel_194
          CFI (cfiCond480) R6 load(1, XDATA, add(CFA_XSP16, literal(-12)))
          CFI (cfiCond480) VB load(1, XDATA, add(CFA_XSP16, literal(-11)))
          CFI (cfiCond480) V0 load(1, XDATA, add(CFA_XSP16, literal(-10)))
          CFI (cfiCond480) V1 load(1, XDATA, add(CFA_XSP16, literal(-9)))
          CFI (cfiCond480) V2 load(1, XDATA, add(CFA_XSP16, literal(-8)))
          CFI (cfiCond480) V3 load(1, XDATA, add(CFA_XSP16, literal(-7)))
          CFI (cfiCond480) R7 load(1, XDATA, add(CFA_XSP16, literal(-6)))
          CFI (cfiCond480) ?RET_LOW load(1, XDATA, add(CFA_XSP16, literal(-5)))
          CFI (cfiCond480) ?RET_HIGH load(1, XDATA, add(CFA_XSP16, literal(-4)))
          CFI (cfiCond480) ?BRET_EXT load(1, XDATA, add(CFA_XSP16, literal(-3)))
          CFI (cfiCond480) DPL0 load(1, XDATA, add(CFA_XSP16, literal(-2)))
          CFI (cfiCond480) DPH0 load(1, XDATA, add(CFA_XSP16, literal(-1)))
          CFI (cfiCond480) CFA_SP SP+0
          CFI (cfiCond480) CFA_XSP16 add(XSP16, 35)
          CFI Block cfiCond481 Using cfiCommon0
          CFI (cfiCond481) Function ZDSecMgrEvent
          CFI (cfiCond481) Conditional ??CrossCallReturnLabel_195
          CFI (cfiCond481) R6 load(1, XDATA, add(CFA_XSP16, literal(-10)))
          CFI (cfiCond481) VB load(1, XDATA, add(CFA_XSP16, literal(-9)))
          CFI (cfiCond481) V0 load(1, XDATA, add(CFA_XSP16, literal(-8)))
          CFI (cfiCond481) V1 load(1, XDATA, add(CFA_XSP16, literal(-7)))
          CFI (cfiCond481) R7 load(1, XDATA, add(CFA_XSP16, literal(-6)))
          CFI (cfiCond481) ?RET_LOW load(1, XDATA, add(CFA_XSP16, literal(-5)))
          CFI (cfiCond481) ?RET_HIGH load(1, XDATA, add(CFA_XSP16, literal(-4)))
          CFI (cfiCond481) ?BRET_EXT load(1, XDATA, add(CFA_XSP16, literal(-3)))
          CFI (cfiCond481) DPL0 load(1, XDATA, add(CFA_XSP16, literal(-2)))
          CFI (cfiCond481) DPH0 load(1, XDATA, add(CFA_XSP16, literal(-1)))
          CFI (cfiCond481) CFA_SP SP+0
          CFI (cfiCond481) CFA_XSP16 add(XSP16, 33)
          CFI Block cfiCond482 Using cfiCommon0
          CFI (cfiCond482) Function ZDSecMgrEvent
          CFI (cfiCond482) Conditional ??CrossCallReturnLabel_196
          CFI (cfiCond482) R6 load(1, XDATA, add(CFA_XSP16, literal(-10)))
          CFI (cfiCond482) VB load(1, XDATA, add(CFA_XSP16, literal(-9)))
          CFI (cfiCond482) V0 load(1, XDATA, add(CFA_XSP16, literal(-8)))
          CFI (cfiCond482) V1 load(1, XDATA, add(CFA_XSP16, literal(-7)))
          CFI (cfiCond482) R7 load(1, XDATA, add(CFA_XSP16, literal(-6)))
          CFI (cfiCond482) ?RET_LOW load(1, XDATA, add(CFA_XSP16, literal(-5)))
          CFI (cfiCond482) ?RET_HIGH load(1, XDATA, add(CFA_XSP16, literal(-4)))
          CFI (cfiCond482) ?BRET_EXT load(1, XDATA, add(CFA_XSP16, literal(-3)))
          CFI (cfiCond482) DPL0 load(1, XDATA, add(CFA_XSP16, literal(-2)))
          CFI (cfiCond482) DPH0 load(1, XDATA, add(CFA_XSP16, literal(-1)))
          CFI (cfiCond482) CFA_SP SP+0
          CFI (cfiCond482) CFA_XSP16 add(XSP16, 33)
          CFI Block cfiCond483 Using cfiCommon0
          CFI (cfiCond483) Function ZDSecMgrSendMasterKey
          CFI (cfiCond483) Conditional ??CrossCallReturnLabel_191
          CFI (cfiCond483) R6 load(1, XDATA, add(CFA_XSP16, literal(-10)))
          CFI (cfiCond483) VB load(1, XDATA, add(CFA_XSP16, literal(-9)))
          CFI (cfiCond483) V0 load(1, XDATA, add(CFA_XSP16, literal(-8)))
          CFI (cfiCond483) V1 load(1, XDATA, add(CFA_XSP16, literal(-7)))
          CFI (cfiCond483) R7 load(1, XDATA, add(CFA_XSP16, literal(-6)))
          CFI (cfiCond483) ?RET_LOW load(1, XDATA, add(CFA_XSP16, literal(-5)))
          CFI (cfiCond483) ?RET_HIGH load(1, XDATA, add(CFA_XSP16, literal(-4)))
          CFI (cfiCond483) ?BRET_EXT load(1, XDATA, add(CFA_XSP16, literal(-3)))
          CFI (cfiCond483) DPL0 load(1, XDATA, add(CFA_XSP16, literal(-2)))
          CFI (cfiCond483) DPH0 load(1, XDATA, add(CFA_XSP16, literal(-1)))
          CFI (cfiCond483) CFA_SP SP+0
          CFI (cfiCond483) CFA_XSP16 add(XSP16, 23)
          CFI Block cfiCond484 Using cfiCommon0
          CFI (cfiCond484) Function ZDSecMgrSendMasterKey
          CFI (cfiCond484) Conditional ??CrossCallReturnLabel_192
          CFI (cfiCond484) R6 load(1, XDATA, add(CFA_XSP16, literal(-10)))
          CFI (cfiCond484) VB load(1, XDATA, add(CFA_XSP16, literal(-9)))
          CFI (cfiCond484) V0 load(1, XDATA, add(CFA_XSP16, literal(-8)))
          CFI (cfiCond484) V1 load(1, XDATA, add(CFA_XSP16, literal(-7)))
          CFI (cfiCond484) R7 load(1, XDATA, add(CFA_XSP16, literal(-6)))
          CFI (cfiCond484) ?RET_LOW load(1, XDATA, add(CFA_XSP16, literal(-5)))
          CFI (cfiCond484) ?RET_HIGH load(1, XDATA, add(CFA_XSP16, literal(-4)))
          CFI (cfiCond484) ?BRET_EXT load(1, XDATA, add(CFA_XSP16, literal(-3)))
          CFI (cfiCond484) DPL0 load(1, XDATA, add(CFA_XSP16, literal(-2)))
          CFI (cfiCond484) DPH0 load(1, XDATA, add(CFA_XSP16, literal(-1)))
          CFI (cfiCond484) CFA_SP SP+0
          CFI (cfiCond484) CFA_XSP16 add(XSP16, 23)
          CFI Block cfiPicker485 Using cfiCommon1
          CFI (cfiPicker485) NoFunction
          CFI (cfiPicker485) Picker
        LCALL   ?Subroutine71 & 0xFFFF
??CrossCallReturnLabel_202:
        ; Setup parameters for call to function AddrMgrEntryGet
        ; Setup parameters for call to function AddrMgrEntryGet
        MOV     A,#0xa
        RET
          CFI EndBlock cfiCond479
          CFI EndBlock cfiCond480
          CFI EndBlock cfiCond481
          CFI EndBlock cfiCond482
          CFI EndBlock cfiCond483
          CFI EndBlock cfiCond484
          CFI EndBlock cfiPicker485

        RSEG BANKED_CODE:CODE:NOROOT(0)
?Subroutine2:
          CFI Block cfiBlock486 Using cfiCommon0
          CFI NoFunction
          CFI CFA_SP SP+0
          CFI CFA_XSP16 add(XSP16, 23)
          CFI VB load(1, XDATA, add(CFA_XSP16, literal(-9)))
          CFI DPL0 load(1, XDATA, add(CFA_XSP16, literal(-2)))
          CFI DPH0 load(1, XDATA, add(CFA_XSP16, literal(-1)))
          CFI R6 load(1, XDATA, add(CFA_XSP16, literal(-10)))
          CFI R7 load(1, XDATA, add(CFA_XSP16, literal(-6)))
          CFI V0 load(1, XDATA, add(CFA_XSP16, literal(-8)))
          CFI V1 load(1, XDATA, add(CFA_XSP16, literal(-7)))
          CFI ?BRET_EXT load(1, XDATA, add(CFA_XSP16, literal(-3)))
          CFI ?RET_HIGH load(1, XDATA, add(CFA_XSP16, literal(-4)))
          CFI ?RET_LOW load(1, XDATA, add(CFA_XSP16, literal(-5)))
        MOV     A,#0xd
          CFI EndBlock cfiBlock486
        REQUIRE ??Subroutine93_0
        ; // Fall through to label ??Subroutine93_0

        RSEG BANKED_CODE:CODE:NOROOT(0)
??Subroutine93_0:
          CFI Block cfiBlock487 Using cfiCommon0
          CFI NoFunction
          CFI CFA_SP SP+0
          CFI CFA_XSP16 add(XSP16, 12)
          CFI VB load(1, XDATA, add(CFA_XSP16, literal(-9)))
          CFI DPL0 load(1, XDATA, add(CFA_XSP16, literal(-2)))
          CFI DPH0 load(1, XDATA, add(CFA_XSP16, literal(-1)))
          CFI R6 load(1, XDATA, add(CFA_XSP16, literal(-10)))
          CFI R7 load(1, XDATA, add(CFA_XSP16, literal(-6)))
          CFI V0 load(1, XDATA, add(CFA_XSP16, literal(-8)))
          CFI V1 load(1, XDATA, add(CFA_XSP16, literal(-7)))
          CFI ?BRET_EXT load(1, XDATA, add(CFA_XSP16, literal(-3)))
          CFI ?RET_HIGH load(1, XDATA, add(CFA_XSP16, literal(-4)))
          CFI ?RET_LOW load(1, XDATA, add(CFA_XSP16, literal(-5)))
          CFI Invalid
        LCALL   ?DEALLOC_XSTACK8
          CFI EndBlock cfiBlock487
        REQUIRE ??Subroutine94_0
        ; // Fall through to label ??Subroutine94_0

        RSEG BANKED_CODE:CODE:NOROOT(0)
??Subroutine94_0:
          CFI Block cfiBlock488 Using cfiCommon0
          CFI NoFunction
          CFI CFA_SP SP+0
          CFI CFA_XSP16 add(XSP16, 10)
          CFI VB load(1, XDATA, add(CFA_XSP16, literal(-9)))
          CFI DPL0 load(1, XDATA, add(CFA_XSP16, literal(-2)))
          CFI DPH0 load(1, XDATA, add(CFA_XSP16, literal(-1)))
          CFI R6 load(1, XDATA, add(CFA_XSP16, literal(-10)))
          CFI R7 load(1, XDATA, add(CFA_XSP16, literal(-6)))
          CFI V0 load(1, XDATA, add(CFA_XSP16, literal(-8)))
          CFI V1 load(1, XDATA, add(CFA_XSP16, literal(-7)))
          CFI ?BRET_EXT load(1, XDATA, add(CFA_XSP16, literal(-3)))
          CFI ?RET_HIGH load(1, XDATA, add(CFA_XSP16, literal(-4)))
          CFI ?RET_LOW load(1, XDATA, add(CFA_XSP16, literal(-5)))
        MOV     R7,#0x2
        LJMP    ?BANKED_LEAVE_XDATA
          CFI EndBlock cfiBlock488
// 2590 
// 2591 /******************************************************************************
// 2592  * @fn          ZDSecMgrEstablishKeyCfm
// 2593  *
// 2594  * @brief       Process the ZDO_EstablishKeyCfm_t message.
// 2595  *
// 2596  * @param       cfm - [in] ZDO_EstablishKeyCfm_t confirmation
// 2597  *
// 2598  * @return      none
// 2599  */

        RSEG BANKED_CODE:CODE:NOROOT(0)
// 2600 void ZDSecMgrEstablishKeyCfm( ZDO_EstablishKeyCfm_t* cfm )
ZDSecMgrEstablishKeyCfm:
          CFI Block cfiBlock489 Using cfiCommon0
          CFI Function ZDSecMgrEstablishKeyCfm
        CODE
// 2601 {
        ; Saved register size: 0
        ; Auto size: 0
// 2602   // send the NWK key
// 2603   if ( ( ZG_BUILD_COORDINATOR_TYPE ) && ( ZG_DEVICE_COORDINATOR_TYPE ) )
// 2604   {
// 2605     // update control for specified EXT address
// 2606     ZDSecMgrDeviceCtrlUpdate( cfm->partExtAddr, ZDSECMGR_CTRL_SKKE_DONE );
// 2607   }
// 2608   else
// 2609   {
// 2610     // this should be done when receiving the NWK key
// 2611     // if devState ==
// 2612     //if ( devState == DEV_END_DEVICE_UNAUTH )
// 2613         //osal_set_event( ZDAppTaskID, ZDO_DEVICE_AUTH );
// 2614 
// 2615     // if not in joining state -- this should trigger an event for an
// 2616     // end point that requested SKKE
// 2617     // if ( devState == DEV_END_DEVICE )
// 2618    //       devState == DEV_ROUTER;
// 2619 
// 2620   }
// 2621 }
        LJMP    ?BRET
          CFI EndBlock cfiBlock489
// 2622 
// 2623 uint8 ZDSecMgrTCExtAddrCheck( uint8* extAddr );

        RSEG BANKED_CODE:CODE:NOROOT(0)
// 2624 uint8 ZDSecMgrTCExtAddrCheck( uint8* extAddr )
ZDSecMgrTCExtAddrCheck:
          CFI Block cfiBlock490 Using cfiCommon0
          CFI Function ZDSecMgrTCExtAddrCheck
        CODE
// 2625 {
        FUNCALL ZDSecMgrTCExtAddrCheck, AddrMgrExtAddrLookup
        LOCFRAME ISTACK, 0, STACK
        LOCFRAME PSTACK, 0, STACK
        LOCFRAME XSTACK, 17, STACK
        LOCFRAME IOVERLAY, 0, STATIC
        LOCFRAME DOVERLAY, 0, STATIC
        ARGFRAME ISTACK, 0, STACK
        ARGFRAME PSTACK, 0, STACK
        ARGFRAME XSTACK, 17, STACK
        ARGFRAME IOVERLAY, 0, STATIC
        ARGFRAME DOVERLAY, 0, STATIC
        FUNCALL ZDSecMgrTCExtAddrCheck, AddrMgrExtAddrEqual
        LOCFRAME ISTACK, 0, STACK
        LOCFRAME PSTACK, 0, STACK
        LOCFRAME XSTACK, 17, STACK
        LOCFRAME IOVERLAY, 0, STATIC
        LOCFRAME DOVERLAY, 0, STATIC
        ARGFRAME ISTACK, 0, STACK
        ARGFRAME PSTACK, 0, STACK
        ARGFRAME XSTACK, 17, STACK
        ARGFRAME IOVERLAY, 0, STATIC
        ARGFRAME DOVERLAY, 0, STATIC
        MOV     A,#-0x9
        LCALL   ?BANKED_ENTER_XDATA
          CFI DPH0 load(1, XDATA, add(CFA_XSP16, literal(-1)))
          CFI DPL0 load(1, XDATA, add(CFA_XSP16, literal(-2)))
          CFI ?BRET_EXT load(1, XDATA, add(CFA_XSP16, literal(-3)))
          CFI ?RET_HIGH load(1, XDATA, add(CFA_XSP16, literal(-4)))
          CFI ?RET_LOW load(1, XDATA, add(CFA_XSP16, literal(-5)))
          CFI R7 load(1, XDATA, add(CFA_XSP16, literal(-6)))
          CFI V0 load(1, XDATA, add(CFA_XSP16, literal(-7)))
          CFI VB load(1, XDATA, add(CFA_XSP16, literal(-8)))
          CFI R6 load(1, XDATA, add(CFA_XSP16, literal(-9)))
          CFI CFA_SP SP+0
          CFI CFA_XSP16 add(XSP16, 9)
        ; Saved register size: 9
        ; Auto size: 8
        MOV     A,#-0x8
        LCALL   ?ALLOC_XSTACK8
          CFI CFA_XSP16 add(XSP16, 17)
        MOV     A,R2
        MOV     R6,A
        MOV     A,R3
        MOV     R7,A
// 2626   uint8  match;
// 2627   uint8  lookup[Z_EXTADDR_LEN];
// 2628 
// 2629   match = FALSE;
        MOV     ?V0 + 0,#0x0
// 2630 
// 2631   if ( AddrMgrExtAddrLookup( APSME_TRUSTCENTER_NWKADDR, lookup ) )
        ; Setup parameters for call to function AddrMgrExtAddrLookup
        MOV     DPL,?XSP + 0
        MOV     DPH,?XSP + 1
        MOV     R4,DPL
        MOV     R5,DPH
        MOV     R2,#0x0
        MOV     R3,#0x0
        LCALL   ??AddrMgrExtAddrLookup?relay
        MOV     A,R1
        JZ      ??ZDSecMgrTCExtAddrCheck_0
// 2632   {
// 2633     match = AddrMgrExtAddrEqual( lookup, extAddr );
        ; Setup parameters for call to function AddrMgrExtAddrEqual
        MOV     A,R6
        MOV     R4,A
        MOV     A,R7
        MOV     R5,A
        MOV     DPL,?XSP + 0
        MOV     DPH,?XSP + 1
        MOV     R2,DPL
        MOV     R3,DPH
        LCALL   ??AddrMgrExtAddrEqual?relay
        MOV     A,R1
        MOV     ?V0 + 0,A
// 2634   }
// 2635 
// 2636   return match;
??ZDSecMgrTCExtAddrCheck_0:
        MOV     R1,?V0 + 0
        MOV     A,#0x8
        LJMP    ??Subroutine82_0 & 0xFFFF
          CFI EndBlock cfiBlock490
// 2637 }
// 2638 
// 2639 void ZDSecMgrTCDataLoad( uint8* extAddr );

        RSEG BANKED_CODE:CODE:NOROOT(0)
// 2640 void ZDSecMgrTCDataLoad( uint8* extAddr )
ZDSecMgrTCDataLoad:
          CFI Block cfiBlock491 Using cfiCommon0
          CFI Function ZDSecMgrTCDataLoad
        CODE
// 2641 {
        FUNCALL ZDSecMgrTCDataLoad, ZDSecMgrAddrStore
        LOCFRAME ISTACK, 0, STACK
        LOCFRAME PSTACK, 0, STACK
        LOCFRAME XSTACK, 16, STACK
        LOCFRAME IOVERLAY, 0, STATIC
        LOCFRAME DOVERLAY, 0, STATIC
        ARGFRAME ISTACK, 0, STACK
        ARGFRAME PSTACK, 0, STACK
        ARGFRAME XSTACK, 16, STACK
        ARGFRAME IOVERLAY, 0, STATIC
        ARGFRAME DOVERLAY, 0, STATIC
        FUNCALL ZDSecMgrTCDataLoad, ZDSecMgrMasterKeyLookup
        LOCFRAME ISTACK, 0, STACK
        LOCFRAME PSTACK, 0, STACK
        LOCFRAME XSTACK, 14, STACK
        LOCFRAME IOVERLAY, 0, STATIC
        LOCFRAME DOVERLAY, 0, STATIC
        ARGFRAME ISTACK, 0, STACK
        ARGFRAME PSTACK, 0, STACK
        ARGFRAME XSTACK, 14, STACK
        ARGFRAME IOVERLAY, 0, STATIC
        ARGFRAME DOVERLAY, 0, STATIC
        FUNCALL ZDSecMgrTCDataLoad, ZDSecMgrMasterKeyStore
        LOCFRAME ISTACK, 0, STACK
        LOCFRAME PSTACK, 0, STACK
        LOCFRAME XSTACK, 14, STACK
        LOCFRAME IOVERLAY, 0, STATIC
        LOCFRAME DOVERLAY, 0, STATIC
        ARGFRAME ISTACK, 0, STACK
        ARGFRAME PSTACK, 0, STACK
        ARGFRAME XSTACK, 14, STACK
        ARGFRAME IOVERLAY, 0, STATIC
        ARGFRAME DOVERLAY, 0, STATIC
        MOV     A,#-0xa
        LCALL   ?BANKED_ENTER_XDATA
          CFI DPH0 load(1, XDATA, add(CFA_XSP16, literal(-1)))
          CFI DPL0 load(1, XDATA, add(CFA_XSP16, literal(-2)))
          CFI ?BRET_EXT load(1, XDATA, add(CFA_XSP16, literal(-3)))
          CFI ?RET_HIGH load(1, XDATA, add(CFA_XSP16, literal(-4)))
          CFI ?RET_LOW load(1, XDATA, add(CFA_XSP16, literal(-5)))
          CFI R7 load(1, XDATA, add(CFA_XSP16, literal(-6)))
          CFI V1 load(1, XDATA, add(CFA_XSP16, literal(-7)))
          CFI V0 load(1, XDATA, add(CFA_XSP16, literal(-8)))
          CFI VB load(1, XDATA, add(CFA_XSP16, literal(-9)))
          CFI R6 load(1, XDATA, add(CFA_XSP16, literal(-10)))
          CFI CFA_SP SP+0
          CFI CFA_XSP16 add(XSP16, 10)
        ; Saved register size: 10
        ; Auto size: 4
        MOV     A,#-0x4
        LCALL   ?ALLOC_XSTACK8
          CFI CFA_XSP16 add(XSP16, 14)
// 2642   uint16 ami;
// 2643   uint8* key;
// 2644 
// 2645   if ( !ZDSecMgrTCDataLoaded )
        MOV     DPTR,#ZDSecMgrTCDataLoaded
        MOVX    A,@DPTR
        JNZ     ??ZDSecMgrTCDataLoad_0
// 2646   {
// 2647     if ( ZDSecMgrAddrStore( APSME_TRUSTCENTER_NWKADDR, extAddr, &ami ) == ZSuccess )
        ; Setup parameters for call to function ZDSecMgrAddrStore
        MOV     DPL,?XSP + 0
        MOV     DPH,?XSP + 1
        MOV     ?V0 + 0,DPL
        MOV     ?V0 + 1,DPH
        MOV     R0,#?V0 + 0
        LCALL   ?PUSH_XSTACK_I_TWO
          CFI CFA_XSP16 add(XSP16, 16)
        MOV     A,R2
        MOV     R4,A
        MOV     A,R3
        MOV     R5,A
        MOV     R2,#0x0
        MOV     R3,#0x0
        LCALL   ??ZDSecMgrAddrStore?relay
        MOV     A,#0x2
        LCALL   ?DEALLOC_XSTACK8
          CFI CFA_XSP16 add(XSP16, 14)
        MOV     A,R1
        JNZ     ??ZDSecMgrTCDataLoad_1
// 2648     {
// 2649       // if preconfigured load key
// 2650       if ( zgPreConfigKeys == TRUE )
        MOV     DPTR,#zgPreConfigKeys
        MOVX    A,@DPTR
        XRL     A,#0x1
        JNZ     ??ZDSecMgrTCDataLoad_1
// 2651       {
// 2652         if ( ZDSecMgrMasterKeyLookup( ami, &key ) != ZSuccess )
        ; Setup parameters for call to function ZDSecMgrMasterKeyLookup
        MOV     A,#0x2
        LCALL   ?XSTACK_DISP0_8
        MOV     R4,DPL
        MOV     R5,DPH
        LCALL   ??Subroutine84_0 & 0xFFFF
??CrossCallReturnLabel_146:
        LCALL   ??ZDSecMgrMasterKeyLookup?relay
        MOV     A,R1
        JZ      ??ZDSecMgrTCDataLoad_1
// 2653         {
// 2654           ZDSecMgrMasterKeyStore( ami, ZDSecMgrTCMasterKey );
        ; Setup parameters for call to function ZDSecMgrMasterKeyStore
        MOV     R4,#ZDSecMgrTCMasterKey & 0xff
        MOV     R5,#(ZDSecMgrTCMasterKey >> 8) & 0xff
        LCALL   ??Subroutine84_0 & 0xFFFF
// 2655         }
// 2656       }
// 2657     }
??CrossCallReturnLabel_147:
        LCALL   ??ZDSecMgrMasterKeyStore?relay
// 2658 
// 2659     ZDSecMgrTCDataLoaded = TRUE;
??ZDSecMgrTCDataLoad_1:
        MOV     DPTR,#ZDSecMgrTCDataLoaded
        MOV     A,#0x1
        MOVX    @DPTR,A
// 2660   }
// 2661 }
??ZDSecMgrTCDataLoad_0:
        MOV     A,#0x4
        LJMP    ??Subroutine93_0 & 0xFFFF
          CFI EndBlock cfiBlock491
// 2662 
// 2663 /******************************************************************************
// 2664  * @fn          ZDSecMgrEstablishKeyInd
// 2665  *
// 2666  * @brief       Process the ZDO_EstablishKeyInd_t message.
// 2667  *
// 2668  * @param       ind - [in] ZDO_EstablishKeyInd_t indication
// 2669  *
// 2670  * @return      none
// 2671  */

        RSEG BANKED_CODE:CODE:NOROOT(0)
// 2672 void ZDSecMgrEstablishKeyInd( ZDO_EstablishKeyInd_t* ind )
ZDSecMgrEstablishKeyInd:
          CFI Block cfiBlock492 Using cfiCommon0
          CFI Function ZDSecMgrEstablishKeyInd
        CODE
// 2673 {
        FUNCALL ZDSecMgrEstablishKeyInd, ZDSecMgrTCDataLoad
        LOCFRAME ISTACK, 0, STACK
        LOCFRAME PSTACK, 0, STACK
        LOCFRAME XSTACK, 29, STACK
        LOCFRAME IOVERLAY, 0, STATIC
        LOCFRAME DOVERLAY, 0, STATIC
        ARGFRAME ISTACK, 0, STACK
        ARGFRAME PSTACK, 0, STACK
        ARGFRAME XSTACK, 29, STACK
        ARGFRAME IOVERLAY, 0, STATIC
        ARGFRAME DOVERLAY, 0, STATIC
        FUNCALL ZDSecMgrEstablishKeyInd, ZDSecMgrTCExtAddrCheck
        LOCFRAME ISTACK, 0, STACK
        LOCFRAME PSTACK, 0, STACK
        LOCFRAME XSTACK, 29, STACK
        LOCFRAME IOVERLAY, 0, STATIC
        LOCFRAME DOVERLAY, 0, STATIC
        ARGFRAME ISTACK, 0, STACK
        ARGFRAME PSTACK, 0, STACK
        ARGFRAME XSTACK, 29, STACK
        ARGFRAME IOVERLAY, 0, STATIC
        ARGFRAME DOVERLAY, 0, STATIC
        FUNCALL ZDSecMgrEstablishKeyInd, ZDSecMgrDeviceValidateSKKE
        LOCFRAME ISTACK, 0, STACK
        LOCFRAME PSTACK, 0, STACK
        LOCFRAME XSTACK, 29, STACK
        LOCFRAME IOVERLAY, 0, STATIC
        LOCFRAME DOVERLAY, 0, STATIC
        ARGFRAME ISTACK, 0, STACK
        ARGFRAME PSTACK, 0, STACK
        ARGFRAME XSTACK, 29, STACK
        ARGFRAME IOVERLAY, 0, STATIC
        ARGFRAME DOVERLAY, 0, STATIC
        FUNCALL ZDSecMgrEstablishKeyInd, APSME_EstablishKeyRsp
        LOCFRAME ISTACK, 0, STACK
        LOCFRAME PSTACK, 0, STACK
        LOCFRAME XSTACK, 29, STACK
        LOCFRAME IOVERLAY, 0, STATIC
        LOCFRAME DOVERLAY, 0, STATIC
        ARGFRAME ISTACK, 0, STACK
        ARGFRAME PSTACK, 0, STACK
        ARGFRAME XSTACK, 29, STACK
        ARGFRAME IOVERLAY, 0, STATIC
        ARGFRAME DOVERLAY, 0, STATIC
        MOV     A,#-0xc
        LCALL   ?BANKED_ENTER_XDATA
          CFI DPH0 load(1, XDATA, add(CFA_XSP16, literal(-1)))
          CFI DPL0 load(1, XDATA, add(CFA_XSP16, literal(-2)))
          CFI ?BRET_EXT load(1, XDATA, add(CFA_XSP16, literal(-3)))
          CFI ?RET_HIGH load(1, XDATA, add(CFA_XSP16, literal(-4)))
          CFI ?RET_LOW load(1, XDATA, add(CFA_XSP16, literal(-5)))
          CFI R7 load(1, XDATA, add(CFA_XSP16, literal(-6)))
          CFI V3 load(1, XDATA, add(CFA_XSP16, literal(-7)))
          CFI V2 load(1, XDATA, add(CFA_XSP16, literal(-8)))
          CFI V1 load(1, XDATA, add(CFA_XSP16, literal(-9)))
          CFI V0 load(1, XDATA, add(CFA_XSP16, literal(-10)))
          CFI VB load(1, XDATA, add(CFA_XSP16, literal(-11)))
          CFI R6 load(1, XDATA, add(CFA_XSP16, literal(-12)))
          CFI CFA_SP SP+0
          CFI CFA_XSP16 add(XSP16, 12)
        ; Saved register size: 12
        ; Auto size: 17
        MOV     A,#-0x11
        LCALL   ?ALLOC_XSTACK8
          CFI CFA_XSP16 add(XSP16, 29)
        MOV     A,R2
        MOV     R6,A
        MOV     A,R3
        MOV     R7,A
// 2674   ZDSecMgrDevice_t        device;
// 2675   APSME_EstablishKeyRsp_t rsp;
// 2676 
// 2677 
// 2678   // load Trust Center data if needed
// 2679   ZDSecMgrTCDataLoad( ind->initExtAddr );
        LCALL   ?Subroutine61 & 0xFFFF
??CrossCallReturnLabel_77:
        ; Setup parameters for call to function ZDSecMgrTCDataLoad
        MOV     R2,?V0 + 0
        MOV     R3,A
        LCALL   ??ZDSecMgrTCDataLoad?relay
// 2680 
// 2681   if ( ZDSecMgrTCExtAddrCheck( ind->initExtAddr ) )
        LCALL   ?Subroutine60 & 0xFFFF
??CrossCallReturnLabel_76:
        MOV     R1,A
        MOV     ?V0 + 2,R0
        MOV     ?V0 + 3,R1
        ; Setup parameters for call to function ZDSecMgrTCExtAddrCheck
        MOV     R2,?V0 + 0
        MOV     R3,?V0 + 1
        LCALL   ??ZDSecMgrTCExtAddrCheck?relay
        MOV     A,R1
        JZ      ??ZDSecMgrEstablishKeyInd_0
// 2682   {
// 2683     //IF (ind->srcAddr == APSME_TRUSTCENTER_NWKADDR)
// 2684     //OR
// 2685     //!ZDSecMgrTCAuthenticated
// 2686     //devtag.0604.critical
// 2687         //how is the parentAddr used here
// 2688 
// 2689     // initial SKKE from Trust Center via parent
// 2690     device.nwkAddr    = APSME_TRUSTCENTER_NWKADDR;
        MOV     A,#0x7
        LCALL   ?XSTACK_DISP0_8
        CLR     A
        MOVX    @DPTR,A
        INC     DPTR
        LCALL   ?Subroutine23 & 0xFFFF
// 2691     device.parentAddr = ind->srcAddr;
// 2692   }
??CrossCallReturnLabel_11:
        MOV     A,#0xb
        LCALL   ?XSTACK_DISP0_8
        MOV     A,R0
        MOVX    @DPTR,A
        INC     DPTR
        MOV     A,R1
        SJMP    ??ZDSecMgrEstablishKeyInd_1
// 2693   else
// 2694   {
// 2695     // Trust Center direct or E2E SKKE
// 2696     device.nwkAddr    = ind->srcAddr;
??ZDSecMgrEstablishKeyInd_0:
        MOV     DPL,?V0 + 2
        MOV     DPH,?V0 + 3
        LCALL   ??Subroutine95_0 & 0xFFFF
??CrossCallReturnLabel_208:
        MOV     A,#0x7
        LCALL   ?XSTACK_DISP0_8
        LCALL   ??Subroutine87_0 & 0xFFFF
// 2697     device.parentAddr = INVALID_NODE_ADDR;
??CrossCallReturnLabel_161:
        MOV     A,#0xb
        LCALL   ?XSTACK_DISP0_8
        MOV     A,#-0x2
        MOVX    @DPTR,A
        INC     DPTR
        INC     A
??ZDSecMgrEstablishKeyInd_1:
        MOVX    @DPTR,A
// 2698   }
// 2699 
// 2700   device.extAddr = ind->initExtAddr;
        MOV     A,#0x9
        LCALL   ?XSTACK_DISP0_8
        LCALL   ?Subroutine32 & 0xFFFF
// 2701   //devtag.pro.security.0724.todo - verify usage
// 2702   device.secure  = ind->nwkSecure;
??CrossCallReturnLabel_32:
        MOV     A,R6
        ADD     A,#0xe
        LCALL   ?Subroutine55 & 0xFFFF
??CrossCallReturnLabel_70:
        PUSH    A
          CFI CFA_SP SP+-1
        MOV     A,#0xd
        LCALL   ?XSTACK_DISP0_8
        POP     A
          CFI CFA_SP SP+0
        MOVX    @DPTR,A
// 2703 
// 2704   // validate device for SKKE
// 2705   if ( ZDSecMgrDeviceValidateSKKE( &device ) == ZSuccess )
        ; Setup parameters for call to function ZDSecMgrDeviceValidateSKKE
        MOV     A,#0x7
        LCALL   ?XSTACK_DISP0_8
        MOV     R2,DPL
        MOV     R3,DPH
        LCALL   ??ZDSecMgrDeviceValidateSKKE?relay
        MOV     A,R1
        JNZ     ??ZDSecMgrEstablishKeyInd_2
// 2706   {
// 2707     rsp.accept = TRUE;
        MOV     A,#0x4
        LCALL   ?XSTACK_DISP0_8
        MOV     A,#0x1
        SJMP    ??ZDSecMgrEstablishKeyInd_3
// 2708   }
// 2709   else
// 2710   {
// 2711     rsp.accept = FALSE;
??ZDSecMgrEstablishKeyInd_2:
        MOV     A,#0x4
        LCALL   ?XSTACK_DISP0_8
        CLR     A
// 2712   }
??ZDSecMgrEstablishKeyInd_3:
        LCALL   ?Subroutine23 & 0xFFFF
// 2713 
// 2714   rsp.dstAddr     = ind->srcAddr;
??CrossCallReturnLabel_12:
        LCALL   ??Subroutine86_0 & 0xFFFF
// 2715   rsp.initExtAddr = &ind->initExtAddr[0];
??CrossCallReturnLabel_166:
        MOV     A,R6
        ADD     A,#0x4
        MOV     R0,A
        MOV     A,R7
        ADDC    A,#0x0
        MOV     R1,A
        MOV     A,#0x2
        LCALL   ?XSTACK_DISP0_8
        LCALL   ??Subroutine87_0 & 0xFFFF
// 2716   //devtag.0604.todo - remove obsolete
// 2717   rsp.apsSecure   = ind->apsSecure;
??CrossCallReturnLabel_162:
        MOV     A,R6
        ADD     A,#0xd
        MOV     DPL,A
        MOV     A,R7
        LCALL   ??Subroutine91_0 & 0xFFFF
??CrossCallReturnLabel_187:
        PUSH    A
          CFI CFA_SP SP+-1
        MOV     A,#0x5
        LCALL   ?XSTACK_DISP0_8
        POP     A
          CFI CFA_SP SP+0
        LCALL   ?Subroutine21 & 0xFFFF
// 2718   rsp.nwkSecure   = ind->nwkSecure;
??CrossCallReturnLabel_8:
        PUSH    A
          CFI CFA_SP SP+-1
        MOV     A,#0x6
        LCALL   ?XSTACK_DISP0_8
        POP     A
          CFI CFA_SP SP+0
        LCALL   ??Subroutine90_0 & 0xFFFF
// 2719 
// 2720   APSME_EstablishKeyRsp( &rsp );
??CrossCallReturnLabel_185:
        LCALL   ??APSME_EstablishKeyRsp?relay
// 2721 }
        MOV     A,#0x11
        SJMP    ??Subroutine97_0
          CFI EndBlock cfiBlock492

        RSEG BANKED_CODE:CODE:NOROOT(0)
?Subroutine46:
          CFI Block cfiCond493 Using cfiCommon0
          CFI Function ZDSecMgrEstablishKey
          CFI Conditional ??CrossCallReturnLabel_211
          CFI R6 load(1, XDATA, add(CFA_XSP16, literal(-10)))
          CFI VB load(1, XDATA, add(CFA_XSP16, literal(-9)))
          CFI V0 load(1, XDATA, add(CFA_XSP16, literal(-8)))
          CFI V1 load(1, XDATA, add(CFA_XSP16, literal(-7)))
          CFI R7 load(1, XDATA, add(CFA_XSP16, literal(-6)))
          CFI ?RET_LOW load(1, XDATA, add(CFA_XSP16, literal(-5)))
          CFI ?RET_HIGH load(1, XDATA, add(CFA_XSP16, literal(-4)))
          CFI ?BRET_EXT load(1, XDATA, add(CFA_XSP16, literal(-3)))
          CFI DPL0 load(1, XDATA, add(CFA_XSP16, literal(-2)))
          CFI DPH0 load(1, XDATA, add(CFA_XSP16, literal(-1)))
          CFI CFA_SP SP+0
          CFI CFA_XSP16 add(XSP16, 17)
          CFI Block cfiCond494 Using cfiCommon0
          CFI (cfiCond494) Function ZDSecMgrSendMasterKey
          CFI (cfiCond494) Conditional ??CrossCallReturnLabel_212
          CFI (cfiCond494) R6 load(1, XDATA, add(CFA_XSP16, literal(-10)))
          CFI (cfiCond494) VB load(1, XDATA, add(CFA_XSP16, literal(-9)))
          CFI (cfiCond494) V0 load(1, XDATA, add(CFA_XSP16, literal(-8)))
          CFI (cfiCond494) V1 load(1, XDATA, add(CFA_XSP16, literal(-7)))
          CFI (cfiCond494) R7 load(1, XDATA, add(CFA_XSP16, literal(-6)))
          CFI (cfiCond494) ?RET_LOW load(1, XDATA, add(CFA_XSP16, literal(-5)))
          CFI (cfiCond494) ?RET_HIGH load(1, XDATA, add(CFA_XSP16, literal(-4)))
          CFI (cfiCond494) ?BRET_EXT load(1, XDATA, add(CFA_XSP16, literal(-3)))
          CFI (cfiCond494) DPL0 load(1, XDATA, add(CFA_XSP16, literal(-2)))
          CFI (cfiCond494) DPH0 load(1, XDATA, add(CFA_XSP16, literal(-1)))
          CFI (cfiCond494) CFA_SP SP+0
          CFI (cfiCond494) CFA_XSP16 add(XSP16, 23)
          CFI Block cfiPicker495 Using cfiCommon1
          CFI (cfiPicker495) NoFunction
          CFI (cfiPicker495) Picker
        MOV     DPL,R6
        MOV     DPH,R7
          CFI EndBlock cfiCond493
          CFI EndBlock cfiCond494
          CFI EndBlock cfiPicker495
        REQUIRE ??Subroutine95_0
        ; // Fall through to label ??Subroutine95_0

        RSEG BANKED_CODE:CODE:NOROOT(0)
??Subroutine95_0:
          CFI Block cfiCond496 Using cfiCommon0
          CFI Function ZDSecMgrCtrlSet
          CFI Conditional ??CrossCallReturnLabel_203
          CFI R6 load(1, XDATA, add(CFA_XSP16, literal(-9)))
          CFI VB load(1, XDATA, add(CFA_XSP16, literal(-8)))
          CFI V0 load(1, XDATA, add(CFA_XSP16, literal(-7)))
          CFI R7 load(1, XDATA, add(CFA_XSP16, literal(-6)))
          CFI ?RET_LOW load(1, XDATA, add(CFA_XSP16, literal(-5)))
          CFI ?RET_HIGH load(1, XDATA, add(CFA_XSP16, literal(-4)))
          CFI ?BRET_EXT load(1, XDATA, add(CFA_XSP16, literal(-3)))
          CFI DPL0 load(1, XDATA, add(CFA_XSP16, literal(-2)))
          CFI DPH0 load(1, XDATA, add(CFA_XSP16, literal(-1)))
          CFI CFA_SP SP+0
          CFI CFA_XSP16 add(XSP16, 9)
          CFI Block cfiCond497 Using cfiCommon0
          CFI (cfiCond497) Function ZDSecMgrAppKeyGet
          CFI (cfiCond497) Conditional ??CrossCallReturnLabel_204
          CFI (cfiCond497) R6 load(1, XDATA, add(CFA_XSP16, literal(-9)))
          CFI (cfiCond497) VB load(1, XDATA, add(CFA_XSP16, literal(-8)))
          CFI (cfiCond497) V0 load(1, XDATA, add(CFA_XSP16, literal(-7)))
          CFI (cfiCond497) R7 load(1, XDATA, add(CFA_XSP16, literal(-6)))
          CFI (cfiCond497) ?RET_LOW load(1, XDATA, add(CFA_XSP16, literal(-5)))
          CFI (cfiCond497) ?RET_HIGH load(1, XDATA, add(CFA_XSP16, literal(-4)))
          CFI (cfiCond497) ?BRET_EXT load(1, XDATA, add(CFA_XSP16, literal(-3)))
          CFI (cfiCond497) DPL0 load(1, XDATA, add(CFA_XSP16, literal(-2)))
          CFI (cfiCond497) DPH0 load(1, XDATA, add(CFA_XSP16, literal(-1)))
          CFI (cfiCond497) CFA_SP SP+0
          CFI (cfiCond497) CFA_XSP16 add(XSP16, 9)
          CFI Block cfiCond498 Using cfiCommon0
          CFI (cfiCond498) Function ZDSecMgrAppKeyGet
          CFI (cfiCond498) Conditional ??CrossCallReturnLabel_205
          CFI (cfiCond498) R6 load(1, XDATA, add(CFA_XSP16, literal(-9)))
          CFI (cfiCond498) VB load(1, XDATA, add(CFA_XSP16, literal(-8)))
          CFI (cfiCond498) V0 load(1, XDATA, add(CFA_XSP16, literal(-7)))
          CFI (cfiCond498) R7 load(1, XDATA, add(CFA_XSP16, literal(-6)))
          CFI (cfiCond498) ?RET_LOW load(1, XDATA, add(CFA_XSP16, literal(-5)))
          CFI (cfiCond498) ?RET_HIGH load(1, XDATA, add(CFA_XSP16, literal(-4)))
          CFI (cfiCond498) ?BRET_EXT load(1, XDATA, add(CFA_XSP16, literal(-3)))
          CFI (cfiCond498) DPL0 load(1, XDATA, add(CFA_XSP16, literal(-2)))
          CFI (cfiCond498) DPH0 load(1, XDATA, add(CFA_XSP16, literal(-1)))
          CFI (cfiCond498) CFA_SP SP+0
          CFI (cfiCond498) CFA_XSP16 add(XSP16, 9)
          CFI Block cfiCond499 Using cfiCommon0
          CFI (cfiCond499) Function ZDSecMgrNewDeviceEvent
          CFI (cfiCond499) Conditional ??CrossCallReturnLabel_206
          CFI (cfiCond499) R6 load(1, XDATA, add(CFA_XSP16, literal(-12)))
          CFI (cfiCond499) VB load(1, XDATA, add(CFA_XSP16, literal(-11)))
          CFI (cfiCond499) V0 load(1, XDATA, add(CFA_XSP16, literal(-10)))
          CFI (cfiCond499) V1 load(1, XDATA, add(CFA_XSP16, literal(-9)))
          CFI (cfiCond499) V2 load(1, XDATA, add(CFA_XSP16, literal(-8)))
          CFI (cfiCond499) V3 load(1, XDATA, add(CFA_XSP16, literal(-7)))
          CFI (cfiCond499) R7 load(1, XDATA, add(CFA_XSP16, literal(-6)))
          CFI (cfiCond499) ?RET_LOW load(1, XDATA, add(CFA_XSP16, literal(-5)))
          CFI (cfiCond499) ?RET_HIGH load(1, XDATA, add(CFA_XSP16, literal(-4)))
          CFI (cfiCond499) ?BRET_EXT load(1, XDATA, add(CFA_XSP16, literal(-3)))
          CFI (cfiCond499) DPL0 load(1, XDATA, add(CFA_XSP16, literal(-2)))
          CFI (cfiCond499) DPH0 load(1, XDATA, add(CFA_XSP16, literal(-1)))
          CFI (cfiCond499) CFA_SP SP+0
          CFI (cfiCond499) CFA_XSP16 add(XSP16, 35)
          CFI Block cfiCond500 Using cfiCommon0
          CFI (cfiCond500) Function ZDSecMgrEvent
          CFI (cfiCond500) Conditional ??CrossCallReturnLabel_207
          CFI (cfiCond500) R6 load(1, XDATA, add(CFA_XSP16, literal(-10)))
          CFI (cfiCond500) VB load(1, XDATA, add(CFA_XSP16, literal(-9)))
          CFI (cfiCond500) V0 load(1, XDATA, add(CFA_XSP16, literal(-8)))
          CFI (cfiCond500) V1 load(1, XDATA, add(CFA_XSP16, literal(-7)))
          CFI (cfiCond500) R7 load(1, XDATA, add(CFA_XSP16, literal(-6)))
          CFI (cfiCond500) ?RET_LOW load(1, XDATA, add(CFA_XSP16, literal(-5)))
          CFI (cfiCond500) ?RET_HIGH load(1, XDATA, add(CFA_XSP16, literal(-4)))
          CFI (cfiCond500) ?BRET_EXT load(1, XDATA, add(CFA_XSP16, literal(-3)))
          CFI (cfiCond500) DPL0 load(1, XDATA, add(CFA_XSP16, literal(-2)))
          CFI (cfiCond500) DPH0 load(1, XDATA, add(CFA_XSP16, literal(-1)))
          CFI (cfiCond500) CFA_SP SP+0
          CFI (cfiCond500) CFA_XSP16 add(XSP16, 33)
          CFI Block cfiCond501 Using cfiCommon0
          CFI (cfiCond501) Function ZDSecMgrEstablishKeyInd
          CFI (cfiCond501) Conditional ??CrossCallReturnLabel_208
          CFI (cfiCond501) R6 load(1, XDATA, add(CFA_XSP16, literal(-12)))
          CFI (cfiCond501) VB load(1, XDATA, add(CFA_XSP16, literal(-11)))
          CFI (cfiCond501) V0 load(1, XDATA, add(CFA_XSP16, literal(-10)))
          CFI (cfiCond501) V1 load(1, XDATA, add(CFA_XSP16, literal(-9)))
          CFI (cfiCond501) V2 load(1, XDATA, add(CFA_XSP16, literal(-8)))
          CFI (cfiCond501) V3 load(1, XDATA, add(CFA_XSP16, literal(-7)))
          CFI (cfiCond501) R7 load(1, XDATA, add(CFA_XSP16, literal(-6)))
          CFI (cfiCond501) ?RET_LOW load(1, XDATA, add(CFA_XSP16, literal(-5)))
          CFI (cfiCond501) ?RET_HIGH load(1, XDATA, add(CFA_XSP16, literal(-4)))
          CFI (cfiCond501) ?BRET_EXT load(1, XDATA, add(CFA_XSP16, literal(-3)))
          CFI (cfiCond501) DPL0 load(1, XDATA, add(CFA_XSP16, literal(-2)))
          CFI (cfiCond501) DPH0 load(1, XDATA, add(CFA_XSP16, literal(-1)))
          CFI (cfiCond501) CFA_SP SP+0
          CFI (cfiCond501) CFA_XSP16 add(XSP16, 29)
          CFI Block cfiCond502 Using cfiCommon0
          CFI (cfiCond502) Function ZDSecMgrAuthenticateInd
          CFI (cfiCond502) Conditional ??CrossCallReturnLabel_209
          CFI (cfiCond502) R6 load(1, XDATA, add(CFA_XSP16, literal(-12)))
          CFI (cfiCond502) VB load(1, XDATA, add(CFA_XSP16, literal(-11)))
          CFI (cfiCond502) V0 load(1, XDATA, add(CFA_XSP16, literal(-10)))
          CFI (cfiCond502) V1 load(1, XDATA, add(CFA_XSP16, literal(-9)))
          CFI (cfiCond502) V2 load(1, XDATA, add(CFA_XSP16, literal(-8)))
          CFI (cfiCond502) V3 load(1, XDATA, add(CFA_XSP16, literal(-7)))
          CFI (cfiCond502) R7 load(1, XDATA, add(CFA_XSP16, literal(-6)))
          CFI (cfiCond502) ?RET_LOW load(1, XDATA, add(CFA_XSP16, literal(-5)))
          CFI (cfiCond502) ?RET_HIGH load(1, XDATA, add(CFA_XSP16, literal(-4)))
          CFI (cfiCond502) ?BRET_EXT load(1, XDATA, add(CFA_XSP16, literal(-3)))
          CFI (cfiCond502) DPL0 load(1, XDATA, add(CFA_XSP16, literal(-2)))
          CFI (cfiCond502) DPH0 load(1, XDATA, add(CFA_XSP16, literal(-1)))
          CFI (cfiCond502) CFA_SP SP+0
          CFI (cfiCond502) CFA_XSP16 add(XSP16, 32)
          CFI Block cfiCond503 Using cfiCommon0
          CFI (cfiCond503) Function ZDSecMgrAPSRemove
          CFI (cfiCond503) Conditional ??CrossCallReturnLabel_210
          CFI (cfiCond503) DPL0 Frame(CFA_SP, 4)
          CFI (cfiCond503) DPH0 Frame(CFA_SP, 5)
          CFI (cfiCond503) CFA_SP SP+-5
          CFI (cfiCond503) CFA_XSP16 add(XSP16, 10)
          CFI Block cfiCond504 Using cfiCommon0
          CFI (cfiCond504) Function ZDSecMgrEstablishKey
          CFI (cfiCond504) Conditional ??CrossCallReturnLabel_211
          CFI (cfiCond504) R6 load(1, XDATA, add(CFA_XSP16, literal(-10)))
          CFI (cfiCond504) VB load(1, XDATA, add(CFA_XSP16, literal(-9)))
          CFI (cfiCond504) V0 load(1, XDATA, add(CFA_XSP16, literal(-8)))
          CFI (cfiCond504) V1 load(1, XDATA, add(CFA_XSP16, literal(-7)))
          CFI (cfiCond504) R7 load(1, XDATA, add(CFA_XSP16, literal(-6)))
          CFI (cfiCond504) ?RET_LOW load(1, XDATA, add(CFA_XSP16, literal(-5)))
          CFI (cfiCond504) ?RET_HIGH load(1, XDATA, add(CFA_XSP16, literal(-4)))
          CFI (cfiCond504) ?BRET_EXT load(1, XDATA, add(CFA_XSP16, literal(-3)))
          CFI (cfiCond504) DPL0 load(1, XDATA, add(CFA_XSP16, literal(-2)))
          CFI (cfiCond504) DPH0 load(1, XDATA, add(CFA_XSP16, literal(-1)))
          CFI (cfiCond504) CFA_SP SP+0
          CFI (cfiCond504) CFA_XSP16 add(XSP16, 17)
          CFI Block cfiCond505 Using cfiCommon0
          CFI (cfiCond505) Function ZDSecMgrSendMasterKey
          CFI (cfiCond505) Conditional ??CrossCallReturnLabel_212
          CFI (cfiCond505) R6 load(1, XDATA, add(CFA_XSP16, literal(-10)))
          CFI (cfiCond505) VB load(1, XDATA, add(CFA_XSP16, literal(-9)))
          CFI (cfiCond505) V0 load(1, XDATA, add(CFA_XSP16, literal(-8)))
          CFI (cfiCond505) V1 load(1, XDATA, add(CFA_XSP16, literal(-7)))
          CFI (cfiCond505) R7 load(1, XDATA, add(CFA_XSP16, literal(-6)))
          CFI (cfiCond505) ?RET_LOW load(1, XDATA, add(CFA_XSP16, literal(-5)))
          CFI (cfiCond505) ?RET_HIGH load(1, XDATA, add(CFA_XSP16, literal(-4)))
          CFI (cfiCond505) ?BRET_EXT load(1, XDATA, add(CFA_XSP16, literal(-3)))
          CFI (cfiCond505) DPL0 load(1, XDATA, add(CFA_XSP16, literal(-2)))
          CFI (cfiCond505) DPH0 load(1, XDATA, add(CFA_XSP16, literal(-1)))
          CFI (cfiCond505) CFA_SP SP+0
          CFI (cfiCond505) CFA_XSP16 add(XSP16, 23)
          CFI Block cfiPicker506 Using cfiCommon1
          CFI (cfiPicker506) NoFunction
          CFI (cfiPicker506) Picker
        LCALL   ??Subroutine96_0 & 0xFFFF
??CrossCallReturnLabel_221:
        RET
          CFI EndBlock cfiCond496
          CFI EndBlock cfiCond497
          CFI EndBlock cfiCond498
          CFI EndBlock cfiCond499
          CFI EndBlock cfiCond500
          CFI EndBlock cfiCond501
          CFI EndBlock cfiCond502
          CFI EndBlock cfiCond503
          CFI EndBlock cfiCond504
          CFI EndBlock cfiCond505
          CFI EndBlock cfiPicker506

        RSEG BANKED_CODE:CODE:NOROOT(0)
?Subroutine64:
          CFI Block cfiCond507 Using cfiCommon0
          CFI Function ZDSecMgrSendMasterKey
          CFI Conditional ??CrossCallReturnLabel_219, ??CrossCallReturnLabel_4
          CFI R6 load(1, XDATA, add(CFA_XSP16, literal(-10)))
          CFI VB load(1, XDATA, add(CFA_XSP16, literal(-9)))
          CFI V0 load(1, XDATA, add(CFA_XSP16, literal(-8)))
          CFI V1 load(1, XDATA, add(CFA_XSP16, literal(-7)))
          CFI R7 load(1, XDATA, add(CFA_XSP16, literal(-6)))
          CFI ?RET_LOW load(1, XDATA, add(CFA_XSP16, literal(-5)))
          CFI ?RET_HIGH load(1, XDATA, add(CFA_XSP16, literal(-4)))
          CFI ?BRET_EXT load(1, XDATA, add(CFA_XSP16, literal(-3)))
          CFI DPL0 load(1, XDATA, add(CFA_XSP16, literal(-2)))
          CFI DPH0 load(1, XDATA, add(CFA_XSP16, literal(-1)))
          CFI CFA_SP SP+0
          CFI CFA_XSP16 add(XSP16, 23)
          CFI Block cfiCond508 Using cfiCommon0
          CFI (cfiCond508) Function ZDSecMgrSendNwkKey
          CFI (cfiCond508) Conditional ??CrossCallReturnLabel_219, ??CrossCallReturnLabel_5
          CFI (cfiCond508) R6 load(1, XDATA, add(CFA_XSP16, literal(-12)))
          CFI (cfiCond508) VB load(1, XDATA, add(CFA_XSP16, literal(-11)))
          CFI (cfiCond508) V0 load(1, XDATA, add(CFA_XSP16, literal(-10)))
          CFI (cfiCond508) V1 load(1, XDATA, add(CFA_XSP16, literal(-9)))
          CFI (cfiCond508) V2 load(1, XDATA, add(CFA_XSP16, literal(-8)))
          CFI (cfiCond508) V3 load(1, XDATA, add(CFA_XSP16, literal(-7)))
          CFI (cfiCond508) R7 load(1, XDATA, add(CFA_XSP16, literal(-6)))
          CFI (cfiCond508) ?RET_LOW load(1, XDATA, add(CFA_XSP16, literal(-5)))
          CFI (cfiCond508) ?RET_HIGH load(1, XDATA, add(CFA_XSP16, literal(-4)))
          CFI (cfiCond508) ?BRET_EXT load(1, XDATA, add(CFA_XSP16, literal(-3)))
          CFI (cfiCond508) DPL0 load(1, XDATA, add(CFA_XSP16, literal(-2)))
          CFI (cfiCond508) DPH0 load(1, XDATA, add(CFA_XSP16, literal(-1)))
          CFI (cfiCond508) CFA_SP SP+0
          CFI (cfiCond508) CFA_XSP16 add(XSP16, 25)
          CFI Block cfiCond509 Using cfiCommon0
          CFI (cfiCond509) Function ZDSecMgrDeviceJoinFwd
          CFI (cfiCond509) Conditional ??CrossCallReturnLabel_218, ??CrossCallReturnLabel_0
          CFI (cfiCond509) DPL0 Frame(CFA_SP, 4)
          CFI (cfiCond509) DPH0 Frame(CFA_SP, 5)
          CFI (cfiCond509) CFA_SP SP+-5
          CFI (cfiCond509) CFA_XSP16 add(XSP16, 8)
          CFI Block cfiCond510 Using cfiCommon0
          CFI (cfiCond510) Function ZDSecMgrUpdateDeviceInd
          CFI (cfiCond510) Conditional ??CrossCallReturnLabel_218, ??CrossCallReturnLabel_1
          CFI (cfiCond510) DPL0 Frame(CFA_SP, 4)
          CFI (cfiCond510) DPH0 Frame(CFA_SP, 5)
          CFI (cfiCond510) CFA_SP SP+-5
          CFI (cfiCond510) CFA_XSP16 add(XSP16, 10)
          CFI Block cfiPicker511 Using cfiCommon1
          CFI (cfiPicker511) NoFunction
          CFI (cfiPicker511) Picker
        INC     DPTR
        INC     DPTR
          CFI EndBlock cfiCond507
          CFI EndBlock cfiCond508
          CFI EndBlock cfiCond509
          CFI EndBlock cfiCond510
          CFI EndBlock cfiPicker511
        REQUIRE ??Subroutine96_0
        ; // Fall through to label ??Subroutine96_0

        RSEG BANKED_CODE:CODE:NOROOT(0)
??Subroutine96_0:
          CFI Block cfiCond512 Using cfiCommon0
          CFI Function ZDSecMgrAddrStore
          CFI Conditional ??CrossCallReturnLabel_215, ??CrossCallReturnLabel_45
          CFI R6 load(1, XDATA, add(CFA_XSP16, literal(-9)))
          CFI VB load(1, XDATA, add(CFA_XSP16, literal(-8)))
          CFI V0 load(1, XDATA, add(CFA_XSP16, literal(-7)))
          CFI R7 load(1, XDATA, add(CFA_XSP16, literal(-6)))
          CFI ?RET_LOW load(1, XDATA, add(CFA_XSP16, literal(-5)))
          CFI ?RET_HIGH load(1, XDATA, add(CFA_XSP16, literal(-4)))
          CFI ?BRET_EXT load(1, XDATA, add(CFA_XSP16, literal(-3)))
          CFI DPL0 load(1, XDATA, add(CFA_XSP16, literal(-2)))
          CFI DPH0 load(1, XDATA, add(CFA_XSP16, literal(-1)))
          CFI CFA_SP SP+0
          CFI CFA_XSP16 add(XSP16, 22)
          CFI Block cfiCond513 Using cfiCommon0
          CFI (cfiCond513) Function ZDSecMgrExtAddrStore
          CFI (cfiCond513) Conditional ??CrossCallReturnLabel_215, ??CrossCallReturnLabel_46
          CFI (cfiCond513) R6 load(1, XDATA, add(CFA_XSP16, literal(-9)))
          CFI (cfiCond513) VB load(1, XDATA, add(CFA_XSP16, literal(-8)))
          CFI (cfiCond513) V0 load(1, XDATA, add(CFA_XSP16, literal(-7)))
          CFI (cfiCond513) R7 load(1, XDATA, add(CFA_XSP16, literal(-6)))
          CFI (cfiCond513) ?RET_LOW load(1, XDATA, add(CFA_XSP16, literal(-5)))
          CFI (cfiCond513) ?RET_HIGH load(1, XDATA, add(CFA_XSP16, literal(-4)))
          CFI (cfiCond513) ?BRET_EXT load(1, XDATA, add(CFA_XSP16, literal(-3)))
          CFI (cfiCond513) DPL0 load(1, XDATA, add(CFA_XSP16, literal(-2)))
          CFI (cfiCond513) DPH0 load(1, XDATA, add(CFA_XSP16, literal(-1)))
          CFI (cfiCond513) CFA_SP SP+0
          CFI (cfiCond513) CFA_XSP16 add(XSP16, 22)
          CFI Block cfiCond514 Using cfiCommon0
          CFI (cfiCond514) Function ZDSecMgrEstablishKey
          CFI (cfiCond514) Conditional ??CrossCallReturnLabel_220, ??CrossCallReturnLabel_99
          CFI (cfiCond514) R6 load(1, XDATA, add(CFA_XSP16, literal(-10)))
          CFI (cfiCond514) VB load(1, XDATA, add(CFA_XSP16, literal(-9)))
          CFI (cfiCond514) V0 load(1, XDATA, add(CFA_XSP16, literal(-8)))
          CFI (cfiCond514) V1 load(1, XDATA, add(CFA_XSP16, literal(-7)))
          CFI (cfiCond514) R7 load(1, XDATA, add(CFA_XSP16, literal(-6)))
          CFI (cfiCond514) ?RET_LOW load(1, XDATA, add(CFA_XSP16, literal(-5)))
          CFI (cfiCond514) ?RET_HIGH load(1, XDATA, add(CFA_XSP16, literal(-4)))
          CFI (cfiCond514) ?BRET_EXT load(1, XDATA, add(CFA_XSP16, literal(-3)))
          CFI (cfiCond514) DPL0 load(1, XDATA, add(CFA_XSP16, literal(-2)))
          CFI (cfiCond514) DPH0 load(1, XDATA, add(CFA_XSP16, literal(-1)))
          CFI (cfiCond514) CFA_SP SP+0
          CFI (cfiCond514) CFA_XSP16 add(XSP16, 17)
          CFI Block cfiCond515 Using cfiCommon0
          CFI (cfiCond515) Function ZDSecMgrSendMasterKey
          CFI (cfiCond515) Conditional ??CrossCallReturnLabel_220, ??CrossCallReturnLabel_100
          CFI (cfiCond515) R6 load(1, XDATA, add(CFA_XSP16, literal(-10)))
          CFI (cfiCond515) VB load(1, XDATA, add(CFA_XSP16, literal(-9)))
          CFI (cfiCond515) V0 load(1, XDATA, add(CFA_XSP16, literal(-8)))
          CFI (cfiCond515) V1 load(1, XDATA, add(CFA_XSP16, literal(-7)))
          CFI (cfiCond515) R7 load(1, XDATA, add(CFA_XSP16, literal(-6)))
          CFI (cfiCond515) ?RET_LOW load(1, XDATA, add(CFA_XSP16, literal(-5)))
          CFI (cfiCond515) ?RET_HIGH load(1, XDATA, add(CFA_XSP16, literal(-4)))
          CFI (cfiCond515) ?BRET_EXT load(1, XDATA, add(CFA_XSP16, literal(-3)))
          CFI (cfiCond515) DPL0 load(1, XDATA, add(CFA_XSP16, literal(-2)))
          CFI (cfiCond515) DPH0 load(1, XDATA, add(CFA_XSP16, literal(-1)))
          CFI (cfiCond515) CFA_SP SP+0
          CFI (cfiCond515) CFA_XSP16 add(XSP16, 23)
          CFI Block cfiCond516 Using cfiCommon0
          CFI (cfiCond516) Function ZDSecMgrSendNwkKey
          CFI (cfiCond516) Conditional ??CrossCallReturnLabel_220, ??CrossCallReturnLabel_98
          CFI (cfiCond516) R6 load(1, XDATA, add(CFA_XSP16, literal(-12)))
          CFI (cfiCond516) VB load(1, XDATA, add(CFA_XSP16, literal(-11)))
          CFI (cfiCond516) V0 load(1, XDATA, add(CFA_XSP16, literal(-10)))
          CFI (cfiCond516) V1 load(1, XDATA, add(CFA_XSP16, literal(-9)))
          CFI (cfiCond516) V2 load(1, XDATA, add(CFA_XSP16, literal(-8)))
          CFI (cfiCond516) V3 load(1, XDATA, add(CFA_XSP16, literal(-7)))
          CFI (cfiCond516) R7 load(1, XDATA, add(CFA_XSP16, literal(-6)))
          CFI (cfiCond516) ?RET_LOW load(1, XDATA, add(CFA_XSP16, literal(-5)))
          CFI (cfiCond516) ?RET_HIGH load(1, XDATA, add(CFA_XSP16, literal(-4)))
          CFI (cfiCond516) ?BRET_EXT load(1, XDATA, add(CFA_XSP16, literal(-3)))
          CFI (cfiCond516) DPL0 load(1, XDATA, add(CFA_XSP16, literal(-2)))
          CFI (cfiCond516) DPH0 load(1, XDATA, add(CFA_XSP16, literal(-1)))
          CFI (cfiCond516) CFA_SP SP+0
          CFI (cfiCond516) CFA_XSP16 add(XSP16, 25)
          CFI Block cfiCond517 Using cfiCommon0
          CFI (cfiCond517) Function ZDSecMgrAppKeyReq
          CFI (cfiCond517) Conditional ??CrossCallReturnLabel_216, ??CrossCallReturnLabel_49
          CFI (cfiCond517) R6 load(1, XDATA, add(CFA_XSP16, literal(-10)))
          CFI (cfiCond517) VB load(1, XDATA, add(CFA_XSP16, literal(-9)))
          CFI (cfiCond517) V0 load(1, XDATA, add(CFA_XSP16, literal(-8)))
          CFI (cfiCond517) V1 load(1, XDATA, add(CFA_XSP16, literal(-7)))
          CFI (cfiCond517) R7 load(1, XDATA, add(CFA_XSP16, literal(-6)))
          CFI (cfiCond517) ?RET_LOW load(1, XDATA, add(CFA_XSP16, literal(-5)))
          CFI (cfiCond517) ?RET_HIGH load(1, XDATA, add(CFA_XSP16, literal(-4)))
          CFI (cfiCond517) ?BRET_EXT load(1, XDATA, add(CFA_XSP16, literal(-3)))
          CFI (cfiCond517) DPL0 load(1, XDATA, add(CFA_XSP16, literal(-2)))
          CFI (cfiCond517) DPH0 load(1, XDATA, add(CFA_XSP16, literal(-1)))
          CFI (cfiCond517) CFA_SP SP+0
          CFI (cfiCond517) CFA_XSP16 add(XSP16, 49)
          CFI Block cfiCond518 Using cfiCommon0
          CFI (cfiCond518) Function ZDSecMgrEstablishKey
          CFI (cfiCond518) Conditional ??CrossCallReturnLabel_216, ??CrossCallReturnLabel_50
          CFI (cfiCond518) R6 load(1, XDATA, add(CFA_XSP16, literal(-10)))
          CFI (cfiCond518) VB load(1, XDATA, add(CFA_XSP16, literal(-9)))
          CFI (cfiCond518) V0 load(1, XDATA, add(CFA_XSP16, literal(-8)))
          CFI (cfiCond518) V1 load(1, XDATA, add(CFA_XSP16, literal(-7)))
          CFI (cfiCond518) R7 load(1, XDATA, add(CFA_XSP16, literal(-6)))
          CFI (cfiCond518) ?RET_LOW load(1, XDATA, add(CFA_XSP16, literal(-5)))
          CFI (cfiCond518) ?RET_HIGH load(1, XDATA, add(CFA_XSP16, literal(-4)))
          CFI (cfiCond518) ?BRET_EXT load(1, XDATA, add(CFA_XSP16, literal(-3)))
          CFI (cfiCond518) DPL0 load(1, XDATA, add(CFA_XSP16, literal(-2)))
          CFI (cfiCond518) DPH0 load(1, XDATA, add(CFA_XSP16, literal(-1)))
          CFI (cfiCond518) CFA_SP SP+0
          CFI (cfiCond518) CFA_XSP16 add(XSP16, 17)
          CFI Block cfiCond519 Using cfiCommon0
          CFI (cfiCond519) Function ZDSecMgrDeviceJoinFwd
          CFI (cfiCond519) Conditional ??CrossCallReturnLabel_216, ??CrossCallReturnLabel_51
          CFI (cfiCond519) DPL0 Frame(CFA_SP, 4)
          CFI (cfiCond519) DPH0 Frame(CFA_SP, 5)
          CFI (cfiCond519) CFA_SP SP+-5
          CFI (cfiCond519) CFA_XSP16 add(XSP16, 8)
          CFI Block cfiCond520 Using cfiCommon0
          CFI (cfiCond520) Function ZDSecMgrNewDeviceEvent
          CFI (cfiCond520) Conditional ??CrossCallReturnLabel_214, ??CrossCallReturnLabel_167
          CFI (cfiCond520) R6 load(1, XDATA, add(CFA_XSP16, literal(-12)))
          CFI (cfiCond520) VB load(1, XDATA, add(CFA_XSP16, literal(-11)))
          CFI (cfiCond520) V0 load(1, XDATA, add(CFA_XSP16, literal(-10)))
          CFI (cfiCond520) V1 load(1, XDATA, add(CFA_XSP16, literal(-9)))
          CFI (cfiCond520) V2 load(1, XDATA, add(CFA_XSP16, literal(-8)))
          CFI (cfiCond520) V3 load(1, XDATA, add(CFA_XSP16, literal(-7)))
          CFI (cfiCond520) R7 load(1, XDATA, add(CFA_XSP16, literal(-6)))
          CFI (cfiCond520) ?RET_LOW load(1, XDATA, add(CFA_XSP16, literal(-5)))
          CFI (cfiCond520) ?RET_HIGH load(1, XDATA, add(CFA_XSP16, literal(-4)))
          CFI (cfiCond520) ?BRET_EXT load(1, XDATA, add(CFA_XSP16, literal(-3)))
          CFI (cfiCond520) DPL0 load(1, XDATA, add(CFA_XSP16, literal(-2)))
          CFI (cfiCond520) DPH0 load(1, XDATA, add(CFA_XSP16, literal(-1)))
          CFI (cfiCond520) CFA_SP SP+0
          CFI (cfiCond520) CFA_XSP16 add(XSP16, 35)
          CFI Block cfiCond521 Using cfiCommon0
          CFI (cfiCond521) Function ZDSecMgrEvent
          CFI (cfiCond521) Conditional ??CrossCallReturnLabel_214, ??CrossCallReturnLabel_168
          CFI (cfiCond521) R6 load(1, XDATA, add(CFA_XSP16, literal(-10)))
          CFI (cfiCond521) VB load(1, XDATA, add(CFA_XSP16, literal(-9)))
          CFI (cfiCond521) V0 load(1, XDATA, add(CFA_XSP16, literal(-8)))
          CFI (cfiCond521) V1 load(1, XDATA, add(CFA_XSP16, literal(-7)))
          CFI (cfiCond521) R7 load(1, XDATA, add(CFA_XSP16, literal(-6)))
          CFI (cfiCond521) ?RET_LOW load(1, XDATA, add(CFA_XSP16, literal(-5)))
          CFI (cfiCond521) ?RET_HIGH load(1, XDATA, add(CFA_XSP16, literal(-4)))
          CFI (cfiCond521) ?BRET_EXT load(1, XDATA, add(CFA_XSP16, literal(-3)))
          CFI (cfiCond521) DPL0 load(1, XDATA, add(CFA_XSP16, literal(-2)))
          CFI (cfiCond521) DPH0 load(1, XDATA, add(CFA_XSP16, literal(-1)))
          CFI (cfiCond521) CFA_SP SP+0
          CFI (cfiCond521) CFA_XSP16 add(XSP16, 33)
          CFI Block cfiCond522 Using cfiCommon0
          CFI (cfiCond522) Function ZDSecMgrUpdateDeviceInd
          CFI (cfiCond522) Conditional ??CrossCallReturnLabel_214, ??CrossCallReturnLabel_169
          CFI (cfiCond522) DPL0 Frame(CFA_SP, 4)
          CFI (cfiCond522) DPH0 Frame(CFA_SP, 5)
          CFI (cfiCond522) CFA_SP SP+-5
          CFI (cfiCond522) CFA_XSP16 add(XSP16, 10)
          CFI Block cfiCond523 Using cfiCommon0
          CFI (cfiCond523) Function ZDSecMgrAuthenticateInd
          CFI (cfiCond523) Conditional ??CrossCallReturnLabel_214, ??CrossCallReturnLabel_170
          CFI (cfiCond523) R6 load(1, XDATA, add(CFA_XSP16, literal(-12)))
          CFI (cfiCond523) VB load(1, XDATA, add(CFA_XSP16, literal(-11)))
          CFI (cfiCond523) V0 load(1, XDATA, add(CFA_XSP16, literal(-10)))
          CFI (cfiCond523) V1 load(1, XDATA, add(CFA_XSP16, literal(-9)))
          CFI (cfiCond523) V2 load(1, XDATA, add(CFA_XSP16, literal(-8)))
          CFI (cfiCond523) V3 load(1, XDATA, add(CFA_XSP16, literal(-7)))
          CFI (cfiCond523) R7 load(1, XDATA, add(CFA_XSP16, literal(-6)))
          CFI (cfiCond523) ?RET_LOW load(1, XDATA, add(CFA_XSP16, literal(-5)))
          CFI (cfiCond523) ?RET_HIGH load(1, XDATA, add(CFA_XSP16, literal(-4)))
          CFI (cfiCond523) ?BRET_EXT load(1, XDATA, add(CFA_XSP16, literal(-3)))
          CFI (cfiCond523) DPL0 load(1, XDATA, add(CFA_XSP16, literal(-2)))
          CFI (cfiCond523) DPH0 load(1, XDATA, add(CFA_XSP16, literal(-1)))
          CFI (cfiCond523) CFA_SP SP+0
          CFI (cfiCond523) CFA_XSP16 add(XSP16, 32)
          CFI Block cfiCond524 Using cfiCommon0
          CFI (cfiCond524) Function ZDSecMgrEstablishKey
          CFI (cfiCond524) Conditional ??CrossCallReturnLabel_221, ??CrossCallReturnLabel_211
          CFI (cfiCond524) R6 load(1, XDATA, add(CFA_XSP16, literal(-10)))
          CFI (cfiCond524) VB load(1, XDATA, add(CFA_XSP16, literal(-9)))
          CFI (cfiCond524) V0 load(1, XDATA, add(CFA_XSP16, literal(-8)))
          CFI (cfiCond524) V1 load(1, XDATA, add(CFA_XSP16, literal(-7)))
          CFI (cfiCond524) R7 load(1, XDATA, add(CFA_XSP16, literal(-6)))
          CFI (cfiCond524) ?RET_LOW load(1, XDATA, add(CFA_XSP16, literal(-5)))
          CFI (cfiCond524) ?RET_HIGH load(1, XDATA, add(CFA_XSP16, literal(-4)))
          CFI (cfiCond524) ?BRET_EXT load(1, XDATA, add(CFA_XSP16, literal(-3)))
          CFI (cfiCond524) DPL0 load(1, XDATA, add(CFA_XSP16, literal(-2)))
          CFI (cfiCond524) DPH0 load(1, XDATA, add(CFA_XSP16, literal(-1)))
          CFI (cfiCond524) CFA_SP SP+0
          CFI (cfiCond524) CFA_XSP16 add(XSP16, 17)
          CFI Block cfiCond525 Using cfiCommon0
          CFI (cfiCond525) Function ZDSecMgrSendMasterKey
          CFI (cfiCond525) Conditional ??CrossCallReturnLabel_221, ??CrossCallReturnLabel_212
          CFI (cfiCond525) R6 load(1, XDATA, add(CFA_XSP16, literal(-10)))
          CFI (cfiCond525) VB load(1, XDATA, add(CFA_XSP16, literal(-9)))
          CFI (cfiCond525) V0 load(1, XDATA, add(CFA_XSP16, literal(-8)))
          CFI (cfiCond525) V1 load(1, XDATA, add(CFA_XSP16, literal(-7)))
          CFI (cfiCond525) R7 load(1, XDATA, add(CFA_XSP16, literal(-6)))
          CFI (cfiCond525) ?RET_LOW load(1, XDATA, add(CFA_XSP16, literal(-5)))
          CFI (cfiCond525) ?RET_HIGH load(1, XDATA, add(CFA_XSP16, literal(-4)))
          CFI (cfiCond525) ?BRET_EXT load(1, XDATA, add(CFA_XSP16, literal(-3)))
          CFI (cfiCond525) DPL0 load(1, XDATA, add(CFA_XSP16, literal(-2)))
          CFI (cfiCond525) DPH0 load(1, XDATA, add(CFA_XSP16, literal(-1)))
          CFI (cfiCond525) CFA_SP SP+0
          CFI (cfiCond525) CFA_XSP16 add(XSP16, 23)
          CFI Block cfiCond526 Using cfiCommon0
          CFI (cfiCond526) Function ZDSecMgrCtrlSet
          CFI (cfiCond526) Conditional ??CrossCallReturnLabel_221, ??CrossCallReturnLabel_203
          CFI (cfiCond526) R6 load(1, XDATA, add(CFA_XSP16, literal(-9)))
          CFI (cfiCond526) VB load(1, XDATA, add(CFA_XSP16, literal(-8)))
          CFI (cfiCond526) V0 load(1, XDATA, add(CFA_XSP16, literal(-7)))
          CFI (cfiCond526) R7 load(1, XDATA, add(CFA_XSP16, literal(-6)))
          CFI (cfiCond526) ?RET_LOW load(1, XDATA, add(CFA_XSP16, literal(-5)))
          CFI (cfiCond526) ?RET_HIGH load(1, XDATA, add(CFA_XSP16, literal(-4)))
          CFI (cfiCond526) ?BRET_EXT load(1, XDATA, add(CFA_XSP16, literal(-3)))
          CFI (cfiCond526) DPL0 load(1, XDATA, add(CFA_XSP16, literal(-2)))
          CFI (cfiCond526) DPH0 load(1, XDATA, add(CFA_XSP16, literal(-1)))
          CFI (cfiCond526) CFA_SP SP+0
          CFI (cfiCond526) CFA_XSP16 add(XSP16, 9)
          CFI Block cfiCond527 Using cfiCommon0
          CFI (cfiCond527) Function ZDSecMgrAppKeyGet
          CFI (cfiCond527) Conditional ??CrossCallReturnLabel_221, ??CrossCallReturnLabel_204
          CFI (cfiCond527) R6 load(1, XDATA, add(CFA_XSP16, literal(-9)))
          CFI (cfiCond527) VB load(1, XDATA, add(CFA_XSP16, literal(-8)))
          CFI (cfiCond527) V0 load(1, XDATA, add(CFA_XSP16, literal(-7)))
          CFI (cfiCond527) R7 load(1, XDATA, add(CFA_XSP16, literal(-6)))
          CFI (cfiCond527) ?RET_LOW load(1, XDATA, add(CFA_XSP16, literal(-5)))
          CFI (cfiCond527) ?RET_HIGH load(1, XDATA, add(CFA_XSP16, literal(-4)))
          CFI (cfiCond527) ?BRET_EXT load(1, XDATA, add(CFA_XSP16, literal(-3)))
          CFI (cfiCond527) DPL0 load(1, XDATA, add(CFA_XSP16, literal(-2)))
          CFI (cfiCond527) DPH0 load(1, XDATA, add(CFA_XSP16, literal(-1)))
          CFI (cfiCond527) CFA_SP SP+0
          CFI (cfiCond527) CFA_XSP16 add(XSP16, 9)
          CFI Block cfiCond528 Using cfiCommon0
          CFI (cfiCond528) Function ZDSecMgrAppKeyGet
          CFI (cfiCond528) Conditional ??CrossCallReturnLabel_221, ??CrossCallReturnLabel_205
          CFI (cfiCond528) R6 load(1, XDATA, add(CFA_XSP16, literal(-9)))
          CFI (cfiCond528) VB load(1, XDATA, add(CFA_XSP16, literal(-8)))
          CFI (cfiCond528) V0 load(1, XDATA, add(CFA_XSP16, literal(-7)))
          CFI (cfiCond528) R7 load(1, XDATA, add(CFA_XSP16, literal(-6)))
          CFI (cfiCond528) ?RET_LOW load(1, XDATA, add(CFA_XSP16, literal(-5)))
          CFI (cfiCond528) ?RET_HIGH load(1, XDATA, add(CFA_XSP16, literal(-4)))
          CFI (cfiCond528) ?BRET_EXT load(1, XDATA, add(CFA_XSP16, literal(-3)))
          CFI (cfiCond528) DPL0 load(1, XDATA, add(CFA_XSP16, literal(-2)))
          CFI (cfiCond528) DPH0 load(1, XDATA, add(CFA_XSP16, literal(-1)))
          CFI (cfiCond528) CFA_SP SP+0
          CFI (cfiCond528) CFA_XSP16 add(XSP16, 9)
          CFI Block cfiCond529 Using cfiCommon0
          CFI (cfiCond529) Function ZDSecMgrNewDeviceEvent
          CFI (cfiCond529) Conditional ??CrossCallReturnLabel_221, ??CrossCallReturnLabel_206
          CFI (cfiCond529) R6 load(1, XDATA, add(CFA_XSP16, literal(-12)))
          CFI (cfiCond529) VB load(1, XDATA, add(CFA_XSP16, literal(-11)))
          CFI (cfiCond529) V0 load(1, XDATA, add(CFA_XSP16, literal(-10)))
          CFI (cfiCond529) V1 load(1, XDATA, add(CFA_XSP16, literal(-9)))
          CFI (cfiCond529) V2 load(1, XDATA, add(CFA_XSP16, literal(-8)))
          CFI (cfiCond529) V3 load(1, XDATA, add(CFA_XSP16, literal(-7)))
          CFI (cfiCond529) R7 load(1, XDATA, add(CFA_XSP16, literal(-6)))
          CFI (cfiCond529) ?RET_LOW load(1, XDATA, add(CFA_XSP16, literal(-5)))
          CFI (cfiCond529) ?RET_HIGH load(1, XDATA, add(CFA_XSP16, literal(-4)))
          CFI (cfiCond529) ?BRET_EXT load(1, XDATA, add(CFA_XSP16, literal(-3)))
          CFI (cfiCond529) DPL0 load(1, XDATA, add(CFA_XSP16, literal(-2)))
          CFI (cfiCond529) DPH0 load(1, XDATA, add(CFA_XSP16, literal(-1)))
          CFI (cfiCond529) CFA_SP SP+0
          CFI (cfiCond529) CFA_XSP16 add(XSP16, 35)
          CFI Block cfiCond530 Using cfiCommon0
          CFI (cfiCond530) Function ZDSecMgrEvent
          CFI (cfiCond530) Conditional ??CrossCallReturnLabel_221, ??CrossCallReturnLabel_207
          CFI (cfiCond530) R6 load(1, XDATA, add(CFA_XSP16, literal(-10)))
          CFI (cfiCond530) VB load(1, XDATA, add(CFA_XSP16, literal(-9)))
          CFI (cfiCond530) V0 load(1, XDATA, add(CFA_XSP16, literal(-8)))
          CFI (cfiCond530) V1 load(1, XDATA, add(CFA_XSP16, literal(-7)))
          CFI (cfiCond530) R7 load(1, XDATA, add(CFA_XSP16, literal(-6)))
          CFI (cfiCond530) ?RET_LOW load(1, XDATA, add(CFA_XSP16, literal(-5)))
          CFI (cfiCond530) ?RET_HIGH load(1, XDATA, add(CFA_XSP16, literal(-4)))
          CFI (cfiCond530) ?BRET_EXT load(1, XDATA, add(CFA_XSP16, literal(-3)))
          CFI (cfiCond530) DPL0 load(1, XDATA, add(CFA_XSP16, literal(-2)))
          CFI (cfiCond530) DPH0 load(1, XDATA, add(CFA_XSP16, literal(-1)))
          CFI (cfiCond530) CFA_SP SP+0
          CFI (cfiCond530) CFA_XSP16 add(XSP16, 33)
          CFI Block cfiCond531 Using cfiCommon0
          CFI (cfiCond531) Function ZDSecMgrEstablishKeyInd
          CFI (cfiCond531) Conditional ??CrossCallReturnLabel_221, ??CrossCallReturnLabel_208
          CFI (cfiCond531) R6 load(1, XDATA, add(CFA_XSP16, literal(-12)))
          CFI (cfiCond531) VB load(1, XDATA, add(CFA_XSP16, literal(-11)))
          CFI (cfiCond531) V0 load(1, XDATA, add(CFA_XSP16, literal(-10)))
          CFI (cfiCond531) V1 load(1, XDATA, add(CFA_XSP16, literal(-9)))
          CFI (cfiCond531) V2 load(1, XDATA, add(CFA_XSP16, literal(-8)))
          CFI (cfiCond531) V3 load(1, XDATA, add(CFA_XSP16, literal(-7)))
          CFI (cfiCond531) R7 load(1, XDATA, add(CFA_XSP16, literal(-6)))
          CFI (cfiCond531) ?RET_LOW load(1, XDATA, add(CFA_XSP16, literal(-5)))
          CFI (cfiCond531) ?RET_HIGH load(1, XDATA, add(CFA_XSP16, literal(-4)))
          CFI (cfiCond531) ?BRET_EXT load(1, XDATA, add(CFA_XSP16, literal(-3)))
          CFI (cfiCond531) DPL0 load(1, XDATA, add(CFA_XSP16, literal(-2)))
          CFI (cfiCond531) DPH0 load(1, XDATA, add(CFA_XSP16, literal(-1)))
          CFI (cfiCond531) CFA_SP SP+0
          CFI (cfiCond531) CFA_XSP16 add(XSP16, 29)
          CFI Block cfiCond532 Using cfiCommon0
          CFI (cfiCond532) Function ZDSecMgrAuthenticateInd
          CFI (cfiCond532) Conditional ??CrossCallReturnLabel_221, ??CrossCallReturnLabel_209
          CFI (cfiCond532) R6 load(1, XDATA, add(CFA_XSP16, literal(-12)))
          CFI (cfiCond532) VB load(1, XDATA, add(CFA_XSP16, literal(-11)))
          CFI (cfiCond532) V0 load(1, XDATA, add(CFA_XSP16, literal(-10)))
          CFI (cfiCond532) V1 load(1, XDATA, add(CFA_XSP16, literal(-9)))
          CFI (cfiCond532) V2 load(1, XDATA, add(CFA_XSP16, literal(-8)))
          CFI (cfiCond532) V3 load(1, XDATA, add(CFA_XSP16, literal(-7)))
          CFI (cfiCond532) R7 load(1, XDATA, add(CFA_XSP16, literal(-6)))
          CFI (cfiCond532) ?RET_LOW load(1, XDATA, add(CFA_XSP16, literal(-5)))
          CFI (cfiCond532) ?RET_HIGH load(1, XDATA, add(CFA_XSP16, literal(-4)))
          CFI (cfiCond532) ?BRET_EXT load(1, XDATA, add(CFA_XSP16, literal(-3)))
          CFI (cfiCond532) DPL0 load(1, XDATA, add(CFA_XSP16, literal(-2)))
          CFI (cfiCond532) DPH0 load(1, XDATA, add(CFA_XSP16, literal(-1)))
          CFI (cfiCond532) CFA_SP SP+0
          CFI (cfiCond532) CFA_XSP16 add(XSP16, 32)
          CFI Block cfiCond533 Using cfiCommon0
          CFI (cfiCond533) Function ZDSecMgrAPSRemove
          CFI (cfiCond533) Conditional ??CrossCallReturnLabel_221, ??CrossCallReturnLabel_210
          CFI (cfiCond533) DPL0 Frame(CFA_SP, 4)
          CFI (cfiCond533) DPH0 Frame(CFA_SP, 5)
          CFI (cfiCond533) CFA_SP SP+-5
          CFI (cfiCond533) CFA_XSP16 add(XSP16, 10)
          CFI Block cfiCond534 Using cfiCommon0
          CFI (cfiCond534) Function ZDSecMgrEstablishKeyInd
          CFI (cfiCond534) Conditional ??CrossCallReturnLabel_213, ??CrossCallReturnLabel_11
          CFI (cfiCond534) R6 load(1, XDATA, add(CFA_XSP16, literal(-12)))
          CFI (cfiCond534) VB load(1, XDATA, add(CFA_XSP16, literal(-11)))
          CFI (cfiCond534) V0 load(1, XDATA, add(CFA_XSP16, literal(-10)))
          CFI (cfiCond534) V1 load(1, XDATA, add(CFA_XSP16, literal(-9)))
          CFI (cfiCond534) V2 load(1, XDATA, add(CFA_XSP16, literal(-8)))
          CFI (cfiCond534) V3 load(1, XDATA, add(CFA_XSP16, literal(-7)))
          CFI (cfiCond534) R7 load(1, XDATA, add(CFA_XSP16, literal(-6)))
          CFI (cfiCond534) ?RET_LOW load(1, XDATA, add(CFA_XSP16, literal(-5)))
          CFI (cfiCond534) ?RET_HIGH load(1, XDATA, add(CFA_XSP16, literal(-4)))
          CFI (cfiCond534) ?BRET_EXT load(1, XDATA, add(CFA_XSP16, literal(-3)))
          CFI (cfiCond534) DPL0 load(1, XDATA, add(CFA_XSP16, literal(-2)))
          CFI (cfiCond534) DPH0 load(1, XDATA, add(CFA_XSP16, literal(-1)))
          CFI (cfiCond534) CFA_SP SP+0
          CFI (cfiCond534) CFA_XSP16 add(XSP16, 29)
          CFI Block cfiCond535 Using cfiCommon0
          CFI (cfiCond535) Function ZDSecMgrEstablishKeyInd
          CFI (cfiCond535) Conditional ??CrossCallReturnLabel_213, ??CrossCallReturnLabel_12
          CFI (cfiCond535) R6 load(1, XDATA, add(CFA_XSP16, literal(-12)))
          CFI (cfiCond535) VB load(1, XDATA, add(CFA_XSP16, literal(-11)))
          CFI (cfiCond535) V0 load(1, XDATA, add(CFA_XSP16, literal(-10)))
          CFI (cfiCond535) V1 load(1, XDATA, add(CFA_XSP16, literal(-9)))
          CFI (cfiCond535) V2 load(1, XDATA, add(CFA_XSP16, literal(-8)))
          CFI (cfiCond535) V3 load(1, XDATA, add(CFA_XSP16, literal(-7)))
          CFI (cfiCond535) R7 load(1, XDATA, add(CFA_XSP16, literal(-6)))
          CFI (cfiCond535) ?RET_LOW load(1, XDATA, add(CFA_XSP16, literal(-5)))
          CFI (cfiCond535) ?RET_HIGH load(1, XDATA, add(CFA_XSP16, literal(-4)))
          CFI (cfiCond535) ?BRET_EXT load(1, XDATA, add(CFA_XSP16, literal(-3)))
          CFI (cfiCond535) DPL0 load(1, XDATA, add(CFA_XSP16, literal(-2)))
          CFI (cfiCond535) DPH0 load(1, XDATA, add(CFA_XSP16, literal(-1)))
          CFI (cfiCond535) CFA_SP SP+0
          CFI (cfiCond535) CFA_XSP16 add(XSP16, 29)
          CFI Block cfiCond536 Using cfiCommon0
          CFI (cfiCond536) Function ZDSecMgrSendNwkKey
          CFI (cfiCond536) Conditional ??CrossCallReturnLabel_217, ??CrossCallReturnLabel_52
          CFI (cfiCond536) R6 load(1, XDATA, add(CFA_XSP16, literal(-12)))
          CFI (cfiCond536) VB load(1, XDATA, add(CFA_XSP16, literal(-11)))
          CFI (cfiCond536) V0 load(1, XDATA, add(CFA_XSP16, literal(-10)))
          CFI (cfiCond536) V1 load(1, XDATA, add(CFA_XSP16, literal(-9)))
          CFI (cfiCond536) V2 load(1, XDATA, add(CFA_XSP16, literal(-8)))
          CFI (cfiCond536) V3 load(1, XDATA, add(CFA_XSP16, literal(-7)))
          CFI (cfiCond536) R7 load(1, XDATA, add(CFA_XSP16, literal(-6)))
          CFI (cfiCond536) ?RET_LOW load(1, XDATA, add(CFA_XSP16, literal(-5)))
          CFI (cfiCond536) ?RET_HIGH load(1, XDATA, add(CFA_XSP16, literal(-4)))
          CFI (cfiCond536) ?BRET_EXT load(1, XDATA, add(CFA_XSP16, literal(-3)))
          CFI (cfiCond536) DPL0 load(1, XDATA, add(CFA_XSP16, literal(-2)))
          CFI (cfiCond536) DPH0 load(1, XDATA, add(CFA_XSP16, literal(-1)))
          CFI (cfiCond536) CFA_SP SP+0
          CFI (cfiCond536) CFA_XSP16 add(XSP16, 25)
          CFI Block cfiCond537 Using cfiCommon0
          CFI (cfiCond537) Function ZDSecMgrAddLinkKey
          CFI (cfiCond537) Conditional ??CrossCallReturnLabel_217, ??CrossCallReturnLabel_53
          CFI (cfiCond537) R6 load(1, XDATA, add(CFA_XSP16, literal(-12)))
          CFI (cfiCond537) VB load(1, XDATA, add(CFA_XSP16, literal(-11)))
          CFI (cfiCond537) V0 load(1, XDATA, add(CFA_XSP16, literal(-10)))
          CFI (cfiCond537) V1 load(1, XDATA, add(CFA_XSP16, literal(-9)))
          CFI (cfiCond537) V2 load(1, XDATA, add(CFA_XSP16, literal(-8)))
          CFI (cfiCond537) V3 load(1, XDATA, add(CFA_XSP16, literal(-7)))
          CFI (cfiCond537) R7 load(1, XDATA, add(CFA_XSP16, literal(-6)))
          CFI (cfiCond537) ?RET_LOW load(1, XDATA, add(CFA_XSP16, literal(-5)))
          CFI (cfiCond537) ?RET_HIGH load(1, XDATA, add(CFA_XSP16, literal(-4)))
          CFI (cfiCond537) ?BRET_EXT load(1, XDATA, add(CFA_XSP16, literal(-3)))
          CFI (cfiCond537) DPL0 load(1, XDATA, add(CFA_XSP16, literal(-2)))
          CFI (cfiCond537) DPH0 load(1, XDATA, add(CFA_XSP16, literal(-1)))
          CFI (cfiCond537) CFA_SP SP+0
          CFI (cfiCond537) CFA_XSP16 add(XSP16, 16)
          CFI Block cfiCond538 Using cfiCommon0
          CFI (cfiCond538) Function ZDSecMgrSendMasterKey
          CFI (cfiCond538) Conditional ??CrossCallReturnLabel_219, ??CrossCallReturnLabel_4
          CFI (cfiCond538) R6 load(1, XDATA, add(CFA_XSP16, literal(-10)))
          CFI (cfiCond538) VB load(1, XDATA, add(CFA_XSP16, literal(-9)))
          CFI (cfiCond538) V0 load(1, XDATA, add(CFA_XSP16, literal(-8)))
          CFI (cfiCond538) V1 load(1, XDATA, add(CFA_XSP16, literal(-7)))
          CFI (cfiCond538) R7 load(1, XDATA, add(CFA_XSP16, literal(-6)))
          CFI (cfiCond538) ?RET_LOW load(1, XDATA, add(CFA_XSP16, literal(-5)))
          CFI (cfiCond538) ?RET_HIGH load(1, XDATA, add(CFA_XSP16, literal(-4)))
          CFI (cfiCond538) ?BRET_EXT load(1, XDATA, add(CFA_XSP16, literal(-3)))
          CFI (cfiCond538) DPL0 load(1, XDATA, add(CFA_XSP16, literal(-2)))
          CFI (cfiCond538) DPH0 load(1, XDATA, add(CFA_XSP16, literal(-1)))
          CFI (cfiCond538) CFA_SP SP+0
          CFI (cfiCond538) CFA_XSP16 add(XSP16, 23)
          CFI Block cfiCond539 Using cfiCommon0
          CFI (cfiCond539) Function ZDSecMgrSendNwkKey
          CFI (cfiCond539) Conditional ??CrossCallReturnLabel_219, ??CrossCallReturnLabel_5
          CFI (cfiCond539) R6 load(1, XDATA, add(CFA_XSP16, literal(-12)))
          CFI (cfiCond539) VB load(1, XDATA, add(CFA_XSP16, literal(-11)))
          CFI (cfiCond539) V0 load(1, XDATA, add(CFA_XSP16, literal(-10)))
          CFI (cfiCond539) V1 load(1, XDATA, add(CFA_XSP16, literal(-9)))
          CFI (cfiCond539) V2 load(1, XDATA, add(CFA_XSP16, literal(-8)))
          CFI (cfiCond539) V3 load(1, XDATA, add(CFA_XSP16, literal(-7)))
          CFI (cfiCond539) R7 load(1, XDATA, add(CFA_XSP16, literal(-6)))
          CFI (cfiCond539) ?RET_LOW load(1, XDATA, add(CFA_XSP16, literal(-5)))
          CFI (cfiCond539) ?RET_HIGH load(1, XDATA, add(CFA_XSP16, literal(-4)))
          CFI (cfiCond539) ?BRET_EXT load(1, XDATA, add(CFA_XSP16, literal(-3)))
          CFI (cfiCond539) DPL0 load(1, XDATA, add(CFA_XSP16, literal(-2)))
          CFI (cfiCond539) DPH0 load(1, XDATA, add(CFA_XSP16, literal(-1)))
          CFI (cfiCond539) CFA_SP SP+0
          CFI (cfiCond539) CFA_XSP16 add(XSP16, 25)
          CFI Block cfiCond540 Using cfiCommon0
          CFI (cfiCond540) Function ZDSecMgrDeviceJoinFwd
          CFI (cfiCond540) Conditional ??CrossCallReturnLabel_218, ??CrossCallReturnLabel_0
          CFI (cfiCond540) DPL0 Frame(CFA_SP, 4)
          CFI (cfiCond540) DPH0 Frame(CFA_SP, 5)
          CFI (cfiCond540) CFA_SP SP+-5
          CFI (cfiCond540) CFA_XSP16 add(XSP16, 8)
          CFI Block cfiCond541 Using cfiCommon0
          CFI (cfiCond541) Function ZDSecMgrUpdateDeviceInd
          CFI (cfiCond541) Conditional ??CrossCallReturnLabel_218, ??CrossCallReturnLabel_1
          CFI (cfiCond541) DPL0 Frame(CFA_SP, 4)
          CFI (cfiCond541) DPH0 Frame(CFA_SP, 5)
          CFI (cfiCond541) CFA_SP SP+-5
          CFI (cfiCond541) CFA_XSP16 add(XSP16, 10)
          CFI Block cfiPicker542 Using cfiCommon1
          CFI (cfiPicker542) NoFunction
          CFI (cfiPicker542) Picker
        LCALL   ?Subroutine72 & 0xFFFF
??CrossCallReturnLabel_246:
        MOV     R1,A
        RET
          CFI EndBlock cfiCond512
          CFI EndBlock cfiCond513
          CFI EndBlock cfiCond514
          CFI EndBlock cfiCond515
          CFI EndBlock cfiCond516
          CFI EndBlock cfiCond517
          CFI EndBlock cfiCond518
          CFI EndBlock cfiCond519
          CFI EndBlock cfiCond520
          CFI EndBlock cfiCond521
          CFI EndBlock cfiCond522
          CFI EndBlock cfiCond523
          CFI EndBlock cfiCond524
          CFI EndBlock cfiCond525
          CFI EndBlock cfiCond526
          CFI EndBlock cfiCond527
          CFI EndBlock cfiCond528
          CFI EndBlock cfiCond529
          CFI EndBlock cfiCond530
          CFI EndBlock cfiCond531
          CFI EndBlock cfiCond532
          CFI EndBlock cfiCond533
          CFI EndBlock cfiCond534
          CFI EndBlock cfiCond535
          CFI EndBlock cfiCond536
          CFI EndBlock cfiCond537
          CFI EndBlock cfiCond538
          CFI EndBlock cfiCond539
          CFI EndBlock cfiCond540
          CFI EndBlock cfiCond541
          CFI EndBlock cfiPicker542

        RSEG BANKED_CODE:CODE:NOROOT(0)
?Subroutine32:
          CFI Block cfiCond543 Using cfiCommon0
          CFI Function ZDSecMgrMasterKeyStore
          CFI Conditional ??CrossCallReturnLabel_30
          CFI R6 load(1, XDATA, add(CFA_XSP16, literal(-15)))
          CFI VB load(1, XDATA, add(CFA_XSP16, literal(-14)))
          CFI V0 load(1, XDATA, add(CFA_XSP16, literal(-13)))
          CFI V1 load(1, XDATA, add(CFA_XSP16, literal(-12)))
          CFI V2 load(1, XDATA, add(CFA_XSP16, literal(-11)))
          CFI V3 load(1, XDATA, add(CFA_XSP16, literal(-10)))
          CFI V4 load(1, XDATA, add(CFA_XSP16, literal(-9)))
          CFI V5 load(1, XDATA, add(CFA_XSP16, literal(-8)))
          CFI V6 load(1, XDATA, add(CFA_XSP16, literal(-7)))
          CFI R7 load(1, XDATA, add(CFA_XSP16, literal(-6)))
          CFI ?RET_LOW load(1, XDATA, add(CFA_XSP16, literal(-5)))
          CFI ?RET_HIGH load(1, XDATA, add(CFA_XSP16, literal(-4)))
          CFI ?BRET_EXT load(1, XDATA, add(CFA_XSP16, literal(-3)))
          CFI DPL0 load(1, XDATA, add(CFA_XSP16, literal(-2)))
          CFI DPH0 load(1, XDATA, add(CFA_XSP16, literal(-1)))
          CFI CFA_SP SP+0
          CFI CFA_XSP16 add(XSP16, 15)
          CFI Block cfiCond544 Using cfiCommon0
          CFI (cfiCond544) Function ZDSecMgrEntryNew
          CFI (cfiCond544) Conditional ??CrossCallReturnLabel_31
          CFI (cfiCond544) R6 load(1, XDATA, add(CFA_XSP16, literal(-10)))
          CFI (cfiCond544) VB load(1, XDATA, add(CFA_XSP16, literal(-9)))
          CFI (cfiCond544) V0 load(1, XDATA, add(CFA_XSP16, literal(-8)))
          CFI (cfiCond544) V1 load(1, XDATA, add(CFA_XSP16, literal(-7)))
          CFI (cfiCond544) R7 load(1, XDATA, add(CFA_XSP16, literal(-6)))
          CFI (cfiCond544) ?RET_LOW load(1, XDATA, add(CFA_XSP16, literal(-5)))
          CFI (cfiCond544) ?RET_HIGH load(1, XDATA, add(CFA_XSP16, literal(-4)))
          CFI (cfiCond544) ?BRET_EXT load(1, XDATA, add(CFA_XSP16, literal(-3)))
          CFI (cfiCond544) DPL0 load(1, XDATA, add(CFA_XSP16, literal(-2)))
          CFI (cfiCond544) DPH0 load(1, XDATA, add(CFA_XSP16, literal(-1)))
          CFI (cfiCond544) CFA_SP SP+0
          CFI (cfiCond544) CFA_XSP16 add(XSP16, 10)
          CFI Block cfiCond545 Using cfiCommon0
          CFI (cfiCond545) Function ZDSecMgrEstablishKeyInd
          CFI (cfiCond545) Conditional ??CrossCallReturnLabel_32
          CFI (cfiCond545) R6 load(1, XDATA, add(CFA_XSP16, literal(-12)))
          CFI (cfiCond545) VB load(1, XDATA, add(CFA_XSP16, literal(-11)))
          CFI (cfiCond545) V0 load(1, XDATA, add(CFA_XSP16, literal(-10)))
          CFI (cfiCond545) V1 load(1, XDATA, add(CFA_XSP16, literal(-9)))
          CFI (cfiCond545) V2 load(1, XDATA, add(CFA_XSP16, literal(-8)))
          CFI (cfiCond545) V3 load(1, XDATA, add(CFA_XSP16, literal(-7)))
          CFI (cfiCond545) R7 load(1, XDATA, add(CFA_XSP16, literal(-6)))
          CFI (cfiCond545) ?RET_LOW load(1, XDATA, add(CFA_XSP16, literal(-5)))
          CFI (cfiCond545) ?RET_HIGH load(1, XDATA, add(CFA_XSP16, literal(-4)))
          CFI (cfiCond545) ?BRET_EXT load(1, XDATA, add(CFA_XSP16, literal(-3)))
          CFI (cfiCond545) DPL0 load(1, XDATA, add(CFA_XSP16, literal(-2)))
          CFI (cfiCond545) DPH0 load(1, XDATA, add(CFA_XSP16, literal(-1)))
          CFI (cfiCond545) CFA_SP SP+0
          CFI (cfiCond545) CFA_XSP16 add(XSP16, 29)
          CFI Block cfiCond546 Using cfiCommon0
          CFI (cfiCond546) Function ZDSecMgrAuthenticateInd
          CFI (cfiCond546) Conditional ??CrossCallReturnLabel_33
          CFI (cfiCond546) R6 load(1, XDATA, add(CFA_XSP16, literal(-12)))
          CFI (cfiCond546) VB load(1, XDATA, add(CFA_XSP16, literal(-11)))
          CFI (cfiCond546) V0 load(1, XDATA, add(CFA_XSP16, literal(-10)))
          CFI (cfiCond546) V1 load(1, XDATA, add(CFA_XSP16, literal(-9)))
          CFI (cfiCond546) V2 load(1, XDATA, add(CFA_XSP16, literal(-8)))
          CFI (cfiCond546) V3 load(1, XDATA, add(CFA_XSP16, literal(-7)))
          CFI (cfiCond546) R7 load(1, XDATA, add(CFA_XSP16, literal(-6)))
          CFI (cfiCond546) ?RET_LOW load(1, XDATA, add(CFA_XSP16, literal(-5)))
          CFI (cfiCond546) ?RET_HIGH load(1, XDATA, add(CFA_XSP16, literal(-4)))
          CFI (cfiCond546) ?BRET_EXT load(1, XDATA, add(CFA_XSP16, literal(-3)))
          CFI (cfiCond546) DPL0 load(1, XDATA, add(CFA_XSP16, literal(-2)))
          CFI (cfiCond546) DPH0 load(1, XDATA, add(CFA_XSP16, literal(-1)))
          CFI (cfiCond546) CFA_SP SP+0
          CFI (cfiCond546) CFA_XSP16 add(XSP16, 32)
          CFI Block cfiPicker547 Using cfiCommon1
          CFI (cfiPicker547) NoFunction
          CFI (cfiPicker547) Picker
        MOV     A,?V0 + 0
        MOVX    @DPTR,A
        INC     DPTR
        MOV     A,?V0 + 1
        MOVX    @DPTR,A
        RET
          CFI EndBlock cfiCond543
          CFI EndBlock cfiCond544
          CFI EndBlock cfiCond545
          CFI EndBlock cfiCond546
          CFI EndBlock cfiPicker547

        RSEG BANKED_CODE:CODE:NOROOT(0)
?Subroutine23:
          CFI Block cfiCond548 Using cfiCommon0
          CFI Function ZDSecMgrEstablishKeyInd
          CFI Conditional ??CrossCallReturnLabel_11
          CFI R6 load(1, XDATA, add(CFA_XSP16, literal(-12)))
          CFI VB load(1, XDATA, add(CFA_XSP16, literal(-11)))
          CFI V0 load(1, XDATA, add(CFA_XSP16, literal(-10)))
          CFI V1 load(1, XDATA, add(CFA_XSP16, literal(-9)))
          CFI V2 load(1, XDATA, add(CFA_XSP16, literal(-8)))
          CFI V3 load(1, XDATA, add(CFA_XSP16, literal(-7)))
          CFI R7 load(1, XDATA, add(CFA_XSP16, literal(-6)))
          CFI ?RET_LOW load(1, XDATA, add(CFA_XSP16, literal(-5)))
          CFI ?RET_HIGH load(1, XDATA, add(CFA_XSP16, literal(-4)))
          CFI ?BRET_EXT load(1, XDATA, add(CFA_XSP16, literal(-3)))
          CFI DPL0 load(1, XDATA, add(CFA_XSP16, literal(-2)))
          CFI DPH0 load(1, XDATA, add(CFA_XSP16, literal(-1)))
          CFI CFA_SP SP+0
          CFI CFA_XSP16 add(XSP16, 29)
          CFI Block cfiCond549 Using cfiCommon0
          CFI (cfiCond549) Function ZDSecMgrEstablishKeyInd
          CFI (cfiCond549) Conditional ??CrossCallReturnLabel_12
          CFI (cfiCond549) R6 load(1, XDATA, add(CFA_XSP16, literal(-12)))
          CFI (cfiCond549) VB load(1, XDATA, add(CFA_XSP16, literal(-11)))
          CFI (cfiCond549) V0 load(1, XDATA, add(CFA_XSP16, literal(-10)))
          CFI (cfiCond549) V1 load(1, XDATA, add(CFA_XSP16, literal(-9)))
          CFI (cfiCond549) V2 load(1, XDATA, add(CFA_XSP16, literal(-8)))
          CFI (cfiCond549) V3 load(1, XDATA, add(CFA_XSP16, literal(-7)))
          CFI (cfiCond549) R7 load(1, XDATA, add(CFA_XSP16, literal(-6)))
          CFI (cfiCond549) ?RET_LOW load(1, XDATA, add(CFA_XSP16, literal(-5)))
          CFI (cfiCond549) ?RET_HIGH load(1, XDATA, add(CFA_XSP16, literal(-4)))
          CFI (cfiCond549) ?BRET_EXT load(1, XDATA, add(CFA_XSP16, literal(-3)))
          CFI (cfiCond549) DPL0 load(1, XDATA, add(CFA_XSP16, literal(-2)))
          CFI (cfiCond549) DPH0 load(1, XDATA, add(CFA_XSP16, literal(-1)))
          CFI (cfiCond549) CFA_SP SP+0
          CFI (cfiCond549) CFA_XSP16 add(XSP16, 29)
          CFI Block cfiPicker550 Using cfiCommon1
          CFI (cfiPicker550) NoFunction
          CFI (cfiPicker550) Picker
        MOVX    @DPTR,A
        MOV     DPL,?V0 + 2
        MOV     DPH,?V0 + 3
        LCALL   ??Subroutine96_0 & 0xFFFF
??CrossCallReturnLabel_213:
        RET
          CFI EndBlock cfiCond548
          CFI EndBlock cfiCond549
          CFI EndBlock cfiPicker550

        RSEG BANKED_CODE:CODE:NOROOT(0)
?Subroutine4:
          CFI Block cfiBlock551 Using cfiCommon0
          CFI NoFunction
          CFI CFA_SP SP+0
          CFI CFA_XSP16 add(XSP16, 16)
          CFI VB load(1, XDATA, add(CFA_XSP16, literal(-11)))
          CFI DPL0 load(1, XDATA, add(CFA_XSP16, literal(-2)))
          CFI DPH0 load(1, XDATA, add(CFA_XSP16, literal(-1)))
          CFI R6 load(1, XDATA, add(CFA_XSP16, literal(-12)))
          CFI R7 load(1, XDATA, add(CFA_XSP16, literal(-6)))
          CFI V0 load(1, XDATA, add(CFA_XSP16, literal(-10)))
          CFI V1 load(1, XDATA, add(CFA_XSP16, literal(-9)))
          CFI V2 load(1, XDATA, add(CFA_XSP16, literal(-8)))
          CFI V3 load(1, XDATA, add(CFA_XSP16, literal(-7)))
          CFI ?BRET_EXT load(1, XDATA, add(CFA_XSP16, literal(-3)))
          CFI ?RET_HIGH load(1, XDATA, add(CFA_XSP16, literal(-4)))
          CFI ?RET_LOW load(1, XDATA, add(CFA_XSP16, literal(-5)))
        MOV     A,#0x4
          CFI EndBlock cfiBlock551
        REQUIRE ??Subroutine97_0
        ; // Fall through to label ??Subroutine97_0

        RSEG BANKED_CODE:CODE:NOROOT(0)
??Subroutine97_0:
          CFI Block cfiBlock552 Using cfiCommon0
          CFI NoFunction
          CFI CFA_SP SP+0
          CFI CFA_XSP16 add(XSP16, 25)
          CFI VB load(1, XDATA, add(CFA_XSP16, literal(-11)))
          CFI DPL0 load(1, XDATA, add(CFA_XSP16, literal(-2)))
          CFI DPH0 load(1, XDATA, add(CFA_XSP16, literal(-1)))
          CFI R6 load(1, XDATA, add(CFA_XSP16, literal(-12)))
          CFI R7 load(1, XDATA, add(CFA_XSP16, literal(-6)))
          CFI V0 load(1, XDATA, add(CFA_XSP16, literal(-10)))
          CFI V1 load(1, XDATA, add(CFA_XSP16, literal(-9)))
          CFI V2 load(1, XDATA, add(CFA_XSP16, literal(-8)))
          CFI V3 load(1, XDATA, add(CFA_XSP16, literal(-7)))
          CFI ?BRET_EXT load(1, XDATA, add(CFA_XSP16, literal(-3)))
          CFI ?RET_HIGH load(1, XDATA, add(CFA_XSP16, literal(-4)))
          CFI ?RET_LOW load(1, XDATA, add(CFA_XSP16, literal(-5)))
          CFI Invalid
        LCALL   ?DEALLOC_XSTACK8
          CFI EndBlock cfiBlock552
        REQUIRE ??Subroutine98_0
        ; // Fall through to label ??Subroutine98_0

        RSEG BANKED_CODE:CODE:NOROOT(0)
??Subroutine98_0:
          CFI Block cfiBlock553 Using cfiCommon0
          CFI NoFunction
          CFI CFA_SP SP+0
          CFI CFA_XSP16 add(XSP16, 12)
          CFI VB load(1, XDATA, add(CFA_XSP16, literal(-11)))
          CFI DPL0 load(1, XDATA, add(CFA_XSP16, literal(-2)))
          CFI DPH0 load(1, XDATA, add(CFA_XSP16, literal(-1)))
          CFI R6 load(1, XDATA, add(CFA_XSP16, literal(-12)))
          CFI R7 load(1, XDATA, add(CFA_XSP16, literal(-6)))
          CFI V0 load(1, XDATA, add(CFA_XSP16, literal(-10)))
          CFI V1 load(1, XDATA, add(CFA_XSP16, literal(-9)))
          CFI V2 load(1, XDATA, add(CFA_XSP16, literal(-8)))
          CFI V3 load(1, XDATA, add(CFA_XSP16, literal(-7)))
          CFI ?BRET_EXT load(1, XDATA, add(CFA_XSP16, literal(-3)))
          CFI ?RET_HIGH load(1, XDATA, add(CFA_XSP16, literal(-4)))
          CFI ?RET_LOW load(1, XDATA, add(CFA_XSP16, literal(-5)))
        MOV     R7,#0x4
        LJMP    ?BANKED_LEAVE_XDATA
          CFI EndBlock cfiBlock553
// 2722 //devtag.pro.security
// 2723 #if 0
// 2724 void ZDSecMgrEstablishKeyInd( ZDO_EstablishKeyInd_t* ind )
// 2725 {
// 2726   ZDSecMgrDevice_t        device;
// 2727   APSME_EstablishKeyRsp_t rsp;
// 2728 
// 2729 
// 2730   device.extAddr = ind->initExtAddr;
// 2731   device.secure  = ind->secure;
// 2732 
// 2733   if ( ind->secure == FALSE )
// 2734   {
// 2735     // SKKE from Trust Center is not secured between child and parent
// 2736     device.nwkAddr    = APSME_TRUSTCENTER_NWKADDR;
// 2737     device.parentAddr = ind->srcAddr;
// 2738   }
// 2739   else
// 2740   {
// 2741     // SKKE from initiator should be secured
// 2742     device.nwkAddr    = ind->srcAddr;
// 2743     device.parentAddr = INVALID_NODE_ADDR;
// 2744   }
// 2745 
// 2746   rsp.dstAddr     = ind->srcAddr;
// 2747   rsp.initExtAddr = &ind->initExtAddr[0];
// 2748   rsp.secure      = ind->secure;
// 2749 
// 2750   // validate device for SKKE
// 2751   if ( ZDSecMgrDeviceValidateSKKE( &device ) == ZSuccess )
// 2752   {
// 2753     rsp.accept = TRUE;
// 2754   }
// 2755   else
// 2756   {
// 2757     rsp.accept = FALSE;
// 2758   }
// 2759 
// 2760   APSME_EstablishKeyRsp( &rsp );
// 2761 }
// 2762 #endif
// 2763 
// 2764 /******************************************************************************
// 2765  * @fn          ZDSecMgrTransportKeyInd
// 2766  *
// 2767  * @brief       Process the ZDO_TransportKeyInd_t message.
// 2768  *
// 2769  * @param       ind - [in] ZDO_TransportKeyInd_t indication
// 2770  *
// 2771  * @return      none
// 2772  */

        RSEG BANKED_CODE:CODE:NOROOT(0)
// 2773 void ZDSecMgrTransportKeyInd( ZDO_TransportKeyInd_t* ind )
ZDSecMgrTransportKeyInd:
          CFI Block cfiBlock554 Using cfiCommon0
          CFI Function ZDSecMgrTransportKeyInd
        CODE
// 2774 {
        FUNCALL ZDSecMgrTransportKeyInd, ZDSecMgrTCDataLoad
        LOCFRAME ISTACK, 0, STACK
        LOCFRAME PSTACK, 0, STACK
        LOCFRAME XSTACK, 10, STACK
        LOCFRAME IOVERLAY, 0, STATIC
        LOCFRAME DOVERLAY, 0, STATIC
        ARGFRAME ISTACK, 0, STACK
        ARGFRAME PSTACK, 0, STACK
        ARGFRAME XSTACK, 10, STACK
        ARGFRAME IOVERLAY, 0, STATIC
        ARGFRAME DOVERLAY, 0, STATIC
        FUNCALL ZDSecMgrTransportKeyInd, SSP_UpdateNwkKey
        LOCFRAME ISTACK, 0, STACK
        LOCFRAME PSTACK, 0, STACK
        LOCFRAME XSTACK, 10, STACK
        LOCFRAME IOVERLAY, 0, STATIC
        LOCFRAME DOVERLAY, 0, STATIC
        ARGFRAME ISTACK, 0, STACK
        ARGFRAME PSTACK, 0, STACK
        ARGFRAME XSTACK, 10, STACK
        ARGFRAME IOVERLAY, 0, STATIC
        ARGFRAME DOVERLAY, 0, STATIC
        FUNCALL ZDSecMgrTransportKeyInd, SSP_SwitchNwkKey
        LOCFRAME ISTACK, 0, STACK
        LOCFRAME PSTACK, 0, STACK
        LOCFRAME XSTACK, 10, STACK
        LOCFRAME IOVERLAY, 0, STATIC
        LOCFRAME DOVERLAY, 0, STATIC
        ARGFRAME ISTACK, 0, STACK
        ARGFRAME PSTACK, 0, STACK
        ARGFRAME XSTACK, 10, STACK
        ARGFRAME IOVERLAY, 0, STATIC
        ARGFRAME DOVERLAY, 0, STATIC
        FUNCALL ZDSecMgrTransportKeyInd, SSP_UpdateNwkKey
        LOCFRAME ISTACK, 0, STACK
        LOCFRAME PSTACK, 0, STACK
        LOCFRAME XSTACK, 10, STACK
        LOCFRAME IOVERLAY, 0, STATIC
        LOCFRAME DOVERLAY, 0, STATIC
        ARGFRAME ISTACK, 0, STACK
        ARGFRAME PSTACK, 0, STACK
        ARGFRAME XSTACK, 10, STACK
        ARGFRAME IOVERLAY, 0, STATIC
        ARGFRAME DOVERLAY, 0, STATIC
        FUNCALL ZDSecMgrTransportKeyInd, SSP_SwitchNwkKey
        LOCFRAME ISTACK, 0, STACK
        LOCFRAME PSTACK, 0, STACK
        LOCFRAME XSTACK, 10, STACK
        LOCFRAME IOVERLAY, 0, STATIC
        LOCFRAME DOVERLAY, 0, STATIC
        ARGFRAME ISTACK, 0, STACK
        ARGFRAME PSTACK, 0, STACK
        ARGFRAME XSTACK, 10, STACK
        ARGFRAME IOVERLAY, 0, STATIC
        ARGFRAME DOVERLAY, 0, STATIC
        FUNCALL ZDSecMgrTransportKeyInd, ZDSecMgrAuthNwkKey
        LOCFRAME ISTACK, 0, STACK
        LOCFRAME PSTACK, 0, STACK
        LOCFRAME XSTACK, 10, STACK
        LOCFRAME IOVERLAY, 0, STATIC
        LOCFRAME DOVERLAY, 0, STATIC
        ARGFRAME ISTACK, 0, STACK
        ARGFRAME PSTACK, 0, STACK
        ARGFRAME XSTACK, 10, STACK
        ARGFRAME IOVERLAY, 0, STATIC
        ARGFRAME DOVERLAY, 0, STATIC
        MOV     A,#-0xa
        LCALL   ?BANKED_ENTER_XDATA
          CFI DPH0 load(1, XDATA, add(CFA_XSP16, literal(-1)))
          CFI DPL0 load(1, XDATA, add(CFA_XSP16, literal(-2)))
          CFI ?BRET_EXT load(1, XDATA, add(CFA_XSP16, literal(-3)))
          CFI ?RET_HIGH load(1, XDATA, add(CFA_XSP16, literal(-4)))
          CFI ?RET_LOW load(1, XDATA, add(CFA_XSP16, literal(-5)))
          CFI R7 load(1, XDATA, add(CFA_XSP16, literal(-6)))
          CFI V1 load(1, XDATA, add(CFA_XSP16, literal(-7)))
          CFI V0 load(1, XDATA, add(CFA_XSP16, literal(-8)))
          CFI VB load(1, XDATA, add(CFA_XSP16, literal(-9)))
          CFI R6 load(1, XDATA, add(CFA_XSP16, literal(-10)))
          CFI CFA_SP SP+0
          CFI CFA_XSP16 add(XSP16, 10)
        ; Saved register size: 10
        ; Auto size: 0
        MOV     A,R2
        MOV     R6,A
        MOV     A,R3
        MOV     R7,A
// 2775   uint8 index;
// 2776 
// 2777   // load Trust Center data if needed
// 2778   ZDSecMgrTCDataLoad( ind->srcExtAddr );
        ; Setup parameters for call to function ZDSecMgrTCDataLoad
        MOV     A,R6
        ADD     A,#0x16
        MOV     R2,A
        MOV     A,R7
        ADDC    A,#0x0
        MOV     R3,A
        LCALL   ??ZDSecMgrTCDataLoad?relay
// 2779 
// 2780   if ( ind->keyType == KEY_TYPE_TC_MASTER )
        MOV     DPL,R6
        MOV     DPH,R7
        INC     DPTR
        INC     DPTR
        INC     DPTR
        INC     DPTR
        MOVX    A,@DPTR
        MOV     R0,A
        JZ      ??ZDSecMgrTransportKeyInd_0
// 2781   {
// 2782     if ( ZG_CHECK_SECURITY_MODE == ZG_SECURITY_PRO_HIGH )
// 2783     //ZDSecMgrTCMasterKey( ind );
// 2784     {
// 2785       if ( zgPreConfigKeys != TRUE )
// 2786       {
// 2787         // devtag.pro.security.todo - check if Trust Center address is configured and correct
// 2788         ZDSecMgrMasterKeyLoad( ind->srcExtAddr, ind->key );
// 2789       }
// 2790       else
// 2791       {
// 2792         // error condition - reject key
// 2793       }
// 2794     }
// 2795   }
// 2796   else if ( ( ind->keyType == KEY_TYPE_NWK      ) ||
// 2797             ( ind->keyType == 6                 ) ||
// 2798             ( ind->keyType == KEY_TYPE_NWK_HIGH )    )
        MOV     A,#0x1
        XRL     A,R0
        JZ      ??ZDSecMgrTransportKeyInd_1
        MOV     A,#0x6
        XRL     A,R0
        JZ      ??ZDSecMgrTransportKeyInd_1
        MOV     A,#0x5
        XRL     A,R0
        JNZ     ??ZDSecMgrTransportKeyInd_0
// 2799   {
// 2800     // check for dummy NWK key (all zeros)
// 2801     for ( index = 0;
??ZDSecMgrTransportKeyInd_1:
        MOV     R0,#0x0
??ZDSecMgrTransportKeyInd_2:
        MOV     ?V0 + 0,R0
        MOV     A,R6
        ADD     A,?V0 + 0
        MOV     DPL,A
        MOV     A,R7
        LCALL   ??Subroutine103_0 & 0xFFFF
??CrossCallReturnLabel_250:
        INC     DPTR
        INC     DPTR
        INC     DPTR
        INC     DPTR
        INC     DPTR
        INC     DPTR
        MOVX    A,@DPTR
        JNZ     ??ZDSecMgrTransportKeyInd_3
// 2802           ( (index < SEC_KEY_LEN) && (ind->key[index] == 0) );
// 2803           index++ );
        INC     R0
        MOV     A,R0
        CLR     C
        SUBB    A,#0x10
        JC      ??ZDSecMgrTransportKeyInd_2
// 2804 
// 2805     if ( index == SEC_KEY_LEN )
??ZDSecMgrTransportKeyInd_3:
        MOV     A,#0x10
        XRL     A,R0
        JNZ     ??ZDSecMgrTransportKeyInd_4
// 2806     {
// 2807       // load preconfigured key - once!!
// 2808       if ( !_NIB.nwkKeyLoaded )
        MOV     DPTR,#_NIB + 61
        MOVX    A,@DPTR
        JNZ     ??ZDSecMgrTransportKeyInd_5
// 2809       {
// 2810         SSP_UpdateNwkKey( (byte*)zgPreConfigKey, 0 );
        ; Setup parameters for call to function SSP_UpdateNwkKey
        MOV     R1,#0x0
        MOV     R2,#zgPreConfigKey & 0xff
        MOV     R3,#(zgPreConfigKey >> 8) & 0xff
        LCALL   ??SSP_UpdateNwkKey?relay
// 2811         SSP_SwitchNwkKey( 0 );
        ; Setup parameters for call to function SSP_SwitchNwkKey
        MOV     R1,#0x0
        SJMP    ??ZDSecMgrTransportKeyInd_6
// 2812       }
// 2813     }
// 2814     else
// 2815     {
// 2816       SSP_UpdateNwkKey( ind->key, ind->keySeqNum );
??ZDSecMgrTransportKeyInd_4:
        MOV     A,R6
        ADD     A,#0x5
        LCALL   ?Subroutine55 & 0xFFFF
??CrossCallReturnLabel_71:
        MOV     R1,A
        MOV     A,R6
        ADD     A,#0x6
        MOV     R2,A
        MOV     A,R7
        ADDC    A,#0x0
        MOV     R3,A
        LCALL   ??SSP_UpdateNwkKey?relay
// 2817       if ( !_NIB.nwkKeyLoaded )
        MOV     DPTR,#_NIB + 61
        MOVX    A,@DPTR
        JNZ     ??ZDSecMgrTransportKeyInd_5
// 2818       {
// 2819         SSP_SwitchNwkKey( ind->keySeqNum );
        ; Setup parameters for call to function SSP_SwitchNwkKey
        MOV     DPL,?V0 + 0
        MOV     DPH,?V0 + 1
        MOVX    A,@DPTR
        MOV     R1,A
??ZDSecMgrTransportKeyInd_6:
        LCALL   ??SSP_SwitchNwkKey?relay
// 2820       }
// 2821     }
// 2822 
// 2823     // handle next step in authentication process
// 2824     ZDSecMgrAuthNwkKey();
??ZDSecMgrTransportKeyInd_5:
        ; Setup parameters for call to function ZDSecMgrAuthNwkKey
        LCALL   ??ZDSecMgrAuthNwkKey?relay
// 2825   }
// 2826   else if ( ind->keyType == KEY_TYPE_TC_LINK )
// 2827   {
// 2828     if ( ZG_CHECK_SECURITY_MODE == ZG_SECURITY_PRO_HIGH )
// 2829     {
// 2830       //ZDSecMgrTCLinkKey( ind );
// 2831     }
// 2832   }
// 2833   else if ( ind->keyType == KEY_TYPE_APP_MASTER )
// 2834   {
// 2835     if ( ZG_CHECK_SECURITY_MODE == ZG_SECURITY_PRO_HIGH )
// 2836     {
// 2837       uint16           ami;
// 2838       AddrMgrEntry_t   entry;
// 2839       ZDSecMgrEntry_t* entryZD;
// 2840 
// 2841       ZDSecMgrExtAddrLookup( ind->srcExtAddr, &ami );
// 2842 
// 2843       if ( ind->initiator == TRUE )
// 2844       {
// 2845         // get the ami data
// 2846         entry.user  = ADDRMGR_USER_SECURITY;
// 2847         entry.index = ami;
// 2848         AddrMgrEntryGet( &entry );
// 2849 
// 2850         if ( entry.nwkAddr != INVALID_NODE_ADDR )
// 2851         {
// 2852           APSME_EstablishKeyReq_t req;
// 2853           ZDSecMgrMasterKeyLoad( ind->srcExtAddr, ind->key );
// 2854 
// 2855           ZDSecMgrEntryLookupAMI( ami, &entryZD );
// 2856 
// 2857           if ( entryZD == NULL )
// 2858           {
// 2859             // get new entry
// 2860             if ( ZDSecMgrEntryNew( &entryZD ) == ZSuccess )
// 2861             {
// 2862               // finish setting up entry
// 2863               entryZD->ami = ami;
// 2864             }
// 2865           }
// 2866 
// 2867           req.respExtAddr = ind->srcExtAddr;
// 2868           req.method      = APSME_SKKE_METHOD;
// 2869           req.dstAddr     = entry.nwkAddr;
// 2870           //devtag.0604.todo - remove obsolete
// 2871           req.apsSecure   = FALSE;
// 2872           req.nwkSecure   = TRUE;
// 2873           APSME_EstablishKeyReq( &req );
// 2874         }
// 2875       }
// 2876       else
// 2877       {
// 2878         if ( ami == INVALID_NODE_ADDR )
// 2879         {
// 2880           // store new EXT address
// 2881           ZDSecMgrAddrStore( INVALID_NODE_ADDR, ind->srcExtAddr, &ami );
// 2882         }
// 2883 
// 2884         ZDSecMgrMasterKeyLoad( ind->srcExtAddr, ind->key );
// 2885       }
// 2886 
// 2887       //if ( entry.nwkAddr == INVALID_NODE_ADDR )
// 2888       //{
// 2889       //  ZDP_NwkAddrReq( ind->srcExtAddr, ZDP_ADDR_REQTYPE_SINGLE, 0, 0 );
// 2890       //}
// 2891     }
// 2892   }
// 2893   else if ( ind->keyType == KEY_TYPE_APP_LINK )
// 2894   {
// 2895     if ( ZG_CHECK_SECURITY_MODE == ZG_SECURITY_PRO_HIGH )
// 2896     {
// 2897       uint16           ami;
// 2898       ZDSecMgrEntry_t* entry;
// 2899 
// 2900       // get the address index
// 2901       if ( ZDSecMgrExtAddrLookup( ind->srcExtAddr, &ami ) != ZSuccess )
// 2902       {
// 2903         // store new EXT address
// 2904         ZDSecMgrAddrStore( INVALID_NODE_ADDR, ind->srcExtAddr, &ami );
// 2905         ZDP_NwkAddrReq( ind->srcExtAddr, ZDP_ADDR_REQTYPE_SINGLE, 0, 0 );
// 2906       }
// 2907 
// 2908       ZDSecMgrEntryLookupAMI( ami, &entry );
// 2909 
// 2910       if ( entry == NULL )
// 2911       {
// 2912         // get new entry
// 2913         if ( ZDSecMgrEntryNew( &entry ) == ZSuccess )
// 2914         {
// 2915           // finish setting up entry
// 2916           entry->ami = ami;
// 2917         }
// 2918       }
// 2919 
// 2920       ZDSecMgrLinkKeySet( ind->srcExtAddr, ind->key );
// 2921     }
// 2922   }
// 2923 }
??ZDSecMgrTransportKeyInd_0:
        LJMP    ??Subroutine94_0 & 0xFFFF
          CFI EndBlock cfiBlock554

        RSEG BANKED_CODE:CODE:NOROOT(0)
?Subroutine55:
          CFI Block cfiCond555 Using cfiCommon0
          CFI Function ZDSecMgrEstablishKeyInd
          CFI Conditional ??CrossCallReturnLabel_70
          CFI R6 load(1, XDATA, add(CFA_XSP16, literal(-12)))
          CFI VB load(1, XDATA, add(CFA_XSP16, literal(-11)))
          CFI V0 load(1, XDATA, add(CFA_XSP16, literal(-10)))
          CFI V1 load(1, XDATA, add(CFA_XSP16, literal(-9)))
          CFI V2 load(1, XDATA, add(CFA_XSP16, literal(-8)))
          CFI V3 load(1, XDATA, add(CFA_XSP16, literal(-7)))
          CFI R7 load(1, XDATA, add(CFA_XSP16, literal(-6)))
          CFI ?RET_LOW load(1, XDATA, add(CFA_XSP16, literal(-5)))
          CFI ?RET_HIGH load(1, XDATA, add(CFA_XSP16, literal(-4)))
          CFI ?BRET_EXT load(1, XDATA, add(CFA_XSP16, literal(-3)))
          CFI DPL0 load(1, XDATA, add(CFA_XSP16, literal(-2)))
          CFI DPH0 load(1, XDATA, add(CFA_XSP16, literal(-1)))
          CFI CFA_SP SP+0
          CFI CFA_XSP16 add(XSP16, 29)
          CFI Block cfiCond556 Using cfiCommon0
          CFI (cfiCond556) Function ZDSecMgrTransportKeyInd
          CFI (cfiCond556) Conditional ??CrossCallReturnLabel_71
          CFI (cfiCond556) R6 load(1, XDATA, add(CFA_XSP16, literal(-10)))
          CFI (cfiCond556) VB load(1, XDATA, add(CFA_XSP16, literal(-9)))
          CFI (cfiCond556) V0 load(1, XDATA, add(CFA_XSP16, literal(-8)))
          CFI (cfiCond556) V1 load(1, XDATA, add(CFA_XSP16, literal(-7)))
          CFI (cfiCond556) R7 load(1, XDATA, add(CFA_XSP16, literal(-6)))
          CFI (cfiCond556) ?RET_LOW load(1, XDATA, add(CFA_XSP16, literal(-5)))
          CFI (cfiCond556) ?RET_HIGH load(1, XDATA, add(CFA_XSP16, literal(-4)))
          CFI (cfiCond556) ?BRET_EXT load(1, XDATA, add(CFA_XSP16, literal(-3)))
          CFI (cfiCond556) DPL0 load(1, XDATA, add(CFA_XSP16, literal(-2)))
          CFI (cfiCond556) DPH0 load(1, XDATA, add(CFA_XSP16, literal(-1)))
          CFI (cfiCond556) CFA_SP SP+0
          CFI (cfiCond556) CFA_XSP16 add(XSP16, 10)
          CFI Block cfiPicker557 Using cfiCommon1
          CFI (cfiPicker557) NoFunction
          CFI (cfiPicker557) Picker
        MOV     R0,A
        MOV     A,R7
        ADDC    A,#0x0
        MOV     R1,A
        MOV     ?V0 + 0,R0
        MOV     ?V0 + 1,R1
        ; Setup parameters for call to function SSP_UpdateNwkKey
        MOV     DPL,R0
        MOV     DPH,A
        MOVX    A,@DPTR
        RET
          CFI EndBlock cfiCond555
          CFI EndBlock cfiCond556
          CFI EndBlock cfiPicker557
// 2924 
// 2925 /******************************************************************************
// 2926  * @fn          ZDSecMgrUpdateDeviceInd
// 2927  *
// 2928  * @brief       Process the ZDO_UpdateDeviceInd_t message.
// 2929  *
// 2930  * @param       ind - [in] ZDO_UpdateDeviceInd_t indication
// 2931  *
// 2932  * @return      none
// 2933  */

        RSEG BANKED_CODE:CODE:NOROOT(0)
// 2934 void ZDSecMgrUpdateDeviceInd( ZDO_UpdateDeviceInd_t* ind )
ZDSecMgrUpdateDeviceInd:
          CFI Block cfiBlock558 Using cfiCommon0
          CFI Function ZDSecMgrUpdateDeviceInd
        CODE
// 2935 {
        FUNCALL ZDSecMgrUpdateDeviceInd, ZDSecMgrDeviceJoin
        LOCFRAME ISTACK, 2, STACK
        LOCFRAME PSTACK, 0, STACK
        LOCFRAME XSTACK, 10, STACK
        LOCFRAME IOVERLAY, 0, STATIC
        LOCFRAME DOVERLAY, 0, STATIC
        ARGFRAME ISTACK, 2, STACK
        ARGFRAME PSTACK, 0, STACK
        ARGFRAME XSTACK, 10, STACK
        ARGFRAME IOVERLAY, 0, STATIC
        ARGFRAME DOVERLAY, 0, STATIC
        PUSH    DPL
          CFI DPL0 Frame(CFA_SP, 4)
          CFI CFA_SP SP+-4
        PUSH    DPH
          CFI DPH0 Frame(CFA_SP, 5)
          CFI CFA_SP SP+-5
        ; Saved register size: 2
        ; Auto size: 10
        MOV     A,#-0xa
        LCALL   ?ALLOC_XSTACK8
          CFI CFA_XSP16 add(XSP16, 10)
// 2936   ZDSecMgrDevice_t device;
// 2937 
// 2938 
// 2939   device.nwkAddr    = ind->devAddr;
        MOV     A,R2
        ADD     A,#0xc
        MOV     DPL,A
        MOV     A,R3
        LCALL   ??Subroutine103_0 & 0xFFFF
??CrossCallReturnLabel_251:
        LCALL   ?Subroutine34 & 0xFFFF
// 2940   device.extAddr    = ind->devExtAddr;
??CrossCallReturnLabel_169:
        MOV     A,R2
        ADD     A,#0x4
        MOV     R0,A
        MOV     A,R3
        ADDC    A,#0x0
        MOV     R1,A
        MOV     A,#0x2
        LCALL   ?XSTACK_DISP0_8
        LCALL   ?Subroutine18 & 0xFFFF
// 2941   device.parentAddr = ind->srcAddr;
??CrossCallReturnLabel_1:
        LCALL   ?XSTACK_DISP0_8
        LCALL   ?Subroutine14 & 0xFFFF
// 2942 
// 2943   //if ( ( ind->status == APSME_UD_SECURED_JOIN   ) ||
// 2944   //     ( ind->status == APSME_UD_UNSECURED_JOIN )   )
// 2945   //{
// 2946   //  if ( ind->status == APSME_UD_SECURED_JOIN )
// 2947   //  {
// 2948   //    device.secure = TRUE;
// 2949   //  }
// 2950   //  else
// 2951   //  {
// 2952   //    device.secure = FALSE;
// 2953   //  }
// 2954 
// 2955     // try to join this device
// 2956     ZDSecMgrDeviceJoin( &device );
??CrossCallReturnLabel_172:
        LCALL   ??ZDSecMgrDeviceJoin?relay
          CFI EndBlock cfiBlock558
// 2957   //}
// 2958 }
        REQUIRE ?Subroutine13
        ; // Fall through to label ?Subroutine13

        RSEG BANKED_CODE:CODE:NOROOT(0)
?Subroutine13:
          CFI Block cfiBlock559 Using cfiCommon0
          CFI NoFunction
          CFI CFA_SP SP+-5
          CFI CFA_XSP16 add(XSP16, 10)
          CFI DPL0 Frame(CFA_SP, 4)
          CFI DPH0 Frame(CFA_SP, 5)
        MOV     A,#0xa
        SJMP    ??Subroutine99_0
          CFI EndBlock cfiBlock559

        RSEG BANKED_CODE:CODE:NOROOT(0)
?Subroutine18:
          CFI Block cfiCond560 Using cfiCommon0
          CFI Function ZDSecMgrDeviceJoinFwd
          CFI Conditional ??CrossCallReturnLabel_0
          CFI DPL0 Frame(CFA_SP, 4)
          CFI DPH0 Frame(CFA_SP, 5)
          CFI CFA_SP SP+-5
          CFI CFA_XSP16 add(XSP16, 8)
          CFI Block cfiCond561 Using cfiCommon0
          CFI (cfiCond561) Function ZDSecMgrUpdateDeviceInd
          CFI (cfiCond561) Conditional ??CrossCallReturnLabel_1
          CFI (cfiCond561) DPL0 Frame(CFA_SP, 4)
          CFI (cfiCond561) DPH0 Frame(CFA_SP, 5)
          CFI (cfiCond561) CFA_SP SP+-5
          CFI (cfiCond561) CFA_XSP16 add(XSP16, 10)
          CFI Block cfiPicker562 Using cfiCommon1
          CFI (cfiPicker562) NoFunction
          CFI (cfiPicker562) Picker
        LCALL   ?Subroutine71 & 0xFFFF
??CrossCallReturnLabel_197:
        MOV     DPL,R2
        MOV     DPH,R3
        LCALL   ?Subroutine64 & 0xFFFF
??CrossCallReturnLabel_218:
        MOV     A,#0x4
        RET
          CFI EndBlock cfiCond560
          CFI EndBlock cfiCond561
          CFI EndBlock cfiPicker562

        RSEG BANKED_CODE:CODE:NOROOT(0)
?Subroutine7:
          CFI Block cfiBlock563 Using cfiCommon0
          CFI NoFunction
          CFI CFA_SP SP+-5
          CFI CFA_XSP16 add(XSP16, 2)
          CFI DPL0 Frame(CFA_SP, 4)
          CFI DPH0 Frame(CFA_SP, 5)
        MOV     A,#0x2
          CFI EndBlock cfiBlock563
        REQUIRE ??Subroutine99_0
        ; // Fall through to label ??Subroutine99_0

        RSEG BANKED_CODE:CODE:NOROOT(0)
??Subroutine99_0:
          CFI Block cfiBlock564 Using cfiCommon0
          CFI NoFunction
          CFI CFA_SP SP+-5
          CFI CFA_XSP16 add(XSP16, 8)
          CFI DPL0 Frame(CFA_SP, 4)
          CFI DPH0 Frame(CFA_SP, 5)
          CFI Invalid
        LCALL   ?DEALLOC_XSTACK8
          CFI CFA_XSP16 XSP16+0
          CFI Valid
        LJMP    ??Subroutine89_0 & 0xFFFF
          CFI EndBlock cfiBlock564
// 2959 
// 2960 /******************************************************************************
// 2961  * @fn          ZDSecMgrRemoveDeviceInd
// 2962  *
// 2963  * @brief       Process the ZDO_RemoveDeviceInd_t message.
// 2964  *
// 2965  * @param       ind - [in] ZDO_RemoveDeviceInd_t indication
// 2966  *
// 2967  * @return      none
// 2968  */

        RSEG BANKED_CODE:CODE:NOROOT(0)
// 2969 void ZDSecMgrRemoveDeviceInd( ZDO_RemoveDeviceInd_t* ind )
ZDSecMgrRemoveDeviceInd:
          CFI Block cfiBlock565 Using cfiCommon0
          CFI Function ZDSecMgrRemoveDeviceInd
        CODE
// 2970 {
        FUNCALL ZDSecMgrRemoveDeviceInd, APSME_LookupNwkAddr
        LOCFRAME ISTACK, 0, STACK
        LOCFRAME PSTACK, 0, STACK
        LOCFRAME XSTACK, 19, STACK
        LOCFRAME IOVERLAY, 0, STATIC
        LOCFRAME DOVERLAY, 0, STATIC
        ARGFRAME ISTACK, 0, STACK
        ARGFRAME PSTACK, 0, STACK
        ARGFRAME XSTACK, 19, STACK
        ARGFRAME IOVERLAY, 0, STATIC
        ARGFRAME DOVERLAY, 0, STATIC
        FUNCALL ZDSecMgrRemoveDeviceInd, NLME_GetShortAddr
        LOCFRAME ISTACK, 0, STACK
        LOCFRAME PSTACK, 0, STACK
        LOCFRAME XSTACK, 19, STACK
        LOCFRAME IOVERLAY, 0, STATIC
        LOCFRAME DOVERLAY, 0, STATIC
        ARGFRAME ISTACK, 0, STACK
        ARGFRAME PSTACK, 0, STACK
        ARGFRAME XSTACK, 19, STACK
        ARGFRAME IOVERLAY, 0, STATIC
        ARGFRAME DOVERLAY, 0, STATIC
        FUNCALL ZDSecMgrRemoveDeviceInd, ZDSecMgrDeviceRemove
        LOCFRAME ISTACK, 0, STACK
        LOCFRAME PSTACK, 0, STACK
        LOCFRAME XSTACK, 19, STACK
        LOCFRAME IOVERLAY, 0, STATIC
        LOCFRAME DOVERLAY, 0, STATIC
        ARGFRAME ISTACK, 0, STACK
        ARGFRAME PSTACK, 0, STACK
        ARGFRAME XSTACK, 19, STACK
        ARGFRAME IOVERLAY, 0, STATIC
        ARGFRAME DOVERLAY, 0, STATIC
        MOV     A,#-0x9
        LCALL   ?BANKED_ENTER_XDATA
          CFI DPH0 load(1, XDATA, add(CFA_XSP16, literal(-1)))
          CFI DPL0 load(1, XDATA, add(CFA_XSP16, literal(-2)))
          CFI ?BRET_EXT load(1, XDATA, add(CFA_XSP16, literal(-3)))
          CFI ?RET_HIGH load(1, XDATA, add(CFA_XSP16, literal(-4)))
          CFI ?RET_LOW load(1, XDATA, add(CFA_XSP16, literal(-5)))
          CFI R7 load(1, XDATA, add(CFA_XSP16, literal(-6)))
          CFI V0 load(1, XDATA, add(CFA_XSP16, literal(-7)))
          CFI VB load(1, XDATA, add(CFA_XSP16, literal(-8)))
          CFI R6 load(1, XDATA, add(CFA_XSP16, literal(-9)))
          CFI CFA_SP SP+0
          CFI CFA_XSP16 add(XSP16, 9)
        ; Saved register size: 9
        ; Auto size: 10
        MOV     A,#-0xa
        LCALL   ?ALLOC_XSTACK8
          CFI CFA_XSP16 add(XSP16, 19)
// 2971   ZDSecMgrDevice_t device;
// 2972 
// 2973 
// 2974   // only accept from Trust Center
// 2975   if ( ind->srcAddr == APSME_TRUSTCENTER_NWKADDR )
        MOV     DPL,R2
        MOV     DPH,R3
        INC     DPTR
        INC     DPTR
        LCALL   ??Subroutine100_0 & 0xFFFF
??CrossCallReturnLabel_229:
        JNZ     ??ZDSecMgrRemoveDeviceInd_0
// 2976   {
// 2977     // look up NWK address
// 2978     if ( APSME_LookupNwkAddr( ind->childExtAddr, &device.nwkAddr ) == TRUE )
        MOV     A,R2
        ADD     A,#0x4
        LCALL   ?Subroutine54 & 0xFFFF
??CrossCallReturnLabel_69:
        LCALL   ??APSME_LookupNwkAddr?relay
        MOV     A,R1
        XRL     A,#0x1
        JNZ     ??ZDSecMgrRemoveDeviceInd_0
// 2979     {
// 2980       device.parentAddr = NLME_GetShortAddr();
        ; Setup parameters for call to function NLME_GetShortAddr
        LCALL   ??NLME_GetShortAddr?relay
        MOV     A,#0x4
        LCALL   ?XSTACK_DISP0_8
        LCALL   ??Subroutine79_0 & 0xFFFF
// 2981       device.extAddr    = ind->childExtAddr;
// 2982 
// 2983       // remove device
// 2984       ZDSecMgrDeviceRemove( &device );
// 2985     }
// 2986   }
??CrossCallReturnLabel_115:
        LCALL   ?XSTACK_DISP0_8
        MOV     A,R6
        MOVX    @DPTR,A
        INC     DPTR
        MOV     A,R7
        LCALL   ??Subroutine90_0 & 0xFFFF
??CrossCallReturnLabel_186:
        LCALL   ??ZDSecMgrDeviceRemove?relay
// 2987 }
??ZDSecMgrRemoveDeviceInd_0:
        MOV     A,#0xa
        LJMP    ??Subroutine82_0 & 0xFFFF
          CFI EndBlock cfiBlock565

        RSEG BANKED_CODE:CODE:NOROOT(0)
?Subroutine54:
          CFI Block cfiCond566 Using cfiCommon0
          CFI Function ZDSecMgrAppKeyReq
          CFI Conditional ??CrossCallReturnLabel_68
          CFI R6 load(1, XDATA, add(CFA_XSP16, literal(-10)))
          CFI VB load(1, XDATA, add(CFA_XSP16, literal(-9)))
          CFI V0 load(1, XDATA, add(CFA_XSP16, literal(-8)))
          CFI V1 load(1, XDATA, add(CFA_XSP16, literal(-7)))
          CFI R7 load(1, XDATA, add(CFA_XSP16, literal(-6)))
          CFI ?RET_LOW load(1, XDATA, add(CFA_XSP16, literal(-5)))
          CFI ?RET_HIGH load(1, XDATA, add(CFA_XSP16, literal(-4)))
          CFI ?BRET_EXT load(1, XDATA, add(CFA_XSP16, literal(-3)))
          CFI DPL0 load(1, XDATA, add(CFA_XSP16, literal(-2)))
          CFI DPH0 load(1, XDATA, add(CFA_XSP16, literal(-1)))
          CFI CFA_SP SP+0
          CFI CFA_XSP16 add(XSP16, 49)
          CFI Block cfiCond567 Using cfiCommon0
          CFI (cfiCond567) Function ZDSecMgrRemoveDeviceInd
          CFI (cfiCond567) Conditional ??CrossCallReturnLabel_69
          CFI (cfiCond567) R6 load(1, XDATA, add(CFA_XSP16, literal(-9)))
          CFI (cfiCond567) VB load(1, XDATA, add(CFA_XSP16, literal(-8)))
          CFI (cfiCond567) V0 load(1, XDATA, add(CFA_XSP16, literal(-7)))
          CFI (cfiCond567) R7 load(1, XDATA, add(CFA_XSP16, literal(-6)))
          CFI (cfiCond567) ?RET_LOW load(1, XDATA, add(CFA_XSP16, literal(-5)))
          CFI (cfiCond567) ?RET_HIGH load(1, XDATA, add(CFA_XSP16, literal(-4)))
          CFI (cfiCond567) ?BRET_EXT load(1, XDATA, add(CFA_XSP16, literal(-3)))
          CFI (cfiCond567) DPL0 load(1, XDATA, add(CFA_XSP16, literal(-2)))
          CFI (cfiCond567) DPH0 load(1, XDATA, add(CFA_XSP16, literal(-1)))
          CFI (cfiCond567) CFA_SP SP+0
          CFI (cfiCond567) CFA_XSP16 add(XSP16, 19)
          CFI Block cfiPicker568 Using cfiCommon1
          CFI (cfiPicker568) NoFunction
          CFI (cfiPicker568) Picker
        MOV     R6,A
        MOV     A,R3
        ADDC    A,#0x0
        MOV     R7,A
        ; Setup parameters for call to function APSME_LookupNwkAddr
        ; Setup parameters for call to function APSME_LookupNwkAddr
        MOV     DPL,?XSP + 0
        MOV     DPH,?XSP + 1
        MOV     R4,DPL
        MOV     R5,DPH
        MOV     A,R6
        MOV     R2,A
        MOV     A,R7
        MOV     R3,A
        RET
          CFI EndBlock cfiCond566
          CFI EndBlock cfiCond567
          CFI EndBlock cfiPicker568

        RSEG BANKED_CODE:CODE:NOROOT(0)
?Subroutine38:
          CFI Block cfiCond569 Using cfiCommon0
          CFI Function ZDSecMgrCtrlTerm
          CFI Conditional ??CrossCallReturnLabel_231
          CFI DPL0 Frame(CFA_SP, 4)
          CFI DPH0 Frame(CFA_SP, 5)
          CFI CFA_SP SP+-5
          CFI CFA_XSP16 add(XSP16, 2)
          CFI Block cfiCond570 Using cfiCommon0
          CFI (cfiCond570) Function ZDSecMgrCtrlReset
          CFI (cfiCond570) Conditional ??CrossCallReturnLabel_232
          CFI (cfiCond570) R6 load(1, XDATA, add(CFA_XSP16, literal(-10)))
          CFI (cfiCond570) VB load(1, XDATA, add(CFA_XSP16, literal(-9)))
          CFI (cfiCond570) V0 load(1, XDATA, add(CFA_XSP16, literal(-8)))
          CFI (cfiCond570) V1 load(1, XDATA, add(CFA_XSP16, literal(-7)))
          CFI (cfiCond570) R7 load(1, XDATA, add(CFA_XSP16, literal(-6)))
          CFI (cfiCond570) ?RET_LOW load(1, XDATA, add(CFA_XSP16, literal(-5)))
          CFI (cfiCond570) ?RET_HIGH load(1, XDATA, add(CFA_XSP16, literal(-4)))
          CFI (cfiCond570) ?BRET_EXT load(1, XDATA, add(CFA_XSP16, literal(-3)))
          CFI (cfiCond570) DPL0 load(1, XDATA, add(CFA_XSP16, literal(-2)))
          CFI (cfiCond570) DPH0 load(1, XDATA, add(CFA_XSP16, literal(-1)))
          CFI (cfiCond570) CFA_SP SP+0
          CFI (cfiCond570) CFA_XSP16 add(XSP16, 12)
          CFI Block cfiCond571 Using cfiCommon0
          CFI (cfiCond571) Function ZDSecMgrDeviceEntryAdd
          CFI (cfiCond571) Conditional ??CrossCallReturnLabel_233
          CFI (cfiCond571) R6 load(1, XDATA, add(CFA_XSP16, literal(-11)))
          CFI (cfiCond571) VB load(1, XDATA, add(CFA_XSP16, literal(-10)))
          CFI (cfiCond571) V0 load(1, XDATA, add(CFA_XSP16, literal(-9)))
          CFI (cfiCond571) V1 load(1, XDATA, add(CFA_XSP16, literal(-8)))
          CFI (cfiCond571) V2 load(1, XDATA, add(CFA_XSP16, literal(-7)))
          CFI (cfiCond571) R7 load(1, XDATA, add(CFA_XSP16, literal(-6)))
          CFI (cfiCond571) ?RET_LOW load(1, XDATA, add(CFA_XSP16, literal(-5)))
          CFI (cfiCond571) ?RET_HIGH load(1, XDATA, add(CFA_XSP16, literal(-4)))
          CFI (cfiCond571) ?BRET_EXT load(1, XDATA, add(CFA_XSP16, literal(-3)))
          CFI (cfiCond571) DPL0 load(1, XDATA, add(CFA_XSP16, literal(-2)))
          CFI (cfiCond571) DPH0 load(1, XDATA, add(CFA_XSP16, literal(-1)))
          CFI (cfiCond571) CFA_SP SP+0
          CFI (cfiCond571) CFA_XSP16 add(XSP16, 13)
          CFI Block cfiCond572 Using cfiCommon0
          CFI (cfiCond572) Function ZDSecMgrDeviceCtrlUpdate
          CFI (cfiCond572) Conditional ??CrossCallReturnLabel_234
          CFI (cfiCond572) R6 load(1, XDATA, add(CFA_XSP16, literal(-9)))
          CFI (cfiCond572) VB load(1, XDATA, add(CFA_XSP16, literal(-8)))
          CFI (cfiCond572) V0 load(1, XDATA, add(CFA_XSP16, literal(-7)))
          CFI (cfiCond572) R7 load(1, XDATA, add(CFA_XSP16, literal(-6)))
          CFI (cfiCond572) ?RET_LOW load(1, XDATA, add(CFA_XSP16, literal(-5)))
          CFI (cfiCond572) ?RET_HIGH load(1, XDATA, add(CFA_XSP16, literal(-4)))
          CFI (cfiCond572) ?BRET_EXT load(1, XDATA, add(CFA_XSP16, literal(-3)))
          CFI (cfiCond572) DPL0 load(1, XDATA, add(CFA_XSP16, literal(-2)))
          CFI (cfiCond572) DPH0 load(1, XDATA, add(CFA_XSP16, literal(-1)))
          CFI (cfiCond572) CFA_SP SP+0
          CFI (cfiCond572) CFA_XSP16 add(XSP16, 13)
          CFI Block cfiCond573 Using cfiCommon0
          CFI (cfiCond573) Function ZDSecMgrAddLinkKey
          CFI (cfiCond573) Conditional ??CrossCallReturnLabel_235
          CFI (cfiCond573) R6 load(1, XDATA, add(CFA_XSP16, literal(-12)))
          CFI (cfiCond573) VB load(1, XDATA, add(CFA_XSP16, literal(-11)))
          CFI (cfiCond573) V0 load(1, XDATA, add(CFA_XSP16, literal(-10)))
          CFI (cfiCond573) V1 load(1, XDATA, add(CFA_XSP16, literal(-9)))
          CFI (cfiCond573) V2 load(1, XDATA, add(CFA_XSP16, literal(-8)))
          CFI (cfiCond573) V3 load(1, XDATA, add(CFA_XSP16, literal(-7)))
          CFI (cfiCond573) R7 load(1, XDATA, add(CFA_XSP16, literal(-6)))
          CFI (cfiCond573) ?RET_LOW load(1, XDATA, add(CFA_XSP16, literal(-5)))
          CFI (cfiCond573) ?RET_HIGH load(1, XDATA, add(CFA_XSP16, literal(-4)))
          CFI (cfiCond573) ?BRET_EXT load(1, XDATA, add(CFA_XSP16, literal(-3)))
          CFI (cfiCond573) DPL0 load(1, XDATA, add(CFA_XSP16, literal(-2)))
          CFI (cfiCond573) DPH0 load(1, XDATA, add(CFA_XSP16, literal(-1)))
          CFI (cfiCond573) CFA_SP SP+0
          CFI (cfiCond573) CFA_XSP16 add(XSP16, 16)
          CFI Block cfiPicker574 Using cfiCommon1
          CFI (cfiPicker574) NoFunction
          CFI (cfiPicker574) Picker
        MOV     DPL,?XSP + 0
        MOV     DPH,?XSP + 1
          CFI EndBlock cfiCond569
          CFI EndBlock cfiCond570
          CFI EndBlock cfiCond571
          CFI EndBlock cfiCond572
          CFI EndBlock cfiCond573
          CFI EndBlock cfiPicker574
        REQUIRE ??Subroutine100_0
        ; // Fall through to label ??Subroutine100_0

        RSEG BANKED_CODE:CODE:NOROOT(0)
??Subroutine100_0:
          CFI Block cfiCond575 Using cfiCommon0
          CFI Function ZDSecMgrMasterKeyInit
          CFI Conditional ??CrossCallReturnLabel_222
          CFI DPL0 Frame(CFA_SP, 4)
          CFI DPH0 Frame(CFA_SP, 5)
          CFI CFA_SP SP+-5
          CFI Block cfiCond576 Using cfiCommon0
          CFI (cfiCond576) Function ZDSecMgrMasterKeyLookup
          CFI (cfiCond576) Conditional ??CrossCallReturnLabel_223
          CFI (cfiCond576) R6 load(1, XDATA, add(CFA_XSP16, literal(-10)))
          CFI (cfiCond576) VB load(1, XDATA, add(CFA_XSP16, literal(-9)))
          CFI (cfiCond576) V0 load(1, XDATA, add(CFA_XSP16, literal(-8)))
          CFI (cfiCond576) V1 load(1, XDATA, add(CFA_XSP16, literal(-7)))
          CFI (cfiCond576) R7 load(1, XDATA, add(CFA_XSP16, literal(-6)))
          CFI (cfiCond576) ?RET_LOW load(1, XDATA, add(CFA_XSP16, literal(-5)))
          CFI (cfiCond576) ?RET_HIGH load(1, XDATA, add(CFA_XSP16, literal(-4)))
          CFI (cfiCond576) ?BRET_EXT load(1, XDATA, add(CFA_XSP16, literal(-3)))
          CFI (cfiCond576) DPL0 load(1, XDATA, add(CFA_XSP16, literal(-2)))
          CFI (cfiCond576) DPH0 load(1, XDATA, add(CFA_XSP16, literal(-1)))
          CFI (cfiCond576) CFA_SP SP+0
          CFI (cfiCond576) CFA_XSP16 add(XSP16, 10)
          CFI Block cfiCond577 Using cfiCommon0
          CFI (cfiCond577) Function ZDSecMgrEntryInit
          CFI (cfiCond577) Conditional ??CrossCallReturnLabel_224
          CFI (cfiCond577) DPL0 Frame(CFA_SP, 4)
          CFI (cfiCond577) DPH0 Frame(CFA_SP, 5)
          CFI (cfiCond577) CFA_SP SP+-5
          CFI Block cfiCond578 Using cfiCommon0
          CFI (cfiCond578) Function ZDSecMgrEntryInit
          CFI (cfiCond578) Conditional ??CrossCallReturnLabel_225
          CFI (cfiCond578) DPL0 Frame(CFA_SP, 4)
          CFI (cfiCond578) DPH0 Frame(CFA_SP, 5)
          CFI (cfiCond578) CFA_SP SP+-5
          CFI Block cfiCond579 Using cfiCommon0
          CFI (cfiCond579) Function ZDSecMgrDeviceCtrlSetup
          CFI (cfiCond579) Conditional ??CrossCallReturnLabel_226
          CFI (cfiCond579) DPL0 Frame(CFA_SP, 4)
          CFI (cfiCond579) DPH0 Frame(CFA_SP, 5)
          CFI (cfiCond579) CFA_SP SP+-5
          CFI Block cfiCond580 Using cfiCommon0
          CFI (cfiCond580) Function ZDSecMgrDeviceCtrlUpdate
          CFI (cfiCond580) Conditional ??CrossCallReturnLabel_227
          CFI (cfiCond580) R6 load(1, XDATA, add(CFA_XSP16, literal(-9)))
          CFI (cfiCond580) VB load(1, XDATA, add(CFA_XSP16, literal(-8)))
          CFI (cfiCond580) V0 load(1, XDATA, add(CFA_XSP16, literal(-7)))
          CFI (cfiCond580) R7 load(1, XDATA, add(CFA_XSP16, literal(-6)))
          CFI (cfiCond580) ?RET_LOW load(1, XDATA, add(CFA_XSP16, literal(-5)))
          CFI (cfiCond580) ?RET_HIGH load(1, XDATA, add(CFA_XSP16, literal(-4)))
          CFI (cfiCond580) ?BRET_EXT load(1, XDATA, add(CFA_XSP16, literal(-3)))
          CFI (cfiCond580) DPL0 load(1, XDATA, add(CFA_XSP16, literal(-2)))
          CFI (cfiCond580) DPH0 load(1, XDATA, add(CFA_XSP16, literal(-1)))
          CFI (cfiCond580) CFA_SP SP+0
          CFI (cfiCond580) CFA_XSP16 add(XSP16, 13)
          CFI Block cfiCond581 Using cfiCommon0
          CFI (cfiCond581) Function ZDSecMgrEvent
          CFI (cfiCond581) Conditional ??CrossCallReturnLabel_228
          CFI (cfiCond581) R6 load(1, XDATA, add(CFA_XSP16, literal(-10)))
          CFI (cfiCond581) VB load(1, XDATA, add(CFA_XSP16, literal(-9)))
          CFI (cfiCond581) V0 load(1, XDATA, add(CFA_XSP16, literal(-8)))
          CFI (cfiCond581) V1 load(1, XDATA, add(CFA_XSP16, literal(-7)))
          CFI (cfiCond581) R7 load(1, XDATA, add(CFA_XSP16, literal(-6)))
          CFI (cfiCond581) ?RET_LOW load(1, XDATA, add(CFA_XSP16, literal(-5)))
          CFI (cfiCond581) ?RET_HIGH load(1, XDATA, add(CFA_XSP16, literal(-4)))
          CFI (cfiCond581) ?BRET_EXT load(1, XDATA, add(CFA_XSP16, literal(-3)))
          CFI (cfiCond581) DPL0 load(1, XDATA, add(CFA_XSP16, literal(-2)))
          CFI (cfiCond581) DPH0 load(1, XDATA, add(CFA_XSP16, literal(-1)))
          CFI (cfiCond581) CFA_SP SP+0
          CFI (cfiCond581) CFA_XSP16 add(XSP16, 33)
          CFI Block cfiCond582 Using cfiCommon0
          CFI (cfiCond582) Function ZDSecMgrRemoveDeviceInd
          CFI (cfiCond582) Conditional ??CrossCallReturnLabel_229
          CFI (cfiCond582) R6 load(1, XDATA, add(CFA_XSP16, literal(-9)))
          CFI (cfiCond582) VB load(1, XDATA, add(CFA_XSP16, literal(-8)))
          CFI (cfiCond582) V0 load(1, XDATA, add(CFA_XSP16, literal(-7)))
          CFI (cfiCond582) R7 load(1, XDATA, add(CFA_XSP16, literal(-6)))
          CFI (cfiCond582) ?RET_LOW load(1, XDATA, add(CFA_XSP16, literal(-5)))
          CFI (cfiCond582) ?RET_HIGH load(1, XDATA, add(CFA_XSP16, literal(-4)))
          CFI (cfiCond582) ?BRET_EXT load(1, XDATA, add(CFA_XSP16, literal(-3)))
          CFI (cfiCond582) DPL0 load(1, XDATA, add(CFA_XSP16, literal(-2)))
          CFI (cfiCond582) DPH0 load(1, XDATA, add(CFA_XSP16, literal(-1)))
          CFI (cfiCond582) CFA_SP SP+0
          CFI (cfiCond582) CFA_XSP16 add(XSP16, 19)
          CFI Block cfiCond583 Using cfiCommon0
          CFI (cfiCond583) Function APSME_KeyFwdToChild
          CFI (cfiCond583) Conditional ??CrossCallReturnLabel_230
          CFI (cfiCond583) R6 load(1, XDATA, add(CFA_XSP16, literal(-9)))
          CFI (cfiCond583) VB load(1, XDATA, add(CFA_XSP16, literal(-8)))
          CFI (cfiCond583) V0 load(1, XDATA, add(CFA_XSP16, literal(-7)))
          CFI (cfiCond583) R7 load(1, XDATA, add(CFA_XSP16, literal(-6)))
          CFI (cfiCond583) ?RET_LOW load(1, XDATA, add(CFA_XSP16, literal(-5)))
          CFI (cfiCond583) ?RET_HIGH load(1, XDATA, add(CFA_XSP16, literal(-4)))
          CFI (cfiCond583) ?BRET_EXT load(1, XDATA, add(CFA_XSP16, literal(-3)))
          CFI (cfiCond583) DPL0 load(1, XDATA, add(CFA_XSP16, literal(-2)))
          CFI (cfiCond583) DPH0 load(1, XDATA, add(CFA_XSP16, literal(-1)))
          CFI (cfiCond583) CFA_SP SP+0
          CFI (cfiCond583) CFA_XSP16 add(XSP16, 9)
          CFI Block cfiCond584 Using cfiCommon0
          CFI (cfiCond584) Function ZDSecMgrCtrlTerm
          CFI (cfiCond584) Conditional ??CrossCallReturnLabel_231
          CFI (cfiCond584) DPL0 Frame(CFA_SP, 4)
          CFI (cfiCond584) DPH0 Frame(CFA_SP, 5)
          CFI (cfiCond584) CFA_SP SP+-5
          CFI (cfiCond584) CFA_XSP16 add(XSP16, 2)
          CFI Block cfiCond585 Using cfiCommon0
          CFI (cfiCond585) Function ZDSecMgrCtrlReset
          CFI (cfiCond585) Conditional ??CrossCallReturnLabel_232
          CFI (cfiCond585) R6 load(1, XDATA, add(CFA_XSP16, literal(-10)))
          CFI (cfiCond585) VB load(1, XDATA, add(CFA_XSP16, literal(-9)))
          CFI (cfiCond585) V0 load(1, XDATA, add(CFA_XSP16, literal(-8)))
          CFI (cfiCond585) V1 load(1, XDATA, add(CFA_XSP16, literal(-7)))
          CFI (cfiCond585) R7 load(1, XDATA, add(CFA_XSP16, literal(-6)))
          CFI (cfiCond585) ?RET_LOW load(1, XDATA, add(CFA_XSP16, literal(-5)))
          CFI (cfiCond585) ?RET_HIGH load(1, XDATA, add(CFA_XSP16, literal(-4)))
          CFI (cfiCond585) ?BRET_EXT load(1, XDATA, add(CFA_XSP16, literal(-3)))
          CFI (cfiCond585) DPL0 load(1, XDATA, add(CFA_XSP16, literal(-2)))
          CFI (cfiCond585) DPH0 load(1, XDATA, add(CFA_XSP16, literal(-1)))
          CFI (cfiCond585) CFA_SP SP+0
          CFI (cfiCond585) CFA_XSP16 add(XSP16, 12)
          CFI Block cfiCond586 Using cfiCommon0
          CFI (cfiCond586) Function ZDSecMgrDeviceEntryAdd
          CFI (cfiCond586) Conditional ??CrossCallReturnLabel_233
          CFI (cfiCond586) R6 load(1, XDATA, add(CFA_XSP16, literal(-11)))
          CFI (cfiCond586) VB load(1, XDATA, add(CFA_XSP16, literal(-10)))
          CFI (cfiCond586) V0 load(1, XDATA, add(CFA_XSP16, literal(-9)))
          CFI (cfiCond586) V1 load(1, XDATA, add(CFA_XSP16, literal(-8)))
          CFI (cfiCond586) V2 load(1, XDATA, add(CFA_XSP16, literal(-7)))
          CFI (cfiCond586) R7 load(1, XDATA, add(CFA_XSP16, literal(-6)))
          CFI (cfiCond586) ?RET_LOW load(1, XDATA, add(CFA_XSP16, literal(-5)))
          CFI (cfiCond586) ?RET_HIGH load(1, XDATA, add(CFA_XSP16, literal(-4)))
          CFI (cfiCond586) ?BRET_EXT load(1, XDATA, add(CFA_XSP16, literal(-3)))
          CFI (cfiCond586) DPL0 load(1, XDATA, add(CFA_XSP16, literal(-2)))
          CFI (cfiCond586) DPH0 load(1, XDATA, add(CFA_XSP16, literal(-1)))
          CFI (cfiCond586) CFA_SP SP+0
          CFI (cfiCond586) CFA_XSP16 add(XSP16, 13)
          CFI Block cfiCond587 Using cfiCommon0
          CFI (cfiCond587) Function ZDSecMgrDeviceCtrlUpdate
          CFI (cfiCond587) Conditional ??CrossCallReturnLabel_234
          CFI (cfiCond587) R6 load(1, XDATA, add(CFA_XSP16, literal(-9)))
          CFI (cfiCond587) VB load(1, XDATA, add(CFA_XSP16, literal(-8)))
          CFI (cfiCond587) V0 load(1, XDATA, add(CFA_XSP16, literal(-7)))
          CFI (cfiCond587) R7 load(1, XDATA, add(CFA_XSP16, literal(-6)))
          CFI (cfiCond587) ?RET_LOW load(1, XDATA, add(CFA_XSP16, literal(-5)))
          CFI (cfiCond587) ?RET_HIGH load(1, XDATA, add(CFA_XSP16, literal(-4)))
          CFI (cfiCond587) ?BRET_EXT load(1, XDATA, add(CFA_XSP16, literal(-3)))
          CFI (cfiCond587) DPL0 load(1, XDATA, add(CFA_XSP16, literal(-2)))
          CFI (cfiCond587) DPH0 load(1, XDATA, add(CFA_XSP16, literal(-1)))
          CFI (cfiCond587) CFA_SP SP+0
          CFI (cfiCond587) CFA_XSP16 add(XSP16, 13)
          CFI Block cfiCond588 Using cfiCommon0
          CFI (cfiCond588) Function ZDSecMgrAddLinkKey
          CFI (cfiCond588) Conditional ??CrossCallReturnLabel_235
          CFI (cfiCond588) R6 load(1, XDATA, add(CFA_XSP16, literal(-12)))
          CFI (cfiCond588) VB load(1, XDATA, add(CFA_XSP16, literal(-11)))
          CFI (cfiCond588) V0 load(1, XDATA, add(CFA_XSP16, literal(-10)))
          CFI (cfiCond588) V1 load(1, XDATA, add(CFA_XSP16, literal(-9)))
          CFI (cfiCond588) V2 load(1, XDATA, add(CFA_XSP16, literal(-8)))
          CFI (cfiCond588) V3 load(1, XDATA, add(CFA_XSP16, literal(-7)))
          CFI (cfiCond588) R7 load(1, XDATA, add(CFA_XSP16, literal(-6)))
          CFI (cfiCond588) ?RET_LOW load(1, XDATA, add(CFA_XSP16, literal(-5)))
          CFI (cfiCond588) ?RET_HIGH load(1, XDATA, add(CFA_XSP16, literal(-4)))
          CFI (cfiCond588) ?BRET_EXT load(1, XDATA, add(CFA_XSP16, literal(-3)))
          CFI (cfiCond588) DPL0 load(1, XDATA, add(CFA_XSP16, literal(-2)))
          CFI (cfiCond588) DPH0 load(1, XDATA, add(CFA_XSP16, literal(-1)))
          CFI (cfiCond588) CFA_SP SP+0
          CFI (cfiCond588) CFA_XSP16 add(XSP16, 16)
          CFI Block cfiPicker589 Using cfiCommon1
          CFI (cfiPicker589) NoFunction
          CFI (cfiPicker589) Picker
        LCALL   ?Subroutine63 & 0xFFFF
??CrossCallReturnLabel_238:
        RET
          CFI EndBlock cfiCond575
          CFI EndBlock cfiCond576
          CFI EndBlock cfiCond577
          CFI EndBlock cfiCond578
          CFI EndBlock cfiCond579
          CFI EndBlock cfiCond580
          CFI EndBlock cfiCond581
          CFI EndBlock cfiCond582
          CFI EndBlock cfiCond583
          CFI EndBlock cfiCond584
          CFI EndBlock cfiCond585
          CFI EndBlock cfiCond586
          CFI EndBlock cfiCond587
          CFI EndBlock cfiCond588
          CFI EndBlock cfiPicker589
// 2988 
// 2989 /******************************************************************************
// 2990  * @fn          ZDSecMgrRequestKeyInd
// 2991  *
// 2992  * @brief       Process the ZDO_RequestKeyInd_t message.
// 2993  *
// 2994  * @param       ind - [in] ZDO_RequestKeyInd_t indication
// 2995  *
// 2996  * @return      none
// 2997  */

        RSEG BANKED_CODE:CODE:NOROOT(0)
// 2998 void ZDSecMgrRequestKeyInd( ZDO_RequestKeyInd_t* ind )
ZDSecMgrRequestKeyInd:
          CFI Block cfiBlock590 Using cfiCommon0
          CFI Function ZDSecMgrRequestKeyInd
        CODE
// 2999 {
        FUNCALL ZDSecMgrRequestKeyInd, ZDSecMgrAppKeyReq
        LOCFRAME ISTACK, 2, STACK
        LOCFRAME PSTACK, 0, STACK
        LOCFRAME XSTACK, 0, STACK
        LOCFRAME IOVERLAY, 0, STATIC
        LOCFRAME DOVERLAY, 0, STATIC
        ARGFRAME ISTACK, 2, STACK
        ARGFRAME PSTACK, 0, STACK
        ARGFRAME XSTACK, 0, STACK
        ARGFRAME IOVERLAY, 0, STATIC
        ARGFRAME DOVERLAY, 0, STATIC
        PUSH    DPL
          CFI DPL0 Frame(CFA_SP, 4)
          CFI CFA_SP SP+-4
        PUSH    DPH
          CFI DPH0 Frame(CFA_SP, 5)
          CFI CFA_SP SP+-5
        ; Saved register size: 2
        ; Auto size: 0
// 3000   if ( ind->keyType == KEY_TYPE_NWK )
        MOV     DPL,R2
        MOV     DPH,R3
        INC     DPTR
        INC     DPTR
        INC     DPTR
        INC     DPTR
        MOVX    A,@DPTR
        MOV     R0,A
        MOV     A,#0x1
        XRL     A,R0
        JZ      ??ZDSecMgrRequestKeyInd_0
// 3001   {
// 3002   }
// 3003   else if ( ind->keyType == KEY_TYPE_APP_MASTER )
        MOV     A,#0x2
        XRL     A,R0
        JNZ     ??ZDSecMgrRequestKeyInd_0
// 3004   {
// 3005     ZDSecMgrAppKeyReq( ind );
        ; Setup parameters for call to function ZDSecMgrAppKeyReq
        LCALL   ??ZDSecMgrAppKeyReq?relay
// 3006   }
// 3007   else if ( ind->keyType == KEY_TYPE_TC_LINK )
// 3008   {
// 3009   }
// 3010   //else ignore
// 3011 }
??ZDSecMgrRequestKeyInd_0:
        LJMP    ??Subroutine89_0 & 0xFFFF
          CFI EndBlock cfiBlock590
// 3012 
// 3013 /******************************************************************************
// 3014  * @fn          ZDSecMgrSwitchKeyInd
// 3015  *
// 3016  * @brief       Process the ZDO_SwitchKeyInd_t message.
// 3017  *
// 3018  * @param       ind - [in] ZDO_SwitchKeyInd_t indication
// 3019  *
// 3020  * @return      none
// 3021  */

        RSEG BANKED_CODE:CODE:NOROOT(0)
// 3022 void ZDSecMgrSwitchKeyInd( ZDO_SwitchKeyInd_t* ind )
ZDSecMgrSwitchKeyInd:
          CFI Block cfiBlock591 Using cfiCommon0
          CFI Function ZDSecMgrSwitchKeyInd
        CODE
// 3023 {
        FUNCALL ZDSecMgrSwitchKeyInd, SSP_SwitchNwkKey
        LOCFRAME ISTACK, 2, STACK
        LOCFRAME PSTACK, 0, STACK
        LOCFRAME XSTACK, 0, STACK
        LOCFRAME IOVERLAY, 0, STATIC
        LOCFRAME DOVERLAY, 0, STATIC
        ARGFRAME ISTACK, 2, STACK
        ARGFRAME PSTACK, 0, STACK
        ARGFRAME XSTACK, 0, STACK
        ARGFRAME IOVERLAY, 0, STATIC
        ARGFRAME DOVERLAY, 0, STATIC
        FUNCALL ZDSecMgrSwitchKeyInd, ZDApp_NVUpdate
        LOCFRAME ISTACK, 2, STACK
        LOCFRAME PSTACK, 0, STACK
        LOCFRAME XSTACK, 0, STACK
        LOCFRAME IOVERLAY, 0, STATIC
        LOCFRAME DOVERLAY, 0, STATIC
        ARGFRAME ISTACK, 2, STACK
        ARGFRAME PSTACK, 0, STACK
        ARGFRAME XSTACK, 0, STACK
        ARGFRAME IOVERLAY, 0, STATIC
        ARGFRAME DOVERLAY, 0, STATIC
        PUSH    DPL
          CFI DPL0 Frame(CFA_SP, 4)
          CFI CFA_SP SP+-4
        PUSH    DPH
          CFI DPH0 Frame(CFA_SP, 5)
          CFI CFA_SP SP+-5
        ; Saved register size: 2
        ; Auto size: 0
// 3024   SSP_SwitchNwkKey( ind->keySeqNum );
        ; Setup parameters for call to function SSP_SwitchNwkKey
        MOV     DPL,R2
        MOV     DPH,R3
        INC     DPTR
        INC     DPTR
        INC     DPTR
        INC     DPTR
        MOVX    A,@DPTR
        MOV     R1,A
        LCALL   ??SSP_SwitchNwkKey?relay
// 3025 
// 3026   // Save if nv
// 3027   ZDApp_NVUpdate();
        ; Setup parameters for call to function ZDApp_NVUpdate
        LCALL   ??ZDApp_NVUpdate?relay
// 3028 }
        LJMP    ??Subroutine89_0 & 0xFFFF
          CFI EndBlock cfiBlock591
// 3029 
// 3030 /******************************************************************************
// 3031  * @fn          ZDSecMgrAuthenticateInd
// 3032  *
// 3033  * @brief       Process the ZDO_AuthenticateInd_t message.
// 3034  *
// 3035  * @param       ind - [in] ZDO_AuthenticateInd_t indication
// 3036  *
// 3037  * @return      none
// 3038  */

        RSEG BANKED_CODE:CODE:NOROOT(0)
// 3039 void ZDSecMgrAuthenticateInd( ZDO_AuthenticateInd_t* ind )
ZDSecMgrAuthenticateInd:
          CFI Block cfiBlock592 Using cfiCommon0
          CFI Function ZDSecMgrAuthenticateInd
        CODE
// 3040 {
        FUNCALL ZDSecMgrAuthenticateInd, AddrMgrExtAddrSet
        LOCFRAME ISTACK, 0, STACK
        LOCFRAME PSTACK, 0, STACK
        LOCFRAME XSTACK, 32, STACK
        LOCFRAME IOVERLAY, 0, STATIC
        LOCFRAME DOVERLAY, 0, STATIC
        ARGFRAME ISTACK, 0, STACK
        ARGFRAME PSTACK, 0, STACK
        ARGFRAME XSTACK, 32, STACK
        ARGFRAME IOVERLAY, 0, STATIC
        ARGFRAME DOVERLAY, 0, STATIC
        FUNCALL ZDSecMgrAuthenticateInd, AddrMgrEntryUpdate
        LOCFRAME ISTACK, 0, STACK
        LOCFRAME PSTACK, 0, STACK
        LOCFRAME XSTACK, 32, STACK
        LOCFRAME IOVERLAY, 0, STATIC
        LOCFRAME DOVERLAY, 0, STATIC
        ARGFRAME ISTACK, 0, STACK
        ARGFRAME PSTACK, 0, STACK
        ARGFRAME XSTACK, 32, STACK
        ARGFRAME IOVERLAY, 0, STATIC
        ARGFRAME DOVERLAY, 0, STATIC
        FUNCALL ZDSecMgrAuthenticateInd, APSME_AuthenticateReq
        LOCFRAME ISTACK, 0, STACK
        LOCFRAME PSTACK, 0, STACK
        LOCFRAME XSTACK, 32, STACK
        LOCFRAME IOVERLAY, 0, STATIC
        LOCFRAME DOVERLAY, 0, STATIC
        ARGFRAME ISTACK, 0, STACK
        ARGFRAME PSTACK, 0, STACK
        ARGFRAME XSTACK, 32, STACK
        ARGFRAME IOVERLAY, 0, STATIC
        ARGFRAME DOVERLAY, 0, STATIC
        MOV     A,#-0xc
        LCALL   ?BANKED_ENTER_XDATA
          CFI DPH0 load(1, XDATA, add(CFA_XSP16, literal(-1)))
          CFI DPL0 load(1, XDATA, add(CFA_XSP16, literal(-2)))
          CFI ?BRET_EXT load(1, XDATA, add(CFA_XSP16, literal(-3)))
          CFI ?RET_HIGH load(1, XDATA, add(CFA_XSP16, literal(-4)))
          CFI ?RET_LOW load(1, XDATA, add(CFA_XSP16, literal(-5)))
          CFI R7 load(1, XDATA, add(CFA_XSP16, literal(-6)))
          CFI V3 load(1, XDATA, add(CFA_XSP16, literal(-7)))
          CFI V2 load(1, XDATA, add(CFA_XSP16, literal(-8)))
          CFI V1 load(1, XDATA, add(CFA_XSP16, literal(-9)))
          CFI V0 load(1, XDATA, add(CFA_XSP16, literal(-10)))
          CFI VB load(1, XDATA, add(CFA_XSP16, literal(-11)))
          CFI R6 load(1, XDATA, add(CFA_XSP16, literal(-12)))
          CFI CFA_SP SP+0
          CFI CFA_XSP16 add(XSP16, 12)
        ; Saved register size: 12
        ; Auto size: 20
        MOV     A,#-0x14
        LCALL   ?ALLOC_XSTACK8
          CFI CFA_XSP16 add(XSP16, 32)
        MOV     A,R2
        MOV     R6,A
        MOV     A,R3
        MOV     R7,A
// 3041   APSME_AuthenticateReq_t req;
// 3042   AddrMgrEntry_t          entry;
// 3043 
// 3044 
// 3045   // update the address manager
// 3046   //---------------------------------------------------------------------------
// 3047   // note:
// 3048   // required for EA processing, but ultimately EA logic could also use the
// 3049   // neighbor table to look up addresses -- also(IF using EA) the neighbor
// 3050   // table is supposed to have authentication states for neighbors
// 3051   //---------------------------------------------------------------------------
// 3052   entry.user    = ADDRMGR_USER_SECURITY;
        MOV     A,#0x7
        LCALL   ?XSTACK_DISP0_8
        MOV     A,#0x2
        MOVX    @DPTR,A
// 3053   entry.nwkAddr = ind->aps.initNwkAddr;
        MOV     A,R6
        ADD     A,#0x2
        MOV     ?V0 + 2,A
        MOV     A,R7
        ADDC    A,#0x0
        MOV     ?V0 + 3,A
        MOV     DPL,?V0 + 2
        MOV     DPH,A
        LCALL   ??Subroutine95_0 & 0xFFFF
??CrossCallReturnLabel_209:
        MOV     A,#0x8
        LCALL   ?XSTACK_DISP0_8
        LCALL   ??Subroutine87_0 & 0xFFFF
// 3054   AddrMgrExtAddrSet( entry.extAddr, ind->aps.initExtAddr );
??CrossCallReturnLabel_163:
        LCALL   ?Subroutine61 & 0xFFFF
??CrossCallReturnLabel_78:
        ; Setup parameters for call to function AddrMgrExtAddrSet
        MOV     R4,?V0 + 0
        MOV     R5,A
        MOV     A,#0xa
        LCALL   ?XSTACK_DISP0_8
        MOV     R2,DPL
        MOV     R3,DPH
        LCALL   ??AddrMgrExtAddrSet?relay
// 3055 
// 3056   if ( AddrMgrEntryUpdate( &entry ) == TRUE )
        ; Setup parameters for call to function AddrMgrEntryUpdate
        MOV     A,#0x7
        LCALL   ?XSTACK_DISP0_8
        MOV     R2,DPL
        MOV     R3,DPH
        LCALL   ??AddrMgrEntryUpdate?relay
        MOV     A,R1
        XRL     A,#0x1
        JNZ     ??ZDSecMgrAuthenticateInd_0
// 3057   {
// 3058     // set request fields
// 3059     req.nwkAddr   = ind->aps.initNwkAddr;
        MOV     DPL,?V0 + 2
        MOV     DPH,?V0 + 3
        LCALL   ?Subroutine34 & 0xFFFF
// 3060     req.extAddr   = ind->aps.initExtAddr;
??CrossCallReturnLabel_170:
        MOV     A,#0x2
        LCALL   ?XSTACK_DISP0_8
        LCALL   ?Subroutine32 & 0xFFFF
// 3061     req.action    = APSME_EA_ACCEPT;
??CrossCallReturnLabel_33:
        MOV     A,#0x6
        LCALL   ?XSTACK_DISP0_8
        MOV     A,#0x1
        MOVX    @DPTR,A
// 3062     req.challenge = ind->aps.challenge;
        MOV     A,R6
        ADD     A,#0xc
        MOV     R0,A
        MOV     A,R7
        ADDC    A,#0x0
        MOV     R1,A
        MOV     A,#0x4
        LCALL   ?XSTACK_DISP0_8
        LCALL   ?Subroutine14 & 0xFFFF
// 3063 
// 3064     // start EA processing
// 3065     APSME_AuthenticateReq( &req );
// 3066   }
??CrossCallReturnLabel_173:
        LCALL   ??APSME_AuthenticateReq?relay
// 3067 }
??ZDSecMgrAuthenticateInd_0:
        MOV     A,#0x14
        LJMP    ??Subroutine97_0 & 0xFFFF
          CFI EndBlock cfiBlock592

        RSEG BANKED_CODE:CODE:NOROOT(0)
?Subroutine61:
          CFI Block cfiCond593 Using cfiCommon0
          CFI Function ZDSecMgrEstablishKeyInd
          CFI Conditional ??CrossCallReturnLabel_77
          CFI R6 load(1, XDATA, add(CFA_XSP16, literal(-12)))
          CFI VB load(1, XDATA, add(CFA_XSP16, literal(-11)))
          CFI V0 load(1, XDATA, add(CFA_XSP16, literal(-10)))
          CFI V1 load(1, XDATA, add(CFA_XSP16, literal(-9)))
          CFI V2 load(1, XDATA, add(CFA_XSP16, literal(-8)))
          CFI V3 load(1, XDATA, add(CFA_XSP16, literal(-7)))
          CFI R7 load(1, XDATA, add(CFA_XSP16, literal(-6)))
          CFI ?RET_LOW load(1, XDATA, add(CFA_XSP16, literal(-5)))
          CFI ?RET_HIGH load(1, XDATA, add(CFA_XSP16, literal(-4)))
          CFI ?BRET_EXT load(1, XDATA, add(CFA_XSP16, literal(-3)))
          CFI DPL0 load(1, XDATA, add(CFA_XSP16, literal(-2)))
          CFI DPH0 load(1, XDATA, add(CFA_XSP16, literal(-1)))
          CFI CFA_SP SP+0
          CFI CFA_XSP16 add(XSP16, 29)
          CFI Block cfiCond594 Using cfiCommon0
          CFI (cfiCond594) Function ZDSecMgrAuthenticateInd
          CFI (cfiCond594) Conditional ??CrossCallReturnLabel_78
          CFI (cfiCond594) R6 load(1, XDATA, add(CFA_XSP16, literal(-12)))
          CFI (cfiCond594) VB load(1, XDATA, add(CFA_XSP16, literal(-11)))
          CFI (cfiCond594) V0 load(1, XDATA, add(CFA_XSP16, literal(-10)))
          CFI (cfiCond594) V1 load(1, XDATA, add(CFA_XSP16, literal(-9)))
          CFI (cfiCond594) V2 load(1, XDATA, add(CFA_XSP16, literal(-8)))
          CFI (cfiCond594) V3 load(1, XDATA, add(CFA_XSP16, literal(-7)))
          CFI (cfiCond594) R7 load(1, XDATA, add(CFA_XSP16, literal(-6)))
          CFI (cfiCond594) ?RET_LOW load(1, XDATA, add(CFA_XSP16, literal(-5)))
          CFI (cfiCond594) ?RET_HIGH load(1, XDATA, add(CFA_XSP16, literal(-4)))
          CFI (cfiCond594) ?BRET_EXT load(1, XDATA, add(CFA_XSP16, literal(-3)))
          CFI (cfiCond594) DPL0 load(1, XDATA, add(CFA_XSP16, literal(-2)))
          CFI (cfiCond594) DPH0 load(1, XDATA, add(CFA_XSP16, literal(-1)))
          CFI (cfiCond594) CFA_SP SP+0
          CFI (cfiCond594) CFA_XSP16 add(XSP16, 32)
          CFI Block cfiPicker595 Using cfiCommon1
          CFI (cfiPicker595) NoFunction
          CFI (cfiPicker595) Picker
        MOV     A,R6
        ADD     A,#0x4
        MOV     ?V0 + 0,A
        MOV     A,R7
        ADDC    A,#0x0
        MOV     ?V0 + 1,A
        RET
          CFI EndBlock cfiCond593
          CFI EndBlock cfiCond594
          CFI EndBlock cfiPicker595
// 3068 
// 3069 /******************************************************************************
// 3070  * @fn          ZDSecMgrAuthenticateCfm
// 3071  *
// 3072  * @brief       Process the ZDO_AuthenticateCfm_t message.
// 3073  *
// 3074  * @param       cfm - [in] ZDO_AuthenticateCfm_t confirmation
// 3075  *
// 3076  * @return      none
// 3077  */

        RSEG BANKED_CODE:CODE:NOROOT(0)
// 3078 void ZDSecMgrAuthenticateCfm( ZDO_AuthenticateCfm_t* cfm )
ZDSecMgrAuthenticateCfm:
          CFI Block cfiBlock596 Using cfiCommon0
          CFI Function ZDSecMgrAuthenticateCfm
        CODE
// 3079 {
        FUNCALL ZDSecMgrAuthenticateCfm, osal_set_event
        LOCFRAME ISTACK, 2, STACK
        LOCFRAME PSTACK, 0, STACK
        LOCFRAME XSTACK, 0, STACK
        LOCFRAME IOVERLAY, 0, STATIC
        LOCFRAME DOVERLAY, 0, STATIC
        ARGFRAME ISTACK, 2, STACK
        ARGFRAME PSTACK, 0, STACK
        ARGFRAME XSTACK, 0, STACK
        ARGFRAME IOVERLAY, 0, STATIC
        ARGFRAME DOVERLAY, 0, STATIC
        PUSH    DPL
          CFI DPL0 Frame(CFA_SP, 4)
          CFI CFA_SP SP+-4
        PUSH    DPH
          CFI DPH0 Frame(CFA_SP, 5)
          CFI CFA_SP SP+-5
        ; Saved register size: 2
        ; Auto size: 0
// 3080   if ( cfm->aps.status == ZSuccess )
        MOV     A,R2
        ADD     A,#0xb
        LCALL   ?Subroutine58 & 0xFFFF
??CrossCallReturnLabel_190:
        JNZ     ??ZDSecMgrAuthenticateCfm_0
// 3081   {
// 3082     if ( ( cfm->aps.initiator == TRUE ) && ( devState == DEV_END_DEVICE_UNAUTH ) )
        MOV     DPL,R2
        MOV     DPH,R3
        INC     DPTR
        INC     DPTR
        MOVX    A,@DPTR
        XRL     A,#0x1
        JNZ     ??ZDSecMgrAuthenticateCfm_0
        MOV     DPTR,#devState
        MOVX    A,@DPTR
        XRL     A,#0x5
        JNZ     ??ZDSecMgrAuthenticateCfm_0
// 3083     {
// 3084       // inform ZDO that device has been authenticated
// 3085       osal_set_event ( ZDAppTaskID, ZDO_DEVICE_AUTH );
        ; Setup parameters for call to function osal_set_event
        MOV     R2,#-0x80
        MOV     R3,#0x0
        MOV     DPTR,#ZDAppTaskID
        MOVX    A,@DPTR
        MOV     R1,A
        LCALL   ??osal_set_event?relay
// 3086     }
// 3087   }
// 3088 }
??ZDSecMgrAuthenticateCfm_0:
        LJMP    ??Subroutine89_0 & 0xFFFF
          CFI EndBlock cfiBlock596
// 3089 
// 3090 #if ( ZG_BUILD_COORDINATOR_TYPE )
// 3091 /******************************************************************************
// 3092  * @fn          ZDSecMgrUpdateNwkKey
// 3093  *
// 3094  * @brief       Load a new NWK key and trigger a network wide update.
// 3095  *
// 3096  * @param       key       - [in] new NWK key
// 3097  * @param       keySeqNum - [in] new NWK key sequence number
// 3098  *
// 3099  * @return      ZStatus_t
// 3100  */
// 3101 ZStatus_t ZDSecMgrUpdateNwkKey( uint8* key, uint8 keySeqNum, uint16 dstAddr )
// 3102 {
// 3103   ZStatus_t               status;
// 3104   APSME_TransportKeyReq_t req;
// 3105 
// 3106   // initialize common elements of local variables
// 3107   if ( ZG_CHECK_SECURITY_MODE == ZG_SECURITY_PRO_HIGH )
// 3108     req.keyType   = KEY_TYPE_NWK_HIGH;
// 3109   else
// 3110     req.keyType   = KEY_TYPE_NWK;
// 3111 
// 3112   req.dstAddr   = dstAddr;
// 3113   req.keySeqNum = keySeqNum;
// 3114   req.key       = key;
// 3115   req.extAddr   = NULL;
// 3116   req.nwkSecure = TRUE;
// 3117   req.apsSecure = TRUE;
// 3118   req.tunnel    = NULL;
// 3119 
// 3120   if ( ZG_CHECK_SECURITY_MODE == ZG_SECURITY_PRO_HIGH )
// 3121   {
// 3122     ZDSecMgrEntry_t*        entry;
// 3123     uint16                  index;
// 3124     AddrMgrEntry_t          addrEntry;
// 3125 
// 3126     addrEntry.user = ADDRMGR_USER_SECURITY;
// 3127 
// 3128     status = ZFailure;
// 3129 
// 3130     // verify data is available
// 3131     if ( ZDSecMgrEntries != NULL )
// 3132     {
// 3133       // find available entry
// 3134       for ( index = 0; index < ZDSECMGR_ENTRY_MAX ; index++ )
// 3135       {
// 3136         if ( ZDSecMgrEntries[index].ami != INVALID_NODE_ADDR )
// 3137         {
// 3138           // return successful result
// 3139           entry = &ZDSecMgrEntries[index];
// 3140 
// 3141           // get NWK address
// 3142           addrEntry.index = entry->ami;
// 3143           if ( AddrMgrEntryGet( &addrEntry ) == TRUE )
// 3144           {
// 3145             req.dstAddr = addrEntry.nwkAddr;
// 3146             req.extAddr = addrEntry.extAddr;
// 3147             status = APSME_TransportKeyReq( &req );
// 3148           }
// 3149         }
// 3150       }
// 3151     }
// 3152   }
// 3153   else // ( ZG_CHECK_SECURITY_MODE == ZG_SECURITY_RESIDENTIAL )
// 3154   {
// 3155     status = APSME_TransportKeyReq( &req );
// 3156   }
// 3157 
// 3158   SSP_UpdateNwkKey( key, keySeqNum );
// 3159 
// 3160   // Save if nv
// 3161   ZDApp_NVUpdate();
// 3162 
// 3163   return status;
// 3164 }
// 3165 #endif // ( ZG_BUILD_COORDINATOR_TYPE )
// 3166 
// 3167 #if ( ZG_BUILD_COORDINATOR_TYPE )
// 3168 /******************************************************************************
// 3169  * @fn          ZDSecMgrSwitchNwkKey
// 3170  *
// 3171  * @brief       Causes the NWK key to switch via a network wide command.
// 3172  *
// 3173  * @param       keySeqNum - [in] new NWK key sequence number
// 3174  *
// 3175  * @return      ZStatus_t
// 3176  */
// 3177 ZStatus_t ZDSecMgrSwitchNwkKey( uint8 keySeqNum, uint16 dstAddr )
// 3178 {
// 3179   ZStatus_t            status;
// 3180   APSME_SwitchKeyReq_t req;
// 3181 
// 3182   // initialize common elements of local variables
// 3183   req.dstAddr = dstAddr;
// 3184   req.keySeqNum = keySeqNum;
// 3185 
// 3186   if ( ZG_CHECK_SECURITY_MODE == ZG_SECURITY_PRO_HIGH )
// 3187   {
// 3188     ZDSecMgrEntry_t*     entry;
// 3189     uint16               index;
// 3190     AddrMgrEntry_t       addrEntry;
// 3191 
// 3192     addrEntry.user = ADDRMGR_USER_SECURITY;
// 3193 
// 3194     status = ZFailure;
// 3195 
// 3196     // verify data is available
// 3197     if ( ZDSecMgrEntries != NULL )
// 3198     {
// 3199       // find available entry
// 3200       for ( index = 0; index < ZDSECMGR_ENTRY_MAX ; index++ )
// 3201       {
// 3202         if ( ZDSecMgrEntries[index].ami != INVALID_NODE_ADDR )
// 3203         {
// 3204           // return successful result
// 3205           entry = &ZDSecMgrEntries[index];
// 3206 
// 3207           // get NWK address
// 3208           addrEntry.index = entry->ami;
// 3209 
// 3210           if ( AddrMgrEntryGet( &addrEntry ) == TRUE )
// 3211           {
// 3212             req.dstAddr = addrEntry.nwkAddr;
// 3213             status = APSME_SwitchKeyReq( &req );
// 3214           }
// 3215         }
// 3216       }
// 3217     }
// 3218   }
// 3219   else // ( ZG_CHECK_SECURITY_MODE == ZG_SECURITY_RESIDENTIAL )
// 3220   {
// 3221     status = APSME_SwitchKeyReq( &req );
// 3222   }
// 3223 
// 3224   SSP_SwitchNwkKey( keySeqNum );
// 3225 
// 3226   // Save if nv
// 3227   ZDApp_NVUpdate();
// 3228 
// 3229   return status;
// 3230 }
// 3231 #endif // ( ZG_BUILD_COORDINATOR_TYPE )
// 3232 
// 3233 #if ( ZG_BUILD_JOINING_TYPE )
// 3234 /******************************************************************************
// 3235  * @fn          ZDSecMgrRequestAppKey
// 3236  *
// 3237  * @brief       Request an application key with partner.
// 3238  *
// 3239  * @param       partNwkAddr - [in] partner network address
// 3240  *
// 3241  * @return      ZStatus_t
// 3242  */

        RSEG BANKED_CODE:CODE:NOROOT(0)
// 3243 ZStatus_t ZDSecMgrRequestAppKey( uint16 partNwkAddr )
ZDSecMgrRequestAppKey:
          CFI Block cfiBlock597 Using cfiCommon0
          CFI Function ZDSecMgrRequestAppKey
        CODE
// 3244 {
        FUNCALL ZDSecMgrRequestAppKey, AddrMgrExtAddrLookup
        LOCFRAME ISTACK, 2, STACK
        LOCFRAME PSTACK, 0, STACK
        LOCFRAME XSTACK, 12, STACK
        LOCFRAME IOVERLAY, 0, STATIC
        LOCFRAME DOVERLAY, 0, STATIC
        ARGFRAME ISTACK, 2, STACK
        ARGFRAME PSTACK, 0, STACK
        ARGFRAME XSTACK, 12, STACK
        ARGFRAME IOVERLAY, 0, STATIC
        ARGFRAME DOVERLAY, 0, STATIC
        FUNCALL ZDSecMgrRequestAppKey, APSME_RequestKeyReq
        LOCFRAME ISTACK, 2, STACK
        LOCFRAME PSTACK, 0, STACK
        LOCFRAME XSTACK, 12, STACK
        LOCFRAME IOVERLAY, 0, STATIC
        LOCFRAME DOVERLAY, 0, STATIC
        ARGFRAME ISTACK, 2, STACK
        ARGFRAME PSTACK, 0, STACK
        ARGFRAME XSTACK, 12, STACK
        ARGFRAME IOVERLAY, 0, STATIC
        ARGFRAME DOVERLAY, 0, STATIC
        PUSH    DPL
          CFI DPL0 Frame(CFA_SP, 4)
          CFI CFA_SP SP+-4
        PUSH    DPH
          CFI DPH0 Frame(CFA_SP, 5)
          CFI CFA_SP SP+-5
        ; Saved register size: 2
        ; Auto size: 12
        MOV     A,#-0xc
        LCALL   ?ALLOC_XSTACK8
          CFI CFA_XSP16 add(XSP16, 12)
// 3245   ZStatus_t             status;
// 3246   APSME_RequestKeyReq_t req;
// 3247   uint8                 partExtAddr[Z_EXTADDR_LEN];
// 3248 
// 3249 
// 3250   if ( AddrMgrExtAddrLookup( partNwkAddr, partExtAddr ) )
        ; Setup parameters for call to function AddrMgrExtAddrLookup
        MOV     A,#0x4
        LCALL   ?XSTACK_DISP0_8
        MOV     R4,DPL
        MOV     R5,DPH
        LCALL   ??AddrMgrExtAddrLookup?relay
        MOV     A,R1
        JZ      ??ZDSecMgrRequestAppKey_0
// 3251   {
// 3252     req.dstAddr = 0;
        MOV     DPL,?XSP + 0
        MOV     DPH,?XSP + 1
        CLR     A
        MOVX    @DPTR,A
// 3253     req.keyType = KEY_TYPE_APP_MASTER;
        INC     A
        LCALL   ?XSTACK_DISP0_8
        MOV     A,#0x2
        MOVX    @DPTR,A
// 3254     req.partExtAddr = partExtAddr;
        MOV     A,#0x4
        LCALL   ?XSTACK_DISP0_8
        MOV     R0,DPL
        MOV     R1,DPH
        MOV     A,#0x2
        LCALL   ?XSTACK_DISP0_8
        LCALL   ?Subroutine14 & 0xFFFF
// 3255     status = APSME_RequestKeyReq( &req );
// 3256   }
??CrossCallReturnLabel_174:
        LCALL   ??APSME_RequestKeyReq?relay
        SJMP    ??ZDSecMgrRequestAppKey_1
// 3257   else
// 3258   {
// 3259     status = ZFailure;
??ZDSecMgrRequestAppKey_0:
        MOV     R1,#0x1
// 3260   }
// 3261 
// 3262   return status;
??ZDSecMgrRequestAppKey_1:
        MOV     A,#0xc
        LJMP    ??Subroutine99_0 & 0xFFFF
          CFI EndBlock cfiBlock597
// 3263 }
// 3264 #endif // ( ZG_BUILD_JOINING_TYPE )
// 3265 
// 3266 #if ( ZG_BUILD_JOINING_TYPE )
// 3267 /******************************************************************************
// 3268  * @fn          ZDSecMgrSetupPartner
// 3269  *
// 3270  * @brief       Setup for application key partner.
// 3271  *
// 3272  * @param       partNwkAddr - [in] partner network address
// 3273  *
// 3274  * @return      ZStatus_t
// 3275  */

        RSEG BANKED_CODE:CODE:NOROOT(0)
// 3276 ZStatus_t ZDSecMgrSetupPartner( uint16 partNwkAddr, uint8* partExtAddr )
ZDSecMgrSetupPartner:
          CFI Block cfiBlock598 Using cfiCommon0
          CFI Function ZDSecMgrSetupPartner
        CODE
// 3277 {
        FUNCALL ZDSecMgrSetupPartner, AddrMgrExtAddrSet
        LOCFRAME ISTACK, 0, STACK
        LOCFRAME PSTACK, 0, STACK
        LOCFRAME XSTACK, 24, STACK
        LOCFRAME IOVERLAY, 0, STATIC
        LOCFRAME DOVERLAY, 0, STATIC
        ARGFRAME ISTACK, 0, STACK
        ARGFRAME PSTACK, 0, STACK
        ARGFRAME XSTACK, 24, STACK
        ARGFRAME IOVERLAY, 0, STATIC
        ARGFRAME DOVERLAY, 0, STATIC
        FUNCALL ZDSecMgrSetupPartner, AddrMgrEntryUpdate
        LOCFRAME ISTACK, 0, STACK
        LOCFRAME PSTACK, 0, STACK
        LOCFRAME XSTACK, 24, STACK
        LOCFRAME IOVERLAY, 0, STATIC
        LOCFRAME DOVERLAY, 0, STATIC
        ARGFRAME ISTACK, 0, STACK
        ARGFRAME PSTACK, 0, STACK
        ARGFRAME XSTACK, 24, STACK
        ARGFRAME IOVERLAY, 0, STATIC
        ARGFRAME DOVERLAY, 0, STATIC
        FUNCALL ZDSecMgrSetupPartner, ZDP_NwkAddrReq
        LOCFRAME ISTACK, 0, STACK
        LOCFRAME PSTACK, 0, STACK
        LOCFRAME XSTACK, 24, STACK
        LOCFRAME IOVERLAY, 0, STATIC
        LOCFRAME DOVERLAY, 0, STATIC
        ARGFRAME ISTACK, 0, STACK
        ARGFRAME PSTACK, 0, STACK
        ARGFRAME XSTACK, 24, STACK
        ARGFRAME IOVERLAY, 0, STATIC
        ARGFRAME DOVERLAY, 0, STATIC
        FUNCALL ZDSecMgrSetupPartner, AddrMgrExtAddrValid
        LOCFRAME ISTACK, 0, STACK
        LOCFRAME PSTACK, 0, STACK
        LOCFRAME XSTACK, 24, STACK
        LOCFRAME IOVERLAY, 0, STATIC
        LOCFRAME DOVERLAY, 0, STATIC
        ARGFRAME ISTACK, 0, STACK
        ARGFRAME PSTACK, 0, STACK
        ARGFRAME XSTACK, 24, STACK
        ARGFRAME IOVERLAY, 0, STATIC
        ARGFRAME DOVERLAY, 0, STATIC
        FUNCALL ZDSecMgrSetupPartner, ZDP_IEEEAddrReq
        LOCFRAME ISTACK, 0, STACK
        LOCFRAME PSTACK, 0, STACK
        LOCFRAME XSTACK, 24, STACK
        LOCFRAME IOVERLAY, 0, STATIC
        LOCFRAME DOVERLAY, 0, STATIC
        ARGFRAME ISTACK, 0, STACK
        ARGFRAME PSTACK, 0, STACK
        ARGFRAME XSTACK, 24, STACK
        ARGFRAME IOVERLAY, 0, STATIC
        ARGFRAME DOVERLAY, 0, STATIC
        MOV     A,#-0xb
        LCALL   ?BANKED_ENTER_XDATA
          CFI DPH0 load(1, XDATA, add(CFA_XSP16, literal(-1)))
          CFI DPL0 load(1, XDATA, add(CFA_XSP16, literal(-2)))
          CFI ?BRET_EXT load(1, XDATA, add(CFA_XSP16, literal(-3)))
          CFI ?RET_HIGH load(1, XDATA, add(CFA_XSP16, literal(-4)))
          CFI ?RET_LOW load(1, XDATA, add(CFA_XSP16, literal(-5)))
          CFI R7 load(1, XDATA, add(CFA_XSP16, literal(-6)))
          CFI V2 load(1, XDATA, add(CFA_XSP16, literal(-7)))
          CFI V1 load(1, XDATA, add(CFA_XSP16, literal(-8)))
          CFI V0 load(1, XDATA, add(CFA_XSP16, literal(-9)))
          CFI VB load(1, XDATA, add(CFA_XSP16, literal(-10)))
          CFI R6 load(1, XDATA, add(CFA_XSP16, literal(-11)))
          CFI CFA_SP SP+0
          CFI CFA_XSP16 add(XSP16, 11)
        ; Saved register size: 11
        ; Auto size: 13
        MOV     A,#-0xd
        LCALL   ?ALLOC_XSTACK8
          CFI CFA_XSP16 add(XSP16, 24)
        MOV     ?V0 + 0,R2
        MOV     ?V0 + 1,R3
        MOV     A,R4
        MOV     R6,A
        MOV     A,R5
        MOV     R7,A
// 3278   AddrMgrEntry_t entry;
// 3279   ZStatus_t      status;
// 3280 
// 3281   status = ZFailure;
        MOV     ?V0 + 2,#0x1
// 3282 
// 3283   // update the address manager
// 3284   entry.user    = ADDRMGR_USER_SECURITY;
        MOV     DPL,?XSP + 0
        MOV     DPH,?XSP + 1
        MOV     A,#0x2
        MOVX    @DPTR,A
// 3285   entry.nwkAddr = partNwkAddr;
        DEC     A
        LCALL   ?XSTACK_DISP0_8
        LCALL   ?Subroutine28 & 0xFFFF
// 3286   AddrMgrExtAddrSet( entry.extAddr, partExtAddr );
??CrossCallReturnLabel_23:
        LCALL   ?XSTACK_DISP0_8
        MOV     R2,DPL
        MOV     R3,DPH
        LCALL   ??AddrMgrExtAddrSet?relay
// 3287 
// 3288   if ( AddrMgrEntryUpdate( &entry ) == TRUE )
        ; Setup parameters for call to function AddrMgrEntryUpdate
        MOV     DPL,?XSP + 0
        MOV     DPH,?XSP + 1
        MOV     R2,DPL
        MOV     R3,DPH
        LCALL   ??AddrMgrEntryUpdate?relay
        MOV     A,R1
        XRL     A,#0x1
        JNZ     ??ZDSecMgrSetupPartner_0
// 3289   {
// 3290     status = ZSuccess;
        MOV     ?V0 + 2,#0x0
// 3291 
// 3292     // check for address discovery
// 3293     if ( partNwkAddr == INVALID_NODE_ADDR )
        MOV     A,#-0x2
        XRL     A,?V0 + 0
        JNZ     ??ZDSecMgrSetupPartner_1
        MOV     A,#-0x1
        XRL     A,?V0 + 1
??ZDSecMgrSetupPartner_1:
        JNZ     ??ZDSecMgrSetupPartner_2
// 3294     {
// 3295       status = ZDP_NwkAddrReq( partExtAddr, ZDP_ADDR_REQTYPE_SINGLE, 0, 0 );
        ; Setup parameters for call to function ZDP_NwkAddrReq
        MOV     R5,#0x0
        MOV     R4,#0x0
        MOV     R1,#0x0
        MOV     A,R6
        MOV     R2,A
        MOV     A,R7
        MOV     R3,A
        LCALL   ??ZDP_NwkAddrReq?relay
        SJMP    ??ZDSecMgrSetupPartner_3
// 3296     }
// 3297     else if ( !AddrMgrExtAddrValid( partExtAddr ) )
??ZDSecMgrSetupPartner_2:
        ; Setup parameters for call to function AddrMgrExtAddrValid
        MOV     A,R6
        MOV     R2,A
        MOV     A,R7
        MOV     R3,A
        LCALL   ??AddrMgrExtAddrValid?relay
        MOV     A,R1
        JNZ     ??ZDSecMgrSetupPartner_0
// 3298     {
// 3299       status = ZDP_IEEEAddrReq( partNwkAddr, ZDP_ADDR_REQTYPE_SINGLE, 0, 0 );
        ; Setup parameters for call to function ZDP_IEEEAddrReq
        MOV     R5,#0x0
        MOV     R4,#0x0
        MOV     R1,#0x0
        MOV     R2,?V0 + 0
        MOV     R3,?V0 + 1
        LCALL   ??ZDP_IEEEAddrReq?relay
??ZDSecMgrSetupPartner_3:
        MOV     A,R1
        MOV     ?V0 + 2,A
// 3300     }
// 3301   }
// 3302 
// 3303   return status;
??ZDSecMgrSetupPartner_0:
        MOV     R1,?V0 + 2
        MOV     A,#0xd
        LJMP    ?Subroutine5 & 0xFFFF
          CFI EndBlock cfiBlock598
// 3304 }
// 3305 #endif // ( ZG_BUILD_JOINING_TYPE )
// 3306 
// 3307 #if ( ZG_BUILD_COORDINATOR_TYPE )
// 3308 /******************************************************************************
// 3309  * @fn          ZDSecMgrAppKeyTypeSet
// 3310  *
// 3311  * @brief       Set application key type.
// 3312  *
// 3313  * @param       keyType - [in] application key type (KEY_TYPE_APP_MASTER@2 or
// 3314  *                                                   KEY_TYPE_APP_LINK@3
// 3315  *
// 3316  * @return      ZStatus_t
// 3317  */
// 3318 ZStatus_t ZDSecMgrAppKeyTypeSet( uint8 keyType )
// 3319 {
// 3320   if ( keyType == KEY_TYPE_APP_LINK )
// 3321   {
// 3322     ZDSecMgrAppKeyType = KEY_TYPE_APP_LINK;
// 3323   }
// 3324   else
// 3325   {
// 3326     ZDSecMgrAppKeyType = KEY_TYPE_APP_MASTER;
// 3327   }
// 3328 
// 3329   return ZSuccess;
// 3330 }
// 3331 #endif
// 3332 
// 3333 /******************************************************************************
// 3334  * ZigBee Device Security Manager - Stub Implementations
// 3335  */
// 3336 /******************************************************************************
// 3337  * @fn          ZDSecMgrMasterKeyGet (stubs APSME_MasterKeyGet)
// 3338  *
// 3339  * @brief       Get MASTER key for specified EXT address.
// 3340  *
// 3341  * @param       extAddr - [in] EXT address
// 3342  * @param       key     - [out] MASTER key
// 3343  *
// 3344  * @return      ZStatus_t
// 3345  */

        RSEG BANKED_CODE:CODE:NOROOT(0)
// 3346 ZStatus_t ZDSecMgrMasterKeyGet( uint8* extAddr, uint8** key )
APSME_MasterKeyGet:
          CFI Block cfiBlock599 Using cfiCommon0
          CFI Function APSME_MasterKeyGet
        CODE
// 3347 {
        FUNCALL APSME_MasterKeyGet, ZDSecMgrExtAddrLookup
        LOCFRAME ISTACK, 0, STACK
        LOCFRAME PSTACK, 0, STACK
        LOCFRAME XSTACK, 11, STACK
        LOCFRAME IOVERLAY, 0, STATIC
        LOCFRAME DOVERLAY, 0, STATIC
        ARGFRAME ISTACK, 0, STACK
        ARGFRAME PSTACK, 0, STACK
        ARGFRAME XSTACK, 11, STACK
        ARGFRAME IOVERLAY, 0, STATIC
        ARGFRAME DOVERLAY, 0, STATIC
        FUNCALL APSME_MasterKeyGet, ZDSecMgrMasterKeyLookup
        LOCFRAME ISTACK, 0, STACK
        LOCFRAME PSTACK, 0, STACK
        LOCFRAME XSTACK, 11, STACK
        LOCFRAME IOVERLAY, 0, STATIC
        LOCFRAME DOVERLAY, 0, STATIC
        ARGFRAME ISTACK, 0, STACK
        ARGFRAME PSTACK, 0, STACK
        ARGFRAME XSTACK, 11, STACK
        ARGFRAME IOVERLAY, 0, STATIC
        ARGFRAME DOVERLAY, 0, STATIC
        MOV     A,#-0x9
        LCALL   ?BANKED_ENTER_XDATA
          CFI DPH0 load(1, XDATA, add(CFA_XSP16, literal(-1)))
          CFI DPL0 load(1, XDATA, add(CFA_XSP16, literal(-2)))
          CFI ?BRET_EXT load(1, XDATA, add(CFA_XSP16, literal(-3)))
          CFI ?RET_HIGH load(1, XDATA, add(CFA_XSP16, literal(-4)))
          CFI ?RET_LOW load(1, XDATA, add(CFA_XSP16, literal(-5)))
          CFI R7 load(1, XDATA, add(CFA_XSP16, literal(-6)))
          CFI V0 load(1, XDATA, add(CFA_XSP16, literal(-7)))
          CFI VB load(1, XDATA, add(CFA_XSP16, literal(-8)))
          CFI R6 load(1, XDATA, add(CFA_XSP16, literal(-9)))
          CFI CFA_SP SP+0
          CFI CFA_XSP16 add(XSP16, 9)
        ; Saved register size: 9
        ; Auto size: 2
        MOV     A,#-0x2
        LCALL   ?ALLOC_XSTACK8
          CFI CFA_XSP16 add(XSP16, 11)
        MOV     A,R4
        MOV     R6,A
        MOV     A,R5
        MOV     R7,A
// 3348   ZStatus_t status;
// 3349   uint16    ami;
// 3350 
// 3351 
// 3352   // lookup entry for specified EXT address
// 3353   status = ZDSecMgrExtAddrLookup( extAddr, &ami );
        ; Setup parameters for call to function ZDSecMgrExtAddrLookup
        MOV     DPL,?XSP + 0
        MOV     DPH,?XSP + 1
        MOV     R4,DPL
        MOV     R5,DPH
        LCALL   ??ZDSecMgrExtAddrLookup?relay
        MOV     A,R1
        MOV     ?V0 + 0,A
// 3354   //status = ZDSecMgrEntryLookupExt( extAddr, &entry );
// 3355 
// 3356   if ( status == ZSuccess )
        JNZ     ??APSME_MasterKeyGet_0
// 3357   {
// 3358     ZDSecMgrMasterKeyLookup( ami, key );
        ; Setup parameters for call to function ZDSecMgrMasterKeyLookup
        LCALL   ?Subroutine37 & 0xFFFF
// 3359   }
??CrossCallReturnLabel_150:
        LCALL   ??ZDSecMgrMasterKeyLookup?relay
        SJMP    ??APSME_MasterKeyGet_1
// 3360   else
// 3361   {
// 3362     *key = NULL;
??APSME_MasterKeyGet_0:
        MOV     DPL,R6
        MOV     DPH,R7
        CLR     A
        MOVX    @DPTR,A
        INC     DPTR
        MOVX    @DPTR,A
// 3363   }
// 3364 
// 3365   return status;
??APSME_MasterKeyGet_1:
        LJMP    ?Subroutine1 & 0xFFFF
          CFI EndBlock cfiBlock599
// 3366 }
// 3367 
// 3368 /******************************************************************************
// 3369  * @fn          ZDSecMgrLinkKeySet (stubs APSME_LinkKeySet)
// 3370  *
// 3371  * @brief       Set <APSME_LinkKeyData_t> for specified NWK address.
// 3372  *
// 3373  * @param       extAddr - [in] EXT address
// 3374  * @param       data    - [in] APSME_LinkKeyData_t
// 3375  *
// 3376  * @return      ZStatus_t
// 3377  */

        RSEG BANKED_CODE:CODE:NOROOT(0)
// 3378 ZStatus_t ZDSecMgrLinkKeySet( uint8* extAddr, uint8* key )
APSME_LinkKeySet:
          CFI Block cfiBlock600 Using cfiCommon0
          CFI Function APSME_LinkKeySet
        CODE
// 3379 {
        FUNCALL APSME_LinkKeySet, ZDSecMgrEntryLookupExt
        LOCFRAME ISTACK, 0, STACK
        LOCFRAME PSTACK, 0, STACK
        LOCFRAME XSTACK, 14, STACK
        LOCFRAME IOVERLAY, 0, STATIC
        LOCFRAME DOVERLAY, 0, STATIC
        ARGFRAME ISTACK, 0, STACK
        ARGFRAME PSTACK, 0, STACK
        ARGFRAME XSTACK, 14, STACK
        ARGFRAME IOVERLAY, 0, STATIC
        ARGFRAME DOVERLAY, 0, STATIC
        FUNCALL APSME_LinkKeySet, osal_memcpy
        LOCFRAME ISTACK, 0, STACK
        LOCFRAME PSTACK, 0, STACK
        LOCFRAME XSTACK, 17, STACK
        LOCFRAME IOVERLAY, 0, STATIC
        LOCFRAME DOVERLAY, 0, STATIC
        ARGFRAME ISTACK, 0, STACK
        ARGFRAME PSTACK, 0, STACK
        ARGFRAME XSTACK, 17, STACK
        ARGFRAME IOVERLAY, 0, STATIC
        ARGFRAME DOVERLAY, 0, STATIC
        MOV     A,#-0xc
        LCALL   ?BANKED_ENTER_XDATA
          CFI DPH0 load(1, XDATA, add(CFA_XSP16, literal(-1)))
          CFI DPL0 load(1, XDATA, add(CFA_XSP16, literal(-2)))
          CFI ?BRET_EXT load(1, XDATA, add(CFA_XSP16, literal(-3)))
          CFI ?RET_HIGH load(1, XDATA, add(CFA_XSP16, literal(-4)))
          CFI ?RET_LOW load(1, XDATA, add(CFA_XSP16, literal(-5)))
          CFI R7 load(1, XDATA, add(CFA_XSP16, literal(-6)))
          CFI V3 load(1, XDATA, add(CFA_XSP16, literal(-7)))
          CFI V2 load(1, XDATA, add(CFA_XSP16, literal(-8)))
          CFI V1 load(1, XDATA, add(CFA_XSP16, literal(-9)))
          CFI V0 load(1, XDATA, add(CFA_XSP16, literal(-10)))
          CFI VB load(1, XDATA, add(CFA_XSP16, literal(-11)))
          CFI R6 load(1, XDATA, add(CFA_XSP16, literal(-12)))
          CFI CFA_SP SP+0
          CFI CFA_XSP16 add(XSP16, 12)
        ; Saved register size: 12
        ; Auto size: 2
        MOV     A,#-0x2
        LCALL   ?ALLOC_XSTACK8
          CFI CFA_XSP16 add(XSP16, 14)
        MOV     A,R4
        MOV     R6,A
        MOV     A,R5
        MOV     R7,A
// 3380   ZStatus_t        status;
// 3381   ZDSecMgrEntry_t* entry;
// 3382 
// 3383 
// 3384   // lookup entry index for specified EXT address
// 3385   status = ZDSecMgrEntryLookupExt( extAddr, &entry );
        ; Setup parameters for call to function ZDSecMgrEntryLookupExt
        MOV     DPL,?XSP + 0
        MOV     DPH,?XSP + 1
        MOV     R4,DPL
        MOV     R5,DPH
        LCALL   ??ZDSecMgrEntryLookupExt?relay
        MOV     A,R1
        MOV     ?V0 + 3,A
// 3386 
// 3387   if ( status == ZSuccess )
        JNZ     ??APSME_LinkKeySet_0
// 3388   {
// 3389     // setup the link key data reference
// 3390     osal_memcpy( entry->lkd.key, key, SEC_KEY_LEN );
        ; Setup parameters for call to function osal_memcpy
        MOV     ?V0 + 0,R6
        MOV     ?V0 + 1,R7
        MOV     ?V0 + 2,#0x0
        MOV     R0,#?V0 + 0
        LCALL   ?PUSH_XSTACK_I_THREE
          CFI CFA_XSP16 add(XSP16, 17)
        MOV     R4,#0x10
        MOV     R5,#0x0
        MOV     A,#0x3
        LCALL   ?XSTACK_DISP0_8
        LCALL   ?Subroutine50 & 0xFFFF
??CrossCallReturnLabel_58:
        LCALL   ??osal_memcpy?relay
        MOV     A,#0x3
        LCALL   ?DEALLOC_XSTACK8
          CFI CFA_XSP16 add(XSP16, 14)
// 3391 
// 3392     entry->lkd.apsmelkd.rxFrmCntr = 0;
        LCALL   ?Subroutine67 & 0xFFFF
// 3393     entry->lkd.apsmelkd.txFrmCntr = 0;
// 3394   }
??CrossCallReturnLabel_240:
        ADD     A,#0x18
        LCALL   ?Subroutine56 & 0xFFFF
??CrossCallReturnLabel_72:
        LCALL   ?Subroutine22 & 0xFFFF
??CrossCallReturnLabel_10:
        ADD     A,#0x14
        LCALL   ?Subroutine56 & 0xFFFF
??CrossCallReturnLabel_73:
        MOVX    @DPTR,A
// 3395 
// 3396   return status;
??APSME_LinkKeySet_0:
        MOV     R1,?V0 + 3
        LJMP    ?Subroutine12 & 0xFFFF
          CFI EndBlock cfiBlock600
// 3397 }

        RSEG BANKED_CODE:CODE:NOROOT(0)
?Subroutine56:
          CFI Block cfiCond601 Using cfiCommon0
          CFI Function APSME_LinkKeySet
          CFI Conditional ??CrossCallReturnLabel_72
          CFI R6 load(1, XDATA, add(CFA_XSP16, literal(-12)))
          CFI VB load(1, XDATA, add(CFA_XSP16, literal(-11)))
          CFI V0 load(1, XDATA, add(CFA_XSP16, literal(-10)))
          CFI V1 load(1, XDATA, add(CFA_XSP16, literal(-9)))
          CFI V2 load(1, XDATA, add(CFA_XSP16, literal(-8)))
          CFI V3 load(1, XDATA, add(CFA_XSP16, literal(-7)))
          CFI R7 load(1, XDATA, add(CFA_XSP16, literal(-6)))
          CFI ?RET_LOW load(1, XDATA, add(CFA_XSP16, literal(-5)))
          CFI ?RET_HIGH load(1, XDATA, add(CFA_XSP16, literal(-4)))
          CFI ?BRET_EXT load(1, XDATA, add(CFA_XSP16, literal(-3)))
          CFI DPL0 load(1, XDATA, add(CFA_XSP16, literal(-2)))
          CFI DPH0 load(1, XDATA, add(CFA_XSP16, literal(-1)))
          CFI CFA_SP SP+0
          CFI CFA_XSP16 add(XSP16, 14)
          CFI Block cfiCond602 Using cfiCommon0
          CFI (cfiCond602) Function APSME_LinkKeySet
          CFI (cfiCond602) Conditional ??CrossCallReturnLabel_73
          CFI (cfiCond602) R6 load(1, XDATA, add(CFA_XSP16, literal(-12)))
          CFI (cfiCond602) VB load(1, XDATA, add(CFA_XSP16, literal(-11)))
          CFI (cfiCond602) V0 load(1, XDATA, add(CFA_XSP16, literal(-10)))
          CFI (cfiCond602) V1 load(1, XDATA, add(CFA_XSP16, literal(-9)))
          CFI (cfiCond602) V2 load(1, XDATA, add(CFA_XSP16, literal(-8)))
          CFI (cfiCond602) V3 load(1, XDATA, add(CFA_XSP16, literal(-7)))
          CFI (cfiCond602) R7 load(1, XDATA, add(CFA_XSP16, literal(-6)))
          CFI (cfiCond602) ?RET_LOW load(1, XDATA, add(CFA_XSP16, literal(-5)))
          CFI (cfiCond602) ?RET_HIGH load(1, XDATA, add(CFA_XSP16, literal(-4)))
          CFI (cfiCond602) ?BRET_EXT load(1, XDATA, add(CFA_XSP16, literal(-3)))
          CFI (cfiCond602) DPL0 load(1, XDATA, add(CFA_XSP16, literal(-2)))
          CFI (cfiCond602) DPH0 load(1, XDATA, add(CFA_XSP16, literal(-1)))
          CFI (cfiCond602) CFA_SP SP+0
          CFI (cfiCond602) CFA_XSP16 add(XSP16, 14)
          CFI Block cfiPicker603 Using cfiCommon1
          CFI (cfiPicker603) NoFunction
          CFI (cfiPicker603) Picker
        MOV     DPL,A
        MOV     A,R0
        ADDC    A,#0x0
        MOV     DPH,A
        CLR     A
        MOVX    @DPTR,A
        INC     DPTR
        MOVX    @DPTR,A
        INC     DPTR
        MOVX    @DPTR,A
        INC     DPTR
        RET
          CFI EndBlock cfiCond601
          CFI EndBlock cfiCond602
          CFI EndBlock cfiPicker603

        RSEG BANKED_CODE:CODE:NOROOT(0)
?Subroutine22:
          CFI Block cfiCond604 Using cfiCommon0
          CFI Function ZDSecMgrDeviceCtrlUpdate
          CFI Conditional ??CrossCallReturnLabel_9
          CFI R6 load(1, XDATA, add(CFA_XSP16, literal(-9)))
          CFI VB load(1, XDATA, add(CFA_XSP16, literal(-8)))
          CFI V0 load(1, XDATA, add(CFA_XSP16, literal(-7)))
          CFI R7 load(1, XDATA, add(CFA_XSP16, literal(-6)))
          CFI ?RET_LOW load(1, XDATA, add(CFA_XSP16, literal(-5)))
          CFI ?RET_HIGH load(1, XDATA, add(CFA_XSP16, literal(-4)))
          CFI ?BRET_EXT load(1, XDATA, add(CFA_XSP16, literal(-3)))
          CFI DPL0 load(1, XDATA, add(CFA_XSP16, literal(-2)))
          CFI DPH0 load(1, XDATA, add(CFA_XSP16, literal(-1)))
          CFI CFA_SP SP+0
          CFI CFA_XSP16 add(XSP16, 13)
          CFI Block cfiCond605 Using cfiCommon0
          CFI (cfiCond605) Function APSME_LinkKeySet
          CFI (cfiCond605) Conditional ??CrossCallReturnLabel_10
          CFI (cfiCond605) R6 load(1, XDATA, add(CFA_XSP16, literal(-12)))
          CFI (cfiCond605) VB load(1, XDATA, add(CFA_XSP16, literal(-11)))
          CFI (cfiCond605) V0 load(1, XDATA, add(CFA_XSP16, literal(-10)))
          CFI (cfiCond605) V1 load(1, XDATA, add(CFA_XSP16, literal(-9)))
          CFI (cfiCond605) V2 load(1, XDATA, add(CFA_XSP16, literal(-8)))
          CFI (cfiCond605) V3 load(1, XDATA, add(CFA_XSP16, literal(-7)))
          CFI (cfiCond605) R7 load(1, XDATA, add(CFA_XSP16, literal(-6)))
          CFI (cfiCond605) ?RET_LOW load(1, XDATA, add(CFA_XSP16, literal(-5)))
          CFI (cfiCond605) ?RET_HIGH load(1, XDATA, add(CFA_XSP16, literal(-4)))
          CFI (cfiCond605) ?BRET_EXT load(1, XDATA, add(CFA_XSP16, literal(-3)))
          CFI (cfiCond605) DPL0 load(1, XDATA, add(CFA_XSP16, literal(-2)))
          CFI (cfiCond605) DPH0 load(1, XDATA, add(CFA_XSP16, literal(-1)))
          CFI (cfiCond605) CFA_SP SP+0
          CFI (cfiCond605) CFA_XSP16 add(XSP16, 14)
          CFI Block cfiPicker606 Using cfiCommon1
          CFI (cfiPicker606) NoFunction
          CFI (cfiPicker606) Picker
        MOVX    @DPTR,A
        LCALL   ?Subroutine67 & 0xFFFF
??CrossCallReturnLabel_242:
        RET
          CFI EndBlock cfiCond604
          CFI EndBlock cfiCond605
          CFI EndBlock cfiPicker606

        RSEG BANKED_CODE:CODE:NOROOT(0)
?Subroutine67:
          CFI Block cfiCond607 Using cfiCommon0
          CFI Function APSME_LinkKeySet
          CFI Conditional ??CrossCallReturnLabel_240
          CFI R6 load(1, XDATA, add(CFA_XSP16, literal(-12)))
          CFI VB load(1, XDATA, add(CFA_XSP16, literal(-11)))
          CFI V0 load(1, XDATA, add(CFA_XSP16, literal(-10)))
          CFI V1 load(1, XDATA, add(CFA_XSP16, literal(-9)))
          CFI V2 load(1, XDATA, add(CFA_XSP16, literal(-8)))
          CFI V3 load(1, XDATA, add(CFA_XSP16, literal(-7)))
          CFI R7 load(1, XDATA, add(CFA_XSP16, literal(-6)))
          CFI ?RET_LOW load(1, XDATA, add(CFA_XSP16, literal(-5)))
          CFI ?RET_HIGH load(1, XDATA, add(CFA_XSP16, literal(-4)))
          CFI ?BRET_EXT load(1, XDATA, add(CFA_XSP16, literal(-3)))
          CFI DPL0 load(1, XDATA, add(CFA_XSP16, literal(-2)))
          CFI DPH0 load(1, XDATA, add(CFA_XSP16, literal(-1)))
          CFI CFA_SP SP+0
          CFI CFA_XSP16 add(XSP16, 14)
          CFI Block cfiCond608 Using cfiCommon0
          CFI (cfiCond608) Function ZDSecMgrDeviceCtrlUpdate
          CFI (cfiCond608) Conditional ??CrossCallReturnLabel_242, ??CrossCallReturnLabel_9
          CFI (cfiCond608) R6 load(1, XDATA, add(CFA_XSP16, literal(-9)))
          CFI (cfiCond608) VB load(1, XDATA, add(CFA_XSP16, literal(-8)))
          CFI (cfiCond608) V0 load(1, XDATA, add(CFA_XSP16, literal(-7)))
          CFI (cfiCond608) R7 load(1, XDATA, add(CFA_XSP16, literal(-6)))
          CFI (cfiCond608) ?RET_LOW load(1, XDATA, add(CFA_XSP16, literal(-5)))
          CFI (cfiCond608) ?RET_HIGH load(1, XDATA, add(CFA_XSP16, literal(-4)))
          CFI (cfiCond608) ?BRET_EXT load(1, XDATA, add(CFA_XSP16, literal(-3)))
          CFI (cfiCond608) DPL0 load(1, XDATA, add(CFA_XSP16, literal(-2)))
          CFI (cfiCond608) DPH0 load(1, XDATA, add(CFA_XSP16, literal(-1)))
          CFI (cfiCond608) CFA_SP SP+0
          CFI (cfiCond608) CFA_XSP16 add(XSP16, 13)
          CFI Block cfiCond609 Using cfiCommon0
          CFI (cfiCond609) Function APSME_LinkKeySet
          CFI (cfiCond609) Conditional ??CrossCallReturnLabel_242, ??CrossCallReturnLabel_10
          CFI (cfiCond609) R6 load(1, XDATA, add(CFA_XSP16, literal(-12)))
          CFI (cfiCond609) VB load(1, XDATA, add(CFA_XSP16, literal(-11)))
          CFI (cfiCond609) V0 load(1, XDATA, add(CFA_XSP16, literal(-10)))
          CFI (cfiCond609) V1 load(1, XDATA, add(CFA_XSP16, literal(-9)))
          CFI (cfiCond609) V2 load(1, XDATA, add(CFA_XSP16, literal(-8)))
          CFI (cfiCond609) V3 load(1, XDATA, add(CFA_XSP16, literal(-7)))
          CFI (cfiCond609) R7 load(1, XDATA, add(CFA_XSP16, literal(-6)))
          CFI (cfiCond609) ?RET_LOW load(1, XDATA, add(CFA_XSP16, literal(-5)))
          CFI (cfiCond609) ?RET_HIGH load(1, XDATA, add(CFA_XSP16, literal(-4)))
          CFI (cfiCond609) ?BRET_EXT load(1, XDATA, add(CFA_XSP16, literal(-3)))
          CFI (cfiCond609) DPL0 load(1, XDATA, add(CFA_XSP16, literal(-2)))
          CFI (cfiCond609) DPH0 load(1, XDATA, add(CFA_XSP16, literal(-1)))
          CFI (cfiCond609) CFA_SP SP+0
          CFI (cfiCond609) CFA_XSP16 add(XSP16, 14)
          CFI Block cfiCond610 Using cfiCommon0
          CFI (cfiCond610) Function ZDSecMgrAuthenticationSet
          CFI (cfiCond610) Conditional ??CrossCallReturnLabel_241
          CFI (cfiCond610) R6 load(1, XDATA, add(CFA_XSP16, literal(-9)))
          CFI (cfiCond610) VB load(1, XDATA, add(CFA_XSP16, literal(-8)))
          CFI (cfiCond610) V0 load(1, XDATA, add(CFA_XSP16, literal(-7)))
          CFI (cfiCond610) R7 load(1, XDATA, add(CFA_XSP16, literal(-6)))
          CFI (cfiCond610) ?RET_LOW load(1, XDATA, add(CFA_XSP16, literal(-5)))
          CFI (cfiCond610) ?RET_HIGH load(1, XDATA, add(CFA_XSP16, literal(-4)))
          CFI (cfiCond610) ?BRET_EXT load(1, XDATA, add(CFA_XSP16, literal(-3)))
          CFI (cfiCond610) DPL0 load(1, XDATA, add(CFA_XSP16, literal(-2)))
          CFI (cfiCond610) DPH0 load(1, XDATA, add(CFA_XSP16, literal(-1)))
          CFI (cfiCond610) CFA_SP SP+0
          CFI (cfiCond610) CFA_XSP16 add(XSP16, 11)
          CFI Block cfiPicker611 Using cfiCommon1
          CFI (cfiPicker611) NoFunction
          CFI (cfiPicker611) Picker
        MOV     DPL,?XSP + 0
        MOV     DPH,?XSP + 1
          CFI EndBlock cfiCond607
          CFI EndBlock cfiCond608
          CFI EndBlock cfiCond609
          CFI EndBlock cfiCond610
          CFI EndBlock cfiPicker611
        REQUIRE ??Subroutine101_0
        ; // Fall through to label ??Subroutine101_0

        RSEG BANKED_CODE:CODE:NOROOT(0)
??Subroutine101_0:
          CFI Block cfiCond612 Using cfiCommon0
          CFI Function ZDSecMgrDeviceCtrlHandler
          CFI Conditional ??CrossCallReturnLabel_239
          CFI R6 load(1, XDATA, add(CFA_XSP16, literal(-9)))
          CFI VB load(1, XDATA, add(CFA_XSP16, literal(-8)))
          CFI V0 load(1, XDATA, add(CFA_XSP16, literal(-7)))
          CFI R7 load(1, XDATA, add(CFA_XSP16, literal(-6)))
          CFI ?RET_LOW load(1, XDATA, add(CFA_XSP16, literal(-5)))
          CFI ?RET_HIGH load(1, XDATA, add(CFA_XSP16, literal(-4)))
          CFI ?BRET_EXT load(1, XDATA, add(CFA_XSP16, literal(-3)))
          CFI DPL0 load(1, XDATA, add(CFA_XSP16, literal(-2)))
          CFI DPH0 load(1, XDATA, add(CFA_XSP16, literal(-1)))
          CFI CFA_SP SP+0
          CFI CFA_XSP16 add(XSP16, 9)
          CFI Block cfiCond613 Using cfiCommon0
          CFI (cfiCond613) Function APSME_LinkKeySet
          CFI (cfiCond613) Conditional ??CrossCallReturnLabel_240
          CFI (cfiCond613) R6 load(1, XDATA, add(CFA_XSP16, literal(-12)))
          CFI (cfiCond613) VB load(1, XDATA, add(CFA_XSP16, literal(-11)))
          CFI (cfiCond613) V0 load(1, XDATA, add(CFA_XSP16, literal(-10)))
          CFI (cfiCond613) V1 load(1, XDATA, add(CFA_XSP16, literal(-9)))
          CFI (cfiCond613) V2 load(1, XDATA, add(CFA_XSP16, literal(-8)))
          CFI (cfiCond613) V3 load(1, XDATA, add(CFA_XSP16, literal(-7)))
          CFI (cfiCond613) R7 load(1, XDATA, add(CFA_XSP16, literal(-6)))
          CFI (cfiCond613) ?RET_LOW load(1, XDATA, add(CFA_XSP16, literal(-5)))
          CFI (cfiCond613) ?RET_HIGH load(1, XDATA, add(CFA_XSP16, literal(-4)))
          CFI (cfiCond613) ?BRET_EXT load(1, XDATA, add(CFA_XSP16, literal(-3)))
          CFI (cfiCond613) DPL0 load(1, XDATA, add(CFA_XSP16, literal(-2)))
          CFI (cfiCond613) DPH0 load(1, XDATA, add(CFA_XSP16, literal(-1)))
          CFI (cfiCond613) CFA_SP SP+0
          CFI (cfiCond613) CFA_XSP16 add(XSP16, 14)
          CFI Block cfiCond614 Using cfiCommon0
          CFI (cfiCond614) Function ZDSecMgrDeviceCtrlUpdate
          CFI (cfiCond614) Conditional ??CrossCallReturnLabel_242, ??CrossCallReturnLabel_9
          CFI (cfiCond614) R6 load(1, XDATA, add(CFA_XSP16, literal(-9)))
          CFI (cfiCond614) VB load(1, XDATA, add(CFA_XSP16, literal(-8)))
          CFI (cfiCond614) V0 load(1, XDATA, add(CFA_XSP16, literal(-7)))
          CFI (cfiCond614) R7 load(1, XDATA, add(CFA_XSP16, literal(-6)))
          CFI (cfiCond614) ?RET_LOW load(1, XDATA, add(CFA_XSP16, literal(-5)))
          CFI (cfiCond614) ?RET_HIGH load(1, XDATA, add(CFA_XSP16, literal(-4)))
          CFI (cfiCond614) ?BRET_EXT load(1, XDATA, add(CFA_XSP16, literal(-3)))
          CFI (cfiCond614) DPL0 load(1, XDATA, add(CFA_XSP16, literal(-2)))
          CFI (cfiCond614) DPH0 load(1, XDATA, add(CFA_XSP16, literal(-1)))
          CFI (cfiCond614) CFA_SP SP+0
          CFI (cfiCond614) CFA_XSP16 add(XSP16, 13)
          CFI Block cfiCond615 Using cfiCommon0
          CFI (cfiCond615) Function APSME_LinkKeySet
          CFI (cfiCond615) Conditional ??CrossCallReturnLabel_242, ??CrossCallReturnLabel_10
          CFI (cfiCond615) R6 load(1, XDATA, add(CFA_XSP16, literal(-12)))
          CFI (cfiCond615) VB load(1, XDATA, add(CFA_XSP16, literal(-11)))
          CFI (cfiCond615) V0 load(1, XDATA, add(CFA_XSP16, literal(-10)))
          CFI (cfiCond615) V1 load(1, XDATA, add(CFA_XSP16, literal(-9)))
          CFI (cfiCond615) V2 load(1, XDATA, add(CFA_XSP16, literal(-8)))
          CFI (cfiCond615) V3 load(1, XDATA, add(CFA_XSP16, literal(-7)))
          CFI (cfiCond615) R7 load(1, XDATA, add(CFA_XSP16, literal(-6)))
          CFI (cfiCond615) ?RET_LOW load(1, XDATA, add(CFA_XSP16, literal(-5)))
          CFI (cfiCond615) ?RET_HIGH load(1, XDATA, add(CFA_XSP16, literal(-4)))
          CFI (cfiCond615) ?BRET_EXT load(1, XDATA, add(CFA_XSP16, literal(-3)))
          CFI (cfiCond615) DPL0 load(1, XDATA, add(CFA_XSP16, literal(-2)))
          CFI (cfiCond615) DPH0 load(1, XDATA, add(CFA_XSP16, literal(-1)))
          CFI (cfiCond615) CFA_SP SP+0
          CFI (cfiCond615) CFA_XSP16 add(XSP16, 14)
          CFI Block cfiCond616 Using cfiCommon0
          CFI (cfiCond616) Function ZDSecMgrAuthenticationSet
          CFI (cfiCond616) Conditional ??CrossCallReturnLabel_241
          CFI (cfiCond616) R6 load(1, XDATA, add(CFA_XSP16, literal(-9)))
          CFI (cfiCond616) VB load(1, XDATA, add(CFA_XSP16, literal(-8)))
          CFI (cfiCond616) V0 load(1, XDATA, add(CFA_XSP16, literal(-7)))
          CFI (cfiCond616) R7 load(1, XDATA, add(CFA_XSP16, literal(-6)))
          CFI (cfiCond616) ?RET_LOW load(1, XDATA, add(CFA_XSP16, literal(-5)))
          CFI (cfiCond616) ?RET_HIGH load(1, XDATA, add(CFA_XSP16, literal(-4)))
          CFI (cfiCond616) ?BRET_EXT load(1, XDATA, add(CFA_XSP16, literal(-3)))
          CFI (cfiCond616) DPL0 load(1, XDATA, add(CFA_XSP16, literal(-2)))
          CFI (cfiCond616) DPH0 load(1, XDATA, add(CFA_XSP16, literal(-1)))
          CFI (cfiCond616) CFA_SP SP+0
          CFI (cfiCond616) CFA_XSP16 add(XSP16, 11)
          CFI Block cfiPicker617 Using cfiCommon1
          CFI (cfiPicker617) NoFunction
          CFI (cfiPicker617) Picker
        LCALL   ?Subroutine72 & 0xFFFF
??CrossCallReturnLabel_248:
        XCH     A,R0
        RET
          CFI EndBlock cfiCond612
          CFI EndBlock cfiCond613
          CFI EndBlock cfiCond614
          CFI EndBlock cfiCond615
          CFI EndBlock cfiCond616
          CFI EndBlock cfiPicker617
// 3398 
// 3399 /******************************************************************************
// 3400  * @fn          ZDSecMgrAuthenticationSet
// 3401  *
// 3402  * @brief       Mark the specific device as authenticated or not
// 3403  *
// 3404  * @param       extAddr - [in] EXT address
// 3405  * @param       option  - [in] authenticated or not
// 3406  *
// 3407  * @return      ZStatus_t
// 3408  */

        RSEG BANKED_CODE:CODE:NOROOT(0)
// 3409 ZStatus_t ZDSecMgrAuthenticationSet( uint8* extAddr, ZDSecMgr_Authentication_Option option )
ZDSecMgrAuthenticationSet:
          CFI Block cfiBlock618 Using cfiCommon0
          CFI Function ZDSecMgrAuthenticationSet
        CODE
// 3410 {
        FUNCALL ZDSecMgrAuthenticationSet, ZDSecMgrEntryLookupExt
        LOCFRAME ISTACK, 0, STACK
        LOCFRAME PSTACK, 0, STACK
        LOCFRAME XSTACK, 11, STACK
        LOCFRAME IOVERLAY, 0, STATIC
        LOCFRAME DOVERLAY, 0, STATIC
        ARGFRAME ISTACK, 0, STACK
        ARGFRAME PSTACK, 0, STACK
        ARGFRAME XSTACK, 11, STACK
        ARGFRAME IOVERLAY, 0, STATIC
        ARGFRAME DOVERLAY, 0, STATIC
        MOV     A,#-0x9
        LCALL   ?BANKED_ENTER_XDATA
          CFI DPH0 load(1, XDATA, add(CFA_XSP16, literal(-1)))
          CFI DPL0 load(1, XDATA, add(CFA_XSP16, literal(-2)))
          CFI ?BRET_EXT load(1, XDATA, add(CFA_XSP16, literal(-3)))
          CFI ?RET_HIGH load(1, XDATA, add(CFA_XSP16, literal(-4)))
          CFI ?RET_LOW load(1, XDATA, add(CFA_XSP16, literal(-5)))
          CFI R7 load(1, XDATA, add(CFA_XSP16, literal(-6)))
          CFI V0 load(1, XDATA, add(CFA_XSP16, literal(-7)))
          CFI VB load(1, XDATA, add(CFA_XSP16, literal(-8)))
          CFI R6 load(1, XDATA, add(CFA_XSP16, literal(-9)))
          CFI CFA_SP SP+0
          CFI CFA_XSP16 add(XSP16, 9)
        ; Saved register size: 9
        ; Auto size: 2
        MOV     A,#-0x2
        LCALL   ?ALLOC_XSTACK8
          CFI CFA_XSP16 add(XSP16, 11)
        MOV     A,R1
        MOV     R6,A
// 3411   ZStatus_t        status;
// 3412   ZDSecMgrEntry_t* entry;
// 3413 
// 3414 
// 3415   // lookup entry index for specified EXT address
// 3416   status = ZDSecMgrEntryLookupExt( extAddr, &entry );
        ; Setup parameters for call to function ZDSecMgrEntryLookupExt
        MOV     DPL,?XSP + 0
        MOV     DPH,?XSP + 1
        MOV     R4,DPL
        MOV     R5,DPH
        LCALL   ??ZDSecMgrEntryLookupExt?relay
        MOV     A,R1
// 3417 
// 3418   if ( status == ZSuccess )
        JNZ     ??ZDSecMgrAuthenticationSet_0
// 3419   {
// 3420     entry->authenticateOption = option;
        LCALL   ?Subroutine67 & 0xFFFF
// 3421   }
??CrossCallReturnLabel_241:
        ADD     A,#0x1c
        LCALL   ??Subroutine102_0 & 0xFFFF
??CrossCallReturnLabel_256:
        MOV     A,R6
        MOVX    @DPTR,A
// 3422 
// 3423   return status;
??ZDSecMgrAuthenticationSet_0:
        LJMP    ??Subroutine81_0 & 0xFFFF
          CFI EndBlock cfiBlock618
// 3424 }
// 3425 
// 3426 /******************************************************************************
// 3427  * @fn          ZDSecMgrAuthenticationCheck
// 3428  *
// 3429  * @brief       Check if the specific device has been authenticated or not
// 3430  *              For non-trust center device, always return true
// 3431  *
// 3432  * @param       shortAddr - [in] short address
// 3433  *
// 3434  * @return      TRUE @ authenticated with CBKE
// 3435  *              FALSE @ not authenticated
// 3436  */
// 3437 

        RSEG BANKED_CODE:CODE:NOROOT(0)
// 3438 uint8 ZDSecMgrAuthenticationCheck( uint16 shortAddr )
ZDSecMgrAuthenticationCheck:
          CFI Block cfiBlock619 Using cfiCommon0
          CFI Function ZDSecMgrAuthenticationCheck
        CODE
// 3439 {
        ; Saved register size: 0
        ; Auto size: 0
// 3440 #if defined (TC_LINKKEY_JOIN)
// 3441 
// 3442   ZDSecMgrEntry_t* entry;
// 3443   uint8 extAddr[Z_EXTADDR_LEN];
// 3444 
// 3445   // If the local device is not the trust center, always return TRUE
// 3446   if ( NLME_GetShortAddr() != TCshortAddr )
// 3447   {
// 3448     return TRUE;
// 3449   }
// 3450   // Otherwise, check the authentication option
// 3451   else if ( AddrMgrExtAddrLookup( shortAddr, extAddr ) )
// 3452   {
// 3453     // lookup entry index for specified EXT address
// 3454     if ( ZDSecMgrEntryLookupExt( extAddr, &entry ) == ZSuccess )
// 3455     {
// 3456       if ( entry->authenticateOption != ZDSecMgr_Not_Authenticated )
// 3457       {
// 3458         return TRUE;
// 3459       }
// 3460       else
// 3461       {
// 3462         return FALSE;
// 3463       }
// 3464     }
// 3465   }
// 3466   return FALSE;
// 3467 
// 3468 #else
// 3469   (void)shortAddr;  // Intentionally unreferenced parameter
// 3470   
// 3471   // For non AMI/SE Profile, perform no check and always return true.
// 3472   return TRUE;
        MOV     R1,#0x1
        LJMP    ?BRET
          CFI EndBlock cfiBlock619
// 3473 
// 3474 #endif // TC_LINKKEY_JOIN
// 3475 }
// 3476 
// 3477 
// 3478 /******************************************************************************
// 3479  * @fn          ZDSecMgrLinkKeyDataGet (stubs APSME_LinkKeyDataGet)
// 3480  *
// 3481  * @brief       Get <APSME_LinkKeyData_t> for specified NWK address.
// 3482  *
// 3483  * @param       extAddr - [in] EXT address
// 3484  * @param       data    - [out] APSME_LinkKeyData_t
// 3485  *
// 3486  * @return      ZStatus_t
// 3487  */

        RSEG BANKED_CODE:CODE:NOROOT(0)
// 3488 ZStatus_t ZDSecMgrLinkKeyDataGet(uint8* extAddr, APSME_LinkKeyData_t** data)
APSME_LinkKeyDataGet:
          CFI Block cfiBlock620 Using cfiCommon0
          CFI Function APSME_LinkKeyDataGet
        CODE
// 3489 {
        FUNCALL APSME_LinkKeyDataGet, ZDSecMgrEntryLookupExt
        LOCFRAME ISTACK, 0, STACK
        LOCFRAME PSTACK, 0, STACK
        LOCFRAME XSTACK, 11, STACK
        LOCFRAME IOVERLAY, 0, STATIC
        LOCFRAME DOVERLAY, 0, STATIC
        ARGFRAME ISTACK, 0, STACK
        ARGFRAME PSTACK, 0, STACK
        ARGFRAME XSTACK, 11, STACK
        ARGFRAME IOVERLAY, 0, STATIC
        ARGFRAME DOVERLAY, 0, STATIC
        MOV     A,#-0x9
        LCALL   ?BANKED_ENTER_XDATA
          CFI DPH0 load(1, XDATA, add(CFA_XSP16, literal(-1)))
          CFI DPL0 load(1, XDATA, add(CFA_XSP16, literal(-2)))
          CFI ?BRET_EXT load(1, XDATA, add(CFA_XSP16, literal(-3)))
          CFI ?RET_HIGH load(1, XDATA, add(CFA_XSP16, literal(-4)))
          CFI ?RET_LOW load(1, XDATA, add(CFA_XSP16, literal(-5)))
          CFI R7 load(1, XDATA, add(CFA_XSP16, literal(-6)))
          CFI V0 load(1, XDATA, add(CFA_XSP16, literal(-7)))
          CFI VB load(1, XDATA, add(CFA_XSP16, literal(-8)))
          CFI R6 load(1, XDATA, add(CFA_XSP16, literal(-9)))
          CFI CFA_SP SP+0
          CFI CFA_XSP16 add(XSP16, 9)
        ; Saved register size: 9
        ; Auto size: 2
        MOV     A,#-0x2
        LCALL   ?ALLOC_XSTACK8
          CFI CFA_XSP16 add(XSP16, 11)
        MOV     A,R4
        MOV     R6,A
        MOV     A,R5
        MOV     R7,A
// 3490   ZStatus_t        status;
// 3491   ZDSecMgrEntry_t* entry;
// 3492 
// 3493 
// 3494   // lookup entry index for specified NWK address
// 3495   status = ZDSecMgrEntryLookupExt( extAddr, &entry );
        ; Setup parameters for call to function ZDSecMgrEntryLookupExt
        MOV     DPL,?XSP + 0
        MOV     DPH,?XSP + 1
        MOV     R4,DPL
        MOV     R5,DPH
        LCALL   ??ZDSecMgrEntryLookupExt?relay
        MOV     A,R1
// 3496 
// 3497   if ( status == ZSuccess )
        JNZ     ??APSME_LinkKeyDataGet_0
// 3498   {
// 3499     // setup the link key data reference
// 3500     (*data) = &entry->lkd.apsmelkd;
        MOV     DPL,?XSP + 0
        MOV     DPH,?XSP + 1
        MOVX    A,@DPTR
        ADD     A,#0x12
        MOV     R2,A
        INC     DPTR
        MOVX    A,@DPTR
        ADDC    A,#0x0
        MOV     R3,A
        MOV     DPL,R6
        MOV     DPH,R7
        LCALL   ?Subroutine36 & 0xFFFF
// 3501     (*data)->key = entry->lkd.key;
??CrossCallReturnLabel_40:
        MOV     DPL,?XSP + 0
        MOV     DPH,?XSP + 1
        LCALL   ?Subroutine50 & 0xFFFF
// 3502   }
??CrossCallReturnLabel_59:
        MOV     DPL,R6
        MOV     DPH,R7
        LCALL   ?Subroutine48 & 0xFFFF
??CrossCallReturnLabel_112:
        MOV     A,R2
        MOVX    @DPTR,A
        INC     DPTR
        MOV     A,R3
        SJMP    ??APSME_LinkKeyDataGet_1
// 3503   else
// 3504   {
// 3505     *data = NULL;
??APSME_LinkKeyDataGet_0:
        MOV     DPL,R6
        MOV     DPH,R7
        CLR     A
        MOVX    @DPTR,A
        INC     DPTR
??APSME_LinkKeyDataGet_1:
        MOVX    @DPTR,A
// 3506   }
// 3507 
// 3508   return status;
        LJMP    ??Subroutine81_0 & 0xFFFF
          CFI EndBlock cfiBlock620
// 3509 }

        RSEG BANKED_CODE:CODE:NOROOT(0)
?Subroutine50:
          CFI Block cfiCond621 Using cfiCommon0
          CFI Function APSME_LinkKeySet
          CFI Conditional ??CrossCallReturnLabel_58
          CFI R6 load(1, XDATA, add(CFA_XSP16, literal(-12)))
          CFI VB load(1, XDATA, add(CFA_XSP16, literal(-11)))
          CFI V0 load(1, XDATA, add(CFA_XSP16, literal(-10)))
          CFI V1 load(1, XDATA, add(CFA_XSP16, literal(-9)))
          CFI V2 load(1, XDATA, add(CFA_XSP16, literal(-8)))
          CFI V3 load(1, XDATA, add(CFA_XSP16, literal(-7)))
          CFI R7 load(1, XDATA, add(CFA_XSP16, literal(-6)))
          CFI ?RET_LOW load(1, XDATA, add(CFA_XSP16, literal(-5)))
          CFI ?RET_HIGH load(1, XDATA, add(CFA_XSP16, literal(-4)))
          CFI ?BRET_EXT load(1, XDATA, add(CFA_XSP16, literal(-3)))
          CFI DPL0 load(1, XDATA, add(CFA_XSP16, literal(-2)))
          CFI DPH0 load(1, XDATA, add(CFA_XSP16, literal(-1)))
          CFI CFA_SP SP+0
          CFI CFA_XSP16 add(XSP16, 17)
          CFI Block cfiCond622 Using cfiCommon0
          CFI (cfiCond622) Function APSME_LinkKeyDataGet
          CFI (cfiCond622) Conditional ??CrossCallReturnLabel_59
          CFI (cfiCond622) R6 load(1, XDATA, add(CFA_XSP16, literal(-9)))
          CFI (cfiCond622) VB load(1, XDATA, add(CFA_XSP16, literal(-8)))
          CFI (cfiCond622) V0 load(1, XDATA, add(CFA_XSP16, literal(-7)))
          CFI (cfiCond622) R7 load(1, XDATA, add(CFA_XSP16, literal(-6)))
          CFI (cfiCond622) ?RET_LOW load(1, XDATA, add(CFA_XSP16, literal(-5)))
          CFI (cfiCond622) ?RET_HIGH load(1, XDATA, add(CFA_XSP16, literal(-4)))
          CFI (cfiCond622) ?BRET_EXT load(1, XDATA, add(CFA_XSP16, literal(-3)))
          CFI (cfiCond622) DPL0 load(1, XDATA, add(CFA_XSP16, literal(-2)))
          CFI (cfiCond622) DPH0 load(1, XDATA, add(CFA_XSP16, literal(-1)))
          CFI (cfiCond622) CFA_SP SP+0
          CFI (cfiCond622) CFA_XSP16 add(XSP16, 11)
          CFI Block cfiPicker623 Using cfiCommon1
          CFI (cfiPicker623) NoFunction
          CFI (cfiPicker623) Picker
        MOVX    A,@DPTR
        ADD     A,#0x2
        MOV     R2,A
        INC     DPTR
        MOVX    A,@DPTR
        ADDC    A,#0x0
        MOV     R3,A
        RET
          CFI EndBlock cfiCond621
          CFI EndBlock cfiCond622
          CFI EndBlock cfiPicker623
// 3510 
// 3511 /******************************************************************************
// 3512  * @fn          ZDSecMgrKeyFwdToChild (stubs APSME_KeyFwdToChild)
// 3513  *
// 3514  * @brief       Verify and process key transportation to child.
// 3515  *
// 3516  * @param       ind - [in] APSME_TransportKeyInd_t
// 3517  *
// 3518  * @return      uint8 - success(TRUE:FALSE)
// 3519  */

        RSEG BANKED_CODE:CODE:NOROOT(0)
// 3520 uint8 ZDSecMgrKeyFwdToChild( APSME_TransportKeyInd_t* ind )
APSME_KeyFwdToChild:
          CFI Block cfiBlock624 Using cfiCommon0
          CFI Function APSME_KeyFwdToChild
        CODE
// 3521 {
        FUNCALL APSME_KeyFwdToChild, AssocGetWithExt
        LOCFRAME ISTACK, 0, STACK
        LOCFRAME PSTACK, 0, STACK
        LOCFRAME XSTACK, 9, STACK
        LOCFRAME IOVERLAY, 0, STATIC
        LOCFRAME DOVERLAY, 0, STATIC
        ARGFRAME ISTACK, 0, STACK
        ARGFRAME PSTACK, 0, STACK
        ARGFRAME XSTACK, 9, STACK
        ARGFRAME IOVERLAY, 0, STATIC
        ARGFRAME DOVERLAY, 0, STATIC
        FUNCALL APSME_KeyFwdToChild, ZDSecMgrAssocDeviceAuth
        LOCFRAME ISTACK, 0, STACK
        LOCFRAME PSTACK, 0, STACK
        LOCFRAME XSTACK, 9, STACK
        LOCFRAME IOVERLAY, 0, STATIC
        LOCFRAME DOVERLAY, 0, STATIC
        ARGFRAME ISTACK, 0, STACK
        ARGFRAME PSTACK, 0, STACK
        ARGFRAME XSTACK, 9, STACK
        ARGFRAME IOVERLAY, 0, STATIC
        ARGFRAME DOVERLAY, 0, STATIC
        MOV     A,#-0x9
        LCALL   ?BANKED_ENTER_XDATA
          CFI DPH0 load(1, XDATA, add(CFA_XSP16, literal(-1)))
          CFI DPL0 load(1, XDATA, add(CFA_XSP16, literal(-2)))
          CFI ?BRET_EXT load(1, XDATA, add(CFA_XSP16, literal(-3)))
          CFI ?RET_HIGH load(1, XDATA, add(CFA_XSP16, literal(-4)))
          CFI ?RET_LOW load(1, XDATA, add(CFA_XSP16, literal(-5)))
          CFI R7 load(1, XDATA, add(CFA_XSP16, literal(-6)))
          CFI V0 load(1, XDATA, add(CFA_XSP16, literal(-7)))
          CFI VB load(1, XDATA, add(CFA_XSP16, literal(-8)))
          CFI R6 load(1, XDATA, add(CFA_XSP16, literal(-9)))
          CFI CFA_SP SP+0
          CFI CFA_XSP16 add(XSP16, 9)
        ; Saved register size: 9
        ; Auto size: 0
// 3522   uint8 success;
// 3523 
// 3524   success = FALSE;
        MOV     R6,#0x0
// 3525 
// 3526   // verify from Trust Center
// 3527   if ( ind->srcAddr == APSME_TRUSTCENTER_NWKADDR )
        MOV     DPL,R2
        MOV     DPH,R3
        LCALL   ??Subroutine100_0 & 0xFFFF
??CrossCallReturnLabel_230:
        JNZ     ??APSME_KeyFwdToChild_0
// 3528   {
// 3529     success = TRUE;
        INC     R6
// 3530 
// 3531     // check for initial NWK key
// 3532     if ( ( ind->keyType == KEY_TYPE_NWK      ) ||
// 3533          ( ind->keyType == 6                 ) ||
// 3534          ( ind->keyType == KEY_TYPE_NWK_HIGH )    )
        MOV     DPL,R2
        MOV     DPH,R3
        INC     DPTR
        INC     DPTR
        MOVX    A,@DPTR
        MOV     R0,A
        MOV     A,R6
        XRL     A,R0
        JZ      ??APSME_KeyFwdToChild_1
        MOV     A,#0x6
        XRL     A,R0
        JZ      ??APSME_KeyFwdToChild_1
        MOV     A,#0x5
        XRL     A,R0
        JNZ     ??APSME_KeyFwdToChild_0
// 3535     {
// 3536       // set association status to authenticated
// 3537       ZDSecMgrAssocDeviceAuth( AssocGetWithExt( ind->dstExtAddr ) );
??APSME_KeyFwdToChild_1:
        ; Setup parameters for call to function ZDSecMgrAssocDeviceAuth
        ; Setup parameters for call to function AssocGetWithExt
        MOV     DPL,R2
        MOV     DPH,R3
        INC     DPTR
        INC     DPTR
        INC     DPTR
        INC     DPTR
        INC     DPTR
        INC     DPTR
        LCALL   ??Subroutine85_0 & 0xFFFF
// 3538     }
// 3539   }
??CrossCallReturnLabel_140:
        LCALL   ??AssocGetWithExt?relay
        LCALL   ??ZDSecMgrAssocDeviceAuth?relay
// 3540 
// 3541   return success;
??APSME_KeyFwdToChild_0:
        MOV     A,R6
        MOV     R1,A
        LJMP    ??Subroutine83_0 & 0xFFFF
          CFI EndBlock cfiBlock624
// 3542 }
// 3543 
// 3544 /******************************************************************************
// 3545  * @fn          ZDSecMgrAddLinkKey
// 3546  *
// 3547  * @brief       Add the application link key to ZDSecMgr. Also mark the device
// 3548  *              as authenticated in the authenticateOption. Note that this function
// 3549  *              is hardwared to CBKE right now.
// 3550  *
// 3551  * @param       shortAddr - short address of the partner device
// 3552  * @param       extAddr - extended address of the partner device
// 3553  * @param       key - link key
// 3554  *
// 3555  * @return      ZStatus_t
// 3556  */

        RSEG BANKED_CODE:CODE:NOROOT(0)
// 3557 ZStatus_t ZDSecMgrAddLinkKey( uint16 shortAddr, uint8 *extAddr, uint8 *key)
ZDSecMgrAddLinkKey:
          CFI Block cfiBlock625 Using cfiCommon0
          CFI Function ZDSecMgrAddLinkKey
        CODE
// 3558 {
        FUNCALL ZDSecMgrAddLinkKey, ZDSecMgrAddrStore
        LOCFRAME ISTACK, 0, STACK
        LOCFRAME PSTACK, 0, STACK
        LOCFRAME XSTACK, 18, STACK
        LOCFRAME IOVERLAY, 0, STATIC
        LOCFRAME DOVERLAY, 0, STATIC
        ARGFRAME ISTACK, 0, STACK
        ARGFRAME PSTACK, 0, STACK
        ARGFRAME XSTACK, 18, STACK
        ARGFRAME IOVERLAY, 0, STATIC
        ARGFRAME DOVERLAY, 0, STATIC
        FUNCALL ZDSecMgrAddLinkKey, ZDSecMgrEntryLookupAMI
        LOCFRAME ISTACK, 0, STACK
        LOCFRAME PSTACK, 0, STACK
        LOCFRAME XSTACK, 16, STACK
        LOCFRAME IOVERLAY, 0, STATIC
        LOCFRAME DOVERLAY, 0, STATIC
        ARGFRAME ISTACK, 0, STACK
        ARGFRAME PSTACK, 0, STACK
        ARGFRAME XSTACK, 16, STACK
        ARGFRAME IOVERLAY, 0, STATIC
        ARGFRAME DOVERLAY, 0, STATIC
        FUNCALL ZDSecMgrAddLinkKey, ZDSecMgrEntryNew
        LOCFRAME ISTACK, 0, STACK
        LOCFRAME PSTACK, 0, STACK
        LOCFRAME XSTACK, 16, STACK
        LOCFRAME IOVERLAY, 0, STATIC
        LOCFRAME DOVERLAY, 0, STATIC
        ARGFRAME ISTACK, 0, STACK
        ARGFRAME PSTACK, 0, STACK
        ARGFRAME XSTACK, 16, STACK
        ARGFRAME IOVERLAY, 0, STATIC
        ARGFRAME DOVERLAY, 0, STATIC
        FUNCALL ZDSecMgrAddLinkKey, APSME_LinkKeySet
        LOCFRAME ISTACK, 0, STACK
        LOCFRAME PSTACK, 0, STACK
        LOCFRAME XSTACK, 16, STACK
        LOCFRAME IOVERLAY, 0, STATIC
        LOCFRAME DOVERLAY, 0, STATIC
        ARGFRAME ISTACK, 0, STACK
        ARGFRAME PSTACK, 0, STACK
        ARGFRAME XSTACK, 16, STACK
        ARGFRAME IOVERLAY, 0, STATIC
        ARGFRAME DOVERLAY, 0, STATIC
        MOV     A,#-0xc
        LCALL   ?BANKED_ENTER_XDATA
          CFI DPH0 load(1, XDATA, add(CFA_XSP16, literal(-1)))
          CFI DPL0 load(1, XDATA, add(CFA_XSP16, literal(-2)))
          CFI ?BRET_EXT load(1, XDATA, add(CFA_XSP16, literal(-3)))
          CFI ?RET_HIGH load(1, XDATA, add(CFA_XSP16, literal(-4)))
          CFI ?RET_LOW load(1, XDATA, add(CFA_XSP16, literal(-5)))
          CFI R7 load(1, XDATA, add(CFA_XSP16, literal(-6)))
          CFI V3 load(1, XDATA, add(CFA_XSP16, literal(-7)))
          CFI V2 load(1, XDATA, add(CFA_XSP16, literal(-8)))
          CFI V1 load(1, XDATA, add(CFA_XSP16, literal(-9)))
          CFI V0 load(1, XDATA, add(CFA_XSP16, literal(-10)))
          CFI VB load(1, XDATA, add(CFA_XSP16, literal(-11)))
          CFI R6 load(1, XDATA, add(CFA_XSP16, literal(-12)))
          CFI CFA_SP SP+0
          CFI CFA_XSP16 add(XSP16, 12)
        ; Saved register size: 12
        ; Auto size: 4
        MOV     A,#-0x4
        LCALL   ?ALLOC_XSTACK8
          CFI CFA_XSP16 add(XSP16, 16)
        MOV     A,R4
        MOV     R6,A
        MOV     A,R5
        MOV     R7,A
        MOV     A,#0x10
        LCALL   ?XSTACK_DISP0_8
        MOVX    A,@DPTR
        MOV     ?V0 + 0,A
        INC     DPTR
        MOVX    A,@DPTR
        MOV     ?V0 + 1,A
// 3559   uint16           ami;
// 3560   ZDSecMgrEntry_t* entry;
// 3561 
// 3562   /* Store the device address in the addr manager */
// 3563   if( ZDSecMgrAddrStore( shortAddr, extAddr, &ami ) != ZSuccess )
        ; Setup parameters for call to function ZDSecMgrAddrStore
        MOV     A,#0x2
        LCALL   ?XSTACK_DISP0_8
        MOV     ?V0 + 2,DPL
        MOV     ?V0 + 3,DPH
        MOV     R0,#?V0 + 2
        LCALL   ?PUSH_XSTACK_I_TWO
          CFI CFA_XSP16 add(XSP16, 18)
        LCALL   ??ZDSecMgrAddrStore?relay
        MOV     A,#0x2
        LCALL   ?DEALLOC_XSTACK8
          CFI CFA_XSP16 add(XSP16, 16)
        MOV     A,R1
        JZ      ??ZDSecMgrAddLinkKey_0
// 3564   {
// 3565     /* Adding to Addr Manager fails */
// 3566     return ZFailure;
        MOV     R1,#0x1
        SJMP    ??ZDSecMgrAddLinkKey_1
// 3567   }
// 3568 
// 3569   /* Lookup entry using specified address index */
// 3570   ZDSecMgrEntryLookupAMI( ami, &entry );
??ZDSecMgrAddLinkKey_0:
        ; Setup parameters for call to function ZDSecMgrEntryLookupAMI
        MOV     DPL,?XSP + 0
        MOV     DPH,?XSP + 1
        MOV     R4,DPL
        MOV     R5,DPH
        MOV     A,#0x2
        LCALL   ?XSTACK_DISP0_8
        LCALL   ??Subroutine85_0 & 0xFFFF
??CrossCallReturnLabel_141:
        LCALL   ??ZDSecMgrEntryLookupAMI?relay
// 3571 
// 3572   // If no existing entry, create one
// 3573   if ( entry == NULL )
        LCALL   ?Subroutine38 & 0xFFFF
??CrossCallReturnLabel_235:
        JNZ     ??CrossCallReturnLabel_164
// 3574   {
// 3575     if ( ZDSecMgrEntryNew( &entry ) == ZSuccess )
        ; Setup parameters for call to function ZDSecMgrEntryNew
        MOV     DPL,?XSP + 0
        MOV     DPH,?XSP + 1
        MOV     R2,DPL
        MOV     R3,DPH
        LCALL   ??ZDSecMgrEntryNew?relay
        MOV     A,R1
        JNZ     ??ZDSecMgrAddLinkKey_2
// 3576     {
// 3577       entry->ami = ami;
        MOV     A,#0x2
        LCALL   ?XSTACK_DISP0_8
        LCALL   ?Subroutine45 & 0xFFFF
// 3578     }
??CrossCallReturnLabel_53:
        MOVX    A,@DPTR
        MOV     R2,A
        INC     DPTR
        MOVX    A,@DPTR
        MOV     DPH,A
        MOV     DPL,R2
        LCALL   ??Subroutine87_0 & 0xFFFF
// 3579     else
// 3580     {
// 3581       /* Security Manager full */
// 3582       return ZBufferFull;
// 3583     }
// 3584   }
// 3585   // Write the link key
// 3586   APSME_LinkKeySet( extAddr, key );
??CrossCallReturnLabel_164:
        ; Setup parameters for call to function APSME_LinkKeySet
        MOV     R4,?V0 + 0
        MOV     R5,?V0 + 1
        MOV     A,R6
        MOV     R2,A
        MOV     A,R7
        MOV     R3,A
        LCALL   ??APSME_LinkKeySet?relay
// 3587 
// 3588 #if defined (TC_LINKKEY_JOIN)
// 3589   // Mark the device as authenticated.
// 3590   ZDSecMgrAuthenticationSet( extAddr, ZDSecMgr_Authenticated_CBCK );
// 3591 #endif
// 3592 
// 3593 #if defined NV_RESTORE
// 3594   ZDSecMgrWriteNV();  // Write the new established link key to NV.
// 3595 #endif
// 3596   
// 3597   return ZSuccess;
        MOV     R1,#0x0
??ZDSecMgrAddLinkKey_1:
        LJMP    ?Subroutine4 & 0xFFFF
??ZDSecMgrAddLinkKey_2:
        MOV     R1,#0x11
        SJMP    ??ZDSecMgrAddLinkKey_1
          CFI EndBlock cfiBlock625
// 3598 }

        RSEG BANKED_CODE:CODE:NOROOT(0)
?Subroutine45:
          CFI Block cfiCond626 Using cfiCommon0
          CFI Function ZDSecMgrSendNwkKey
          CFI Conditional ??CrossCallReturnLabel_52
          CFI R6 load(1, XDATA, add(CFA_XSP16, literal(-12)))
          CFI VB load(1, XDATA, add(CFA_XSP16, literal(-11)))
          CFI V0 load(1, XDATA, add(CFA_XSP16, literal(-10)))
          CFI V1 load(1, XDATA, add(CFA_XSP16, literal(-9)))
          CFI V2 load(1, XDATA, add(CFA_XSP16, literal(-8)))
          CFI V3 load(1, XDATA, add(CFA_XSP16, literal(-7)))
          CFI R7 load(1, XDATA, add(CFA_XSP16, literal(-6)))
          CFI ?RET_LOW load(1, XDATA, add(CFA_XSP16, literal(-5)))
          CFI ?RET_HIGH load(1, XDATA, add(CFA_XSP16, literal(-4)))
          CFI ?BRET_EXT load(1, XDATA, add(CFA_XSP16, literal(-3)))
          CFI DPL0 load(1, XDATA, add(CFA_XSP16, literal(-2)))
          CFI DPH0 load(1, XDATA, add(CFA_XSP16, literal(-1)))
          CFI CFA_SP SP+0
          CFI CFA_XSP16 add(XSP16, 25)
          CFI Block cfiCond627 Using cfiCommon0
          CFI (cfiCond627) Function ZDSecMgrAddLinkKey
          CFI (cfiCond627) Conditional ??CrossCallReturnLabel_53
          CFI (cfiCond627) R6 load(1, XDATA, add(CFA_XSP16, literal(-12)))
          CFI (cfiCond627) VB load(1, XDATA, add(CFA_XSP16, literal(-11)))
          CFI (cfiCond627) V0 load(1, XDATA, add(CFA_XSP16, literal(-10)))
          CFI (cfiCond627) V1 load(1, XDATA, add(CFA_XSP16, literal(-9)))
          CFI (cfiCond627) V2 load(1, XDATA, add(CFA_XSP16, literal(-8)))
          CFI (cfiCond627) V3 load(1, XDATA, add(CFA_XSP16, literal(-7)))
          CFI (cfiCond627) R7 load(1, XDATA, add(CFA_XSP16, literal(-6)))
          CFI (cfiCond627) ?RET_LOW load(1, XDATA, add(CFA_XSP16, literal(-5)))
          CFI (cfiCond627) ?RET_HIGH load(1, XDATA, add(CFA_XSP16, literal(-4)))
          CFI (cfiCond627) ?BRET_EXT load(1, XDATA, add(CFA_XSP16, literal(-3)))
          CFI (cfiCond627) DPL0 load(1, XDATA, add(CFA_XSP16, literal(-2)))
          CFI (cfiCond627) DPH0 load(1, XDATA, add(CFA_XSP16, literal(-1)))
          CFI (cfiCond627) CFA_SP SP+0
          CFI (cfiCond627) CFA_XSP16 add(XSP16, 16)
          CFI Block cfiPicker628 Using cfiCommon1
          CFI (cfiPicker628) NoFunction
          CFI (cfiPicker628) Picker
        LCALL   ??Subroutine96_0 & 0xFFFF
??CrossCallReturnLabel_217:
        MOV     DPL,?XSP + 0
        MOV     DPH,?XSP + 1
        RET
          CFI EndBlock cfiCond626
          CFI EndBlock cfiCond627
          CFI EndBlock cfiPicker628
// 3599 
// 3600 #if defined ( NV_RESTORE )
// 3601 /******************************************************************************
// 3602  * @fn          ZDSecMgrInitNV
// 3603  *
// 3604  * @brief       Initialize the SecMgr entry data in NV.
// 3605  *
// 3606  * @param       none
// 3607  *
// 3608  * @return      uint8 - <osal_nv_item_init> return codes
// 3609  */
// 3610 uint8 ZDSecMgrInitNV(void)
// 3611 {
// 3612   uint8 rtrn = osal_nv_item_init(ZCD_NV_APS_LINK_KEY_TABLE, 
// 3613                 (sizeof(nvDeviceListHdr_t) + (sizeof(ZDSecMgrEntry_t) * ZDSECMGR_ENTRY_MAX)), NULL);
// 3614   if (rtrn != ZSUCCESS)  // If the item does not already exist.
// 3615   {
// 3616     nvDeviceListHdr_t hdr;
// 3617     hdr.numRecs = 0;
// 3618     osal_nv_write(ZCD_NV_APS_LINK_KEY_TABLE, 0, sizeof(nvDeviceListHdr_t), &hdr);
// 3619   }
// 3620 
// 3621   return rtrn;
// 3622 }
// 3623 #endif // NV_RESTORE
// 3624 
// 3625 #if defined ( NV_RESTORE )
// 3626 /*********************************************************************
// 3627  * @fn      ZDSecMgrWriteNV()
// 3628  *
// 3629  * @brief   Save off the link key list to NV
// 3630  *
// 3631  * @param   none
// 3632  *
// 3633  * @return  none
// 3634  */
// 3635 static void ZDSecMgrWriteNV( void )
// 3636 {
// 3637   uint16 i;
// 3638   nvDeviceListHdr_t hdr;
// 3639 
// 3640   hdr.numRecs = 0;
// 3641 
// 3642   if (ZDSecMgrEntries != NULL)
// 3643   {
// 3644     for ( i = 0; i < ZDSECMGR_ENTRY_MAX; i++ )
// 3645     {
// 3646       if ( ZDSecMgrEntries[i].ami != INVALID_NODE_ADDR )
// 3647       {
// 3648         // Save off the record
// 3649         osal_nv_write( ZCD_NV_APS_LINK_KEY_TABLE,
// 3650                 (uint16)((sizeof(nvDeviceListHdr_t)) + (hdr.numRecs * sizeof(ZDSecMgrEntry_t))),
// 3651                         sizeof(ZDSecMgrEntry_t), &ZDSecMgrEntries[i] );
// 3652         hdr.numRecs++;
// 3653       }
// 3654     }
// 3655   }
// 3656 
// 3657   // Save off the header
// 3658   osal_nv_write( ZCD_NV_APS_LINK_KEY_TABLE, 0, sizeof( nvDeviceListHdr_t ), &hdr );
// 3659 }
// 3660 #endif // NV_RESTORE
// 3661 
// 3662 #if defined ( NV_RESTORE )
// 3663 /******************************************************************************
// 3664  * @fn          ZDSecMgrRestoreFromNV
// 3665  *
// 3666  * @brief       Restore the SecMgr entry data from NV.
// 3667  *
// 3668  * @param       none
// 3669  *
// 3670  * @return      None.
// 3671  */
// 3672 static void ZDSecMgrRestoreFromNV( void )
// 3673 {
// 3674   nvDeviceListHdr_t hdr;
// 3675 
// 3676   if ((osal_nv_read(ZCD_NV_APS_LINK_KEY_TABLE, 0, sizeof(nvDeviceListHdr_t), &hdr) == ZSUCCESS) &&
// 3677       (hdr.numRecs <= ZDSECMGR_ENTRY_MAX))
// 3678   {
// 3679     uint8 x;
// 3680 
// 3681     for (x = 0; x < hdr.numRecs; x++)
// 3682     {
// 3683       if ( osal_nv_read( ZCD_NV_APS_LINK_KEY_TABLE,
// 3684                 (uint16)(sizeof(nvDeviceListHdr_t) + (x * sizeof(ZDSecMgrEntry_t))),
// 3685                       sizeof(ZDSecMgrEntry_t), &ZDSecMgrEntries[x] ) == ZSUCCESS )
// 3686       {
// 3687         ZDSecMgrEntries[x].lkd.apsmelkd.txFrmCntr += ( MAX_APS_FRAMECOUNTER_CHANGES + 1 );
// 3688       }
// 3689     }
// 3690   }
// 3691 }
// 3692 #endif // NV_RESTORE
// 3693 
// 3694 /******************************************************************************
// 3695  * @fn          ZDSecMgrAPSRemove
// 3696  *
// 3697  * @brief       Remove device from network.
// 3698  *
// 3699  * @param       nwkAddr - device's NWK address
// 3700  * @param       extAddr - device's Extended address
// 3701  * @param       parentAddr - parent's NWK address
// 3702  *
// 3703  * @return      ZStatus_t
// 3704  */

        RSEG BANKED_CODE:CODE:NOROOT(0)
// 3705 ZStatus_t ZDSecMgrAPSRemove( uint16 nwkAddr, uint8 *extAddr, uint16 parentAddr )
ZDSecMgrAPSRemove:
          CFI Block cfiBlock629 Using cfiCommon0
          CFI Function ZDSecMgrAPSRemove
        CODE
// 3706 {
        FUNCALL ZDSecMgrAPSRemove, ZDSecMgrDeviceRemove
        LOCFRAME ISTACK, 2, STACK
        LOCFRAME PSTACK, 0, STACK
        LOCFRAME XSTACK, 10, STACK
        LOCFRAME IOVERLAY, 0, STATIC
        LOCFRAME DOVERLAY, 0, STATIC
        ARGFRAME ISTACK, 2, STACK
        ARGFRAME PSTACK, 0, STACK
        ARGFRAME XSTACK, 10, STACK
        ARGFRAME IOVERLAY, 0, STATIC
        ARGFRAME DOVERLAY, 0, STATIC
        PUSH    DPL
          CFI DPL0 Frame(CFA_SP, 4)
          CFI CFA_SP SP+-4
        PUSH    DPH
          CFI DPH0 Frame(CFA_SP, 5)
          CFI CFA_SP SP+-5
        ; Saved register size: 2
        ; Auto size: 10
        MOV     A,#-0xa
        LCALL   ?ALLOC_XSTACK8
          CFI CFA_XSP16 add(XSP16, 10)
// 3707   ZDSecMgrDevice_t device;
// 3708 
// 3709   if ( ( nwkAddr == INVALID_NODE_ADDR ) ||
// 3710        ( extAddr == NULL )              ||
// 3711        ( parentAddr == INVALID_NODE_ADDR ) )
        MOV     A,#-0x2
        XRL     A,R2
        JNZ     ??ZDSecMgrAPSRemove_0
        MOV     A,#-0x1
        XRL     A,R3
??ZDSecMgrAPSRemove_0:
        JZ      ??ZDSecMgrAPSRemove_1
        MOV     A,R4
        ORL     A,R5
        JZ      ??ZDSecMgrAPSRemove_1
        MOV     A,#0xa
        LCALL   ?XSTACK_DISP0_8
        LCALL   ??Subroutine95_0 & 0xFFFF
??CrossCallReturnLabel_210:
        MOV     A,#-0x2
        XRL     A,R0
        JNZ     ??ZDSecMgrAPSRemove_2
        MOV     A,#-0x1
        XRL     A,R1
??ZDSecMgrAPSRemove_2:
        JNZ     ??ZDSecMgrAPSRemove_3
// 3712   {
// 3713     return ( ZFailure );
??ZDSecMgrAPSRemove_1:
        MOV     R1,#0x1
        SJMP    ??ZDSecMgrAPSRemove_4
// 3714   }
// 3715 
// 3716   device.nwkAddr = nwkAddr;
??ZDSecMgrAPSRemove_3:
        LCALL   ?Subroutine29 & 0xFFFF
// 3717   device.extAddr = extAddr;
??CrossCallReturnLabel_114:
        LCALL   ?XSTACK_DISP0_8
        MOV     A,R4
        MOVX    @DPTR,A
        INC     DPTR
        MOV     A,R5
        MOVX    @DPTR,A
// 3718   device.parentAddr = parentAddr;
        MOV     A,#0x4
        LCALL   ?XSTACK_DISP0_8
        LCALL   ?Subroutine14 & 0xFFFF
// 3719 
// 3720   // remove device
// 3721   ZDSecMgrDeviceRemove( &device );
??CrossCallReturnLabel_175:
        LCALL   ??ZDSecMgrDeviceRemove?relay
// 3722 
// 3723   return ( ZSuccess );
        MOV     R1,#0x0
??ZDSecMgrAPSRemove_4:
        LJMP    ?Subroutine13 & 0xFFFF
          CFI EndBlock cfiBlock629
// 3724 }
// 3725 
// 3726 /******************************************************************************
// 3727  * @fn          APSME_TCLinkKeyInit
// 3728  *
// 3729  * @brief       Initialize the NV table for preconfigured TC link key
// 3730  *               
// 3731  *              When zgUseDefaultTCL is set to TRUE, the default preconfig
// 3732  *              Trust Center Link Key is written to NV. A single tclk is used   
// 3733  *              by all devices joining the network.
// 3734  *              
// 3735  * @param       none
// 3736  *
// 3737  * @return      none
// 3738  */

        RSEG BANKED_CODE:CODE:NOROOT(0)
// 3739 void APSME_TCLinkKeyInit(void)
APSME_TCLinkKeyInit:
          CFI Block cfiBlock630 Using cfiCommon0
          CFI Function APSME_TCLinkKeyInit
        CODE
// 3740 {
        FUNCALL APSME_TCLinkKeyInit, osal_memset
        LOCFRAME ISTACK, 0, STACK
        LOCFRAME PSTACK, 0, STACK
        LOCFRAME XSTACK, 43, STACK
        LOCFRAME IOVERLAY, 0, STATIC
        LOCFRAME DOVERLAY, 0, STATIC
        ARGFRAME ISTACK, 0, STACK
        ARGFRAME PSTACK, 0, STACK
        ARGFRAME XSTACK, 43, STACK
        ARGFRAME IOVERLAY, 0, STATIC
        ARGFRAME DOVERLAY, 0, STATIC
        FUNCALL APSME_TCLinkKeyInit, osal_memset
        LOCFRAME ISTACK, 0, STACK
        LOCFRAME PSTACK, 0, STACK
        LOCFRAME XSTACK, 43, STACK
        LOCFRAME IOVERLAY, 0, STATIC
        LOCFRAME DOVERLAY, 0, STATIC
        ARGFRAME ISTACK, 0, STACK
        ARGFRAME PSTACK, 0, STACK
        ARGFRAME XSTACK, 43, STACK
        ARGFRAME IOVERLAY, 0, STATIC
        ARGFRAME DOVERLAY, 0, STATIC
        FUNCALL APSME_TCLinkKeyInit, osal_memcpy
        LOCFRAME ISTACK, 0, STACK
        LOCFRAME PSTACK, 0, STACK
        LOCFRAME XSTACK, 46, STACK
        LOCFRAME IOVERLAY, 0, STATIC
        LOCFRAME DOVERLAY, 0, STATIC
        ARGFRAME ISTACK, 0, STACK
        ARGFRAME PSTACK, 0, STACK
        ARGFRAME XSTACK, 46, STACK
        ARGFRAME IOVERLAY, 0, STATIC
        ARGFRAME DOVERLAY, 0, STATIC
        FUNCALL APSME_TCLinkKeyInit, osal_nv_item_init
        LOCFRAME ISTACK, 0, STACK
        LOCFRAME PSTACK, 0, STACK
        LOCFRAME XSTACK, 45, STACK
        LOCFRAME IOVERLAY, 0, STATIC
        LOCFRAME DOVERLAY, 0, STATIC
        ARGFRAME ISTACK, 0, STACK
        ARGFRAME PSTACK, 0, STACK
        ARGFRAME XSTACK, 45, STACK
        ARGFRAME IOVERLAY, 0, STATIC
        ARGFRAME DOVERLAY, 0, STATIC
        FUNCALL APSME_TCLinkKeyInit, osal_nv_item_init
        LOCFRAME ISTACK, 0, STACK
        LOCFRAME PSTACK, 0, STACK
        LOCFRAME XSTACK, 45, STACK
        LOCFRAME IOVERLAY, 0, STATIC
        LOCFRAME DOVERLAY, 0, STATIC
        ARGFRAME ISTACK, 0, STACK
        ARGFRAME PSTACK, 0, STACK
        ARGFRAME XSTACK, 45, STACK
        ARGFRAME IOVERLAY, 0, STATIC
        ARGFRAME DOVERLAY, 0, STATIC
        MOV     A,#-0xb
        LCALL   ?BANKED_ENTER_XDATA
          CFI DPH0 load(1, XDATA, add(CFA_XSP16, literal(-1)))
          CFI DPL0 load(1, XDATA, add(CFA_XSP16, literal(-2)))
          CFI ?BRET_EXT load(1, XDATA, add(CFA_XSP16, literal(-3)))
          CFI ?RET_HIGH load(1, XDATA, add(CFA_XSP16, literal(-4)))
          CFI ?RET_LOW load(1, XDATA, add(CFA_XSP16, literal(-5)))
          CFI R7 load(1, XDATA, add(CFA_XSP16, literal(-6)))
          CFI V2 load(1, XDATA, add(CFA_XSP16, literal(-7)))
          CFI V1 load(1, XDATA, add(CFA_XSP16, literal(-8)))
          CFI V0 load(1, XDATA, add(CFA_XSP16, literal(-9)))
          CFI VB load(1, XDATA, add(CFA_XSP16, literal(-10)))
          CFI R6 load(1, XDATA, add(CFA_XSP16, literal(-11)))
          CFI CFA_SP SP+0
          CFI CFA_XSP16 add(XSP16, 11)
        ; Saved register size: 11
        ; Auto size: 32
        MOV     A,#-0x20
        LCALL   ?ALLOC_XSTACK8
          CFI CFA_XSP16 add(XSP16, 43)
// 3741   uint8             i;
// 3742   APSME_TCLinkKey_t tcLinkKey;
// 3743   
// 3744   // Initialize all NV items for preconfigured tclk with 
// 3745   // extended address all zero, if not exist already.
// 3746   osal_memset( &tcLinkKey, 0x00, sizeof(APSME_TCLinkKey_t) );
        ; Setup parameters for call to function osal_memset
        MOV     R4,#0x20
        MOV     R5,#0x0
        MOV     R1,#0x0
        MOV     DPL,?XSP + 0
        MOV     DPH,?XSP + 1
        MOV     R2,DPL
        MOV     R3,DPH
        LCALL   ??osal_memset?relay
// 3747   for( i = 1; i < ZDSECMGR_TC_DEVICE_MAX; i++ )
// 3748   {
// 3749     osal_nv_item_init( (ZCD_NV_TCLK_TABLE_START + i), 
// 3750                        sizeof(APSME_TCLinkKey_t), &tcLinkKey);
// 3751   }
// 3752   
// 3753   // Initialize the default tclk
// 3754   if( zgUseDefaultTCLK == TRUE )
        MOV     DPTR,#zgUseDefaultTCLK
        MOVX    A,@DPTR
        XRL     A,#0x1
        JNZ     ??APSME_TCLinkKeyInit_0
// 3755   {
// 3756     osal_memset( tcLinkKey.extAddr, 0xFF, Z_EXTADDR_LEN );
        ; Setup parameters for call to function osal_memset
        MOV     R4,#0x8
        MOV     R5,#0x0
        MOV     R1,#-0x1
        MOV     DPL,?XSP + 0
        MOV     DPH,?XSP + 1
        MOV     R2,DPL
        MOV     R3,DPH
        LCALL   ??osal_memset?relay
// 3757     osal_memcpy( tcLinkKey.key, defaultTCLinkKey, SEC_KEY_LEN);
        ; Setup parameters for call to function osal_memcpy
        MOV     ?V0 + 0,#defaultTCLinkKey & 0xff
        MOV     ?V0 + 1,#(defaultTCLinkKey >> 8) & 0xff
        MOV     ?V0 + 2,#-0x80
        MOV     R0,#?V0 + 0
        LCALL   ?PUSH_XSTACK_I_THREE
          CFI CFA_XSP16 add(XSP16, 46)
        MOV     R4,#0x10
        MOV     R5,#0x0
        MOV     A,#0xb
        LCALL   ?XSTACK_DISP0_8
        MOV     R2,DPL
        MOV     R3,DPH
        LCALL   ??osal_memcpy?relay
        MOV     A,#0x3
        LCALL   ?DEALLOC_XSTACK8
          CFI CFA_XSP16 add(XSP16, 43)
// 3758     
// 3759     // If the item doesn't exist in NV memory, create and initialize
// 3760     // it with the default value passed in.
// 3761     osal_nv_item_init( ZCD_NV_TCLK_TABLE_START, sizeof(APSME_TCLinkKey_t), &tcLinkKey );
        ; Setup parameters for call to function osal_nv_item_init
// 3762   }
// 3763   else
// 3764   {
// 3765     osal_nv_item_init( ZCD_NV_TCLK_TABLE_START, sizeof(APSME_TCLinkKey_t), &tcLinkKey);
??APSME_TCLinkKeyInit_0:
        ; Setup parameters for call to function osal_nv_item_init
        MOV     DPL,?XSP + 0
        MOV     DPH,?XSP + 1
        MOV     ?V0 + 0,DPL
        MOV     ?V0 + 1,DPH
        MOV     R0,#?V0 + 0
        LCALL   ?PUSH_XSTACK_I_TWO
          CFI CFA_XSP16 add(XSP16, 45)
        MOV     R4,#0x20
        MOV     R5,#0x0
        MOV     R2,#0x1
        MOV     R3,#0x1
        LCALL   ??osal_nv_item_init?relay
        MOV     A,#0x2
        LCALL   ?DEALLOC_XSTACK8
          CFI CFA_XSP16 add(XSP16, 43)
// 3766   }
// 3767 }
        MOV     A,#0x20
        LJMP    ?Subroutine5 & 0xFFFF
          CFI EndBlock cfiBlock630
// 3768 
// 3769 /******************************************************************************
// 3770  * @fn          APSME_TCLinkKeySync
// 3771  *
// 3772  * @brief       Sync Trust Center LINK key data.
// 3773  *
// 3774  * @param       srcAddr - [in] srcAddr
// 3775  * @param       si      - [in, out] SSP_Info_t
// 3776  *
// 3777  * @return      ZStatus_t
// 3778  */

        RSEG BANKED_CODE:CODE:NOROOT(0)
// 3779 ZStatus_t APSME_TCLinkKeySync( uint16 srcAddr, SSP_Info_t* si )
APSME_TCLinkKeySync:
          CFI Block cfiBlock631 Using cfiCommon0
          CFI Function APSME_TCLinkKeySync
        CODE
// 3780 {
        FUNCALL APSME_TCLinkKeySync, AddrMgrExtAddrValid
        LOCFRAME ISTACK, 0, STACK
        LOCFRAME PSTACK, 0, STACK
        LOCFRAME XSTACK, 48, STACK
        LOCFRAME IOVERLAY, 0, STATIC
        LOCFRAME DOVERLAY, 0, STATIC
        ARGFRAME ISTACK, 0, STACK
        ARGFRAME PSTACK, 0, STACK
        ARGFRAME XSTACK, 48, STACK
        ARGFRAME IOVERLAY, 0, STATIC
        ARGFRAME DOVERLAY, 0, STATIC
        FUNCALL APSME_TCLinkKeySync, APSME_LookupExtAddr
        LOCFRAME ISTACK, 0, STACK
        LOCFRAME PSTACK, 0, STACK
        LOCFRAME XSTACK, 48, STACK
        LOCFRAME IOVERLAY, 0, STATIC
        LOCFRAME DOVERLAY, 0, STATIC
        ARGFRAME ISTACK, 0, STACK
        ARGFRAME PSTACK, 0, STACK
        ARGFRAME XSTACK, 48, STACK
        ARGFRAME IOVERLAY, 0, STATIC
        ARGFRAME DOVERLAY, 0, STATIC
        FUNCALL APSME_TCLinkKeySync, osal_nv_read
        LOCFRAME ISTACK, 0, STACK
        LOCFRAME PSTACK, 0, STACK
        LOCFRAME XSTACK, 52, STACK
        LOCFRAME IOVERLAY, 0, STATIC
        LOCFRAME DOVERLAY, 0, STATIC
        ARGFRAME ISTACK, 0, STACK
        ARGFRAME PSTACK, 0, STACK
        ARGFRAME XSTACK, 52, STACK
        ARGFRAME IOVERLAY, 0, STATIC
        ARGFRAME DOVERLAY, 0, STATIC
        FUNCALL APSME_TCLinkKeySync, AddrMgrExtAddrEqual
        LOCFRAME ISTACK, 0, STACK
        LOCFRAME PSTACK, 0, STACK
        LOCFRAME XSTACK, 48, STACK
        LOCFRAME IOVERLAY, 0, STATIC
        LOCFRAME DOVERLAY, 0, STATIC
        ARGFRAME ISTACK, 0, STACK
        ARGFRAME PSTACK, 0, STACK
        ARGFRAME XSTACK, 48, STACK
        ARGFRAME IOVERLAY, 0, STATIC
        ARGFRAME DOVERLAY, 0, STATIC
        FUNCALL APSME_TCLinkKeySync, APSME_IsDefaultTCLK
        LOCFRAME ISTACK, 0, STACK
        LOCFRAME PSTACK, 0, STACK
        LOCFRAME XSTACK, 48, STACK
        LOCFRAME IOVERLAY, 0, STATIC
        LOCFRAME DOVERLAY, 0, STATIC
        ARGFRAME ISTACK, 0, STACK
        ARGFRAME PSTACK, 0, STACK
        ARGFRAME XSTACK, 48, STACK
        ARGFRAME IOVERLAY, 0, STATIC
        ARGFRAME DOVERLAY, 0, STATIC
        FUNCALL APSME_TCLinkKeySync, osal_memcpy
        LOCFRAME ISTACK, 0, STACK
        LOCFRAME PSTACK, 0, STACK
        LOCFRAME XSTACK, 51, STACK
        LOCFRAME IOVERLAY, 0, STATIC
        LOCFRAME DOVERLAY, 0, STATIC
        ARGFRAME ISTACK, 0, STACK
        ARGFRAME PSTACK, 0, STACK
        ARGFRAME XSTACK, 51, STACK
        ARGFRAME IOVERLAY, 0, STATIC
        ARGFRAME DOVERLAY, 0, STATIC
        FUNCALL APSME_TCLinkKeySync, osal_nv_write
        LOCFRAME ISTACK, 0, STACK
        LOCFRAME PSTACK, 0, STACK
        LOCFRAME XSTACK, 52, STACK
        LOCFRAME IOVERLAY, 0, STATIC
        LOCFRAME DOVERLAY, 0, STATIC
        ARGFRAME ISTACK, 0, STACK
        ARGFRAME PSTACK, 0, STACK
        ARGFRAME XSTACK, 52, STACK
        ARGFRAME IOVERLAY, 0, STATIC
        ARGFRAME DOVERLAY, 0, STATIC
        MOV     A,#-0x10
        LCALL   ?BANKED_ENTER_XDATA
          CFI DPH0 load(1, XDATA, add(CFA_XSP16, literal(-1)))
          CFI DPL0 load(1, XDATA, add(CFA_XSP16, literal(-2)))
          CFI ?BRET_EXT load(1, XDATA, add(CFA_XSP16, literal(-3)))
          CFI ?RET_HIGH load(1, XDATA, add(CFA_XSP16, literal(-4)))
          CFI ?RET_LOW load(1, XDATA, add(CFA_XSP16, literal(-5)))
          CFI R7 load(1, XDATA, add(CFA_XSP16, literal(-6)))
          CFI V7 load(1, XDATA, add(CFA_XSP16, literal(-7)))
          CFI V6 load(1, XDATA, add(CFA_XSP16, literal(-8)))
          CFI V5 load(1, XDATA, add(CFA_XSP16, literal(-9)))
          CFI V4 load(1, XDATA, add(CFA_XSP16, literal(-10)))
          CFI V3 load(1, XDATA, add(CFA_XSP16, literal(-11)))
          CFI V2 load(1, XDATA, add(CFA_XSP16, literal(-12)))
          CFI V1 load(1, XDATA, add(CFA_XSP16, literal(-13)))
          CFI V0 load(1, XDATA, add(CFA_XSP16, literal(-14)))
          CFI VB load(1, XDATA, add(CFA_XSP16, literal(-15)))
          CFI R6 load(1, XDATA, add(CFA_XSP16, literal(-16)))
          CFI CFA_SP SP+0
          CFI CFA_XSP16 add(XSP16, 16)
        ; Saved register size: 16
        ; Auto size: 32
        MOV     A,#-0x20
        LCALL   ?ALLOC_XSTACK8
          CFI CFA_XSP16 add(XSP16, 48)
        MOV     ?V0 + 2,R2
        MOV     ?V0 + 3,R3
        MOV     A,R4
        MOV     R6,A
        MOV     A,R5
        MOV     R7,A
// 3781   ZStatus_t          status = ZSecNoKey;
// 3782   uint8              i;
// 3783   APSME_TCLinkKey_t  tcLinkKey;       
// 3784   
// 3785   // Look up the IEEE address of the trust center if it's available
// 3786   if ( AddrMgrExtAddrValid( si->extAddr ) == false )
        MOV     A,R6
        ADD     A,#0x6
        MOV     ?V0 + 0,A
        MOV     A,R7
        ADDC    A,#0x0
        MOV     ?V0 + 1,A
        ; Setup parameters for call to function AddrMgrExtAddrValid
        MOV     R2,?V0 + 0
        MOV     R3,A
        LCALL   ??AddrMgrExtAddrValid?relay
        MOV     A,R1
        JNZ     ??APSME_TCLinkKeySync_0
// 3787   {
// 3788     APSME_LookupExtAddr( srcAddr, si->extAddr );
        ; Setup parameters for call to function APSME_LookupExtAddr
        MOV     R4,?V0 + 0
        MOV     R5,?V0 + 1
        MOV     R2,?V0 + 2
        MOV     R3,?V0 + 3
        LCALL   ??APSME_LookupExtAddr?relay
// 3789   }
// 3790   
// 3791   // Look up the TC link key associated with the device
// 3792   // or the default TC link key (extAddr is all FFs), whichever is found
// 3793   for( i = 0; i < ZDSECMGR_TC_DEVICE_MAX; i++ )
// 3794   {
// 3795     // Read entry i of the TC link key table from NV
// 3796     osal_nv_read( (ZCD_NV_TCLK_TABLE_START + i), 0, 
// 3797                  sizeof(APSME_TCLinkKey_t), &tcLinkKey );
??APSME_TCLinkKeySync_0:
        ; Setup parameters for call to function osal_nv_read
        MOV     DPL,?XSP + 0
        MOV     DPH,?XSP + 1
        MOV     ?V0 + 2,DPL
        MOV     ?V0 + 3,DPH
        MOV     R0,#?V0 + 2
        LCALL   ?PUSH_XSTACK_I_TWO
          CFI CFA_XSP16 add(XSP16, 50)
        MOV     ?V0 + 2,#0x20
        MOV     ?V0 + 3,#0x0
        MOV     R0,#?V0 + 2
        LCALL   ?PUSH_XSTACK_I_TWO
          CFI CFA_XSP16 add(XSP16, 52)
        MOV     R4,#0x0
        MOV     R5,#0x0
        MOV     R2,#0x1
        MOV     R3,#0x1
        LCALL   ??osal_nv_read?relay
        MOV     A,#0x4
        LCALL   ?DEALLOC_XSTACK8
          CFI CFA_XSP16 add(XSP16, 48)
// 3798     
// 3799     if( AddrMgrExtAddrEqual(si->extAddr, tcLinkKey.extAddr) || 
// 3800         APSME_IsDefaultTCLK(tcLinkKey.extAddr))
        ; Setup parameters for call to function AddrMgrExtAddrEqual
        MOV     DPL,?XSP + 0
        MOV     DPH,?XSP + 1
        MOV     R4,DPL
        MOV     R5,DPH
        MOV     R2,?V0 + 0
        MOV     R3,?V0 + 1
        LCALL   ??AddrMgrExtAddrEqual?relay
        MOV     A,R1
        JNZ     ??APSME_TCLinkKeySync_1
        ; Setup parameters for call to function APSME_IsDefaultTCLK
        MOV     DPL,?XSP + 0
        MOV     DPH,?XSP + 1
        MOV     R2,DPL
        MOV     R3,DPH
        LCALL   ??APSME_IsDefaultTCLK?relay
        MOV     A,R1
        JNZ     $+5
        LJMP    ??APSME_TCLinkKeySync_2 & 0xFFFF
// 3801     {
// 3802       // verify that the incoming frame counter is valid
// 3803       if ( si->frmCntr >= tcLinkKey.rxFrmCntr )
??APSME_TCLinkKeySync_1:
        MOV     A,R6
        ADD     A,#0x12
        MOV     ?V0 + 0,A
        MOV     A,R7
        ADDC    A,#0x0
        MOV     ?V0 + 1,A
        MOV     A,#0x1c
        LCALL   ?XSTACK_DISP0_8
        MOV     R0,#?V0 + 4
        LCALL   ?L_MOV_X
        MOV     DPL,?V0 + 0
        MOV     DPH,?V0 + 1
        MOV     R0,#?V0 + 4
        LCALL   ?UL_GT_X
        JC      ??APSME_TCLinkKeySync_3
// 3804       {
// 3805         // set the key to use
// 3806         osal_memcpy( si->key, tcLinkKey.key, SEC_KEY_LEN );
        ; Setup parameters for call to function osal_memcpy
        MOV     A,#0x8
        LCALL   ?XSTACK_DISP0_8
        MOV     R1,DPL
        MOV     R2,DPH
        MOV     ?V0 + 4,R1
        MOV     ?V0 + 5,R2
        MOV     ?V0 + 6,#0x0
        MOV     R0,#?V0 + 4
        LCALL   ?PUSH_XSTACK_I_THREE
          CFI CFA_XSP16 add(XSP16, 51)
        MOV     R4,#0x10
        MOV     R5,#0x0
        MOV     A,R6
        ADD     A,#0xf
        MOV     DPL,A
        MOV     A,R7
        LCALL   ??Subroutine103_0 & 0xFFFF
??CrossCallReturnLabel_252:
        LCALL   ??Subroutine85_0 & 0xFFFF
??CrossCallReturnLabel_142:
        LCALL   ??osal_memcpy?relay
        MOV     A,#0x3
        LCALL   ?DEALLOC_XSTACK8
          CFI CFA_XSP16 add(XSP16, 48)
// 3807         
// 3808         // update the rx frame counter
// 3809         tcLinkKey.rxFrmCntr = si->frmCntr + 1;
        MOV     DPL,?V0 + 0
        MOV     DPH,?V0 + 1
        MOV     R0,#?V0 + 0
        LCALL   ?L_MOV_X
        MOV     DPTR,#__Constant_1
        MOV     R0,#?V0 + 0
        LCALL   ?L_ADD_X
        MOV     A,#0x1c
        LCALL   ?XSTACK_DISP0_8
        MOV     R0,#?V0 + 0
        LCALL   ?L_MOV_TO_X
// 3810         
// 3811         // Write the tc link key back to the NV
// 3812         osal_nv_write( (ZCD_NV_TCLK_TABLE_START + i), 0, 
// 3813                       sizeof(APSME_TCLinkKey_t), &tcLinkKey );
        ; Setup parameters for call to function osal_nv_write
        MOV     DPL,?XSP + 0
        MOV     DPH,?XSP + 1
        MOV     ?V0 + 0,DPL
        MOV     ?V0 + 1,DPH
        MOV     R0,#?V0 + 0
        LCALL   ?PUSH_XSTACK_I_TWO
          CFI CFA_XSP16 add(XSP16, 50)
        MOV     ?V0 + 0,#0x20
        MOV     ?V0 + 1,#0x0
        MOV     R0,#?V0 + 0
        LCALL   ?PUSH_XSTACK_I_TWO
          CFI CFA_XSP16 add(XSP16, 52)
        MOV     R4,#0x0
        MOV     R5,#0x0
        MOV     R2,#0x1
        MOV     R3,#0x1
        LCALL   ??osal_nv_write?relay
        MOV     A,#0x4
        LCALL   ?DEALLOC_XSTACK8
          CFI CFA_XSP16 add(XSP16, 48)
// 3814         
// 3815         status = ZSuccess;
        MOV     R1,#0x0
        SJMP    ??APSME_TCLinkKeySync_4
// 3816         
// 3817       }
// 3818       else
// 3819       {
// 3820         status = ZSecOldFrmCount;
??APSME_TCLinkKeySync_3:
        MOV     R1,#-0x5e
// 3821       }
// 3822       
// 3823       return status;
        SJMP    ??APSME_TCLinkKeySync_4
// 3824     }
// 3825   }
// 3826   
// 3827   
// 3828   return status;
??APSME_TCLinkKeySync_2:
        MOV     R1,#-0x5f
??APSME_TCLinkKeySync_4:
        MOV     A,#0x20
        LCALL   ?DEALLOC_XSTACK8
          CFI CFA_XSP16 add(XSP16, 16)
        MOV     R7,#0x8
        LJMP    ?BANKED_LEAVE_XDATA
          CFI EndBlock cfiBlock631
// 3829 }
// 3830 
// 3831 /******************************************************************************
// 3832  * @fn          APSME_TCLinkKeyLoad
// 3833  *
// 3834  * @brief       Load Trust Center LINK key data.
// 3835  *
// 3836  * @param       dstAddr - [in] dstAddr
// 3837  * @param       si      - [in, out] SSP_Info_t
// 3838  *
// 3839  * @return      ZStatus_t
// 3840  */

        RSEG BANKED_CODE:CODE:NOROOT(0)
// 3841 ZStatus_t APSME_TCLinkKeyLoad( uint16 dstAddr, SSP_Info_t* si )
APSME_TCLinkKeyLoad:
          CFI Block cfiBlock632 Using cfiCommon0
          CFI Function APSME_TCLinkKeyLoad
        CODE
// 3842 {
        FUNCALL APSME_TCLinkKeyLoad, APSME_LookupExtAddr
        LOCFRAME ISTACK, 0, STACK
        LOCFRAME PSTACK, 0, STACK
        LOCFRAME XSTACK, 60, STACK
        LOCFRAME IOVERLAY, 0, STATIC
        LOCFRAME DOVERLAY, 0, STATIC
        ARGFRAME ISTACK, 0, STACK
        ARGFRAME PSTACK, 0, STACK
        ARGFRAME XSTACK, 60, STACK
        ARGFRAME IOVERLAY, 0, STATIC
        ARGFRAME DOVERLAY, 0, STATIC
        FUNCALL APSME_TCLinkKeyLoad, AddrMgrExtAddrValid
        LOCFRAME ISTACK, 0, STACK
        LOCFRAME PSTACK, 0, STACK
        LOCFRAME XSTACK, 60, STACK
        LOCFRAME IOVERLAY, 0, STATIC
        LOCFRAME DOVERLAY, 0, STATIC
        ARGFRAME ISTACK, 0, STACK
        ARGFRAME PSTACK, 0, STACK
        ARGFRAME XSTACK, 60, STACK
        ARGFRAME IOVERLAY, 0, STATIC
        ARGFRAME DOVERLAY, 0, STATIC
        FUNCALL APSME_TCLinkKeyLoad, osal_nv_read
        LOCFRAME ISTACK, 0, STACK
        LOCFRAME PSTACK, 0, STACK
        LOCFRAME XSTACK, 64, STACK
        LOCFRAME IOVERLAY, 0, STATIC
        LOCFRAME DOVERLAY, 0, STATIC
        ARGFRAME ISTACK, 0, STACK
        ARGFRAME PSTACK, 0, STACK
        ARGFRAME XSTACK, 64, STACK
        ARGFRAME IOVERLAY, 0, STATIC
        ARGFRAME DOVERLAY, 0, STATIC
        FUNCALL APSME_TCLinkKeyLoad, AddrMgrExtAddrEqual
        LOCFRAME ISTACK, 0, STACK
        LOCFRAME PSTACK, 0, STACK
        LOCFRAME XSTACK, 60, STACK
        LOCFRAME IOVERLAY, 0, STATIC
        LOCFRAME DOVERLAY, 0, STATIC
        ARGFRAME ISTACK, 0, STACK
        ARGFRAME PSTACK, 0, STACK
        ARGFRAME XSTACK, 60, STACK
        ARGFRAME IOVERLAY, 0, STATIC
        ARGFRAME DOVERLAY, 0, STATIC
        FUNCALL APSME_TCLinkKeyLoad, APSME_IsDefaultTCLK
        LOCFRAME ISTACK, 0, STACK
        LOCFRAME PSTACK, 0, STACK
        LOCFRAME XSTACK, 60, STACK
        LOCFRAME IOVERLAY, 0, STATIC
        LOCFRAME DOVERLAY, 0, STATIC
        ARGFRAME ISTACK, 0, STACK
        ARGFRAME PSTACK, 0, STACK
        ARGFRAME XSTACK, 60, STACK
        ARGFRAME IOVERLAY, 0, STATIC
        ARGFRAME DOVERLAY, 0, STATIC
        FUNCALL APSME_TCLinkKeyLoad, osal_memcpy
        LOCFRAME ISTACK, 0, STACK
        LOCFRAME PSTACK, 0, STACK
        LOCFRAME XSTACK, 63, STACK
        LOCFRAME IOVERLAY, 0, STATIC
        LOCFRAME DOVERLAY, 0, STATIC
        ARGFRAME ISTACK, 0, STACK
        ARGFRAME PSTACK, 0, STACK
        ARGFRAME XSTACK, 63, STACK
        ARGFRAME IOVERLAY, 0, STATIC
        ARGFRAME DOVERLAY, 0, STATIC
        FUNCALL APSME_TCLinkKeyLoad, osal_nv_write
        LOCFRAME ISTACK, 0, STACK
        LOCFRAME PSTACK, 0, STACK
        LOCFRAME XSTACK, 64, STACK
        LOCFRAME IOVERLAY, 0, STATIC
        LOCFRAME DOVERLAY, 0, STATIC
        ARGFRAME ISTACK, 0, STACK
        ARGFRAME PSTACK, 0, STACK
        ARGFRAME XSTACK, 64, STACK
        ARGFRAME IOVERLAY, 0, STATIC
        ARGFRAME DOVERLAY, 0, STATIC
        FUNCALL APSME_TCLinkKeyLoad, AddrMgrEntryLookupNwk
        LOCFRAME ISTACK, 0, STACK
        LOCFRAME PSTACK, 0, STACK
        LOCFRAME XSTACK, 60, STACK
        LOCFRAME IOVERLAY, 0, STATIC
        LOCFRAME DOVERLAY, 0, STATIC
        ARGFRAME ISTACK, 0, STACK
        ARGFRAME PSTACK, 0, STACK
        ARGFRAME XSTACK, 60, STACK
        ARGFRAME IOVERLAY, 0, STATIC
        ARGFRAME DOVERLAY, 0, STATIC
        FUNCALL APSME_TCLinkKeyLoad, AddrMgrEntryRelease
        LOCFRAME ISTACK, 0, STACK
        LOCFRAME PSTACK, 0, STACK
        LOCFRAME XSTACK, 60, STACK
        LOCFRAME IOVERLAY, 0, STATIC
        LOCFRAME DOVERLAY, 0, STATIC
        ARGFRAME ISTACK, 0, STACK
        ARGFRAME PSTACK, 0, STACK
        ARGFRAME XSTACK, 60, STACK
        ARGFRAME IOVERLAY, 0, STATIC
        ARGFRAME DOVERLAY, 0, STATIC
        MOV     A,#-0xf
        LCALL   ?BANKED_ENTER_XDATA
          CFI DPH0 load(1, XDATA, add(CFA_XSP16, literal(-1)))
          CFI DPL0 load(1, XDATA, add(CFA_XSP16, literal(-2)))
          CFI ?BRET_EXT load(1, XDATA, add(CFA_XSP16, literal(-3)))
          CFI ?RET_HIGH load(1, XDATA, add(CFA_XSP16, literal(-4)))
          CFI ?RET_LOW load(1, XDATA, add(CFA_XSP16, literal(-5)))
          CFI R7 load(1, XDATA, add(CFA_XSP16, literal(-6)))
          CFI V6 load(1, XDATA, add(CFA_XSP16, literal(-7)))
          CFI V5 load(1, XDATA, add(CFA_XSP16, literal(-8)))
          CFI V4 load(1, XDATA, add(CFA_XSP16, literal(-9)))
          CFI V3 load(1, XDATA, add(CFA_XSP16, literal(-10)))
          CFI V2 load(1, XDATA, add(CFA_XSP16, literal(-11)))
          CFI V1 load(1, XDATA, add(CFA_XSP16, literal(-12)))
          CFI V0 load(1, XDATA, add(CFA_XSP16, literal(-13)))
          CFI VB load(1, XDATA, add(CFA_XSP16, literal(-14)))
          CFI R6 load(1, XDATA, add(CFA_XSP16, literal(-15)))
          CFI CFA_SP SP+0
          CFI CFA_XSP16 add(XSP16, 15)
        ; Saved register size: 15
        ; Auto size: 45
        MOV     A,#-0x2d
        LCALL   ?ALLOC_XSTACK8
          CFI CFA_XSP16 add(XSP16, 60)
        MOV     ?V0 + 0,R4
        MOV     ?V0 + 1,R5
// 3843   uint8              i;
// 3844   APSME_TCLinkKey_t  tcLinkKey;
// 3845   AddrMgrEntry_t     addrEntry;  
// 3846   
// 3847   // Look up the ami of the srcAddr if available
// 3848   addrEntry.user    = ADDRMGR_USER_DEFAULT;
        MOV     DPL,?XSP + 0
        MOV     DPH,?XSP + 1
        CLR     A
        MOVX    @DPTR,A
// 3849   addrEntry.nwkAddr = dstAddr;
        INC     A
        LCALL   ?XSTACK_DISP0_8
        LCALL   ?Subroutine36 & 0xFFFF
// 3850 
// 3851   APSME_LookupExtAddr( dstAddr, si->extAddr );
??CrossCallReturnLabel_41:
        MOV     A,R4
        ADD     A,#0x6
        MOV     R6,A
        MOV     A,R5
        ADDC    A,#0x0
        MOV     R7,A
        ; Setup parameters for call to function APSME_LookupExtAddr
        MOV     A,R6
        MOV     R4,A
        MOV     A,R7
        MOV     R5,A
        LCALL   ??APSME_LookupExtAddr?relay
// 3852 
// 3853   if ( AddrMgrExtAddrValid( si->extAddr ) == TRUE )
        ; Setup parameters for call to function AddrMgrExtAddrValid
        MOV     A,R6
        MOV     R2,A
        MOV     A,R7
        MOV     R3,A
        LCALL   ??AddrMgrExtAddrValid?relay
        MOV     A,R1
        XRL     A,#0x1
        JZ      $+5
        LJMP    ??APSME_TCLinkKeyLoad_0 & 0xFFFF
// 3854   {
// 3855     // Look up the TC link key associated with the device
// 3856     // or the master TC link key (ami = 0xFFFF), whichever is found
// 3857     for( i = 0; i < ZDSECMGR_TC_DEVICE_MAX; i++ )
// 3858     {
// 3859       // Read entry i of the TC link key table from NV
// 3860       osal_nv_read( (ZCD_NV_TCLK_TABLE_START + i), 0, 
// 3861                    sizeof(APSME_TCLinkKey_t), &tcLinkKey );
        ; Setup parameters for call to function osal_nv_read
        MOV     A,#0xd
        LCALL   ?XSTACK_DISP0_8
        MOV     ?V0 + 2,DPL
        MOV     ?V0 + 3,DPH
        MOV     R0,#?V0 + 2
        LCALL   ?PUSH_XSTACK_I_TWO
          CFI CFA_XSP16 add(XSP16, 62)
        MOV     ?V0 + 2,#0x20
        MOV     ?V0 + 3,#0x0
        MOV     R0,#?V0 + 2
        LCALL   ?PUSH_XSTACK_I_TWO
          CFI CFA_XSP16 add(XSP16, 64)
        MOV     R4,#0x0
        MOV     R5,#0x0
        MOV     R2,#0x1
        MOV     R3,#0x1
        LCALL   ??osal_nv_read?relay
        MOV     A,#0x4
        LCALL   ?DEALLOC_XSTACK8
          CFI CFA_XSP16 add(XSP16, 60)
// 3862       
// 3863       if( AddrMgrExtAddrEqual(si->extAddr, tcLinkKey.extAddr) || 
// 3864          APSME_IsDefaultTCLK(tcLinkKey.extAddr))
        ; Setup parameters for call to function AddrMgrExtAddrEqual
        MOV     A,#0xd
        LCALL   ?XSTACK_DISP0_8
        MOV     R4,DPL
        MOV     R5,DPH
        MOV     A,R6
        MOV     R2,A
        MOV     A,R7
        MOV     R3,A
        LCALL   ??AddrMgrExtAddrEqual?relay
        MOV     A,R1
        JNZ     ??APSME_TCLinkKeyLoad_1
        ; Setup parameters for call to function APSME_IsDefaultTCLK
        MOV     A,#0xd
        LCALL   ?XSTACK_DISP0_8
        MOV     R2,DPL
        MOV     R3,DPH
        LCALL   ??APSME_IsDefaultTCLK?relay
        MOV     A,R1
        JNZ     $+5
        LJMP    ??APSME_TCLinkKeyLoad_0 & 0xFFFF
// 3865       {
// 3866         // set the key to use
// 3867         osal_memcpy( si->key, tcLinkKey.key, SEC_KEY_LEN);  
??APSME_TCLinkKeyLoad_1:
        ; Setup parameters for call to function osal_memcpy
        MOV     A,#0x15
        LCALL   ?XSTACK_DISP0_8
        MOV     R1,DPL
        MOV     R2,DPH
        MOV     ?V0 + 4,R1
        MOV     ?V0 + 5,R2
        MOV     ?V0 + 6,#0x0
        MOV     R0,#?V0 + 4
        LCALL   ?PUSH_XSTACK_I_THREE
          CFI CFA_XSP16 add(XSP16, 63)
        MOV     R4,#0x10
        MOV     R5,#0x0
        MOV     A,?V0 + 0
        ADD     A,#0xf
        MOV     DPL,A
        MOV     A,?V0 + 1
        LCALL   ??Subroutine103_0 & 0xFFFF
??CrossCallReturnLabel_253:
        LCALL   ??Subroutine85_0 & 0xFFFF
??CrossCallReturnLabel_143:
        LCALL   ??osal_memcpy?relay
        MOV     A,#0x3
        LCALL   ?DEALLOC_XSTACK8
          CFI CFA_XSP16 add(XSP16, 60)
// 3868         
// 3869         // update link key related fields
// 3870         si->keyID   = SEC_KEYID_LINK;
        MOV     A,?V0 + 0
        ADD     A,#0xe
        MOV     DPL,A
        MOV     A,?V0 + 1
        LCALL   ??Subroutine103_0 & 0xFFFF
??CrossCallReturnLabel_254:
        CLR     A
        MOVX    @DPTR,A
// 3871         si->frmCntr = tcLinkKey.txFrmCntr;
        MOV     A,#0x25
        LCALL   ?XSTACK_DISP0_8
        LCALL   ?XLOAD_R2345
        MOV     A,?V0 + 0
        ADD     A,#0x12
        MOV     DPL,A
        MOV     A,?V0 + 1
        LCALL   ??Subroutine103_0 & 0xFFFF
??CrossCallReturnLabel_255:
        LCALL   ?XSTORE_R2345
// 3872       
// 3873         // update outgoing frame counter
// 3874         tcLinkKey.txFrmCntr++;
        MOV     DPTR,#__Constant_1
        MOV     R0,#?V0 + 0
        LCALL   ?L_MOV_X
        MOV     A,#0x25
        LCALL   ?XSTACK_DISP0_8
        MOV     R0,#?V0 + 0
        LCALL   ?L_ADD_TO_X
// 3875         
// 3876         // Write the tc link key back to the NV
// 3877         osal_nv_write( (ZCD_NV_TCLK_TABLE_START + i), 0, 
// 3878                       sizeof(APSME_TCLinkKey_t), &tcLinkKey );
        ; Setup parameters for call to function osal_nv_write
        MOV     A,#0xd
        LCALL   ?XSTACK_DISP0_8
        MOV     ?V0 + 0,DPL
        MOV     ?V0 + 1,DPH
        MOV     R0,#?V0 + 0
        LCALL   ?PUSH_XSTACK_I_TWO
          CFI CFA_XSP16 add(XSP16, 62)
        MOV     ?V0 + 0,#0x20
        MOV     ?V0 + 1,#0x0
        MOV     R0,#?V0 + 0
        LCALL   ?PUSH_XSTACK_I_TWO
          CFI CFA_XSP16 add(XSP16, 64)
        MOV     R4,#0x0
        MOV     R5,#0x0
        MOV     R2,#0x1
        MOV     R3,#0x1
        LCALL   ??osal_nv_write?relay
        MOV     A,#0x4
        LCALL   ?DEALLOC_XSTACK8
          CFI CFA_XSP16 add(XSP16, 60)
// 3879         
// 3880         return ZSuccess;
        MOV     R1,#0x0
        SJMP    ??APSME_TCLinkKeyLoad_2
// 3881       }
// 3882     }
// 3883   }
// 3884     
// 3885   // If no TC link key found, remove the device from the address manager
// 3886   if ( AddrMgrEntryLookupNwk( &addrEntry ) == TRUE )
??APSME_TCLinkKeyLoad_0:
        ; Setup parameters for call to function AddrMgrEntryLookupNwk
        MOV     DPL,?XSP + 0
        MOV     DPH,?XSP + 1
        MOV     R2,DPL
        MOV     R3,DPH
        LCALL   ??AddrMgrEntryLookupNwk?relay
        MOV     A,R1
        XRL     A,#0x1
        JNZ     ??APSME_TCLinkKeyLoad_3
// 3887   {
// 3888     AddrMgrEntryRelease( &addrEntry );
        ; Setup parameters for call to function AddrMgrEntryRelease
        MOV     DPL,?XSP + 0
        MOV     DPH,?XSP + 1
        MOV     R2,DPL
        MOV     R3,DPH
        LCALL   ??AddrMgrEntryRelease?relay
// 3889   }
// 3890 
// 3891   return ZSecNoKey;
??APSME_TCLinkKeyLoad_3:
        MOV     R1,#-0x5f
??APSME_TCLinkKeyLoad_2:
        MOV     A,#0x2d
        LCALL   ?DEALLOC_XSTACK8
          CFI CFA_XSP16 add(XSP16, 15)
        LJMP    ?Subroutine3 & 0xFFFF
          CFI EndBlock cfiBlock632
// 3892 }

        RSEG BANKED_CODE:CODE:NOROOT(0)
?Subroutine59:
          CFI Block cfiCond633 Using cfiCommon0
          CFI Function ZDSecMgrDeviceCtrlHandler
          CFI Conditional ??CrossCallReturnLabel_257
          CFI R6 load(1, XDATA, add(CFA_XSP16, literal(-9)))
          CFI VB load(1, XDATA, add(CFA_XSP16, literal(-8)))
          CFI V0 load(1, XDATA, add(CFA_XSP16, literal(-7)))
          CFI R7 load(1, XDATA, add(CFA_XSP16, literal(-6)))
          CFI ?RET_LOW load(1, XDATA, add(CFA_XSP16, literal(-5)))
          CFI ?RET_HIGH load(1, XDATA, add(CFA_XSP16, literal(-4)))
          CFI ?BRET_EXT load(1, XDATA, add(CFA_XSP16, literal(-3)))
          CFI DPL0 load(1, XDATA, add(CFA_XSP16, literal(-2)))
          CFI DPH0 load(1, XDATA, add(CFA_XSP16, literal(-1)))
          CFI CFA_SP SP+0
          CFI CFA_XSP16 add(XSP16, 9)
          CFI Block cfiCond634 Using cfiCommon0
          CFI (cfiCond634) Function ZDSecMgrDeviceCtrlUpdate
          CFI (cfiCond634) Conditional ??CrossCallReturnLabel_258
          CFI (cfiCond634) R6 load(1, XDATA, add(CFA_XSP16, literal(-9)))
          CFI (cfiCond634) VB load(1, XDATA, add(CFA_XSP16, literal(-8)))
          CFI (cfiCond634) V0 load(1, XDATA, add(CFA_XSP16, literal(-7)))
          CFI (cfiCond634) R7 load(1, XDATA, add(CFA_XSP16, literal(-6)))
          CFI (cfiCond634) ?RET_LOW load(1, XDATA, add(CFA_XSP16, literal(-5)))
          CFI (cfiCond634) ?RET_HIGH load(1, XDATA, add(CFA_XSP16, literal(-4)))
          CFI (cfiCond634) ?BRET_EXT load(1, XDATA, add(CFA_XSP16, literal(-3)))
          CFI (cfiCond634) DPL0 load(1, XDATA, add(CFA_XSP16, literal(-2)))
          CFI (cfiCond634) DPH0 load(1, XDATA, add(CFA_XSP16, literal(-1)))
          CFI (cfiCond634) CFA_SP SP+0
          CFI (cfiCond634) CFA_XSP16 add(XSP16, 13)
          CFI Block cfiPicker635 Using cfiCommon1
          CFI (cfiPicker635) NoFunction
          CFI (cfiPicker635) Picker
        ADD     A,#0x6
          CFI EndBlock cfiCond633
          CFI EndBlock cfiCond634
          CFI EndBlock cfiPicker635
        REQUIRE ??Subroutine102_0
        ; // Fall through to label ??Subroutine102_0

        RSEG BANKED_CODE:CODE:NOROOT(0)
??Subroutine102_0:
          CFI Block cfiCond636 Using cfiCommon0
          CFI Function ZDSecMgrAuthenticationSet
          CFI Conditional ??CrossCallReturnLabel_256
          CFI R6 load(1, XDATA, add(CFA_XSP16, literal(-9)))
          CFI VB load(1, XDATA, add(CFA_XSP16, literal(-8)))
          CFI V0 load(1, XDATA, add(CFA_XSP16, literal(-7)))
          CFI R7 load(1, XDATA, add(CFA_XSP16, literal(-6)))
          CFI ?RET_LOW load(1, XDATA, add(CFA_XSP16, literal(-5)))
          CFI ?RET_HIGH load(1, XDATA, add(CFA_XSP16, literal(-4)))
          CFI ?BRET_EXT load(1, XDATA, add(CFA_XSP16, literal(-3)))
          CFI DPL0 load(1, XDATA, add(CFA_XSP16, literal(-2)))
          CFI DPH0 load(1, XDATA, add(CFA_XSP16, literal(-1)))
          CFI CFA_SP SP+0
          CFI CFA_XSP16 add(XSP16, 11)
          CFI Block cfiCond637 Using cfiCommon0
          CFI (cfiCond637) Function ZDSecMgrDeviceCtrlHandler
          CFI (cfiCond637) Conditional ??CrossCallReturnLabel_257
          CFI (cfiCond637) R6 load(1, XDATA, add(CFA_XSP16, literal(-9)))
          CFI (cfiCond637) VB load(1, XDATA, add(CFA_XSP16, literal(-8)))
          CFI (cfiCond637) V0 load(1, XDATA, add(CFA_XSP16, literal(-7)))
          CFI (cfiCond637) R7 load(1, XDATA, add(CFA_XSP16, literal(-6)))
          CFI (cfiCond637) ?RET_LOW load(1, XDATA, add(CFA_XSP16, literal(-5)))
          CFI (cfiCond637) ?RET_HIGH load(1, XDATA, add(CFA_XSP16, literal(-4)))
          CFI (cfiCond637) ?BRET_EXT load(1, XDATA, add(CFA_XSP16, literal(-3)))
          CFI (cfiCond637) DPL0 load(1, XDATA, add(CFA_XSP16, literal(-2)))
          CFI (cfiCond637) DPH0 load(1, XDATA, add(CFA_XSP16, literal(-1)))
          CFI (cfiCond637) CFA_SP SP+0
          CFI (cfiCond637) CFA_XSP16 add(XSP16, 9)
          CFI Block cfiCond638 Using cfiCommon0
          CFI (cfiCond638) Function ZDSecMgrDeviceCtrlUpdate
          CFI (cfiCond638) Conditional ??CrossCallReturnLabel_258
          CFI (cfiCond638) R6 load(1, XDATA, add(CFA_XSP16, literal(-9)))
          CFI (cfiCond638) VB load(1, XDATA, add(CFA_XSP16, literal(-8)))
          CFI (cfiCond638) V0 load(1, XDATA, add(CFA_XSP16, literal(-7)))
          CFI (cfiCond638) R7 load(1, XDATA, add(CFA_XSP16, literal(-6)))
          CFI (cfiCond638) ?RET_LOW load(1, XDATA, add(CFA_XSP16, literal(-5)))
          CFI (cfiCond638) ?RET_HIGH load(1, XDATA, add(CFA_XSP16, literal(-4)))
          CFI (cfiCond638) ?BRET_EXT load(1, XDATA, add(CFA_XSP16, literal(-3)))
          CFI (cfiCond638) DPL0 load(1, XDATA, add(CFA_XSP16, literal(-2)))
          CFI (cfiCond638) DPH0 load(1, XDATA, add(CFA_XSP16, literal(-1)))
          CFI (cfiCond638) CFA_SP SP+0
          CFI (cfiCond638) CFA_XSP16 add(XSP16, 13)
          CFI Block cfiPicker639 Using cfiCommon1
          CFI (cfiPicker639) NoFunction
          CFI (cfiPicker639) Picker
        MOV     DPL,A
        MOV     A,R0
          CFI EndBlock cfiCond636
          CFI EndBlock cfiCond637
          CFI EndBlock cfiCond638
          CFI EndBlock cfiPicker639
        REQUIRE ??Subroutine103_0
        ; // Fall through to label ??Subroutine103_0

        RSEG BANKED_CODE:CODE:NOROOT(0)
??Subroutine103_0:
          CFI Block cfiCond640 Using cfiCommon0
          CFI Function ZDSecMgrEntryNew
          CFI Conditional ??CrossCallReturnLabel_249
          CFI R6 load(1, XDATA, add(CFA_XSP16, literal(-10)))
          CFI VB load(1, XDATA, add(CFA_XSP16, literal(-9)))
          CFI V0 load(1, XDATA, add(CFA_XSP16, literal(-8)))
          CFI V1 load(1, XDATA, add(CFA_XSP16, literal(-7)))
          CFI R7 load(1, XDATA, add(CFA_XSP16, literal(-6)))
          CFI ?RET_LOW load(1, XDATA, add(CFA_XSP16, literal(-5)))
          CFI ?RET_HIGH load(1, XDATA, add(CFA_XSP16, literal(-4)))
          CFI ?BRET_EXT load(1, XDATA, add(CFA_XSP16, literal(-3)))
          CFI DPL0 load(1, XDATA, add(CFA_XSP16, literal(-2)))
          CFI DPH0 load(1, XDATA, add(CFA_XSP16, literal(-1)))
          CFI CFA_SP SP+0
          CFI CFA_XSP16 add(XSP16, 10)
          CFI Block cfiCond641 Using cfiCommon0
          CFI (cfiCond641) Function ZDSecMgrTransportKeyInd
          CFI (cfiCond641) Conditional ??CrossCallReturnLabel_250
          CFI (cfiCond641) R6 load(1, XDATA, add(CFA_XSP16, literal(-10)))
          CFI (cfiCond641) VB load(1, XDATA, add(CFA_XSP16, literal(-9)))
          CFI (cfiCond641) V0 load(1, XDATA, add(CFA_XSP16, literal(-8)))
          CFI (cfiCond641) V1 load(1, XDATA, add(CFA_XSP16, literal(-7)))
          CFI (cfiCond641) R7 load(1, XDATA, add(CFA_XSP16, literal(-6)))
          CFI (cfiCond641) ?RET_LOW load(1, XDATA, add(CFA_XSP16, literal(-5)))
          CFI (cfiCond641) ?RET_HIGH load(1, XDATA, add(CFA_XSP16, literal(-4)))
          CFI (cfiCond641) ?BRET_EXT load(1, XDATA, add(CFA_XSP16, literal(-3)))
          CFI (cfiCond641) DPL0 load(1, XDATA, add(CFA_XSP16, literal(-2)))
          CFI (cfiCond641) DPH0 load(1, XDATA, add(CFA_XSP16, literal(-1)))
          CFI (cfiCond641) CFA_SP SP+0
          CFI (cfiCond641) CFA_XSP16 add(XSP16, 10)
          CFI Block cfiCond642 Using cfiCommon0
          CFI (cfiCond642) Function ZDSecMgrUpdateDeviceInd
          CFI (cfiCond642) Conditional ??CrossCallReturnLabel_251
          CFI (cfiCond642) DPL0 Frame(CFA_SP, 4)
          CFI (cfiCond642) DPH0 Frame(CFA_SP, 5)
          CFI (cfiCond642) CFA_SP SP+-5
          CFI (cfiCond642) CFA_XSP16 add(XSP16, 10)
          CFI Block cfiCond643 Using cfiCommon0
          CFI (cfiCond643) Function APSME_TCLinkKeySync
          CFI (cfiCond643) Conditional ??CrossCallReturnLabel_252
          CFI (cfiCond643) R6 load(1, XDATA, add(CFA_XSP16, literal(-16)))
          CFI (cfiCond643) VB load(1, XDATA, add(CFA_XSP16, literal(-15)))
          CFI (cfiCond643) V0 load(1, XDATA, add(CFA_XSP16, literal(-14)))
          CFI (cfiCond643) V1 load(1, XDATA, add(CFA_XSP16, literal(-13)))
          CFI (cfiCond643) V2 load(1, XDATA, add(CFA_XSP16, literal(-12)))
          CFI (cfiCond643) V3 load(1, XDATA, add(CFA_XSP16, literal(-11)))
          CFI (cfiCond643) V4 load(1, XDATA, add(CFA_XSP16, literal(-10)))
          CFI (cfiCond643) V5 load(1, XDATA, add(CFA_XSP16, literal(-9)))
          CFI (cfiCond643) V6 load(1, XDATA, add(CFA_XSP16, literal(-8)))
          CFI (cfiCond643) V7 load(1, XDATA, add(CFA_XSP16, literal(-7)))
          CFI (cfiCond643) R7 load(1, XDATA, add(CFA_XSP16, literal(-6)))
          CFI (cfiCond643) ?RET_LOW load(1, XDATA, add(CFA_XSP16, literal(-5)))
          CFI (cfiCond643) ?RET_HIGH load(1, XDATA, add(CFA_XSP16, literal(-4)))
          CFI (cfiCond643) ?BRET_EXT load(1, XDATA, add(CFA_XSP16, literal(-3)))
          CFI (cfiCond643) DPL0 load(1, XDATA, add(CFA_XSP16, literal(-2)))
          CFI (cfiCond643) DPH0 load(1, XDATA, add(CFA_XSP16, literal(-1)))
          CFI (cfiCond643) CFA_SP SP+0
          CFI (cfiCond643) CFA_XSP16 add(XSP16, 51)
          CFI Block cfiCond644 Using cfiCommon0
          CFI (cfiCond644) Function APSME_TCLinkKeyLoad
          CFI (cfiCond644) Conditional ??CrossCallReturnLabel_253
          CFI (cfiCond644) R6 load(1, XDATA, add(CFA_XSP16, literal(-15)))
          CFI (cfiCond644) VB load(1, XDATA, add(CFA_XSP16, literal(-14)))
          CFI (cfiCond644) V0 load(1, XDATA, add(CFA_XSP16, literal(-13)))
          CFI (cfiCond644) V1 load(1, XDATA, add(CFA_XSP16, literal(-12)))
          CFI (cfiCond644) V2 load(1, XDATA, add(CFA_XSP16, literal(-11)))
          CFI (cfiCond644) V3 load(1, XDATA, add(CFA_XSP16, literal(-10)))
          CFI (cfiCond644) V4 load(1, XDATA, add(CFA_XSP16, literal(-9)))
          CFI (cfiCond644) V5 load(1, XDATA, add(CFA_XSP16, literal(-8)))
          CFI (cfiCond644) V6 load(1, XDATA, add(CFA_XSP16, literal(-7)))
          CFI (cfiCond644) R7 load(1, XDATA, add(CFA_XSP16, literal(-6)))
          CFI (cfiCond644) ?RET_LOW load(1, XDATA, add(CFA_XSP16, literal(-5)))
          CFI (cfiCond644) ?RET_HIGH load(1, XDATA, add(CFA_XSP16, literal(-4)))
          CFI (cfiCond644) ?BRET_EXT load(1, XDATA, add(CFA_XSP16, literal(-3)))
          CFI (cfiCond644) DPL0 load(1, XDATA, add(CFA_XSP16, literal(-2)))
          CFI (cfiCond644) DPH0 load(1, XDATA, add(CFA_XSP16, literal(-1)))
          CFI (cfiCond644) CFA_SP SP+0
          CFI (cfiCond644) CFA_XSP16 add(XSP16, 63)
          CFI Block cfiCond645 Using cfiCommon0
          CFI (cfiCond645) Function APSME_TCLinkKeyLoad
          CFI (cfiCond645) Conditional ??CrossCallReturnLabel_254
          CFI (cfiCond645) R6 load(1, XDATA, add(CFA_XSP16, literal(-15)))
          CFI (cfiCond645) VB load(1, XDATA, add(CFA_XSP16, literal(-14)))
          CFI (cfiCond645) V0 load(1, XDATA, add(CFA_XSP16, literal(-13)))
          CFI (cfiCond645) V1 load(1, XDATA, add(CFA_XSP16, literal(-12)))
          CFI (cfiCond645) V2 load(1, XDATA, add(CFA_XSP16, literal(-11)))
          CFI (cfiCond645) V3 load(1, XDATA, add(CFA_XSP16, literal(-10)))
          CFI (cfiCond645) V4 load(1, XDATA, add(CFA_XSP16, literal(-9)))
          CFI (cfiCond645) V5 load(1, XDATA, add(CFA_XSP16, literal(-8)))
          CFI (cfiCond645) V6 load(1, XDATA, add(CFA_XSP16, literal(-7)))
          CFI (cfiCond645) R7 load(1, XDATA, add(CFA_XSP16, literal(-6)))
          CFI (cfiCond645) ?RET_LOW load(1, XDATA, add(CFA_XSP16, literal(-5)))
          CFI (cfiCond645) ?RET_HIGH load(1, XDATA, add(CFA_XSP16, literal(-4)))
          CFI (cfiCond645) ?BRET_EXT load(1, XDATA, add(CFA_XSP16, literal(-3)))
          CFI (cfiCond645) DPL0 load(1, XDATA, add(CFA_XSP16, literal(-2)))
          CFI (cfiCond645) DPH0 load(1, XDATA, add(CFA_XSP16, literal(-1)))
          CFI (cfiCond645) CFA_SP SP+0
          CFI (cfiCond645) CFA_XSP16 add(XSP16, 60)
          CFI Block cfiCond646 Using cfiCommon0
          CFI (cfiCond646) Function APSME_TCLinkKeyLoad
          CFI (cfiCond646) Conditional ??CrossCallReturnLabel_255
          CFI (cfiCond646) R6 load(1, XDATA, add(CFA_XSP16, literal(-15)))
          CFI (cfiCond646) VB load(1, XDATA, add(CFA_XSP16, literal(-14)))
          CFI (cfiCond646) V0 load(1, XDATA, add(CFA_XSP16, literal(-13)))
          CFI (cfiCond646) V1 load(1, XDATA, add(CFA_XSP16, literal(-12)))
          CFI (cfiCond646) V2 load(1, XDATA, add(CFA_XSP16, literal(-11)))
          CFI (cfiCond646) V3 load(1, XDATA, add(CFA_XSP16, literal(-10)))
          CFI (cfiCond646) V4 load(1, XDATA, add(CFA_XSP16, literal(-9)))
          CFI (cfiCond646) V5 load(1, XDATA, add(CFA_XSP16, literal(-8)))
          CFI (cfiCond646) V6 load(1, XDATA, add(CFA_XSP16, literal(-7)))
          CFI (cfiCond646) R7 load(1, XDATA, add(CFA_XSP16, literal(-6)))
          CFI (cfiCond646) ?RET_LOW load(1, XDATA, add(CFA_XSP16, literal(-5)))
          CFI (cfiCond646) ?RET_HIGH load(1, XDATA, add(CFA_XSP16, literal(-4)))
          CFI (cfiCond646) ?BRET_EXT load(1, XDATA, add(CFA_XSP16, literal(-3)))
          CFI (cfiCond646) DPL0 load(1, XDATA, add(CFA_XSP16, literal(-2)))
          CFI (cfiCond646) DPH0 load(1, XDATA, add(CFA_XSP16, literal(-1)))
          CFI (cfiCond646) CFA_SP SP+0
          CFI (cfiCond646) CFA_XSP16 add(XSP16, 60)
          CFI Block cfiCond647 Using cfiCommon0
          CFI (cfiCond647) Function ZDSecMgrAuthenticationSet
          CFI (cfiCond647) Conditional ??CrossCallReturnLabel_256
          CFI (cfiCond647) R6 load(1, XDATA, add(CFA_XSP16, literal(-9)))
          CFI (cfiCond647) VB load(1, XDATA, add(CFA_XSP16, literal(-8)))
          CFI (cfiCond647) V0 load(1, XDATA, add(CFA_XSP16, literal(-7)))
          CFI (cfiCond647) R7 load(1, XDATA, add(CFA_XSP16, literal(-6)))
          CFI (cfiCond647) ?RET_LOW load(1, XDATA, add(CFA_XSP16, literal(-5)))
          CFI (cfiCond647) ?RET_HIGH load(1, XDATA, add(CFA_XSP16, literal(-4)))
          CFI (cfiCond647) ?BRET_EXT load(1, XDATA, add(CFA_XSP16, literal(-3)))
          CFI (cfiCond647) DPL0 load(1, XDATA, add(CFA_XSP16, literal(-2)))
          CFI (cfiCond647) DPH0 load(1, XDATA, add(CFA_XSP16, literal(-1)))
          CFI (cfiCond647) CFA_SP SP+0
          CFI (cfiCond647) CFA_XSP16 add(XSP16, 11)
          CFI Block cfiCond648 Using cfiCommon0
          CFI (cfiCond648) Function ZDSecMgrDeviceCtrlHandler
          CFI (cfiCond648) Conditional ??CrossCallReturnLabel_257
          CFI (cfiCond648) R6 load(1, XDATA, add(CFA_XSP16, literal(-9)))
          CFI (cfiCond648) VB load(1, XDATA, add(CFA_XSP16, literal(-8)))
          CFI (cfiCond648) V0 load(1, XDATA, add(CFA_XSP16, literal(-7)))
          CFI (cfiCond648) R7 load(1, XDATA, add(CFA_XSP16, literal(-6)))
          CFI (cfiCond648) ?RET_LOW load(1, XDATA, add(CFA_XSP16, literal(-5)))
          CFI (cfiCond648) ?RET_HIGH load(1, XDATA, add(CFA_XSP16, literal(-4)))
          CFI (cfiCond648) ?BRET_EXT load(1, XDATA, add(CFA_XSP16, literal(-3)))
          CFI (cfiCond648) DPL0 load(1, XDATA, add(CFA_XSP16, literal(-2)))
          CFI (cfiCond648) DPH0 load(1, XDATA, add(CFA_XSP16, literal(-1)))
          CFI (cfiCond648) CFA_SP SP+0
          CFI (cfiCond648) CFA_XSP16 add(XSP16, 9)
          CFI Block cfiCond649 Using cfiCommon0
          CFI (cfiCond649) Function ZDSecMgrDeviceCtrlUpdate
          CFI (cfiCond649) Conditional ??CrossCallReturnLabel_258
          CFI (cfiCond649) R6 load(1, XDATA, add(CFA_XSP16, literal(-9)))
          CFI (cfiCond649) VB load(1, XDATA, add(CFA_XSP16, literal(-8)))
          CFI (cfiCond649) V0 load(1, XDATA, add(CFA_XSP16, literal(-7)))
          CFI (cfiCond649) R7 load(1, XDATA, add(CFA_XSP16, literal(-6)))
          CFI (cfiCond649) ?RET_LOW load(1, XDATA, add(CFA_XSP16, literal(-5)))
          CFI (cfiCond649) ?RET_HIGH load(1, XDATA, add(CFA_XSP16, literal(-4)))
          CFI (cfiCond649) ?BRET_EXT load(1, XDATA, add(CFA_XSP16, literal(-3)))
          CFI (cfiCond649) DPL0 load(1, XDATA, add(CFA_XSP16, literal(-2)))
          CFI (cfiCond649) DPH0 load(1, XDATA, add(CFA_XSP16, literal(-1)))
          CFI (cfiCond649) CFA_SP SP+0
          CFI (cfiCond649) CFA_XSP16 add(XSP16, 13)
          CFI Block cfiPicker650 Using cfiCommon1
          CFI (cfiPicker650) NoFunction
          CFI (cfiPicker650) Picker
        ADDC    A,#0x0
        MOV     DPH,A
        RET
          CFI EndBlock cfiCond640
          CFI EndBlock cfiCond641
          CFI EndBlock cfiCond642
          CFI EndBlock cfiCond643
          CFI EndBlock cfiCond644
          CFI EndBlock cfiCond645
          CFI EndBlock cfiCond646
          CFI EndBlock cfiCond647
          CFI EndBlock cfiCond648
          CFI EndBlock cfiCond649
          CFI EndBlock cfiPicker650
// 3893 
// 3894 /******************************************************************************
// 3895  * @fn          APSME_IsDefaultTCLK
// 3896  *
// 3897  * @brief       Return true or false based on the extended address.  If the 
// 3898  *              input ext address is all FFs, it means the trust center link
// 3899  *              assoiciated with the address is the default trust center link key
// 3900  *
// 3901  * @param       extAddr - [in] extended address
// 3902  *
// 3903  * @return      uint8 TRUE/FALSE
// 3904  */

        RSEG BANKED_CODE:CODE:NOROOT(0)
// 3905 uint8 APSME_IsDefaultTCLK( uint8 *extAddr )
APSME_IsDefaultTCLK:
          CFI Block cfiBlock651 Using cfiCommon0
          CFI Function APSME_IsDefaultTCLK
        CODE
// 3906 {
        MOV     A,#-0x9
        LCALL   ?BANKED_ENTER_XDATA
          CFI DPH0 load(1, XDATA, add(CFA_XSP16, literal(-1)))
          CFI DPL0 load(1, XDATA, add(CFA_XSP16, literal(-2)))
          CFI ?BRET_EXT load(1, XDATA, add(CFA_XSP16, literal(-3)))
          CFI ?RET_HIGH load(1, XDATA, add(CFA_XSP16, literal(-4)))
          CFI ?RET_LOW load(1, XDATA, add(CFA_XSP16, literal(-5)))
          CFI R7 load(1, XDATA, add(CFA_XSP16, literal(-6)))
          CFI V0 load(1, XDATA, add(CFA_XSP16, literal(-7)))
          CFI VB load(1, XDATA, add(CFA_XSP16, literal(-8)))
          CFI R6 load(1, XDATA, add(CFA_XSP16, literal(-9)))
          CFI CFA_SP SP+0
          CFI CFA_XSP16 add(XSP16, 9)
        ; Saved register size: 9
        ; Auto size: 0
// 3907   uint8 i = 0;
        MOV     R4,#0x0
// 3908   
// 3909   if( extAddr == NULL )
        MOV     A,R2
        ORL     A,R3
        JZ      ??APSME_IsDefaultTCLK_0
// 3910   {
// 3911     return FALSE;
// 3912   }
// 3913   
// 3914   while( i++ < Z_EXTADDR_LEN )
??APSME_IsDefaultTCLK_1:
        MOV     A,R4
        INC     R4
        CLR     C
        SUBB    A,#0x8
        JNC     ??APSME_IsDefaultTCLK_2
// 3915   {
// 3916     if( *extAddr++ != 0xFF )
        MOV     A,R2
        MOV     R0,A
        MOV     A,R3
        MOV     R1,A
        MOV     DPL,R0
        MOV     DPH,R1
        INC     DPTR
        MOV     R2,DPL
        MOV     R3,DPH
        MOV     DPL,R0
        MOV     DPH,R1
        MOVX    A,@DPTR
        CPL     A
        JZ      ??APSME_IsDefaultTCLK_1
// 3917     {
// 3918       return FALSE;
??APSME_IsDefaultTCLK_0:
        MOV     R1,#0x0
        SJMP    ??APSME_IsDefaultTCLK_3
// 3919     }
// 3920   }
// 3921   
// 3922   return TRUE;
??APSME_IsDefaultTCLK_2:
        MOV     R1,#0x1
??APSME_IsDefaultTCLK_3:
        LJMP    ??Subroutine83_0 & 0xFFFF
          CFI EndBlock cfiBlock651
// 3923 }

        RSEG XDATA_ID:CODE:NOROOT(0)
`?<Initializer for ZDSecMgrTCMasterKey>`:
        DATA8
        DB 0
        DB 0
        DB 0
        DB 0
        DB 0
        DB 0
        DB 0
        DB 0
        DB 137
        DB 103
        DB 69
        DB 35
        DB 1
        DB 239
        DB 205
        DB 171

        RSEG XDATA_ID:CODE:NOROOT(0)
`?<Initializer for ZDSecMgrAppKeyType>`:
        DATA8
        DB 3

        RSEG XDATA_ROM_C:CONST:REORDER:NOROOT(0)
        DATA32
__Constant_1:
        DD 1

        RSEG BANK_RELAYS:CODE:REORDER:NOROOT(0)
??ZDSecMgrMasterKeyInit?relay:
        CODE
        LCALL   ?BDISPATCH
        DATA24
        DC24    ZDSecMgrMasterKeyInit

        RSEG BANK_RELAYS:CODE:REORDER:NOROOT(0)
??ZDSecMgrAddrStore?relay:
        CODE
        LCALL   ?BDISPATCH
        DATA24
        DC24    ZDSecMgrAddrStore

        RSEG BANK_RELAYS:CODE:REORDER:NOROOT(0)
??ZDSecMgrExtAddrStore?relay:
        CODE
        LCALL   ?BDISPATCH
        DATA24
        DC24    ZDSecMgrExtAddrStore

        RSEG BANK_RELAYS:CODE:REORDER:NOROOT(0)
??ZDSecMgrExtAddrLookup?relay:
        CODE
        LCALL   ?BDISPATCH
        DATA24
        DC24    ZDSecMgrExtAddrLookup

        RSEG BANK_RELAYS:CODE:REORDER:NOROOT(0)
??ZDSecMgrMasterKeyLookup?relay:
        CODE
        LCALL   ?BDISPATCH
        DATA24
        DC24    ZDSecMgrMasterKeyLookup

        RSEG BANK_RELAYS:CODE:REORDER:NOROOT(0)
??ZDSecMgrMasterKeyStore?relay:
        CODE
        LCALL   ?BDISPATCH
        DATA24
        DC24    ZDSecMgrMasterKeyStore

        RSEG BANK_RELAYS:CODE:REORDER:NOROOT(0)
??ZDSecMgrEntryInit?relay:
        CODE
        LCALL   ?BDISPATCH
        DATA24
        DC24    ZDSecMgrEntryInit

        RSEG BANK_RELAYS:CODE:REORDER:NOROOT(0)
??ZDSecMgrEntryLookup?relay:
        CODE
        LCALL   ?BDISPATCH
        DATA24
        DC24    ZDSecMgrEntryLookup

        RSEG BANK_RELAYS:CODE:REORDER:NOROOT(0)
??ZDSecMgrEntryLookupAMI?relay:
        CODE
        LCALL   ?BDISPATCH
        DATA24
        DC24    ZDSecMgrEntryLookupAMI

        RSEG BANK_RELAYS:CODE:REORDER:NOROOT(0)
??ZDSecMgrEntryLookupExt?relay:
        CODE
        LCALL   ?BDISPATCH
        DATA24
        DC24    ZDSecMgrEntryLookupExt

        RSEG BANK_RELAYS:CODE:REORDER:NOROOT(0)
??ZDSecMgrEntryFree?relay:
        CODE
        LCALL   ?BDISPATCH
        DATA24
        DC24    ZDSecMgrEntryFree

        RSEG BANK_RELAYS:CODE:REORDER:NOROOT(0)
??ZDSecMgrEntryNew?relay:
        CODE
        LCALL   ?BDISPATCH
        DATA24
        DC24    ZDSecMgrEntryNew

        RSEG BANK_RELAYS:CODE:REORDER:NOROOT(0)
??ZDSecMgrCtrlInit?relay:
        CODE
        LCALL   ?BDISPATCH
        DATA24
        DC24    ZDSecMgrCtrlInit

        RSEG BANK_RELAYS:CODE:REORDER:NOROOT(0)
??ZDSecMgrCtrlRelease?relay:
        CODE
        LCALL   ?BDISPATCH
        DATA24
        DC24    ZDSecMgrCtrlRelease

        RSEG BANK_RELAYS:CODE:REORDER:NOROOT(0)
??ZDSecMgrCtrlLookup?relay:
        CODE
        LCALL   ?BDISPATCH
        DATA24
        DC24    ZDSecMgrCtrlLookup

        RSEG BANK_RELAYS:CODE:REORDER:NOROOT(0)
??ZDSecMgrCtrlSet?relay:
        CODE
        LCALL   ?BDISPATCH
        DATA24
        DC24    ZDSecMgrCtrlSet

        RSEG BANK_RELAYS:CODE:REORDER:NOROOT(0)
??ZDSecMgrCtrlAdd?relay:
        CODE
        LCALL   ?BDISPATCH
        DATA24
        DC24    ZDSecMgrCtrlAdd

        RSEG BANK_RELAYS:CODE:REORDER:NOROOT(0)
??ZDSecMgrCtrlTerm?relay:
        CODE
        LCALL   ?BDISPATCH
        DATA24
        DC24    ZDSecMgrCtrlTerm

        RSEG BANK_RELAYS:CODE:REORDER:NOROOT(0)
??ZDSecMgrCtrlReset?relay:
        CODE
        LCALL   ?BDISPATCH
        DATA24
        DC24    ZDSecMgrCtrlReset

        RSEG BANK_RELAYS:CODE:REORDER:NOROOT(0)
??ZDSecMgrMasterKeyLoad?relay:
        CODE
        LCALL   ?BDISPATCH
        DATA24
        DC24    ZDSecMgrMasterKeyLoad

        RSEG BANK_RELAYS:CODE:REORDER:NOROOT(0)
??ZDSecMgrAppKeyGet?relay:
        CODE
        LCALL   ?BDISPATCH
        DATA24
        DC24    ZDSecMgrAppKeyGet

        RSEG BANK_RELAYS:CODE:REORDER:NOROOT(0)
??ZDSecMgrAppKeyReq?relay:
        CODE
        LCALL   ?BDISPATCH
        DATA24
        DC24    ZDSecMgrAppKeyReq

        RSEG BANK_RELAYS:CODE:REORDER:NOROOT(0)
??ZDSecMgrEstablishKey?relay:
        CODE
        LCALL   ?BDISPATCH
        DATA24
        DC24    ZDSecMgrEstablishKey

        RSEG BANK_RELAYS:CODE:REORDER:NOROOT(0)
??ZDSecMgrSendMasterKey?relay:
        CODE
        LCALL   ?BDISPATCH
        DATA24
        DC24    ZDSecMgrSendMasterKey

        RSEG BANK_RELAYS:CODE:REORDER:NOROOT(0)
??ZDSecMgrSendNwkKey?relay:
        CODE
        LCALL   ?BDISPATCH
        DATA24
        DC24    ZDSecMgrSendNwkKey

        RSEG BANK_RELAYS:CODE:REORDER:NOROOT(0)
??ZDSecMgrDeviceEntryRemove?relay:
        CODE
        LCALL   ?BDISPATCH
        DATA24
        DC24    ZDSecMgrDeviceEntryRemove

        RSEG BANK_RELAYS:CODE:REORDER:NOROOT(0)
??ZDSecMgrDeviceRemoveByExtAddr?relay:
        CODE
        LCALL   ?BDISPATCH
        DATA24
        DC24    ZDSecMgrDeviceRemoveByExtAddr

        RSEG BANK_RELAYS:CODE:REORDER:NOROOT(0)
??ZDSecMgrAddrMgrUpdate?relay:
        CODE
        LCALL   ?BDISPATCH
        DATA24
        DC24    ZDSecMgrAddrMgrUpdate

        RSEG BANK_RELAYS:CODE:REORDER:NOROOT(0)
??ZDSecMgrDeviceEntryAdd?relay:
        CODE
        LCALL   ?BDISPATCH
        DATA24
        DC24    ZDSecMgrDeviceEntryAdd

        RSEG BANK_RELAYS:CODE:REORDER:NOROOT(0)
??ZDSecMgrDeviceCtrlHandler?relay:
        CODE
        LCALL   ?BDISPATCH
        DATA24
        DC24    ZDSecMgrDeviceCtrlHandler

        RSEG BANK_RELAYS:CODE:REORDER:NOROOT(0)
??ZDSecMgrDeviceCtrlSetup?relay:
        CODE
        LCALL   ?BDISPATCH
        DATA24
        DC24    ZDSecMgrDeviceCtrlSetup

        RSEG BANK_RELAYS:CODE:REORDER:NOROOT(0)
??ZDSecMgrDeviceCtrlUpdate?relay:
        CODE
        LCALL   ?BDISPATCH
        DATA24
        DC24    ZDSecMgrDeviceCtrlUpdate

        RSEG BANK_RELAYS:CODE:REORDER:NOROOT(0)
??APSME_SKA_TimerExpired?relay:
        CODE
        LCALL   ?BDISPATCH
        DATA24
        DC24    APSME_SKA_TimerExpired

        RSEG BANK_RELAYS:CODE:REORDER:NOROOT(0)
??ZDSecMgrDeviceRemove?relay:
        CODE
        LCALL   ?BDISPATCH
        DATA24
        DC24    ZDSecMgrDeviceRemove

        RSEG BANK_RELAYS:CODE:REORDER:NOROOT(0)
??ZDSecMgrDeviceValidateSKKE?relay:
        CODE
        LCALL   ?BDISPATCH
        DATA24
        DC24    ZDSecMgrDeviceValidateSKKE

        RSEG BANK_RELAYS:CODE:REORDER:NOROOT(0)
??ZDSecMgrDeviceValidateRM?relay:
        CODE
        LCALL   ?BDISPATCH
        DATA24
        DC24    ZDSecMgrDeviceValidateRM

        RSEG BANK_RELAYS:CODE:REORDER:NOROOT(0)
??ZDSecMgrDeviceValidateCM?relay:
        CODE
        LCALL   ?BDISPATCH
        DATA24
        DC24    ZDSecMgrDeviceValidateCM

        RSEG BANK_RELAYS:CODE:REORDER:NOROOT(0)
??ZDSecMgrDeviceValidate?relay:
        CODE
        LCALL   ?BDISPATCH
        DATA24
        DC24    ZDSecMgrDeviceValidate

        RSEG BANK_RELAYS:CODE:REORDER:NOROOT(0)
??ZDSecMgrDeviceJoin?relay:
        CODE
        LCALL   ?BDISPATCH
        DATA24
        DC24    ZDSecMgrDeviceJoin

        RSEG BANK_RELAYS:CODE:REORDER:NOROOT(0)
??ZDSecMgrDeviceJoinDirect?relay:
        CODE
        LCALL   ?BDISPATCH
        DATA24
        DC24    ZDSecMgrDeviceJoinDirect

        RSEG BANK_RELAYS:CODE:REORDER:NOROOT(0)
??ZDSecMgrDeviceJoinFwd?relay:
        CODE
        LCALL   ?BDISPATCH
        DATA24
        DC24    ZDSecMgrDeviceJoinFwd

        RSEG BANK_RELAYS:CODE:REORDER:NOROOT(0)
??ZDSecMgrDeviceNew?relay:
        CODE
        LCALL   ?BDISPATCH
        DATA24
        DC24    ZDSecMgrDeviceNew

        RSEG BANK_RELAYS:CODE:REORDER:NOROOT(0)
??ZDSecMgrAssocDeviceAuth?relay:
        CODE
        LCALL   ?BDISPATCH
        DATA24
        DC24    ZDSecMgrAssocDeviceAuth

        RSEG BANK_RELAYS:CODE:REORDER:NOROOT(0)
??ZDSecMgrAuthInitiate?relay:
        CODE
        LCALL   ?BDISPATCH
        DATA24
        DC24    ZDSecMgrAuthInitiate

        RSEG BANK_RELAYS:CODE:REORDER:NOROOT(0)
??ZDSecMgrAuthNwkKey?relay:
        CODE
        LCALL   ?BDISPATCH
        DATA24
        DC24    ZDSecMgrAuthNwkKey

        RSEG BANK_RELAYS:CODE:REORDER:NOROOT(0)
??ZDSecMgrInit?relay:
        CODE
        LCALL   ?BDISPATCH
        DATA24
        DC24    ZDSecMgrInit

        RSEG BANK_RELAYS:CODE:REORDER:NOROOT(0)
??ZDSecMgrConfig?relay:
        CODE
        LCALL   ?BDISPATCH
        DATA24
        DC24    ZDSecMgrConfig

        RSEG BANK_RELAYS:CODE:REORDER:NOROOT(0)
??ZDSecMgrPermitJoining?relay:
        CODE
        LCALL   ?BDISPATCH
        DATA24
        DC24    ZDSecMgrPermitJoining

        RSEG BANK_RELAYS:CODE:REORDER:NOROOT(0)
??ZDSecMgrPermitJoiningTimeout?relay:
        CODE
        LCALL   ?BDISPATCH
        DATA24
        DC24    ZDSecMgrPermitJoiningTimeout

        RSEG BANK_RELAYS:CODE:REORDER:NOROOT(0)
??ZDSecMgrNewDeviceEvent?relay:
        CODE
        LCALL   ?BDISPATCH
        DATA24
        DC24    ZDSecMgrNewDeviceEvent

        RSEG BANK_RELAYS:CODE:REORDER:NOROOT(0)
??ZDSecMgrEvent?relay:
        CODE
        LCALL   ?BDISPATCH
        DATA24
        DC24    ZDSecMgrEvent

        RSEG BANK_RELAYS:CODE:REORDER:NOROOT(0)
??ZDSecMgrEstablishKeyCfm?relay:
        CODE
        LCALL   ?BDISPATCH
        DATA24
        DC24    ZDSecMgrEstablishKeyCfm

        RSEG BANK_RELAYS:CODE:REORDER:NOROOT(0)
??ZDSecMgrTCExtAddrCheck?relay:
        CODE
        LCALL   ?BDISPATCH
        DATA24
        DC24    ZDSecMgrTCExtAddrCheck

        RSEG BANK_RELAYS:CODE:REORDER:NOROOT(0)
??ZDSecMgrTCDataLoad?relay:
        CODE
        LCALL   ?BDISPATCH
        DATA24
        DC24    ZDSecMgrTCDataLoad

        RSEG BANK_RELAYS:CODE:REORDER:NOROOT(0)
??ZDSecMgrEstablishKeyInd?relay:
        CODE
        LCALL   ?BDISPATCH
        DATA24
        DC24    ZDSecMgrEstablishKeyInd

        RSEG BANK_RELAYS:CODE:REORDER:NOROOT(0)
??ZDSecMgrTransportKeyInd?relay:
        CODE
        LCALL   ?BDISPATCH
        DATA24
        DC24    ZDSecMgrTransportKeyInd

        RSEG BANK_RELAYS:CODE:REORDER:NOROOT(0)
??ZDSecMgrUpdateDeviceInd?relay:
        CODE
        LCALL   ?BDISPATCH
        DATA24
        DC24    ZDSecMgrUpdateDeviceInd

        RSEG BANK_RELAYS:CODE:REORDER:NOROOT(0)
??ZDSecMgrRemoveDeviceInd?relay:
        CODE
        LCALL   ?BDISPATCH
        DATA24
        DC24    ZDSecMgrRemoveDeviceInd

        RSEG BANK_RELAYS:CODE:REORDER:NOROOT(0)
??ZDSecMgrRequestKeyInd?relay:
        CODE
        LCALL   ?BDISPATCH
        DATA24
        DC24    ZDSecMgrRequestKeyInd

        RSEG BANK_RELAYS:CODE:REORDER:NOROOT(0)
??ZDSecMgrSwitchKeyInd?relay:
        CODE
        LCALL   ?BDISPATCH
        DATA24
        DC24    ZDSecMgrSwitchKeyInd

        RSEG BANK_RELAYS:CODE:REORDER:NOROOT(0)
??ZDSecMgrAuthenticateInd?relay:
        CODE
        LCALL   ?BDISPATCH
        DATA24
        DC24    ZDSecMgrAuthenticateInd

        RSEG BANK_RELAYS:CODE:REORDER:NOROOT(0)
??ZDSecMgrAuthenticateCfm?relay:
        CODE
        LCALL   ?BDISPATCH
        DATA24
        DC24    ZDSecMgrAuthenticateCfm

        RSEG BANK_RELAYS:CODE:REORDER:NOROOT(0)
??ZDSecMgrRequestAppKey?relay:
        CODE
        LCALL   ?BDISPATCH
        DATA24
        DC24    ZDSecMgrRequestAppKey

        RSEG BANK_RELAYS:CODE:REORDER:NOROOT(0)
??ZDSecMgrSetupPartner?relay:
        CODE
        LCALL   ?BDISPATCH
        DATA24
        DC24    ZDSecMgrSetupPartner

        RSEG BANK_RELAYS:CODE:REORDER:NOROOT(0)
??APSME_MasterKeyGet?relay:
        CODE
        LCALL   ?BDISPATCH
        DATA24
        DC24    APSME_MasterKeyGet

        RSEG BANK_RELAYS:CODE:REORDER:NOROOT(0)
??APSME_LinkKeySet?relay:
        CODE
        LCALL   ?BDISPATCH
        DATA24
        DC24    APSME_LinkKeySet

        RSEG BANK_RELAYS:CODE:REORDER:NOROOT(0)
??ZDSecMgrAuthenticationSet?relay:
        CODE
        LCALL   ?BDISPATCH
        DATA24
        DC24    ZDSecMgrAuthenticationSet

        RSEG BANK_RELAYS:CODE:REORDER:NOROOT(0)
??ZDSecMgrAuthenticationCheck?relay:
        CODE
        LCALL   ?BDISPATCH
        DATA24
        DC24    ZDSecMgrAuthenticationCheck

        RSEG BANK_RELAYS:CODE:REORDER:NOROOT(0)
??APSME_LinkKeyDataGet?relay:
        CODE
        LCALL   ?BDISPATCH
        DATA24
        DC24    APSME_LinkKeyDataGet

        RSEG BANK_RELAYS:CODE:REORDER:NOROOT(0)
??APSME_KeyFwdToChild?relay:
        CODE
        LCALL   ?BDISPATCH
        DATA24
        DC24    APSME_KeyFwdToChild

        RSEG BANK_RELAYS:CODE:REORDER:NOROOT(0)
??ZDSecMgrAddLinkKey?relay:
        CODE
        LCALL   ?BDISPATCH
        DATA24
        DC24    ZDSecMgrAddLinkKey

        RSEG BANK_RELAYS:CODE:REORDER:NOROOT(0)
??ZDSecMgrAPSRemove?relay:
        CODE
        LCALL   ?BDISPATCH
        DATA24
        DC24    ZDSecMgrAPSRemove

        RSEG BANK_RELAYS:CODE:REORDER:NOROOT(0)
??APSME_TCLinkKeyInit?relay:
        CODE
        LCALL   ?BDISPATCH
        DATA24
        DC24    APSME_TCLinkKeyInit

        RSEG BANK_RELAYS:CODE:REORDER:NOROOT(0)
??APSME_TCLinkKeySync?relay:
        CODE
        LCALL   ?BDISPATCH
        DATA24
        DC24    APSME_TCLinkKeySync

        RSEG BANK_RELAYS:CODE:REORDER:NOROOT(0)
??APSME_TCLinkKeyLoad?relay:
        CODE
        LCALL   ?BDISPATCH
        DATA24
        DC24    APSME_TCLinkKeyLoad

        RSEG BANK_RELAYS:CODE:REORDER:NOROOT(0)
??APSME_IsDefaultTCLK?relay:
        CODE
        LCALL   ?BDISPATCH
        DATA24
        DC24    APSME_IsDefaultTCLK

        END
// 3924 
// 3925 
// 3926 /******************************************************************************
// 3927 ******************************************************************************/
// 3928 
// 
// 7 253 bytes in segment BANKED_CODE
//   456 bytes in segment BANK_RELAYS
//    17 bytes in segment XDATA_I
//    17 bytes in segment XDATA_ID
//     4 bytes in segment XDATA_ROM_C
//    50 bytes in segment XDATA_Z
// 
// 7 726 bytes of CODE  memory
//     0 bytes of CONST memory (+ 4 bytes shared)
//    67 bytes of XDATA memory
//
//Errors: none
//Warnings: none
