###############################################################################
#                                                                             #
# IAR C/C++ Compiler V8.20.2.41139 for 8051             05/Jan/2016  14:03:39 #
# Copyright 2004-2013 IAR Systems AB.                                         #
#                                                                             #
#    Core               =  plain                                              #
#    Code model         =  banked                                             #
#    Data model         =  large                                              #
#    Calling convention =  xdata reentrant                                    #
#    Constant location  =  data_rom                                           #
#    Dptr setup         =  1,16                                               #
#                                                                             #
#    Source file        =  C:\Users\ArnoldWorkStation\Desktop\ZigbeeTest\Comp #
#                          onents\stack\af\AF.c                               #
#    Command line       =  -f C:\Users\ArnoldWorkStation\Desktop\ZigbeeTest\P #
#                          rojects\zstack\Samples\SampleApp\CC2530DB\..\..\.. #
#                          \Tools\CC2530DB\f8wRouter.cfg (-DCPU32MHZ          #
#                          -DROOT=__near_func -DMAC_CFG_APP_PENDING_QUEUE=TRU #
#                          E -DRTR_NWK -DBLINK_LEDS) -f                       #
#                          C:\Users\ArnoldWorkStation\Desktop\ZigbeeTest\Proj #
#                          ects\zstack\Samples\SampleApp\CC2530DB\..\..\..\To #
#                          ols\CC2530DB\f8wConfig.cfg (-DSECURE=0             #
#                          -DZG_SECURE_DYNAMIC=0 -DREFLECTOR                  #
#                          -DDEFAULT_CHANLIST=0x00000800                      #
#                          -DZDAPP_CONFIG_PAN_ID=0xFFF1                       #
#                          -DNWK_START_DELAY=100 -DEXTENDED_JOINING_RANDOM_MA #
#                          SK=0x007F -DBEACON_REQUEST_DELAY=100               #
#                          -DBEACON_REQ_DELAY_MASK=0x00FF                     #
#                          -DROUTE_EXPIRY_TIME=30 -DAPSC_ACK_WAIT_DURATION_PO #
#                          LLED=3000 -DNWK_INDIRECT_MSG_TIMEOUT=7             #
#                          -DMAX_RREQ_ENTRIES=8 -DAPSC_MAX_FRAME_RETRIES=3    #
#                          -DNWK_MAX_DATA_RETRIES=2                           #
#                          -DMAX_POLL_FAILURE_RETRIES=2 -DMAX_BCAST=9         #
#                          -DAPS_MAX_GROUPS=16 -DMAX_RTG_ENTRIES=40           #
#                          -DNWK_MAX_BINDING_ENTRIES=4                        #
#                          -DMAX_BINDING_CLUSTER_IDS=4 "-DDEFAULT_KEY={0x01,  #
#                          0x03, 0x05, 0x07, 0x09, 0x0B, 0x0D, 0x0F, 0x00,    #
#                          0x02, 0x04, 0x06, 0x08, 0x0A, 0x0C, 0x0D}"         #
#                          -DMAC_MAX_FRAME_SIZE=116 "-DCONST=const __code"    #
#                          -DGENERIC=__generic -DRFD_RCVC_ALWAYS_ON=TRUE      #
#                          -DPOLL_RATE=1000 -DQUEUED_POLL_RATE=100            #
#                          -DRESPONSE_POLL_RATE=100) -DREJOIN_POLL_RATE=440   #
#                          C:\Users\ArnoldWorkStation\Desktop\ZigbeeTest\Comp #
#                          onents\stack\af\AF.c -D ZIGBEEPRO -D ZTOOL_P1 -D   #
#                          MT_TASK -D MT_SYS_FUNC -D MT_ZDO_FUNC -D           #
#                          LCD_SUPPORTED=DEBUG -lC C:\Users\ArnoldWorkStation #
#                          \Desktop\ZigbeeTest\Projects\zstack\Samples\Sample #
#                          App\CC2530DB\AnchorRouterPro\List\ -lA             #
#                          C:\Users\ArnoldWorkStation\Desktop\ZigbeeTest\Proj #
#                          ects\zstack\Samples\SampleApp\CC2530DB\AnchorRoute #
#                          rPro\List\ --diag_suppress Pe001,Pa010 -o          #
#                          C:\Users\ArnoldWorkStation\Desktop\ZigbeeTest\Proj #
#                          ects\zstack\Samples\SampleApp\CC2530DB\AnchorRoute #
#                          rPro\Obj\ -e --debug --core=plain --dptr=16,1      #
#                          --data_model=large --code_model=banked             #
#                          --calling_convention=xdata_reentrant               #
#                          --place_constants=data_rom --nr_virtual_regs 16    #
#                          -I C:\Users\ArnoldWorkStation\Desktop\ZigbeeTest\P #
#                          rojects\zstack\Samples\SampleApp\CC2530DB\ -I      #
#                          C:\Users\ArnoldWorkStation\Desktop\ZigbeeTest\Proj #
#                          ects\zstack\Samples\SampleApp\CC2530DB\..\SOURCE\  #
#                          -I C:\Users\ArnoldWorkStation\Desktop\ZigbeeTest\P #
#                          rojects\zstack\Samples\SampleApp\CC2530DB\..\..\.. #
#                          \ZMAIN\TI2530DB\ -I C:\Users\ArnoldWorkStation\Des #
#                          ktop\ZigbeeTest\Projects\zstack\Samples\SampleApp\ #
#                          CC2530DB\..\..\..\..\..\COMPONENTS\MT\ -I          #
#                          C:\Users\ArnoldWorkStation\Desktop\ZigbeeTest\Proj #
#                          ects\zstack\Samples\SampleApp\CC2530DB\..\..\..\.. #
#                          \..\COMPONENTS\HAL\INCLUDE\ -I                     #
#                          C:\Users\ArnoldWorkStation\Desktop\ZigbeeTest\Proj #
#                          ects\zstack\Samples\SampleApp\CC2530DB\..\..\..\.. #
#                          \..\COMPONENTS\HAL\TARGET\CC2530EB\ -I             #
#                          C:\Users\ArnoldWorkStation\Desktop\ZigbeeTest\Proj #
#                          ects\zstack\Samples\SampleApp\CC2530DB\..\..\..\.. #
#                          \..\COMPONENTS\OSAL\MCU\CCSOC\ -I                  #
#                          C:\Users\ArnoldWorkStation\Desktop\ZigbeeTest\Proj #
#                          ects\zstack\Samples\SampleApp\CC2530DB\..\..\..\.. #
#                          \..\COMPONENTS\OSAL\INCLUDE\ -I                    #
#                          C:\Users\ArnoldWorkStation\Desktop\ZigbeeTest\Proj #
#                          ects\zstack\Samples\SampleApp\CC2530DB\..\..\..\.. #
#                          \..\COMPONENTS\STACK\AF\ -I                        #
#                          C:\Users\ArnoldWorkStation\Desktop\ZigbeeTest\Proj #
#                          ects\zstack\Samples\SampleApp\CC2530DB\..\..\..\.. #
#                          \..\COMPONENTS\STACK\NWK\ -I                       #
#                          C:\Users\ArnoldWorkStation\Desktop\ZigbeeTest\Proj #
#                          ects\zstack\Samples\SampleApp\CC2530DB\..\..\..\.. #
#                          \..\COMPONENTS\STACK\SEC\ -I                       #
#                          C:\Users\ArnoldWorkStation\Desktop\ZigbeeTest\Proj #
#                          ects\zstack\Samples\SampleApp\CC2530DB\..\..\..\.. #
#                          \..\COMPONENTS\STACK\SAPI\ -I                      #
#                          C:\Users\ArnoldWorkStation\Desktop\ZigbeeTest\Proj #
#                          ects\zstack\Samples\SampleApp\CC2530DB\..\..\..\.. #
#                          \..\COMPONENTS\STACK\SYS\ -I                       #
#                          C:\Users\ArnoldWorkStation\Desktop\ZigbeeTest\Proj #
#                          ects\zstack\Samples\SampleApp\CC2530DB\..\..\..\.. #
#                          \..\COMPONENTS\STACK\ZDO\ -I                       #
#                          C:\Users\ArnoldWorkStation\Desktop\ZigbeeTest\Proj #
#                          ects\zstack\Samples\SampleApp\CC2530DB\..\..\..\.. #
#                          \..\COMPONENTS\ZMAC\F8W\ -I                        #
#                          C:\Users\ArnoldWorkStation\Desktop\ZigbeeTest\Proj #
#                          ects\zstack\Samples\SampleApp\CC2530DB\..\..\..\.. #
#                          \..\COMPONENTS\ZMAC\ -I C:\Users\ArnoldWorkStation #
#                          \Desktop\ZigbeeTest\Projects\zstack\Samples\Sample #
#                          App\CC2530DB\..\..\..\..\..\COMPONENTS\SERVICES\SA #
#                          DDR\ -I C:\Users\ArnoldWorkStation\Desktop\ZigbeeT #
#                          est\Projects\zstack\Samples\SampleApp\CC2530DB\..\ #
#                          ..\..\..\..\COMPONENTS\SERVICES\SDATA\ -I          #
#                          C:\Users\ArnoldWorkStation\Desktop\ZigbeeTest\Proj #
#                          ects\zstack\Samples\SampleApp\CC2530DB\..\..\..\.. #
#                          \..\COMPONENTS\MAC\INCLUDE\ -I                     #
#                          C:\Users\ArnoldWorkStation\Desktop\ZigbeeTest\Proj #
#                          ects\zstack\Samples\SampleApp\CC2530DB\..\..\..\.. #
#                          \..\COMPONENTS\MAC\HIGH_LEVEL\ -I                  #
#                          C:\Users\ArnoldWorkStation\Desktop\ZigbeeTest\Proj #
#                          ects\zstack\Samples\SampleApp\CC2530DB\..\..\..\.. #
#                          \..\COMPONENTS\MAC\LOW_LEVEL\srf04\ -I             #
#                          C:\Users\ArnoldWorkStation\Desktop\ZigbeeTest\Proj #
#                          ects\zstack\Samples\SampleApp\CC2530DB\..\..\..\.. #
#                          \..\COMPONENTS\MAC\LOW_LEVEL\srf04\SINGLE_CHIP\    #
#                          -Ohz --require_prototypes                          #
#    List file          =  C:\Users\ArnoldWorkStation\Desktop\ZigbeeTest\Proj #
#                          ects\zstack\Samples\SampleApp\CC2530DB\AnchorRoute #
#                          rPro\List\AF.lst                                   #
#    Object file        =  C:\Users\ArnoldWorkStation\Desktop\ZigbeeTest\Proj #
#                          ects\zstack\Samples\SampleApp\CC2530DB\AnchorRoute #
#                          rPro\Obj\AF.r51                                    #
#                                                                             #
#                                                                             #
###############################################################################

C:\Users\ArnoldWorkStation\Desktop\ZigbeeTest\Components\stack\af\AF.c
      1          /**************************************************************************************************
      2            Filename:       AF.c
      3            Revised:        $Date: 2009-10-29 00:15:32 -0700 (Thu, 29 Oct 2009) $
      4            Revision:       $Revision: 21013 $
      5          
      6            Description:    Application Framework - Device Description helper functions
      7          
      8          
      9            Copyright 2004-2009 Texas Instruments Incorporated. All rights reserved.
     10          
     11            IMPORTANT: Your use of this Software is limited to those specific rights
     12            granted under the terms of a software license agreement between the user
     13            who downloaded the software, his/her employer (which must be your employer)
     14            and Texas Instruments Incorporated (the "License").  You may not use this
     15            Software unless you agree to abide by the terms of the License. The License
     16            limits your use, and you acknowledge, that the Software may not be modified,
     17            copied or distributed unless embedded on a Texas Instruments microcontroller
     18            or used solely and exclusively in conjunction with a Texas Instruments radio
     19            frequency transceiver, which is integrated into your product.  Other than for
     20            the foregoing purpose, you may not use, reproduce, copy, prepare derivative
     21            works of, modify, distribute, perform, display or sell this Software and/or
     22            its documentation for any purpose.
     23          
     24            YOU FURTHER ACKNOWLEDGE AND AGREE THAT THE SOFTWARE AND DOCUMENTATION ARE
     25            PROVIDED “AS IS” WITHOUT WARRANTY OF ANY KIND, EITHER EXPRESS OR IMPLIED,
     26            INCLUDING WITHOUT LIMITATION, ANY WARRANTY OF MERCHANTABILITY, TITLE,
     27            NON-INFRINGEMENT AND FITNESS FOR A PARTICULAR PURPOSE. IN NO EVENT SHALL
     28            TEXAS INSTRUMENTS OR ITS LICENSORS BE LIABLE OR OBLIGATED UNDER CONTRACT,
     29            NEGLIGENCE, STRICT LIABILITY, CONTRIBUTION, BREACH OF WARRANTY, OR OTHER
     30            LEGAL EQUITABLE THEORY ANY DIRECT OR INDIRECT DAMAGES OR EXPENSES
     31            INCLUDING BUT NOT LIMITED TO ANY INCIDENTAL, SPECIAL, INDIRECT, PUNITIVE
     32            OR CONSEQUENTIAL DAMAGES, LOST PROFITS OR LOST DATA, COST OF PROCUREMENT
     33            OF SUBSTITUTE GOODS, TECHNOLOGY, SERVICES, OR ANY CLAIMS BY THIRD PARTIES
     34            (INCLUDING BUT NOT LIMITED TO ANY DEFENSE THEREOF), OR OTHER SIMILAR COSTS.
     35          
     36            Should you have any questions regarding your right to use this Software,
     37            contact Texas Instruments Incorporated at www.TI.com.
     38          **************************************************************************************************/
     39          
     40          /*********************************************************************
     41           * INCLUDES
     42           */
     43          
     44          #include "OSAL.h"
     45          #include "AF.h"
     46          #include "nwk_globals.h"
     47          #include "nwk_util.h"
     48          #include "aps_groups.h"
     49          #include "ZDProfile.h"
     50          #include "aps_frag.h"
     51          #include "rtg.h"
     52          
     53          #if defined ( MT_AF_CB_FUNC )
     54            #include "MT_AF.h"
     55          #endif
     56          
     57          #if defined ( INTER_PAN )
     58            #include "stub_aps.h"
     59          #endif
     60          
     61          /*********************************************************************
     62           * MACROS
     63           */
     64          
     65          /*********************************************************************
     66           * @fn      afSend
     67           *
     68           * @brief   Helper macro for V1 API to invoke V2 API.
     69           *
     70           * input parameters
     71           *
     72           * @param  *dstAddr - Full ZB destination address: Nwk Addr + End Point.
     73           * @param   srcEP - Origination (i.e. respond to or ack to) End Point.
     74           * @param   cID - A valid cluster ID as specified by the Profile.
     75           * @param   len - Number of bytes of data pointed to by next param.
     76           * @param  *buf - A pointer to the data bytes to send.
     77           * @param   options - Valid bit mask of AF Tx Options as defined in AF.h.
     78           * @param  *transID - A pointer to a byte which can be modified and which will
     79           *                    be used as the transaction sequence number of the msg.
     80           *
     81           * output parameters
     82           *
     83           * @param  *transID - Incremented by one if the return value is success.
     84           *
     85           * @return  afStatus_t - See previous definition of afStatus_... types.
     86           */
     87          #define afSend( dstAddr, srcEP, cID, len, buf, transID, options, radius ) \
     88                  AF_DataRequest( (dstAddr), afFindEndPointDesc( (srcEP) ), \
     89                                    (cID), (len), (buf), (transID), (options), (radius) )
     90          
     91          /*********************************************************************
     92           * CONSTANTS
     93           */
     94          
     95          /*********************************************************************
     96           * TYPEDEFS
     97           */
     98          
     99          /*********************************************************************
    100           * GLOBAL VARIABLES
    101           */
    102          

   \                                 In  segment XDATA_Z, align 1, keep-with-next
    103          epList_t *epList;
   \                     epList:
   \   000000                DS 2
   \   000002                REQUIRE __INIT_XDATA_Z
    104          
    105          /*********************************************************************
    106           * EXTERNAL VARIABLES
    107           */
    108          
    109          /*********************************************************************
    110           * EXTERNAL FUNCTIONS
    111           */
    112          
    113          /*********************************************************************
    114           * LOCAL VARIABLES
    115           */
    116          
    117          /*********************************************************************
    118           * LOCAL FUNCTIONS
    119           */
    120          
    121          static void afBuildMSGIncoming( aps_FrameFormat_t *aff, endPointDesc_t *epDesc,
    122                          zAddrType_t *SrcAddress, uint16 SrcPanId, NLDE_Signal_t *sig,
    123                          byte SecurityUse, uint32 timestamp );
    124          
    125          static epList_t *afFindEndPointDescList( byte EndPoint );
    126          
    127          static pDescCB afGetDescCB( endPointDesc_t *epDesc );
    128          
    129          /*********************************************************************
    130           * NETWORK LAYER CALLBACKS
    131           */
    132          
    133          /*********************************************************************
    134           * PUBLIC FUNCTIONS
    135           */
    136          
    137          /*********************************************************************
    138           * @fn      afInit
    139           *
    140           * @brief   Initialization function for the AF.
    141           *
    142           * @param   none
    143           *
    144           * @return  none
    145           */

   \                                 In  segment BANKED_CODE, align 1, keep-with-next
    146          void afInit( void )
   \                     afInit:
    147          {
   \   000000   C082         PUSH    DPL
   \   000002   C083         PUSH    DPH
   \   000004                ; Saved register size: 2
   \   000004                ; Auto size: 0
    148            // Start with no endpoint defined
    149            epList = NULL;
   \   000004   90....       MOV     DPTR,#epList
   \   000007   E4           CLR     A
   \   000008   F0           MOVX    @DPTR,A
   \   000009   A3           INC     DPTR
   \   00000A   F0           MOVX    @DPTR,A
    150          }
   \   00000B   02....       LJMP    ?Subroutine0 & 0xFFFF

   \                                 In  segment BANKED_CODE, align 1, keep-with-next
   \                     ?Subroutine0:
   \   000000   D083         POP     DPH
   \   000002   D082         POP     DPL
   \   000004   02....       LJMP    ?BRET
    151          
    152          /*********************************************************************
    153           * @fn      afRegisterExtended
    154           *
    155           * @brief   Register an Application's EndPoint description.
    156           *
    157           * @param   epDesc - pointer to the Application's endpoint descriptor.
    158           * @param   descFn - pointer to descriptor callback function
    159           *
    160           * NOTE:  The memory that epDesc is pointing to must exist after this call.
    161           *
    162           * @return  Pointer to epList_t on success, NULL otherwise.
    163           */

   \                                 In  segment BANKED_CODE, align 1, keep-with-next
    164          epList_t *afRegisterExtended( endPointDesc_t *epDesc, pDescCB descFn )
   \                     afRegisterExtended:
    165          {
   \   000000   74F4         MOV     A,#-0xc
   \   000002   12....       LCALL   ?BANKED_ENTER_XDATA
   \   000005                ; Saved register size: 12
   \   000005                ; Auto size: 0
   \   000005   EA           MOV     A,R2
   \   000006   FE           MOV     R6,A
   \   000007   EB           MOV     A,R3
   \   000008   FF           MOV     R7,A
   \   000009   8C..         MOV     ?V0 + 0,R4
   \   00000B   8D..         MOV     ?V0 + 1,R5
    166            epList_t *ep;
    167            epList_t *epSearch;
    168          
    169            ep = osal_mem_alloc( sizeof ( epList_t ) );
   \   00000D                ; Setup parameters for call to function osal_mem_alloc
   \   00000D   7A07         MOV     R2,#0x7
   \   00000F   7B00         MOV     R3,#0x0
   \   000011   12....       LCALL   ??osal_mem_alloc?relay
    170            if ( ep )
   \   000014   EA           MOV     A,R2
   \   000015   4B           ORL     A,R3
   \   000016   604C         JZ      ??afRegisterExtended_0
    171            {
    172              // Fill in the new list entry
    173              ep->epDesc = epDesc;
   \   000018   8A82         MOV     DPL,R2
   \   00001A   8B83         MOV     DPH,R3
   \   00001C   EE           MOV     A,R6
   \   00001D   F0           MOVX    @DPTR,A
   \   00001E   A3           INC     DPTR
   \   00001F   EF           MOV     A,R7
   \   000020   12....       LCALL   ?Subroutine21 & 0xFFFF
    174              
    175              // Default to allow Match Descriptor.
    176              ep->flags = eEP_AllowMatch;
   \                     ??CrossCallReturnLabel_32:
   \   000023   7401         MOV     A,#0x1
   \   000025   12....       LCALL   ?Subroutine5 & 0xFFFF
    177              ep->pfnDescCB = descFn;
   \                     ??CrossCallReturnLabel_0:
   \   000028   E5..         MOV     A,?V0 + 0
   \   00002A   F0           MOVX    @DPTR,A
   \   00002B   A3           INC     DPTR
   \   00002C   E5..         MOV     A,?V0 + 1
   \   00002E   12....       LCALL   ?Subroutine5 & 0xFFFF
    178              ep->nextDesc = NULL;
   \                     ??CrossCallReturnLabel_1:
   \   000031   A3           INC     DPTR
   \   000032   A3           INC     DPTR
   \   000033   E4           CLR     A
   \   000034   F0           MOVX    @DPTR,A
   \   000035   A3           INC     DPTR
   \   000036   F0           MOVX    @DPTR,A
    179          
    180              // Does a list exist?
    181              if ( epList == NULL )
   \   000037   90....       MOV     DPTR,#epList
   \   00003A   12....       LCALL   ?Subroutine7 & 0xFFFF
   \                     ??CrossCallReturnLabel_4:
   \   00003D   7005         JNZ     ??afRegisterExtended_1
    182                epList = ep;  // Make this the first entry
   \   00003F   90....       MOV     DPTR,#epList
   \   000042   801B         SJMP    ??afRegisterExtended_2
    183              else
    184              {
    185                // Look for the end of the list
    186                epSearch = epList;
   \                     ??afRegisterExtended_1:
   \   000044   E0           MOVX    A,@DPTR
   \   000045   F9           MOV     R1,A
    187                while( epSearch->nextDesc != NULL )
    188                  epSearch = epSearch->nextDesc;
   \                     ??afRegisterExtended_3:
   \   000046   E8           MOV     A,R0
   \   000047   2405         ADD     A,#0x5
   \   000049   F8           MOV     R0,A
   \   00004A   E9           MOV     A,R1
   \   00004B   3400         ADDC    A,#0x0
   \   00004D   F9           MOV     R1,A
   \   00004E   E8           MOV     A,R0
   \   00004F   FC           MOV     R4,A
   \   000050   E9           MOV     A,R1
   \   000051   FD           MOV     R5,A
   \   000052   8C82         MOV     DPL,R4
   \   000054   8D83         MOV     DPH,R5
   \   000056   12....       LCALL   ?Subroutine7 & 0xFFFF
   \                     ??CrossCallReturnLabel_5:
   \   000059   70EB         JNZ     ??afRegisterExtended_3
    189          
    190                // Add new entry to end of list
    191                epSearch->nextDesc = ep;
   \   00005B   8C82         MOV     DPL,R4
   \   00005D   8D83         MOV     DPH,R5
   \                     ??afRegisterExtended_2:
   \   00005F   EA           MOV     A,R2
   \   000060   F0           MOVX    @DPTR,A
   \   000061   A3           INC     DPTR
   \   000062   EB           MOV     A,R3
   \   000063   F0           MOVX    @DPTR,A
    192              }
    193            }
    194          
    195            return ep;
   \                     ??afRegisterExtended_0:
   \   000064                REQUIRE ?Subroutine1
   \   000064                ; // Fall through to label ?Subroutine1
    196          }

   \                                 In  segment BANKED_CODE, align 1, keep-with-next
   \                     ?Subroutine1:
   \   000000   7F04         MOV     R7,#0x4
   \   000002   02....       LJMP    ?BANKED_LEAVE_XDATA

   \                                 In  segment BANKED_CODE, align 1, keep-with-next
   \                     ?Subroutine21:
   \   000000   F0           MOVX    @DPTR,A
   \   000001   8A82         MOV     DPL,R2
   \   000003   8B83         MOV     DPH,R3
   \   000005   A3           INC     DPTR
   \   000006   A3           INC     DPTR
   \   000007   22           RET

   \                                 In  segment BANKED_CODE, align 1, keep-with-next
   \                     ?Subroutine5:
   \   000000   12....       LCALL   ?Subroutine21 & 0xFFFF
   \                     ??CrossCallReturnLabel_34:
   \   000003   A3           INC     DPTR
   \   000004   22           RET

   \                                 In  segment BANKED_CODE, align 1, keep-with-next
   \                     ?Subroutine24:
   \   000000   E0           MOVX    A,@DPTR
   \   000001   F8           MOV     R0,A
   \   000002   A3           INC     DPTR
   \   000003   E0           MOVX    A,@DPTR
   \   000004   F9           MOV     R1,A
   \   000005   22           RET

   \                                 In  segment BANKED_CODE, align 1, keep-with-next
   \                     ?Subroutine7:
   \   000000   12....       LCALL   ?Subroutine24 & 0xFFFF
   \                     ??CrossCallReturnLabel_52:
   \   000003   E8           MOV     A,R0
   \   000004   49           ORL     A,R1
   \   000005   22           RET
    197          
    198          /*********************************************************************
    199           * @fn      afRegister
    200           *
    201           * @brief   Register an Application's EndPoint description.
    202           *
    203           * @param   epDesc - pointer to the Application's endpoint descriptor.
    204           *
    205           * NOTE:  The memory that epDesc is pointing to must exist after this call.
    206           *
    207           * @return  afStatus_SUCCESS - Registered
    208           *          afStatus_MEM_FAIL - not enough memory to add descriptor
    209           *          afStatus_INVALID_PARAMETER - duplicate endpoint
    210           */

   \                                 In  segment BANKED_CODE, align 1, keep-with-next
    211          afStatus_t afRegister( endPointDesc_t *epDesc )
   \                     afRegister:
    212          {
   \   000000   74F6         MOV     A,#-0xa
   \   000002   12....       LCALL   ?BANKED_ENTER_XDATA
   \   000005                ; Saved register size: 10
   \   000005                ; Auto size: 0
   \   000005   EA           MOV     A,R2
   \   000006   FE           MOV     R6,A
   \   000007   EB           MOV     A,R3
   \   000008   FF           MOV     R7,A
    213            epList_t *ep;
    214            
    215            // Look for duplicate endpoint
    216            if ( afFindEndPointDescList( epDesc->endPoint ) )
   \   000009                ; Setup parameters for call to function afFindEndPointDescList
   \   000009   8E82         MOV     DPL,R6
   \   00000B   8F83         MOV     DPH,R7
   \   00000D   E0           MOVX    A,@DPTR
   \   00000E   F9           MOV     R1,A
   \   00000F   12....       LCALL   ??afFindEndPointDescList?relay
   \   000012   8B..         MOV     ?V0 + 1,R3
   \   000014   EA           MOV     A,R2
   \   000015   45..         ORL     A,?V0 + 1
   \   000017   6004         JZ      ??afRegister_0
    217              return ( afStatus_INVALID_PARAMETER );
   \   000019   7902         MOV     R1,#0x2
   \   00001B   8018         SJMP    ??afRegister_1
    218            
    219            ep = afRegisterExtended( epDesc, NULL );
    220          
    221            return ((ep == NULL) ? afStatus_MEM_FAIL : afStatus_SUCCESS);
   \                     ??afRegister_0:
   \   00001D                ; Setup parameters for call to function afRegisterExtended
   \   00001D   7C00         MOV     R4,#0x0
   \   00001F   7D00         MOV     R5,#0x0
   \   000021   EE           MOV     A,R6
   \   000022   FA           MOV     R2,A
   \   000023   EF           MOV     A,R7
   \   000024   FB           MOV     R3,A
   \   000025   12....       LCALL   ??afRegisterExtended?relay
   \   000028   8B..         MOV     ?V0 + 1,R3
   \   00002A   EA           MOV     A,R2
   \   00002B   45..         ORL     A,?V0 + 1
   \   00002D   7004         JNZ     ??afRegister_2
   \   00002F   7910         MOV     R1,#0x10
   \   000031   8002         SJMP    ??afRegister_1
   \                     ??afRegister_2:
   \   000033   7900         MOV     R1,#0x0
   \                     ??afRegister_1:
   \   000035   02....       LJMP    ?Subroutine2 & 0xFFFF
    222          }

   \                                 In  segment BANKED_CODE, align 1, keep-with-next
   \                     ?Subroutine2:
   \   000000   7F02         MOV     R7,#0x2
   \   000002   02....       LJMP    ?BANKED_LEAVE_XDATA
    223          
    224          
    225          /*********************************************************************
    226           * @fn          afDataConfirm
    227           *
    228           * @brief       This function will generate the Data Confirm back to
    229           *              the application.
    230           *
    231           * @param       endPoint - confirm end point
    232           * @param       transID - transaction ID from APSDE_DATA_REQUEST
    233           * @param       status - status of APSDE_DATA_REQUEST
    234           *
    235           * @return      none
    236           */

   \                                 In  segment BANKED_CODE, align 1, keep-with-next
    237          void afDataConfirm( uint8 endPoint, uint8 transID, ZStatus_t status )
   \                     afDataConfirm:
    238          {
   \   000000   74F2         MOV     A,#-0xe
   \   000002   12....       LCALL   ?BANKED_ENTER_XDATA
   \   000005                ; Saved register size: 14
   \   000005                ; Auto size: 0
   \   000005   89..         MOV     ?V0 + 0,R1
   \   000007   8A..         MOV     ?V0 + 1,R2
   \   000009   8B..         MOV     ?V0 + 2,R3
    239            endPointDesc_t *epDesc;
    240            afDataConfirm_t *msgPtr;
    241          
    242            // Find the endpoint description
    243            epDesc = afFindEndPointDesc( endPoint );
   \   00000B                ; Setup parameters for call to function afFindEndPointDesc
   \   00000B   12....       LCALL   ??afFindEndPointDesc?relay
   \   00000E   8A..         MOV     ?V0 + 4,R2
   \   000010   8B..         MOV     ?V0 + 5,R3
   \   000012   AE..         MOV     R6,?V0 + 4
   \   000014   AF..         MOV     R7,?V0 + 5
    244            if ( epDesc == NULL )
   \   000016   EE           MOV     A,R6
   \   000017   4F           ORL     A,R7
   \   000018   602B         JZ      ??afDataConfirm_0
    245              return;
    246          
    247            // Determine the incoming command type
    248            msgPtr = (afDataConfirm_t *)osal_msg_allocate( sizeof(afDataConfirm_t) );
   \   00001A                ; Setup parameters for call to function osal_msg_allocate
   \   00001A   7A04         MOV     R2,#0x4
   \   00001C   7B00         MOV     R3,#0x0
   \   00001E   12....       LCALL   ??osal_msg_allocate?relay
    249            if ( msgPtr )
   \   000021   EA           MOV     A,R2
   \   000022   4B           ORL     A,R3
   \   000023   6020         JZ      ??afDataConfirm_0
    250            {
    251              // Build the Data Confirm message
    252              msgPtr->hdr.event = AF_DATA_CONFIRM_CMD;
   \   000025   8A82         MOV     DPL,R2
   \   000027   8B83         MOV     DPH,R3
   \   000029   74FD         MOV     A,#-0x3
   \   00002B   F0           MOVX    @DPTR,A
    253              msgPtr->hdr.status = status;
   \   00002C   A3           INC     DPTR
   \   00002D   E5..         MOV     A,?V0 + 2
   \   00002F   12....       LCALL   ?Subroutine21 & 0xFFFF
    254              msgPtr->endpoint = endPoint;
   \                     ??CrossCallReturnLabel_33:
   \   000032   E5..         MOV     A,?V0 + 0
   \   000034   12....       LCALL   ?Subroutine5 & 0xFFFF
    255              msgPtr->transID = transID;
   \                     ??CrossCallReturnLabel_2:
   \   000037   E5..         MOV     A,?V0 + 1
   \   000039   F0           MOVX    @DPTR,A
    256          
    257          #if defined ( MT_AF_CB_FUNC )
    258              /* If MT has subscribed for this callback, don't send as a message. */
    259              if ( AFCB_CHECK(CB_ID_AF_DATA_CNF,*(epDesc->task_id)) )
    260              {
    261                /* Send callback if it's subscribed */
    262                MT_AfDataConfirm ((void *)msgPtr);
    263                /* Release the memory. */
    264                osal_msg_deallocate( (void *)msgPtr );
    265              }
    266              else
    267          #endif
    268              {
    269                /* send message through task message */
    270                osal_msg_send( *(epDesc->task_id), (byte *)msgPtr );
   \   00003A                ; Setup parameters for call to function osal_msg_send
   \   00003A   8E82         MOV     DPL,R6
   \   00003C   8F83         MOV     DPH,R7
   \   00003E   12....       LCALL   ?Subroutine10 & 0xFFFF
    271              }
    272            }
   \                     ??CrossCallReturnLabel_39:
   \   000041   F9           MOV     R1,A
   \   000042   12....       LCALL   ??osal_msg_send?relay
   \                     ??afDataConfirm_0:
   \   000045   7F06         MOV     R7,#0x6
   \   000047   02....       LJMP    ?BANKED_LEAVE_XDATA
    273          }

   \                                 In  segment BANKED_CODE, align 1, keep-with-next
   \                     ?Subroutine10:
   \   000000   A3           INC     DPTR
   \   000001                REQUIRE ??Subroutine25_0
   \   000001                ; // Fall through to label ??Subroutine25_0

   \                                 In  segment BANKED_CODE, align 1, keep-with-next
   \                     ??Subroutine25_0:
   \   000000   12....       LCALL   ?Subroutine23 & 0xFFFF
   \                     ??CrossCallReturnLabel_42:
   \   000003   E0           MOVX    A,@DPTR
   \   000004   22           RET

   \                                 In  segment BANKED_CODE, align 1, keep-with-next
   \                     ?Subroutine23:
   \   000000   E0           MOVX    A,@DPTR
   \   000001   F8           MOV     R0,A
   \   000002   A3           INC     DPTR
   \   000003   E0           MOVX    A,@DPTR
   \   000004   F583         MOV     DPH,A
   \   000006   8882         MOV     DPL,R0
   \   000008   22           RET
    274          
    275          /*********************************************************************
    276           * @fn          afIncomingData
    277           *
    278           * @brief       Transfer a data PDU (ASDU) from the APS sub-layer to the AF.
    279           *
    280           * @param       aff  - pointer to APS frame format
    281           * @param       SrcAddress  - Source address
    282           * @param       sig - incoming message's link quality
    283           * @param       SecurityUse - Security enable/disable
    284           *
    285           * @return      none
    286           */

   \                                 In  segment BANKED_CODE, align 1, keep-with-next
    287          void afIncomingData( aps_FrameFormat_t *aff, zAddrType_t *SrcAddress, uint16 SrcPanId,
   \                     afIncomingData:
    288                               NLDE_Signal_t *sig, byte SecurityUse, uint32 timestamp )
    289          {
   \   000000   74E8         MOV     A,#-0x18
   \   000002   12....       LCALL   ?BANKED_ENTER_XDATA
   \   000005                ; Saved register size: 24
   \   000005                ; Auto size: 2
   \   000005   74FE         MOV     A,#-0x2
   \   000007   12....       LCALL   ?ALLOC_XSTACK8
   \   00000A   85..82       MOV     DPL,?XSP + 0
   \   00000D   85..83       MOV     DPH,?XSP + 1
   \   000010   EC           MOV     A,R4
   \   000011   F0           MOVX    @DPTR,A
   \   000012   A3           INC     DPTR
   \   000013   ED           MOV     A,R5
   \   000014   F0           MOVX    @DPTR,A
   \   000015   8A..         MOV     ?V0 + 10,R2
   \   000017   8B..         MOV     ?V0 + 11,R3
   \   000019   89..         MOV     ?V0 + 5,R1
    290            endPointDesc_t *epDesc = NULL;
    291            uint16 epProfileID = 0xFFFF;  // Invalid Profile ID
   \   00001B   75..FF       MOV     ?V0 + 14,#-0x1
   \   00001E   75..FF       MOV     ?V0 + 15,#-0x1
    292            epList_t *pList = epList;
   \   000021   90....       MOV     DPTR,#epList
   \   000024   12....       LCALL   ?Subroutine8 & 0xFFFF
    293          #if !defined ( APS_NO_GROUPS )    
    294            uint8 grpEp = APS_GROUPS_EP_NOT_FOUND;
   \                     ??CrossCallReturnLabel_7:
   \   000027   75..FE       MOV     ?V0 + 4,#-0x2
   \   00002A   8A82         MOV     DPL,R2
   \   00002C   8B83         MOV     DPH,R3
   \   00002E   E0           MOVX    A,@DPTR
   \   00002F   540C         ANL     A,#0xc
   \   000031   640C         XRL     A,#0xc
   \   000033   7026         JNZ     ??afIncomingData_0
    295          #endif  
    296          
    297            if ( ((aff->FrmCtrl & APS_DELIVERYMODE_MASK) == APS_FC_DM_GROUP) )
    298            {
    299          #if !defined ( APS_NO_GROUPS )    
    300              // Find the first endpoint for this group
    301              grpEp = aps_FindGroupForEndpoint( aff->GroupID, APS_GROUPS_FIND_FIRST );
   \   000035                ; Setup parameters for call to function aps_FindGroupForEndpoint
   \   000035   79FE         MOV     R1,#-0x2
   \   000037   12....       LCALL   ?Subroutine16 & 0xFFFF
   \                     ??CrossCallReturnLabel_73:
   \   00003A   12....       LCALL   ??aps_FindGroupForEndpoint?relay
   \   00003D   E9           MOV     A,R1
   \   00003E   F5..         MOV     ?V0 + 4,A
    302              if ( grpEp == APS_GROUPS_EP_NOT_FOUND )
   \   000040   74FE         MOV     A,#-0x2
   \   000042   65..         XRL     A,?V0 + 4
   \   000044   7003         JNZ     $+5
   \   000046   02....       LJMP    ??afIncomingData_1 & 0xFFFF
    303                return;   // No endpoint found
    304          
    305              epDesc = afFindEndPointDesc( grpEp );
   \   000049                ; Setup parameters for call to function afFindEndPointDesc
   \   000049   12....       LCALL   ??afFindEndPointDesc?relay
   \   00004C   8A..         MOV     ?V0 + 0,R2
   \   00004E   8B..         MOV     ?V0 + 1,R3
   \   000050   AE..         MOV     R6,?V0 + 0
   \   000052   AF..         MOV     R7,?V0 + 1
    306              if ( epDesc == NULL )
   \   000054   EE           MOV     A,R6
   \   000055   4F           ORL     A,R7
   \   000056   7057         JNZ     ??afIncomingData_2
   \   000058   02....       LJMP    ??afIncomingData_1 & 0xFFFF
    307                return;   // Endpoint descriptor not found
    308          
    309              pList = afFindEndPointDescList( epDesc->endPoint );
    310          #else
    311              return; // Not supported
    312          #endif    
    313            }
    314            else if ( aff->DstEndPoint == AF_BROADCAST_ENDPOINT )
   \                     ??afIncomingData_0:
   \   00005B   A3           INC     DPTR
   \   00005C   A3           INC     DPTR
   \   00005D   E0           MOVX    A,@DPTR
   \   00005E   F9           MOV     R1,A
   \   00005F   74FF         MOV     A,#-0x1
   \   000061   69           XRL     A,R1
   \   000062   7038         JNZ     ??afIncomingData_3
    315            {
    316              // Set the list
    317              if ( pList != NULL )
   \   000064   E5..         MOV     A,?V0 + 6
   \   000066   45..         ORL     A,?V0 + 7
   \   000068   7003         JNZ     $+5
   \   00006A   02....       LJMP    ??afIncomingData_1 & 0xFFFF
    318              {
    319                epDesc = pList->epDesc;
   \   00006D   85..82       MOV     DPL,?V0 + 6
   \   000070   85..83       MOV     DPH,?V0 + 7
   \   000073   E0           MOVX    A,@DPTR
   \   000074   FE           MOV     R6,A
   \   000075   A3           INC     DPTR
   \   000076   E0           MOVX    A,@DPTR
   \   000077   FF           MOV     R7,A
   \                     ??afIncomingData_4:
   \   000078   741A         MOV     A,#0x1a
   \   00007A   12....       LCALL   ?XSTACK_DISP0_8
    320              }
    321            }
   \   00007D   12....       LCALL   ?Subroutine11 & 0xFFFF
   \                     ??CrossCallReturnLabel_13:
   \   000080   741C         MOV     A,#0x1c
   \   000082   12....       LCALL   ?XSTACK_DISP0_8
   \   000085   12....       LCALL   ??Subroutine27_0 & 0xFFFF
   \                     ??CrossCallReturnLabel_43:
   \   000088   741C         MOV     A,#0x1c
   \   00008A   12....       LCALL   ?XSTACK_DISP0_8
   \   00008D   12....       LCALL   ??Subroutine28_0 & 0xFFFF
   \                     ??CrossCallReturnLabel_56:
   \   000090   741E         MOV     A,#0x1e
   \   000092   12....       LCALL   ?XSTACK_DISP0_8
   \   000095   78..         MOV     R0,#?V0 + 0
   \   000097   12....       LCALL   ?L_MOV_X
   \   00009A   802D         SJMP    ??afIncomingData_5
    322            else if ( (epDesc = afFindEndPointDesc( aff->DstEndPoint )) )
   \                     ??afIncomingData_3:
   \   00009C                ; Setup parameters for call to function afFindEndPointDesc
   \   00009C   12....       LCALL   ??afFindEndPointDesc?relay
   \   00009F   8A..         MOV     ?V0 + 0,R2
   \   0000A1   8B..         MOV     ?V0 + 1,R3
   \   0000A3   A8..         MOV     R0,?V0 + 0
   \   0000A5   A9..         MOV     R1,?V0 + 1
   \   0000A7   E8           MOV     A,R0
   \   0000A8   FE           MOV     R6,A
   \   0000A9   E9           MOV     A,R1
   \   0000AA   FF           MOV     R7,A
   \   0000AB   E8           MOV     A,R0
   \   0000AC   49           ORL     A,R1
   \   0000AD   60C9         JZ      ??afIncomingData_4
    323            {
    324              pList = afFindEndPointDescList( epDesc->endPoint );
   \                     ??afIncomingData_2:
   \   0000AF                ; Setup parameters for call to function afFindEndPointDescList
   \   0000AF   8E82         MOV     DPL,R6
   \   0000B1   8F83         MOV     DPH,R7
   \   0000B3   E0           MOVX    A,@DPTR
   \   0000B4   F9           MOV     R1,A
   \   0000B5   12....       LCALL   ??afFindEndPointDescList?relay
   \   0000B8   8A..         MOV     ?V0 + 6,R2
   \   0000BA   8B..         MOV     ?V0 + 7,R3
   \   0000BC   80BA         SJMP    ??afIncomingData_4
    325            }
    326          
    327            while ( epDesc )
    328            {
    329              if ( pList->pfnDescCB )
    330              {
    331                uint16 *pID = (uint16 *)(pList->pfnDescCB(
    332                                           AF_DESCRIPTOR_PROFILE_ID, epDesc->endPoint ));
    333                if ( pID )
    334                {
    335                  epProfileID = *pID;
    336                  osal_mem_free( pID );
    337                }
    338              }
    339              else if ( epDesc->simpleDesc )
    340              {
    341                epProfileID = epDesc->simpleDesc->AppProfId;
    342              }
    343          
    344              if ( (aff->ProfileID == epProfileID) ||
    345                   ((epDesc->endPoint == ZDO_EP) && (aff->ProfileID == ZDO_PROFILE_ID)) )
    346              {
    347                {
    348                  afBuildMSGIncoming( aff, epDesc, SrcAddress, SrcPanId, sig, SecurityUse, timestamp );
    349                }
    350              }
    351          
    352              if ( ((aff->FrmCtrl & APS_DELIVERYMODE_MASK) == APS_FC_DM_GROUP) )
    353              {
    354          #if !defined ( APS_NO_GROUPS )      
    355                // Find the next endpoint for this group
    356                grpEp = aps_FindGroupForEndpoint( aff->GroupID, grpEp );
    357                if ( grpEp == APS_GROUPS_EP_NOT_FOUND )
    358                  return;   // No endpoint found
    359          
    360                epDesc = afFindEndPointDesc( grpEp );
    361                if ( epDesc == NULL )
    362                  return;   // Endpoint descriptor not found
    363          
    364                pList = afFindEndPointDescList( epDesc->endPoint );
    365          #else
    366                return;
    367          #endif      
    368              }
    369              else if ( aff->DstEndPoint == AF_BROADCAST_ENDPOINT )
    370              {
    371                pList = pList->nextDesc;
    372                if ( pList )
    373                  epDesc = pList->epDesc;
   \                     ??afIncomingData_6:
   \   0000BE   85..82       MOV     DPL,?V0 + 6
   \   0000C1   85..83       MOV     DPH,?V0 + 7
   \   0000C4   E0           MOVX    A,@DPTR
   \   0000C5   FE           MOV     R6,A
   \   0000C6   A3           INC     DPTR
   \   0000C7   E0           MOVX    A,@DPTR
   \   0000C8   FF           MOV     R7,A
   \                     ??afIncomingData_5:
   \   0000C9   EE           MOV     A,R6
   \   0000CA   4F           ORL     A,R7
   \   0000CB   7003         JNZ     $+5
   \   0000CD   02....       LJMP    ??afIncomingData_1 & 0xFFFF
   \   0000D0   8033         SJMP    ??afIncomingData_7
   \                     ??afIncomingData_8:
   \   0000D2                ; Setup parameters for call to function aps_FindGroupForEndpoint
   \   0000D2   A9..         MOV     R1,?V0 + 4
   \   0000D4   12....       LCALL   ?Subroutine16 & 0xFFFF
   \                     ??CrossCallReturnLabel_74:
   \   0000D7   12....       LCALL   ??aps_FindGroupForEndpoint?relay
   \   0000DA   E9           MOV     A,R1
   \   0000DB   F5..         MOV     ?V0 + 4,A
   \   0000DD   74FE         MOV     A,#-0x2
   \   0000DF   65..         XRL     A,?V0 + 4
   \   0000E1   7003         JNZ     $+5
   \   0000E3   02....       LJMP    ??afIncomingData_1 & 0xFFFF
   \   0000E6                ; Setup parameters for call to function afFindEndPointDesc
   \   0000E6   12....       LCALL   ??afFindEndPointDesc?relay
   \   0000E9   8A..         MOV     ?V0 + 6,R2
   \   0000EB   8B..         MOV     ?V0 + 7,R3
   \   0000ED   AE..         MOV     R6,?V0 + 6
   \   0000EF   AF..         MOV     R7,?V0 + 7
   \   0000F1   EE           MOV     A,R6
   \   0000F2   4F           ORL     A,R7
   \   0000F3   7003         JNZ     $+5
   \   0000F5   02....       LJMP    ??afIncomingData_1 & 0xFFFF
   \   0000F8                ; Setup parameters for call to function afFindEndPointDescList
   \   0000F8   8E82         MOV     DPL,R6
   \   0000FA   8F83         MOV     DPH,R7
   \   0000FC   E0           MOVX    A,@DPTR
   \   0000FD   F9           MOV     R1,A
   \   0000FE   12....       LCALL   ??afFindEndPointDescList?relay
   \   000101   8A..         MOV     ?V0 + 6,R2
   \   000103   8B..         MOV     ?V0 + 7,R3
   \                     ??afIncomingData_7:
   \   000105   85..82       MOV     DPL,?V0 + 6
   \   000108   85..83       MOV     DPH,?V0 + 7
   \   00010B   A3           INC     DPTR
   \   00010C   A3           INC     DPTR
   \   00010D   A3           INC     DPTR
   \   00010E   12....       LCALL   ?Subroutine13 & 0xFFFF
   \                     ??CrossCallReturnLabel_18:
   \   000111   EC           MOV     A,R4
   \   000112   4D           ORL     A,R5
   \   000113   8E82         MOV     DPL,R6
   \   000115   8F83         MOV     DPH,R7
   \   000117   6016         JZ      ??afIncomingData_9
   \   000119                ; Setup parameters for indirect call
   \   000119   12....       LCALL   ?Subroutine19 & 0xFFFF
   \                     ??CrossCallReturnLabel_30:
   \   00011C   12....       LCALL   ?CALL_IND
   \   00011F   EA           MOV     A,R2
   \   000120   4B           ORL     A,R3
   \   000121   6015         JZ      ??CrossCallReturnLabel_24
   \   000123   8A82         MOV     DPL,R2
   \   000125   8B83         MOV     DPH,R3
   \   000127   12....       LCALL   ?Subroutine14 & 0xFFFF
   \                     ??CrossCallReturnLabel_23:
   \   00012A                ; Setup parameters for call to function osal_mem_free
   \   00012A   12....       LCALL   ??osal_mem_free?relay
   \   00012D   8009         SJMP    ??CrossCallReturnLabel_24
   \                     ??afIncomingData_9:
   \   00012F   12....       LCALL   ?Subroutine9 & 0xFFFF
   \                     ??CrossCallReturnLabel_11:
   \   000132   6004         JZ      ??CrossCallReturnLabel_24
   \   000134   A3           INC     DPTR
   \   000135   12....       LCALL   ?Subroutine14 & 0xFFFF
   \                     ??CrossCallReturnLabel_24:
   \   000138   85..82       MOV     DPL,?V0 + 10
   \   00013B   85..83       MOV     DPH,?V0 + 11
   \   00013E   12....       LCALL   ?Subroutine18 & 0xFFFF
   \                     ??CrossCallReturnLabel_50:
   \   000141   E5..         MOV     A,?V0 + 14
   \   000143   68           XRL     A,R0
   \   000144   7003         JNZ     ??afIncomingData_10
   \   000146   E5..         MOV     A,?V0 + 15
   \   000148   69           XRL     A,R1
   \                     ??afIncomingData_10:
   \   000149   600B         JZ      ??afIncomingData_11
   \   00014B   8E82         MOV     DPL,R6
   \   00014D   8F83         MOV     DPH,R7
   \   00014F   E0           MOVX    A,@DPTR
   \   000150   7030         JNZ     ??afIncomingData_12
   \   000152   E8           MOV     A,R0
   \   000153   49           ORL     A,R1
   \   000154   702C         JNZ     ??afIncomingData_12
   \                     ??afIncomingData_11:
   \   000156                ; Setup parameters for call to function afBuildMSGIncoming
   \   000156   78..         MOV     R0,#?V0 + 0
   \   000158   12....       LCALL   ?PUSH_XSTACK_I_FOUR
   \   00015B   7420         MOV     A,#0x20
   \   00015D   12....       LCALL   ?XSTACK_DISP0_8
   \   000160   12....       LCALL   ?PUSH_XSTACK8_X_TWO
   \   000163   78..         MOV     R0,#?V0 + 8
   \   000165   12....       LCALL   ?PUSH_XSTACK_I_TWO
   \   000168   7408         MOV     A,#0x8
   \   00016A   12....       LCALL   ?XSTACK_DISP0_8
   \   00016D   12....       LCALL   ?PUSH_XSTACK8_X_TWO
   \   000170   A9..         MOV     R1,?V0 + 5
   \   000172   EE           MOV     A,R6
   \   000173   FC           MOV     R4,A
   \   000174   EF           MOV     A,R7
   \   000175   FD           MOV     R5,A
   \   000176   AA..         MOV     R2,?V0 + 10
   \   000178   AB..         MOV     R3,?V0 + 11
   \   00017A   12....       LCALL   ??afBuildMSGIncoming?relay
   \   00017D   740A         MOV     A,#0xa
   \   00017F   12....       LCALL   ?DEALLOC_XSTACK8
   \                     ??afIncomingData_12:
   \   000182   85..82       MOV     DPL,?V0 + 10
   \   000185   85..83       MOV     DPH,?V0 + 11
   \   000188   E0           MOVX    A,@DPTR
   \   000189   540C         ANL     A,#0xc
   \   00018B   640C         XRL     A,#0xc
   \   00018D   7003         JNZ     $+5
   \   00018F   02....       LJMP    ??afIncomingData_8 & 0xFFFF
   \   000192   A3           INC     DPTR
   \   000193   A3           INC     DPTR
   \   000194   E0           MOVX    A,@DPTR
   \   000195   F4           CPL     A
   \   000196   7017         JNZ     ??afIncomingData_1
   \   000198   85..82       MOV     DPL,?V0 + 6
   \   00019B   85..83       MOV     DPH,?V0 + 7
   \   00019E   A3           INC     DPTR
   \   00019F   A3           INC     DPTR
   \   0001A0   A3           INC     DPTR
   \   0001A1   A3           INC     DPTR
   \   0001A2   A3           INC     DPTR
   \   0001A3   12....       LCALL   ?Subroutine8 & 0xFFFF
   \                     ??CrossCallReturnLabel_8:
   \   0001A6   E5..         MOV     A,?V0 + 6
   \   0001A8   45..         ORL     A,?V0 + 7
   \   0001AA   6003         JZ      $+5
   \   0001AC   02....       LJMP    ??afIncomingData_6 & 0xFFFF
    374                else
    375                  epDesc = NULL;
    376              }
    377              else
    378                epDesc = NULL;
   \                     ??afIncomingData_1:
   \   0001AF   7402         MOV     A,#0x2
   \   0001B1   12....       LCALL   ?DEALLOC_XSTACK8
   \   0001B4                REQUIRE ?Subroutine3
   \   0001B4                ; // Fall through to label ?Subroutine3
    379            }
    380          }

   \                                 In  segment BANKED_CODE, align 1, keep-with-next
   \                     ?Subroutine3:
   \   000000   7F10         MOV     R7,#0x10
   \   000002   02....       LJMP    ?BANKED_LEAVE_XDATA

   \                                 In  segment BANKED_CODE, align 1, keep-with-next
   \                     ?Subroutine14:
   \   000000   E0           MOVX    A,@DPTR
   \   000001   F5..         MOV     ?V0 + 14,A
   \   000003   A3           INC     DPTR
   \   000004   E0           MOVX    A,@DPTR
   \   000005   F5..         MOV     ?V0 + 15,A
   \   000007   22           RET

   \                                 In  segment BANKED_CODE, align 1, keep-with-next
   \                     ?Subroutine19:
   \   000000   E0           MOVX    A,@DPTR
   \   000001   FA           MOV     R2,A
   \   000002   7902         MOV     R1,#0x2
   \   000004   8C82         MOV     DPL,R4
   \   000006   8D83         MOV     DPH,R5
   \   000008   22           RET

   \                                 In  segment BANKED_CODE, align 1, keep-with-next
   \                     ?Subroutine18:
   \   000000   A3           INC     DPTR
   \   000001   A3           INC     DPTR
   \   000002   A3           INC     DPTR
   \   000003   A3           INC     DPTR
   \   000004   A3           INC     DPTR
   \   000005   A3           INC     DPTR
   \   000006   A3           INC     DPTR
   \   000007                REQUIRE ??Subroutine26_0
   \   000007                ; // Fall through to label ??Subroutine26_0

   \                                 In  segment BANKED_CODE, align 1, keep-with-next
   \                     ??Subroutine26_0:
   \   000000   A3           INC     DPTR
   \   000001                REQUIRE ??Subroutine27_0
   \   000001                ; // Fall through to label ??Subroutine27_0

   \                                 In  segment BANKED_CODE, align 1, keep-with-next
   \                     ??Subroutine27_0:
   \   000000   12....       LCALL   ?Subroutine24 & 0xFFFF
   \                     ??CrossCallReturnLabel_55:
   \   000003   22           RET

   \                                 In  segment BANKED_CODE, align 1, keep-with-next
   \                     ?Subroutine11:
   \   000000   E0           MOVX    A,@DPTR
   \   000001   F5..         MOV     ?V0 + 8,A
   \   000003   A3           INC     DPTR
   \   000004   E0           MOVX    A,@DPTR
   \   000005   F5..         MOV     ?V0 + 9,A
   \   000007   22           RET

   \                                 In  segment BANKED_CODE, align 1, keep-with-next
   \                     ?Subroutine9:
   \   000000   A3           INC     DPTR
   \   000001   A3           INC     DPTR
   \   000002   A3           INC     DPTR
   \   000003   12....       LCALL   ?Subroutine22 & 0xFFFF
   \                     ??CrossCallReturnLabel_36:
   \   000006   E582         MOV     A,DPL
   \   000008   4583         ORL     A,DPH
   \   00000A   22           RET

   \                                 In  segment BANKED_CODE, align 1, keep-with-next
   \                     ?Subroutine8:
   \   000000   E0           MOVX    A,@DPTR
   \   000001   F5..         MOV     ?V0 + 6,A
   \   000003   A3           INC     DPTR
   \   000004   E0           MOVX    A,@DPTR
   \   000005   F5..         MOV     ?V0 + 7,A
   \   000007   22           RET

   \                                 In  segment BANKED_CODE, align 1, keep-with-next
   \                     ??Subroutine28_0:
   \   000000   E8           MOV     A,R0
   \   000001   F0           MOVX    @DPTR,A
   \   000002   A3           INC     DPTR
   \   000003   E9           MOV     A,R1
   \   000004   F0           MOVX    @DPTR,A
   \   000005   22           RET

   \                                 In  segment BANKED_CODE, align 1, keep-with-next
   \                     ?Subroutine13:
   \   000000   E0           MOVX    A,@DPTR
   \   000001   FC           MOV     R4,A
   \   000002   A3           INC     DPTR
   \   000003   E0           MOVX    A,@DPTR
   \   000004   FD           MOV     R5,A
   \   000005   22           RET

   \                                 In  segment BANKED_CODE, align 1, keep-with-next
   \                     ?Subroutine16:
   \   000000   A3           INC     DPTR
   \   000001                REQUIRE ??Subroutine29_0
   \   000001                ; // Fall through to label ??Subroutine29_0

   \                                 In  segment BANKED_CODE, align 1, keep-with-next
   \                     ??Subroutine29_0:
   \   000000   A3           INC     DPTR
   \   000001   A3           INC     DPTR
   \   000002   A3           INC     DPTR
   \   000003                REQUIRE ??Subroutine30_0
   \   000003                ; // Fall through to label ??Subroutine30_0

   \                                 In  segment BANKED_CODE, align 1, keep-with-next
   \                     ??Subroutine30_0:
   \   000000   E0           MOVX    A,@DPTR
   \   000001   FA           MOV     R2,A
   \   000002   A3           INC     DPTR
   \   000003   E0           MOVX    A,@DPTR
   \   000004   FB           MOV     R3,A
   \   000005   22           RET

   \                                 In  segment BANKED_CODE, align 1, keep-with-next
   \                     ?Subroutine22:
   \   000000   12....       LCALL   ?Subroutine24 & 0xFFFF
   \                     ??CrossCallReturnLabel_54:
   \   000003   8882         MOV     DPL,R0
   \   000005   8983         MOV     DPH,R1
   \   000007   22           RET
    381          
    382          /*********************************************************************
    383           * @fn          afBuildMSGIncoming
    384           *
    385           * @brief       Build the message for the app
    386           *
    387           * @param
    388           *
    389           * @return      pointer to next in data buffer
    390           */

   \                                 In  segment BANKED_CODE, align 1, keep-with-next
    391          static void afBuildMSGIncoming( aps_FrameFormat_t *aff, endPointDesc_t *epDesc,
   \                     afBuildMSGIncoming:
    392                           zAddrType_t *SrcAddress, uint16 SrcPanId, NLDE_Signal_t *sig, 
    393                           byte SecurityUse, uint32 timestamp )
    394          {
   \   000000   74E8         MOV     A,#-0x18
   \   000002   12....       LCALL   ?BANKED_ENTER_XDATA
   \   000005                ; Saved register size: 24
   \   000005                ; Auto size: 0
   \   000005   8A..         MOV     ?V0 + 0,R2
   \   000007   8B..         MOV     ?V0 + 1,R3
   \   000009   8C..         MOV     ?V0 + 8,R4
   \   00000B   8D..         MOV     ?V0 + 9,R5
   \   00000D   89..         MOV     ?V0 + 10,R1
   \   00000F   741E         MOV     A,#0x1e
   \   000011   12....       LCALL   ?XSTACK_DISP0_8
   \   000014   78..         MOV     R0,#?V0 + 4
   \   000016   12....       LCALL   ?L_MOV_X
    395            afIncomingMSGPacket_t *MSGpkt;
    396            const byte len = sizeof( afIncomingMSGPacket_t ) + aff->asduLength;
    397            byte *asdu = aff->asdu;
   \   000019   EA           MOV     A,R2
   \   00001A   240E         ADD     A,#0xe
   \   00001C   F582         MOV     DPL,A
   \   00001E   EB           MOV     A,R3
   \   00001F   12....       LCALL   ??Subroutine31_0 & 0xFFFF
   \                     ??CrossCallReturnLabel_75:
   \   000022   12....       LCALL   ?Subroutine14 & 0xFFFF
    398            MSGpkt = (afIncomingMSGPacket_t *)osal_msg_allocate( len );
   \                     ??CrossCallReturnLabel_25:
   \   000025   EA           MOV     A,R2
   \   000026   2410         ADD     A,#0x10
   \   000028   F5..         MOV     ?V0 + 2,A
   \   00002A   EB           MOV     A,R3
   \   00002B   3400         ADDC    A,#0x0
   \   00002D   F5..         MOV     ?V0 + 3,A
   \   00002F                ; Setup parameters for call to function osal_msg_allocate
   \   00002F   85..82       MOV     DPL,?V0 + 2
   \   000032   F583         MOV     DPH,A
   \   000034   E0           MOVX    A,@DPTR
   \   000035   2423         ADD     A,#0x23
   \   000037   FA           MOV     R2,A
   \   000038   7B00         MOV     R3,#0x0
   \   00003A   12....       LCALL   ??osal_msg_allocate?relay
   \   00003D   8A..         MOV     ?V0 + 12,R2
   \   00003F   8B..         MOV     ?V0 + 13,R3
   \   000041   AE..         MOV     R6,?V0 + 12
   \   000043   AF..         MOV     R7,?V0 + 13
    399          
    400            if ( MSGpkt == NULL )
   \   000045   EE           MOV     A,R6
   \   000046   4F           ORL     A,R7
   \   000047   7003         JNZ     $+5
   \   000049   02....       LJMP    ??afBuildMSGIncoming_0 & 0xFFFF
    401            {
    402              return;
    403            }
    404          
    405            MSGpkt->hdr.event = AF_INCOMING_MSG_CMD;
   \   00004C   8E82         MOV     DPL,R6
   \   00004E   8F83         MOV     DPH,R7
   \   000050   741A         MOV     A,#0x1a
   \   000052   F0           MOVX    @DPTR,A
    406            MSGpkt->groupId = aff->GroupID;
   \   000053   85..82       MOV     DPL,?V0 + 0
   \   000056   85..83       MOV     DPH,?V0 + 1
   \   000059   12....       LCALL   ?Subroutine12 & 0xFFFF
   \                     ??CrossCallReturnLabel_16:
   \   00005C   12....       LCALL   ??Subroutine28_0 & 0xFFFF
    407            MSGpkt->clusterId = aff->ClusterID;
   \                     ??CrossCallReturnLabel_57:
   \   00005F   85..82       MOV     DPL,?V0 + 0
   \   000062   85..83       MOV     DPH,?V0 + 1
   \   000065   A3           INC     DPTR
   \   000066   A3           INC     DPTR
   \   000067   12....       LCALL   ?Subroutine12 & 0xFFFF
   \                     ??CrossCallReturnLabel_17:
   \   00006A   A3           INC     DPTR
   \   00006B   A3           INC     DPTR
   \   00006C   12....       LCALL   ??Subroutine28_0 & 0xFFFF
    408            afCopyAddress( &MSGpkt->srcAddr, SrcAddress );
   \                     ??CrossCallReturnLabel_58:
   \   00006F                ; Setup parameters for call to function afCopyAddress
   \   00006F   7418         MOV     A,#0x18
   \   000071   12....       LCALL   ?XSTACK_DISP0_8
   \   000074   12....       LCALL   ?Subroutine13 & 0xFFFF
   \                     ??CrossCallReturnLabel_19:
   \   000077   EE           MOV     A,R6
   \   000078   2406         ADD     A,#0x6
   \   00007A   FA           MOV     R2,A
   \   00007B   EF           MOV     A,R7
   \   00007C   3400         ADDC    A,#0x0
   \   00007E   FB           MOV     R3,A
   \   00007F   12....       LCALL   ??afCopyAddress?relay
    409            MSGpkt->srcAddr.endPoint = aff->SrcEndPoint;
   \   000082   85..82       MOV     DPL,?V0 + 0
   \   000085   85..83       MOV     DPH,?V0 + 1
   \   000088   A3           INC     DPTR
   \   000089   A3           INC     DPTR
   \   00008A   A3           INC     DPTR
   \   00008B   E0           MOVX    A,@DPTR
   \   00008C   C0E0         PUSH    A
   \   00008E   EE           MOV     A,R6
   \   00008F   240F         ADD     A,#0xf
   \   000091   12....       LCALL   ?Subroutine20 & 0xFFFF
   \                     ??CrossCallReturnLabel_78:
   \   000094   D0E0         POP     A
   \   000096   F0           MOVX    @DPTR,A
    410            MSGpkt->endPoint = epDesc->endPoint;
   \   000097   85..82       MOV     DPL,?V0 + 8
   \   00009A   85..83       MOV     DPH,?V0 + 9
   \   00009D   E0           MOVX    A,@DPTR
   \   00009E   C0E0         PUSH    A
   \   0000A0   EE           MOV     A,R6
   \   0000A1   2414         ADD     A,#0x14
   \   0000A3   12....       LCALL   ?Subroutine20 & 0xFFFF
   \                     ??CrossCallReturnLabel_79:
   \   0000A6   D0E0         POP     A
   \   0000A8   F0           MOVX    @DPTR,A
    411            MSGpkt->wasBroadcast = aff->wasBroadcast;
   \   0000A9   E5..         MOV     A,?V0 + 0
   \   0000AB   240C         ADD     A,#0xc
   \   0000AD   F582         MOV     DPL,A
   \   0000AF   E5..         MOV     A,?V0 + 1
   \   0000B1   12....       LCALL   ??Subroutine31_0 & 0xFFFF
   \                     ??CrossCallReturnLabel_76:
   \   0000B4   E0           MOVX    A,@DPTR
   \   0000B5   C0E0         PUSH    A
   \   0000B7   EE           MOV     A,R6
   \   0000B8   2415         ADD     A,#0x15
   \   0000BA   12....       LCALL   ?Subroutine20 & 0xFFFF
   \                     ??CrossCallReturnLabel_80:
   \   0000BD   D0E0         POP     A
   \   0000BF   F0           MOVX    @DPTR,A
   \   0000C0   741C         MOV     A,#0x1c
   \   0000C2   12....       LCALL   ?XSTACK_DISP0_8
   \   0000C5   12....       LCALL   ?Subroutine17 & 0xFFFF
    412            MSGpkt->LinkQuality = sig->LinkQuality;
   \                     ??CrossCallReturnLabel_28:
   \   0000C8   E0           MOVX    A,@DPTR
   \   0000C9   C0E0         PUSH    A
   \   0000CB   EE           MOV     A,R6
   \   0000CC   2416         ADD     A,#0x16
   \   0000CE   12....       LCALL   ?Subroutine20 & 0xFFFF
   \                     ??CrossCallReturnLabel_81:
   \   0000D1   D0E0         POP     A
   \   0000D3   F0           MOVX    @DPTR,A
    413            MSGpkt->correlation = sig->correlation;
   \   0000D4   8882         MOV     DPL,R0
   \   0000D6   8983         MOV     DPH,R1
   \   0000D8   A3           INC     DPTR
   \   0000D9   E0           MOVX    A,@DPTR
   \   0000DA   C0E0         PUSH    A
   \   0000DC   EE           MOV     A,R6
   \   0000DD   2417         ADD     A,#0x17
   \   0000DF   12....       LCALL   ?Subroutine20 & 0xFFFF
   \                     ??CrossCallReturnLabel_82:
   \   0000E2   D0E0         POP     A
   \   0000E4   F0           MOVX    @DPTR,A
    414            MSGpkt->rssi = sig->rssi;
   \   0000E5   8882         MOV     DPL,R0
   \   0000E7   8983         MOV     DPH,R1
   \   0000E9   A3           INC     DPTR
   \   0000EA   A3           INC     DPTR
   \   0000EB   E0           MOVX    A,@DPTR
   \   0000EC   C0E0         PUSH    A
   \   0000EE   EE           MOV     A,R6
   \   0000EF   2418         ADD     A,#0x18
   \   0000F1   12....       LCALL   ?Subroutine20 & 0xFFFF
   \                     ??CrossCallReturnLabel_83:
   \   0000F4   D0E0         POP     A
   \   0000F6   F0           MOVX    @DPTR,A
    415            MSGpkt->SecurityUse = SecurityUse;
   \   0000F7   EE           MOV     A,R6
   \   0000F8   2419         ADD     A,#0x19
   \   0000FA   12....       LCALL   ?Subroutine20 & 0xFFFF
   \                     ??CrossCallReturnLabel_84:
   \   0000FD   E5..         MOV     A,?V0 + 10
   \   0000FF   F0           MOVX    @DPTR,A
    416            MSGpkt->timestamp = timestamp;
   \   000100   EE           MOV     A,R6
   \   000101   241A         ADD     A,#0x1a
   \   000103   12....       LCALL   ?Subroutine20 & 0xFFFF
   \                     ??CrossCallReturnLabel_85:
   \   000106   78..         MOV     R0,#?V0 + 4
   \   000108   12....       LCALL   ?L_MOV_TO_X
    417            MSGpkt->macDestAddr = aff->macDestAddr;
   \   00010B   85..82       MOV     DPL,?V0 + 0
   \   00010E   85..83       MOV     DPH,?V0 + 1
   \   000111   A3           INC     DPTR
   \   000112   A3           INC     DPTR
   \   000113   12....       LCALL   ?Subroutine18 & 0xFFFF
   \                     ??CrossCallReturnLabel_51:
   \   000116   EE           MOV     A,R6
   \   000117   2412         ADD     A,#0x12
   \   000119   12....       LCALL   ?Subroutine6 & 0xFFFF
    418            MSGpkt->srcAddr.panId = SrcPanId;
   \                     ??CrossCallReturnLabel_64:
   \   00011C   741A         MOV     A,#0x1a
   \   00011E   12....       LCALL   ?XSTACK_DISP0_8
   \   000121   12....       LCALL   ??Subroutine27_0 & 0xFFFF
   \                     ??CrossCallReturnLabel_44:
   \   000124   EE           MOV     A,R6
   \   000125   2410         ADD     A,#0x10
   \   000127   12....       LCALL   ?Subroutine6 & 0xFFFF
    419            MSGpkt->cmd.TransSeqNumber = 0;
   \                     ??CrossCallReturnLabel_65:
   \   00012A   EE           MOV     A,R6
   \   00012B   241E         ADD     A,#0x1e
   \   00012D   12....       LCALL   ?Subroutine20 & 0xFFFF
   \                     ??CrossCallReturnLabel_86:
   \   000130   E4           CLR     A
   \   000131   F0           MOVX    @DPTR,A
    420            MSGpkt->cmd.DataLength = aff->asduLength;
   \   000132   85..82       MOV     DPL,?V0 + 2
   \   000135   85..83       MOV     DPH,?V0 + 3
   \   000138   E0           MOVX    A,@DPTR
   \   000139   FC           MOV     R4,A
   \   00013A   EE           MOV     A,R6
   \   00013B   241F         ADD     A,#0x1f
   \   00013D   F8           MOV     R0,A
   \   00013E   EF           MOV     A,R7
   \   00013F   3400         ADDC    A,#0x0
   \   000141   F9           MOV     R1,A
   \   000142   E8           MOV     A,R0
   \   000143   FA           MOV     R2,A
   \   000144   E9           MOV     A,R1
   \   000145   FB           MOV     R3,A
   \   000146   8A82         MOV     DPL,R2
   \   000148   8B83         MOV     DPH,R3
   \   00014A   EC           MOV     A,R4
   \   00014B   F0           MOVX    @DPTR,A
   \   00014C   A3           INC     DPTR
   \   00014D   E4           CLR     A
   \   00014E   F0           MOVX    @DPTR,A
    421          
    422            if ( MSGpkt->cmd.DataLength )
   \   00014F   EE           MOV     A,R6
   \   000150   2421         ADD     A,#0x21
   \   000152   F8           MOV     R0,A
   \   000153   EF           MOV     A,R7
   \   000154   3400         ADDC    A,#0x0
   \   000156   F9           MOV     R1,A
   \   000157   88..         MOV     ?V0 + 4,R0
   \   000159   89..         MOV     ?V0 + 5,R1
   \   00015B   EC           MOV     A,R4
   \   00015C   6039         JZ      ??afBuildMSGIncoming_1
    423            {
    424              MSGpkt->cmd.Data = (byte *)(MSGpkt + 1);
   \   00015E   EE           MOV     A,R6
   \   00015F   2423         ADD     A,#0x23
   \   000161   F8           MOV     R0,A
   \   000162   EF           MOV     A,R7
   \   000163   3400         ADDC    A,#0x0
   \   000165   F9           MOV     R1,A
   \   000166   85..82       MOV     DPL,?V0 + 4
   \   000169   85..83       MOV     DPH,?V0 + 5
   \   00016C   12....       LCALL   ??Subroutine28_0 & 0xFFFF
    425              osal_memcpy( MSGpkt->cmd.Data, asdu, MSGpkt->cmd.DataLength );
   \                     ??CrossCallReturnLabel_59:
   \   00016F                ; Setup parameters for call to function osal_memcpy
   \   00016F   85....       MOV     ?V0 + 0,?V0 + 14
   \   000172   85....       MOV     ?V0 + 1,?V0 + 15
   \   000175   75..00       MOV     ?V0 + 2,#0x0
   \   000178   78..         MOV     R0,#?V0 + 0
   \   00017A   12....       LCALL   ?PUSH_XSTACK_I_THREE
   \   00017D   8A82         MOV     DPL,R2
   \   00017F   8B83         MOV     DPH,R3
   \   000181   12....       LCALL   ?Subroutine13 & 0xFFFF
    426            }
   \                     ??CrossCallReturnLabel_20:
   \   000184   85..82       MOV     DPL,?V0 + 4
   \   000187   85..83       MOV     DPH,?V0 + 5
   \   00018A   12....       LCALL   ??Subroutine30_0 & 0xFFFF
   \                     ??CrossCallReturnLabel_66:
   \   00018D   12....       LCALL   ??osal_memcpy?relay
   \   000190   7403         MOV     A,#0x3
   \   000192   12....       LCALL   ?DEALLOC_XSTACK8
   \   000195   8008         SJMP    ??afBuildMSGIncoming_2
    427            else
    428            {
    429              MSGpkt->cmd.Data = NULL;
   \                     ??afBuildMSGIncoming_1:
   \   000197   8882         MOV     DPL,R0
   \   000199   8983         MOV     DPH,R1
   \   00019B   E4           CLR     A
   \   00019C   F0           MOVX    @DPTR,A
   \   00019D   A3           INC     DPTR
   \   00019E   F0           MOVX    @DPTR,A
    430            }
    431          
    432          #if defined ( MT_AF_CB_FUNC )
    433            // If ZDO or SAPI have registered for this endpoint, dont intercept it here
    434            if (AFCB_CHECK(CB_ID_AF_DATA_IND, *(epDesc->task_id)))
    435            {
    436              MT_AfIncomingMsg( (void *)MSGpkt );
    437              // Release the memory.
    438              osal_msg_deallocate( (void *)MSGpkt );
    439            }
    440            else
    441          #endif
    442            {
    443              // Send message through task message.
    444              osal_msg_send( *(epDesc->task_id), (uint8 *)MSGpkt );
   \                     ??afBuildMSGIncoming_2:
   \   00019F                ; Setup parameters for call to function osal_msg_send
   \   00019F   EE           MOV     A,R6
   \   0001A0   FA           MOV     R2,A
   \   0001A1   EF           MOV     A,R7
   \   0001A2   FB           MOV     R3,A
   \   0001A3   85..82       MOV     DPL,?V0 + 8
   \   0001A6   85..83       MOV     DPH,?V0 + 9
   \   0001A9   12....       LCALL   ?Subroutine10 & 0xFFFF
    445            }
   \                     ??CrossCallReturnLabel_40:
   \   0001AC   F9           MOV     R1,A
   \   0001AD   12....       LCALL   ??osal_msg_send?relay
    446          }
   \                     ??afBuildMSGIncoming_0:
   \   0001B0   02....       LJMP    ?Subroutine3 & 0xFFFF

   \                                 In  segment BANKED_CODE, align 1, keep-with-next
   \                     ?Subroutine12:
   \   000000   A3           INC     DPTR
   \   000001   A3           INC     DPTR
   \   000002   A3           INC     DPTR
   \   000003   A3           INC     DPTR
   \   000004   12....       LCALL   ?Subroutine24 & 0xFFFF
   \                     ??CrossCallReturnLabel_53:
   \   000007   8E82         MOV     DPL,R6
   \   000009   8F83         MOV     DPH,R7
   \   00000B   A3           INC     DPTR
   \   00000C   A3           INC     DPTR
   \   00000D   22           RET

   \                                 In  segment BANKED_CODE, align 1, keep-with-next
   \                     ?Subroutine6:
   \   000000   F582         MOV     DPL,A
   \   000002   EF           MOV     A,R7
   \   000003   3400         ADDC    A,#0x0
   \   000005   F583         MOV     DPH,A
   \   000007                REQUIRE ??Subroutine28_0
   \   000007                ; // Fall through to label ??Subroutine28_0

   \                                 In  segment BANKED_CODE, align 1, keep-with-next
   \                     ?Subroutine20:
   \   000000   F582         MOV     DPL,A
   \   000002   EF           MOV     A,R7
   \   000003                REQUIRE ??Subroutine31_0
   \   000003                ; // Fall through to label ??Subroutine31_0

   \                                 In  segment BANKED_CODE, align 1, keep-with-next
   \                     ??Subroutine31_0:
   \   000000   3400         ADDC    A,#0x0
   \   000002   F583         MOV     DPH,A
   \   000004   22           RET

   \                                 In  segment BANKED_CODE, align 1, keep-with-next
   \                     ?Subroutine17:
   \   000000   12....       LCALL   ?Subroutine22 & 0xFFFF
   \                     ??CrossCallReturnLabel_35:
   \   000003   22           RET
    447          
    448          /*********************************************************************
    449           * @fn      AF_DataRequest
    450           *
    451           * @brief   Common functionality for invoking APSDE_DataReq() for both
    452           *          SendMulti and MSG-Send.
    453           *
    454           * input parameters
    455           *
    456           * @param  *dstAddr - Full ZB destination address: Nwk Addr + End Point.
    457           * @param  *srcEP - Origination (i.e. respond to or ack to) End Point Descr.
    458           * @param   cID - A valid cluster ID as specified by the Profile.
    459           * @param   len - Number of bytes of data pointed to by next param.
    460           * @param  *buf - A pointer to the data bytes to send.
    461           * @param  *transID - A pointer to a byte which can be modified and which will
    462           *                    be used as the transaction sequence number of the msg.
    463           * @param   options - Valid bit mask of Tx options.
    464           * @param   radius - Normally set to AF_DEFAULT_RADIUS.
    465           *
    466           * output parameters
    467           *
    468           * @param  *transID - Incremented by one if the return value is success.
    469           *
    470           * @return  afStatus_t - See previous definition of afStatus_... types.
    471           */

   \                                 In  segment XDATA_I, align 1, keep-with-next
    472          uint8 AF_DataRequestDiscoverRoute = TRUE;
   \                     AF_DataRequestDiscoverRoute:
   \   000000                DS 1
   \   000001                REQUIRE `?<Initializer for AF_DataRequestDiscoverRoute>`
   \   000001                REQUIRE __INIT_XDATA_I

   \                                 In  segment BANKED_CODE, align 1, keep-with-next
    473          afStatus_t AF_DataRequest( afAddrType_t *dstAddr, endPointDesc_t *srcEP,
   \                     AF_DataRequest:
    474                                     uint16 cID, uint16 len, uint8 *buf, uint8 *transID,
    475                                     uint8 options, uint8 radius )
    476          {
   \   000000   74EE         MOV     A,#-0x12
   \   000002   12....       LCALL   ?BANKED_ENTER_XDATA
   \   000005                ; Saved register size: 18
   \   000005                ; Auto size: 30
   \   000005   74E2         MOV     A,#-0x1e
   \   000007   12....       LCALL   ?ALLOC_XSTACK8
   \   00000A   EA           MOV     A,R2
   \   00000B   FE           MOV     R6,A
   \   00000C   EB           MOV     A,R3
   \   00000D   FF           MOV     R7,A
   \   00000E   8C..         MOV     ?V0 + 0,R4
   \   000010   8D..         MOV     ?V0 + 1,R5
   \   000012   89..         MOV     ?V0 + 2,R1
   \   000014   7430         MOV     A,#0x30
   \   000016   12....       LCALL   ?XSTACK_DISP0_8
   \   000019   12....       LCALL   ?Subroutine8 & 0xFFFF
   \                     ??CrossCallReturnLabel_9:
   \   00001C   7434         MOV     A,#0x34
   \   00001E   12....       LCALL   ?XSTACK_DISP0_8
   \   000021   12....       LCALL   ?Subroutine11 & 0xFFFF
   \                     ??CrossCallReturnLabel_14:
   \   000024   7438         MOV     A,#0x38
   \   000026   12....       LCALL   ?XSTACK_DISP0_8
   \   000029   E0           MOVX    A,@DPTR
   \   00002A   F5..         MOV     ?V0 + 3,A
    477            pDescCB pfnDescCB;
    478            ZStatus_t stat;
    479            APSDE_DataReq_t req;
    480            afDataReqMTU_t mtu;
    481          
    482            // Verify source end point
    483            if ( srcEP == NULL )
   \   00002C   EC           MOV     A,R4
   \   00002D   45..         ORL     A,?V0 + 1
   \   00002F   606D         JZ      ??AF_DataRequest_0
    484            {
    485              return afStatus_INVALID_PARAMETER;
    486            }
    487          
    488          #if !defined( REFLECTOR )
    489            if ( dstAddr->addrMode == afAddrNotPresent )
    490            {
    491              return afStatus_INVALID_PARAMETER;
    492            }
    493          #endif
    494          
    495            // Validate broadcasting
    496            if ( ( dstAddr->addrMode == afAddr16Bit     ) ||
    497                 ( dstAddr->addrMode == afAddrBroadcast )    )
   \   000031   EE           MOV     A,R6
   \   000032   2408         ADD     A,#0x8
   \   000034   F5..         MOV     ?V0 + 4,A
   \   000036   EF           MOV     A,R7
   \   000037   3400         ADDC    A,#0x0
   \   000039   F5..         MOV     ?V0 + 5,A
   \   00003B   85..82       MOV     DPL,?V0 + 4
   \   00003E   F583         MOV     DPH,A
   \   000040   E0           MOVX    A,@DPTR
   \   000041   F8           MOV     R0,A
   \   000042   7402         MOV     A,#0x2
   \   000044   68           XRL     A,R0
   \   000045   6005         JZ      ??AF_DataRequest_1
   \   000047   740F         MOV     A,#0xf
   \   000049   68           XRL     A,R0
   \   00004A   7045         JNZ     ??AF_DataRequest_2
    498            {
    499              // Check for valid broadcast values
    500              if( ADDR_NOT_BCAST != NLME_IsAddressBroadcast( dstAddr->addr.shortAddr )  )
   \                     ??AF_DataRequest_1:
   \   00004C                ; Setup parameters for call to function NLME_IsAddressBroadcast
   \   00004C   8E82         MOV     DPL,R6
   \   00004E   8F83         MOV     DPH,R7
   \   000050   12....       LCALL   ??Subroutine30_0 & 0xFFFF
   \                     ??CrossCallReturnLabel_67:
   \   000053   12....       LCALL   ??NLME_IsAddressBroadcast?relay
   \   000056   E9           MOV     A,R1
   \   000057   85..82       MOV     DPL,?V0 + 4
   \   00005A   85..83       MOV     DPH,?V0 + 5
   \   00005D   602B         JZ      ??AF_DataRequest_3
    501              {
    502                // Force mode to broadcast
    503                dstAddr->addrMode = afAddrBroadcast;
   \   00005F   740F         MOV     A,#0xf
   \   000061   F0           MOVX    @DPTR,A
    504              }
    505              else
    506              {
    507                // Address is not a valid broadcast type
    508                if ( dstAddr->addrMode == afAddrBroadcast )
    509                {
    510                  return afStatus_INVALID_PARAMETER;
    511                }
    512              }
    513            }
    514            else if ( dstAddr->addrMode != afAddr64Bit &&
    515                      dstAddr->addrMode != afAddrGroup &&
    516                      dstAddr->addrMode != afAddrNotPresent )
    517            {
    518              return afStatus_INVALID_PARAMETER;
    519            }
    520            
    521            // Set destination address
    522            req.dstAddr.addrMode = dstAddr->addrMode;
   \                     ??AF_DataRequest_4:
   \   000062   E0           MOVX    A,@DPTR
   \   000063   C0E0         PUSH    A
   \   000065   740A         MOV     A,#0xa
   \   000067   12....       LCALL   ?XSTACK_DISP0_8
   \   00006A   D0E0         POP     A
   \   00006C   F0           MOVX    @DPTR,A
    523            if ( dstAddr->addrMode == afAddr64Bit )
   \   00006D   85..82       MOV     DPL,?V0 + 4
   \   000070   85..83       MOV     DPH,?V0 + 5
   \   000073   E0           MOVX    A,@DPTR
   \   000074   6403         XRL     A,#0x3
   \   000076   702B         JNZ     ??AF_DataRequest_5
    524              osal_cpyExtAddr( req.dstAddr.addr.extAddr, dstAddr->addr.extAddr );
   \   000078                ; Setup parameters for call to function sAddrExtCpy
   \   000078   EE           MOV     A,R6
   \   000079   FC           MOV     R4,A
   \   00007A   EF           MOV     A,R7
   \   00007B   FD           MOV     R5,A
   \   00007C   7402         MOV     A,#0x2
   \   00007E   12....       LCALL   ?XSTACK_DISP0_8
   \   000081   AA82         MOV     R2,DPL
   \   000083   AB83         MOV     R3,DPH
   \   000085   12....       LCALL   ??sAddrExtCpy?relay
   \   000088   8028         SJMP    ??CrossCallReturnLabel_60
   \                     ??AF_DataRequest_3:
   \   00008A   E0           MOVX    A,@DPTR
   \   00008B   640F         XRL     A,#0xf
   \   00008D   70D3         JNZ     ??AF_DataRequest_4
   \   00008F   800D         SJMP    ??AF_DataRequest_0
   \                     ??AF_DataRequest_2:
   \   000091   7403         MOV     A,#0x3
   \   000093   68           XRL     A,R0
   \   000094   60CC         JZ      ??AF_DataRequest_4
   \   000096   7401         MOV     A,#0x1
   \   000098   68           XRL     A,R0
   \   000099   60C7         JZ      ??AF_DataRequest_4
   \   00009B   E8           MOV     A,R0
   \   00009C   60C4         JZ      ??AF_DataRequest_4
   \                     ??AF_DataRequest_0:
   \   00009E   7902         MOV     R1,#0x2
   \   0000A0   02....       LJMP    ??AF_DataRequest_6 & 0xFFFF
    525            else
    526              req.dstAddr.addr.shortAddr = dstAddr->addr.shortAddr;
   \                     ??AF_DataRequest_5:
   \   0000A3   8E82         MOV     DPL,R6
   \   0000A5   8F83         MOV     DPH,R7
   \   0000A7   12....       LCALL   ??Subroutine27_0 & 0xFFFF
   \                     ??CrossCallReturnLabel_45:
   \   0000AA   7402         MOV     A,#0x2
   \   0000AC   12....       LCALL   ?XSTACK_DISP0_8
   \   0000AF   12....       LCALL   ??Subroutine28_0 & 0xFFFF
    527            
    528            req.profileID = ZDO_PROFILE_ID;
   \                     ??CrossCallReturnLabel_60:
   \   0000B2   7411         MOV     A,#0x11
   \   0000B4   12....       LCALL   ?XSTACK_DISP0_8
   \   0000B7   E4           CLR     A
   \   0000B8   F0           MOVX    @DPTR,A
   \   0000B9   A3           INC     DPTR
   \   0000BA   F0           MOVX    @DPTR,A
    529          
    530            if ( (pfnDescCB = afGetDescCB( srcEP )) )
   \   0000BB   90....       MOV     DPTR,#epList
   \   0000BE   8002         SJMP    ??AF_DataRequest_7
   \                     ??AF_DataRequest_8:
   \   0000C0   A3           INC     DPTR
   \   0000C1   A3           INC     DPTR
   \                     ??AF_DataRequest_7:
   \   0000C2   12....       LCALL   ?Subroutine7 & 0xFFFF
   \                     ??CrossCallReturnLabel_3:
   \   0000C5   6047         JZ      ??AF_DataRequest_9
   \   0000C7   8882         MOV     DPL,R0
   \   0000C9   8983         MOV     DPH,R1
   \   0000CB   12....       LCALL   ??Subroutine30_0 & 0xFFFF
   \                     ??CrossCallReturnLabel_68:
   \   0000CE   E5..         MOV     A,?V0 + 0
   \   0000D0   6A           XRL     A,R2
   \   0000D1   7003         JNZ     ??AF_DataRequest_10
   \   0000D3   E5..         MOV     A,?V0 + 1
   \   0000D5   6B           XRL     A,R3
   \                     ??AF_DataRequest_10:
   \   0000D6   8882         MOV     DPL,R0
   \   0000D8   8983         MOV     DPH,R1
   \   0000DA   A3           INC     DPTR
   \   0000DB   A3           INC     DPTR
   \   0000DC   A3           INC     DPTR
   \   0000DD   70E1         JNZ     ??AF_DataRequest_8
   \   0000DF   12....       LCALL   ??Subroutine27_0 & 0xFFFF
   \                     ??CrossCallReturnLabel_46:
   \   0000E2   E8           MOV     A,R0
   \   0000E3   FC           MOV     R4,A
   \   0000E4   E9           MOV     A,R1
   \   0000E5   FD           MOV     R5,A
   \   0000E6   EC           MOV     A,R4
   \   0000E7   4D           ORL     A,R5
   \   0000E8   6024         JZ      ??AF_DataRequest_9
    531            {
    532              uint16 *pID = (uint16 *)(pfnDescCB(
    533                                           AF_DESCRIPTOR_PROFILE_ID, srcEP->endPoint ));
   \   0000EA                ; Setup parameters for indirect call
   \   0000EA   85..82       MOV     DPL,?V0 + 0
   \   0000ED   85..83       MOV     DPH,?V0 + 1
   \   0000F0   12....       LCALL   ?Subroutine19 & 0xFFFF
   \                     ??CrossCallReturnLabel_31:
   \   0000F3   12....       LCALL   ?CALL_IND
    534              if ( pID )
   \   0000F6   EA           MOV     A,R2
   \   0000F7   4B           ORL     A,R3
   \   0000F8   602A         JZ      ??CrossCallReturnLabel_62
    535              {
    536                req.profileID = *pID;
   \   0000FA   8A82         MOV     DPL,R2
   \   0000FC   8B83         MOV     DPH,R3
   \   0000FE   12....       LCALL   ??Subroutine27_0 & 0xFFFF
   \                     ??CrossCallReturnLabel_47:
   \   000101   7411         MOV     A,#0x11
   \   000103   12....       LCALL   ?XSTACK_DISP0_8
   \   000106   12....       LCALL   ??Subroutine28_0 & 0xFFFF
    537                osal_mem_free( pID );
   \                     ??CrossCallReturnLabel_61:
   \   000109                ; Setup parameters for call to function osal_mem_free
   \   000109   12....       LCALL   ??osal_mem_free?relay
   \   00010C   8016         SJMP    ??CrossCallReturnLabel_62
    538              }
    539            }
    540            else if ( srcEP->simpleDesc )
   \                     ??AF_DataRequest_9:
   \   00010E   85..82       MOV     DPL,?V0 + 0
   \   000111   85..83       MOV     DPH,?V0 + 1
   \   000114   12....       LCALL   ?Subroutine9 & 0xFFFF
   \                     ??CrossCallReturnLabel_12:
   \   000117   600B         JZ      ??CrossCallReturnLabel_62
    541            {
    542              req.profileID = srcEP->simpleDesc->AppProfId;
   \   000119   12....       LCALL   ??Subroutine26_0 & 0xFFFF
    543            }
   \                     ??CrossCallReturnLabel_49:
   \   00011C   7411         MOV     A,#0x11
   \   00011E   12....       LCALL   ?XSTACK_DISP0_8
   \   000121   12....       LCALL   ??Subroutine28_0 & 0xFFFF
    544          
    545            req.txOptions = 0;
   \                     ??CrossCallReturnLabel_62:
   \   000124   7417         MOV     A,#0x17
   \   000126   12....       LCALL   ?XSTACK_DISP0_8
   \   000129   E4           CLR     A
   \   00012A   F0           MOVX    @DPTR,A
   \   00012B   A3           INC     DPTR
   \   00012C   F0           MOVX    @DPTR,A
    546          
    547            if ( ( options & AF_ACK_REQUEST              ) &&
    548                 ( req.dstAddr.addrMode != AddrBroadcast ) &&
    549                 ( req.dstAddr.addrMode != AddrGroup     )    )
   \   00012D   E5..         MOV     A,?V0 + 2
   \   00012F   A2E4         MOV     C,0xE0 /* A   */.4
   \   000131   501C         JNC     ??AF_DataRequest_11
   \   000133   740A         MOV     A,#0xa
   \   000135   12....       LCALL   ?XSTACK_DISP0_8
   \   000138   E0           MOVX    A,@DPTR
   \   000139   F8           MOV     R0,A
   \   00013A   740F         MOV     A,#0xf
   \   00013C   68           XRL     A,R0
   \   00013D   6010         JZ      ??AF_DataRequest_11
   \   00013F   7401         MOV     A,#0x1
   \   000141   68           XRL     A,R0
   \   000142   600B         JZ      ??AF_DataRequest_11
    550            {
    551              req.txOptions |=  APS_TX_OPTIONS_ACK;
   \   000144   7417         MOV     A,#0x17
   \   000146   12....       LCALL   ?XSTACK_DISP0_8
   \   000149   7404         MOV     A,#0x4
   \   00014B   F0           MOVX    @DPTR,A
   \   00014C   A3           INC     DPTR
   \   00014D   E4           CLR     A
   \   00014E   F0           MOVX    @DPTR,A
    552            }
    553          
    554            if ( options & AF_SKIP_ROUTING )
   \                     ??AF_DataRequest_11:
   \   00014F   E5..         MOV     A,?V0 + 2
   \   000151   A2E7         MOV     C,0xE0 /* A   */.7
   \   000153   5009         JNC     ??AF_DataRequest_12
    555            {
    556              req.txOptions |=  APS_TX_OPTIONS_SKIP_ROUTING;
   \   000155   7417         MOV     A,#0x17
   \   000157   12....       LCALL   ?XSTACK_DISP0_8
   \   00015A   E0           MOVX    A,@DPTR
   \   00015B   4410         ORL     A,#0x10
   \   00015D   F0           MOVX    @DPTR,A
    557            }
    558          
    559            if ( options & AF_EN_SECURITY )
   \                     ??AF_DataRequest_12:
   \   00015E   E5..         MOV     A,?V0 + 2
   \   000160   A2E6         MOV     C,0xE0 /* A   */.6
   \   000162   5012         JNC     ??AF_DataRequest_13
    560            {
    561              req.txOptions |= APS_TX_OPTIONS_SECURITY_ENABLE;
   \   000164   7417         MOV     A,#0x17
   \   000166   12....       LCALL   ?XSTACK_DISP0_8
   \   000169   E0           MOVX    A,@DPTR
   \   00016A   4401         ORL     A,#0x1
   \   00016C   F0           MOVX    @DPTR,A
    562              mtu.aps.secure = TRUE;
   \   00016D   7401         MOV     A,#0x1
   \   00016F   12....       LCALL   ?XSTACK_DISP0_8
   \   000172   7401         MOV     A,#0x1
   \   000174   8006         SJMP    ??AF_DataRequest_14
    563            }
    564            else
    565            {
    566              mtu.aps.secure = FALSE;
   \                     ??AF_DataRequest_13:
   \   000176   7401         MOV     A,#0x1
   \   000178   12....       LCALL   ?XSTACK_DISP0_8
   \   00017B   E4           CLR     A
   \                     ??AF_DataRequest_14:
   \   00017C   F0           MOVX    @DPTR,A
    567            }
    568          
    569            mtu.kvp = FALSE;
   \   00017D   85..82       MOV     DPL,?XSP + 0
   \   000180   85..83       MOV     DPH,?XSP + 1
   \   000183   E4           CLR     A
   \   000184   F0           MOVX    @DPTR,A
   \   000185   7436         MOV     A,#0x36
   \   000187   12....       LCALL   ?XSTACK_DISP0_8
   \   00018A   E0           MOVX    A,@DPTR
   \   00018B   F5..         MOV     ?V0 + 4,A
   \   00018D   A3           INC     DPTR
   \   00018E   E0           MOVX    A,@DPTR
   \   00018F   F5..         MOV     ?V0 + 5,A
    570          
    571            req.transID       = *transID;
   \   000191   85..82       MOV     DPL,?V0 + 4
   \   000194   F583         MOV     DPH,A
   \   000196   E0           MOVX    A,@DPTR
   \   000197   C0E0         PUSH    A
   \   000199   7419         MOV     A,#0x19
   \   00019B   12....       LCALL   ?XSTACK_DISP0_8
   \   00019E   D0E0         POP     A
   \   0001A0   F0           MOVX    @DPTR,A
    572            req.srcEP         = srcEP->endPoint;
   \   0001A1   85..82       MOV     DPL,?V0 + 0
   \   0001A4   85..83       MOV     DPH,?V0 + 1
   \   0001A7   E0           MOVX    A,@DPTR
   \   0001A8   C0E0         PUSH    A
   \   0001AA   740B         MOV     A,#0xb
   \   0001AC   12....       LCALL   ?XSTACK_DISP0_8
   \   0001AF   D0E0         POP     A
   \   0001B1   F0           MOVX    @DPTR,A
    573            req.dstEP         = dstAddr->endPoint;
   \   0001B2   8E82         MOV     DPL,R6
   \   0001B4   8F83         MOV     DPH,R7
   \   0001B6   A3           INC     DPTR
   \   0001B7   A3           INC     DPTR
   \   0001B8   A3           INC     DPTR
   \   0001B9   A3           INC     DPTR
   \   0001BA   A3           INC     DPTR
   \   0001BB   A3           INC     DPTR
   \   0001BC   A3           INC     DPTR
   \   0001BD   A3           INC     DPTR
   \   0001BE   A3           INC     DPTR
   \   0001BF   E0           MOVX    A,@DPTR
   \   0001C0   C0E0         PUSH    A
   \   0001C2   740C         MOV     A,#0xc
   \   0001C4   12....       LCALL   ?XSTACK_DISP0_8
   \   0001C7   D0E0         POP     A
   \   0001C9   F0           MOVX    @DPTR,A
    574            req.clusterID     = cID;
   \   0001CA   740F         MOV     A,#0xf
   \   0001CC   12....       LCALL   ?XSTACK_DISP0_8
   \   0001CF   E5..         MOV     A,?V0 + 6
   \   0001D1   F0           MOVX    @DPTR,A
   \   0001D2   A3           INC     DPTR
   \   0001D3   E5..         MOV     A,?V0 + 7
   \   0001D5   F0           MOVX    @DPTR,A
   \   0001D6   7432         MOV     A,#0x32
   \   0001D8   12....       LCALL   ?XSTACK_DISP0_8
   \   0001DB   E0           MOVX    A,@DPTR
   \   0001DC   FE           MOV     R6,A
   \   0001DD   A3           INC     DPTR
   \   0001DE   E0           MOVX    A,@DPTR
   \   0001DF   FF           MOV     R7,A
    575            req.asduLen       = len;
   \   0001E0   7413         MOV     A,#0x13
   \   0001E2   12....       LCALL   ?XSTACK_DISP0_8
   \   0001E5   EE           MOV     A,R6
   \   0001E6   F0           MOVX    @DPTR,A
   \   0001E7   A3           INC     DPTR
   \   0001E8   EF           MOV     A,R7
   \   0001E9   F0           MOVX    @DPTR,A
    576            req.asdu          = buf;
   \   0001EA   7415         MOV     A,#0x15
   \   0001EC   12....       LCALL   ?XSTACK_DISP0_8
   \   0001EF   E5..         MOV     A,?V0 + 8
   \   0001F1   F0           MOVX    @DPTR,A
   \   0001F2   A3           INC     DPTR
   \   0001F3   E5..         MOV     A,?V0 + 9
   \   0001F5   F0           MOVX    @DPTR,A
    577            req.discoverRoute = AF_DataRequestDiscoverRoute;//(uint8)((options & AF_DISCV_ROUTE) ? 1 : 0);
   \   0001F6   90....       MOV     DPTR,#AF_DataRequestDiscoverRoute
   \   0001F9   E0           MOVX    A,@DPTR
   \   0001FA   C0E0         PUSH    A
   \   0001FC   741A         MOV     A,#0x1a
   \   0001FE   12....       LCALL   ?XSTACK_DISP0_8
   \   000201   D0E0         POP     A
   \   000203   F0           MOVX    @DPTR,A
    578            req.radiusCounter = radius;
   \   000204   741B         MOV     A,#0x1b
   \   000206   12....       LCALL   ?XSTACK_DISP0_8
   \   000209   E5..         MOV     A,?V0 + 3
   \   00020B   F0           MOVX    @DPTR,A
    579          #if defined ( INTER_PAN )
    580            req.dstPanId      = dstAddr->panId;
    581          
    582            if ( StubAPS_InterPan( dstAddr->panId, dstAddr->endPoint ) )
    583            {
    584              if ( len > INTERP_DataReqMTU() )
    585              {
    586                stat = afStatus_INVALID_PARAMETER;
    587              }
    588              else
    589              {
    590                stat = INTERP_DataReq( &req );
    591              }
    592            }
    593            else
    594          #endif // INTER_PAN
    595            {
    596              if (len > afDataReqMTU( &mtu ) )
   \   00020C                ; Setup parameters for call to function afDataReqMTU
   \   00020C   85..82       MOV     DPL,?XSP + 0
   \   00020F   85..83       MOV     DPH,?XSP + 1
   \   000212   AA82         MOV     R2,DPL
   \   000214   AB83         MOV     R3,DPH
   \   000216   12....       LCALL   ??afDataReqMTU?relay
   \   000219   E9           MOV     A,R1
   \   00021A   C3           CLR     C
   \   00021B   9E           SUBB    A,R6
   \   00021C   E4           CLR     A
   \   00021D   9F           SUBB    A,R7
   \   00021E   5022         JNC     ??AF_DataRequest_15
    597              {
    598                if (apsfSendFragmented)
   \   000220   90....       MOV     DPTR,#apsfSendFragmented
   \   000223   12....       LCALL   ?Subroutine7 & 0xFFFF
   \                     ??CrossCallReturnLabel_6:
   \   000226   6016         JZ      ??AF_DataRequest_16
    599                {
    600                  stat = (*apsfSendFragmented)( &req );
   \   000228                ; Setup parameters for indirect call
   \   000228   7402         MOV     A,#0x2
   \   00022A   12....       LCALL   ?XSTACK_DISP0_8
   \   00022D   AA82         MOV     R2,DPL
   \   00022F   AB83         MOV     R3,DPH
   \   000231   90....       MOV     DPTR,#apsfSendFragmented + 1
   \   000234   E0           MOVX    A,@DPTR
   \   000235   F583         MOV     DPH,A
   \   000237   8882         MOV     DPL,R0
   \   000239   12....       LCALL   ?CALL_IND
   \   00023C   8010         SJMP    ??AF_DataRequest_17
    601                }
    602                else
    603                {
    604                  stat = afStatus_INVALID_PARAMETER;
   \                     ??AF_DataRequest_16:
   \   00023E   7E02         MOV     R6,#0x2
   \   000240   800E         SJMP    ??AF_DataRequest_18
    605                }
    606              }
    607              else
    608              {
    609                stat = APSDE_DataReq( &req );
   \                     ??AF_DataRequest_15:
   \   000242                ; Setup parameters for call to function APSDE_DataReq
   \   000242   7402         MOV     A,#0x2
   \   000244   12....       LCALL   ?XSTACK_DISP0_8
   \   000247   AA82         MOV     R2,DPL
   \   000249   AB83         MOV     R3,DPH
   \   00024B   12....       LCALL   ??APSDE_DataReq?relay
   \                     ??AF_DataRequest_17:
   \   00024E   E9           MOV     A,R1
   \   00024F   FE           MOV     R6,A
    610              }
    611            }
    612          
    613            /*
    614             * If this is an EndPoint-to-EndPoint message on the same device, it will not
    615             * get added to the NWK databufs. So it will not go OTA and it will not get
    616             * a MACCB_DATA_CONFIRM_CMD callback. Thus it is necessary to generate the
    617             * AF_DATA_CONFIRM_CMD here. Note that APSDE_DataConfirm() only generates one
    618             * message with the first in line TransSeqNumber, even on a multi message.
    619             * Also note that a reflected msg will not have its confirmation generated
    620             * here.
    621             */
    622            if ( (req.dstAddr.addrMode == Addr16Bit) &&
    623                 (req.dstAddr.addr.shortAddr == NLME_GetShortAddr()) )
   \                     ??AF_DataRequest_18:
   \   000250   740A         MOV     A,#0xa
   \   000252   12....       LCALL   ?XSTACK_DISP0_8
   \   000255   E0           MOVX    A,@DPTR
   \   000256   6402         XRL     A,#0x2
   \   000258   702E         JNZ     ??AF_DataRequest_19
   \   00025A                ; Setup parameters for call to function NLME_GetShortAddr
   \   00025A   12....       LCALL   ??NLME_GetShortAddr?relay
   \   00025D   8A..         MOV     ?V0 + 6,R2
   \   00025F   8B..         MOV     ?V0 + 7,R3
   \   000261   A8..         MOV     R0,?V0 + 6
   \   000263   A9..         MOV     R1,?V0 + 7
   \   000265   7402         MOV     A,#0x2
   \   000267   12....       LCALL   ?XSTACK_DISP0_8
   \   00026A   E0           MOVX    A,@DPTR
   \   00026B   68           XRL     A,R0
   \   00026C   7003         JNZ     ??AF_DataRequest_20
   \   00026E   A3           INC     DPTR
   \   00026F   E0           MOVX    A,@DPTR
   \   000270   69           XRL     A,R1
   \                     ??AF_DataRequest_20:
   \   000271   7015         JNZ     ??AF_DataRequest_19
    624            {
    625              afDataConfirm( srcEP->endPoint, *transID, stat );
   \   000273                ; Setup parameters for call to function afDataConfirm
   \   000273   EE           MOV     A,R6
   \   000274   FB           MOV     R3,A
   \   000275   85..82       MOV     DPL,?V0 + 4
   \   000278   85..83       MOV     DPH,?V0 + 5
   \   00027B   E0           MOVX    A,@DPTR
   \   00027C   FA           MOV     R2,A
   \   00027D   85..82       MOV     DPL,?V0 + 0
   \   000280   85..83       MOV     DPH,?V0 + 1
   \   000283   E0           MOVX    A,@DPTR
   \   000284   F9           MOV     R1,A
   \   000285   12....       LCALL   ??afDataConfirm?relay
    626            }
    627          
    628            if ( stat == afStatus_SUCCESS )
   \                     ??AF_DataRequest_19:
   \   000288   EE           MOV     A,R6
   \   000289   7009         JNZ     ??AF_DataRequest_21
    629            {
    630              (*transID)++;
   \   00028B   85..82       MOV     DPL,?V0 + 4
   \   00028E   85..83       MOV     DPH,?V0 + 5
   \   000291   E0           MOVX    A,@DPTR
   \   000292   04           INC     A
   \   000293   F0           MOVX    @DPTR,A
    631            }
    632          
    633            return (afStatus_t)stat;
   \                     ??AF_DataRequest_21:
   \   000294   EE           MOV     A,R6
   \   000295   F9           MOV     R1,A
   \                     ??AF_DataRequest_6:
   \   000296   741E         MOV     A,#0x1e
   \   000298   12....       LCALL   ?DEALLOC_XSTACK8
   \   00029B   7F0A         MOV     R7,#0xa
   \   00029D   02....       LJMP    ?BANKED_LEAVE_XDATA
    634          }
    635          
    636          #if defined ( ZIGBEE_SOURCE_ROUTING )
    637          /*********************************************************************
    638           * @fn      AF_DataRequestSrcRtg
    639           *
    640           * @brief   Common functionality for invoking APSDE_DataReq() for both
    641           *          SendMulti and MSG-Send.
    642           *
    643           * input parameters
    644           *
    645           * @param  *dstAddr - Full ZB destination address: Nwk Addr + End Point.
    646           * @param  *srcEP - Origination (i.e. respond to or ack to) End Point Descr.
    647           * @param   cID - A valid cluster ID as specified by the Profile.
    648           * @param   len - Number of bytes of data pointed to by next param.
    649           * @param  *buf - A pointer to the data bytes to send.
    650           * @param  *transID - A pointer to a byte which can be modified and which will
    651           *                    be used as the transaction sequence number of the msg.
    652           * @param   options - Valid bit mask of Tx options.
    653           * @param   radius - Normally set to AF_DEFAULT_RADIUS.
    654           * @param   relayCnt - Number of devices in the relay list
    655           * @param   pRelayList - Pointer to the relay list
    656           *
    657           * output parameters
    658           *
    659           * @param  *transID - Incremented by one if the return value is success.
    660           *
    661           * @return  afStatus_t - See previous definition of afStatus_... types.
    662           */
    663          

   \                                 In  segment BANKED_CODE, align 1, keep-with-next
    664          afStatus_t AF_DataRequestSrcRtg( afAddrType_t *dstAddr, endPointDesc_t *srcEP,
   \                     AF_DataRequestSrcRtg:
    665                                     uint16 cID, uint16 len, uint8 *buf, uint8 *transID,
    666                                     uint8 options, uint8 radius, uint8 relayCnt, uint16* pRelayList )
    667          {
   \   000000   74EC         MOV     A,#-0x14
   \   000002   12....       LCALL   ?BANKED_ENTER_XDATA
   \   000005                ; Saved register size: 20
   \   000005                ; Auto size: 0
   \   000005   EA           MOV     A,R2
   \   000006   FE           MOV     R6,A
   \   000007   EB           MOV     A,R3
   \   000008   FF           MOV     R7,A
   \   000009   8C..         MOV     ?V0 + 0,R4
   \   00000B   8D..         MOV     ?V0 + 1,R5
   \   00000D   89..         MOV     ?V0 + 2,R1
   \   00000F   7414         MOV     A,#0x14
   \   000011   12....       LCALL   ?XSTACK_DISP0_8
   \   000014   E0           MOVX    A,@DPTR
   \   000015   F5..         MOV     ?V0 + 10,A
   \   000017   A3           INC     DPTR
   \   000018   E0           MOVX    A,@DPTR
   \   000019   F5..         MOV     ?V0 + 11,A
   \   00001B   7416         MOV     A,#0x16
   \   00001D   12....       LCALL   ?XSTACK_DISP0_8
   \   000020   12....       LCALL   ?Subroutine11 & 0xFFFF
   \                     ??CrossCallReturnLabel_15:
   \   000023   7418         MOV     A,#0x18
   \   000025   12....       LCALL   ?XSTACK_DISP0_8
   \   000028   12....       LCALL   ?Subroutine8 & 0xFFFF
   \                     ??CrossCallReturnLabel_10:
   \   00002B   741A         MOV     A,#0x1a
   \   00002D   12....       LCALL   ?XSTACK_DISP0_8
   \   000030   E0           MOVX    A,@DPTR
   \   000031   F5..         MOV     ?V0 + 4,A
   \   000033   A3           INC     DPTR
   \   000034   E0           MOVX    A,@DPTR
   \   000035   F5..         MOV     ?V0 + 5,A
   \   000037   741C         MOV     A,#0x1c
   \   000039   12....       LCALL   ?XSTACK_DISP0_8
   \   00003C   E0           MOVX    A,@DPTR
   \   00003D   F5..         MOV     ?V0 + 3,A
   \   00003F   741D         MOV     A,#0x1d
   \   000041   12....       LCALL   ?XSTACK_DISP0_8
   \   000044   E0           MOVX    A,@DPTR
   \   000045   F9           MOV     R1,A
   \   000046   741E         MOV     A,#0x1e
   \   000048   12....       LCALL   ?XSTACK_DISP0_8
   \   00004B   12....       LCALL   ?Subroutine13 & 0xFFFF
    668            uint8 status;
    669            
    670            /* Add the source route to the source routing table */
    671            status = RTG_AddSrcRtgEntry_Guaranteed( dstAddr->addr.shortAddr, relayCnt, 
    672                                                   pRelayList );
   \                     ??CrossCallReturnLabel_21:
   \   00004E                ; Setup parameters for call to function RTG_AddSrcRtgEntry_Guaranteed
   \   00004E   8E82         MOV     DPL,R6
   \   000050   8F83         MOV     DPH,R7
   \   000052   12....       LCALL   ??Subroutine30_0 & 0xFFFF
   \                     ??CrossCallReturnLabel_69:
   \   000055   12....       LCALL   ??RTG_AddSrcRtgEntry_Guaranteed?relay
   \   000058   E9           MOV     A,R1
    673          
    674            if( status == RTG_SUCCESS)
   \   000059   702D         JNZ     ??AF_DataRequestSrcRtg_0
    675            {
    676              /* Call AF_DataRequest to send the data */
    677              status = AF_DataRequest( dstAddr, srcEP, cID, len, buf, transID, options, radius );
   \   00005B                ; Setup parameters for call to function AF_DataRequest
   \   00005B   78..         MOV     R0,#?V0 + 3
   \   00005D   12....       LCALL   ?PUSH_XSTACK_I_ONE
   \   000060   78..         MOV     R0,#?V0 + 4
   \   000062   12....       LCALL   ?PUSH_XSTACK_I_TWO
   \   000065   78..         MOV     R0,#?V0 + 6
   \   000067   12....       LCALL   ?PUSH_XSTACK_I_TWO
   \   00006A   78..         MOV     R0,#?V0 + 8
   \   00006C   12....       LCALL   ?PUSH_XSTACK_I_TWO
   \   00006F   78..         MOV     R0,#?V0 + 10
   \   000071   12....       LCALL   ?PUSH_XSTACK_I_TWO
   \   000074   A9..         MOV     R1,?V0 + 2
   \   000076   AC..         MOV     R4,?V0 + 0
   \   000078   AD..         MOV     R5,?V0 + 1
   \   00007A   EE           MOV     A,R6
   \   00007B   FA           MOV     R2,A
   \   00007C   EF           MOV     A,R7
   \   00007D   FB           MOV     R3,A
   \   00007E   12....       LCALL   ??AF_DataRequest?relay
   \   000081   7409         MOV     A,#0x9
   \   000083   12....       LCALL   ?DEALLOC_XSTACK8
   \   000086   800B         SJMP    ??AF_DataRequestSrcRtg_1
    678            }
    679            else if( status == RTG_INVALID_PATH )
   \                     ??AF_DataRequestSrcRtg_0:
   \   000088   7405         MOV     A,#0x5
   \   00008A   69           XRL     A,R1
   \   00008B   7004         JNZ     ??AF_DataRequestSrcRtg_2
    680            {
    681              /* The source route relay count is exceeding the network limit */
    682              status = afStatus_INVALID_PARAMETER;
   \   00008D   7902         MOV     R1,#0x2
   \   00008F   8002         SJMP    ??AF_DataRequestSrcRtg_1
    683            }
    684            else
    685            {
    686              /* The guaranteed adding entry fails due to memory failure */
    687              status = afStatus_MEM_FAIL;
   \                     ??AF_DataRequestSrcRtg_2:
   \   000091   7910         MOV     R1,#0x10
    688            }
    689            return status;
   \                     ??AF_DataRequestSrcRtg_1:
   \   000093   7F0C         MOV     R7,#0xc
   \   000095   02....       LJMP    ?BANKED_LEAVE_XDATA
    690          }
    691          
    692          #endif
    693          
    694          /*********************************************************************
    695           * @fn      afFindEndPointDescList
    696           *
    697           * @brief   Find the endpoint description entry from the endpoint
    698           *          number.
    699           *
    700           * @param   EndPoint - Application Endpoint to look for
    701           *
    702           * @return  the address to the endpoint/interface description entry
    703           */

   \                                 In  segment BANKED_CODE, align 1, keep-with-next
    704          static epList_t *afFindEndPointDescList( byte EndPoint )
   \                     afFindEndPointDescList:
    705          {
   \   000000   C082         PUSH    DPL
   \   000002   C083         PUSH    DPH
   \   000004                ; Saved register size: 2
   \   000004                ; Auto size: 0
    706            epList_t *epSearch;
    707          
    708            // Start at the beginning
    709            epSearch = epList;
   \   000004   90....       MOV     DPTR,#epList
   \   000007   8009         SJMP    ??afFindEndPointDescList_0
    710          
    711            // Look through the list until the end
    712            while ( epSearch )
    713            {
    714              // Is there a match?
    715              if ( epSearch->epDesc->endPoint == EndPoint )
    716              {
    717                return ( epSearch );
    718              }
    719              else
    720                epSearch = epSearch->nextDesc;  // Next entry
   \                     ??afFindEndPointDescList_1:
   \   000009   8A82         MOV     DPL,R2
   \   00000B   8B83         MOV     DPH,R3
   \   00000D   A3           INC     DPTR
   \   00000E   A3           INC     DPTR
   \   00000F   A3           INC     DPTR
   \   000010   A3           INC     DPTR
   \   000011   A3           INC     DPTR
   \                     ??afFindEndPointDescList_0:
   \   000012   12....       LCALL   ??Subroutine30_0 & 0xFFFF
   \                     ??CrossCallReturnLabel_70:
   \   000015   EA           MOV     A,R2
   \   000016   4B           ORL     A,R3
   \   000017   600C         JZ      ??afFindEndPointDescList_2
   \   000019   8A82         MOV     DPL,R2
   \   00001B   8B83         MOV     DPH,R3
   \   00001D   12....       LCALL   ??Subroutine25_0 & 0xFFFF
   \                     ??CrossCallReturnLabel_37:
   \   000020   69           XRL     A,R1
   \   000021   70E6         JNZ     ??afFindEndPointDescList_1
   \   000023   8004         SJMP    ??afFindEndPointDescList_3
    721            }
    722          
    723            return ( (epList_t *)NULL );
   \                     ??afFindEndPointDescList_2:
   \   000025   7A00         MOV     R2,#0x0
   \   000027   7B00         MOV     R3,#0x0
   \                     ??afFindEndPointDescList_3:
   \   000029   02....       LJMP    ?Subroutine0 & 0xFFFF
    724          }
    725          
    726          /*********************************************************************
    727           * @fn      afFindEndPointDesc
    728           *
    729           * @brief   Find the endpoint description entry from the endpoint
    730           *          number.
    731           *
    732           * @param   EndPoint - Application Endpoint to look for
    733           *
    734           * @return  the address to the endpoint/interface description entry
    735           */

   \                                 In  segment BANKED_CODE, align 1, keep-with-next
    736          endPointDesc_t *afFindEndPointDesc( byte EndPoint )
   \                     afFindEndPointDesc:
    737          {
   \   000000   74F6         MOV     A,#-0xa
   \   000002   12....       LCALL   ?BANKED_ENTER_XDATA
   \   000005                ; Saved register size: 10
   \   000005                ; Auto size: 0
    738            epList_t *epSearch;
    739          
    740            // Look for the endpoint
    741            epSearch = afFindEndPointDescList( EndPoint );
   \   000005                ; Setup parameters for call to function afFindEndPointDescList
   \   000005   12....       LCALL   ??afFindEndPointDescList?relay
   \   000008   8A82         MOV     DPL,R2
   \   00000A   8B83         MOV     DPH,R3
    742          
    743            if ( epSearch )
   \   00000C   E582         MOV     A,DPL
   \   00000E   4583         ORL     A,DPH
   \   000010   6005         JZ      ??afFindEndPointDesc_0
    744              return ( epSearch->epDesc );
   \   000012   12....       LCALL   ??Subroutine30_0 & 0xFFFF
   \                     ??CrossCallReturnLabel_71:
   \   000015   8004         SJMP    ??afFindEndPointDesc_1
    745            else
    746              return ( (endPointDesc_t *)NULL );
   \                     ??afFindEndPointDesc_0:
   \   000017   7A00         MOV     R2,#0x0
   \   000019   7B00         MOV     R3,#0x0
   \                     ??afFindEndPointDesc_1:
   \   00001B   02....       LJMP    ?Subroutine2 & 0xFFFF
    747          }
    748          
    749          /*********************************************************************
    750           * @fn      afFindSimpleDesc
    751           *
    752           * @brief   Find the Simple Descriptor from the endpoint number.
    753           *
    754           * @param   EP - Application Endpoint to look for.
    755           *
    756           * @return  Non-zero to indicate that the descriptor memory must be freed.
    757           */

   \                                 In  segment BANKED_CODE, align 1, keep-with-next
    758          byte afFindSimpleDesc( SimpleDescriptionFormat_t **ppDesc, byte EP )
   \                     afFindSimpleDesc:
    759          {
   \   000000   74F4         MOV     A,#-0xc
   \   000002   12....       LCALL   ?BANKED_ENTER_XDATA
   \   000005                ; Saved register size: 12
   \   000005                ; Auto size: 0
   \   000005   EA           MOV     A,R2
   \   000006   FE           MOV     R6,A
   \   000007   EB           MOV     A,R3
   \   000008   FF           MOV     R7,A
   \   000009   89..         MOV     ?V0 + 0,R1
    760            epList_t *epItem = afFindEndPointDescList( EP );
   \   00000B                ; Setup parameters for call to function afFindEndPointDescList
   \   00000B   12....       LCALL   ??afFindEndPointDescList?relay
   \   00000E   8A..         MOV     ?V0 + 2,R2
   \   000010   8B..         MOV     ?V0 + 3,R3
   \   000012   AC..         MOV     R4,?V0 + 2
   \   000014   AD..         MOV     R5,?V0 + 3
    761            byte rtrn = FALSE;
   \   000016   7900         MOV     R1,#0x0
    762          
    763            if ( epItem )
   \   000018   EC           MOV     A,R4
   \   000019   4D           ORL     A,R5
   \   00001A   6034         JZ      ??afFindSimpleDesc_0
    764            {
    765              if ( epItem->pfnDescCB )
   \   00001C   8C82         MOV     DPL,R4
   \   00001E   8D83         MOV     DPH,R5
   \   000020   12....       LCALL   ?Subroutine15 & 0xFFFF
   \                     ??CrossCallReturnLabel_26:
   \   000023   E582         MOV     A,DPL
   \   000025   4583         ORL     A,DPH
   \   000027   6013         JZ      ??afFindSimpleDesc_1
    766              {
    767                *ppDesc = epItem->pfnDescCB( AF_DESCRIPTOR_SIMPLE, EP );
   \   000029                ; Setup parameters for indirect call
   \   000029   AA..         MOV     R2,?V0 + 0
   \   00002B   09           INC     R1
   \   00002C   12....       LCALL   ?CALL_IND
   \   00002F   8E82         MOV     DPL,R6
   \   000031   8F83         MOV     DPH,R7
   \   000033   EA           MOV     A,R2
   \   000034   F0           MOVX    @DPTR,A
   \   000035   A3           INC     DPTR
   \   000036   EB           MOV     A,R3
   \   000037   F0           MOVX    @DPTR,A
    768                rtrn = TRUE;
   \   000038   7901         MOV     R1,#0x1
   \   00003A   801C         SJMP    ??afFindSimpleDesc_2
    769              }
    770              else
    771              {
    772                *ppDesc = epItem->epDesc->simpleDesc;
   \                     ??afFindSimpleDesc_1:
   \   00003C   8C82         MOV     DPL,R4
   \   00003E   8D83         MOV     DPH,R5
   \   000040   12....       LCALL   ?Subroutine23 & 0xFFFF
    773              }
    774            }
   \                     ??CrossCallReturnLabel_41:
   \   000043   12....       LCALL   ??Subroutine29_0 & 0xFFFF
   \                     ??CrossCallReturnLabel_72:
   \   000046   8E82         MOV     DPL,R6
   \   000048   8F83         MOV     DPH,R7
   \   00004A   EA           MOV     A,R2
   \   00004B   F0           MOVX    @DPTR,A
   \   00004C   A3           INC     DPTR
   \   00004D   EB           MOV     A,R3
   \   00004E   8007         SJMP    ??afFindSimpleDesc_3
    775            else
    776            {
    777              *ppDesc = NULL;
   \                     ??afFindSimpleDesc_0:
   \   000050   8E82         MOV     DPL,R6
   \   000052   8F83         MOV     DPH,R7
   \   000054   E4           CLR     A
   \   000055   F0           MOVX    @DPTR,A
   \   000056   A3           INC     DPTR
   \                     ??afFindSimpleDesc_3:
   \   000057   F0           MOVX    @DPTR,A
    778            }
    779          
    780            return rtrn;
   \                     ??afFindSimpleDesc_2:
   \   000058   02....       LJMP    ?Subroutine1 & 0xFFFF
    781          }

   \                                 In  segment BANKED_CODE, align 1, keep-with-next
   \                     ?Subroutine15:
   \   000000   A3           INC     DPTR
   \   000001   A3           INC     DPTR
   \   000002   A3           INC     DPTR
   \   000003   E0           MOVX    A,@DPTR
   \   000004   FA           MOV     R2,A
   \   000005   A3           INC     DPTR
   \   000006   E0           MOVX    A,@DPTR
   \   000007   FB           MOV     R3,A
   \   000008   8A82         MOV     DPL,R2
   \   00000A   8B83         MOV     DPH,R3
   \   00000C   22           RET
    782          
    783          /*********************************************************************
    784           * @fn      afGetDescCB
    785           *
    786           * @brief   Get the Descriptor callback function.
    787           *
    788           * @param   epDesc - pointer to the endpoint descriptor
    789           *
    790           * @return  function pointer or NULL
    791           */
    792          static pDescCB afGetDescCB( endPointDesc_t *epDesc )
    793          {
    794            epList_t *epSearch;
    795          
    796            // Start at the beginning
    797            epSearch = epList;
    798          
    799            // Look through the list until the end
    800            while ( epSearch )
    801            {
    802              // Is there a match?
    803              if ( epSearch->epDesc == epDesc )
    804              {
    805                return ( epSearch->pfnDescCB );
    806              }
    807              else
    808                epSearch = epSearch->nextDesc;  // Next entry
    809            }
    810          
    811            return ( (pDescCB)NULL );
    812          }
    813          
    814          /*********************************************************************
    815           * @fn      afDataReqMTU
    816           *
    817           * @brief   Get the Data Request MTU(Max Transport Unit).
    818           *
    819           * @param   fields - afDataReqMTU_t
    820           *
    821           * @return  uint8(MTU)
    822           */

   \                                 In  segment BANKED_CODE, align 1, keep-with-next
    823          uint8 afDataReqMTU( afDataReqMTU_t* fields )
   \                     afDataReqMTU:
    824          {
   \   000000   74F7         MOV     A,#-0x9
   \   000002   12....       LCALL   ?BANKED_ENTER_XDATA
   \   000005                ; Saved register size: 9
   \   000005                ; Auto size: 0
    825            uint8 len;
    826            uint8 hdr;
    827          
    828            if ( fields->kvp == TRUE )
   \   000005   8A82         MOV     DPL,R2
   \   000007   8B83         MOV     DPH,R3
   \   000009   E0           MOVX    A,@DPTR
   \   00000A   6401         XRL     A,#0x1
   \   00000C   7004         JNZ     ??afDataReqMTU_0
    829            {
    830              hdr = AF_HDR_KVP_MAX_LEN;
   \   00000E   7E08         MOV     R6,#0x8
   \   000010   8002         SJMP    ??afDataReqMTU_1
    831            }
    832            else
    833            {
    834              hdr = AF_HDR_V1_1_MAX_LEN;
   \                     ??afDataReqMTU_0:
   \   000012   7E00         MOV     R6,#0x0
    835            }
    836          
    837            len = (uint8)(APSDE_DataReqMTU(&fields->aps) - hdr);
    838          
    839            return len;
   \                     ??afDataReqMTU_1:
   \   000014                ; Setup parameters for call to function APSDE_DataReqMTU
   \   000014   A3           INC     DPTR
   \   000015   AA82         MOV     R2,DPL
   \   000017   AB83         MOV     R3,DPH
   \   000019   12....       LCALL   ??APSDE_DataReqMTU?relay
   \   00001C   E9           MOV     A,R1
   \   00001D   C3           CLR     C
   \   00001E   9E           SUBB    A,R6
   \   00001F   F9           MOV     R1,A
   \   000020                REQUIRE ?Subroutine4
   \   000020                ; // Fall through to label ?Subroutine4
    840          }

   \                                 In  segment BANKED_CODE, align 1, keep-with-next
   \                     ?Subroutine4:
   \   000000   7F01         MOV     R7,#0x1
   \   000002   02....       LJMP    ?BANKED_LEAVE_XDATA
    841          
    842          /*********************************************************************
    843           * @fn      afGetMatch
    844           *
    845           * @brief   Set the allow response flag.
    846           *
    847           * @param   ep - Application Endpoint to look for
    848           * @param   action - true - allow response, false - no response
    849           *
    850           * @return  TRUE allow responses, FALSE no response
    851           */

   \                                 In  segment BANKED_CODE, align 1, keep-with-next
    852          uint8 afGetMatch( uint8 ep )
   \                     afGetMatch:
    853          {
   \   000000   74F6         MOV     A,#-0xa
   \   000002   12....       LCALL   ?BANKED_ENTER_XDATA
   \   000005                ; Saved register size: 10
   \   000005                ; Auto size: 0
    854            epList_t *epSearch;
    855          
    856            // Look for the endpoint
    857            epSearch = afFindEndPointDescList( ep );
   \   000005                ; Setup parameters for call to function afFindEndPointDescList
   \   000005   12....       LCALL   ??afFindEndPointDescList?relay
   \   000008   8A82         MOV     DPL,R2
   \   00000A   8B83         MOV     DPH,R3
    858          
    859            if ( epSearch )
   \   00000C   E582         MOV     A,DPL
   \   00000E   4583         ORL     A,DPH
   \   000010   600B         JZ      ??afGetMatch_0
    860            {
    861              if ( epSearch->flags & eEP_AllowMatch )
   \   000012   A3           INC     DPTR
   \   000013   A3           INC     DPTR
   \   000014   E0           MOVX    A,@DPTR
   \   000015   A2E0         MOV     C,0xE0 /* A   */.0
   \   000017   5004         JNC     ??afGetMatch_0
    862                return ( TRUE );
   \   000019   7901         MOV     R1,#0x1
   \   00001B   8002         SJMP    ??afGetMatch_1
    863              else
    864                return ( FALSE );
    865            }
    866            else
    867              return ( FALSE );
   \                     ??afGetMatch_0:
   \   00001D   7900         MOV     R1,#0x0
   \                     ??afGetMatch_1:
   \   00001F                REQUIRE ?Subroutine2
   \   00001F                ; // Fall through to label ?Subroutine2
    868          }
    869          
    870          /*********************************************************************
    871           * @fn      afSetMatch
    872           *
    873           * @brief   Set the allow response flag.
    874           *
    875           * @param   ep - Application Endpoint to look for
    876           * @param   action - true - allow response, false - no response
    877           *
    878           * @return  TRUE if success, FALSE if endpoint not found
    879           */

   \                                 In  segment BANKED_CODE, align 1, keep-with-next
    880          uint8 afSetMatch( uint8 ep, uint8 action )
   \                     afSetMatch:
    881          {
   \   000000   74F6         MOV     A,#-0xa
   \   000002   12....       LCALL   ?BANKED_ENTER_XDATA
   \   000005                ; Saved register size: 10
   \   000005                ; Auto size: 0
   \   000005   EA           MOV     A,R2
   \   000006   FF           MOV     R7,A
    882            epList_t *epSearch;
    883          
    884            // Look for the endpoint
    885            epSearch = afFindEndPointDescList( ep );
   \   000007                ; Setup parameters for call to function afFindEndPointDescList
   \   000007   12....       LCALL   ??afFindEndPointDescList?relay
   \   00000A   8A..         MOV     ?V0 + 0,R2
   \   00000C   8B..         MOV     ?V0 + 1,R3
   \   00000E   A8..         MOV     R0,?V0 + 0
   \   000010   A9..         MOV     R1,?V0 + 1
    886          
    887            if ( epSearch )
   \   000012   E8           MOV     A,R0
   \   000013   49           ORL     A,R1
   \   000014   6019         JZ      ??afSetMatch_0
    888            {
    889              if ( action )
   \   000016   E8           MOV     A,R0
   \   000017   2402         ADD     A,#0x2
   \   000019   F582         MOV     DPL,A
   \   00001B   E9           MOV     A,R1
   \   00001C   12....       LCALL   ??Subroutine31_0 & 0xFFFF
   \                     ??CrossCallReturnLabel_77:
   \   00001F   EF           MOV     A,R7
   \   000020   6005         JZ      ??afSetMatch_1
    890              {
    891                epSearch->flags |= eEP_AllowMatch;
   \   000022   E0           MOVX    A,@DPTR
   \   000023   D2E0         SETB    0xE0 /* A   */.0
   \   000025   8003         SJMP    ??afSetMatch_2
    892              }
    893              else
    894              {
    895                epSearch->flags &= (eEP_AllowMatch ^ 0xFFFF);
   \                     ??afSetMatch_1:
   \   000027   E0           MOVX    A,@DPTR
   \   000028   C2E0         CLR     0xE0 /* A   */.0
   \                     ??afSetMatch_2:
   \   00002A   F0           MOVX    @DPTR,A
    896              }
    897              return ( TRUE );
   \   00002B   7901         MOV     R1,#0x1
   \   00002D   8002         SJMP    ??afSetMatch_3
    898            }
    899            else
    900              return ( FALSE );
   \                     ??afSetMatch_0:
   \   00002F   7900         MOV     R1,#0x0
   \                     ??afSetMatch_3:
   \   000031   80..         SJMP    ?Subroutine2
    901          }
    902          
    903          /*********************************************************************
    904           * @fn      afNumEndPoints
    905           *
    906           * @brief   Returns the number of endpoints defined (including 0)
    907           *
    908           * @param   none
    909           *
    910           * @return  number of endpoints
    911           */

   \                                 In  segment BANKED_CODE, align 1, keep-with-next
    912          byte afNumEndPoints( void )
   \                     afNumEndPoints:
    913          {
   \   000000   C082         PUSH    DPL
   \   000002   C083         PUSH    DPH
   \   000004                ; Saved register size: 2
   \   000004                ; Auto size: 0
    914            epList_t *epSearch;
    915            byte endpoints;
    916          
    917            // Start at the beginning
    918            epSearch = epList;
   \   000004   90....       MOV     DPTR,#epList
   \   000007   12....       LCALL   ?Subroutine17 & 0xFFFF
    919            endpoints = 0;
   \                     ??CrossCallReturnLabel_29:
   \   00000A   7900         MOV     R1,#0x0
   \   00000C   8006         SJMP    ??CrossCallReturnLabel_27
    920          
    921            while ( epSearch )
    922            {
    923              endpoints++;
   \                     ??afNumEndPoints_0:
   \   00000E   09           INC     R1
    924              epSearch = epSearch->nextDesc;
   \   00000F   A3           INC     DPTR
   \   000010   A3           INC     DPTR
   \   000011   12....       LCALL   ?Subroutine15 & 0xFFFF
    925            }
   \                     ??CrossCallReturnLabel_27:
   \   000014   E582         MOV     A,DPL
   \   000016   4583         ORL     A,DPH
   \   000018   70F4         JNZ     ??afNumEndPoints_0
    926          
    927            return ( endpoints );
   \   00001A                REQUIRE ?Subroutine0
   \   00001A                ; // Fall through to label ?Subroutine0
    928          }
    929          
    930          /*********************************************************************
    931           * @fn      afEndPoints
    932           *
    933           * @brief   Fills in the passed in buffer with the endpoint (numbers).
    934           *          Use afNumEndPoints to find out how big a buffer to supply.
    935           *
    936           * @param   epBuf - pointer to mem used
    937           *
    938           * @return  void
    939           */

   \                                 In  segment BANKED_CODE, align 1, keep-with-next
    940          void afEndPoints( byte *epBuf, byte skipZDO )
   \                     afEndPoints:
    941          {
   \   000000   C082         PUSH    DPL
   \   000002   C083         PUSH    DPH
   \   000004                ; Saved register size: 2
   \   000004                ; Auto size: 0
    942            epList_t *epSearch;
    943            byte endPoint;
    944          
    945            // Start at the beginning
    946            epSearch = epList;
   \   000004   90....       MOV     DPTR,#epList
   \   000007   8022         SJMP    ??afEndPoints_0
    947          
    948            while ( epSearch )
    949            {
    950              endPoint = epSearch->epDesc->endPoint;
   \                     ??afEndPoints_1:
   \   000009   8C82         MOV     DPL,R4
   \   00000B   8D83         MOV     DPH,R5
   \   00000D   12....       LCALL   ??Subroutine25_0 & 0xFFFF
   \                     ??CrossCallReturnLabel_38:
   \   000010   F8           MOV     R0,A
    951          
    952              if ( !skipZDO || endPoint != 0 )
   \   000011   E9           MOV     A,R1
   \   000012   6003         JZ      ??afEndPoints_2
   \   000014   E8           MOV     A,R0
   \   000015   600B         JZ      ??afEndPoints_3
    953                *epBuf++ = endPoint;
   \                     ??afEndPoints_2:
   \   000017   E8           MOV     A,R0
   \   000018   8A82         MOV     DPL,R2
   \   00001A   8B83         MOV     DPH,R3
   \   00001C   F0           MOVX    @DPTR,A
   \   00001D   A3           INC     DPTR
   \   00001E   AA82         MOV     R2,DPL
   \   000020   AB83         MOV     R3,DPH
    954          
    955              epSearch = epSearch->nextDesc;
   \                     ??afEndPoints_3:
   \   000022   8C82         MOV     DPL,R4
   \   000024   8D83         MOV     DPH,R5
   \   000026   A3           INC     DPTR
   \   000027   A3           INC     DPTR
   \   000028   A3           INC     DPTR
   \   000029   A3           INC     DPTR
   \   00002A   A3           INC     DPTR
    956            }
   \                     ??afEndPoints_0:
   \   00002B   12....       LCALL   ?Subroutine13 & 0xFFFF
   \                     ??CrossCallReturnLabel_22:
   \   00002E   EC           MOV     A,R4
   \   00002F   4D           ORL     A,R5
   \   000030   70D7         JNZ     ??afEndPoints_1
    957          }
   \   000032   80..         SJMP    ?Subroutine0
    958          
    959          

   \                                 In  segment BANKED_CODE, align 1, keep-with-next
    960          void afCopyAddress ( afAddrType_t *afAddr, zAddrType_t *zAddr )
   \                     afCopyAddress:
    961          {
   \   000000   74F7         MOV     A,#-0x9
   \   000002   12....       LCALL   ?BANKED_ENTER_XDATA
   \   000005                ; Saved register size: 9
   \   000005                ; Auto size: 0
    962            afAddr->addrMode = (afAddrMode_t)zAddr->addrMode;
   \   000005   EC           MOV     A,R4
   \   000006   2408         ADD     A,#0x8
   \   000008   F8           MOV     R0,A
   \   000009   ED           MOV     A,R5
   \   00000A   3400         ADDC    A,#0x0
   \   00000C   F9           MOV     R1,A
   \   00000D   8882         MOV     DPL,R0
   \   00000F   8983         MOV     DPH,R1
   \   000011   E0           MOVX    A,@DPTR
   \   000012   8A82         MOV     DPL,R2
   \   000014   8B83         MOV     DPH,R3
   \   000016   A3           INC     DPTR
   \   000017   A3           INC     DPTR
   \   000018   A3           INC     DPTR
   \   000019   A3           INC     DPTR
   \   00001A   A3           INC     DPTR
   \   00001B   A3           INC     DPTR
   \   00001C   A3           INC     DPTR
   \   00001D   A3           INC     DPTR
   \   00001E   F0           MOVX    @DPTR,A
    963            if ( zAddr->addrMode == Addr64Bit )
   \   00001F   8882         MOV     DPL,R0
   \   000021   8983         MOV     DPH,R1
   \   000023   E0           MOVX    A,@DPTR
   \   000024   6403         XRL     A,#0x3
   \   000026   7005         JNZ     ??afCopyAddress_0
    964              osal_cpyExtAddr( afAddr->addr.extAddr, zAddr->addr.extAddr );
   \   000028                ; Setup parameters for call to function sAddrExtCpy
   \   000028   12....       LCALL   ??sAddrExtCpy?relay
   \   00002B   800E         SJMP    ??CrossCallReturnLabel_63
    965            else
    966              afAddr->addr.shortAddr = zAddr->addr.shortAddr;
   \                     ??afCopyAddress_0:
   \   00002D   8C82         MOV     DPL,R4
   \   00002F   8D83         MOV     DPH,R5
   \   000031   12....       LCALL   ??Subroutine27_0 & 0xFFFF
   \                     ??CrossCallReturnLabel_48:
   \   000034   8A82         MOV     DPL,R2
   \   000036   8B83         MOV     DPH,R3
   \   000038   12....       LCALL   ??Subroutine28_0 & 0xFFFF
    967          }
   \                     ??CrossCallReturnLabel_63:
   \   00003B   02....       LJMP    ?Subroutine4 & 0xFFFF

   \                                 In  segment XDATA_ID, align 1, keep-with-next
   \                     `?<Initializer for AF_DataRequestDiscoverRoute>`:
   \   000000   01           DB 1

   \                                 In  segment BANK_RELAYS, align 1
   \                     ??afInit?relay:
   \   000000   12....       LCALL   ?BDISPATCH
   \   000003   ......       DC24    afInit

   \                                 In  segment BANK_RELAYS, align 1
   \                     ??afRegisterExtended?relay:
   \   000000   12....       LCALL   ?BDISPATCH
   \   000003   ......       DC24    afRegisterExtended

   \                                 In  segment BANK_RELAYS, align 1
   \                     ??afRegister?relay:
   \   000000   12....       LCALL   ?BDISPATCH
   \   000003   ......       DC24    afRegister

   \                                 In  segment BANK_RELAYS, align 1
   \                     ??afDataConfirm?relay:
   \   000000   12....       LCALL   ?BDISPATCH
   \   000003   ......       DC24    afDataConfirm

   \                                 In  segment BANK_RELAYS, align 1
   \                     ??afIncomingData?relay:
   \   000000   12....       LCALL   ?BDISPATCH
   \   000003   ......       DC24    afIncomingData

   \                                 In  segment BANK_RELAYS, align 1
   \                     ??afBuildMSGIncoming?relay:
   \   000000   12....       LCALL   ?BDISPATCH
   \   000003   ......       DC24    afBuildMSGIncoming

   \                                 In  segment BANK_RELAYS, align 1
   \                     ??AF_DataRequest?relay:
   \   000000   12....       LCALL   ?BDISPATCH
   \   000003   ......       DC24    AF_DataRequest

   \                                 In  segment BANK_RELAYS, align 1
   \                     ??AF_DataRequestSrcRtg?relay:
   \   000000   12....       LCALL   ?BDISPATCH
   \   000003   ......       DC24    AF_DataRequestSrcRtg

   \                                 In  segment BANK_RELAYS, align 1
   \                     ??afFindEndPointDescList?relay:
   \   000000   12....       LCALL   ?BDISPATCH
   \   000003   ......       DC24    afFindEndPointDescList

   \                                 In  segment BANK_RELAYS, align 1
   \                     ??afFindEndPointDesc?relay:
   \   000000   12....       LCALL   ?BDISPATCH
   \   000003   ......       DC24    afFindEndPointDesc

   \                                 In  segment BANK_RELAYS, align 1
   \                     ??afFindSimpleDesc?relay:
   \   000000   12....       LCALL   ?BDISPATCH
   \   000003   ......       DC24    afFindSimpleDesc

   \                                 In  segment BANK_RELAYS, align 1
   \                     ??afDataReqMTU?relay:
   \   000000   12....       LCALL   ?BDISPATCH
   \   000003   ......       DC24    afDataReqMTU

   \                                 In  segment BANK_RELAYS, align 1
   \                     ??afGetMatch?relay:
   \   000000   12....       LCALL   ?BDISPATCH
   \   000003   ......       DC24    afGetMatch

   \                                 In  segment BANK_RELAYS, align 1
   \                     ??afSetMatch?relay:
   \   000000   12....       LCALL   ?BDISPATCH
   \   000003   ......       DC24    afSetMatch

   \                                 In  segment BANK_RELAYS, align 1
   \                     ??afNumEndPoints?relay:
   \   000000   12....       LCALL   ?BDISPATCH
   \   000003   ......       DC24    afNumEndPoints

   \                                 In  segment BANK_RELAYS, align 1
   \                     ??afEndPoints?relay:
   \   000000   12....       LCALL   ?BDISPATCH
   \   000003   ......       DC24    afEndPoints

   \                                 In  segment BANK_RELAYS, align 1
   \                     ??afCopyAddress?relay:
   \   000000   12....       LCALL   ?BDISPATCH
   \   000003   ......       DC24    afCopyAddress
    968          
    969          /*********************************************************************
    970          *********************************************************************/
    971          

   Maximum stack usage in bytes:

   ISTACK PSTACK XSTACK Function
   ------ ------ ------ --------
       1      0     77  AF_DataRequest
                          0 0 48 -> APSDE_DataReq
                          0 0 48 -> NLME_GetShortAddr
                          0 0 48 -> NLME_IsAddressBroadcast
                          0 0 48 -> afDataConfirm
                          0 0 48 -> afDataReqMTU
                          0 0 48 -> osal_mem_free
                          0 0 48 -> sAddrExtCpy
       0      0     41  AF_DataRequestSrcRtg
                          0 0 29 -> AF_DataRequest
                          0 0 20 -> RTG_AddSrcRtgEntry_Guaranteed
       1      0     63  afBuildMSGIncoming
                          0 0 24 -> afCopyAddress
                          0 0 27 -> osal_memcpy
                          0 0 24 -> osal_msg_allocate
                          0 0 24 -> osal_msg_send
       1      0     33  afCopyAddress
                          0 0  9 -> sAddrExtCpy
       1      0     62  afDataConfirm
                          0 0 14 -> afFindEndPointDesc
                          0 0 14 -> osal_msg_allocate
                          0 0 14 -> osal_msg_send
       0      0     57  afDataReqMTU
                          0 0  9 -> APSDE_DataReqMTU
       3      0      0  afEndPoints
       0      0     36  afFindEndPointDesc
                          0 0 10 -> afFindEndPointDescList
       2      0     26  afFindEndPointDescList
       0      0     12  afFindSimpleDesc
                          0 0 12 -> afFindEndPointDescList
       0      0     10  afGetMatch
                          0 0 10 -> afFindEndPointDescList
       0      0     44  afIncomingData
                          0 0 36 -> afBuildMSGIncoming
                          0 0 26 -> afFindEndPointDesc
                          0 0 26 -> afFindEndPointDescList
                          0 0 26 -> aps_FindGroupForEndpoint
                          0 0 26 -> osal_mem_free
       2      0      0  afInit
       2      0      0  afNumEndPoints
       0      0     10  afRegister
                          0 0 10 -> afFindEndPointDescList
                          0 0 10 -> afRegisterExtended
       0      0     22  afRegisterExtended
                          0 0 12 -> osal_mem_alloc
       0      0     10  afSetMatch
                          0 0 10 -> afFindEndPointDescList


   Segment part sizes:

   Bytes  Function/Label
   -----  --------------
       1  ?<Initializer for AF_DataRequestDiscoverRoute>
       6  ??AF_DataRequest?relay
       6  ??AF_DataRequestSrcRtg?relay
       5  ??Subroutine25_0
       1  ??Subroutine26_0
       4  ??Subroutine27_0
       6  ??Subroutine28_0
       3  ??Subroutine29_0
       6  ??Subroutine30_0
       5  ??Subroutine31_0
       6  ??afBuildMSGIncoming?relay
       6  ??afCopyAddress?relay
       6  ??afDataConfirm?relay
       6  ??afDataReqMTU?relay
       6  ??afEndPoints?relay
       6  ??afFindEndPointDesc?relay
       6  ??afFindEndPointDescList?relay
       6  ??afFindSimpleDesc?relay
       6  ??afGetMatch?relay
       6  ??afIncomingData?relay
       6  ??afInit?relay
       6  ??afNumEndPoints?relay
       6  ??afRegister?relay
       6  ??afRegisterExtended?relay
       6  ??afSetMatch?relay
       7  ?Subroutine0
       5  ?Subroutine1
       1  ?Subroutine10
       8  ?Subroutine11
      14  ?Subroutine12
       6  ?Subroutine13
       8  ?Subroutine14
      13  ?Subroutine15
       1  ?Subroutine16
       4  ?Subroutine17
       7  ?Subroutine18
       9  ?Subroutine19
       5  ?Subroutine2
       3  ?Subroutine20
       8  ?Subroutine21
       8  ?Subroutine22
       9  ?Subroutine23
       6  ?Subroutine24
       5  ?Subroutine3
       5  ?Subroutine4
       5  ?Subroutine5
       7  ?Subroutine6
       6  ?Subroutine7
       8  ?Subroutine8
      11  ?Subroutine9
     672  AF_DataRequest
       1  AF_DataRequestDiscoverRoute
     152  AF_DataRequestSrcRtg
     435  afBuildMSGIncoming
      62  afCopyAddress
      74  afDataConfirm
      32  afDataReqMTU
      52  afEndPoints
      30  afFindEndPointDesc
      44  afFindEndPointDescList
      91  afFindSimpleDesc
      31  afGetMatch
     436  afIncomingData
      14  afInit
      26  afNumEndPoints
      56  afRegister
     100  afRegisterExtended
      51  afSetMatch
       2  epList

 
 2 557 bytes in segment BANKED_CODE
   102 bytes in segment BANK_RELAYS
     1 byte  in segment XDATA_I
     1 byte  in segment XDATA_ID
     2 bytes in segment XDATA_Z
 
 2 660 bytes of CODE  memory
     3 bytes of XDATA memory

Errors: none
Warnings: none
