///////////////////////////////////////////////////////////////////////////////
//                                                                            /
// IAR C/C++ Compiler V8.20.2.41139 for 8051            16/Mar/2016  16:32:09 /
// Copyright 2004-2013 IAR Systems AB.                                        /
//                                                                            /
//    Core               =  plain                                             /
//    Code model         =  banked                                            /
//    Data model         =  large                                             /
//    Calling convention =  xdata reentrant                                   /
//    Constant location  =  data_rom                                          /
//    Dptr setup         =  1,16                                              /
//                                                                            /
//    Source file        =  C:\Users\ArnoldWorkStation\Desktop\ZigbeeTest\Com /
//                          ponents\mac\low_level\srf04\mac_rx.c              /
//    Command line       =  -f C:\Users\ArnoldWorkStation\Desktop\ZigbeeTest\ /
//                          Projects\zstack\Samples\SampleApp\CC2530DB\..\..\ /
//                          ..\Tools\CC2530DB\f8wRouter.cfg (-DCPU32MHZ       /
//                          -DROOT=__near_func -DMAC_CFG_APP_PENDING_QUEUE=TR /
//                          UE -DRTR_NWK -DBLINK_LEDS) -f                     /
//                          C:\Users\ArnoldWorkStation\Desktop\ZigbeeTest\Pro /
//                          jects\zstack\Samples\SampleApp\CC2530DB\..\..\..\ /
//                          Tools\CC2530DB\f8wConfig.cfg (-DSECURE=0          /
//                          -DZG_SECURE_DYNAMIC=0 -DREFLECTOR                 /
//                          -DDEFAULT_CHANLIST=0x00000800                     /
//                          -DZDAPP_CONFIG_PAN_ID=0xFFF1                      /
//                          -DNWK_START_DELAY=100 -DEXTENDED_JOINING_RANDOM_M /
//                          ASK=0x007F -DBEACON_REQUEST_DELAY=100             /
//                          -DBEACON_REQ_DELAY_MASK=0x00FF                    /
//                          -DROUTE_EXPIRY_TIME=30 -DAPSC_ACK_WAIT_DURATION_P /
//                          OLLED=3000 -DNWK_INDIRECT_MSG_TIMEOUT=7           /
//                          -DMAX_RREQ_ENTRIES=8 -DAPSC_MAX_FRAME_RETRIES=3   /
//                          -DNWK_MAX_DATA_RETRIES=2                          /
//                          -DMAX_POLL_FAILURE_RETRIES=2 -DMAX_BCAST=9        /
//                          -DAPS_MAX_GROUPS=16 -DMAX_RTG_ENTRIES=40          /
//                          -DNWK_MAX_BINDING_ENTRIES=4                       /
//                          -DMAX_BINDING_CLUSTER_IDS=4                       /
//                          "-DDEFAULT_KEY={0x01, 0x03, 0x05, 0x07, 0x09,     /
//                          0x0B, 0x0D, 0x0F, 0x00, 0x02, 0x04, 0x06, 0x08,   /
//                          0x0A, 0x0C, 0x0D}" -DMAC_MAX_FRAME_SIZE=116       /
//                          "-DCONST=const __code" -DGENERIC=__generic        /
//                          -DRFD_RCVC_ALWAYS_ON=TRUE -DPOLL_RATE=1000        /
//                          -DQUEUED_POLL_RATE=100 -DRESPONSE_POLL_RATE=100)  /
//                          -DREJOIN_POLL_RATE=440 C:\Users\ArnoldWorkStation /
//                          \Desktop\ZigbeeTest\Components\mac\low_level\srf0 /
//                          4\mac_rx.c -D ZIGBEEPRO -D ZTOOL_P1 -D MT_TASK    /
//                          -D MT_SYS_FUNC -D MT_ZDO_FUNC -D                  /
//                          LCD_SUPPORTED=DEBUG -lC                           /
//                          C:\Users\ArnoldWorkStation\Desktop\ZigbeeTest\Pro /
//                          jects\zstack\Samples\SampleApp\CC2530DB\AnchorRou /
//                          terPro\List\ -lA C:\Users\ArnoldWorkStation\Deskt /
//                          op\ZigbeeTest\Projects\zstack\Samples\SampleApp\C /
//                          C2530DB\AnchorRouterPro\List\ --diag_suppress     /
//                          Pe001,Pa010 -o C:\Users\ArnoldWorkStation\Desktop /
//                          \ZigbeeTest\Projects\zstack\Samples\SampleApp\CC2 /
//                          530DB\AnchorRouterPro\Obj\ -e --debug             /
//                          --core=plain --dptr=16,1 --data_model=large       /
//                          --code_model=banked --calling_convention=xdata_re /
//                          entrant --place_constants=data_rom                /
//                          --nr_virtual_regs 16 -I                           /
//                          C:\Users\ArnoldWorkStation\Desktop\ZigbeeTest\Pro /
//                          jects\zstack\Samples\SampleApp\CC2530DB\ -I       /
//                          C:\Users\ArnoldWorkStation\Desktop\ZigbeeTest\Pro /
//                          jects\zstack\Samples\SampleApp\CC2530DB\..\SOURCE /
//                          \ -I C:\Users\ArnoldWorkStation\Desktop\ZigbeeTes /
//                          t\Projects\zstack\Samples\SampleApp\CC2530DB\..\. /
//                          .\..\ZMAIN\TI2530DB\ -I                           /
//                          C:\Users\ArnoldWorkStation\Desktop\ZigbeeTest\Pro /
//                          jects\zstack\Samples\SampleApp\CC2530DB\..\..\..\ /
//                          ..\..\COMPONENTS\MT\ -I                           /
//                          C:\Users\ArnoldWorkStation\Desktop\ZigbeeTest\Pro /
//                          jects\zstack\Samples\SampleApp\CC2530DB\..\..\..\ /
//                          ..\..\COMPONENTS\HAL\INCLUDE\ -I                  /
//                          C:\Users\ArnoldWorkStation\Desktop\ZigbeeTest\Pro /
//                          jects\zstack\Samples\SampleApp\CC2530DB\..\..\..\ /
//                          ..\..\COMPONENTS\HAL\TARGET\CC2530EB\ -I          /
//                          C:\Users\ArnoldWorkStation\Desktop\ZigbeeTest\Pro /
//                          jects\zstack\Samples\SampleApp\CC2530DB\..\..\..\ /
//                          ..\..\COMPONENTS\OSAL\MCU\CCSOC\ -I               /
//                          C:\Users\ArnoldWorkStation\Desktop\ZigbeeTest\Pro /
//                          jects\zstack\Samples\SampleApp\CC2530DB\..\..\..\ /
//                          ..\..\COMPONENTS\OSAL\INCLUDE\ -I                 /
//                          C:\Users\ArnoldWorkStation\Desktop\ZigbeeTest\Pro /
//                          jects\zstack\Samples\SampleApp\CC2530DB\..\..\..\ /
//                          ..\..\COMPONENTS\STACK\AF\ -I                     /
//                          C:\Users\ArnoldWorkStation\Desktop\ZigbeeTest\Pro /
//                          jects\zstack\Samples\SampleApp\CC2530DB\..\..\..\ /
//                          ..\..\COMPONENTS\STACK\NWK\ -I                    /
//                          C:\Users\ArnoldWorkStation\Desktop\ZigbeeTest\Pro /
//                          jects\zstack\Samples\SampleApp\CC2530DB\..\..\..\ /
//                          ..\..\COMPONENTS\STACK\SEC\ -I                    /
//                          C:\Users\ArnoldWorkStation\Desktop\ZigbeeTest\Pro /
//                          jects\zstack\Samples\SampleApp\CC2530DB\..\..\..\ /
//                          ..\..\COMPONENTS\STACK\SAPI\ -I                   /
//                          C:\Users\ArnoldWorkStation\Desktop\ZigbeeTest\Pro /
//                          jects\zstack\Samples\SampleApp\CC2530DB\..\..\..\ /
//                          ..\..\COMPONENTS\STACK\SYS\ -I                    /
//                          C:\Users\ArnoldWorkStation\Desktop\ZigbeeTest\Pro /
//                          jects\zstack\Samples\SampleApp\CC2530DB\..\..\..\ /
//                          ..\..\COMPONENTS\STACK\ZDO\ -I                    /
//                          C:\Users\ArnoldWorkStation\Desktop\ZigbeeTest\Pro /
//                          jects\zstack\Samples\SampleApp\CC2530DB\..\..\..\ /
//                          ..\..\COMPONENTS\ZMAC\F8W\ -I                     /
//                          C:\Users\ArnoldWorkStation\Desktop\ZigbeeTest\Pro /
//                          jects\zstack\Samples\SampleApp\CC2530DB\..\..\..\ /
//                          ..\..\COMPONENTS\ZMAC\ -I                         /
//                          C:\Users\ArnoldWorkStation\Desktop\ZigbeeTest\Pro /
//                          jects\zstack\Samples\SampleApp\CC2530DB\..\..\..\ /
//                          ..\..\COMPONENTS\SERVICES\SADDR\ -I               /
//                          C:\Users\ArnoldWorkStation\Desktop\ZigbeeTest\Pro /
//                          jects\zstack\Samples\SampleApp\CC2530DB\..\..\..\ /
//                          ..\..\COMPONENTS\SERVICES\SDATA\ -I               /
//                          C:\Users\ArnoldWorkStation\Desktop\ZigbeeTest\Pro /
//                          jects\zstack\Samples\SampleApp\CC2530DB\..\..\..\ /
//                          ..\..\COMPONENTS\MAC\INCLUDE\ -I                  /
//                          C:\Users\ArnoldWorkStation\Desktop\ZigbeeTest\Pro /
//                          jects\zstack\Samples\SampleApp\CC2530DB\..\..\..\ /
//                          ..\..\COMPONENTS\MAC\HIGH_LEVEL\ -I               /
//                          C:\Users\ArnoldWorkStation\Desktop\ZigbeeTest\Pro /
//                          jects\zstack\Samples\SampleApp\CC2530DB\..\..\..\ /
//                          ..\..\COMPONENTS\MAC\LOW_LEVEL\srf04\ -I          /
//                          C:\Users\ArnoldWorkStation\Desktop\ZigbeeTest\Pro /
//                          jects\zstack\Samples\SampleApp\CC2530DB\..\..\..\ /
//                          ..\..\COMPONENTS\MAC\LOW_LEVEL\srf04\SINGLE_CHIP\ /
//                           -Ohz --require_prototypes                        /
//    List file          =  C:\Users\ArnoldWorkStation\Desktop\ZigbeeTest\Pro /
//                          jects\zstack\Samples\SampleApp\CC2530DB\AnchorRou /
//                          terPro\List\mac_rx.s51                            /
//                                                                            /
//                                                                            /
///////////////////////////////////////////////////////////////////////////////

        NAME mac_rx

        RTMODEL "__SystemLibrary", "CLib"
        RTMODEL "__calling_convention", "xdata_reentrant"
        RTMODEL "__code_model", "banked"
        RTMODEL "__core", "plain"
        RTMODEL "__data_model", "large"
        RTMODEL "__dptr_size", "16"
        RTMODEL "__extended_stack", "disabled"
        RTMODEL "__location_for_constants", "data"
        RTMODEL "__number_of_dptrs", "1"
        RTMODEL "__rt_version", "1"

        RSEG DOVERLAY:DATA:NOROOT(0)
        RSEG IOVERLAY:IDATA:NOROOT(0)
        RSEG ISTACK:IDATA:NOROOT(0)
        RSEG PSTACK:XDATA:NOROOT(0)
        RSEG XSTACK:XDATA:NOROOT(0)

        EXTERN ?ALLOC_XSTACK8
        EXTERN ?BANKED_ENTER_XDATA
        EXTERN ?BANKED_LEAVE_XDATA
        EXTERN ?BDISPATCH
        EXTERN ?BRET
        EXTERN ?CALL_IND
        EXTERN ?DEALLOC_XSTACK8
        EXTERN ?L_MOV_TO_X
        EXTERN ?V0
        EXTERN ?XSP
        EXTERN ?XSTACK_DISP0_8
        EXTERN __INIT_XDATA_Z

        PUBLIC ??macRxAckTxDoneCallback?relay
        FUNCTION ??macRxAckTxDoneCallback?relay,0203H
        PUBLIC ??macRxFifoOverflowIsr?relay
        FUNCTION ??macRxFifoOverflowIsr?relay,0203H
        PUBLIC ??macRxHaltCleanup?relay
        FUNCTION ??macRxHaltCleanup?relay,0203H
        PUBLIC ??macRxInit?relay
        FUNCTION ??macRxInit?relay,0203H
        PUBLIC ??macRxPromiscuousMode?relay
        FUNCTION ??macRxPromiscuousMode?relay,0203H
        PUBLIC ??macRxRadioPowerUpInit?relay
        FUNCTION ??macRxRadioPowerUpInit?relay,0203H
        PUBLIC ??macRxThresholdIsr?relay
        FUNCTION ??macRxThresholdIsr?relay,0203H
        PUBLIC ??macRxTxReset?relay
        FUNCTION ??macRxTxReset?relay,0203H
        FUNCTION ??rxAddrIsr?relay,0203H
        FUNCTION ??rxDiscardFrame?relay,0203H
        FUNCTION ??rxDiscardIsr?relay,0203H
        FUNCTION ??rxDone?relay,0203H
        FUNCTION ??rxFcsIsr?relay,0203H
        FUNCTION ??rxHaltCleanupFinalStep?relay,0203H
        FUNCTION ??rxPayloadIsr?relay,0203H
        FUNCTION ??rxPostRxUpdates?relay,0203H
        FUNCTION ??rxPrepPayload?relay,0203H
        FUNCTION ??rxStartIsr?relay,0203H
        PUBWEAK RFIRQF0
        PUBWEAK RFIRQF1
        PUBWEAK RFST
        PUBWEAK S1CON
        PUBWEAK _A_IEN0
        PUBLIC macRxAckTxDoneCallback
        FUNCTION macRxAckTxDoneCallback,021203H
        ARGFRAME XSTACK, 0, STACK
        LOCFRAME ISTACK, 2, STACK
        PUBLIC macRxActive
        PUBLIC macRxFifoOverflowIsr
        FUNCTION macRxFifoOverflowIsr,021203H
        ARGFRAME XSTACK, 0, STACK
        LOCFRAME ISTACK, 2, STACK
        PUBLIC macRxFilter
        PUBLIC macRxHaltCleanup
        FUNCTION macRxHaltCleanup,021203H
        ARGFRAME XSTACK, 0, STACK
        ARGFRAME IOVERLAY, 0, STATIC
        ARGFRAME DOVERLAY, 0, STATIC
        LOCFRAME ISTACK, 2, STACK
        PUBLIC macRxInit
        FUNCTION macRxInit,0203H
        ARGFRAME XSTACK, 0, STACK
        LOCFRAME ISTACK, 2, STACK
        PUBLIC macRxOutgoingAckFlag
        PUBLIC macRxPromiscuousMode
        FUNCTION macRxPromiscuousMode,021203H
        ARGFRAME XSTACK, 0, STACK
        ARGFRAME IOVERLAY, 0, STATIC
        ARGFRAME DOVERLAY, 0, STATIC
        LOCFRAME XSTACK, 9, STACK
        PUBLIC macRxRadioPowerUpInit
        FUNCTION macRxRadioPowerUpInit,0203H
        ARGFRAME XSTACK, 0, STACK
        LOCFRAME ISTACK, 2, STACK
        PUBLIC macRxThresholdIsr
        FUNCTION macRxThresholdIsr,021203H
        ARGFRAME XSTACK, 0, STACK
        LOCFRAME ISTACK, 2, STACK
        PUBLIC macRxTxReset
        FUNCTION macRxTxReset,021203H
        ARGFRAME XSTACK, 0, STACK
        LOCFRAME ISTACK, 2, STACK
        FUNCTION rxAddrIsr,021603H
        ARGFRAME XSTACK, 0, STACK
        LOCFRAME XSTACK, 29, STACK
        FUNCTION rxDiscardFrame,021203H
        ARGFRAME XSTACK, 17, STACK
        ARGFRAME IOVERLAY, 0, STATIC
        ARGFRAME DOVERLAY, 0, STATIC
        LOCFRAME ISTACK, 2, STACK
        FUNCTION rxDiscardIsr,021603H
        ARGFRAME XSTACK, 0, STACK
        LOCFRAME ISTACK, 2, STACK
        LOCFRAME XSTACK, 16, STACK
        FUNCTION rxDone,021203H
        ARGFRAME XSTACK, 17, STACK
        ARGFRAME IOVERLAY, 0, STATIC
        ARGFRAME DOVERLAY, 0, STATIC
        LOCFRAME ISTACK, 2, STACK
        FUNCTION rxFcsIsr,021603H
        ARGFRAME XSTACK, 0, STACK
        LOCFRAME ISTACK, 1, STACK
        LOCFRAME XSTACK, 10, STACK
        FUNCTION rxHaltCleanupFinalStep,021203H
        ARGFRAME XSTACK, 0, STACK
        ARGFRAME IOVERLAY, 0, STATIC
        ARGFRAME DOVERLAY, 0, STATIC
        LOCFRAME ISTACK, 2, STACK
        FUNCTION rxPayloadIsr,021603H
        ARGFRAME XSTACK, 0, STACK
        LOCFRAME ISTACK, 2, STACK
        FUNCTION rxPostRxUpdates,021203H
        ARGFRAME XSTACK, 17, STACK
        ARGFRAME IOVERLAY, 0, STATIC
        ARGFRAME DOVERLAY, 0, STATIC
        LOCFRAME ISTACK, 2, STACK
        FUNCTION rxPrepPayload,0203H
        ARGFRAME XSTACK, 29, STACK
        ARGFRAME IOVERLAY, 0, STATIC
        ARGFRAME DOVERLAY, 0, STATIC
        LOCFRAME ISTACK, 2, STACK
        FUNCTION rxStartIsr,021603H
        ARGFRAME XSTACK, 0, STACK
        LOCFRAME ISTACK, 1, STACK
        LOCFRAME XSTACK, 17, STACK
        
          CFI Names cfiNames0
          CFI StackFrame CFA_SP SP IDATA
          CFI StackFrame CFA_PSP16 PSP16 XDATA
          CFI StackFrame CFA_XSP16 XSP16 XDATA
          CFI StaticOverlayFrame CFA_IOVERLAY IOVERLAY
          CFI StaticOverlayFrame CFA_DOVERLAY DOVERLAY
          CFI Resource `PSW.CY`:1, `B.BR0`:1, `B.BR1`:1, `B.BR2`:1, `B.BR3`:1
          CFI Resource `B.BR4`:1, `B.BR5`:1, `B.BR6`:1, `B.BR7`:1, `VB.BR8`:1
          CFI Resource `VB.BR9`:1, `VB.BR10`:1, `VB.BR11`:1, `VB.BR12`:1
          CFI Resource `VB.BR13`:1, `VB.BR14`:1, `VB.BR15`:1, VB:8, B:8, A:8
          CFI Resource PSW:8, DPL0:8, DPH0:8, R0:8, R1:8, R2:8, R3:8, R4:8, R5:8
          CFI Resource R6:8, R7:8, V0:8, V1:8, V2:8, V3:8, V4:8, V5:8, V6:8, V7:8
          CFI Resource V8:8, V9:8, V10:8, V11:8, V12:8, V13:8, V14:8, V15:8, SP:8
          CFI Resource PSPH:8, PSPL:8, PSP16:16, XSPH:8, XSPL:8, XSP16:16
          CFI VirtualResource ?RET:24
          CFI Resource ?BRET_EXT:8
          CFI VirtualResource ?RET_HIGH:8, ?RET_LOW:8
          CFI ResourceParts PSP16 PSPH, PSPL
          CFI ResourceParts XSP16 XSPH, XSPL
          CFI ResourceParts ?RET ?BRET_EXT, ?RET_HIGH, ?RET_LOW
          CFI EndNames cfiNames0
        
          CFI Common cfiCommon0 Using cfiNames0
          CFI CodeAlign 1
          CFI DataAlign -1
          CFI ReturnAddress ?RET CODE
          CFI CFA_DOVERLAY Used
          CFI CFA_IOVERLAY Used
          CFI CFA_SP SP+-3
          CFI CFA_PSP16 PSP16+0
          CFI CFA_XSP16 XSP16+0
          CFI `PSW.CY` SameValue
          CFI `B.BR0` SameValue
          CFI `B.BR1` SameValue
          CFI `B.BR2` SameValue
          CFI `B.BR3` SameValue
          CFI `B.BR4` SameValue
          CFI `B.BR5` SameValue
          CFI `B.BR6` SameValue
          CFI `B.BR7` SameValue
          CFI `VB.BR8` SameValue
          CFI `VB.BR9` SameValue
          CFI `VB.BR10` SameValue
          CFI `VB.BR11` SameValue
          CFI `VB.BR12` SameValue
          CFI `VB.BR13` SameValue
          CFI `VB.BR14` SameValue
          CFI `VB.BR15` SameValue
          CFI VB SameValue
          CFI B Undefined
          CFI A Undefined
          CFI PSW SameValue
          CFI DPL0 SameValue
          CFI DPH0 SameValue
          CFI R0 Undefined
          CFI R1 Undefined
          CFI R2 Undefined
          CFI R3 Undefined
          CFI R4 Undefined
          CFI R5 Undefined
          CFI R6 SameValue
          CFI R7 SameValue
          CFI V0 SameValue
          CFI V1 SameValue
          CFI V2 SameValue
          CFI V3 SameValue
          CFI V4 SameValue
          CFI V5 SameValue
          CFI V6 SameValue
          CFI V7 SameValue
          CFI V8 SameValue
          CFI V9 SameValue
          CFI V10 SameValue
          CFI V11 SameValue
          CFI V12 SameValue
          CFI V13 SameValue
          CFI V14 SameValue
          CFI V15 SameValue
          CFI PSPH Undefined
          CFI PSPL Undefined
          CFI XSPH Undefined
          CFI XSPL Undefined
          CFI ?RET Concat
          CFI ?BRET_EXT Frame(CFA_SP, 3)
          CFI ?RET_HIGH Frame(CFA_SP, 2)
          CFI ?RET_LOW Frame(CFA_SP, 1)
          CFI EndCommon cfiCommon0
        
        
          CFI Common cfiCommon1 Using cfiNames0
          CFI CodeAlign 1
          CFI DataAlign -1
          CFI ReturnAddress ?RET CODE
          CFI CFA_DOVERLAY Used
          CFI CFA_IOVERLAY Used
          CFI CFA_SP SP+-2
          CFI CFA_PSP16 PSP16+0
          CFI CFA_XSP16 XSP16+0
          CFI `PSW.CY` SameValue
          CFI `B.BR0` SameValue
          CFI `B.BR1` SameValue
          CFI `B.BR2` SameValue
          CFI `B.BR3` SameValue
          CFI `B.BR4` SameValue
          CFI `B.BR5` SameValue
          CFI `B.BR6` SameValue
          CFI `B.BR7` SameValue
          CFI `VB.BR8` SameValue
          CFI `VB.BR9` SameValue
          CFI `VB.BR10` SameValue
          CFI `VB.BR11` SameValue
          CFI `VB.BR12` SameValue
          CFI `VB.BR13` SameValue
          CFI `VB.BR14` SameValue
          CFI `VB.BR15` SameValue
          CFI VB SameValue
          CFI B SameValue
          CFI A SameValue
          CFI PSW SameValue
          CFI DPL0 SameValue
          CFI DPH0 SameValue
          CFI R0 SameValue
          CFI R1 SameValue
          CFI R2 SameValue
          CFI R3 SameValue
          CFI R4 SameValue
          CFI R5 SameValue
          CFI R6 SameValue
          CFI R7 SameValue
          CFI V0 SameValue
          CFI V1 SameValue
          CFI V2 SameValue
          CFI V3 SameValue
          CFI V4 SameValue
          CFI V5 SameValue
          CFI V6 SameValue
          CFI V7 SameValue
          CFI V8 SameValue
          CFI V9 SameValue
          CFI V10 SameValue
          CFI V11 SameValue
          CFI V12 SameValue
          CFI V13 SameValue
          CFI V14 SameValue
          CFI V15 SameValue
          CFI PSPH Undefined
          CFI PSPL Undefined
          CFI XSPH Undefined
          CFI XSPL Undefined
          CFI ?RET Concat
          CFI ?BRET_EXT SameValue
          CFI ?RET_HIGH Frame(CFA_SP, 2)
          CFI ?RET_LOW Frame(CFA_SP, 1)
          CFI EndCommon cfiCommon1
        
MAC_SrcMatchCheckAllPending SYMBOL "MAC_SrcMatchCheckAllPending"
??MAC_SrcMatchCheckAllPending?relay SYMBOL "?relay", MAC_SrcMatchCheckAllPending
MAC_SrcMatchCheckResult SYMBOL "MAC_SrcMatchCheckResult"
??MAC_SrcMatchCheckResult?relay SYMBOL "?relay", MAC_SrcMatchCheckResult
halAssertHandler    SYMBOL "halAssertHandler"
??halAssertHandler?relay SYMBOL "?relay", halAssertHandler
macCspForceTxDoneIfPending SYMBOL "macCspForceTxDoneIfPending"
??macCspForceTxDoneIfPending?relay SYMBOL "?relay", macCspForceTxDoneIfPending
macDataRxMemAlloc   SYMBOL "macDataRxMemAlloc"
??macDataRxMemAlloc?relay SYMBOL "?relay", macDataRxMemAlloc
macDataRxMemFree    SYMBOL "macDataRxMemFree"
??macDataRxMemFree?relay SYMBOL "?relay", macDataRxMemFree
macMcuOverflowCapture SYMBOL "macMcuOverflowCapture"
??macMcuOverflowCapture?relay SYMBOL "?relay", macMcuOverflowCapture
macMcuTimerCapture  SYMBOL "macMcuTimerCapture"
??macMcuTimerCapture?relay SYMBOL "?relay", macMcuTimerCapture
macMemReadRxFifo    SYMBOL "macMemReadRxFifo"
??macMemReadRxFifo?relay SYMBOL "?relay", macMemReadRxFifo
macRadioComputeLQI  SYMBOL "macRadioComputeLQI"
??macRadioComputeLQI?relay SYMBOL "?relay", macRadioComputeLQI
macRadioUpdateTxPower SYMBOL "macRadioUpdateTxPower"
??macRadioUpdateTxPower?relay SYMBOL "?relay", macRadioUpdateTxPower
macRxCheckMACPendingCallback SYMBOL "macRxCheckMACPendingCallback"
??macRxCheckMACPendingCallback?relay SYMBOL "?relay", macRxCheckMACPendingCallback
macRxCheckPendingCallback SYMBOL "macRxCheckPendingCallback"
??macRxCheckPendingCallback?relay SYMBOL "?relay", macRxCheckPendingCallback
macRxCompleteCallback SYMBOL "macRxCompleteCallback"
??macRxCompleteCallback?relay SYMBOL "?relay", macRxCompleteCallback
macRxHardDisable    SYMBOL "macRxHardDisable"
??macRxHardDisable?relay SYMBOL "?relay", macRxHardDisable
macRxOffRequest     SYMBOL "macRxOffRequest"
??macRxOffRequest?relay SYMBOL "?relay", macRxOffRequest
macTxAckNotReceivedCallback SYMBOL "macTxAckNotReceivedCallback"
??macTxAckNotReceivedCallback?relay SYMBOL "?relay", macTxAckNotReceivedCallback
macTxAckReceivedCallback SYMBOL "macTxAckReceivedCallback"
??macTxAckReceivedCallback?relay SYMBOL "?relay", macTxAckReceivedCallback
macTxStartQueuedFrame SYMBOL "macTxStartQueuedFrame"
??macTxStartQueuedFrame?relay SYMBOL "?relay", macTxStartQueuedFrame
sAddrExtCpy         SYMBOL "sAddrExtCpy"
??sAddrExtCpy?relay SYMBOL "?relay", sAddrExtCpy
macRxAckTxDoneCallback SYMBOL "macRxAckTxDoneCallback"
??macRxAckTxDoneCallback?relay SYMBOL "?relay", macRxAckTxDoneCallback
macRxFifoOverflowIsr SYMBOL "macRxFifoOverflowIsr"
??macRxFifoOverflowIsr?relay SYMBOL "?relay", macRxFifoOverflowIsr
macRxHaltCleanup    SYMBOL "macRxHaltCleanup"
??macRxHaltCleanup?relay SYMBOL "?relay", macRxHaltCleanup
macRxInit           SYMBOL "macRxInit"
??macRxInit?relay   SYMBOL "?relay", macRxInit
macRxPromiscuousMode SYMBOL "macRxPromiscuousMode"
??macRxPromiscuousMode?relay SYMBOL "?relay", macRxPromiscuousMode
macRxRadioPowerUpInit SYMBOL "macRxRadioPowerUpInit"
??macRxRadioPowerUpInit?relay SYMBOL "?relay", macRxRadioPowerUpInit
macRxThresholdIsr   SYMBOL "macRxThresholdIsr"
??macRxThresholdIsr?relay SYMBOL "?relay", macRxThresholdIsr
macRxTxReset        SYMBOL "macRxTxReset"
??macRxTxReset?relay SYMBOL "?relay", macRxTxReset

        EXTERN ??MAC_SrcMatchCheckAllPending?relay
        FUNCTION ??MAC_SrcMatchCheckAllPending?relay,00H
        EXTERN ??MAC_SrcMatchCheckResult?relay
        FUNCTION ??MAC_SrcMatchCheckResult?relay,00H
        EXTERN ??halAssertHandler?relay
        FUNCTION ??halAssertHandler?relay,00H
        EXTERN ??macCspForceTxDoneIfPending?relay
        FUNCTION ??macCspForceTxDoneIfPending?relay,00H
        EXTERN ??macDataRxMemAlloc?relay
        FUNCTION ??macDataRxMemAlloc?relay,00H
        EXTERN ??macDataRxMemFree?relay
        FUNCTION ??macDataRxMemFree?relay,00H
        EXTERN ??macMcuOverflowCapture?relay
        FUNCTION ??macMcuOverflowCapture?relay,00H
        EXTERN ??macMcuTimerCapture?relay
        FUNCTION ??macMcuTimerCapture?relay,00H
        EXTERN ??macMemReadRxFifo?relay
        FUNCTION ??macMemReadRxFifo?relay,00H
        EXTERN ??macRadioComputeLQI?relay
        FUNCTION ??macRadioComputeLQI?relay,00H
        EXTERN ??macRadioUpdateTxPower?relay
        FUNCTION ??macRadioUpdateTxPower?relay,00H
        EXTERN ??macRxCheckMACPendingCallback?relay
        FUNCTION ??macRxCheckMACPendingCallback?relay,00H
        EXTERN ??macRxCheckPendingCallback?relay
        FUNCTION ??macRxCheckPendingCallback?relay,00H
        EXTERN ??macRxCompleteCallback?relay
        FUNCTION ??macRxCompleteCallback?relay,00H
        EXTERN ??macRxHardDisable?relay
        FUNCTION ??macRxHardDisable?relay,00H
        EXTERN ??macRxOffRequest?relay
        FUNCTION ??macRxOffRequest?relay,00H
        EXTERN ??macTxAckNotReceivedCallback?relay
        FUNCTION ??macTxAckNotReceivedCallback?relay,00H
        EXTERN ??macTxAckReceivedCallback?relay
        FUNCTION ??macTxAckReceivedCallback?relay,00H
        EXTERN ??macTxStartQueuedFrame?relay
        FUNCTION ??macTxStartQueuedFrame?relay,00H
        EXTERN ??sAddrExtCpy?relay
        FUNCTION ??sAddrExtCpy?relay,00H
        EXTERN MAC_SrcMatchCheckAllPending
        FUNCTION MAC_SrcMatchCheckAllPending,0202H
        ARGFRAME ISTACK, 0, STACK
        ARGFRAME PSTACK, 0, STACK
        ARGFRAME XSTACK, 17, STACK
        ARGFRAME IOVERLAY, 0, STATIC
        ARGFRAME DOVERLAY, 0, STATIC
        EXTERN MAC_SrcMatchCheckResult
        FUNCTION MAC_SrcMatchCheckResult,0202H
        ARGFRAME ISTACK, 0, STACK
        ARGFRAME PSTACK, 0, STACK
        ARGFRAME XSTACK, 10, STACK
        ARGFRAME IOVERLAY, 0, STATIC
        ARGFRAME DOVERLAY, 0, STATIC
        EXTERN halAssertHandler
        FUNCTION halAssertHandler,0202H
        ARGFRAME ISTACK, 2, STACK
        ARGFRAME PSTACK, 0, STACK
        ARGFRAME XSTACK, 29, STACK
        ARGFRAME IOVERLAY, 0, STATIC
        ARGFRAME DOVERLAY, 0, STATIC
        EXTERN macChipVersion
        EXTERN macCspForceTxDoneIfPending
        FUNCTION macCspForceTxDoneIfPending,0202H
        ARGFRAME ISTACK, 0, STACK
        ARGFRAME PSTACK, 0, STACK
        ARGFRAME XSTACK, 17, STACK
        ARGFRAME IOVERLAY, 0, STATIC
        ARGFRAME DOVERLAY, 0, STATIC
        EXTERN macDataRxMemAlloc
        FUNCTION macDataRxMemAlloc,0202H
        ARGFRAME ISTACK, 0, STACK
        ARGFRAME PSTACK, 0, STACK
        ARGFRAME XSTACK, 17, STACK
        ARGFRAME IOVERLAY, 0, STATIC
        ARGFRAME DOVERLAY, 0, STATIC
        EXTERN macDataRxMemFree
        FUNCTION macDataRxMemFree,0202H
        ARGFRAME ISTACK, 2, STACK
        ARGFRAME PSTACK, 0, STACK
        ARGFRAME XSTACK, 10, STACK
        ARGFRAME IOVERLAY, 0, STATIC
        ARGFRAME DOVERLAY, 0, STATIC
        EXTERN macMcuOverflowCapture
        FUNCTION macMcuOverflowCapture,0202H
        ARGFRAME ISTACK, 0, STACK
        ARGFRAME PSTACK, 0, STACK
        ARGFRAME XSTACK, 17, STACK
        ARGFRAME IOVERLAY, 0, STATIC
        ARGFRAME DOVERLAY, 0, STATIC
        EXTERN macMcuTimerCapture
        FUNCTION macMcuTimerCapture,0202H
        ARGFRAME ISTACK, 0, STACK
        ARGFRAME PSTACK, 0, STACK
        ARGFRAME XSTACK, 17, STACK
        ARGFRAME IOVERLAY, 0, STATIC
        ARGFRAME DOVERLAY, 0, STATIC
        EXTERN macMemReadRxFifo
        FUNCTION macMemReadRxFifo,0202H
        ARGFRAME ISTACK, 2, STACK
        ARGFRAME PSTACK, 0, STACK
        ARGFRAME XSTACK, 29, STACK
        ARGFRAME IOVERLAY, 0, STATIC
        ARGFRAME DOVERLAY, 0, STATIC
        EXTERN macRadioComputeLQI
        FUNCTION macRadioComputeLQI,0202H
        ARGFRAME ISTACK, 0, STACK
        ARGFRAME PSTACK, 0, STACK
        ARGFRAME XSTACK, 17, STACK
        ARGFRAME IOVERLAY, 0, STATIC
        ARGFRAME DOVERLAY, 0, STATIC
        EXTERN macRadioUpdateTxPower
        FUNCTION macRadioUpdateTxPower,0202H
        ARGFRAME ISTACK, 2, STACK
        ARGFRAME PSTACK, 0, STACK
        ARGFRAME XSTACK, 0, STACK
        ARGFRAME IOVERLAY, 0, STATIC
        ARGFRAME DOVERLAY, 0, STATIC
        EXTERN macRxCheckMACPendingCallback
        FUNCTION macRxCheckMACPendingCallback,0202H
        ARGFRAME ISTACK, 0, STACK
        ARGFRAME PSTACK, 0, STACK
        ARGFRAME XSTACK, 17, STACK
        ARGFRAME IOVERLAY, 0, STATIC
        ARGFRAME DOVERLAY, 0, STATIC
        EXTERN macRxCheckPendingCallback
        FUNCTION macRxCheckPendingCallback,0202H
        ARGFRAME ISTACK, 0, STACK
        ARGFRAME PSTACK, 0, STACK
        ARGFRAME XSTACK, 17, STACK
        ARGFRAME IOVERLAY, 0, STATIC
        ARGFRAME DOVERLAY, 0, STATIC
        EXTERN macRxCompleteCallback
        FUNCTION macRxCompleteCallback,0202H
        ARGFRAME ISTACK, 0, STACK
        ARGFRAME PSTACK, 0, STACK
        ARGFRAME XSTACK, 10, STACK
        ARGFRAME IOVERLAY, 0, STATIC
        ARGFRAME DOVERLAY, 0, STATIC
        EXTERN macRxHardDisable
        FUNCTION macRxHardDisable,0202H
        ARGFRAME ISTACK, 2, STACK
        ARGFRAME PSTACK, 0, STACK
        ARGFRAME XSTACK, 0, STACK
        ARGFRAME IOVERLAY, 0, STATIC
        ARGFRAME DOVERLAY, 0, STATIC
        EXTERN macRxOffRequest
        FUNCTION macRxOffRequest,0202H
        ARGFRAME ISTACK, 2, STACK
        ARGFRAME PSTACK, 0, STACK
        ARGFRAME XSTACK, 10, STACK
        ARGFRAME IOVERLAY, 0, STATIC
        ARGFRAME DOVERLAY, 0, STATIC
        EXTERN macRxOnFlag
        EXTERN macSrcMatchIsEnabled
        EXTERN macTxAckNotReceivedCallback
        FUNCTION macTxAckNotReceivedCallback,0202H
        ARGFRAME ISTACK, 0, STACK
        ARGFRAME PSTACK, 0, STACK
        ARGFRAME XSTACK, 17, STACK
        ARGFRAME IOVERLAY, 0, STATIC
        ARGFRAME DOVERLAY, 0, STATIC
        EXTERN macTxAckReceivedCallback
        FUNCTION macTxAckReceivedCallback,0202H
        ARGFRAME ISTACK, 0, STACK
        ARGFRAME PSTACK, 0, STACK
        ARGFRAME XSTACK, 17, STACK
        ARGFRAME IOVERLAY, 0, STATIC
        ARGFRAME DOVERLAY, 0, STATIC
        EXTERN macTxActive
        EXTERN macTxStartQueuedFrame
        FUNCTION macTxStartQueuedFrame,0202H
        ARGFRAME ISTACK, 2, STACK
        ARGFRAME PSTACK, 0, STACK
        ARGFRAME XSTACK, 0, STACK
        ARGFRAME IOVERLAY, 0, STATIC
        ARGFRAME DOVERLAY, 0, STATIC
        EXTERN pMacDataTx
        EXTERN sAddrExtCpy
        FUNCTION sAddrExtCpy,0202H
        ARGFRAME ISTACK, 0, STACK
        ARGFRAME PSTACK, 0, STACK
        ARGFRAME XSTACK, 29, STACK
        ARGFRAME IOVERLAY, 0, STATIC
        ARGFRAME DOVERLAY, 0, STATIC

// C:\Users\ArnoldWorkStation\Desktop\ZigbeeTest\Components\mac\low_level\srf04\mac_rx.c
//    1 /**************************************************************************************************
//    2   Filename:       mac_rx.c
//    3   Revised:        $Date: 2007-10-08 14:05:36 -0700 (Mon, 08 Oct 2007) $
//    4   Revision:       $Revision: 15624 $
//    5 
//    6   Description:    Describe the purpose and contents of the file.
//    7 
//    8 
//    9   Copyright 2006-2009 Texas Instruments Incorporated. All rights reserved.
//   10 
//   11   IMPORTANT: Your use of this Software is limited to those specific rights
//   12   granted under the terms of a software license agreement between the user
//   13   who downloaded the software, his/her employer (which must be your employer)
//   14   and Texas Instruments Incorporated (the "License").  You may not use this
//   15   Software unless you agree to abide by the terms of the License. The License
//   16   limits your use, and you acknowledge, that the Software may not be modified,
//   17   copied or distributed unless embedded on a Texas Instruments microcontroller
//   18   or used solely and exclusively in conjunction with a Texas Instruments radio
//   19   frequency transceiver, which is integrated into your product.  Other than for
//   20   the foregoing purpose, you may not use, reproduce, copy, prepare derivative
//   21   works of, modify, distribute, perform, display or sell this Software and/or
//   22   its documentation for any purpose.
//   23 
//   24   YOU FURTHER ACKNOWLEDGE AND AGREE THAT THE SOFTWARE AND DOCUMENTATION ARE
//   25   PROVIDED “AS IS” WITHOUT WARRANTY OF ANY KIND, EITHER EXPRESS OR IMPLIED,
//   26   INCLUDING WITHOUT LIMITATION, ANY WARRANTY OF MERCHANTABILITY, TITLE,
//   27   NON-INFRINGEMENT AND FITNESS FOR A PARTICULAR PURPOSE. IN NO EVENT SHALL
//   28   TEXAS INSTRUMENTS OR ITS LICENSORS BE LIABLE OR OBLIGATED UNDER CONTRACT,
//   29   NEGLIGENCE, STRICT LIABILITY, CONTRIBUTION, BREACH OF WARRANTY, OR OTHER
//   30   LEGAL EQUITABLE THEORY ANY DIRECT OR INDIRECT DAMAGES OR EXPENSES
//   31   INCLUDING BUT NOT LIMITED TO ANY INCIDENTAL, SPECIAL, INDIRECT, PUNITIVE
//   32   OR CONSEQUENTIAL DAMAGES, LOST PROFITS OR LOST DATA, COST OF PROCUREMENT
//   33   OF SUBSTITUTE GOODS, TECHNOLOGY, SERVICES, OR ANY CLAIMS BY THIRD PARTIES
//   34   (INCLUDING BUT NOT LIMITED TO ANY DEFENSE THEREOF), OR OTHER SIMILAR COSTS.
//   35 
//   36   Should you have any questions regarding your right to use this Software,
//   37   contact Texas Instruments Incorporated at www.TI.com.
//   38 **************************************************************************************************/
//   39 
//   40 /* ------------------------------------------------------------------------------------------------
//   41  *                                          Includes
//   42  * ------------------------------------------------------------------------------------------------
//   43  */
//   44 
//   45 /* hal */
//   46 #include "hal_defs.h"
//   47 #include "hal_types.h"
//   48 
//   49 /* high-level */
//   50 #include "mac_high_level.h"
//   51 #include "mac_spec.h"
//   52 
//   53 /* exported low-level */
//   54 #include "mac_low_level.h"
//   55 
//   56 /* low-level specific */
//   57 #include "mac_rx.h"
//   58 #include "mac_tx.h"
//   59 #include "mac_rx_onoff.h"
//   60 #include "mac_radio.h"
//   61 
//   62 /* target specific */
//   63 #include "mac_radio_defs.h"

        ASEGN SFR_AN:DATA:NOROOT,091H
// unsigned char volatile __sfr RFIRQF1
RFIRQF1:
        DATA8
        DS 1

        ASEGN SFR_AN:DATA:NOROOT,09bH
// unsigned char volatile __sfr S1CON
S1CON:
        DATA8
        DS 1

        ASEGN SFR_AN:DATA:NOROOT,0a8H
// union <unnamed> volatile __sfr _A_IEN0
_A_IEN0:
        DATA8
        DS 1

        ASEGN SFR_AN:DATA:NOROOT,0e1H
// unsigned char volatile __sfr RFST
RFST:
        DATA8
        DS 1

        ASEGN SFR_AN:DATA:NOROOT,0e9H
// unsigned char volatile __sfr RFIRQF0
RFIRQF0:
        DATA8
        DS 1
//   64 #include "mac_autopend.h"
//   65 
//   66 /* debug */
//   67 #include "mac_assert.h"
//   68 
//   69 
//   70 /* ------------------------------------------------------------------------------------------------
//   71  *                                            Defines
//   72  * ------------------------------------------------------------------------------------------------
//   73  */
//   74 #define MAX_PAYLOAD_BYTES_READ_PER_INTERRUPT   16   /* adjustable to tune performance */
//   75 
//   76 /* receive FIFO bytes needed to start a valid receive (see function rxStartIsr for details) */
//   77 #define RX_THRESHOLD_START_LEN    (MAC_PHY_PHR_LEN        +  \ 
//   78                                    MAC_FCF_FIELD_LEN      +  \ 
//   79                                    MAC_SEQ_NUM_FIELD_LEN  +  \ 
//   80                                    MAC_FCS_FIELD_LEN)
//   81 
//   82 /* maximum size of addressing fields (note: command frame identifier processed as part of address) */
//   83 #define MAX_ADDR_FIELDS_LEN  ((MAC_EXT_ADDR_FIELD_LEN + MAC_PAN_ID_FIELD_LEN) * 2)
//   84 
//   85 /* addressing mode reserved value */
//   86 #define ADDR_MODE_RESERVERED  1
//   87 
//   88 /* length of command frame identifier */
//   89 #define CMD_FRAME_ID_LEN      1
//   90 
//   91 /* packet size mask is equal to the maximum value */
//   92 #define PHY_PACKET_SIZE_MASK  0x7F
//   93 
//   94 /* value for promiscuous off, must not conflict with other mode variants from separate include files */
//   95 #define PROMISCUOUS_MODE_OFF  0x00
//   96 
//   97 /* bit of proprietary FCS format that indicates if the CRC is OK */
//   98 #define PROPRIETARY_FCS_CRC_OK_BIT  0x80
//   99 
//  100 /* dummy length value for unused entry in lookup table */
//  101 #define DUMMY_LEN   0xBE
//  102 
//  103 /* value for rxThresholdIntState */
//  104 #define RX_THRESHOLD_INT_STATE_INACTIVE   0
//  105 #define RX_THRESHOLD_INT_STATE_ACTIVE     1
//  106 #define RX_THRESHOLD_INT_STATE_RESET      2
//  107 
//  108 
//  109 /* ------------------------------------------------------------------------------------------------
//  110  *                                             Macros
//  111  * ------------------------------------------------------------------------------------------------
//  112  */
//  113 #define MEM_ALLOC(x)   macDataRxMemAlloc(x)
//  114 #define MEM_FREE(x)    macDataRxMemFree((uint8 **)x)
//  115 
//  116 /*
//  117  *  Macro for encoding frame control information into internal flags format.
//  118  *  Parameter is pointer to the frame.  NOTE!  If either the internal frame
//  119  *  format *or* the specification changes, this macro will need to be modified.
//  120  */
//  121 #define INTERNAL_FCF_FLAGS(p)  ((((p)[1] >> 4) & 0x03) | ((p)[0] & 0x78))
//  122 
//  123 /*
//  124  *  The radio replaces the actual FCS with different information.  This proprietary FCS is
//  125  *  the same length as the original and includes:
//  126  *    1) the RSSI value
//  127  *    2) the average correlation value (used for LQI)
//  128  *    3) a CRC passed bit
//  129  *
//  130  *  These macros decode the proprietary FCS.  The macro parameter is a pointer to the two byte FCS.
//  131  */
//  132 #define PROPRIETARY_FCS_RSSI(p)                 ((int8)((p)[0]))
//  133 #define PROPRIETARY_FCS_CRC_OK(p)               ((p)[1] & PROPRIETARY_FCS_CRC_OK_BIT)
//  134 #define PROPRIETARY_FCS_CORRELATION_VALUE(p)    ((p)[1] & ~PROPRIETARY_FCS_CRC_OK_BIT)
//  135 
//  136 
//  137 /* ------------------------------------------------------------------------------------------------
//  138  *                                       Global Variables
//  139  * ------------------------------------------------------------------------------------------------
//  140  */

        RSEG XDATA_Z:XDATA:NOROOT(0)
        DATA8
//  141 uint8 macRxActive;
macRxActive:
        DS 1
        REQUIRE __INIT_XDATA_Z

        RSEG XDATA_Z:XDATA:NOROOT(0)
        DATA8
//  142 uint8 macRxFilter;
macRxFilter:
        DS 1
        REQUIRE __INIT_XDATA_Z

        RSEG XDATA_Z:XDATA:NOROOT(0)
        DATA8
//  143 uint8 macRxOutgoingAckFlag;
macRxOutgoingAckFlag:
        DS 1
        REQUIRE __INIT_XDATA_Z
//  144 
//  145 
//  146 /* ------------------------------------------------------------------------------------------------
//  147  *                                       Local Constants
//  148  * ------------------------------------------------------------------------------------------------
//  149  */

        RSEG CODE_C:CODE:REORDER:NOROOT(0)
        DATA32
//  150 static const uint8 CODE macRxAddrLen[] =
macRxAddrLen:
        DATA8
        DB 0
        DB 190
        DB 4
        DB 10
//  151 {
//  152   0,                                                /* no address */
//  153   DUMMY_LEN,                                        /* reserved */
//  154   MAC_PAN_ID_FIELD_LEN + MAC_SHORT_ADDR_FIELD_LEN,  /* short address + pan id */
//  155   MAC_PAN_ID_FIELD_LEN + MAC_EXT_ADDR_FIELD_LEN     /* extended address + pan id */
//  156 };
//  157 
//  158 
//  159 /* ------------------------------------------------------------------------------------------------
//  160  *                                       Local Prototypes
//  161  * ------------------------------------------------------------------------------------------------
//  162  */
//  163 static void rxHaltCleanupFinalStep(void);
//  164 
//  165 static void rxStartIsr(void);
//  166 static void rxAddrIsr(void);
//  167 static void rxPayloadIsr(void);
//  168 static void rxDiscardIsr(void);
//  169 static void rxFcsIsr(void);
//  170 
//  171 static void rxPrepPayload(void);
//  172 static void rxDiscardFrame(void);
//  173 static void rxDone(void);
//  174 static void rxPostRxUpdates(void);
//  175 
//  176 
//  177 /* ------------------------------------------------------------------------------------------------
//  178  *                                         Local Variables
//  179  * ------------------------------------------------------------------------------------------------
//  180  */

        RSEG XDATA_Z:XDATA:NOROOT(0)
        DATA16
//  181 static void    (* pFuncRxState)(void);
pFuncRxState:
        DS 2
        REQUIRE __INIT_XDATA_Z

        RSEG XDATA_Z:XDATA:NOROOT(0)
        DATA16
//  182 static macRx_t  * pRxBuf;
pRxBuf:
        DS 2
        REQUIRE __INIT_XDATA_Z
//  183 

        RSEG XDATA_Z:XDATA:NOROOT(0)
        DATA32
//  184 static uint8  rxBuf[MAC_PHY_PHR_LEN + MAC_FCF_FIELD_LEN + MAC_SEQ_NUM_FIELD_LEN];
rxBuf:
        DS 4
        REQUIRE __INIT_XDATA_Z

        RSEG XDATA_Z:XDATA:NOROOT(0)
        DATA8
//  185 static uint8  rxUnreadLen;
rxUnreadLen:
        DS 1
        REQUIRE __INIT_XDATA_Z

        RSEG XDATA_Z:XDATA:NOROOT(0)
        DATA8
//  186 static uint8  rxNextLen;
rxNextLen:
        DS 1
        REQUIRE __INIT_XDATA_Z

        RSEG XDATA_Z:XDATA:NOROOT(0)
        DATA8
//  187 static uint8  rxPayloadLen;
rxPayloadLen:
        DS 1
        REQUIRE __INIT_XDATA_Z

        RSEG XDATA_Z:XDATA:NOROOT(0)
        DATA8
//  188 static uint8  rxFilter;
rxFilter:
        DS 1
        REQUIRE __INIT_XDATA_Z

        RSEG XDATA_Z:XDATA:NOROOT(0)
        DATA8
//  189 static uint8  rxPromiscuousMode;
rxPromiscuousMode:
        DS 1
        REQUIRE __INIT_XDATA_Z

        RSEG XDATA_Z:XDATA:NOROOT(0)
        DATA8
//  190 static uint8  rxIsrActiveFlag;
rxIsrActiveFlag:
        DS 1
        REQUIRE __INIT_XDATA_Z

        RSEG XDATA_Z:XDATA:NOROOT(0)
        DATA8
//  191 static uint8  rxResetFlag;
rxResetFlag:
        DS 1
        REQUIRE __INIT_XDATA_Z

        RSEG XDATA_Z:XDATA:NOROOT(0)
        DATA8
//  192 static uint8  rxFifoOverflowCount;
rxFifoOverflowCount:
        DS 1
        REQUIRE __INIT_XDATA_Z
//  193 
//  194 
//  195 /**************************************************************************************************
//  196  * @fn          macRxInit
//  197  *
//  198  * @brief       Initialize receive variable states.
//  199  *
//  200  * @param       none
//  201  *
//  202  * @return      none
//  203  **************************************************************************************************
//  204  */

        RSEG BANKED_CODE:CODE:NOROOT(0)
//  205 MAC_INTERNAL_API void macRxInit(void)
macRxInit:
          CFI Block cfiBlock0 Using cfiCommon0
          CFI Function macRxInit
        CODE
//  206 {
        PUSH    DPL
          CFI DPL0 Frame(CFA_SP, 4)
          CFI CFA_SP SP+-4
        PUSH    DPH
          CFI DPH0 Frame(CFA_SP, 5)
          CFI CFA_SP SP+-5
        ; Saved register size: 2
        ; Auto size: 0
//  207   macRxFilter          = RX_FILTER_OFF;
        MOV     DPTR,#macRxFilter
        CLR     A
        MOVX    @DPTR,A
//  208   rxPromiscuousMode    = PROMISCUOUS_MODE_OFF;
        MOV     DPTR,#rxPromiscuousMode
        MOVX    @DPTR,A
//  209   pRxBuf               = NULL; /* required for macRxReset() to function correctly */
        MOV     DPTR,#pRxBuf
        MOVX    @DPTR,A
        INC     DPTR
        MOVX    @DPTR,A
//  210   macRxActive          = MAC_RX_ACTIVE_NO_ACTIVITY;
        MOV     DPTR,#macRxActive
        LCALL   ??Subroutine27_0 & 0xFFFF
//  211   pFuncRxState         = &rxStartIsr;
//  212   macRxOutgoingAckFlag = 0;
??CrossCallReturnLabel_59:
        MOV     DPTR,#macRxOutgoingAckFlag
        CLR     A
        MOVX    @DPTR,A
//  213   rxIsrActiveFlag      = 0;
        MOV     DPTR,#rxIsrActiveFlag
        MOVX    @DPTR,A
//  214   rxResetFlag          = 0;
        MOV     DPTR,#rxResetFlag
        MOVX    @DPTR,A
//  215   rxFifoOverflowCount  = 0;
        MOV     DPTR,#rxFifoOverflowCount
        LJMP    ?Subroutine0 & 0xFFFF
          CFI EndBlock cfiBlock0
//  216 }
//  217 
//  218 
//  219 /**************************************************************************************************
//  220  * @fn          macRxRadioPowerUpInit
//  221  *
//  222  * @brief       Initialization for after radio first powers up.
//  223  *
//  224  * @param       none
//  225  *
//  226  * @return      none
//  227  **************************************************************************************************
//  228  */

        RSEG BANKED_CODE:CODE:NOROOT(0)
//  229 MAC_INTERNAL_API void macRxRadioPowerUpInit(void)
macRxRadioPowerUpInit:
          CFI Block cfiBlock1 Using cfiCommon0
          CFI Function macRxRadioPowerUpInit
        CODE
//  230 {
        PUSH    DPL
          CFI DPL0 Frame(CFA_SP, 4)
          CFI CFA_SP SP+-4
        PUSH    DPH
          CFI DPH0 Frame(CFA_SP, 5)
          CFI CFA_SP SP+-5
        ; Saved register size: 2
        ; Auto size: 0
//  231   /* set threshold at initial value */
//  232   MAC_RADIO_SET_RX_THRESHOLD(RX_THRESHOLD_START_LEN);
        MOV     DPTR,#0x6194
        MOV     A,#0x5
        LCALL   ?Subroutine6 & 0xFFFF
//  233 
//  234   /* clear any accidental threshold interrupt that happened as part of power up sequence */
//  235   MAC_RADIO_CLEAR_RX_THRESHOLD_INTERRUPT_FLAG();
??CrossCallReturnLabel_7:
        MOV     0xe9,#-0x5
        MOV     C,0xE0 /* A   */.7
        MOV     C,0xE0 /* A   */.7
        MOV     0xa8.7,C
//  236 
//  237   /* enable threshold interrupts */
//  238   MAC_RADIO_ENABLE_RX_THRESHOLD_INTERRUPT();
        MOV     DPTR,#0x61a3
        MOVX    A,@DPTR
        SETB    0xE0 /* A   */.2
        LJMP    ?Subroutine0 & 0xFFFF
          CFI EndBlock cfiBlock1
        REQUIRE _A_IEN0
        REQUIRE S1CON
        REQUIRE RFIRQF0
//  239 }
//  240 
//  241 
//  242 /**************************************************************************************************
//  243  * @fn          macRxTxReset
//  244  *
//  245  * @brief       Reset the receive state.
//  246  *
//  247  * @param       none
//  248  *
//  249  * @return      none
//  250  **************************************************************************************************
//  251  */

        RSEG BANKED_CODE:CODE:NOROOT(0)
//  252 MAC_INTERNAL_API void macRxTxReset(void)
macRxTxReset:
          CFI Block cfiBlock2 Using cfiCommon0
          CFI Function macRxTxReset
        CODE
//  253 {
        FUNCALL macRxTxReset, macRxHardDisable
        LOCFRAME ISTACK, 2, STACK
        LOCFRAME PSTACK, 0, STACK
        LOCFRAME XSTACK, 0, STACK
        LOCFRAME IOVERLAY, 0, STATIC
        LOCFRAME DOVERLAY, 0, STATIC
        ARGFRAME ISTACK, 2, STACK
        ARGFRAME PSTACK, 0, STACK
        ARGFRAME XSTACK, 0, STACK
        ARGFRAME IOVERLAY, 0, STATIC
        ARGFRAME DOVERLAY, 0, STATIC
        FUNCALL macRxTxReset, macRxPromiscuousMode
        LOCFRAME ISTACK, 2, STACK
        LOCFRAME PSTACK, 0, STACK
        LOCFRAME XSTACK, 0, STACK
        LOCFRAME IOVERLAY, 0, STATIC
        LOCFRAME DOVERLAY, 0, STATIC
        ARGFRAME ISTACK, 2, STACK
        ARGFRAME PSTACK, 0, STACK
        ARGFRAME XSTACK, 0, STACK
        ARGFRAME IOVERLAY, 0, STATIC
        ARGFRAME DOVERLAY, 0, STATIC
        PUSH    DPL
          CFI DPL0 Frame(CFA_SP, 4)
          CFI CFA_SP SP+-4
        PUSH    DPH
          CFI DPH0 Frame(CFA_SP, 5)
          CFI CFA_SP SP+-5
        ; Saved register size: 2
        ; Auto size: 0
//  254   /* forces receiver off, cleans up by calling macRxHaltCleanup() and macTxHaltCleanup() */
//  255   macRxHardDisable();
        ; Setup parameters for call to function macRxHardDisable
        LCALL   ??macRxHardDisable?relay
//  256 
//  257   /*
//  258    *   Note : transmit does not require any reset logic
//  259    *          beyond what macRxHardDisable() provides.
//  260    */
//  261 
//  262   /* restore deault filter mode to off */
//  263   macRxFilter = RX_FILTER_OFF;
        MOV     DPTR,#macRxFilter
        CLR     A
        MOVX    @DPTR,A
//  264 
//  265   /* return promiscuous mode to default off state */
//  266   macRxPromiscuousMode(MAC_PROMISCUOUS_MODE_OFF);
        ; Setup parameters for call to function macRxPromiscuousMode
        MOV     R1,A
        LCALL   ??macRxPromiscuousMode?relay
//  267 }
        LJMP    ??Subroutine24_0 & 0xFFFF
          CFI EndBlock cfiBlock2
//  268 
//  269 
//  270 /**************************************************************************************************
//  271  * @fn          macRxHaltCleanup
//  272  *
//  273  * @brief       Cleanup up the receive logic after receiver is forced off.
//  274  *
//  275  * @param       none
//  276  *
//  277  * @return      none
//  278  **************************************************************************************************
//  279  */

        RSEG BANKED_CODE:CODE:NOROOT(0)
//  280 MAC_INTERNAL_API void macRxHaltCleanup(void)
macRxHaltCleanup:
          CFI Block cfiBlock3 Using cfiCommon0
          CFI Function macRxHaltCleanup
        CODE
//  281 {
        FUNCALL macRxHaltCleanup, rxHaltCleanupFinalStep
        LOCFRAME ISTACK, 2, STACK
        LOCFRAME PSTACK, 0, STACK
        LOCFRAME XSTACK, 0, STACK
        LOCFRAME IOVERLAY, 0, STATIC
        LOCFRAME DOVERLAY, 0, STATIC
        ARGFRAME ISTACK, 2, STACK
        ARGFRAME PSTACK, 0, STACK
        ARGFRAME XSTACK, 0, STACK
        ARGFRAME IOVERLAY, 0, STATIC
        ARGFRAME DOVERLAY, 0, STATIC
        PUSH    DPL
          CFI DPL0 Frame(CFA_SP, 4)
          CFI CFA_SP SP+-4
        PUSH    DPH
          CFI DPH0 Frame(CFA_SP, 5)
          CFI CFA_SP SP+-5
        ; Saved register size: 2
        ; Auto size: 0
//  282   rxResetFlag = 1;
        MOV     DPTR,#rxResetFlag
        MOV     A,#0x1
        MOVX    @DPTR,A
//  283   if (!rxIsrActiveFlag)
        MOV     DPTR,#rxIsrActiveFlag
        MOVX    A,@DPTR
        JNZ     ??macRxHaltCleanup_0
//  284   {
//  285     rxHaltCleanupFinalStep();
        ; Setup parameters for call to function rxHaltCleanupFinalStep
        LCALL   ??rxHaltCleanupFinalStep?relay
//  286     rxResetFlag = 0;
        MOV     DPTR,#rxResetFlag
        CLR     A
        MOVX    @DPTR,A
//  287   }
//  288 }
??macRxHaltCleanup_0:
        LJMP    ??Subroutine24_0 & 0xFFFF
          CFI EndBlock cfiBlock3
//  289 
//  290 
//  291 /*=================================================================================================
//  292  * @fn          rxHaltCleanupFinalStep
//  293  *
//  294  * @brief       Required cleanup if receiver is halted in the middle of a receive.
//  295  *
//  296  * @param       none
//  297  *
//  298  * @return      none
//  299  *=================================================================================================
//  300  */

        RSEG BANKED_CODE:CODE:NOROOT(0)
//  301 static void rxHaltCleanupFinalStep(void)
rxHaltCleanupFinalStep:
          CFI Block cfiBlock4 Using cfiCommon0
          CFI Function rxHaltCleanupFinalStep
        CODE
//  302 {
        FUNCALL rxHaltCleanupFinalStep, macDataRxMemFree
        LOCFRAME ISTACK, 2, STACK
        LOCFRAME PSTACK, 0, STACK
        LOCFRAME XSTACK, 0, STACK
        LOCFRAME IOVERLAY, 0, STATIC
        LOCFRAME DOVERLAY, 0, STATIC
        ARGFRAME ISTACK, 2, STACK
        ARGFRAME PSTACK, 0, STACK
        ARGFRAME XSTACK, 0, STACK
        ARGFRAME IOVERLAY, 0, STATIC
        ARGFRAME DOVERLAY, 0, STATIC
        FUNCALL rxHaltCleanupFinalStep, rxPostRxUpdates
        LOCFRAME ISTACK, 2, STACK
        LOCFRAME PSTACK, 0, STACK
        LOCFRAME XSTACK, 0, STACK
        LOCFRAME IOVERLAY, 0, STATIC
        LOCFRAME DOVERLAY, 0, STATIC
        ARGFRAME ISTACK, 2, STACK
        ARGFRAME PSTACK, 0, STACK
        ARGFRAME XSTACK, 0, STACK
        ARGFRAME IOVERLAY, 0, STATIC
        ARGFRAME DOVERLAY, 0, STATIC
        PUSH    DPL
          CFI DPL0 Frame(CFA_SP, 4)
          CFI CFA_SP SP+-4
        PUSH    DPH
          CFI DPH0 Frame(CFA_SP, 5)
          CFI CFA_SP SP+-5
        ; Saved register size: 2
        ; Auto size: 0
//  303   /* cancel any upcoming ACK transmit complete callback */
//  304   MAC_RADIO_CANCEL_ACK_TX_DONE_CALLBACK();
        MOV     DPTR,#0x61a4
        MOVX    A,@DPTR
        CLR     0xE0 /* A   */.0
        MOVX    @DPTR,A
//  305 
//  306   /* set start of frame threshold */
//  307   MAC_RADIO_SET_RX_THRESHOLD(RX_THRESHOLD_START_LEN);
        MOV     DPTR,#0x6194
        MOV     A,#0x5
        MOVX    @DPTR,A
//  308 
//  309   /* flush the receive FIFO */
//  310   MAC_RADIO_FLUSH_RX_FIFO();
        MOV     0xe1,#-0x13
        MOV     0xe1,#-0x13
//  311 
//  312   /* clear any receive interrupt that happened to squeak through */
//  313   MAC_RADIO_CLEAR_RX_THRESHOLD_INTERRUPT_FLAG();
        MOV     A,0xa8
        CLR     0xa8.7
        MOV     0x9b,#0x0
        MOV     0xe9,#-0x5
        MOV     C,0xE0 /* A   */.7
        MOV     C,0xE0 /* A   */.7
        MOV     0xa8.7,C
//  314 
//  315   /* if data buffer has been allocated, free it */
//  316   if (pRxBuf != NULL)
        MOV     DPTR,#pRxBuf
        MOVX    A,@DPTR
        MOV     R0,A
        INC     DPTR
        MOVX    A,@DPTR
        MOV     R1,A
        MOV     A,R0
        ORL     A,R1
        JZ      ??rxHaltCleanupFinalStep_0
//  317   {
//  318     MEM_FREE((uint8 **)&pRxBuf);
        ; Setup parameters for call to function macDataRxMemFree
        MOV     R2,#pRxBuf & 0xff
        MOV     R3,#(pRxBuf >> 8) & 0xff
        LCALL   ??macDataRxMemFree?relay
//  319   }
//  320   pRxBuf = NULL; /* needed to indicate buffer is no longer allocated */
??rxHaltCleanupFinalStep_0:
        MOV     DPTR,#pRxBuf
        CLR     A
        MOVX    @DPTR,A
        INC     DPTR
        LCALL   ??Subroutine27_0 & 0xFFFF
//  321 
//  322   pFuncRxState = &rxStartIsr;
//  323 
//  324   /* if receive was active, perform the post receive updates */
//  325   if (macRxActive || macRxOutgoingAckFlag)
??CrossCallReturnLabel_60:
        MOV     DPTR,#macRxActive
        MOVX    A,@DPTR
        JNZ     ??rxHaltCleanupFinalStep_1
        MOV     DPTR,#macRxOutgoingAckFlag
        MOVX    A,@DPTR
        JZ      ??rxHaltCleanupFinalStep_2
//  326   {
//  327     macRxActive = MAC_RX_ACTIVE_NO_ACTIVITY;
??rxHaltCleanupFinalStep_1:
        MOV     DPTR,#macRxActive
        CLR     A
        MOVX    @DPTR,A
//  328     macRxOutgoingAckFlag = 0;
        MOV     DPTR,#macRxOutgoingAckFlag
        MOVX    @DPTR,A
//  329 
//  330     rxPostRxUpdates();
        ; Setup parameters for call to function rxPostRxUpdates
        LCALL   ??rxPostRxUpdates?relay
//  331   }
//  332 }
??rxHaltCleanupFinalStep_2:
        LJMP    ??Subroutine24_0 & 0xFFFF
          CFI EndBlock cfiBlock4
        REQUIRE RFST
        REQUIRE _A_IEN0
        REQUIRE S1CON
        REQUIRE RFIRQF0
//  333 
//  334 
//  335 /**************************************************************************************************
//  336  * @fn          macRxThresholdIsr
//  337  *
//  338  * @brief       Interrupt service routine called when bytes in FIFO reach threshold value.
//  339  *              It implements a state machine for receiving a packet.
//  340  *
//  341  * @param       none
//  342  *
//  343  * @return      none
//  344  **************************************************************************************************
//  345  */

        RSEG BANKED_CODE:CODE:NOROOT(0)
//  346 MAC_INTERNAL_API void macRxThresholdIsr(void)
macRxThresholdIsr:
          CFI Block cfiBlock5 Using cfiCommon0
          CFI Function macRxThresholdIsr
        CODE
//  347 {
        FUNCALL macRxThresholdIsr, rxHaltCleanupFinalStep
        LOCFRAME ISTACK, 2, STACK
        LOCFRAME PSTACK, 0, STACK
        LOCFRAME XSTACK, 0, STACK
        LOCFRAME IOVERLAY, 0, STATIC
        LOCFRAME DOVERLAY, 0, STATIC
        ARGFRAME ISTACK, 2, STACK
        ARGFRAME PSTACK, 0, STACK
        ARGFRAME XSTACK, 0, STACK
        ARGFRAME IOVERLAY, 0, STATIC
        ARGFRAME DOVERLAY, 0, STATIC
        PUSH    DPL
          CFI DPL0 Frame(CFA_SP, 4)
          CFI CFA_SP SP+-4
        PUSH    DPH
          CFI DPH0 Frame(CFA_SP, 5)
          CFI CFA_SP SP+-5
        ; Saved register size: 2
        ; Auto size: 0
//  348   /* if currently reseting, do not execute receive ISR logic */
//  349   if (rxResetFlag)
        MOV     DPTR,#rxResetFlag
        MOVX    A,@DPTR
        JNZ     ??macRxThresholdIsr_0
//  350   {
//  351     return;
//  352   }
//  353 
//  354   /*
//  355    *  Call the function that handles the current receive state.
//  356    *  A flag is set for the duration of the call to indicate
//  357    *  the ISR is executing.  This is necessary for the reset
//  358    *  logic so it does not perform a reset in the middle of
//  359    *  executing the ISR.
//  360    */
//  361   rxIsrActiveFlag = 1;
        MOV     DPTR,#rxIsrActiveFlag
        MOV     A,#0x1
        MOVX    @DPTR,A
//  362   (*pFuncRxState)();
        ; Setup parameters for indirect call
        MOV     DPTR,#pFuncRxState
        LCALL   ?Subroutine20 & 0xFFFF
??CrossCallReturnLabel_27:
        LCALL   ?CALL_IND
//  363   rxIsrActiveFlag = 0;
        MOV     DPTR,#rxIsrActiveFlag
        CLR     A
        MOVX    @DPTR,A
//  364 
//  365   /* if a reset occurred during the ISR, peform cleanup here */
//  366   if (rxResetFlag)
        MOV     DPTR,#rxResetFlag
        MOVX    A,@DPTR
        JZ      ??macRxThresholdIsr_0
//  367   {
//  368     rxHaltCleanupFinalStep();
        ; Setup parameters for call to function rxHaltCleanupFinalStep
        LCALL   ??rxHaltCleanupFinalStep?relay
//  369     rxResetFlag = 0;
        MOV     DPTR,#rxResetFlag
        CLR     A
        MOVX    @DPTR,A
//  370   }
??macRxThresholdIsr_0:
        LJMP    ??Subroutine24_0 & 0xFFFF
          CFI EndBlock cfiBlock5
//  371 }
//  372 
//  373 
//  374 /*=================================================================================================
//  375  * @fn          rxStartIsr
//  376  *
//  377  * @brief       First ISR state for receiving a packet - compute packet length, allocate
//  378  *              buffer, initialize buffer.  Acknowledgements are handled immediately without
//  379  *              allocating a buffer.
//  380  *
//  381  * @param       none
//  382  *
//  383  * @return      none
//  384  *=================================================================================================
//  385  */

        RSEG BANKED_CODE:CODE:NOROOT(0)
//  386 static void rxStartIsr(void)
rxStartIsr:
          CFI Block cfiBlock6 Using cfiCommon0
          CFI Function rxStartIsr
        CODE
//  387 {
        FUNCALL rxStartIsr, halAssertHandler
        LOCFRAME ISTACK, 0, STACK
        LOCFRAME PSTACK, 0, STACK
        LOCFRAME XSTACK, 17, STACK
        LOCFRAME IOVERLAY, 0, STATIC
        LOCFRAME DOVERLAY, 0, STATIC
        ARGFRAME ISTACK, 0, STACK
        ARGFRAME PSTACK, 0, STACK
        ARGFRAME XSTACK, 17, STACK
        ARGFRAME IOVERLAY, 0, STATIC
        ARGFRAME DOVERLAY, 0, STATIC
        FUNCALL rxStartIsr, rxPostRxUpdates
        LOCFRAME ISTACK, 0, STACK
        LOCFRAME PSTACK, 0, STACK
        LOCFRAME XSTACK, 17, STACK
        LOCFRAME IOVERLAY, 0, STATIC
        LOCFRAME DOVERLAY, 0, STATIC
        ARGFRAME ISTACK, 0, STACK
        ARGFRAME PSTACK, 0, STACK
        ARGFRAME XSTACK, 17, STACK
        ARGFRAME IOVERLAY, 0, STATIC
        ARGFRAME DOVERLAY, 0, STATIC
        FUNCALL rxStartIsr, macCspForceTxDoneIfPending
        LOCFRAME ISTACK, 0, STACK
        LOCFRAME PSTACK, 0, STACK
        LOCFRAME XSTACK, 17, STACK
        LOCFRAME IOVERLAY, 0, STATIC
        LOCFRAME DOVERLAY, 0, STATIC
        ARGFRAME ISTACK, 0, STACK
        ARGFRAME PSTACK, 0, STACK
        ARGFRAME XSTACK, 17, STACK
        ARGFRAME IOVERLAY, 0, STATIC
        ARGFRAME DOVERLAY, 0, STATIC
        FUNCALL rxStartIsr, macMemReadRxFifo
        LOCFRAME ISTACK, 0, STACK
        LOCFRAME PSTACK, 0, STACK
        LOCFRAME XSTACK, 17, STACK
        LOCFRAME IOVERLAY, 0, STATIC
        LOCFRAME DOVERLAY, 0, STATIC
        ARGFRAME ISTACK, 0, STACK
        ARGFRAME PSTACK, 0, STACK
        ARGFRAME XSTACK, 17, STACK
        ARGFRAME IOVERLAY, 0, STATIC
        ARGFRAME DOVERLAY, 0, STATIC
        FUNCALL rxStartIsr, halAssertHandler
        LOCFRAME ISTACK, 0, STACK
        LOCFRAME PSTACK, 0, STACK
        LOCFRAME XSTACK, 17, STACK
        LOCFRAME IOVERLAY, 0, STATIC
        LOCFRAME DOVERLAY, 0, STATIC
        ARGFRAME ISTACK, 0, STACK
        ARGFRAME PSTACK, 0, STACK
        ARGFRAME XSTACK, 17, STACK
        ARGFRAME IOVERLAY, 0, STATIC
        ARGFRAME DOVERLAY, 0, STATIC
        FUNCALL rxStartIsr, macMemReadRxFifo
        LOCFRAME ISTACK, 0, STACK
        LOCFRAME PSTACK, 0, STACK
        LOCFRAME XSTACK, 17, STACK
        LOCFRAME IOVERLAY, 0, STATIC
        LOCFRAME DOVERLAY, 0, STATIC
        ARGFRAME ISTACK, 0, STACK
        ARGFRAME PSTACK, 0, STACK
        ARGFRAME XSTACK, 17, STACK
        ARGFRAME IOVERLAY, 0, STATIC
        ARGFRAME DOVERLAY, 0, STATIC
        FUNCALL rxStartIsr, halAssertHandler
        LOCFRAME ISTACK, 0, STACK
        LOCFRAME PSTACK, 0, STACK
        LOCFRAME XSTACK, 17, STACK
        LOCFRAME IOVERLAY, 0, STATIC
        LOCFRAME DOVERLAY, 0, STATIC
        ARGFRAME ISTACK, 0, STACK
        ARGFRAME PSTACK, 0, STACK
        ARGFRAME XSTACK, 17, STACK
        ARGFRAME IOVERLAY, 0, STATIC
        ARGFRAME DOVERLAY, 0, STATIC
        FUNCALL rxStartIsr, macRadioComputeLQI
        LOCFRAME ISTACK, 0, STACK
        LOCFRAME PSTACK, 0, STACK
        LOCFRAME XSTACK, 17, STACK
        LOCFRAME IOVERLAY, 0, STATIC
        LOCFRAME DOVERLAY, 0, STATIC
        ARGFRAME ISTACK, 0, STACK
        ARGFRAME PSTACK, 0, STACK
        ARGFRAME XSTACK, 17, STACK
        ARGFRAME IOVERLAY, 0, STATIC
        ARGFRAME DOVERLAY, 0, STATIC
        FUNCALL rxStartIsr, macTxAckReceivedCallback
        LOCFRAME ISTACK, 0, STACK
        LOCFRAME PSTACK, 0, STACK
        LOCFRAME XSTACK, 17, STACK
        LOCFRAME IOVERLAY, 0, STATIC
        LOCFRAME DOVERLAY, 0, STATIC
        ARGFRAME ISTACK, 0, STACK
        ARGFRAME PSTACK, 0, STACK
        ARGFRAME XSTACK, 17, STACK
        ARGFRAME IOVERLAY, 0, STATIC
        ARGFRAME DOVERLAY, 0, STATIC
        FUNCALL rxStartIsr, macTxAckNotReceivedCallback
        LOCFRAME ISTACK, 0, STACK
        LOCFRAME PSTACK, 0, STACK
        LOCFRAME XSTACK, 17, STACK
        LOCFRAME IOVERLAY, 0, STATIC
        LOCFRAME DOVERLAY, 0, STATIC
        ARGFRAME ISTACK, 0, STACK
        ARGFRAME PSTACK, 0, STACK
        ARGFRAME XSTACK, 17, STACK
        ARGFRAME IOVERLAY, 0, STATIC
        ARGFRAME DOVERLAY, 0, STATIC
        FUNCALL rxStartIsr, rxDone
        LOCFRAME ISTACK, 0, STACK
        LOCFRAME PSTACK, 0, STACK
        LOCFRAME XSTACK, 17, STACK
        LOCFRAME IOVERLAY, 0, STATIC
        LOCFRAME DOVERLAY, 0, STATIC
        ARGFRAME ISTACK, 0, STACK
        ARGFRAME PSTACK, 0, STACK
        ARGFRAME XSTACK, 17, STACK
        ARGFRAME IOVERLAY, 0, STATIC
        ARGFRAME DOVERLAY, 0, STATIC
        FUNCALL rxStartIsr, macTxAckNotReceivedCallback
        LOCFRAME ISTACK, 0, STACK
        LOCFRAME PSTACK, 0, STACK
        LOCFRAME XSTACK, 17, STACK
        LOCFRAME IOVERLAY, 0, STATIC
        LOCFRAME DOVERLAY, 0, STATIC
        ARGFRAME ISTACK, 0, STACK
        ARGFRAME PSTACK, 0, STACK
        ARGFRAME XSTACK, 17, STACK
        ARGFRAME IOVERLAY, 0, STATIC
        ARGFRAME DOVERLAY, 0, STATIC
        FUNCALL rxStartIsr, rxDone
        LOCFRAME ISTACK, 0, STACK
        LOCFRAME PSTACK, 0, STACK
        LOCFRAME XSTACK, 17, STACK
        LOCFRAME IOVERLAY, 0, STATIC
        LOCFRAME DOVERLAY, 0, STATIC
        ARGFRAME ISTACK, 0, STACK
        ARGFRAME PSTACK, 0, STACK
        ARGFRAME XSTACK, 17, STACK
        ARGFRAME IOVERLAY, 0, STATIC
        ARGFRAME DOVERLAY, 0, STATIC
        FUNCALL rxStartIsr, rxDiscardFrame
        LOCFRAME ISTACK, 0, STACK
        LOCFRAME PSTACK, 0, STACK
        LOCFRAME XSTACK, 17, STACK
        LOCFRAME IOVERLAY, 0, STATIC
        LOCFRAME DOVERLAY, 0, STATIC
        ARGFRAME ISTACK, 0, STACK
        ARGFRAME PSTACK, 0, STACK
        ARGFRAME XSTACK, 17, STACK
        ARGFRAME IOVERLAY, 0, STATIC
        ARGFRAME DOVERLAY, 0, STATIC
        FUNCALL rxStartIsr, macDataRxMemAlloc
        LOCFRAME ISTACK, 0, STACK
        LOCFRAME PSTACK, 0, STACK
        LOCFRAME XSTACK, 17, STACK
        LOCFRAME IOVERLAY, 0, STATIC
        LOCFRAME DOVERLAY, 0, STATIC
        ARGFRAME ISTACK, 0, STACK
        ARGFRAME PSTACK, 0, STACK
        ARGFRAME XSTACK, 17, STACK
        ARGFRAME IOVERLAY, 0, STATIC
        ARGFRAME DOVERLAY, 0, STATIC
        FUNCALL rxStartIsr, macRxCheckMACPendingCallback
        LOCFRAME ISTACK, 0, STACK
        LOCFRAME PSTACK, 0, STACK
        LOCFRAME XSTACK, 17, STACK
        LOCFRAME IOVERLAY, 0, STATIC
        LOCFRAME DOVERLAY, 0, STATIC
        ARGFRAME ISTACK, 0, STACK
        ARGFRAME PSTACK, 0, STACK
        ARGFRAME XSTACK, 17, STACK
        ARGFRAME IOVERLAY, 0, STATIC
        ARGFRAME DOVERLAY, 0, STATIC
        FUNCALL rxStartIsr, MAC_SrcMatchCheckAllPending
        LOCFRAME ISTACK, 0, STACK
        LOCFRAME PSTACK, 0, STACK
        LOCFRAME XSTACK, 17, STACK
        LOCFRAME IOVERLAY, 0, STATIC
        LOCFRAME DOVERLAY, 0, STATIC
        ARGFRAME ISTACK, 0, STACK
        ARGFRAME PSTACK, 0, STACK
        ARGFRAME XSTACK, 17, STACK
        ARGFRAME IOVERLAY, 0, STATIC
        ARGFRAME DOVERLAY, 0, STATIC
        FUNCALL rxStartIsr, macMcuOverflowCapture
        LOCFRAME ISTACK, 0, STACK
        LOCFRAME PSTACK, 0, STACK
        LOCFRAME XSTACK, 17, STACK
        LOCFRAME IOVERLAY, 0, STATIC
        LOCFRAME DOVERLAY, 0, STATIC
        ARGFRAME ISTACK, 0, STACK
        ARGFRAME PSTACK, 0, STACK
        ARGFRAME XSTACK, 17, STACK
        ARGFRAME IOVERLAY, 0, STATIC
        ARGFRAME DOVERLAY, 0, STATIC
        FUNCALL rxStartIsr, macMcuTimerCapture
        LOCFRAME ISTACK, 0, STACK
        LOCFRAME PSTACK, 0, STACK
        LOCFRAME XSTACK, 17, STACK
        LOCFRAME IOVERLAY, 0, STATIC
        LOCFRAME DOVERLAY, 0, STATIC
        ARGFRAME ISTACK, 0, STACK
        ARGFRAME PSTACK, 0, STACK
        ARGFRAME XSTACK, 17, STACK
        ARGFRAME IOVERLAY, 0, STATIC
        ARGFRAME DOVERLAY, 0, STATIC
        FUNCALL rxStartIsr, rxPrepPayload
        LOCFRAME ISTACK, 0, STACK
        LOCFRAME PSTACK, 0, STACK
        LOCFRAME XSTACK, 17, STACK
        LOCFRAME IOVERLAY, 0, STATIC
        LOCFRAME DOVERLAY, 0, STATIC
        ARGFRAME ISTACK, 0, STACK
        ARGFRAME PSTACK, 0, STACK
        ARGFRAME XSTACK, 17, STACK
        ARGFRAME IOVERLAY, 0, STATIC
        ARGFRAME DOVERLAY, 0, STATIC
        FUNCALL rxStartIsr, macRxCheckPendingCallback
        LOCFRAME ISTACK, 0, STACK
        LOCFRAME PSTACK, 0, STACK
        LOCFRAME XSTACK, 17, STACK
        LOCFRAME IOVERLAY, 0, STATIC
        LOCFRAME DOVERLAY, 0, STATIC
        ARGFRAME ISTACK, 0, STACK
        ARGFRAME PSTACK, 0, STACK
        ARGFRAME XSTACK, 17, STACK
        ARGFRAME IOVERLAY, 0, STATIC
        ARGFRAME DOVERLAY, 0, STATIC
        MOV     A,#-0xf
        LCALL   ?BANKED_ENTER_XDATA
          CFI DPH0 load(1, XDATA, add(CFA_XSP16, literal(-1)))
          CFI DPL0 load(1, XDATA, add(CFA_XSP16, literal(-2)))
          CFI ?BRET_EXT load(1, XDATA, add(CFA_XSP16, literal(-3)))
          CFI ?RET_HIGH load(1, XDATA, add(CFA_XSP16, literal(-4)))
          CFI ?RET_LOW load(1, XDATA, add(CFA_XSP16, literal(-5)))
          CFI R7 load(1, XDATA, add(CFA_XSP16, literal(-6)))
          CFI V6 load(1, XDATA, add(CFA_XSP16, literal(-7)))
          CFI V5 load(1, XDATA, add(CFA_XSP16, literal(-8)))
          CFI V4 load(1, XDATA, add(CFA_XSP16, literal(-9)))
          CFI V3 load(1, XDATA, add(CFA_XSP16, literal(-10)))
          CFI V2 load(1, XDATA, add(CFA_XSP16, literal(-11)))
          CFI V1 load(1, XDATA, add(CFA_XSP16, literal(-12)))
          CFI V0 load(1, XDATA, add(CFA_XSP16, literal(-13)))
          CFI VB load(1, XDATA, add(CFA_XSP16, literal(-14)))
          CFI R6 load(1, XDATA, add(CFA_XSP16, literal(-15)))
          CFI CFA_SP SP+0
          CFI CFA_XSP16 add(XSP16, 15)
        ; Saved register size: 15
        ; Auto size: 2
        MOV     A,#-0x2
        LCALL   ?ALLOC_XSTACK8
          CFI CFA_XSP16 add(XSP16, 17)
//  388   uint8  addrLen;
//  389   uint8  ackWithPending;
//  390   uint8  dstAddrMode;
//  391   uint8  srcAddrMode;
//  392 
//  393   MAC_ASSERT(!macRxActive); /* receive on top of receive */
        MOV     DPTR,#macRxActive
        MOVX    A,@DPTR
        JZ      ??rxStartIsr_0
        ; Setup parameters for call to function halAssertHandler
        LCALL   ??halAssertHandler?relay
//  394 
//  395   /* indicate rx is active */
//  396   macRxActive = MAC_RX_ACTIVE_STARTED;
??rxStartIsr_0:
        MOV     DPTR,#macRxActive
        MOV     A,#-0x7f
        MOVX    @DPTR,A
//  397 
//  398   /*
//  399    *  For bullet proof functionality, need to see if the receiver was just turned off.
//  400    *  The logic to request turning off the receiver, disables interrupts and then checks
//  401    *  the value of macRxActive.  If it is TRUE, the receiver will not be turned off.
//  402    *
//  403    *  There is a small hole though.  It's possible to attempt turning off the receiver
//  404    *  in the window from when the receive interrupt fires and the point where macRxActive
//  405    *  is set to TRUE.  To plug this hole, the on/off status must be tested *after*
//  406    *  macRxActive has been set.  If the receiver is off at this point, there is nothing
//  407    *  in the RX fifo and the receive is simply aborted.
//  408    *
//  409    *  Also, there are some considerations in case a hard disable just happened.  Usually,
//  410    *  the receiver will just be off at this point after a hard disable.  The check described
//  411    *  above will account for this case too.  However, if a hard disable were immediately
//  412    *  followed by an enable, the receiver would be on.  To catch this case, the receive
//  413    *  FIFO is also tested to see if it is empty.  Recovery is identical to the other cases.
//  414    */
//  415   if (!macRxOnFlag || MAC_RADIO_RX_FIFO_IS_EMPTY())
        MOV     DPTR,#macRxOnFlag
        MOVX    A,@DPTR
        JZ      ??rxStartIsr_1
        MOV     DPTR,#0x6193
        MOVX    A,@DPTR
        MOV     C,0xE0 /* A   */.7
        JC      ??rxStartIsr_2
        MOVX    A,@DPTR
        MOV     C,0xE0 /* A   */.6
        JC      ??rxStartIsr_2
//  416   {
//  417     /* reset active flag */
//  418     macRxActive = MAC_RX_ACTIVE_NO_ACTIVITY;
??rxStartIsr_1:
        MOV     DPTR,#macRxActive
        CLR     A
        MOVX    @DPTR,A
//  419 
//  420     /*
//  421      *  To be absolutely bulletproof, must make sure no transmit queue'ed up during
//  422      *  the tiny, tiny window when macRxActive was not zero.
//  423      */
//  424     rxPostRxUpdates();
        ; Setup parameters for call to function rxPostRxUpdates
        LCALL   ??rxPostRxUpdates?relay
//  425 
//  426     /* return immediately from here */
//  427     return;
        LJMP    ??rxStartIsr_3 & 0xFFFF
//  428   }
//  429 
//  430   /*
//  431    *  If interrupts are held off for too long it's possible the previous "transmit done"
//  432    *  callback is pending.  If this is the case, it needs to be completed before
//  433    *  continuing with the receive logic.
//  434    */
//  435   MAC_RADIO_FORCE_TX_DONE_IF_PENDING();
??rxStartIsr_2:
        ; Setup parameters for call to function macCspForceTxDoneIfPending
        LCALL   ??macCspForceTxDoneIfPending?relay
//  436 
//  437   /*
//  438    *  It's possible receive logic is still waiting for confirmation of an ACK that went out
//  439    *  for the previous receive.  This is OK but the callback needs to be canceled at this point.
//  440    *  That callback execute receive cleanup logic that will run at the completion
//  441    *  of *this* receive.  Also, it is important the flag for the outgoing ACK to be cleared.
//  442    */
//  443   MAC_RADIO_CANCEL_ACK_TX_DONE_CALLBACK();
        LCALL   ?Subroutine12 & 0xFFFF
//  444   macRxOutgoingAckFlag = 0;
//  445 
//  446   /*
//  447    *  Make a module-local copy of macRxFilter.  This prevents the selected
//  448    *  filter from changing in the middle of a receive.
//  449    */
//  450   rxFilter = macRxFilter;
??CrossCallReturnLabel_19:
        MOV     DPTR,#macRxFilter
        MOVX    A,@DPTR
        MOV     DPTR,#rxFilter
        MOVX    @DPTR,A
//  451 
//  452   /*-------------------------------------------------------------------------------
//  453    *  Read initial frame information from FIFO.
//  454    *
//  455    *   This code is not triggered until the following are in the RX FIFO:
//  456    *     frame length          - one byte containing length of MAC frame (excludes this field)
//  457    *     frame control field   - two bytes defining frame type, addressing fields, control flags
//  458    *     sequence number       - one byte unique sequence identifier
//  459    *     additional two bytes  - these bytes are available in case the received frame is an ACK,
//  460    *                             if so, the frame can be verified and responded to immediately,
//  461    *                             if not an ACK, these bytes will be processed normally
//  462    */
//  463 
//  464   /* read frame length, frame control field, and sequence number from FIFO */
//  465   MAC_RADIO_READ_RX_FIFO(rxBuf, MAC_PHY_PHR_LEN + MAC_FCF_FIELD_LEN + MAC_SEQ_NUM_FIELD_LEN);
        ; Setup parameters for call to function macMemReadRxFifo
        MOV     R1,#0x4
        MOV     R2,#rxBuf & 0xff
        MOV     R3,#(rxBuf >> 8) & 0xff
        LCALL   ??macMemReadRxFifo?relay
//  466 
//  467   /* bytes to read from FIFO equals frame length minus length of MHR fields just read from FIFO */
//  468   rxUnreadLen = (rxBuf[0] & PHY_PACKET_SIZE_MASK) - MAC_FCF_FIELD_LEN - MAC_SEQ_NUM_FIELD_LEN;
        MOV     DPTR,#rxBuf
        MOVX    A,@DPTR
        ANL     A,#0x7f
        ADD     A,#-0x3
        MOV     DPTR,#rxUnreadLen
        MOVX    @DPTR,A
//  469 
//  470   /*
//  471    *  Workaround for chip bug #1547.  The receive buffer can sometimes be corrupted by hardware.
//  472    *  This usually occurs under heavy traffic.  If a corrupted receive buffer is detected
//  473    *  the entire receive buffer is flushed.
//  474    *
//  475    *  In the case that this workaround is not needed, an assert is used to make sure the
//  476    *  receive length field is not corrupted.  This is important because a corrupted receive
//  477    *  length field is utterly fatal and, if not caught here, extremely hard to track down.
//  478    */
//  479   if (macChipVersion == REV_A)
        MOV     DPTR,#macChipVersion
        MOVX    A,@DPTR
        MOV     DPTR,#rxUnreadLen
        JNZ     ??rxStartIsr_4
//  480   {
//  481     if ((rxUnreadLen > (MAC_A_MAX_PHY_PACKET_SIZE - MAC_FCF_FIELD_LEN - MAC_SEQ_NUM_FIELD_LEN)) ||
//  482         (MAC_FRAME_TYPE(&rxBuf[1]) > MAC_FRAME_TYPE_MAX_VALID))
        MOVX    A,@DPTR
        CLR     C
        SUBB    A,#0x7d
        JC      $+5
        LJMP    ??rxStartIsr_5 & 0xFFFF
        MOV     DPTR,#rxBuf + 1
        MOVX    A,@DPTR
        ANL     A,#0x7
        CLR     C
        SUBB    A,#0x4
        JC      ??rxStartIsr_6
        LJMP    ??rxStartIsr_5 & 0xFFFF
//  483     {
//  484       MAC_RADIO_FLUSH_RX_FIFO();
//  485       rxDone();
//  486       return;
//  487     }
//  488   }
//  489   else
//  490   {
//  491     /* radio supplied a corrupted receive buffer length */
//  492     MAC_ASSERT(rxUnreadLen <= (MAC_A_MAX_PHY_PACKET_SIZE - MAC_FCF_FIELD_LEN - MAC_SEQ_NUM_FIELD_LEN));
??rxStartIsr_4:
        MOVX    A,@DPTR
        CLR     C
        SUBB    A,#0x7d
        JC      ??rxStartIsr_6
        ; Setup parameters for call to function halAssertHandler
        LCALL   ??halAssertHandler?relay
//  493   }
//  494 
//  495 
//  496 
//  497   /*-------------------------------------------------------------------------------
//  498    *  Process ACKs.
//  499    *
//  500    *  If this frame is an ACK, process it immediately and exit from here.
//  501    *  If this frame is not an ACK and transmit is listening for an ACK, let
//  502    *  the transmit logic know an non-ACK was received so transmit can complete.
//  503    *
//  504    *  In promiscuous mode ACKs are treated like any other frame.
//  505    */
//  506   if ((MAC_FRAME_TYPE(&rxBuf[1]) == MAC_FRAME_TYPE_ACK) && (rxPromiscuousMode == PROMISCUOUS_MODE_OFF))
??rxStartIsr_6:
        MOV     DPTR,#rxBuf + 1
        MOVX    A,@DPTR
        ANL     A,#0x7
        XRL     A,#0x2
        JZ      $+5
        LJMP    ??rxStartIsr_7 & 0xFFFF
        MOV     DPTR,#rxPromiscuousMode
        MOVX    A,@DPTR
        JZ      $+5
        LJMP    ??rxStartIsr_7 & 0xFFFF
//  507   {
//  508     halIntState_t  s;
//  509     uint8 fcsBuf[MAC_FCF_FIELD_LEN];
//  510     /*
//  511      *  There are guaranteed to be two unread bytes in the FIFO.  By defintion, for ACK frames
//  512      *  these two bytes will be the FCS.
//  513      */
//  514 
//  515     /* read FCS from FIFO (threshold set so bytes are guaranteed to be there) */
//  516     MAC_RADIO_READ_RX_FIFO(fcsBuf, MAC_FCS_FIELD_LEN);
        ; Setup parameters for call to function macMemReadRxFifo
        MOV     R1,#0x2
        MOV     DPL,?XSP + 0
        MOV     DPH,?XSP + 1
        MOV     R2,DPL
        MOV     R3,DPH
        LCALL   ??macMemReadRxFifo?relay
//  517 
//  518     /*
//  519      *  This critical section ensures that the ACK timeout won't be triggered in the
//  520      *  millde of receiving the ACK frame.
//  521      */
//  522     HAL_ENTER_CRITICAL_SECTION(s);
        MOV     C,0xa8.7
        CLR     A
        RLC     A
        MOV     ?V0 + 0,A
        CLR     0xa8.7
//  523 
//  524     /* see if transmit is listening for an ACK */
//  525     if (macTxActive == MAC_TX_ACTIVE_LISTEN_FOR_ACK)
        MOV     DPTR,#macTxActive
        MOVX    A,@DPTR
        XRL     A,#0x86
        JNZ     ??rxStartIsr_8
//  526     {
//  527       MAC_ASSERT(pMacDataTx != NULL); /* transmit buffer must be present */
        MOV     DPTR,#pMacDataTx
        MOVX    A,@DPTR
        MOV     R0,A
        INC     DPTR
        MOVX    A,@DPTR
        MOV     R1,A
        MOV     A,R0
        ORL     A,R1
        JNZ     ??rxStartIsr_9
        ; Setup parameters for call to function halAssertHandler
        LCALL   ??halAssertHandler?relay
//  528 
//  529       /* record link quality metrics for the receive ACK */
//  530       {
//  531         int8 rssiDbm;
//  532         uint8 corr;
//  533 
//  534         rssiDbm = PROPRIETARY_FCS_RSSI(fcsBuf) + MAC_RADIO_RSSI_OFFSET;
??rxStartIsr_9:
        MOV     DPL,?XSP + 0
        MOV     DPH,?XSP + 1
        MOVX    A,@DPTR
        ADD     A,#-0x49
        MOV     R6,A
//  535         MAC_RADIO_RSSI_LNA_OFFSET(rssiDbm);
//  536         corr = PROPRIETARY_FCS_CORRELATION_VALUE(fcsBuf);
        MOV     A,#0x1
        LCALL   ?XSTACK_DISP0_8
        MOVX    A,@DPTR
        ANL     A,#0x7f
        MOV     R7,A
//  537 
//  538         pMacDataTx->internal.mpduLinkQuality = macRadioComputeLQI(rssiDbm, corr);
        ; Setup parameters for call to function macRadioComputeLQI
        MOV     R2,A
        MOV     A,R6
        MOV     R1,A
        LCALL   ??macRadioComputeLQI?relay
        MOV     DPTR,#pMacDataTx
        LCALL   ??Subroutine25_0 & 0xFFFF
//  539         pMacDataTx->internal.correlation = corr;
//  540         pMacDataTx->internal.rssi= rssiDbm;
//  541       }
??CrossCallReturnLabel_49:
        ADD     A,#0x14
        LCALL   ?Subroutine16 & 0xFFFF
??CrossCallReturnLabel_38:
        MOV     A,R1
        LCALL   ?Subroutine5 & 0xFFFF
??CrossCallReturnLabel_5:
        ADD     A,#0x15
        LCALL   ?Subroutine16 & 0xFFFF
??CrossCallReturnLabel_39:
        MOV     A,R7
        LCALL   ?Subroutine5 & 0xFFFF
??CrossCallReturnLabel_6:
        ADD     A,#0x16
        LCALL   ?Subroutine16 & 0xFFFF
??CrossCallReturnLabel_40:
        MOV     A,R6
        MOVX    @DPTR,A
//  542 
//  543       /*
//  544        *  It's okay if the ACK timeout is triggered here. The callbacks for ACK received
//  545        *  or ACK not received will check "macTxActive" flag before taking any actions.
//  546        */
//  547       HAL_EXIT_CRITICAL_SECTION(s);
        MOV     A,?V0 + 0
        MOV     C,0xE0 /* A   */.0
        MOV     0xa8.7,C
//  548 
//  549       /*
//  550        *  An ACK was received so transmit logic needs to know.  If the FCS failed,
//  551        *  the transmit logic still needs to know.  In that case, treat the frame
//  552        *  as a non-ACK to complete the active transmit.
//  553        */
//  554       if (PROPRIETARY_FCS_CRC_OK(fcsBuf))
        MOV     A,#0x1
        LCALL   ?XSTACK_DISP0_8
        MOVX    A,@DPTR
        MOV     C,0xE0 /* A   */.7
        JNC     ??rxStartIsr_10
//  555       {
//  556         /* call transmit logic to indicate ACK was received */
//  557         macTxAckReceivedCallback(MAC_SEQ_NUMBER(&rxBuf[1]), MAC_FRAME_PENDING(&rxBuf[1]));
        ; Setup parameters for call to function macTxAckReceivedCallback
        MOV     DPTR,#rxBuf + 1
        MOVX    A,@DPTR
        ANL     A,#0x10
        MOV     R2,A
        MOV     DPTR,#rxBuf + 3
        MOVX    A,@DPTR
        MOV     R1,A
        LCALL   ??macTxAckReceivedCallback?relay
        SJMP    ??rxStartIsr_11
//  558       }
//  559       else
//  560       {
//  561         macTxAckNotReceivedCallback();
??rxStartIsr_10:
        ; Setup parameters for call to function macTxAckNotReceivedCallback
        LCALL   ??macTxAckNotReceivedCallback?relay
        SJMP    ??rxStartIsr_11
//  562       }
//  563     }
//  564     else
//  565     {
//  566       HAL_EXIT_CRITICAL_SECTION(s);
??rxStartIsr_8:
        MOV     A,?V0 + 0
        MOV     C,0xE0 /* A   */.0
        MOV     0xa8.7,C
//  567     }
//  568 
//  569     /* receive is done, exit from here */
//  570     rxDone();
        ; Setup parameters for call to function rxDone
        SJMP    ??rxStartIsr_11
//  571     return;
//  572   }
//  573   else if (macTxActive == MAC_TX_ACTIVE_LISTEN_FOR_ACK)
??rxStartIsr_7:
        MOV     DPTR,#macTxActive
        MOVX    A,@DPTR
        XRL     A,#0x86
        JNZ     ??rxStartIsr_12
//  574   {
//  575     macTxAckNotReceivedCallback();
        ; Setup parameters for call to function macTxAckNotReceivedCallback
        LCALL   ??macTxAckNotReceivedCallback?relay
//  576   }
//  577 
//  578   /*-------------------------------------------------------------------------------
//  579    *  Apply filtering.
//  580    *
//  581    *  For efficiency, see if filtering is even 'on' before processing.  Also test
//  582    *  to make sure promiscuous mode is disabled.  If promiscuous mode is enabled,
//  583    *  do not apply filtering.
//  584    */
//  585   if ((rxFilter != RX_FILTER_OFF) && !rxPromiscuousMode)
??rxStartIsr_12:
        MOV     DPTR,#rxFilter
        MOVX    A,@DPTR
        JZ      ??rxStartIsr_13
        MOV     DPTR,#rxPromiscuousMode
        MOVX    A,@DPTR
        JNZ     ??rxStartIsr_13
//  586   {
//  587     if (/* filter all frames */
//  588          (rxFilter == RX_FILTER_ALL) ||
//  589 
//  590          /* filter non-beacon frames */
//  591          ((rxFilter == RX_FILTER_NON_BEACON_FRAMES) &&
//  592           (MAC_FRAME_TYPE(&rxBuf[1]) != MAC_FRAME_TYPE_BEACON)) ||
//  593 
//  594          /* filter non-command frames */
//  595          ((rxFilter == RX_FILTER_NON_COMMAND_FRAMES) &&
//  596           ((MAC_FRAME_TYPE(&rxBuf[1]) != MAC_FRAME_TYPE_COMMAND))))
        MOV     DPTR,#rxFilter
        MOVX    A,@DPTR
        XRL     A,#0x1
        JNZ     $+5
        LJMP    ??rxStartIsr_14 & 0xFFFF
        MOV     DPTR,#rxBuf + 1
        MOVX    A,@DPTR
        ANL     A,#0x7
        MOV     R0,A
        MOV     DPTR,#rxFilter
        MOVX    A,@DPTR
        XRL     A,#0x2
        JNZ     ??rxStartIsr_15
        MOV     A,R0
        JNZ     ??rxStartIsr_14
        SJMP    ??rxStartIsr_13
??rxStartIsr_15:
        MOVX    A,@DPTR
        XRL     A,#0x3
        JNZ     ??rxStartIsr_13
        MOV     A,#0x3
        XRL     A,R0
        JNZ     ??rxStartIsr_14
//  597     {
//  598       /* discard rest of frame */
//  599       rxDiscardFrame();
//  600       return;
//  601     }
//  602   }
//  603 
//  604   /*-------------------------------------------------------------------------------
//  605    *  Compute length of addressing fields.  Compute payload length.
//  606    */
//  607 
//  608   /* decode addressing modes */
//  609   dstAddrMode = MAC_DEST_ADDR_MODE(&rxBuf[1]);
??rxStartIsr_13:
        MOV     DPTR,#rxBuf + 2
        MOVX    A,@DPTR
        MOV     R0,A
        RRC     A
        RRC     A
        ANL     A,#0x3f
        ANL     A,#0x3
        MOV     ?V0 + 3,A
//  610   srcAddrMode = MAC_SRC_ADDR_MODE(&rxBuf[1]);
        MOV     A,R0
        SWAP    A
        RRC     A
        RRC     A
        ANL     A,#0x3
        MOV     ?V0 + 2,A
//  611 
//  612   /*
//  613   *  Workaround for chip bug #1547.  The receive buffer can sometimes be corrupted by hardware.
//  614    *  This usually occurs under heavy traffic.  If a corrupted receive buffer is detected
//  615    *  the entire receive buffer is flushed.
//  616    */
//  617   if (macChipVersion == REV_A)
        MOV     DPTR,#macChipVersion
        MOVX    A,@DPTR
        JNZ     ??rxStartIsr_16
//  618   {
//  619     if ((srcAddrMode == ADDR_MODE_RESERVERED) || (dstAddrMode == ADDR_MODE_RESERVERED))
        MOV     A,#0x1
        XRL     A,?V0 + 2
        JZ      ??rxStartIsr_5
        MOV     A,#0x1
        XRL     A,?V0 + 3
        JNZ     ??rxStartIsr_16
//  620     {
//  621       MAC_RADIO_FLUSH_RX_FIFO();
??rxStartIsr_5:
        MOV     0xe1,#-0x13
        MOV     0xe1,#-0x13
//  622       rxDone();
        ; Setup parameters for call to function rxDone
??rxStartIsr_11:
        LCALL   ??rxDone?relay
//  623       return;
        LJMP    ??rxStartIsr_3 & 0xFFFF
//  624     }
//  625   }
//  626 
//  627   /*
//  628    *  Compute the addressing field length.  A lookup table based on addressing
//  629    *  mode is used for efficiency.  If the source address is present and the
//  630    *  frame is intra-PAN, the PAN Id is not repeated.  In this case, the address
//  631    *  length is adjusted to match the smaller length.
//  632    */
//  633   addrLen = macRxAddrLen[dstAddrMode] + macRxAddrLen[srcAddrMode];
??rxStartIsr_16:
        MOV     ?V0 + 0,?V0 + 2
        LCALL   ?Subroutine14 & 0xFFFF
??CrossCallReturnLabel_21:
        MOV     R0,A
        MOV     ?V0 + 0,?V0 + 3
        LCALL   ?Subroutine14 & 0xFFFF
??CrossCallReturnLabel_22:
        ADD     A,R0
        MOV     R6,A
//  634   if ((srcAddrMode != SADDR_MODE_NONE) && MAC_INTRA_PAN(&rxBuf[1]))
        MOV     A,?V0 + 2
        JZ      ??rxStartIsr_17
        MOV     DPTR,#rxBuf + 1
        MOVX    A,@DPTR
        MOV     C,0xE0 /* A   */.6
        JNC     ??rxStartIsr_17
//  635   {
//  636     addrLen -= MAC_PAN_ID_FIELD_LEN;
        DEC     R6
        DEC     R6
//  637   }
//  638 
//  639   /*
//  640    *  If there are not enough unread bytes to include the computed address
//  641    *  plus FCS field, the frame is corrupted and must be discarded.
//  642    */
//  643   if ((addrLen + MAC_FCS_FIELD_LEN) > rxUnreadLen)
??rxStartIsr_17:
        MOV     DPTR,#rxUnreadLen
        MOVX    A,@DPTR
        MOV     R2,A
        MOV     ?V0 + 0,R6
        MOV     A,?V0 + 0
        ADD     A,#0x2
        MOV     R0,A
        CLR     A
        ADDC    A,#0x0
        MOV     R1,A
        MOV     A,R2
        SUBB    A,R0
        CLR     A
        SUBB    A,R1
        CLR     C
        XRL     A,PSW
        RLC     A
        JNC     ??rxStartIsr_18
//  644   {
//  645     /* discard frame and exit */
//  646     rxDiscardFrame();
??rxStartIsr_14:
        ; Setup parameters for call to function rxDiscardFrame
        LCALL   ??rxDiscardFrame?relay
//  647     return;
        LJMP    ??rxStartIsr_3 & 0xFFFF
//  648   }
//  649 
//  650   /* payload length is equal to unread bytes minus address length, minus the FCS */
//  651   rxPayloadLen = rxUnreadLen - addrLen - MAC_FCS_FIELD_LEN;
??rxStartIsr_18:
        MOVX    A,@DPTR
        CLR     C
        SUBB    A,R6
        ADD     A,#-0x2
        MOV     DPTR,#rxPayloadLen
        MOVX    @DPTR,A
//  652 
//  653   /*-------------------------------------------------------------------------------
//  654    *  Allocate memory for the incoming frame.
//  655    */
//  656   pRxBuf = (macRx_t *) MEM_ALLOC(sizeof(macRx_t) + rxPayloadLen);
        ; Setup parameters for call to function macDataRxMemAlloc
        ADD     A,#0x32
        MOV     R2,A
        CLR     A
        ADDC    A,#0x0
        MOV     R3,A
        LCALL   ??macDataRxMemAlloc?relay
        MOV     DPTR,#pRxBuf
        MOV     A,R2
        MOVX    @DPTR,A
        INC     DPTR
        MOV     A,R3
        LCALL   ??Subroutine26_0 & 0xFFFF
//  657   if (pRxBuf == NULL)
??CrossCallReturnLabel_55:
        MOV     R0,A
        INC     DPTR
        MOVX    A,@DPTR
        MOV     R1,A
        MOV     A,R0
        ORL     A,R1
        JNZ     ??rxStartIsr_19
//  658   {
//  659     /* Cancel the outgoing TX ACK */
//  660     MAC_RADIO_CANCEL_TX_ACK();
        MOV     0xe1,#-0x18
        SJMP    ??rxStartIsr_14
//  661 
//  662     /* buffer allocation failed, discard the frame and exit*/
//  663     rxDiscardFrame();
//  664     return;
//  665   }
//  666 
//  667   /*-------------------------------------------------------------------------------
//  668    *  Set up to process ACK request.  Do not ACK if in promiscuous mode.
//  669    */
//  670   ackWithPending = 0;
??rxStartIsr_19:
        MOV     R7,#0x0
//  671   if (!rxPromiscuousMode)
        MOV     DPTR,#rxBuf + 1
        MOVX    A,@DPTR
        MOV     R0,A
        MOV     DPTR,#rxPromiscuousMode
        MOVX    A,@DPTR
        JNZ     ??rxStartIsr_20
//  672   {
//  673     macRxOutgoingAckFlag = MAC_ACK_REQUEST(&rxBuf[1]);
        MOV     A,#0x20
        ANL     A,R0
        MOV     DPTR,#macRxOutgoingAckFlag
        MOVX    @DPTR,A
//  674   }
//  675 
//  676   /*-------------------------------------------------------------------------------
//  677    *  Process any ACK request.
//  678    */
//  679   if (macRxOutgoingAckFlag)
??rxStartIsr_20:
        MOV     DPTR,#macRxOutgoingAckFlag
        MOVX    A,@DPTR
        JZ      ??rxStartIsr_21
//  680   {
//  681     halIntState_t  s;
//  682 
//  683     /*
//  684      *  This critical section ensures that the callback ISR is initiated within time
//  685      *  to guarantee correlation with the strobe.
//  686      */
//  687     HAL_ENTER_CRITICAL_SECTION(s);
        MOV     C,0xa8.7
        CLR     A
        RLC     A
        MOV     ?V0 + 0,A
        CLR     0xa8.7
//  688 
//  689     /* Do not ack data packet with pending more data */
//  690     if( MAC_FRAME_TYPE(&rxBuf[1]) == MAC_FRAME_TYPE_COMMAND )
        MOV     A,#0x7
        ANL     A,R0
        XRL     A,#0x3
        JNZ     ??rxStartIsr_22
//  691     {
//  692       if( macRxCheckMACPendingCallback())
        ; Setup parameters for call to function macRxCheckMACPendingCallback
        LCALL   ??macRxCheckMACPendingCallback?relay
        MOV     A,R1
        JZ      $+5
        LJMP    ??rxStartIsr_23 & 0xFFFF
//  693       {
//  694         /* Check is any mac data pending for end devices */
//  695         ackWithPending = MAC_RX_FLAG_ACK_PENDING;
//  696       }
//  697       else
//  698       {
//  699         if( macSrcMatchIsEnabled )
        MOV     DPTR,#macSrcMatchIsEnabled
        MOVX    A,@DPTR
        JNZ     $+5
        LJMP    ??rxStartIsr_24 & 0xFFFF
//  700         {
//  701           /* When autopend is enabled, check if allpending is set to true */
//  702           if( MAC_SrcMatchCheckAllPending() == MAC_AUTOACK_PENDING_ALL_ON )
        ; Setup parameters for call to function MAC_SrcMatchCheckAllPending
        LCALL   ??MAC_SrcMatchCheckAllPending?relay
        MOV     A,R1
        XRL     A,#0xfe
        JNZ     $+5
        LJMP    ??rxStartIsr_23 & 0xFFFF
//  703           {
//  704             ackWithPending = MAC_RX_FLAG_ACK_PENDING;
//  705           }
//  706         }
//  707         else
//  708         {
//  709           /* When autopend is disabled, check the application pending callback */
//  710           if( macRxCheckPendingCallback() )
//  711           {
//  712             ackWithPending = MAC_RX_FLAG_ACK_PENDING;
//  713           }
//  714         }
//  715       }
//  716     }
//  717 
//  718     if( ackWithPending == MAC_RX_FLAG_ACK_PENDING )
//  719     {
//  720       MAC_RADIO_TX_ACK_PEND();
//  721     }
//  722     else
//  723     {
//  724       MAC_RADIO_TX_ACK();
??rxStartIsr_22:
        MOV     DPTR,#0x618a
        MOVX    A,@DPTR
        CLR     0xE0 /* A   */.2
//  725     }
??rxStartIsr_25:
        LCALL   ?Subroutine6 & 0xFFFF
//  726 
//  727 
//  728     /* request a callback to macRxAckTxDoneCallback() when the ACK transmit has finished */
//  729     MAC_RADIO_REQUEST_ACK_TX_DONE_CALLBACK();
??CrossCallReturnLabel_8:
        MOV     0x91,#-0x2
        MOV     C,0xE0 /* A   */.7
        MOV     C,0xE0 /* A   */.7
        MOV     0xa8.7,C
        MOV     DPTR,#0x61a4
        MOVX    A,@DPTR
        SETB    0xE0 /* A   */.0
        MOVX    @DPTR,A
//  730     HAL_EXIT_CRITICAL_SECTION(s);
        MOV     A,?V0 + 0
        MOV     C,0xE0 /* A   */.0
        MOV     0xa8.7,C
//  731   }
//  732 
//  733  /*-------------------------------------------------------------------------------
//  734   *  Populate the receive buffer going up to high-level.
//  735   */
//  736 
//  737   /* configure the payload buffer */
//  738   pRxBuf->msdu.p = (uint8 *) (pRxBuf + 1);
??rxStartIsr_21:
        MOV     DPTR,#pRxBuf
        MOVX    A,@DPTR
        ADD     A,#0x32
        MOV     R2,A
        INC     DPTR
        MOVX    A,@DPTR
        ADDC    A,#0x0
        MOV     R3,A
        LCALL   ?Subroutine11 & 0xFFFF
??CrossCallReturnLabel_17:
        MOV     A,R2
        MOVX    @DPTR,A
        INC     DPTR
        MOV     A,R3
        MOVX    @DPTR,A
//  739   pRxBuf->msdu.len = rxPayloadLen;
        MOV     DPTR,#rxPayloadLen
        MOVX    A,@DPTR
        PUSH    A
          CFI CFA_SP SP+-1
        LCALL   ?Subroutine9 & 0xFFFF
??CrossCallReturnLabel_13:
        POP     A
          CFI CFA_SP SP+0
        LCALL   ?Subroutine2 & 0xFFFF
//  740 
//  741   /* set internal values */
//  742   pRxBuf->mac.srcAddr.addrMode  = srcAddrMode;
??CrossCallReturnLabel_0:
        ADD     A,#0x1a
        LCALL   ?Subroutine16 & 0xFFFF
??CrossCallReturnLabel_41:
        MOV     A,?V0 + 2
        LCALL   ?Subroutine2 & 0xFFFF
//  743   pRxBuf->mac.dstAddr.addrMode  = dstAddrMode;
??CrossCallReturnLabel_1:
        ADD     A,#0x23
        LCALL   ?Subroutine16 & 0xFFFF
??CrossCallReturnLabel_42:
        MOV     A,?V0 + 3
        MOVX    @DPTR,A
//  744   pRxBuf->mac.timestamp         = MAC_RADIO_BACKOFF_CAPTURE();
        ; Setup parameters for call to function macMcuOverflowCapture
        LCALL   ??macMcuOverflowCapture?relay
        MOV     ?V0 + 0,R2
        MOV     ?V0 + 1,R3
        MOV     ?V0 + 2,R4
        MOV     ?V0 + 3,R5
        LCALL   ?Subroutine13 & 0xFFFF
??CrossCallReturnLabel_50:
        ADD     A,#0x24
        LCALL   ?Subroutine16 & 0xFFFF
??CrossCallReturnLabel_43:
        MOV     R0,#?V0 + 0
        LCALL   ?L_MOV_TO_X
//  745   pRxBuf->mac.timestamp2        = MAC_RADIO_TIMER_CAPTURE();
        ; Setup parameters for call to function macMcuTimerCapture
        LCALL   ??macMcuTimerCapture?relay
        MOV     ?V0 + 0,R2
        LCALL   ??Subroutine21_0 & 0xFFFF
??CrossCallReturnLabel_31:
        XCH     A,R2
        ADD     A,#0x28
        MOV     DPL,A
        MOV     A,R2
        LCALL   ??Subroutine23_0 & 0xFFFF
??CrossCallReturnLabel_35:
        MOV     A,?V0 + 0
        MOVX    @DPTR,A
        INC     DPTR
        MOV     A,R3
        MOVX    @DPTR,A
//  746   pRxBuf->internal.frameType    = MAC_FRAME_TYPE(&rxBuf[1]);
        MOV     DPTR,#rxBuf + 1
        MOVX    A,@DPTR
        ANL     A,#0x7
        PUSH    A
          CFI CFA_SP SP+-1
        LCALL   ?Subroutine9 & 0xFFFF
??CrossCallReturnLabel_14:
        INC     DPTR
        POP     A
          CFI CFA_SP SP+0
        MOVX    @DPTR,A
//  747   pRxBuf->mac.dsn               = MAC_SEQ_NUMBER(&rxBuf[1]);
        MOV     DPTR,#rxBuf + 3
        MOVX    A,@DPTR
        PUSH    A
          CFI CFA_SP SP+-1
        LCALL   ?Subroutine13 & 0xFFFF
??CrossCallReturnLabel_51:
        ADD     A,#0x31
        LCALL   ?Subroutine16 & 0xFFFF
??CrossCallReturnLabel_44:
        POP     A
          CFI CFA_SP SP+0
        MOVX    @DPTR,A
//  748   pRxBuf->internal.flags        = INTERNAL_FCF_FLAGS(&rxBuf[1]) | ackWithPending;
        MOV     DPTR,#rxBuf + 1
        MOVX    A,@DPTR
        ANL     A,#0x78
        MOV     R0,A
        INC     DPTR
        MOVX    A,@DPTR
        SWAP    A
        ANL     A,#0xf
        ANL     A,#0x3
        ORL     A,R0
        ORL     A,R7
        PUSH    A
          CFI CFA_SP SP+-1
        LCALL   ?Subroutine8 & 0xFFFF
??CrossCallReturnLabel_11:
        POP     A
          CFI CFA_SP SP+0
        LCALL   ?Subroutine2 & 0xFFFF
//  749   pRxBuf->sec.securityLevel     = MAC_SEC_LEVEL_NONE;
??CrossCallReturnLabel_2:
        ADD     A,#0xf
        LCALL   ?Subroutine16 & 0xFFFF
??CrossCallReturnLabel_45:
        CLR     A
        MOVX    @DPTR,A
//  750 
//  751   /*-------------------------------------------------------------------------------
//  752    *  If the processing the addressing fields does not require more bytes from
//  753    *  the FIFO go directly address processing function.  Otherwise, configure
//  754    *  interrupt to jump there once bytes are received.
//  755    */
//  756   if (addrLen == 0)
        MOV     A,R6
        JNZ     ??rxStartIsr_26
//  757   {
//  758     /* no addressing fields to read, prepare for payload interrupts */
//  759     pFuncRxState = &rxPayloadIsr;
        MOV     DPTR,#pFuncRxState
        MOV     A,#??rxPayloadIsr?relay & 0xff
        MOVX    @DPTR,A
        INC     DPTR
        MOV     A,#(??rxPayloadIsr?relay >> 8) & 0xff
        MOVX    @DPTR,A
//  760     rxPrepPayload();
        ; Setup parameters for call to function rxPrepPayload
        LCALL   ??rxPrepPayload?relay
        SJMP    ??rxStartIsr_3
//  761   }
??rxStartIsr_24:
        ; Setup parameters for call to function macRxCheckPendingCallback
        LCALL   ??macRxCheckPendingCallback?relay
        MOV     A,R1
        JNZ     $+5
        LJMP    ??rxStartIsr_22 & 0xFFFF
??rxStartIsr_23:
        MOV     R7,#0x4
        MOV     DPTR,#0x618a
        MOVX    A,@DPTR
        SETB    0xE0 /* A   */.2
        LJMP    ??rxStartIsr_25 & 0xFFFF
//  762   else
//  763   {
//  764     /* need to read and process addressing fields, prepare for address interrupt */
//  765     rxNextLen = addrLen;
??rxStartIsr_26:
        MOV     DPTR,#rxNextLen
        MOVX    @DPTR,A
//  766     MAC_RADIO_SET_RX_THRESHOLD(rxNextLen);
        DEC     A
        MOV     DPTR,#0x6194
        MOVX    @DPTR,A
//  767     pFuncRxState = &rxAddrIsr;
        MOV     DPTR,#pFuncRxState
        MOV     A,#??rxAddrIsr?relay & 0xff
        MOVX    @DPTR,A
        INC     DPTR
        MOV     A,#(??rxAddrIsr?relay >> 8) & 0xff
        MOVX    @DPTR,A
??rxStartIsr_3:
        MOV     A,#0x2
        LCALL   ?DEALLOC_XSTACK8
          CFI CFA_XSP16 add(XSP16, 15)
        MOV     R7,#0x7
        LJMP    ?BANKED_LEAVE_XDATA
          CFI EndBlock cfiBlock6
        REQUIRE RFST
        REQUIRE _A_IEN0
        REQUIRE S1CON
        REQUIRE RFIRQF1
//  768   }
//  769 }
//  770 
//  771 
//  772 /*=================================================================================================
//  773  * @fn          rxAddrIsr
//  774  *
//  775  * @brief       Receive ISR state for decoding address.  Reads and stores the address information
//  776  *              from the incoming packet.
//  777  *
//  778  * @param       none
//  779  *
//  780  * @return      none
//  781  *=================================================================================================
//  782  */

        RSEG BANKED_CODE:CODE:NOROOT(0)
?Subroutine19:
          CFI Block cfiCond7 Using cfiCommon0
          CFI Function rxAddrIsr
          CFI Conditional ??CrossCallReturnLabel_33
          CFI R6 load(1, XDATA, add(CFA_XSP16, literal(-9)))
          CFI VB load(1, XDATA, add(CFA_XSP16, literal(-8)))
          CFI V0 load(1, XDATA, add(CFA_XSP16, literal(-7)))
          CFI R7 load(1, XDATA, add(CFA_XSP16, literal(-6)))
          CFI ?RET_LOW load(1, XDATA, add(CFA_XSP16, literal(-5)))
          CFI ?RET_HIGH load(1, XDATA, add(CFA_XSP16, literal(-4)))
          CFI ?BRET_EXT load(1, XDATA, add(CFA_XSP16, literal(-3)))
          CFI DPL0 load(1, XDATA, add(CFA_XSP16, literal(-2)))
          CFI DPH0 load(1, XDATA, add(CFA_XSP16, literal(-1)))
          CFI CFA_SP SP+0
          CFI CFA_XSP16 add(XSP16, 29)
          CFI Block cfiCond8 Using cfiCommon0
          CFI (cfiCond8) Function rxFcsIsr
          CFI (cfiCond8) Conditional ??CrossCallReturnLabel_34
          CFI (cfiCond8) R6 load(1, XDATA, add(CFA_XSP16, literal(-10)))
          CFI (cfiCond8) VB load(1, XDATA, add(CFA_XSP16, literal(-9)))
          CFI (cfiCond8) V0 load(1, XDATA, add(CFA_XSP16, literal(-8)))
          CFI (cfiCond8) V1 load(1, XDATA, add(CFA_XSP16, literal(-7)))
          CFI (cfiCond8) R7 load(1, XDATA, add(CFA_XSP16, literal(-6)))
          CFI (cfiCond8) ?RET_LOW load(1, XDATA, add(CFA_XSP16, literal(-5)))
          CFI (cfiCond8) ?RET_HIGH load(1, XDATA, add(CFA_XSP16, literal(-4)))
          CFI (cfiCond8) ?BRET_EXT load(1, XDATA, add(CFA_XSP16, literal(-3)))
          CFI (cfiCond8) DPL0 load(1, XDATA, add(CFA_XSP16, literal(-2)))
          CFI (cfiCond8) DPH0 load(1, XDATA, add(CFA_XSP16, literal(-1)))
          CFI (cfiCond8) CFA_SP SP+0
          CFI (cfiCond8) CFA_XSP16 add(XSP16, 10)
          CFI Block cfiPicker9 Using cfiCommon1
          CFI (cfiPicker9) NoFunction
          CFI (cfiPicker9) Picker
        MOV     R1,A
          CFI EndBlock cfiCond7
          CFI EndBlock cfiCond8
          CFI EndBlock cfiPicker9
        REQUIRE ??Subroutine21_0
        ; // Fall through to label ??Subroutine21_0

        RSEG BANKED_CODE:CODE:NOROOT(0)
??Subroutine21_0:
          CFI Block cfiCond10 Using cfiCommon0
          CFI Function rxStartIsr
          CFI Conditional ??CrossCallReturnLabel_31
          CFI R6 load(1, XDATA, add(CFA_XSP16, literal(-15)))
          CFI VB load(1, XDATA, add(CFA_XSP16, literal(-14)))
          CFI V0 load(1, XDATA, add(CFA_XSP16, literal(-13)))
          CFI V1 load(1, XDATA, add(CFA_XSP16, literal(-12)))
          CFI V2 load(1, XDATA, add(CFA_XSP16, literal(-11)))
          CFI V3 load(1, XDATA, add(CFA_XSP16, literal(-10)))
          CFI V4 load(1, XDATA, add(CFA_XSP16, literal(-9)))
          CFI V5 load(1, XDATA, add(CFA_XSP16, literal(-8)))
          CFI V6 load(1, XDATA, add(CFA_XSP16, literal(-7)))
          CFI R7 load(1, XDATA, add(CFA_XSP16, literal(-6)))
          CFI ?RET_LOW load(1, XDATA, add(CFA_XSP16, literal(-5)))
          CFI ?RET_HIGH load(1, XDATA, add(CFA_XSP16, literal(-4)))
          CFI ?BRET_EXT load(1, XDATA, add(CFA_XSP16, literal(-3)))
          CFI DPL0 load(1, XDATA, add(CFA_XSP16, literal(-2)))
          CFI DPH0 load(1, XDATA, add(CFA_XSP16, literal(-1)))
          CFI CFA_SP SP+0
          CFI CFA_XSP16 add(XSP16, 17)
          CFI Block cfiCond11 Using cfiCommon0
          CFI (cfiCond11) Function rxAddrIsr
          CFI (cfiCond11) Conditional ??CrossCallReturnLabel_32, ??CrossCallReturnLabel_9
          CFI (cfiCond11) R6 load(1, XDATA, add(CFA_XSP16, literal(-9)))
          CFI (cfiCond11) VB load(1, XDATA, add(CFA_XSP16, literal(-8)))
          CFI (cfiCond11) V0 load(1, XDATA, add(CFA_XSP16, literal(-7)))
          CFI (cfiCond11) R7 load(1, XDATA, add(CFA_XSP16, literal(-6)))
          CFI (cfiCond11) ?RET_LOW load(1, XDATA, add(CFA_XSP16, literal(-5)))
          CFI (cfiCond11) ?RET_HIGH load(1, XDATA, add(CFA_XSP16, literal(-4)))
          CFI (cfiCond11) ?BRET_EXT load(1, XDATA, add(CFA_XSP16, literal(-3)))
          CFI (cfiCond11) DPL0 load(1, XDATA, add(CFA_XSP16, literal(-2)))
          CFI (cfiCond11) DPH0 load(1, XDATA, add(CFA_XSP16, literal(-1)))
          CFI (cfiCond11) CFA_SP SP+0
          CFI (cfiCond11) CFA_XSP16 add(XSP16, 29)
          CFI Block cfiCond12 Using cfiCommon0
          CFI (cfiCond12) Function rxAddrIsr
          CFI (cfiCond12) Conditional ??CrossCallReturnLabel_32, ??CrossCallReturnLabel_10
          CFI (cfiCond12) R6 load(1, XDATA, add(CFA_XSP16, literal(-9)))
          CFI (cfiCond12) VB load(1, XDATA, add(CFA_XSP16, literal(-8)))
          CFI (cfiCond12) V0 load(1, XDATA, add(CFA_XSP16, literal(-7)))
          CFI (cfiCond12) R7 load(1, XDATA, add(CFA_XSP16, literal(-6)))
          CFI (cfiCond12) ?RET_LOW load(1, XDATA, add(CFA_XSP16, literal(-5)))
          CFI (cfiCond12) ?RET_HIGH load(1, XDATA, add(CFA_XSP16, literal(-4)))
          CFI (cfiCond12) ?BRET_EXT load(1, XDATA, add(CFA_XSP16, literal(-3)))
          CFI (cfiCond12) DPL0 load(1, XDATA, add(CFA_XSP16, literal(-2)))
          CFI (cfiCond12) DPH0 load(1, XDATA, add(CFA_XSP16, literal(-1)))
          CFI (cfiCond12) CFA_SP SP+0
          CFI (cfiCond12) CFA_XSP16 add(XSP16, 29)
          CFI Block cfiCond13 Using cfiCommon0
          CFI (cfiCond13) Function rxAddrIsr
          CFI (cfiCond13) Conditional ??CrossCallReturnLabel_33
          CFI (cfiCond13) R6 load(1, XDATA, add(CFA_XSP16, literal(-9)))
          CFI (cfiCond13) VB load(1, XDATA, add(CFA_XSP16, literal(-8)))
          CFI (cfiCond13) V0 load(1, XDATA, add(CFA_XSP16, literal(-7)))
          CFI (cfiCond13) R7 load(1, XDATA, add(CFA_XSP16, literal(-6)))
          CFI (cfiCond13) ?RET_LOW load(1, XDATA, add(CFA_XSP16, literal(-5)))
          CFI (cfiCond13) ?RET_HIGH load(1, XDATA, add(CFA_XSP16, literal(-4)))
          CFI (cfiCond13) ?BRET_EXT load(1, XDATA, add(CFA_XSP16, literal(-3)))
          CFI (cfiCond13) DPL0 load(1, XDATA, add(CFA_XSP16, literal(-2)))
          CFI (cfiCond13) DPH0 load(1, XDATA, add(CFA_XSP16, literal(-1)))
          CFI (cfiCond13) CFA_SP SP+0
          CFI (cfiCond13) CFA_XSP16 add(XSP16, 29)
          CFI Block cfiCond14 Using cfiCommon0
          CFI (cfiCond14) Function rxFcsIsr
          CFI (cfiCond14) Conditional ??CrossCallReturnLabel_34
          CFI (cfiCond14) R6 load(1, XDATA, add(CFA_XSP16, literal(-10)))
          CFI (cfiCond14) VB load(1, XDATA, add(CFA_XSP16, literal(-9)))
          CFI (cfiCond14) V0 load(1, XDATA, add(CFA_XSP16, literal(-8)))
          CFI (cfiCond14) V1 load(1, XDATA, add(CFA_XSP16, literal(-7)))
          CFI (cfiCond14) R7 load(1, XDATA, add(CFA_XSP16, literal(-6)))
          CFI (cfiCond14) ?RET_LOW load(1, XDATA, add(CFA_XSP16, literal(-5)))
          CFI (cfiCond14) ?RET_HIGH load(1, XDATA, add(CFA_XSP16, literal(-4)))
          CFI (cfiCond14) ?BRET_EXT load(1, XDATA, add(CFA_XSP16, literal(-3)))
          CFI (cfiCond14) DPL0 load(1, XDATA, add(CFA_XSP16, literal(-2)))
          CFI (cfiCond14) DPH0 load(1, XDATA, add(CFA_XSP16, literal(-1)))
          CFI (cfiCond14) CFA_SP SP+0
          CFI (cfiCond14) CFA_XSP16 add(XSP16, 10)
          CFI Block cfiPicker15 Using cfiCommon1
          CFI (cfiPicker15) NoFunction
          CFI (cfiPicker15) Picker
        MOV     DPTR,#pRxBuf
          CFI EndBlock cfiCond10
          CFI EndBlock cfiCond11
          CFI EndBlock cfiCond12
          CFI EndBlock cfiCond13
          CFI EndBlock cfiCond14
          CFI EndBlock cfiPicker15
        REQUIRE ??Subroutine22_0
        ; // Fall through to label ??Subroutine22_0

        RSEG BANKED_CODE:CODE:NOROOT(0)
??Subroutine22_0:
          CFI Block cfiCond16 Using cfiCommon0
          CFI Function rxAddrIsr
          CFI Conditional ??CrossCallReturnLabel_30, ??CrossCallReturnLabel_9
          CFI R6 load(1, XDATA, add(CFA_XSP16, literal(-9)))
          CFI VB load(1, XDATA, add(CFA_XSP16, literal(-8)))
          CFI V0 load(1, XDATA, add(CFA_XSP16, literal(-7)))
          CFI R7 load(1, XDATA, add(CFA_XSP16, literal(-6)))
          CFI ?RET_LOW load(1, XDATA, add(CFA_XSP16, literal(-5)))
          CFI ?RET_HIGH load(1, XDATA, add(CFA_XSP16, literal(-4)))
          CFI ?BRET_EXT load(1, XDATA, add(CFA_XSP16, literal(-3)))
          CFI DPL0 load(1, XDATA, add(CFA_XSP16, literal(-2)))
          CFI DPH0 load(1, XDATA, add(CFA_XSP16, literal(-1)))
          CFI CFA_SP SP+0
          CFI CFA_XSP16 add(XSP16, 29)
          CFI Block cfiCond17 Using cfiCommon0
          CFI (cfiCond17) Function rxAddrIsr
          CFI (cfiCond17) Conditional ??CrossCallReturnLabel_30, ??CrossCallReturnLabel_10
          CFI (cfiCond17) R6 load(1, XDATA, add(CFA_XSP16, literal(-9)))
          CFI (cfiCond17) VB load(1, XDATA, add(CFA_XSP16, literal(-8)))
          CFI (cfiCond17) V0 load(1, XDATA, add(CFA_XSP16, literal(-7)))
          CFI (cfiCond17) R7 load(1, XDATA, add(CFA_XSP16, literal(-6)))
          CFI (cfiCond17) ?RET_LOW load(1, XDATA, add(CFA_XSP16, literal(-5)))
          CFI (cfiCond17) ?RET_HIGH load(1, XDATA, add(CFA_XSP16, literal(-4)))
          CFI (cfiCond17) ?BRET_EXT load(1, XDATA, add(CFA_XSP16, literal(-3)))
          CFI (cfiCond17) DPL0 load(1, XDATA, add(CFA_XSP16, literal(-2)))
          CFI (cfiCond17) DPH0 load(1, XDATA, add(CFA_XSP16, literal(-1)))
          CFI (cfiCond17) CFA_SP SP+0
          CFI (cfiCond17) CFA_XSP16 add(XSP16, 29)
          CFI Block cfiCond18 Using cfiCommon0
          CFI (cfiCond18) Function rxPayloadIsr
          CFI (cfiCond18) Conditional ??CrossCallReturnLabel_29
          CFI (cfiCond18) DPL0 Frame(CFA_SP, 4)
          CFI (cfiCond18) DPH0 Frame(CFA_SP, 5)
          CFI (cfiCond18) CFA_SP SP+-5
          CFI Block cfiCond19 Using cfiCommon0
          CFI (cfiCond19) Function rxStartIsr
          CFI (cfiCond19) Conditional ??CrossCallReturnLabel_31
          CFI (cfiCond19) R6 load(1, XDATA, add(CFA_XSP16, literal(-15)))
          CFI (cfiCond19) VB load(1, XDATA, add(CFA_XSP16, literal(-14)))
          CFI (cfiCond19) V0 load(1, XDATA, add(CFA_XSP16, literal(-13)))
          CFI (cfiCond19) V1 load(1, XDATA, add(CFA_XSP16, literal(-12)))
          CFI (cfiCond19) V2 load(1, XDATA, add(CFA_XSP16, literal(-11)))
          CFI (cfiCond19) V3 load(1, XDATA, add(CFA_XSP16, literal(-10)))
          CFI (cfiCond19) V4 load(1, XDATA, add(CFA_XSP16, literal(-9)))
          CFI (cfiCond19) V5 load(1, XDATA, add(CFA_XSP16, literal(-8)))
          CFI (cfiCond19) V6 load(1, XDATA, add(CFA_XSP16, literal(-7)))
          CFI (cfiCond19) R7 load(1, XDATA, add(CFA_XSP16, literal(-6)))
          CFI (cfiCond19) ?RET_LOW load(1, XDATA, add(CFA_XSP16, literal(-5)))
          CFI (cfiCond19) ?RET_HIGH load(1, XDATA, add(CFA_XSP16, literal(-4)))
          CFI (cfiCond19) ?BRET_EXT load(1, XDATA, add(CFA_XSP16, literal(-3)))
          CFI (cfiCond19) DPL0 load(1, XDATA, add(CFA_XSP16, literal(-2)))
          CFI (cfiCond19) DPH0 load(1, XDATA, add(CFA_XSP16, literal(-1)))
          CFI (cfiCond19) CFA_SP SP+0
          CFI (cfiCond19) CFA_XSP16 add(XSP16, 17)
          CFI Block cfiCond20 Using cfiCommon0
          CFI (cfiCond20) Function rxAddrIsr
          CFI (cfiCond20) Conditional ??CrossCallReturnLabel_32, ??CrossCallReturnLabel_9
          CFI (cfiCond20) R6 load(1, XDATA, add(CFA_XSP16, literal(-9)))
          CFI (cfiCond20) VB load(1, XDATA, add(CFA_XSP16, literal(-8)))
          CFI (cfiCond20) V0 load(1, XDATA, add(CFA_XSP16, literal(-7)))
          CFI (cfiCond20) R7 load(1, XDATA, add(CFA_XSP16, literal(-6)))
          CFI (cfiCond20) ?RET_LOW load(1, XDATA, add(CFA_XSP16, literal(-5)))
          CFI (cfiCond20) ?RET_HIGH load(1, XDATA, add(CFA_XSP16, literal(-4)))
          CFI (cfiCond20) ?BRET_EXT load(1, XDATA, add(CFA_XSP16, literal(-3)))
          CFI (cfiCond20) DPL0 load(1, XDATA, add(CFA_XSP16, literal(-2)))
          CFI (cfiCond20) DPH0 load(1, XDATA, add(CFA_XSP16, literal(-1)))
          CFI (cfiCond20) CFA_SP SP+0
          CFI (cfiCond20) CFA_XSP16 add(XSP16, 29)
          CFI Block cfiCond21 Using cfiCommon0
          CFI (cfiCond21) Function rxAddrIsr
          CFI (cfiCond21) Conditional ??CrossCallReturnLabel_32, ??CrossCallReturnLabel_10
          CFI (cfiCond21) R6 load(1, XDATA, add(CFA_XSP16, literal(-9)))
          CFI (cfiCond21) VB load(1, XDATA, add(CFA_XSP16, literal(-8)))
          CFI (cfiCond21) V0 load(1, XDATA, add(CFA_XSP16, literal(-7)))
          CFI (cfiCond21) R7 load(1, XDATA, add(CFA_XSP16, literal(-6)))
          CFI (cfiCond21) ?RET_LOW load(1, XDATA, add(CFA_XSP16, literal(-5)))
          CFI (cfiCond21) ?RET_HIGH load(1, XDATA, add(CFA_XSP16, literal(-4)))
          CFI (cfiCond21) ?BRET_EXT load(1, XDATA, add(CFA_XSP16, literal(-3)))
          CFI (cfiCond21) DPL0 load(1, XDATA, add(CFA_XSP16, literal(-2)))
          CFI (cfiCond21) DPH0 load(1, XDATA, add(CFA_XSP16, literal(-1)))
          CFI (cfiCond21) CFA_SP SP+0
          CFI (cfiCond21) CFA_XSP16 add(XSP16, 29)
          CFI Block cfiCond22 Using cfiCommon0
          CFI (cfiCond22) Function rxAddrIsr
          CFI (cfiCond22) Conditional ??CrossCallReturnLabel_33
          CFI (cfiCond22) R6 load(1, XDATA, add(CFA_XSP16, literal(-9)))
          CFI (cfiCond22) VB load(1, XDATA, add(CFA_XSP16, literal(-8)))
          CFI (cfiCond22) V0 load(1, XDATA, add(CFA_XSP16, literal(-7)))
          CFI (cfiCond22) R7 load(1, XDATA, add(CFA_XSP16, literal(-6)))
          CFI (cfiCond22) ?RET_LOW load(1, XDATA, add(CFA_XSP16, literal(-5)))
          CFI (cfiCond22) ?RET_HIGH load(1, XDATA, add(CFA_XSP16, literal(-4)))
          CFI (cfiCond22) ?BRET_EXT load(1, XDATA, add(CFA_XSP16, literal(-3)))
          CFI (cfiCond22) DPL0 load(1, XDATA, add(CFA_XSP16, literal(-2)))
          CFI (cfiCond22) DPH0 load(1, XDATA, add(CFA_XSP16, literal(-1)))
          CFI (cfiCond22) CFA_SP SP+0
          CFI (cfiCond22) CFA_XSP16 add(XSP16, 29)
          CFI Block cfiCond23 Using cfiCommon0
          CFI (cfiCond23) Function rxFcsIsr
          CFI (cfiCond23) Conditional ??CrossCallReturnLabel_34
          CFI (cfiCond23) R6 load(1, XDATA, add(CFA_XSP16, literal(-10)))
          CFI (cfiCond23) VB load(1, XDATA, add(CFA_XSP16, literal(-9)))
          CFI (cfiCond23) V0 load(1, XDATA, add(CFA_XSP16, literal(-8)))
          CFI (cfiCond23) V1 load(1, XDATA, add(CFA_XSP16, literal(-7)))
          CFI (cfiCond23) R7 load(1, XDATA, add(CFA_XSP16, literal(-6)))
          CFI (cfiCond23) ?RET_LOW load(1, XDATA, add(CFA_XSP16, literal(-5)))
          CFI (cfiCond23) ?RET_HIGH load(1, XDATA, add(CFA_XSP16, literal(-4)))
          CFI (cfiCond23) ?BRET_EXT load(1, XDATA, add(CFA_XSP16, literal(-3)))
          CFI (cfiCond23) DPL0 load(1, XDATA, add(CFA_XSP16, literal(-2)))
          CFI (cfiCond23) DPH0 load(1, XDATA, add(CFA_XSP16, literal(-1)))
          CFI (cfiCond23) CFA_SP SP+0
          CFI (cfiCond23) CFA_XSP16 add(XSP16, 10)
          CFI Block cfiPicker24 Using cfiCommon1
          CFI (cfiPicker24) NoFunction
          CFI (cfiPicker24) Picker
        MOVX    A,@DPTR
        MOV     R2,A
        INC     DPTR
        MOVX    A,@DPTR
        RET
          CFI EndBlock cfiCond16
          CFI EndBlock cfiCond17
          CFI EndBlock cfiCond18
          CFI EndBlock cfiCond19
          CFI EndBlock cfiCond20
          CFI EndBlock cfiCond21
          CFI EndBlock cfiCond22
          CFI EndBlock cfiCond23
          CFI EndBlock cfiPicker24

        RSEG BANKED_CODE:CODE:NOROOT(0)
?Subroutine14:
          CFI Block cfiCond25 Using cfiCommon0
          CFI Function rxStartIsr
          CFI Conditional ??CrossCallReturnLabel_21
          CFI R6 load(1, XDATA, add(CFA_XSP16, literal(-15)))
          CFI VB load(1, XDATA, add(CFA_XSP16, literal(-14)))
          CFI V0 load(1, XDATA, add(CFA_XSP16, literal(-13)))
          CFI V1 load(1, XDATA, add(CFA_XSP16, literal(-12)))
          CFI V2 load(1, XDATA, add(CFA_XSP16, literal(-11)))
          CFI V3 load(1, XDATA, add(CFA_XSP16, literal(-10)))
          CFI V4 load(1, XDATA, add(CFA_XSP16, literal(-9)))
          CFI V5 load(1, XDATA, add(CFA_XSP16, literal(-8)))
          CFI V6 load(1, XDATA, add(CFA_XSP16, literal(-7)))
          CFI R7 load(1, XDATA, add(CFA_XSP16, literal(-6)))
          CFI ?RET_LOW load(1, XDATA, add(CFA_XSP16, literal(-5)))
          CFI ?RET_HIGH load(1, XDATA, add(CFA_XSP16, literal(-4)))
          CFI ?BRET_EXT load(1, XDATA, add(CFA_XSP16, literal(-3)))
          CFI DPL0 load(1, XDATA, add(CFA_XSP16, literal(-2)))
          CFI DPH0 load(1, XDATA, add(CFA_XSP16, literal(-1)))
          CFI CFA_SP SP+0
          CFI CFA_XSP16 add(XSP16, 17)
          CFI Block cfiCond26 Using cfiCommon0
          CFI (cfiCond26) Function rxStartIsr
          CFI (cfiCond26) Conditional ??CrossCallReturnLabel_22
          CFI (cfiCond26) R6 load(1, XDATA, add(CFA_XSP16, literal(-15)))
          CFI (cfiCond26) VB load(1, XDATA, add(CFA_XSP16, literal(-14)))
          CFI (cfiCond26) V0 load(1, XDATA, add(CFA_XSP16, literal(-13)))
          CFI (cfiCond26) V1 load(1, XDATA, add(CFA_XSP16, literal(-12)))
          CFI (cfiCond26) V2 load(1, XDATA, add(CFA_XSP16, literal(-11)))
          CFI (cfiCond26) V3 load(1, XDATA, add(CFA_XSP16, literal(-10)))
          CFI (cfiCond26) V4 load(1, XDATA, add(CFA_XSP16, literal(-9)))
          CFI (cfiCond26) V5 load(1, XDATA, add(CFA_XSP16, literal(-8)))
          CFI (cfiCond26) V6 load(1, XDATA, add(CFA_XSP16, literal(-7)))
          CFI (cfiCond26) R7 load(1, XDATA, add(CFA_XSP16, literal(-6)))
          CFI (cfiCond26) ?RET_LOW load(1, XDATA, add(CFA_XSP16, literal(-5)))
          CFI (cfiCond26) ?RET_HIGH load(1, XDATA, add(CFA_XSP16, literal(-4)))
          CFI (cfiCond26) ?BRET_EXT load(1, XDATA, add(CFA_XSP16, literal(-3)))
          CFI (cfiCond26) DPL0 load(1, XDATA, add(CFA_XSP16, literal(-2)))
          CFI (cfiCond26) DPH0 load(1, XDATA, add(CFA_XSP16, literal(-1)))
          CFI (cfiCond26) CFA_SP SP+0
          CFI (cfiCond26) CFA_XSP16 add(XSP16, 17)
          CFI Block cfiPicker27 Using cfiCommon1
          CFI (cfiPicker27) NoFunction
          CFI (cfiPicker27) Picker
        MOV     A,#macRxAddrLen & 0xff
        ADD     A,?V0 + 0
        MOV     DPL,A
        MOV     A,#(macRxAddrLen >> 8) & 0xff
        ADDC    A,#0x0
        MOV     DPH,A
        CLR     A
        MOVC    A,@A+DPTR
        RET
          CFI EndBlock cfiCond25
          CFI EndBlock cfiCond26
          CFI EndBlock cfiPicker27

        RSEG BANKED_CODE:CODE:NOROOT(0)
?Subroutine9:
          CFI Block cfiCond28 Using cfiCommon0
          CFI Function rxStartIsr
          CFI Conditional ??CrossCallReturnLabel_13
          CFI R6 load(1, XDATA, add(CFA_XSP16, literal(-15)))
          CFI VB load(1, XDATA, add(CFA_XSP16, literal(-14)))
          CFI V0 load(1, XDATA, add(CFA_XSP16, literal(-13)))
          CFI V1 load(1, XDATA, add(CFA_XSP16, literal(-12)))
          CFI V2 load(1, XDATA, add(CFA_XSP16, literal(-11)))
          CFI V3 load(1, XDATA, add(CFA_XSP16, literal(-10)))
          CFI V4 load(1, XDATA, add(CFA_XSP16, literal(-9)))
          CFI V5 load(1, XDATA, add(CFA_XSP16, literal(-8)))
          CFI V6 load(1, XDATA, add(CFA_XSP16, literal(-7)))
          CFI R7 load(1, XDATA, add(CFA_XSP16, literal(-6)))
          CFI ?RET_LOW load(1, XDATA, add(CFA_XSP16, literal(-5)))
          CFI ?RET_HIGH load(1, XDATA, add(CFA_XSP16, literal(-4)))
          CFI ?BRET_EXT load(1, XDATA, add(CFA_XSP16, literal(-3)))
          CFI DPL0 load(1, XDATA, add(CFA_XSP16, literal(-2)))
          CFI DPH0 load(1, XDATA, add(CFA_XSP16, literal(-1)))
          CFI CFA_SP SP+-1
          CFI CFA_XSP16 add(XSP16, 17)
          CFI Block cfiCond29 Using cfiCommon0
          CFI (cfiCond29) Function rxStartIsr
          CFI (cfiCond29) Conditional ??CrossCallReturnLabel_14
          CFI (cfiCond29) R6 load(1, XDATA, add(CFA_XSP16, literal(-15)))
          CFI (cfiCond29) VB load(1, XDATA, add(CFA_XSP16, literal(-14)))
          CFI (cfiCond29) V0 load(1, XDATA, add(CFA_XSP16, literal(-13)))
          CFI (cfiCond29) V1 load(1, XDATA, add(CFA_XSP16, literal(-12)))
          CFI (cfiCond29) V2 load(1, XDATA, add(CFA_XSP16, literal(-11)))
          CFI (cfiCond29) V3 load(1, XDATA, add(CFA_XSP16, literal(-10)))
          CFI (cfiCond29) V4 load(1, XDATA, add(CFA_XSP16, literal(-9)))
          CFI (cfiCond29) V5 load(1, XDATA, add(CFA_XSP16, literal(-8)))
          CFI (cfiCond29) V6 load(1, XDATA, add(CFA_XSP16, literal(-7)))
          CFI (cfiCond29) R7 load(1, XDATA, add(CFA_XSP16, literal(-6)))
          CFI (cfiCond29) ?RET_LOW load(1, XDATA, add(CFA_XSP16, literal(-5)))
          CFI (cfiCond29) ?RET_HIGH load(1, XDATA, add(CFA_XSP16, literal(-4)))
          CFI (cfiCond29) ?BRET_EXT load(1, XDATA, add(CFA_XSP16, literal(-3)))
          CFI (cfiCond29) DPL0 load(1, XDATA, add(CFA_XSP16, literal(-2)))
          CFI (cfiCond29) DPH0 load(1, XDATA, add(CFA_XSP16, literal(-1)))
          CFI (cfiCond29) CFA_SP SP+-1
          CFI (cfiCond29) CFA_XSP16 add(XSP16, 17)
          CFI Block cfiPicker30 Using cfiCommon1
          CFI (cfiPicker30) NoFunction
          CFI (cfiPicker30) Picker
        LCALL   ?Subroutine17 & 0xFFFF
??CrossCallReturnLabel_25:
        INC     DPTR
        INC     DPTR
        RET
          CFI EndBlock cfiCond28
          CFI EndBlock cfiCond29
          CFI EndBlock cfiPicker30

        RSEG BANKED_CODE:CODE:NOROOT(0)
?Subroutine6:
          CFI Block cfiCond31 Using cfiCommon0
          CFI Function macRxRadioPowerUpInit
          CFI Conditional ??CrossCallReturnLabel_7
          CFI DPL0 Frame(CFA_SP, 4)
          CFI DPH0 Frame(CFA_SP, 5)
          CFI CFA_SP SP+-5
          CFI Block cfiCond32 Using cfiCommon0
          CFI (cfiCond32) Function rxStartIsr
          CFI (cfiCond32) Conditional ??CrossCallReturnLabel_8
          CFI (cfiCond32) R6 load(1, XDATA, add(CFA_XSP16, literal(-15)))
          CFI (cfiCond32) VB load(1, XDATA, add(CFA_XSP16, literal(-14)))
          CFI (cfiCond32) V0 load(1, XDATA, add(CFA_XSP16, literal(-13)))
          CFI (cfiCond32) V1 load(1, XDATA, add(CFA_XSP16, literal(-12)))
          CFI (cfiCond32) V2 load(1, XDATA, add(CFA_XSP16, literal(-11)))
          CFI (cfiCond32) V3 load(1, XDATA, add(CFA_XSP16, literal(-10)))
          CFI (cfiCond32) V4 load(1, XDATA, add(CFA_XSP16, literal(-9)))
          CFI (cfiCond32) V5 load(1, XDATA, add(CFA_XSP16, literal(-8)))
          CFI (cfiCond32) V6 load(1, XDATA, add(CFA_XSP16, literal(-7)))
          CFI (cfiCond32) R7 load(1, XDATA, add(CFA_XSP16, literal(-6)))
          CFI (cfiCond32) ?RET_LOW load(1, XDATA, add(CFA_XSP16, literal(-5)))
          CFI (cfiCond32) ?RET_HIGH load(1, XDATA, add(CFA_XSP16, literal(-4)))
          CFI (cfiCond32) ?BRET_EXT load(1, XDATA, add(CFA_XSP16, literal(-3)))
          CFI (cfiCond32) DPL0 load(1, XDATA, add(CFA_XSP16, literal(-2)))
          CFI (cfiCond32) DPH0 load(1, XDATA, add(CFA_XSP16, literal(-1)))
          CFI (cfiCond32) CFA_SP SP+0
          CFI (cfiCond32) CFA_XSP16 add(XSP16, 17)
          CFI Block cfiPicker33 Using cfiCommon1
          CFI (cfiPicker33) NoFunction
          CFI (cfiPicker33) Picker
        MOVX    @DPTR,A
        MOV     A,0xa8
        CLR     0xa8.7
        MOV     0x9b,#0x0
        RET
          CFI EndBlock cfiCond31
          CFI EndBlock cfiCond32
          CFI EndBlock cfiPicker33

        RSEG BANKED_CODE:CODE:NOROOT(0)
?Subroutine5:
          CFI Block cfiCond34 Using cfiCommon0
          CFI Function rxStartIsr
          CFI Conditional ??CrossCallReturnLabel_5
          CFI R6 load(1, XDATA, add(CFA_XSP16, literal(-15)))
          CFI VB load(1, XDATA, add(CFA_XSP16, literal(-14)))
          CFI V0 load(1, XDATA, add(CFA_XSP16, literal(-13)))
          CFI V1 load(1, XDATA, add(CFA_XSP16, literal(-12)))
          CFI V2 load(1, XDATA, add(CFA_XSP16, literal(-11)))
          CFI V3 load(1, XDATA, add(CFA_XSP16, literal(-10)))
          CFI V4 load(1, XDATA, add(CFA_XSP16, literal(-9)))
          CFI V5 load(1, XDATA, add(CFA_XSP16, literal(-8)))
          CFI V6 load(1, XDATA, add(CFA_XSP16, literal(-7)))
          CFI R7 load(1, XDATA, add(CFA_XSP16, literal(-6)))
          CFI ?RET_LOW load(1, XDATA, add(CFA_XSP16, literal(-5)))
          CFI ?RET_HIGH load(1, XDATA, add(CFA_XSP16, literal(-4)))
          CFI ?BRET_EXT load(1, XDATA, add(CFA_XSP16, literal(-3)))
          CFI DPL0 load(1, XDATA, add(CFA_XSP16, literal(-2)))
          CFI DPH0 load(1, XDATA, add(CFA_XSP16, literal(-1)))
          CFI CFA_SP SP+0
          CFI CFA_XSP16 add(XSP16, 17)
          CFI Block cfiCond35 Using cfiCommon0
          CFI (cfiCond35) Function rxStartIsr
          CFI (cfiCond35) Conditional ??CrossCallReturnLabel_6
          CFI (cfiCond35) R6 load(1, XDATA, add(CFA_XSP16, literal(-15)))
          CFI (cfiCond35) VB load(1, XDATA, add(CFA_XSP16, literal(-14)))
          CFI (cfiCond35) V0 load(1, XDATA, add(CFA_XSP16, literal(-13)))
          CFI (cfiCond35) V1 load(1, XDATA, add(CFA_XSP16, literal(-12)))
          CFI (cfiCond35) V2 load(1, XDATA, add(CFA_XSP16, literal(-11)))
          CFI (cfiCond35) V3 load(1, XDATA, add(CFA_XSP16, literal(-10)))
          CFI (cfiCond35) V4 load(1, XDATA, add(CFA_XSP16, literal(-9)))
          CFI (cfiCond35) V5 load(1, XDATA, add(CFA_XSP16, literal(-8)))
          CFI (cfiCond35) V6 load(1, XDATA, add(CFA_XSP16, literal(-7)))
          CFI (cfiCond35) R7 load(1, XDATA, add(CFA_XSP16, literal(-6)))
          CFI (cfiCond35) ?RET_LOW load(1, XDATA, add(CFA_XSP16, literal(-5)))
          CFI (cfiCond35) ?RET_HIGH load(1, XDATA, add(CFA_XSP16, literal(-4)))
          CFI (cfiCond35) ?BRET_EXT load(1, XDATA, add(CFA_XSP16, literal(-3)))
          CFI (cfiCond35) DPL0 load(1, XDATA, add(CFA_XSP16, literal(-2)))
          CFI (cfiCond35) DPH0 load(1, XDATA, add(CFA_XSP16, literal(-1)))
          CFI (cfiCond35) CFA_SP SP+0
          CFI (cfiCond35) CFA_XSP16 add(XSP16, 17)
          CFI Block cfiPicker36 Using cfiCommon1
          CFI (cfiPicker36) NoFunction
          CFI (cfiPicker36) Picker
        MOVX    @DPTR,A
        MOV     DPTR,#pMacDataTx
        LCALL   ??Subroutine28_0 & 0xFFFF
??CrossCallReturnLabel_61:
        RET
          CFI EndBlock cfiCond34
          CFI EndBlock cfiCond35
          CFI EndBlock cfiPicker36

        RSEG BANKED_CODE:CODE:NOROOT(0)
//  783 static void rxAddrIsr(void)
rxAddrIsr:
          CFI Block cfiBlock37 Using cfiCommon0
          CFI Function rxAddrIsr
        CODE
//  784 {
        FUNCALL rxAddrIsr, halAssertHandler
        LOCFRAME ISTACK, 0, STACK
        LOCFRAME PSTACK, 0, STACK
        LOCFRAME XSTACK, 29, STACK
        LOCFRAME IOVERLAY, 0, STATIC
        LOCFRAME DOVERLAY, 0, STATIC
        ARGFRAME ISTACK, 0, STACK
        ARGFRAME PSTACK, 0, STACK
        ARGFRAME XSTACK, 29, STACK
        ARGFRAME IOVERLAY, 0, STATIC
        ARGFRAME DOVERLAY, 0, STATIC
        FUNCALL rxAddrIsr, macMemReadRxFifo
        LOCFRAME ISTACK, 0, STACK
        LOCFRAME PSTACK, 0, STACK
        LOCFRAME XSTACK, 29, STACK
        LOCFRAME IOVERLAY, 0, STATIC
        LOCFRAME DOVERLAY, 0, STATIC
        ARGFRAME ISTACK, 0, STACK
        ARGFRAME PSTACK, 0, STACK
        ARGFRAME XSTACK, 29, STACK
        ARGFRAME IOVERLAY, 0, STATIC
        ARGFRAME DOVERLAY, 0, STATIC
        FUNCALL rxAddrIsr, sAddrExtCpy
        LOCFRAME ISTACK, 0, STACK
        LOCFRAME PSTACK, 0, STACK
        LOCFRAME XSTACK, 29, STACK
        LOCFRAME IOVERLAY, 0, STATIC
        LOCFRAME DOVERLAY, 0, STATIC
        ARGFRAME ISTACK, 0, STACK
        ARGFRAME PSTACK, 0, STACK
        ARGFRAME XSTACK, 29, STACK
        ARGFRAME IOVERLAY, 0, STATIC
        ARGFRAME DOVERLAY, 0, STATIC
        FUNCALL rxAddrIsr, sAddrExtCpy
        LOCFRAME ISTACK, 0, STACK
        LOCFRAME PSTACK, 0, STACK
        LOCFRAME XSTACK, 29, STACK
        LOCFRAME IOVERLAY, 0, STATIC
        LOCFRAME DOVERLAY, 0, STATIC
        ARGFRAME ISTACK, 0, STACK
        ARGFRAME PSTACK, 0, STACK
        ARGFRAME XSTACK, 29, STACK
        ARGFRAME IOVERLAY, 0, STATIC
        ARGFRAME DOVERLAY, 0, STATIC
        FUNCALL rxAddrIsr, rxPrepPayload
        LOCFRAME ISTACK, 0, STACK
        LOCFRAME PSTACK, 0, STACK
        LOCFRAME XSTACK, 29, STACK
        LOCFRAME IOVERLAY, 0, STATIC
        LOCFRAME DOVERLAY, 0, STATIC
        ARGFRAME ISTACK, 0, STACK
        ARGFRAME PSTACK, 0, STACK
        ARGFRAME XSTACK, 29, STACK
        ARGFRAME IOVERLAY, 0, STATIC
        ARGFRAME DOVERLAY, 0, STATIC
        MOV     A,#-0x9
        LCALL   ?BANKED_ENTER_XDATA
          CFI DPH0 load(1, XDATA, add(CFA_XSP16, literal(-1)))
          CFI DPL0 load(1, XDATA, add(CFA_XSP16, literal(-2)))
          CFI ?BRET_EXT load(1, XDATA, add(CFA_XSP16, literal(-3)))
          CFI ?RET_HIGH load(1, XDATA, add(CFA_XSP16, literal(-4)))
          CFI ?RET_LOW load(1, XDATA, add(CFA_XSP16, literal(-5)))
          CFI R7 load(1, XDATA, add(CFA_XSP16, literal(-6)))
          CFI V0 load(1, XDATA, add(CFA_XSP16, literal(-7)))
          CFI VB load(1, XDATA, add(CFA_XSP16, literal(-8)))
          CFI R6 load(1, XDATA, add(CFA_XSP16, literal(-9)))
          CFI CFA_SP SP+0
          CFI CFA_XSP16 add(XSP16, 9)
        ; Saved register size: 9
        ; Auto size: 20
        MOV     A,#-0x14
        LCALL   ?ALLOC_XSTACK8
          CFI CFA_XSP16 add(XSP16, 29)
//  785   uint8 buf[MAX_ADDR_FIELDS_LEN];
//  786   uint8 dstAddrMode;
//  787   uint8 srcAddrMode;
//  788   uint8  * p;
//  789 
//  790   MAC_ASSERT(rxNextLen != 0); /* logic assumes at least one address byte in buffer */
        MOV     DPTR,#rxNextLen
        MOVX    A,@DPTR
        JNZ     ??rxAddrIsr_0
        ; Setup parameters for call to function halAssertHandler
        LCALL   ??halAssertHandler?relay
//  791 
//  792   /*  read out address fields into local buffer in one shot */
//  793   MAC_RADIO_READ_RX_FIFO(buf, rxNextLen);
??rxAddrIsr_0:
        ; Setup parameters for call to function macMemReadRxFifo
        LCALL   ?Subroutine10 & 0xFFFF
??CrossCallReturnLabel_15:
        LCALL   ??macMemReadRxFifo?relay
//  794 
//  795   /* set pointer to buffer with addressing fields */
//  796   p = buf;
        MOV     DPL,?XSP + 0
        MOV     DPH,?XSP + 1
        MOV     R4,DPL
        MOV     R5,DPH
//  797 
//  798   /* destination address */
//  799   dstAddrMode = MAC_DEST_ADDR_MODE(&rxBuf[1]);
        MOV     DPTR,#rxBuf + 2
        MOVX    A,@DPTR
        RRC     A
        RRC     A
        ANL     A,#0x3f
        ANL     A,#0x3
        MOV     R6,A
//  800   if (dstAddrMode != SADDR_MODE_NONE)
        JZ      ??rxAddrIsr_1
//  801   {
//  802     pRxBuf->mac.srcPanId = pRxBuf->mac.dstPanId = BUILD_UINT16(p[0], p[1]);
        MOV     DPTR,#pRxBuf
        MOVX    A,@DPTR
        ADD     A,#0x2c
        MOV     R0,A
        INC     DPTR
        MOVX    A,@DPTR
        ADDC    A,#0x0
        MOV     R1,A
        MOV     DPL,?XSP + 0
        MOV     DPH,?XSP + 1
        MOVX    A,@DPTR
        MOV     R4,A
        MOV     A,#0x1
        LCALL   ?XSTACK_DISP0_8
        MOVX    A,@DPTR
        MOV     R3,A
        MOV     A,R4
        MOV     DPL,R0
        MOV     DPH,R1
        MOVX    @DPTR,A
        INC     DPTR
        MOV     A,R3
        MOVX    @DPTR,A
        MOV     DPL,R0
        MOV     DPH,R1
        MOVX    A,@DPTR
        MOV     R0,A
        INC     DPTR
        MOVX    A,@DPTR
        LCALL   ?Subroutine19 & 0xFFFF
??CrossCallReturnLabel_33:
        XCH     A,R2
        ADD     A,#0x2a
        MOV     DPL,A
        MOV     A,R2
        LCALL   ??Subroutine23_0 & 0xFFFF
??CrossCallReturnLabel_36:
        LCALL   ?Subroutine4 & 0xFFFF
//  803     p += MAC_PAN_ID_FIELD_LEN;
//  804     if (dstAddrMode == SADDR_MODE_EXT)
??CrossCallReturnLabel_53:
        ADD     A,#0x1b
        MOV     R2,A
        INC     DPTR
        MOVX    A,@DPTR
        ADDC    A,#0x0
        MOV     R3,A
        MOV     A,#0x3
        XRL     A,R6
        JNZ     ??rxAddrIsr_2
//  805     {
//  806       sAddrExtCpy(pRxBuf->mac.dstAddr.addr.extAddr, p);
        ; Setup parameters for call to function sAddrExtCpy
        MOV     A,#0x2
        LCALL   ?XSTACK_DISP0_8
        MOV     R4,DPL
        MOV     R5,DPH
        LCALL   ??sAddrExtCpy?relay
//  807       p += MAC_EXT_ADDR_FIELD_LEN;
        MOV     A,#0xa
        SJMP    ??rxAddrIsr_3
//  808     }
//  809     else
//  810     {
//  811       pRxBuf->mac.dstAddr.addr.shortAddr = BUILD_UINT16(p[0], p[1]);
??rxAddrIsr_2:
        MOV     A,#0x2
        LCALL   ?XSTACK_DISP0_8
        MOVX    A,@DPTR
        MOV     R4,A
        MOV     A,#0x3
        LCALL   ?XSTACK_DISP0_8
        MOVX    A,@DPTR
        MOV     R1,A
        MOV     A,R4
        MOV     DPL,R2
        MOV     DPH,R3
        MOVX    @DPTR,A
        INC     DPTR
        MOV     A,R1
        MOVX    @DPTR,A
//  812       p += MAC_SHORT_ADDR_FIELD_LEN;
        MOV     A,#0x4
??rxAddrIsr_3:
        LCALL   ?XSTACK_DISP0_8
        MOV     R4,DPL
        MOV     R5,DPH
//  813     }
//  814   }
//  815 
//  816   /* sources address */
//  817   srcAddrMode = MAC_SRC_ADDR_MODE(&rxBuf[1]);
??rxAddrIsr_1:
        MOV     DPTR,#rxBuf + 2
        MOVX    A,@DPTR
        SWAP    A
        RRC     A
        RRC     A
        ANL     A,#0x3
        MOV     R6,A
//  818   if (srcAddrMode != SADDR_MODE_NONE)
        JZ      ??CrossCallReturnLabel_24
//  819   {
//  820     if (!(pRxBuf->internal.flags & MAC_RX_FLAG_INTRA_PAN))
        LCALL   ?Subroutine8 & 0xFFFF
??CrossCallReturnLabel_12:
        MOVX    A,@DPTR
        MOV     C,0xE0 /* A   */.6
        JC      ??rxAddrIsr_4
//  821     {
//  822       pRxBuf->mac.srcPanId = BUILD_UINT16(p[0], p[1]);
        LCALL   ?Subroutine7 & 0xFFFF
??CrossCallReturnLabel_9:
        ADD     A,#0x2a
        LCALL   ?Subroutine15 & 0xFFFF
//  823       p += MAC_PAN_ID_FIELD_LEN;
??CrossCallReturnLabel_23:
        MOV     A,R4
        ADD     A,#0x2
        MOV     R4,A
        MOV     A,R5
        ADDC    A,#0x0
        MOV     R5,A
//  824     }
//  825     if (srcAddrMode == SADDR_MODE_EXT)
??rxAddrIsr_4:
        MOV     A,#0x3
        XRL     A,R6
        JNZ     ??rxAddrIsr_5
//  826     {
//  827       sAddrExtCpy(pRxBuf->mac.srcAddr.addr.extAddr, p);
        ; Setup parameters for call to function sAddrExtCpy
        MOV     DPTR,#pRxBuf
        MOVX    A,@DPTR
        ADD     A,#0x12
        MOV     R2,A
        INC     DPTR
        MOVX    A,@DPTR
        ADDC    A,#0x0
        MOV     R3,A
        LCALL   ??sAddrExtCpy?relay
        SJMP    ??CrossCallReturnLabel_24
//  828     }
//  829     else
//  830     {
//  831       pRxBuf->mac.srcAddr.addr.shortAddr = BUILD_UINT16(p[0], p[1]);
??rxAddrIsr_5:
        LCALL   ?Subroutine7 & 0xFFFF
//  832     }
//  833   }
??CrossCallReturnLabel_10:
        ADD     A,#0x12
        LCALL   ?Subroutine15 & 0xFFFF
//  834 
//  835   /*-------------------------------------------------------------------------------
//  836    *  Prepare for payload interrupts.
//  837    */
//  838   pFuncRxState = &rxPayloadIsr;
??CrossCallReturnLabel_24:
        MOV     DPTR,#pFuncRxState
        MOV     A,#??rxPayloadIsr?relay & 0xff
        MOVX    @DPTR,A
        INC     DPTR
        MOV     A,#(??rxPayloadIsr?relay >> 8) & 0xff
        MOVX    @DPTR,A
//  839   rxPrepPayload();
        ; Setup parameters for call to function rxPrepPayload
        LCALL   ??rxPrepPayload?relay
//  840 }
        MOV     A,#0x14
        LCALL   ?DEALLOC_XSTACK8
          CFI EndBlock cfiBlock37
        REQUIRE ?Subroutine1
        ; // Fall through to label ?Subroutine1

        RSEG BANKED_CODE:CODE:NOROOT(0)
?Subroutine1:
          CFI Block cfiBlock38 Using cfiCommon0
          CFI NoFunction
          CFI CFA_SP SP+0
          CFI CFA_XSP16 add(XSP16, 9)
          CFI VB load(1, XDATA, add(CFA_XSP16, literal(-8)))
          CFI DPL0 load(1, XDATA, add(CFA_XSP16, literal(-2)))
          CFI DPH0 load(1, XDATA, add(CFA_XSP16, literal(-1)))
          CFI R6 load(1, XDATA, add(CFA_XSP16, literal(-9)))
          CFI R7 load(1, XDATA, add(CFA_XSP16, literal(-6)))
          CFI V0 load(1, XDATA, add(CFA_XSP16, literal(-7)))
          CFI ?BRET_EXT load(1, XDATA, add(CFA_XSP16, literal(-3)))
          CFI ?RET_HIGH load(1, XDATA, add(CFA_XSP16, literal(-4)))
          CFI ?RET_LOW load(1, XDATA, add(CFA_XSP16, literal(-5)))
        MOV     R7,#0x1
        LJMP    ?BANKED_LEAVE_XDATA
          CFI EndBlock cfiBlock38

        RSEG BANKED_CODE:CODE:NOROOT(0)
?Subroutine16:
          CFI Block cfiCond39 Using cfiCommon0
          CFI Function rxStartIsr
          CFI Conditional ??CrossCallReturnLabel_38
          CFI R6 load(1, XDATA, add(CFA_XSP16, literal(-15)))
          CFI VB load(1, XDATA, add(CFA_XSP16, literal(-14)))
          CFI V0 load(1, XDATA, add(CFA_XSP16, literal(-13)))
          CFI V1 load(1, XDATA, add(CFA_XSP16, literal(-12)))
          CFI V2 load(1, XDATA, add(CFA_XSP16, literal(-11)))
          CFI V3 load(1, XDATA, add(CFA_XSP16, literal(-10)))
          CFI V4 load(1, XDATA, add(CFA_XSP16, literal(-9)))
          CFI V5 load(1, XDATA, add(CFA_XSP16, literal(-8)))
          CFI V6 load(1, XDATA, add(CFA_XSP16, literal(-7)))
          CFI R7 load(1, XDATA, add(CFA_XSP16, literal(-6)))
          CFI ?RET_LOW load(1, XDATA, add(CFA_XSP16, literal(-5)))
          CFI ?RET_HIGH load(1, XDATA, add(CFA_XSP16, literal(-4)))
          CFI ?BRET_EXT load(1, XDATA, add(CFA_XSP16, literal(-3)))
          CFI DPL0 load(1, XDATA, add(CFA_XSP16, literal(-2)))
          CFI DPH0 load(1, XDATA, add(CFA_XSP16, literal(-1)))
          CFI CFA_SP SP+0
          CFI CFA_XSP16 add(XSP16, 17)
          CFI Block cfiCond40 Using cfiCommon0
          CFI (cfiCond40) Function rxStartIsr
          CFI (cfiCond40) Conditional ??CrossCallReturnLabel_39
          CFI (cfiCond40) R6 load(1, XDATA, add(CFA_XSP16, literal(-15)))
          CFI (cfiCond40) VB load(1, XDATA, add(CFA_XSP16, literal(-14)))
          CFI (cfiCond40) V0 load(1, XDATA, add(CFA_XSP16, literal(-13)))
          CFI (cfiCond40) V1 load(1, XDATA, add(CFA_XSP16, literal(-12)))
          CFI (cfiCond40) V2 load(1, XDATA, add(CFA_XSP16, literal(-11)))
          CFI (cfiCond40) V3 load(1, XDATA, add(CFA_XSP16, literal(-10)))
          CFI (cfiCond40) V4 load(1, XDATA, add(CFA_XSP16, literal(-9)))
          CFI (cfiCond40) V5 load(1, XDATA, add(CFA_XSP16, literal(-8)))
          CFI (cfiCond40) V6 load(1, XDATA, add(CFA_XSP16, literal(-7)))
          CFI (cfiCond40) R7 load(1, XDATA, add(CFA_XSP16, literal(-6)))
          CFI (cfiCond40) ?RET_LOW load(1, XDATA, add(CFA_XSP16, literal(-5)))
          CFI (cfiCond40) ?RET_HIGH load(1, XDATA, add(CFA_XSP16, literal(-4)))
          CFI (cfiCond40) ?BRET_EXT load(1, XDATA, add(CFA_XSP16, literal(-3)))
          CFI (cfiCond40) DPL0 load(1, XDATA, add(CFA_XSP16, literal(-2)))
          CFI (cfiCond40) DPH0 load(1, XDATA, add(CFA_XSP16, literal(-1)))
          CFI (cfiCond40) CFA_SP SP+0
          CFI (cfiCond40) CFA_XSP16 add(XSP16, 17)
          CFI Block cfiCond41 Using cfiCommon0
          CFI (cfiCond41) Function rxStartIsr
          CFI (cfiCond41) Conditional ??CrossCallReturnLabel_40
          CFI (cfiCond41) R6 load(1, XDATA, add(CFA_XSP16, literal(-15)))
          CFI (cfiCond41) VB load(1, XDATA, add(CFA_XSP16, literal(-14)))
          CFI (cfiCond41) V0 load(1, XDATA, add(CFA_XSP16, literal(-13)))
          CFI (cfiCond41) V1 load(1, XDATA, add(CFA_XSP16, literal(-12)))
          CFI (cfiCond41) V2 load(1, XDATA, add(CFA_XSP16, literal(-11)))
          CFI (cfiCond41) V3 load(1, XDATA, add(CFA_XSP16, literal(-10)))
          CFI (cfiCond41) V4 load(1, XDATA, add(CFA_XSP16, literal(-9)))
          CFI (cfiCond41) V5 load(1, XDATA, add(CFA_XSP16, literal(-8)))
          CFI (cfiCond41) V6 load(1, XDATA, add(CFA_XSP16, literal(-7)))
          CFI (cfiCond41) R7 load(1, XDATA, add(CFA_XSP16, literal(-6)))
          CFI (cfiCond41) ?RET_LOW load(1, XDATA, add(CFA_XSP16, literal(-5)))
          CFI (cfiCond41) ?RET_HIGH load(1, XDATA, add(CFA_XSP16, literal(-4)))
          CFI (cfiCond41) ?BRET_EXT load(1, XDATA, add(CFA_XSP16, literal(-3)))
          CFI (cfiCond41) DPL0 load(1, XDATA, add(CFA_XSP16, literal(-2)))
          CFI (cfiCond41) DPH0 load(1, XDATA, add(CFA_XSP16, literal(-1)))
          CFI (cfiCond41) CFA_SP SP+0
          CFI (cfiCond41) CFA_XSP16 add(XSP16, 17)
          CFI Block cfiCond42 Using cfiCommon0
          CFI (cfiCond42) Function rxStartIsr
          CFI (cfiCond42) Conditional ??CrossCallReturnLabel_41
          CFI (cfiCond42) R6 load(1, XDATA, add(CFA_XSP16, literal(-15)))
          CFI (cfiCond42) VB load(1, XDATA, add(CFA_XSP16, literal(-14)))
          CFI (cfiCond42) V0 load(1, XDATA, add(CFA_XSP16, literal(-13)))
          CFI (cfiCond42) V1 load(1, XDATA, add(CFA_XSP16, literal(-12)))
          CFI (cfiCond42) V2 load(1, XDATA, add(CFA_XSP16, literal(-11)))
          CFI (cfiCond42) V3 load(1, XDATA, add(CFA_XSP16, literal(-10)))
          CFI (cfiCond42) V4 load(1, XDATA, add(CFA_XSP16, literal(-9)))
          CFI (cfiCond42) V5 load(1, XDATA, add(CFA_XSP16, literal(-8)))
          CFI (cfiCond42) V6 load(1, XDATA, add(CFA_XSP16, literal(-7)))
          CFI (cfiCond42) R7 load(1, XDATA, add(CFA_XSP16, literal(-6)))
          CFI (cfiCond42) ?RET_LOW load(1, XDATA, add(CFA_XSP16, literal(-5)))
          CFI (cfiCond42) ?RET_HIGH load(1, XDATA, add(CFA_XSP16, literal(-4)))
          CFI (cfiCond42) ?BRET_EXT load(1, XDATA, add(CFA_XSP16, literal(-3)))
          CFI (cfiCond42) DPL0 load(1, XDATA, add(CFA_XSP16, literal(-2)))
          CFI (cfiCond42) DPH0 load(1, XDATA, add(CFA_XSP16, literal(-1)))
          CFI (cfiCond42) CFA_SP SP+0
          CFI (cfiCond42) CFA_XSP16 add(XSP16, 17)
          CFI Block cfiCond43 Using cfiCommon0
          CFI (cfiCond43) Function rxStartIsr
          CFI (cfiCond43) Conditional ??CrossCallReturnLabel_42
          CFI (cfiCond43) R6 load(1, XDATA, add(CFA_XSP16, literal(-15)))
          CFI (cfiCond43) VB load(1, XDATA, add(CFA_XSP16, literal(-14)))
          CFI (cfiCond43) V0 load(1, XDATA, add(CFA_XSP16, literal(-13)))
          CFI (cfiCond43) V1 load(1, XDATA, add(CFA_XSP16, literal(-12)))
          CFI (cfiCond43) V2 load(1, XDATA, add(CFA_XSP16, literal(-11)))
          CFI (cfiCond43) V3 load(1, XDATA, add(CFA_XSP16, literal(-10)))
          CFI (cfiCond43) V4 load(1, XDATA, add(CFA_XSP16, literal(-9)))
          CFI (cfiCond43) V5 load(1, XDATA, add(CFA_XSP16, literal(-8)))
          CFI (cfiCond43) V6 load(1, XDATA, add(CFA_XSP16, literal(-7)))
          CFI (cfiCond43) R7 load(1, XDATA, add(CFA_XSP16, literal(-6)))
          CFI (cfiCond43) ?RET_LOW load(1, XDATA, add(CFA_XSP16, literal(-5)))
          CFI (cfiCond43) ?RET_HIGH load(1, XDATA, add(CFA_XSP16, literal(-4)))
          CFI (cfiCond43) ?BRET_EXT load(1, XDATA, add(CFA_XSP16, literal(-3)))
          CFI (cfiCond43) DPL0 load(1, XDATA, add(CFA_XSP16, literal(-2)))
          CFI (cfiCond43) DPH0 load(1, XDATA, add(CFA_XSP16, literal(-1)))
          CFI (cfiCond43) CFA_SP SP+0
          CFI (cfiCond43) CFA_XSP16 add(XSP16, 17)
          CFI Block cfiCond44 Using cfiCommon0
          CFI (cfiCond44) Function rxStartIsr
          CFI (cfiCond44) Conditional ??CrossCallReturnLabel_43
          CFI (cfiCond44) R6 load(1, XDATA, add(CFA_XSP16, literal(-15)))
          CFI (cfiCond44) VB load(1, XDATA, add(CFA_XSP16, literal(-14)))
          CFI (cfiCond44) V0 load(1, XDATA, add(CFA_XSP16, literal(-13)))
          CFI (cfiCond44) V1 load(1, XDATA, add(CFA_XSP16, literal(-12)))
          CFI (cfiCond44) V2 load(1, XDATA, add(CFA_XSP16, literal(-11)))
          CFI (cfiCond44) V3 load(1, XDATA, add(CFA_XSP16, literal(-10)))
          CFI (cfiCond44) V4 load(1, XDATA, add(CFA_XSP16, literal(-9)))
          CFI (cfiCond44) V5 load(1, XDATA, add(CFA_XSP16, literal(-8)))
          CFI (cfiCond44) V6 load(1, XDATA, add(CFA_XSP16, literal(-7)))
          CFI (cfiCond44) R7 load(1, XDATA, add(CFA_XSP16, literal(-6)))
          CFI (cfiCond44) ?RET_LOW load(1, XDATA, add(CFA_XSP16, literal(-5)))
          CFI (cfiCond44) ?RET_HIGH load(1, XDATA, add(CFA_XSP16, literal(-4)))
          CFI (cfiCond44) ?BRET_EXT load(1, XDATA, add(CFA_XSP16, literal(-3)))
          CFI (cfiCond44) DPL0 load(1, XDATA, add(CFA_XSP16, literal(-2)))
          CFI (cfiCond44) DPH0 load(1, XDATA, add(CFA_XSP16, literal(-1)))
          CFI (cfiCond44) CFA_SP SP+0
          CFI (cfiCond44) CFA_XSP16 add(XSP16, 17)
          CFI Block cfiCond45 Using cfiCommon0
          CFI (cfiCond45) Function rxStartIsr
          CFI (cfiCond45) Conditional ??CrossCallReturnLabel_44
          CFI (cfiCond45) R6 load(1, XDATA, add(CFA_XSP16, literal(-15)))
          CFI (cfiCond45) VB load(1, XDATA, add(CFA_XSP16, literal(-14)))
          CFI (cfiCond45) V0 load(1, XDATA, add(CFA_XSP16, literal(-13)))
          CFI (cfiCond45) V1 load(1, XDATA, add(CFA_XSP16, literal(-12)))
          CFI (cfiCond45) V2 load(1, XDATA, add(CFA_XSP16, literal(-11)))
          CFI (cfiCond45) V3 load(1, XDATA, add(CFA_XSP16, literal(-10)))
          CFI (cfiCond45) V4 load(1, XDATA, add(CFA_XSP16, literal(-9)))
          CFI (cfiCond45) V5 load(1, XDATA, add(CFA_XSP16, literal(-8)))
          CFI (cfiCond45) V6 load(1, XDATA, add(CFA_XSP16, literal(-7)))
          CFI (cfiCond45) R7 load(1, XDATA, add(CFA_XSP16, literal(-6)))
          CFI (cfiCond45) ?RET_LOW load(1, XDATA, add(CFA_XSP16, literal(-5)))
          CFI (cfiCond45) ?RET_HIGH load(1, XDATA, add(CFA_XSP16, literal(-4)))
          CFI (cfiCond45) ?BRET_EXT load(1, XDATA, add(CFA_XSP16, literal(-3)))
          CFI (cfiCond45) DPL0 load(1, XDATA, add(CFA_XSP16, literal(-2)))
          CFI (cfiCond45) DPH0 load(1, XDATA, add(CFA_XSP16, literal(-1)))
          CFI (cfiCond45) CFA_SP SP+-1
          CFI (cfiCond45) CFA_XSP16 add(XSP16, 17)
          CFI Block cfiCond46 Using cfiCommon0
          CFI (cfiCond46) Function rxStartIsr
          CFI (cfiCond46) Conditional ??CrossCallReturnLabel_45
          CFI (cfiCond46) R6 load(1, XDATA, add(CFA_XSP16, literal(-15)))
          CFI (cfiCond46) VB load(1, XDATA, add(CFA_XSP16, literal(-14)))
          CFI (cfiCond46) V0 load(1, XDATA, add(CFA_XSP16, literal(-13)))
          CFI (cfiCond46) V1 load(1, XDATA, add(CFA_XSP16, literal(-12)))
          CFI (cfiCond46) V2 load(1, XDATA, add(CFA_XSP16, literal(-11)))
          CFI (cfiCond46) V3 load(1, XDATA, add(CFA_XSP16, literal(-10)))
          CFI (cfiCond46) V4 load(1, XDATA, add(CFA_XSP16, literal(-9)))
          CFI (cfiCond46) V5 load(1, XDATA, add(CFA_XSP16, literal(-8)))
          CFI (cfiCond46) V6 load(1, XDATA, add(CFA_XSP16, literal(-7)))
          CFI (cfiCond46) R7 load(1, XDATA, add(CFA_XSP16, literal(-6)))
          CFI (cfiCond46) ?RET_LOW load(1, XDATA, add(CFA_XSP16, literal(-5)))
          CFI (cfiCond46) ?RET_HIGH load(1, XDATA, add(CFA_XSP16, literal(-4)))
          CFI (cfiCond46) ?BRET_EXT load(1, XDATA, add(CFA_XSP16, literal(-3)))
          CFI (cfiCond46) DPL0 load(1, XDATA, add(CFA_XSP16, literal(-2)))
          CFI (cfiCond46) DPH0 load(1, XDATA, add(CFA_XSP16, literal(-1)))
          CFI (cfiCond46) CFA_SP SP+0
          CFI (cfiCond46) CFA_XSP16 add(XSP16, 17)
          CFI Block cfiCond47 Using cfiCommon0
          CFI (cfiCond47) Function rxFcsIsr
          CFI (cfiCond47) Conditional ??CrossCallReturnLabel_46
          CFI (cfiCond47) R6 load(1, XDATA, add(CFA_XSP16, literal(-10)))
          CFI (cfiCond47) VB load(1, XDATA, add(CFA_XSP16, literal(-9)))
          CFI (cfiCond47) V0 load(1, XDATA, add(CFA_XSP16, literal(-8)))
          CFI (cfiCond47) V1 load(1, XDATA, add(CFA_XSP16, literal(-7)))
          CFI (cfiCond47) R7 load(1, XDATA, add(CFA_XSP16, literal(-6)))
          CFI (cfiCond47) ?RET_LOW load(1, XDATA, add(CFA_XSP16, literal(-5)))
          CFI (cfiCond47) ?RET_HIGH load(1, XDATA, add(CFA_XSP16, literal(-4)))
          CFI (cfiCond47) ?BRET_EXT load(1, XDATA, add(CFA_XSP16, literal(-3)))
          CFI (cfiCond47) DPL0 load(1, XDATA, add(CFA_XSP16, literal(-2)))
          CFI (cfiCond47) DPH0 load(1, XDATA, add(CFA_XSP16, literal(-1)))
          CFI (cfiCond47) CFA_SP SP+0
          CFI (cfiCond47) CFA_XSP16 add(XSP16, 10)
          CFI Block cfiCond48 Using cfiCommon0
          CFI (cfiCond48) Function rxFcsIsr
          CFI (cfiCond48) Conditional ??CrossCallReturnLabel_47
          CFI (cfiCond48) R6 load(1, XDATA, add(CFA_XSP16, literal(-10)))
          CFI (cfiCond48) VB load(1, XDATA, add(CFA_XSP16, literal(-9)))
          CFI (cfiCond48) V0 load(1, XDATA, add(CFA_XSP16, literal(-8)))
          CFI (cfiCond48) V1 load(1, XDATA, add(CFA_XSP16, literal(-7)))
          CFI (cfiCond48) R7 load(1, XDATA, add(CFA_XSP16, literal(-6)))
          CFI (cfiCond48) ?RET_LOW load(1, XDATA, add(CFA_XSP16, literal(-5)))
          CFI (cfiCond48) ?RET_HIGH load(1, XDATA, add(CFA_XSP16, literal(-4)))
          CFI (cfiCond48) ?BRET_EXT load(1, XDATA, add(CFA_XSP16, literal(-3)))
          CFI (cfiCond48) DPL0 load(1, XDATA, add(CFA_XSP16, literal(-2)))
          CFI (cfiCond48) DPH0 load(1, XDATA, add(CFA_XSP16, literal(-1)))
          CFI (cfiCond48) CFA_SP SP+0
          CFI (cfiCond48) CFA_XSP16 add(XSP16, 10)
          CFI Block cfiCond49 Using cfiCommon0
          CFI (cfiCond49) Function rxFcsIsr
          CFI (cfiCond49) Conditional ??CrossCallReturnLabel_48
          CFI (cfiCond49) R6 load(1, XDATA, add(CFA_XSP16, literal(-10)))
          CFI (cfiCond49) VB load(1, XDATA, add(CFA_XSP16, literal(-9)))
          CFI (cfiCond49) V0 load(1, XDATA, add(CFA_XSP16, literal(-8)))
          CFI (cfiCond49) V1 load(1, XDATA, add(CFA_XSP16, literal(-7)))
          CFI (cfiCond49) R7 load(1, XDATA, add(CFA_XSP16, literal(-6)))
          CFI (cfiCond49) ?RET_LOW load(1, XDATA, add(CFA_XSP16, literal(-5)))
          CFI (cfiCond49) ?RET_HIGH load(1, XDATA, add(CFA_XSP16, literal(-4)))
          CFI (cfiCond49) ?BRET_EXT load(1, XDATA, add(CFA_XSP16, literal(-3)))
          CFI (cfiCond49) DPL0 load(1, XDATA, add(CFA_XSP16, literal(-2)))
          CFI (cfiCond49) DPH0 load(1, XDATA, add(CFA_XSP16, literal(-1)))
          CFI (cfiCond49) CFA_SP SP+0
          CFI (cfiCond49) CFA_XSP16 add(XSP16, 10)
          CFI Block cfiPicker50 Using cfiCommon1
          CFI (cfiPicker50) NoFunction
          CFI (cfiPicker50) Picker
        MOV     DPL,A
        MOV     A,R0
          CFI EndBlock cfiCond39
          CFI EndBlock cfiCond40
          CFI EndBlock cfiCond41
          CFI EndBlock cfiCond42
          CFI EndBlock cfiCond43
          CFI EndBlock cfiCond44
          CFI EndBlock cfiCond45
          CFI EndBlock cfiCond46
          CFI EndBlock cfiCond47
          CFI EndBlock cfiCond48
          CFI EndBlock cfiCond49
          CFI EndBlock cfiPicker50
        REQUIRE ??Subroutine23_0
        ; // Fall through to label ??Subroutine23_0

        RSEG BANKED_CODE:CODE:NOROOT(0)
??Subroutine23_0:
          CFI Block cfiCond51 Using cfiCommon0
          CFI Function rxStartIsr
          CFI Conditional ??CrossCallReturnLabel_35
          CFI R6 load(1, XDATA, add(CFA_XSP16, literal(-15)))
          CFI VB load(1, XDATA, add(CFA_XSP16, literal(-14)))
          CFI V0 load(1, XDATA, add(CFA_XSP16, literal(-13)))
          CFI V1 load(1, XDATA, add(CFA_XSP16, literal(-12)))
          CFI V2 load(1, XDATA, add(CFA_XSP16, literal(-11)))
          CFI V3 load(1, XDATA, add(CFA_XSP16, literal(-10)))
          CFI V4 load(1, XDATA, add(CFA_XSP16, literal(-9)))
          CFI V5 load(1, XDATA, add(CFA_XSP16, literal(-8)))
          CFI V6 load(1, XDATA, add(CFA_XSP16, literal(-7)))
          CFI R7 load(1, XDATA, add(CFA_XSP16, literal(-6)))
          CFI ?RET_LOW load(1, XDATA, add(CFA_XSP16, literal(-5)))
          CFI ?RET_HIGH load(1, XDATA, add(CFA_XSP16, literal(-4)))
          CFI ?BRET_EXT load(1, XDATA, add(CFA_XSP16, literal(-3)))
          CFI DPL0 load(1, XDATA, add(CFA_XSP16, literal(-2)))
          CFI DPH0 load(1, XDATA, add(CFA_XSP16, literal(-1)))
          CFI CFA_SP SP+0
          CFI CFA_XSP16 add(XSP16, 17)
          CFI Block cfiCond52 Using cfiCommon0
          CFI (cfiCond52) Function rxAddrIsr
          CFI (cfiCond52) Conditional ??CrossCallReturnLabel_36
          CFI (cfiCond52) R6 load(1, XDATA, add(CFA_XSP16, literal(-9)))
          CFI (cfiCond52) VB load(1, XDATA, add(CFA_XSP16, literal(-8)))
          CFI (cfiCond52) V0 load(1, XDATA, add(CFA_XSP16, literal(-7)))
          CFI (cfiCond52) R7 load(1, XDATA, add(CFA_XSP16, literal(-6)))
          CFI (cfiCond52) ?RET_LOW load(1, XDATA, add(CFA_XSP16, literal(-5)))
          CFI (cfiCond52) ?RET_HIGH load(1, XDATA, add(CFA_XSP16, literal(-4)))
          CFI (cfiCond52) ?BRET_EXT load(1, XDATA, add(CFA_XSP16, literal(-3)))
          CFI (cfiCond52) DPL0 load(1, XDATA, add(CFA_XSP16, literal(-2)))
          CFI (cfiCond52) DPH0 load(1, XDATA, add(CFA_XSP16, literal(-1)))
          CFI (cfiCond52) CFA_SP SP+0
          CFI (cfiCond52) CFA_XSP16 add(XSP16, 29)
          CFI Block cfiCond53 Using cfiCommon0
          CFI (cfiCond53) Function rxFcsIsr
          CFI (cfiCond53) Conditional ??CrossCallReturnLabel_37
          CFI (cfiCond53) R6 load(1, XDATA, add(CFA_XSP16, literal(-10)))
          CFI (cfiCond53) VB load(1, XDATA, add(CFA_XSP16, literal(-9)))
          CFI (cfiCond53) V0 load(1, XDATA, add(CFA_XSP16, literal(-8)))
          CFI (cfiCond53) V1 load(1, XDATA, add(CFA_XSP16, literal(-7)))
          CFI (cfiCond53) R7 load(1, XDATA, add(CFA_XSP16, literal(-6)))
          CFI (cfiCond53) ?RET_LOW load(1, XDATA, add(CFA_XSP16, literal(-5)))
          CFI (cfiCond53) ?RET_HIGH load(1, XDATA, add(CFA_XSP16, literal(-4)))
          CFI (cfiCond53) ?BRET_EXT load(1, XDATA, add(CFA_XSP16, literal(-3)))
          CFI (cfiCond53) DPL0 load(1, XDATA, add(CFA_XSP16, literal(-2)))
          CFI (cfiCond53) DPH0 load(1, XDATA, add(CFA_XSP16, literal(-1)))
          CFI (cfiCond53) CFA_SP SP+0
          CFI (cfiCond53) CFA_XSP16 add(XSP16, 10)
          CFI Block cfiCond54 Using cfiCommon0
          CFI (cfiCond54) Function rxStartIsr
          CFI (cfiCond54) Conditional ??CrossCallReturnLabel_38
          CFI (cfiCond54) R6 load(1, XDATA, add(CFA_XSP16, literal(-15)))
          CFI (cfiCond54) VB load(1, XDATA, add(CFA_XSP16, literal(-14)))
          CFI (cfiCond54) V0 load(1, XDATA, add(CFA_XSP16, literal(-13)))
          CFI (cfiCond54) V1 load(1, XDATA, add(CFA_XSP16, literal(-12)))
          CFI (cfiCond54) V2 load(1, XDATA, add(CFA_XSP16, literal(-11)))
          CFI (cfiCond54) V3 load(1, XDATA, add(CFA_XSP16, literal(-10)))
          CFI (cfiCond54) V4 load(1, XDATA, add(CFA_XSP16, literal(-9)))
          CFI (cfiCond54) V5 load(1, XDATA, add(CFA_XSP16, literal(-8)))
          CFI (cfiCond54) V6 load(1, XDATA, add(CFA_XSP16, literal(-7)))
          CFI (cfiCond54) R7 load(1, XDATA, add(CFA_XSP16, literal(-6)))
          CFI (cfiCond54) ?RET_LOW load(1, XDATA, add(CFA_XSP16, literal(-5)))
          CFI (cfiCond54) ?RET_HIGH load(1, XDATA, add(CFA_XSP16, literal(-4)))
          CFI (cfiCond54) ?BRET_EXT load(1, XDATA, add(CFA_XSP16, literal(-3)))
          CFI (cfiCond54) DPL0 load(1, XDATA, add(CFA_XSP16, literal(-2)))
          CFI (cfiCond54) DPH0 load(1, XDATA, add(CFA_XSP16, literal(-1)))
          CFI (cfiCond54) CFA_SP SP+0
          CFI (cfiCond54) CFA_XSP16 add(XSP16, 17)
          CFI Block cfiCond55 Using cfiCommon0
          CFI (cfiCond55) Function rxStartIsr
          CFI (cfiCond55) Conditional ??CrossCallReturnLabel_39
          CFI (cfiCond55) R6 load(1, XDATA, add(CFA_XSP16, literal(-15)))
          CFI (cfiCond55) VB load(1, XDATA, add(CFA_XSP16, literal(-14)))
          CFI (cfiCond55) V0 load(1, XDATA, add(CFA_XSP16, literal(-13)))
          CFI (cfiCond55) V1 load(1, XDATA, add(CFA_XSP16, literal(-12)))
          CFI (cfiCond55) V2 load(1, XDATA, add(CFA_XSP16, literal(-11)))
          CFI (cfiCond55) V3 load(1, XDATA, add(CFA_XSP16, literal(-10)))
          CFI (cfiCond55) V4 load(1, XDATA, add(CFA_XSP16, literal(-9)))
          CFI (cfiCond55) V5 load(1, XDATA, add(CFA_XSP16, literal(-8)))
          CFI (cfiCond55) V6 load(1, XDATA, add(CFA_XSP16, literal(-7)))
          CFI (cfiCond55) R7 load(1, XDATA, add(CFA_XSP16, literal(-6)))
          CFI (cfiCond55) ?RET_LOW load(1, XDATA, add(CFA_XSP16, literal(-5)))
          CFI (cfiCond55) ?RET_HIGH load(1, XDATA, add(CFA_XSP16, literal(-4)))
          CFI (cfiCond55) ?BRET_EXT load(1, XDATA, add(CFA_XSP16, literal(-3)))
          CFI (cfiCond55) DPL0 load(1, XDATA, add(CFA_XSP16, literal(-2)))
          CFI (cfiCond55) DPH0 load(1, XDATA, add(CFA_XSP16, literal(-1)))
          CFI (cfiCond55) CFA_SP SP+0
          CFI (cfiCond55) CFA_XSP16 add(XSP16, 17)
          CFI Block cfiCond56 Using cfiCommon0
          CFI (cfiCond56) Function rxStartIsr
          CFI (cfiCond56) Conditional ??CrossCallReturnLabel_40
          CFI (cfiCond56) R6 load(1, XDATA, add(CFA_XSP16, literal(-15)))
          CFI (cfiCond56) VB load(1, XDATA, add(CFA_XSP16, literal(-14)))
          CFI (cfiCond56) V0 load(1, XDATA, add(CFA_XSP16, literal(-13)))
          CFI (cfiCond56) V1 load(1, XDATA, add(CFA_XSP16, literal(-12)))
          CFI (cfiCond56) V2 load(1, XDATA, add(CFA_XSP16, literal(-11)))
          CFI (cfiCond56) V3 load(1, XDATA, add(CFA_XSP16, literal(-10)))
          CFI (cfiCond56) V4 load(1, XDATA, add(CFA_XSP16, literal(-9)))
          CFI (cfiCond56) V5 load(1, XDATA, add(CFA_XSP16, literal(-8)))
          CFI (cfiCond56) V6 load(1, XDATA, add(CFA_XSP16, literal(-7)))
          CFI (cfiCond56) R7 load(1, XDATA, add(CFA_XSP16, literal(-6)))
          CFI (cfiCond56) ?RET_LOW load(1, XDATA, add(CFA_XSP16, literal(-5)))
          CFI (cfiCond56) ?RET_HIGH load(1, XDATA, add(CFA_XSP16, literal(-4)))
          CFI (cfiCond56) ?BRET_EXT load(1, XDATA, add(CFA_XSP16, literal(-3)))
          CFI (cfiCond56) DPL0 load(1, XDATA, add(CFA_XSP16, literal(-2)))
          CFI (cfiCond56) DPH0 load(1, XDATA, add(CFA_XSP16, literal(-1)))
          CFI (cfiCond56) CFA_SP SP+0
          CFI (cfiCond56) CFA_XSP16 add(XSP16, 17)
          CFI Block cfiCond57 Using cfiCommon0
          CFI (cfiCond57) Function rxStartIsr
          CFI (cfiCond57) Conditional ??CrossCallReturnLabel_41
          CFI (cfiCond57) R6 load(1, XDATA, add(CFA_XSP16, literal(-15)))
          CFI (cfiCond57) VB load(1, XDATA, add(CFA_XSP16, literal(-14)))
          CFI (cfiCond57) V0 load(1, XDATA, add(CFA_XSP16, literal(-13)))
          CFI (cfiCond57) V1 load(1, XDATA, add(CFA_XSP16, literal(-12)))
          CFI (cfiCond57) V2 load(1, XDATA, add(CFA_XSP16, literal(-11)))
          CFI (cfiCond57) V3 load(1, XDATA, add(CFA_XSP16, literal(-10)))
          CFI (cfiCond57) V4 load(1, XDATA, add(CFA_XSP16, literal(-9)))
          CFI (cfiCond57) V5 load(1, XDATA, add(CFA_XSP16, literal(-8)))
          CFI (cfiCond57) V6 load(1, XDATA, add(CFA_XSP16, literal(-7)))
          CFI (cfiCond57) R7 load(1, XDATA, add(CFA_XSP16, literal(-6)))
          CFI (cfiCond57) ?RET_LOW load(1, XDATA, add(CFA_XSP16, literal(-5)))
          CFI (cfiCond57) ?RET_HIGH load(1, XDATA, add(CFA_XSP16, literal(-4)))
          CFI (cfiCond57) ?BRET_EXT load(1, XDATA, add(CFA_XSP16, literal(-3)))
          CFI (cfiCond57) DPL0 load(1, XDATA, add(CFA_XSP16, literal(-2)))
          CFI (cfiCond57) DPH0 load(1, XDATA, add(CFA_XSP16, literal(-1)))
          CFI (cfiCond57) CFA_SP SP+0
          CFI (cfiCond57) CFA_XSP16 add(XSP16, 17)
          CFI Block cfiCond58 Using cfiCommon0
          CFI (cfiCond58) Function rxStartIsr
          CFI (cfiCond58) Conditional ??CrossCallReturnLabel_42
          CFI (cfiCond58) R6 load(1, XDATA, add(CFA_XSP16, literal(-15)))
          CFI (cfiCond58) VB load(1, XDATA, add(CFA_XSP16, literal(-14)))
          CFI (cfiCond58) V0 load(1, XDATA, add(CFA_XSP16, literal(-13)))
          CFI (cfiCond58) V1 load(1, XDATA, add(CFA_XSP16, literal(-12)))
          CFI (cfiCond58) V2 load(1, XDATA, add(CFA_XSP16, literal(-11)))
          CFI (cfiCond58) V3 load(1, XDATA, add(CFA_XSP16, literal(-10)))
          CFI (cfiCond58) V4 load(1, XDATA, add(CFA_XSP16, literal(-9)))
          CFI (cfiCond58) V5 load(1, XDATA, add(CFA_XSP16, literal(-8)))
          CFI (cfiCond58) V6 load(1, XDATA, add(CFA_XSP16, literal(-7)))
          CFI (cfiCond58) R7 load(1, XDATA, add(CFA_XSP16, literal(-6)))
          CFI (cfiCond58) ?RET_LOW load(1, XDATA, add(CFA_XSP16, literal(-5)))
          CFI (cfiCond58) ?RET_HIGH load(1, XDATA, add(CFA_XSP16, literal(-4)))
          CFI (cfiCond58) ?BRET_EXT load(1, XDATA, add(CFA_XSP16, literal(-3)))
          CFI (cfiCond58) DPL0 load(1, XDATA, add(CFA_XSP16, literal(-2)))
          CFI (cfiCond58) DPH0 load(1, XDATA, add(CFA_XSP16, literal(-1)))
          CFI (cfiCond58) CFA_SP SP+0
          CFI (cfiCond58) CFA_XSP16 add(XSP16, 17)
          CFI Block cfiCond59 Using cfiCommon0
          CFI (cfiCond59) Function rxStartIsr
          CFI (cfiCond59) Conditional ??CrossCallReturnLabel_43
          CFI (cfiCond59) R6 load(1, XDATA, add(CFA_XSP16, literal(-15)))
          CFI (cfiCond59) VB load(1, XDATA, add(CFA_XSP16, literal(-14)))
          CFI (cfiCond59) V0 load(1, XDATA, add(CFA_XSP16, literal(-13)))
          CFI (cfiCond59) V1 load(1, XDATA, add(CFA_XSP16, literal(-12)))
          CFI (cfiCond59) V2 load(1, XDATA, add(CFA_XSP16, literal(-11)))
          CFI (cfiCond59) V3 load(1, XDATA, add(CFA_XSP16, literal(-10)))
          CFI (cfiCond59) V4 load(1, XDATA, add(CFA_XSP16, literal(-9)))
          CFI (cfiCond59) V5 load(1, XDATA, add(CFA_XSP16, literal(-8)))
          CFI (cfiCond59) V6 load(1, XDATA, add(CFA_XSP16, literal(-7)))
          CFI (cfiCond59) R7 load(1, XDATA, add(CFA_XSP16, literal(-6)))
          CFI (cfiCond59) ?RET_LOW load(1, XDATA, add(CFA_XSP16, literal(-5)))
          CFI (cfiCond59) ?RET_HIGH load(1, XDATA, add(CFA_XSP16, literal(-4)))
          CFI (cfiCond59) ?BRET_EXT load(1, XDATA, add(CFA_XSP16, literal(-3)))
          CFI (cfiCond59) DPL0 load(1, XDATA, add(CFA_XSP16, literal(-2)))
          CFI (cfiCond59) DPH0 load(1, XDATA, add(CFA_XSP16, literal(-1)))
          CFI (cfiCond59) CFA_SP SP+0
          CFI (cfiCond59) CFA_XSP16 add(XSP16, 17)
          CFI Block cfiCond60 Using cfiCommon0
          CFI (cfiCond60) Function rxStartIsr
          CFI (cfiCond60) Conditional ??CrossCallReturnLabel_44
          CFI (cfiCond60) R6 load(1, XDATA, add(CFA_XSP16, literal(-15)))
          CFI (cfiCond60) VB load(1, XDATA, add(CFA_XSP16, literal(-14)))
          CFI (cfiCond60) V0 load(1, XDATA, add(CFA_XSP16, literal(-13)))
          CFI (cfiCond60) V1 load(1, XDATA, add(CFA_XSP16, literal(-12)))
          CFI (cfiCond60) V2 load(1, XDATA, add(CFA_XSP16, literal(-11)))
          CFI (cfiCond60) V3 load(1, XDATA, add(CFA_XSP16, literal(-10)))
          CFI (cfiCond60) V4 load(1, XDATA, add(CFA_XSP16, literal(-9)))
          CFI (cfiCond60) V5 load(1, XDATA, add(CFA_XSP16, literal(-8)))
          CFI (cfiCond60) V6 load(1, XDATA, add(CFA_XSP16, literal(-7)))
          CFI (cfiCond60) R7 load(1, XDATA, add(CFA_XSP16, literal(-6)))
          CFI (cfiCond60) ?RET_LOW load(1, XDATA, add(CFA_XSP16, literal(-5)))
          CFI (cfiCond60) ?RET_HIGH load(1, XDATA, add(CFA_XSP16, literal(-4)))
          CFI (cfiCond60) ?BRET_EXT load(1, XDATA, add(CFA_XSP16, literal(-3)))
          CFI (cfiCond60) DPL0 load(1, XDATA, add(CFA_XSP16, literal(-2)))
          CFI (cfiCond60) DPH0 load(1, XDATA, add(CFA_XSP16, literal(-1)))
          CFI (cfiCond60) CFA_SP SP+-1
          CFI (cfiCond60) CFA_XSP16 add(XSP16, 17)
          CFI Block cfiCond61 Using cfiCommon0
          CFI (cfiCond61) Function rxStartIsr
          CFI (cfiCond61) Conditional ??CrossCallReturnLabel_45
          CFI (cfiCond61) R6 load(1, XDATA, add(CFA_XSP16, literal(-15)))
          CFI (cfiCond61) VB load(1, XDATA, add(CFA_XSP16, literal(-14)))
          CFI (cfiCond61) V0 load(1, XDATA, add(CFA_XSP16, literal(-13)))
          CFI (cfiCond61) V1 load(1, XDATA, add(CFA_XSP16, literal(-12)))
          CFI (cfiCond61) V2 load(1, XDATA, add(CFA_XSP16, literal(-11)))
          CFI (cfiCond61) V3 load(1, XDATA, add(CFA_XSP16, literal(-10)))
          CFI (cfiCond61) V4 load(1, XDATA, add(CFA_XSP16, literal(-9)))
          CFI (cfiCond61) V5 load(1, XDATA, add(CFA_XSP16, literal(-8)))
          CFI (cfiCond61) V6 load(1, XDATA, add(CFA_XSP16, literal(-7)))
          CFI (cfiCond61) R7 load(1, XDATA, add(CFA_XSP16, literal(-6)))
          CFI (cfiCond61) ?RET_LOW load(1, XDATA, add(CFA_XSP16, literal(-5)))
          CFI (cfiCond61) ?RET_HIGH load(1, XDATA, add(CFA_XSP16, literal(-4)))
          CFI (cfiCond61) ?BRET_EXT load(1, XDATA, add(CFA_XSP16, literal(-3)))
          CFI (cfiCond61) DPL0 load(1, XDATA, add(CFA_XSP16, literal(-2)))
          CFI (cfiCond61) DPH0 load(1, XDATA, add(CFA_XSP16, literal(-1)))
          CFI (cfiCond61) CFA_SP SP+0
          CFI (cfiCond61) CFA_XSP16 add(XSP16, 17)
          CFI Block cfiCond62 Using cfiCommon0
          CFI (cfiCond62) Function rxFcsIsr
          CFI (cfiCond62) Conditional ??CrossCallReturnLabel_46
          CFI (cfiCond62) R6 load(1, XDATA, add(CFA_XSP16, literal(-10)))
          CFI (cfiCond62) VB load(1, XDATA, add(CFA_XSP16, literal(-9)))
          CFI (cfiCond62) V0 load(1, XDATA, add(CFA_XSP16, literal(-8)))
          CFI (cfiCond62) V1 load(1, XDATA, add(CFA_XSP16, literal(-7)))
          CFI (cfiCond62) R7 load(1, XDATA, add(CFA_XSP16, literal(-6)))
          CFI (cfiCond62) ?RET_LOW load(1, XDATA, add(CFA_XSP16, literal(-5)))
          CFI (cfiCond62) ?RET_HIGH load(1, XDATA, add(CFA_XSP16, literal(-4)))
          CFI (cfiCond62) ?BRET_EXT load(1, XDATA, add(CFA_XSP16, literal(-3)))
          CFI (cfiCond62) DPL0 load(1, XDATA, add(CFA_XSP16, literal(-2)))
          CFI (cfiCond62) DPH0 load(1, XDATA, add(CFA_XSP16, literal(-1)))
          CFI (cfiCond62) CFA_SP SP+0
          CFI (cfiCond62) CFA_XSP16 add(XSP16, 10)
          CFI Block cfiCond63 Using cfiCommon0
          CFI (cfiCond63) Function rxFcsIsr
          CFI (cfiCond63) Conditional ??CrossCallReturnLabel_47
          CFI (cfiCond63) R6 load(1, XDATA, add(CFA_XSP16, literal(-10)))
          CFI (cfiCond63) VB load(1, XDATA, add(CFA_XSP16, literal(-9)))
          CFI (cfiCond63) V0 load(1, XDATA, add(CFA_XSP16, literal(-8)))
          CFI (cfiCond63) V1 load(1, XDATA, add(CFA_XSP16, literal(-7)))
          CFI (cfiCond63) R7 load(1, XDATA, add(CFA_XSP16, literal(-6)))
          CFI (cfiCond63) ?RET_LOW load(1, XDATA, add(CFA_XSP16, literal(-5)))
          CFI (cfiCond63) ?RET_HIGH load(1, XDATA, add(CFA_XSP16, literal(-4)))
          CFI (cfiCond63) ?BRET_EXT load(1, XDATA, add(CFA_XSP16, literal(-3)))
          CFI (cfiCond63) DPL0 load(1, XDATA, add(CFA_XSP16, literal(-2)))
          CFI (cfiCond63) DPH0 load(1, XDATA, add(CFA_XSP16, literal(-1)))
          CFI (cfiCond63) CFA_SP SP+0
          CFI (cfiCond63) CFA_XSP16 add(XSP16, 10)
          CFI Block cfiCond64 Using cfiCommon0
          CFI (cfiCond64) Function rxFcsIsr
          CFI (cfiCond64) Conditional ??CrossCallReturnLabel_48
          CFI (cfiCond64) R6 load(1, XDATA, add(CFA_XSP16, literal(-10)))
          CFI (cfiCond64) VB load(1, XDATA, add(CFA_XSP16, literal(-9)))
          CFI (cfiCond64) V0 load(1, XDATA, add(CFA_XSP16, literal(-8)))
          CFI (cfiCond64) V1 load(1, XDATA, add(CFA_XSP16, literal(-7)))
          CFI (cfiCond64) R7 load(1, XDATA, add(CFA_XSP16, literal(-6)))
          CFI (cfiCond64) ?RET_LOW load(1, XDATA, add(CFA_XSP16, literal(-5)))
          CFI (cfiCond64) ?RET_HIGH load(1, XDATA, add(CFA_XSP16, literal(-4)))
          CFI (cfiCond64) ?BRET_EXT load(1, XDATA, add(CFA_XSP16, literal(-3)))
          CFI (cfiCond64) DPL0 load(1, XDATA, add(CFA_XSP16, literal(-2)))
          CFI (cfiCond64) DPH0 load(1, XDATA, add(CFA_XSP16, literal(-1)))
          CFI (cfiCond64) CFA_SP SP+0
          CFI (cfiCond64) CFA_XSP16 add(XSP16, 10)
          CFI Block cfiPicker65 Using cfiCommon1
          CFI (cfiPicker65) NoFunction
          CFI (cfiPicker65) Picker
        ADDC    A,#0x0
        MOV     DPH,A
        RET
          CFI EndBlock cfiCond51
          CFI EndBlock cfiCond52
          CFI EndBlock cfiCond53
          CFI EndBlock cfiCond54
          CFI EndBlock cfiCond55
          CFI EndBlock cfiCond56
          CFI EndBlock cfiCond57
          CFI EndBlock cfiCond58
          CFI EndBlock cfiCond59
          CFI EndBlock cfiCond60
          CFI EndBlock cfiCond61
          CFI EndBlock cfiCond62
          CFI EndBlock cfiCond63
          CFI EndBlock cfiCond64
          CFI EndBlock cfiPicker65

        RSEG BANKED_CODE:CODE:NOROOT(0)
?Subroutine15:
          CFI Block cfiCond66 Using cfiCommon0
          CFI Function rxAddrIsr
          CFI Conditional ??CrossCallReturnLabel_23
          CFI R6 load(1, XDATA, add(CFA_XSP16, literal(-9)))
          CFI VB load(1, XDATA, add(CFA_XSP16, literal(-8)))
          CFI V0 load(1, XDATA, add(CFA_XSP16, literal(-7)))
          CFI R7 load(1, XDATA, add(CFA_XSP16, literal(-6)))
          CFI ?RET_LOW load(1, XDATA, add(CFA_XSP16, literal(-5)))
          CFI ?RET_HIGH load(1, XDATA, add(CFA_XSP16, literal(-4)))
          CFI ?BRET_EXT load(1, XDATA, add(CFA_XSP16, literal(-3)))
          CFI DPL0 load(1, XDATA, add(CFA_XSP16, literal(-2)))
          CFI DPH0 load(1, XDATA, add(CFA_XSP16, literal(-1)))
          CFI CFA_SP SP+0
          CFI CFA_XSP16 add(XSP16, 29)
          CFI Block cfiCond67 Using cfiCommon0
          CFI (cfiCond67) Function rxAddrIsr
          CFI (cfiCond67) Conditional ??CrossCallReturnLabel_24
          CFI (cfiCond67) R6 load(1, XDATA, add(CFA_XSP16, literal(-9)))
          CFI (cfiCond67) VB load(1, XDATA, add(CFA_XSP16, literal(-8)))
          CFI (cfiCond67) V0 load(1, XDATA, add(CFA_XSP16, literal(-7)))
          CFI (cfiCond67) R7 load(1, XDATA, add(CFA_XSP16, literal(-6)))
          CFI (cfiCond67) ?RET_LOW load(1, XDATA, add(CFA_XSP16, literal(-5)))
          CFI (cfiCond67) ?RET_HIGH load(1, XDATA, add(CFA_XSP16, literal(-4)))
          CFI (cfiCond67) ?BRET_EXT load(1, XDATA, add(CFA_XSP16, literal(-3)))
          CFI (cfiCond67) DPL0 load(1, XDATA, add(CFA_XSP16, literal(-2)))
          CFI (cfiCond67) DPH0 load(1, XDATA, add(CFA_XSP16, literal(-1)))
          CFI (cfiCond67) CFA_SP SP+0
          CFI (cfiCond67) CFA_XSP16 add(XSP16, 29)
          CFI Block cfiPicker68 Using cfiCommon1
          CFI (cfiPicker68) NoFunction
          CFI (cfiPicker68) Picker
        MOV     DPL,A
        MOV     A,R2
        ADDC    A,#0x0
        MOV     DPH,A
        MOV     A,R0
        MOVX    @DPTR,A
        INC     DPTR
        MOV     A,R1
        MOVX    @DPTR,A
        RET
          CFI EndBlock cfiCond66
          CFI EndBlock cfiCond67
          CFI EndBlock cfiPicker68

        RSEG BANKED_CODE:CODE:NOROOT(0)
?Subroutine8:
          CFI Block cfiCond69 Using cfiCommon0
          CFI Function rxStartIsr
          CFI Conditional ??CrossCallReturnLabel_11
          CFI R6 load(1, XDATA, add(CFA_XSP16, literal(-15)))
          CFI VB load(1, XDATA, add(CFA_XSP16, literal(-14)))
          CFI V0 load(1, XDATA, add(CFA_XSP16, literal(-13)))
          CFI V1 load(1, XDATA, add(CFA_XSP16, literal(-12)))
          CFI V2 load(1, XDATA, add(CFA_XSP16, literal(-11)))
          CFI V3 load(1, XDATA, add(CFA_XSP16, literal(-10)))
          CFI V4 load(1, XDATA, add(CFA_XSP16, literal(-9)))
          CFI V5 load(1, XDATA, add(CFA_XSP16, literal(-8)))
          CFI V6 load(1, XDATA, add(CFA_XSP16, literal(-7)))
          CFI R7 load(1, XDATA, add(CFA_XSP16, literal(-6)))
          CFI ?RET_LOW load(1, XDATA, add(CFA_XSP16, literal(-5)))
          CFI ?RET_HIGH load(1, XDATA, add(CFA_XSP16, literal(-4)))
          CFI ?BRET_EXT load(1, XDATA, add(CFA_XSP16, literal(-3)))
          CFI DPL0 load(1, XDATA, add(CFA_XSP16, literal(-2)))
          CFI DPH0 load(1, XDATA, add(CFA_XSP16, literal(-1)))
          CFI CFA_SP SP+-1
          CFI CFA_XSP16 add(XSP16, 17)
          CFI Block cfiCond70 Using cfiCommon0
          CFI (cfiCond70) Function rxAddrIsr
          CFI (cfiCond70) Conditional ??CrossCallReturnLabel_12
          CFI (cfiCond70) R6 load(1, XDATA, add(CFA_XSP16, literal(-9)))
          CFI (cfiCond70) VB load(1, XDATA, add(CFA_XSP16, literal(-8)))
          CFI (cfiCond70) V0 load(1, XDATA, add(CFA_XSP16, literal(-7)))
          CFI (cfiCond70) R7 load(1, XDATA, add(CFA_XSP16, literal(-6)))
          CFI (cfiCond70) ?RET_LOW load(1, XDATA, add(CFA_XSP16, literal(-5)))
          CFI (cfiCond70) ?RET_HIGH load(1, XDATA, add(CFA_XSP16, literal(-4)))
          CFI (cfiCond70) ?BRET_EXT load(1, XDATA, add(CFA_XSP16, literal(-3)))
          CFI (cfiCond70) DPL0 load(1, XDATA, add(CFA_XSP16, literal(-2)))
          CFI (cfiCond70) DPH0 load(1, XDATA, add(CFA_XSP16, literal(-1)))
          CFI (cfiCond70) CFA_SP SP+0
          CFI (cfiCond70) CFA_XSP16 add(XSP16, 29)
          CFI Block cfiPicker71 Using cfiCommon1
          CFI (cfiPicker71) NoFunction
          CFI (cfiPicker71) Picker
        LCALL   ?Subroutine18 & 0xFFFF
??CrossCallReturnLabel_63:
        ADD     A,#0x6
        MOV     DPL,A
        MOV     A,R0
        ADDC    A,#0x0
        MOV     DPH,A
        RET
          CFI EndBlock cfiCond69
          CFI EndBlock cfiCond70
          CFI EndBlock cfiPicker71

        RSEG BANKED_CODE:CODE:NOROOT(0)
?Subroutine7:
          CFI Block cfiCond72 Using cfiCommon0
          CFI Function rxAddrIsr
          CFI Conditional ??CrossCallReturnLabel_9
          CFI R6 load(1, XDATA, add(CFA_XSP16, literal(-9)))
          CFI VB load(1, XDATA, add(CFA_XSP16, literal(-8)))
          CFI V0 load(1, XDATA, add(CFA_XSP16, literal(-7)))
          CFI R7 load(1, XDATA, add(CFA_XSP16, literal(-6)))
          CFI ?RET_LOW load(1, XDATA, add(CFA_XSP16, literal(-5)))
          CFI ?RET_HIGH load(1, XDATA, add(CFA_XSP16, literal(-4)))
          CFI ?BRET_EXT load(1, XDATA, add(CFA_XSP16, literal(-3)))
          CFI DPL0 load(1, XDATA, add(CFA_XSP16, literal(-2)))
          CFI DPH0 load(1, XDATA, add(CFA_XSP16, literal(-1)))
          CFI CFA_SP SP+0
          CFI CFA_XSP16 add(XSP16, 29)
          CFI Block cfiCond73 Using cfiCommon0
          CFI (cfiCond73) Function rxAddrIsr
          CFI (cfiCond73) Conditional ??CrossCallReturnLabel_10
          CFI (cfiCond73) R6 load(1, XDATA, add(CFA_XSP16, literal(-9)))
          CFI (cfiCond73) VB load(1, XDATA, add(CFA_XSP16, literal(-8)))
          CFI (cfiCond73) V0 load(1, XDATA, add(CFA_XSP16, literal(-7)))
          CFI (cfiCond73) R7 load(1, XDATA, add(CFA_XSP16, literal(-6)))
          CFI (cfiCond73) ?RET_LOW load(1, XDATA, add(CFA_XSP16, literal(-5)))
          CFI (cfiCond73) ?RET_HIGH load(1, XDATA, add(CFA_XSP16, literal(-4)))
          CFI (cfiCond73) ?BRET_EXT load(1, XDATA, add(CFA_XSP16, literal(-3)))
          CFI (cfiCond73) DPL0 load(1, XDATA, add(CFA_XSP16, literal(-2)))
          CFI (cfiCond73) DPH0 load(1, XDATA, add(CFA_XSP16, literal(-1)))
          CFI (cfiCond73) CFA_SP SP+0
          CFI (cfiCond73) CFA_XSP16 add(XSP16, 29)
          CFI Block cfiPicker74 Using cfiCommon1
          CFI (cfiPicker74) NoFunction
          CFI (cfiPicker74) Picker
        MOV     DPL,R4
        MOV     DPH,R5
        LCALL   ??Subroutine22_0 & 0xFFFF
??CrossCallReturnLabel_30:
        MOV     R1,A
        MOV     A,R2
        MOV     R0,A
        LCALL   ??Subroutine21_0 & 0xFFFF
??CrossCallReturnLabel_32:
        XCH     A,R2
        RET
          CFI EndBlock cfiCond72
          CFI EndBlock cfiCond73
          CFI EndBlock cfiPicker74
//  841 
//  842 
//  843 /*=================================================================================================
//  844  * @fn          rxPrepPayload
//  845  *
//  846  * @brief       Common code to prepare for the payload ISR.
//  847  *
//  848  * @param       none
//  849  *
//  850  * @return      none
//  851  *=================================================================================================
//  852  */

        RSEG BANKED_CODE:CODE:NOROOT(0)
//  853 static void rxPrepPayload(void)
rxPrepPayload:
          CFI Block cfiBlock75 Using cfiCommon0
          CFI Function rxPrepPayload
        CODE
//  854 {
        PUSH    DPL
          CFI DPL0 Frame(CFA_SP, 4)
          CFI CFA_SP SP+-4
        PUSH    DPH
          CFI DPH0 Frame(CFA_SP, 5)
          CFI CFA_SP SP+-5
        ; Saved register size: 2
        ; Auto size: 0
//  855   if (rxPayloadLen == 0)
        MOV     DPTR,#rxPayloadLen
        MOVX    A,@DPTR
        JNZ     ??rxPrepPayload_0
//  856   {
//  857     MAC_RADIO_SET_RX_THRESHOLD(MAC_FCS_FIELD_LEN);
        MOV     DPTR,#0x6194
        MOV     A,#0x1
        MOVX    @DPTR,A
//  858     pFuncRxState = &rxFcsIsr;
        MOV     DPTR,#pFuncRxState
        MOV     A,#??rxFcsIsr?relay & 0xff
        MOVX    @DPTR,A
        INC     DPTR
        MOV     A,#(??rxFcsIsr?relay >> 8) & 0xff
        SJMP    ??rxPrepPayload_1
//  859   }
//  860   else
//  861   {
//  862     rxNextLen = MIN(rxPayloadLen, MAX_PAYLOAD_BYTES_READ_PER_INTERRUPT);
??rxPrepPayload_0:
        CLR     C
        SUBB    A,#0x10
        JNC     ??rxPrepPayload_2
        MOVX    A,@DPTR
        MOV     DPTR,#rxNextLen
        SJMP    ??rxPrepPayload_3
??rxPrepPayload_2:
        MOV     DPTR,#rxNextLen
        MOV     A,#0x10
??rxPrepPayload_3:
        MOVX    @DPTR,A
//  863     MAC_RADIO_SET_RX_THRESHOLD(rxNextLen);
        MOVX    A,@DPTR
        DEC     A
        MOV     DPTR,#0x6194
//  864   }
??rxPrepPayload_1:
        SJMP    ?Subroutine0
          CFI EndBlock cfiBlock75
//  865 }
//  866 
//  867 
//  868 /*=================================================================================================
//  869  * @fn          rxPayloadIsr
//  870  *
//  871  * @brief       Receive ISR state for reading out and storing the packet payload.
//  872  *
//  873  * @param       none
//  874  *
//  875  * @return      none
//  876  *=================================================================================================
//  877  */

        RSEG BANKED_CODE:CODE:NOROOT(0)
//  878 static void rxPayloadIsr(void)
rxPayloadIsr:
          CFI Block cfiBlock76 Using cfiCommon0
          CFI Function rxPayloadIsr
        CODE
//  879 {
        FUNCALL rxPayloadIsr, macMemReadRxFifo
        LOCFRAME ISTACK, 2, STACK
        LOCFRAME PSTACK, 0, STACK
        LOCFRAME XSTACK, 0, STACK
        LOCFRAME IOVERLAY, 0, STATIC
        LOCFRAME DOVERLAY, 0, STATIC
        ARGFRAME ISTACK, 2, STACK
        ARGFRAME PSTACK, 0, STACK
        ARGFRAME XSTACK, 0, STACK
        ARGFRAME IOVERLAY, 0, STATIC
        ARGFRAME DOVERLAY, 0, STATIC
        FUNCALL rxPayloadIsr, rxPrepPayload
        LOCFRAME ISTACK, 2, STACK
        LOCFRAME PSTACK, 0, STACK
        LOCFRAME XSTACK, 0, STACK
        LOCFRAME IOVERLAY, 0, STATIC
        LOCFRAME DOVERLAY, 0, STATIC
        ARGFRAME ISTACK, 2, STACK
        ARGFRAME PSTACK, 0, STACK
        ARGFRAME XSTACK, 0, STACK
        ARGFRAME IOVERLAY, 0, STATIC
        ARGFRAME DOVERLAY, 0, STATIC
        PUSH    DPL
          CFI DPL0 Frame(CFA_SP, 4)
          CFI CFA_SP SP+-4
        PUSH    DPH
          CFI DPH0 Frame(CFA_SP, 5)
          CFI CFA_SP SP+-5
        ; Saved register size: 2
        ; Auto size: 0
//  880   MAC_RADIO_READ_RX_FIFO(pRxBuf->msdu.p, rxNextLen);
        ; Setup parameters for call to function macMemReadRxFifo
        MOV     DPTR,#rxNextLen
        MOVX    A,@DPTR
        MOV     R1,A
        LCALL   ?Subroutine11 & 0xFFFF
??CrossCallReturnLabel_18:
        LCALL   ??Subroutine22_0 & 0xFFFF
??CrossCallReturnLabel_29:
        MOV     R3,A
        LCALL   ??macMemReadRxFifo?relay
//  881   pRxBuf->msdu.p += rxNextLen;
        MOV     DPTR,#pRxBuf
        MOVX    A,@DPTR
        ADD     A,#0x2
        MOV     R0,A
        INC     DPTR
        MOVX    A,@DPTR
        ADDC    A,#0x0
        MOV     R1,A
        MOV     DPTR,#rxNextLen
        MOVX    A,@DPTR
        MOV     R2,A
        MOV     DPL,R0
        MOV     DPH,R1
        MOVX    A,@DPTR
        ADD     A,R2
        MOV     R2,A
        INC     DPTR
        MOVX    A,@DPTR
        ADDC    A,#0x0
        MOV     R3,A
        MOV     DPL,R0
        MOV     DPH,R1
        MOV     A,R2
        MOVX    @DPTR,A
        INC     DPTR
        MOV     A,R3
        MOVX    @DPTR,A
//  882   rxPayloadLen -= rxNextLen;
        MOV     DPTR,#rxNextLen
        MOVX    A,@DPTR
        MOV     R0,A
        MOV     DPTR,#rxPayloadLen
        MOVX    A,@DPTR
        CLR     C
        SUBB    A,R0
        MOVX    @DPTR,A
//  883 
//  884   rxPrepPayload();
        ; Setup parameters for call to function rxPrepPayload
        LCALL   ??rxPrepPayload?relay
//  885 }
        SJMP    ??Subroutine24_0
          CFI EndBlock cfiBlock76

        RSEG BANKED_CODE:CODE:NOROOT(0)
?Subroutine11:
          CFI Block cfiCond77 Using cfiCommon0
          CFI Function rxStartIsr
          CFI Conditional ??CrossCallReturnLabel_17
          CFI R6 load(1, XDATA, add(CFA_XSP16, literal(-15)))
          CFI VB load(1, XDATA, add(CFA_XSP16, literal(-14)))
          CFI V0 load(1, XDATA, add(CFA_XSP16, literal(-13)))
          CFI V1 load(1, XDATA, add(CFA_XSP16, literal(-12)))
          CFI V2 load(1, XDATA, add(CFA_XSP16, literal(-11)))
          CFI V3 load(1, XDATA, add(CFA_XSP16, literal(-10)))
          CFI V4 load(1, XDATA, add(CFA_XSP16, literal(-9)))
          CFI V5 load(1, XDATA, add(CFA_XSP16, literal(-8)))
          CFI V6 load(1, XDATA, add(CFA_XSP16, literal(-7)))
          CFI R7 load(1, XDATA, add(CFA_XSP16, literal(-6)))
          CFI ?RET_LOW load(1, XDATA, add(CFA_XSP16, literal(-5)))
          CFI ?RET_HIGH load(1, XDATA, add(CFA_XSP16, literal(-4)))
          CFI ?BRET_EXT load(1, XDATA, add(CFA_XSP16, literal(-3)))
          CFI DPL0 load(1, XDATA, add(CFA_XSP16, literal(-2)))
          CFI DPH0 load(1, XDATA, add(CFA_XSP16, literal(-1)))
          CFI CFA_SP SP+0
          CFI CFA_XSP16 add(XSP16, 17)
          CFI Block cfiCond78 Using cfiCommon0
          CFI (cfiCond78) Function rxPayloadIsr
          CFI (cfiCond78) Conditional ??CrossCallReturnLabel_18
          CFI (cfiCond78) DPL0 Frame(CFA_SP, 4)
          CFI (cfiCond78) DPH0 Frame(CFA_SP, 5)
          CFI (cfiCond78) CFA_SP SP+-5
          CFI Block cfiPicker79 Using cfiCommon1
          CFI (cfiPicker79) NoFunction
          CFI (cfiPicker79) Picker
        LCALL   ?Subroutine17 & 0xFFFF
??CrossCallReturnLabel_26:
        RET
          CFI EndBlock cfiCond77
          CFI EndBlock cfiCond78
          CFI EndBlock cfiPicker79

        RSEG BANKED_CODE:CODE:NOROOT(0)
?Subroutine17:
          CFI Block cfiCond80 Using cfiCommon0
          CFI Function rxStartIsr
          CFI Conditional ??CrossCallReturnLabel_25, ??CrossCallReturnLabel_13
          CFI R6 load(1, XDATA, add(CFA_XSP16, literal(-15)))
          CFI VB load(1, XDATA, add(CFA_XSP16, literal(-14)))
          CFI V0 load(1, XDATA, add(CFA_XSP16, literal(-13)))
          CFI V1 load(1, XDATA, add(CFA_XSP16, literal(-12)))
          CFI V2 load(1, XDATA, add(CFA_XSP16, literal(-11)))
          CFI V3 load(1, XDATA, add(CFA_XSP16, literal(-10)))
          CFI V4 load(1, XDATA, add(CFA_XSP16, literal(-9)))
          CFI V5 load(1, XDATA, add(CFA_XSP16, literal(-8)))
          CFI V6 load(1, XDATA, add(CFA_XSP16, literal(-7)))
          CFI R7 load(1, XDATA, add(CFA_XSP16, literal(-6)))
          CFI ?RET_LOW load(1, XDATA, add(CFA_XSP16, literal(-5)))
          CFI ?RET_HIGH load(1, XDATA, add(CFA_XSP16, literal(-4)))
          CFI ?BRET_EXT load(1, XDATA, add(CFA_XSP16, literal(-3)))
          CFI DPL0 load(1, XDATA, add(CFA_XSP16, literal(-2)))
          CFI DPH0 load(1, XDATA, add(CFA_XSP16, literal(-1)))
          CFI CFA_SP SP+-1
          CFI CFA_XSP16 add(XSP16, 17)
          CFI Block cfiCond81 Using cfiCommon0
          CFI (cfiCond81) Function rxStartIsr
          CFI (cfiCond81) Conditional ??CrossCallReturnLabel_25, ??CrossCallReturnLabel_14
          CFI (cfiCond81) R6 load(1, XDATA, add(CFA_XSP16, literal(-15)))
          CFI (cfiCond81) VB load(1, XDATA, add(CFA_XSP16, literal(-14)))
          CFI (cfiCond81) V0 load(1, XDATA, add(CFA_XSP16, literal(-13)))
          CFI (cfiCond81) V1 load(1, XDATA, add(CFA_XSP16, literal(-12)))
          CFI (cfiCond81) V2 load(1, XDATA, add(CFA_XSP16, literal(-11)))
          CFI (cfiCond81) V3 load(1, XDATA, add(CFA_XSP16, literal(-10)))
          CFI (cfiCond81) V4 load(1, XDATA, add(CFA_XSP16, literal(-9)))
          CFI (cfiCond81) V5 load(1, XDATA, add(CFA_XSP16, literal(-8)))
          CFI (cfiCond81) V6 load(1, XDATA, add(CFA_XSP16, literal(-7)))
          CFI (cfiCond81) R7 load(1, XDATA, add(CFA_XSP16, literal(-6)))
          CFI (cfiCond81) ?RET_LOW load(1, XDATA, add(CFA_XSP16, literal(-5)))
          CFI (cfiCond81) ?RET_HIGH load(1, XDATA, add(CFA_XSP16, literal(-4)))
          CFI (cfiCond81) ?BRET_EXT load(1, XDATA, add(CFA_XSP16, literal(-3)))
          CFI (cfiCond81) DPL0 load(1, XDATA, add(CFA_XSP16, literal(-2)))
          CFI (cfiCond81) DPH0 load(1, XDATA, add(CFA_XSP16, literal(-1)))
          CFI (cfiCond81) CFA_SP SP+-1
          CFI (cfiCond81) CFA_XSP16 add(XSP16, 17)
          CFI Block cfiCond82 Using cfiCommon0
          CFI (cfiCond82) Function rxStartIsr
          CFI (cfiCond82) Conditional ??CrossCallReturnLabel_26, ??CrossCallReturnLabel_17
          CFI (cfiCond82) R6 load(1, XDATA, add(CFA_XSP16, literal(-15)))
          CFI (cfiCond82) VB load(1, XDATA, add(CFA_XSP16, literal(-14)))
          CFI (cfiCond82) V0 load(1, XDATA, add(CFA_XSP16, literal(-13)))
          CFI (cfiCond82) V1 load(1, XDATA, add(CFA_XSP16, literal(-12)))
          CFI (cfiCond82) V2 load(1, XDATA, add(CFA_XSP16, literal(-11)))
          CFI (cfiCond82) V3 load(1, XDATA, add(CFA_XSP16, literal(-10)))
          CFI (cfiCond82) V4 load(1, XDATA, add(CFA_XSP16, literal(-9)))
          CFI (cfiCond82) V5 load(1, XDATA, add(CFA_XSP16, literal(-8)))
          CFI (cfiCond82) V6 load(1, XDATA, add(CFA_XSP16, literal(-7)))
          CFI (cfiCond82) R7 load(1, XDATA, add(CFA_XSP16, literal(-6)))
          CFI (cfiCond82) ?RET_LOW load(1, XDATA, add(CFA_XSP16, literal(-5)))
          CFI (cfiCond82) ?RET_HIGH load(1, XDATA, add(CFA_XSP16, literal(-4)))
          CFI (cfiCond82) ?BRET_EXT load(1, XDATA, add(CFA_XSP16, literal(-3)))
          CFI (cfiCond82) DPL0 load(1, XDATA, add(CFA_XSP16, literal(-2)))
          CFI (cfiCond82) DPH0 load(1, XDATA, add(CFA_XSP16, literal(-1)))
          CFI (cfiCond82) CFA_SP SP+0
          CFI (cfiCond82) CFA_XSP16 add(XSP16, 17)
          CFI Block cfiCond83 Using cfiCommon0
          CFI (cfiCond83) Function rxPayloadIsr
          CFI (cfiCond83) Conditional ??CrossCallReturnLabel_26, ??CrossCallReturnLabel_18
          CFI (cfiCond83) DPL0 Frame(CFA_SP, 4)
          CFI (cfiCond83) DPH0 Frame(CFA_SP, 5)
          CFI (cfiCond83) CFA_SP SP+-5
          CFI Block cfiPicker84 Using cfiCommon1
          CFI (cfiPicker84) NoFunction
          CFI (cfiPicker84) Picker
        MOV     DPTR,#pRxBuf
        LCALL   ?Subroutine20 & 0xFFFF
??CrossCallReturnLabel_28:
        INC     DPTR
        INC     DPTR
        RET
          CFI EndBlock cfiCond80
          CFI EndBlock cfiCond81
          CFI EndBlock cfiCond82
          CFI EndBlock cfiCond83
          CFI EndBlock cfiPicker84

        RSEG BANKED_CODE:CODE:NOROOT(0)
?Subroutine20:
          CFI Block cfiCond85 Using cfiCommon0
          CFI Function macRxThresholdIsr
          CFI Conditional ??CrossCallReturnLabel_27
          CFI DPL0 Frame(CFA_SP, 4)
          CFI DPH0 Frame(CFA_SP, 5)
          CFI CFA_SP SP+-5
          CFI Block cfiCond86 Using cfiCommon0
          CFI (cfiCond86) Function rxStartIsr
          CFI (cfiCond86) Conditional ??CrossCallReturnLabel_28, ??CrossCallReturnLabel_25, ??CrossCallReturnLabel_13
          CFI (cfiCond86) R6 load(1, XDATA, add(CFA_XSP16, literal(-15)))
          CFI (cfiCond86) VB load(1, XDATA, add(CFA_XSP16, literal(-14)))
          CFI (cfiCond86) V0 load(1, XDATA, add(CFA_XSP16, literal(-13)))
          CFI (cfiCond86) V1 load(1, XDATA, add(CFA_XSP16, literal(-12)))
          CFI (cfiCond86) V2 load(1, XDATA, add(CFA_XSP16, literal(-11)))
          CFI (cfiCond86) V3 load(1, XDATA, add(CFA_XSP16, literal(-10)))
          CFI (cfiCond86) V4 load(1, XDATA, add(CFA_XSP16, literal(-9)))
          CFI (cfiCond86) V5 load(1, XDATA, add(CFA_XSP16, literal(-8)))
          CFI (cfiCond86) V6 load(1, XDATA, add(CFA_XSP16, literal(-7)))
          CFI (cfiCond86) R7 load(1, XDATA, add(CFA_XSP16, literal(-6)))
          CFI (cfiCond86) ?RET_LOW load(1, XDATA, add(CFA_XSP16, literal(-5)))
          CFI (cfiCond86) ?RET_HIGH load(1, XDATA, add(CFA_XSP16, literal(-4)))
          CFI (cfiCond86) ?BRET_EXT load(1, XDATA, add(CFA_XSP16, literal(-3)))
          CFI (cfiCond86) DPL0 load(1, XDATA, add(CFA_XSP16, literal(-2)))
          CFI (cfiCond86) DPH0 load(1, XDATA, add(CFA_XSP16, literal(-1)))
          CFI (cfiCond86) CFA_SP SP+-1
          CFI (cfiCond86) CFA_XSP16 add(XSP16, 17)
          CFI Block cfiCond87 Using cfiCommon0
          CFI (cfiCond87) Function rxStartIsr
          CFI (cfiCond87) Conditional ??CrossCallReturnLabel_28, ??CrossCallReturnLabel_25, ??CrossCallReturnLabel_14
          CFI (cfiCond87) R6 load(1, XDATA, add(CFA_XSP16, literal(-15)))
          CFI (cfiCond87) VB load(1, XDATA, add(CFA_XSP16, literal(-14)))
          CFI (cfiCond87) V0 load(1, XDATA, add(CFA_XSP16, literal(-13)))
          CFI (cfiCond87) V1 load(1, XDATA, add(CFA_XSP16, literal(-12)))
          CFI (cfiCond87) V2 load(1, XDATA, add(CFA_XSP16, literal(-11)))
          CFI (cfiCond87) V3 load(1, XDATA, add(CFA_XSP16, literal(-10)))
          CFI (cfiCond87) V4 load(1, XDATA, add(CFA_XSP16, literal(-9)))
          CFI (cfiCond87) V5 load(1, XDATA, add(CFA_XSP16, literal(-8)))
          CFI (cfiCond87) V6 load(1, XDATA, add(CFA_XSP16, literal(-7)))
          CFI (cfiCond87) R7 load(1, XDATA, add(CFA_XSP16, literal(-6)))
          CFI (cfiCond87) ?RET_LOW load(1, XDATA, add(CFA_XSP16, literal(-5)))
          CFI (cfiCond87) ?RET_HIGH load(1, XDATA, add(CFA_XSP16, literal(-4)))
          CFI (cfiCond87) ?BRET_EXT load(1, XDATA, add(CFA_XSP16, literal(-3)))
          CFI (cfiCond87) DPL0 load(1, XDATA, add(CFA_XSP16, literal(-2)))
          CFI (cfiCond87) DPH0 load(1, XDATA, add(CFA_XSP16, literal(-1)))
          CFI (cfiCond87) CFA_SP SP+-1
          CFI (cfiCond87) CFA_XSP16 add(XSP16, 17)
          CFI Block cfiCond88 Using cfiCommon0
          CFI (cfiCond88) Function rxStartIsr
          CFI (cfiCond88) Conditional ??CrossCallReturnLabel_28, ??CrossCallReturnLabel_26, ??CrossCallReturnLabel_17
          CFI (cfiCond88) R6 load(1, XDATA, add(CFA_XSP16, literal(-15)))
          CFI (cfiCond88) VB load(1, XDATA, add(CFA_XSP16, literal(-14)))
          CFI (cfiCond88) V0 load(1, XDATA, add(CFA_XSP16, literal(-13)))
          CFI (cfiCond88) V1 load(1, XDATA, add(CFA_XSP16, literal(-12)))
          CFI (cfiCond88) V2 load(1, XDATA, add(CFA_XSP16, literal(-11)))
          CFI (cfiCond88) V3 load(1, XDATA, add(CFA_XSP16, literal(-10)))
          CFI (cfiCond88) V4 load(1, XDATA, add(CFA_XSP16, literal(-9)))
          CFI (cfiCond88) V5 load(1, XDATA, add(CFA_XSP16, literal(-8)))
          CFI (cfiCond88) V6 load(1, XDATA, add(CFA_XSP16, literal(-7)))
          CFI (cfiCond88) R7 load(1, XDATA, add(CFA_XSP16, literal(-6)))
          CFI (cfiCond88) ?RET_LOW load(1, XDATA, add(CFA_XSP16, literal(-5)))
          CFI (cfiCond88) ?RET_HIGH load(1, XDATA, add(CFA_XSP16, literal(-4)))
          CFI (cfiCond88) ?BRET_EXT load(1, XDATA, add(CFA_XSP16, literal(-3)))
          CFI (cfiCond88) DPL0 load(1, XDATA, add(CFA_XSP16, literal(-2)))
          CFI (cfiCond88) DPH0 load(1, XDATA, add(CFA_XSP16, literal(-1)))
          CFI (cfiCond88) CFA_SP SP+0
          CFI (cfiCond88) CFA_XSP16 add(XSP16, 17)
          CFI Block cfiCond89 Using cfiCommon0
          CFI (cfiCond89) Function rxPayloadIsr
          CFI (cfiCond89) Conditional ??CrossCallReturnLabel_28, ??CrossCallReturnLabel_26, ??CrossCallReturnLabel_18
          CFI (cfiCond89) DPL0 Frame(CFA_SP, 4)
          CFI (cfiCond89) DPH0 Frame(CFA_SP, 5)
          CFI (cfiCond89) CFA_SP SP+-5
          CFI Block cfiPicker90 Using cfiCommon1
          CFI (cfiPicker90) NoFunction
          CFI (cfiPicker90) Picker
        MOVX    A,@DPTR
        MOV     R0,A
        INC     DPTR
        MOVX    A,@DPTR
        MOV     DPH,A
        MOV     DPL,R0
        RET
          CFI EndBlock cfiCond85
          CFI EndBlock cfiCond86
          CFI EndBlock cfiCond87
          CFI EndBlock cfiCond88
          CFI EndBlock cfiCond89
          CFI EndBlock cfiPicker90

        RSEG BANKED_CODE:CODE:NOROOT(0)
?Subroutine0:
          CFI Block cfiBlock91 Using cfiCommon0
          CFI NoFunction
          CFI CFA_SP SP+-5
          CFI DPL0 Frame(CFA_SP, 4)
          CFI DPH0 Frame(CFA_SP, 5)
        MOVX    @DPTR,A
          CFI EndBlock cfiBlock91
        REQUIRE ??Subroutine24_0
        ; // Fall through to label ??Subroutine24_0

        RSEG BANKED_CODE:CODE:NOROOT(0)
??Subroutine24_0:
          CFI Block cfiBlock92 Using cfiCommon0
          CFI NoFunction
          CFI CFA_SP SP+-5
          CFI DPL0 Frame(CFA_SP, 4)
          CFI DPH0 Frame(CFA_SP, 5)
        POP     DPH
          CFI CFA_SP SP+-4
          CFI DPH0 SameValue
        POP     DPL
          CFI CFA_SP SP+-3
          CFI DPL0 SameValue
        LJMP    ?BRET
          CFI EndBlock cfiBlock92
//  886 
//  887 
//  888 /*=================================================================================================
//  889  * @fn          rxFcsIsr
//  890  *
//  891  * @brief       Receive ISR state for handling the FCS.
//  892  *
//  893  * @param       none
//  894  *
//  895  * @return      none
//  896  *=================================================================================================
//  897  */

        RSEG BANKED_CODE:CODE:NOROOT(0)
//  898 static void rxFcsIsr(void)
rxFcsIsr:
          CFI Block cfiBlock93 Using cfiCommon0
          CFI Function rxFcsIsr
        CODE
//  899 {
        FUNCALL rxFcsIsr, macMemReadRxFifo
        LOCFRAME ISTACK, 0, STACK
        LOCFRAME PSTACK, 0, STACK
        LOCFRAME XSTACK, 10, STACK
        LOCFRAME IOVERLAY, 0, STATIC
        LOCFRAME DOVERLAY, 0, STATIC
        ARGFRAME ISTACK, 0, STACK
        ARGFRAME PSTACK, 0, STACK
        ARGFRAME XSTACK, 10, STACK
        ARGFRAME IOVERLAY, 0, STATIC
        ARGFRAME DOVERLAY, 0, STATIC
        FUNCALL rxFcsIsr, macRxOffRequest
        LOCFRAME ISTACK, 0, STACK
        LOCFRAME PSTACK, 0, STACK
        LOCFRAME XSTACK, 10, STACK
        LOCFRAME IOVERLAY, 0, STATIC
        LOCFRAME DOVERLAY, 0, STATIC
        ARGFRAME ISTACK, 0, STACK
        ARGFRAME PSTACK, 0, STACK
        ARGFRAME XSTACK, 10, STACK
        ARGFRAME IOVERLAY, 0, STATIC
        ARGFRAME DOVERLAY, 0, STATIC
        FUNCALL rxFcsIsr, MAC_SrcMatchCheckResult
        LOCFRAME ISTACK, 0, STACK
        LOCFRAME PSTACK, 0, STACK
        LOCFRAME XSTACK, 10, STACK
        LOCFRAME IOVERLAY, 0, STATIC
        LOCFRAME DOVERLAY, 0, STATIC
        ARGFRAME ISTACK, 0, STACK
        ARGFRAME PSTACK, 0, STACK
        ARGFRAME XSTACK, 10, STACK
        ARGFRAME IOVERLAY, 0, STATIC
        ARGFRAME DOVERLAY, 0, STATIC
        FUNCALL rxFcsIsr, macRadioComputeLQI
        LOCFRAME ISTACK, 0, STACK
        LOCFRAME PSTACK, 0, STACK
        LOCFRAME XSTACK, 10, STACK
        LOCFRAME IOVERLAY, 0, STATIC
        LOCFRAME DOVERLAY, 0, STATIC
        ARGFRAME ISTACK, 0, STACK
        ARGFRAME PSTACK, 0, STACK
        ARGFRAME XSTACK, 10, STACK
        ARGFRAME IOVERLAY, 0, STATIC
        ARGFRAME DOVERLAY, 0, STATIC
        FUNCALL rxFcsIsr, macRxCompleteCallback
        LOCFRAME ISTACK, 0, STACK
        LOCFRAME PSTACK, 0, STACK
        LOCFRAME XSTACK, 10, STACK
        LOCFRAME IOVERLAY, 0, STATIC
        LOCFRAME DOVERLAY, 0, STATIC
        ARGFRAME ISTACK, 0, STACK
        ARGFRAME PSTACK, 0, STACK
        ARGFRAME XSTACK, 10, STACK
        ARGFRAME IOVERLAY, 0, STATIC
        ARGFRAME DOVERLAY, 0, STATIC
        FUNCALL rxFcsIsr, macDataRxMemFree
        LOCFRAME ISTACK, 0, STACK
        LOCFRAME PSTACK, 0, STACK
        LOCFRAME XSTACK, 10, STACK
        LOCFRAME IOVERLAY, 0, STATIC
        LOCFRAME DOVERLAY, 0, STATIC
        ARGFRAME ISTACK, 0, STACK
        ARGFRAME PSTACK, 0, STACK
        ARGFRAME XSTACK, 10, STACK
        ARGFRAME IOVERLAY, 0, STATIC
        ARGFRAME DOVERLAY, 0, STATIC
        FUNCALL rxFcsIsr, rxDone
        LOCFRAME ISTACK, 0, STACK
        LOCFRAME PSTACK, 0, STACK
        LOCFRAME XSTACK, 10, STACK
        LOCFRAME IOVERLAY, 0, STATIC
        LOCFRAME DOVERLAY, 0, STATIC
        ARGFRAME ISTACK, 0, STACK
        ARGFRAME PSTACK, 0, STACK
        ARGFRAME XSTACK, 10, STACK
        ARGFRAME IOVERLAY, 0, STATIC
        ARGFRAME DOVERLAY, 0, STATIC
        MOV     A,#-0xa
        LCALL   ?BANKED_ENTER_XDATA
          CFI DPH0 load(1, XDATA, add(CFA_XSP16, literal(-1)))
          CFI DPL0 load(1, XDATA, add(CFA_XSP16, literal(-2)))
          CFI ?BRET_EXT load(1, XDATA, add(CFA_XSP16, literal(-3)))
          CFI ?RET_HIGH load(1, XDATA, add(CFA_XSP16, literal(-4)))
          CFI ?RET_LOW load(1, XDATA, add(CFA_XSP16, literal(-5)))
          CFI R7 load(1, XDATA, add(CFA_XSP16, literal(-6)))
          CFI V1 load(1, XDATA, add(CFA_XSP16, literal(-7)))
          CFI V0 load(1, XDATA, add(CFA_XSP16, literal(-8)))
          CFI VB load(1, XDATA, add(CFA_XSP16, literal(-9)))
          CFI R6 load(1, XDATA, add(CFA_XSP16, literal(-10)))
          CFI CFA_SP SP+0
          CFI CFA_XSP16 add(XSP16, 10)
        ; Saved register size: 10
        ; Auto size: 0
//  900   uint8 crcOK;
//  901   uint8 ackWithPending = 0;
        MOV     ?V0 + 0,#0x0
//  902 
//  903   /* read FCS, rxBuf is now available storage */
//  904   MAC_RADIO_READ_RX_FIFO(rxBuf, MAC_FCS_FIELD_LEN);
        ; Setup parameters for call to function macMemReadRxFifo
        MOV     R1,#0x2
        MOV     R2,#rxBuf & 0xff
        MOV     R3,#(rxBuf >> 8) & 0xff
        LCALL   ??macMemReadRxFifo?relay
//  905 
//  906   /*
//  907    *  The FCS has actually been replaced within the radio by a proprietary version of the FCS.
//  908    *  This proprietary FCS is two bytes (same length as the real FCS) and contains:
//  909    *    1) the RSSI value
//  910    *    2) the average correlation value (used for LQI)
//  911    *    3) a CRC passed bit
//  912    */
//  913 
//  914   /* save the "CRC-is-OK" status */
//  915   crcOK = PROPRIETARY_FCS_CRC_OK(rxBuf);
        MOV     DPTR,#rxBuf + 1
        MOVX    A,@DPTR
        ANL     A,#0x80
        MOV     ?V0 + 1,A
//  916 
//  917   /*
//  918    *  See if the frame should be passed up to high-level MAC.  If the CRC is OK, the
//  919    *  the frame is always passed up.  Frames with a bad CRC are also passed up *if*
//  920    *  a special variant of promiscuous mode is active.
//  921    */
//  922   if (crcOK || (rxPromiscuousMode == MAC_PROMISCUOUS_MODE_WITH_BAD_CRC))
        JNZ     ??rxFcsIsr_0
        MOV     DPTR,#rxPromiscuousMode
        MOVX    A,@DPTR
        XRL     A,#0x2
        JNZ     ??rxFcsIsr_1
//  923   {
//  924     int8 rssiDbm;
//  925     uint8 corr;
//  926 
//  927     /*
//  928      *  As power saving optimization, set state variable to indicate physical receive
//  929      *  has completed and then request turning of the receiver.  This means the receiver
//  930      *  can be off (if other conditions permit) during execution of the callback function.
//  931      *
//  932      *  The receiver will be requested to turn off once again at the end of the receive
//  933      *  logic.  There is no harm in doing this.
//  934      */
//  935     macRxActive = MAC_RX_ACTIVE_DONE;
??rxFcsIsr_0:
        MOV     DPTR,#macRxActive
        MOV     A,#0x2
        MOVX    @DPTR,A
//  936     macRxOffRequest();
        ; Setup parameters for call to function macRxOffRequest
        LCALL   ??macRxOffRequest?relay
//  937 
//  938     /* decode RSSI and correlation values */
//  939     rssiDbm = PROPRIETARY_FCS_RSSI(rxBuf) + MAC_RADIO_RSSI_OFFSET;
        MOV     DPTR,#rxBuf
        MOVX    A,@DPTR
        ADD     A,#-0x49
        MOV     R7,A
//  940     MAC_RADIO_RSSI_LNA_OFFSET(rssiDbm);
//  941     corr = PROPRIETARY_FCS_CORRELATION_VALUE(rxBuf);
        INC     DPTR
        MOVX    A,@DPTR
        ANL     A,#0x7f
        MOV     R6,A
//  942 
//  943     /* Read the source matching result back */
//  944     if( macSrcMatchIsEnabled && MAC_RADIO_SRC_MATCH_RESULT() )
        MOV     DPTR,#macSrcMatchIsEnabled
        MOVX    A,@DPTR
        JZ      ??rxFcsIsr_2
        ; Setup parameters for call to function MAC_SrcMatchCheckResult
        LCALL   ??MAC_SrcMatchCheckResult?relay
        MOV     A,R1
        JZ      ??rxFcsIsr_2
//  945     {
//  946       /* This result will not overwrite the previously determined pRxBuf->internal.flags */
//  947       ackWithPending = MAC_RX_FLAG_ACK_PENDING;
        MOV     ?V0 + 0,#0x4
//  948     }
//  949 
//  950     /* record parameters that get passed up to high-level */
//  951     pRxBuf->internal.flags |= ( crcOK | ackWithPending );
??rxFcsIsr_2:
        MOV     A,?V0 + 1
        ORL     A,?V0 + 0
        MOV     R0,A
        MOV     DPTR,#pRxBuf
        MOVX    A,@DPTR
        MOV     R1,A
        INC     DPTR
        MOVX    A,@DPTR
        XCH     A,R1
        ADD     A,#0x6
        MOV     DPL,A
        MOV     A,R1
        LCALL   ??Subroutine23_0 & 0xFFFF
??CrossCallReturnLabel_37:
        MOVX    A,@DPTR
        ORL     A,R0
        MOVX    @DPTR,A
//  952     pRxBuf->mac.mpduLinkQuality = macRadioComputeLQI(rssiDbm, corr);
        ; Setup parameters for call to function macRadioComputeLQI
        MOV     A,R6
        MOV     R2,A
        MOV     A,R7
        MOV     R1,A
        LCALL   ??macRadioComputeLQI?relay
        LCALL   ?Subroutine13 & 0xFFFF
??CrossCallReturnLabel_52:
        ADD     A,#0x2e
        LCALL   ?Subroutine16 & 0xFFFF
??CrossCallReturnLabel_46:
        MOV     A,R1
        LCALL   ?Subroutine2 & 0xFFFF
//  953     pRxBuf->mac.rssi = rssiDbm;
??CrossCallReturnLabel_3:
        ADD     A,#0x30
        LCALL   ?Subroutine16 & 0xFFFF
??CrossCallReturnLabel_47:
        MOV     A,R7
        LCALL   ?Subroutine2 & 0xFFFF
//  954     pRxBuf->mac.correlation = corr;
??CrossCallReturnLabel_4:
        ADD     A,#0x2f
        LCALL   ?Subroutine16 & 0xFFFF
??CrossCallReturnLabel_48:
        MOV     A,R6
        LCALL   ??Subroutine26_0 & 0xFFFF
//  955 
//  956     /* set the MSDU pointer to point at start of data */
//  957     pRxBuf->msdu.p = (uint8 *) (pRxBuf + 1);
??CrossCallReturnLabel_56:
        ADD     A,#0x32
        MOV     R0,A
        INC     DPTR
        MOVX    A,@DPTR
        ADDC    A,#0x0
        LCALL   ?Subroutine19 & 0xFFFF
??CrossCallReturnLabel_34:
        MOV     DPH,A
        MOV     DPL,R2
        INC     DPTR
        INC     DPTR
        LCALL   ?Subroutine4 & 0xFFFF
//  958 
//  959     /* finally... execute callback function */
//  960     macRxCompleteCallback(pRxBuf);
??CrossCallReturnLabel_54:
        MOV     R2,A
        INC     DPTR
        MOVX    A,@DPTR
        MOV     R3,A
        LCALL   ??macRxCompleteCallback?relay
//  961     pRxBuf = NULL; /* needed to indicate buffer is no longer allocated */
        SJMP    ??rxFcsIsr_3
//  962   }
//  963   else
//  964   {
//  965     /*
//  966      *  The CRC is bad so no ACK was sent.  Cancel any callback and clear the flag.
//  967      *  (It's OK to cancel the outgoing ACK even if an ACK was not requested.  It's
//  968      *  slightly more efficient to do so.)
//  969      */
//  970     MAC_RADIO_CANCEL_ACK_TX_DONE_CALLBACK();
??rxFcsIsr_1:
        LCALL   ?Subroutine12 & 0xFFFF
//  971     macRxOutgoingAckFlag = 0;
//  972 
//  973     /* the CRC failed so the packet must be discarded */
//  974     MEM_FREE((uint8 **)&pRxBuf);
??CrossCallReturnLabel_20:
        ; Setup parameters for call to function macDataRxMemFree
        MOV     R2,#pRxBuf & 0xff
        MOV     R3,#(pRxBuf >> 8) & 0xff
        LCALL   ??macDataRxMemFree?relay
//  975     pRxBuf = NULL;  /* needed to indicate buffer is no longer allocated */
??rxFcsIsr_3:
        MOV     DPTR,#pRxBuf
        CLR     A
        MOVX    @DPTR,A
        INC     DPTR
        MOVX    @DPTR,A
//  976   }
//  977 
//  978   /* reset threshold level, reset receive state, and complete receive logic */
//  979   MAC_RADIO_SET_RX_THRESHOLD(RX_THRESHOLD_START_LEN);
        LCALL   ?Subroutine3 & 0xFFFF
//  980   pFuncRxState = &rxStartIsr;
//  981   rxDone();
??CrossCallReturnLabel_57:
        ; Setup parameters for call to function rxDone
        LCALL   ??rxDone?relay
//  982 }
        MOV     R7,#0x2
        LJMP    ?BANKED_LEAVE_XDATA
          CFI EndBlock cfiBlock93

        RSEG BANKED_CODE:CODE:NOROOT(0)
?Subroutine13:
          CFI Block cfiCond94 Using cfiCommon0
          CFI Function rxStartIsr
          CFI Conditional ??CrossCallReturnLabel_50
          CFI R6 load(1, XDATA, add(CFA_XSP16, literal(-15)))
          CFI VB load(1, XDATA, add(CFA_XSP16, literal(-14)))
          CFI V0 load(1, XDATA, add(CFA_XSP16, literal(-13)))
          CFI V1 load(1, XDATA, add(CFA_XSP16, literal(-12)))
          CFI V2 load(1, XDATA, add(CFA_XSP16, literal(-11)))
          CFI V3 load(1, XDATA, add(CFA_XSP16, literal(-10)))
          CFI V4 load(1, XDATA, add(CFA_XSP16, literal(-9)))
          CFI V5 load(1, XDATA, add(CFA_XSP16, literal(-8)))
          CFI V6 load(1, XDATA, add(CFA_XSP16, literal(-7)))
          CFI R7 load(1, XDATA, add(CFA_XSP16, literal(-6)))
          CFI ?RET_LOW load(1, XDATA, add(CFA_XSP16, literal(-5)))
          CFI ?RET_HIGH load(1, XDATA, add(CFA_XSP16, literal(-4)))
          CFI ?BRET_EXT load(1, XDATA, add(CFA_XSP16, literal(-3)))
          CFI DPL0 load(1, XDATA, add(CFA_XSP16, literal(-2)))
          CFI DPH0 load(1, XDATA, add(CFA_XSP16, literal(-1)))
          CFI CFA_SP SP+0
          CFI CFA_XSP16 add(XSP16, 17)
          CFI Block cfiCond95 Using cfiCommon0
          CFI (cfiCond95) Function rxStartIsr
          CFI (cfiCond95) Conditional ??CrossCallReturnLabel_51
          CFI (cfiCond95) R6 load(1, XDATA, add(CFA_XSP16, literal(-15)))
          CFI (cfiCond95) VB load(1, XDATA, add(CFA_XSP16, literal(-14)))
          CFI (cfiCond95) V0 load(1, XDATA, add(CFA_XSP16, literal(-13)))
          CFI (cfiCond95) V1 load(1, XDATA, add(CFA_XSP16, literal(-12)))
          CFI (cfiCond95) V2 load(1, XDATA, add(CFA_XSP16, literal(-11)))
          CFI (cfiCond95) V3 load(1, XDATA, add(CFA_XSP16, literal(-10)))
          CFI (cfiCond95) V4 load(1, XDATA, add(CFA_XSP16, literal(-9)))
          CFI (cfiCond95) V5 load(1, XDATA, add(CFA_XSP16, literal(-8)))
          CFI (cfiCond95) V6 load(1, XDATA, add(CFA_XSP16, literal(-7)))
          CFI (cfiCond95) R7 load(1, XDATA, add(CFA_XSP16, literal(-6)))
          CFI (cfiCond95) ?RET_LOW load(1, XDATA, add(CFA_XSP16, literal(-5)))
          CFI (cfiCond95) ?RET_HIGH load(1, XDATA, add(CFA_XSP16, literal(-4)))
          CFI (cfiCond95) ?BRET_EXT load(1, XDATA, add(CFA_XSP16, literal(-3)))
          CFI (cfiCond95) DPL0 load(1, XDATA, add(CFA_XSP16, literal(-2)))
          CFI (cfiCond95) DPH0 load(1, XDATA, add(CFA_XSP16, literal(-1)))
          CFI (cfiCond95) CFA_SP SP+-1
          CFI (cfiCond95) CFA_XSP16 add(XSP16, 17)
          CFI Block cfiCond96 Using cfiCommon0
          CFI (cfiCond96) Function rxFcsIsr
          CFI (cfiCond96) Conditional ??CrossCallReturnLabel_52
          CFI (cfiCond96) R6 load(1, XDATA, add(CFA_XSP16, literal(-10)))
          CFI (cfiCond96) VB load(1, XDATA, add(CFA_XSP16, literal(-9)))
          CFI (cfiCond96) V0 load(1, XDATA, add(CFA_XSP16, literal(-8)))
          CFI (cfiCond96) V1 load(1, XDATA, add(CFA_XSP16, literal(-7)))
          CFI (cfiCond96) R7 load(1, XDATA, add(CFA_XSP16, literal(-6)))
          CFI (cfiCond96) ?RET_LOW load(1, XDATA, add(CFA_XSP16, literal(-5)))
          CFI (cfiCond96) ?RET_HIGH load(1, XDATA, add(CFA_XSP16, literal(-4)))
          CFI (cfiCond96) ?BRET_EXT load(1, XDATA, add(CFA_XSP16, literal(-3)))
          CFI (cfiCond96) DPL0 load(1, XDATA, add(CFA_XSP16, literal(-2)))
          CFI (cfiCond96) DPH0 load(1, XDATA, add(CFA_XSP16, literal(-1)))
          CFI (cfiCond96) CFA_SP SP+0
          CFI (cfiCond96) CFA_XSP16 add(XSP16, 10)
          CFI Block cfiPicker97 Using cfiCommon1
          CFI (cfiPicker97) NoFunction
          CFI (cfiPicker97) Picker
        MOV     DPTR,#pRxBuf
          CFI EndBlock cfiCond94
          CFI EndBlock cfiCond95
          CFI EndBlock cfiCond96
          CFI EndBlock cfiPicker97
        REQUIRE ??Subroutine25_0
        ; // Fall through to label ??Subroutine25_0

        RSEG BANKED_CODE:CODE:NOROOT(0)
??Subroutine25_0:
          CFI Block cfiCond98 Using cfiCommon0
          CFI Function rxStartIsr
          CFI Conditional ??CrossCallReturnLabel_49
          CFI R6 load(1, XDATA, add(CFA_XSP16, literal(-15)))
          CFI VB load(1, XDATA, add(CFA_XSP16, literal(-14)))
          CFI V0 load(1, XDATA, add(CFA_XSP16, literal(-13)))
          CFI V1 load(1, XDATA, add(CFA_XSP16, literal(-12)))
          CFI V2 load(1, XDATA, add(CFA_XSP16, literal(-11)))
          CFI V3 load(1, XDATA, add(CFA_XSP16, literal(-10)))
          CFI V4 load(1, XDATA, add(CFA_XSP16, literal(-9)))
          CFI V5 load(1, XDATA, add(CFA_XSP16, literal(-8)))
          CFI V6 load(1, XDATA, add(CFA_XSP16, literal(-7)))
          CFI R7 load(1, XDATA, add(CFA_XSP16, literal(-6)))
          CFI ?RET_LOW load(1, XDATA, add(CFA_XSP16, literal(-5)))
          CFI ?RET_HIGH load(1, XDATA, add(CFA_XSP16, literal(-4)))
          CFI ?BRET_EXT load(1, XDATA, add(CFA_XSP16, literal(-3)))
          CFI DPL0 load(1, XDATA, add(CFA_XSP16, literal(-2)))
          CFI DPH0 load(1, XDATA, add(CFA_XSP16, literal(-1)))
          CFI CFA_SP SP+0
          CFI CFA_XSP16 add(XSP16, 17)
          CFI Block cfiCond99 Using cfiCommon0
          CFI (cfiCond99) Function rxStartIsr
          CFI (cfiCond99) Conditional ??CrossCallReturnLabel_50
          CFI (cfiCond99) R6 load(1, XDATA, add(CFA_XSP16, literal(-15)))
          CFI (cfiCond99) VB load(1, XDATA, add(CFA_XSP16, literal(-14)))
          CFI (cfiCond99) V0 load(1, XDATA, add(CFA_XSP16, literal(-13)))
          CFI (cfiCond99) V1 load(1, XDATA, add(CFA_XSP16, literal(-12)))
          CFI (cfiCond99) V2 load(1, XDATA, add(CFA_XSP16, literal(-11)))
          CFI (cfiCond99) V3 load(1, XDATA, add(CFA_XSP16, literal(-10)))
          CFI (cfiCond99) V4 load(1, XDATA, add(CFA_XSP16, literal(-9)))
          CFI (cfiCond99) V5 load(1, XDATA, add(CFA_XSP16, literal(-8)))
          CFI (cfiCond99) V6 load(1, XDATA, add(CFA_XSP16, literal(-7)))
          CFI (cfiCond99) R7 load(1, XDATA, add(CFA_XSP16, literal(-6)))
          CFI (cfiCond99) ?RET_LOW load(1, XDATA, add(CFA_XSP16, literal(-5)))
          CFI (cfiCond99) ?RET_HIGH load(1, XDATA, add(CFA_XSP16, literal(-4)))
          CFI (cfiCond99) ?BRET_EXT load(1, XDATA, add(CFA_XSP16, literal(-3)))
          CFI (cfiCond99) DPL0 load(1, XDATA, add(CFA_XSP16, literal(-2)))
          CFI (cfiCond99) DPH0 load(1, XDATA, add(CFA_XSP16, literal(-1)))
          CFI (cfiCond99) CFA_SP SP+0
          CFI (cfiCond99) CFA_XSP16 add(XSP16, 17)
          CFI Block cfiCond100 Using cfiCommon0
          CFI (cfiCond100) Function rxStartIsr
          CFI (cfiCond100) Conditional ??CrossCallReturnLabel_51
          CFI (cfiCond100) R6 load(1, XDATA, add(CFA_XSP16, literal(-15)))
          CFI (cfiCond100) VB load(1, XDATA, add(CFA_XSP16, literal(-14)))
          CFI (cfiCond100) V0 load(1, XDATA, add(CFA_XSP16, literal(-13)))
          CFI (cfiCond100) V1 load(1, XDATA, add(CFA_XSP16, literal(-12)))
          CFI (cfiCond100) V2 load(1, XDATA, add(CFA_XSP16, literal(-11)))
          CFI (cfiCond100) V3 load(1, XDATA, add(CFA_XSP16, literal(-10)))
          CFI (cfiCond100) V4 load(1, XDATA, add(CFA_XSP16, literal(-9)))
          CFI (cfiCond100) V5 load(1, XDATA, add(CFA_XSP16, literal(-8)))
          CFI (cfiCond100) V6 load(1, XDATA, add(CFA_XSP16, literal(-7)))
          CFI (cfiCond100) R7 load(1, XDATA, add(CFA_XSP16, literal(-6)))
          CFI (cfiCond100) ?RET_LOW load(1, XDATA, add(CFA_XSP16, literal(-5)))
          CFI (cfiCond100) ?RET_HIGH load(1, XDATA, add(CFA_XSP16, literal(-4)))
          CFI (cfiCond100) ?BRET_EXT load(1, XDATA, add(CFA_XSP16, literal(-3)))
          CFI (cfiCond100) DPL0 load(1, XDATA, add(CFA_XSP16, literal(-2)))
          CFI (cfiCond100) DPH0 load(1, XDATA, add(CFA_XSP16, literal(-1)))
          CFI (cfiCond100) CFA_SP SP+-1
          CFI (cfiCond100) CFA_XSP16 add(XSP16, 17)
          CFI Block cfiCond101 Using cfiCommon0
          CFI (cfiCond101) Function rxFcsIsr
          CFI (cfiCond101) Conditional ??CrossCallReturnLabel_52
          CFI (cfiCond101) R6 load(1, XDATA, add(CFA_XSP16, literal(-10)))
          CFI (cfiCond101) VB load(1, XDATA, add(CFA_XSP16, literal(-9)))
          CFI (cfiCond101) V0 load(1, XDATA, add(CFA_XSP16, literal(-8)))
          CFI (cfiCond101) V1 load(1, XDATA, add(CFA_XSP16, literal(-7)))
          CFI (cfiCond101) R7 load(1, XDATA, add(CFA_XSP16, literal(-6)))
          CFI (cfiCond101) ?RET_LOW load(1, XDATA, add(CFA_XSP16, literal(-5)))
          CFI (cfiCond101) ?RET_HIGH load(1, XDATA, add(CFA_XSP16, literal(-4)))
          CFI (cfiCond101) ?BRET_EXT load(1, XDATA, add(CFA_XSP16, literal(-3)))
          CFI (cfiCond101) DPL0 load(1, XDATA, add(CFA_XSP16, literal(-2)))
          CFI (cfiCond101) DPH0 load(1, XDATA, add(CFA_XSP16, literal(-1)))
          CFI (cfiCond101) CFA_SP SP+0
          CFI (cfiCond101) CFA_XSP16 add(XSP16, 10)
          CFI Block cfiPicker102 Using cfiCommon1
          CFI (cfiPicker102) NoFunction
          CFI (cfiPicker102) Picker
        LCALL   ??Subroutine28_0 & 0xFFFF
??CrossCallReturnLabel_64:
        RET
          CFI EndBlock cfiCond98
          CFI EndBlock cfiCond99
          CFI EndBlock cfiCond100
          CFI EndBlock cfiCond101
          CFI EndBlock cfiPicker102

        RSEG BANKED_CODE:CODE:NOROOT(0)
?Subroutine12:
          CFI Block cfiCond103 Using cfiCommon0
          CFI Function rxStartIsr
          CFI Conditional ??CrossCallReturnLabel_19
          CFI R6 load(1, XDATA, add(CFA_XSP16, literal(-15)))
          CFI VB load(1, XDATA, add(CFA_XSP16, literal(-14)))
          CFI V0 load(1, XDATA, add(CFA_XSP16, literal(-13)))
          CFI V1 load(1, XDATA, add(CFA_XSP16, literal(-12)))
          CFI V2 load(1, XDATA, add(CFA_XSP16, literal(-11)))
          CFI V3 load(1, XDATA, add(CFA_XSP16, literal(-10)))
          CFI V4 load(1, XDATA, add(CFA_XSP16, literal(-9)))
          CFI V5 load(1, XDATA, add(CFA_XSP16, literal(-8)))
          CFI V6 load(1, XDATA, add(CFA_XSP16, literal(-7)))
          CFI R7 load(1, XDATA, add(CFA_XSP16, literal(-6)))
          CFI ?RET_LOW load(1, XDATA, add(CFA_XSP16, literal(-5)))
          CFI ?RET_HIGH load(1, XDATA, add(CFA_XSP16, literal(-4)))
          CFI ?BRET_EXT load(1, XDATA, add(CFA_XSP16, literal(-3)))
          CFI DPL0 load(1, XDATA, add(CFA_XSP16, literal(-2)))
          CFI DPH0 load(1, XDATA, add(CFA_XSP16, literal(-1)))
          CFI CFA_SP SP+0
          CFI CFA_XSP16 add(XSP16, 17)
          CFI Block cfiCond104 Using cfiCommon0
          CFI (cfiCond104) Function rxFcsIsr
          CFI (cfiCond104) Conditional ??CrossCallReturnLabel_20
          CFI (cfiCond104) R6 load(1, XDATA, add(CFA_XSP16, literal(-10)))
          CFI (cfiCond104) VB load(1, XDATA, add(CFA_XSP16, literal(-9)))
          CFI (cfiCond104) V0 load(1, XDATA, add(CFA_XSP16, literal(-8)))
          CFI (cfiCond104) V1 load(1, XDATA, add(CFA_XSP16, literal(-7)))
          CFI (cfiCond104) R7 load(1, XDATA, add(CFA_XSP16, literal(-6)))
          CFI (cfiCond104) ?RET_LOW load(1, XDATA, add(CFA_XSP16, literal(-5)))
          CFI (cfiCond104) ?RET_HIGH load(1, XDATA, add(CFA_XSP16, literal(-4)))
          CFI (cfiCond104) ?BRET_EXT load(1, XDATA, add(CFA_XSP16, literal(-3)))
          CFI (cfiCond104) DPL0 load(1, XDATA, add(CFA_XSP16, literal(-2)))
          CFI (cfiCond104) DPH0 load(1, XDATA, add(CFA_XSP16, literal(-1)))
          CFI (cfiCond104) CFA_SP SP+0
          CFI (cfiCond104) CFA_XSP16 add(XSP16, 10)
          CFI Block cfiPicker105 Using cfiCommon1
          CFI (cfiPicker105) NoFunction
          CFI (cfiPicker105) Picker
        MOV     DPTR,#0x61a4
        MOVX    A,@DPTR
        CLR     0xE0 /* A   */.0
        MOVX    @DPTR,A
        MOV     DPTR,#macRxOutgoingAckFlag
        CLR     A
        MOVX    @DPTR,A
        RET
          CFI EndBlock cfiCond103
          CFI EndBlock cfiCond104
          CFI EndBlock cfiPicker105

        RSEG BANKED_CODE:CODE:NOROOT(0)
?Subroutine4:
          CFI Block cfiCond106 Using cfiCommon0
          CFI Function rxAddrIsr
          CFI Conditional ??CrossCallReturnLabel_53
          CFI R6 load(1, XDATA, add(CFA_XSP16, literal(-9)))
          CFI VB load(1, XDATA, add(CFA_XSP16, literal(-8)))
          CFI V0 load(1, XDATA, add(CFA_XSP16, literal(-7)))
          CFI R7 load(1, XDATA, add(CFA_XSP16, literal(-6)))
          CFI ?RET_LOW load(1, XDATA, add(CFA_XSP16, literal(-5)))
          CFI ?RET_HIGH load(1, XDATA, add(CFA_XSP16, literal(-4)))
          CFI ?BRET_EXT load(1, XDATA, add(CFA_XSP16, literal(-3)))
          CFI DPL0 load(1, XDATA, add(CFA_XSP16, literal(-2)))
          CFI DPH0 load(1, XDATA, add(CFA_XSP16, literal(-1)))
          CFI CFA_SP SP+0
          CFI CFA_XSP16 add(XSP16, 29)
          CFI Block cfiCond107 Using cfiCommon0
          CFI (cfiCond107) Function rxFcsIsr
          CFI (cfiCond107) Conditional ??CrossCallReturnLabel_54
          CFI (cfiCond107) R6 load(1, XDATA, add(CFA_XSP16, literal(-10)))
          CFI (cfiCond107) VB load(1, XDATA, add(CFA_XSP16, literal(-9)))
          CFI (cfiCond107) V0 load(1, XDATA, add(CFA_XSP16, literal(-8)))
          CFI (cfiCond107) V1 load(1, XDATA, add(CFA_XSP16, literal(-7)))
          CFI (cfiCond107) R7 load(1, XDATA, add(CFA_XSP16, literal(-6)))
          CFI (cfiCond107) ?RET_LOW load(1, XDATA, add(CFA_XSP16, literal(-5)))
          CFI (cfiCond107) ?RET_HIGH load(1, XDATA, add(CFA_XSP16, literal(-4)))
          CFI (cfiCond107) ?BRET_EXT load(1, XDATA, add(CFA_XSP16, literal(-3)))
          CFI (cfiCond107) DPL0 load(1, XDATA, add(CFA_XSP16, literal(-2)))
          CFI (cfiCond107) DPH0 load(1, XDATA, add(CFA_XSP16, literal(-1)))
          CFI (cfiCond107) CFA_SP SP+0
          CFI (cfiCond107) CFA_XSP16 add(XSP16, 10)
          CFI Block cfiPicker108 Using cfiCommon1
          CFI (cfiPicker108) NoFunction
          CFI (cfiPicker108) Picker
        MOV     A,R0
        MOVX    @DPTR,A
        INC     DPTR
        MOV     A,R1
          CFI EndBlock cfiCond106
          CFI EndBlock cfiCond107
          CFI EndBlock cfiPicker108
        REQUIRE ??Subroutine26_0
        ; // Fall through to label ??Subroutine26_0

        RSEG BANKED_CODE:CODE:NOROOT(0)
??Subroutine26_0:
          CFI Block cfiCond109 Using cfiCommon0
          CFI Function rxStartIsr
          CFI Conditional ??CrossCallReturnLabel_55
          CFI R6 load(1, XDATA, add(CFA_XSP16, literal(-15)))
          CFI VB load(1, XDATA, add(CFA_XSP16, literal(-14)))
          CFI V0 load(1, XDATA, add(CFA_XSP16, literal(-13)))
          CFI V1 load(1, XDATA, add(CFA_XSP16, literal(-12)))
          CFI V2 load(1, XDATA, add(CFA_XSP16, literal(-11)))
          CFI V3 load(1, XDATA, add(CFA_XSP16, literal(-10)))
          CFI V4 load(1, XDATA, add(CFA_XSP16, literal(-9)))
          CFI V5 load(1, XDATA, add(CFA_XSP16, literal(-8)))
          CFI V6 load(1, XDATA, add(CFA_XSP16, literal(-7)))
          CFI R7 load(1, XDATA, add(CFA_XSP16, literal(-6)))
          CFI ?RET_LOW load(1, XDATA, add(CFA_XSP16, literal(-5)))
          CFI ?RET_HIGH load(1, XDATA, add(CFA_XSP16, literal(-4)))
          CFI ?BRET_EXT load(1, XDATA, add(CFA_XSP16, literal(-3)))
          CFI DPL0 load(1, XDATA, add(CFA_XSP16, literal(-2)))
          CFI DPH0 load(1, XDATA, add(CFA_XSP16, literal(-1)))
          CFI CFA_SP SP+0
          CFI CFA_XSP16 add(XSP16, 17)
          CFI Block cfiCond110 Using cfiCommon0
          CFI (cfiCond110) Function rxFcsIsr
          CFI (cfiCond110) Conditional ??CrossCallReturnLabel_56
          CFI (cfiCond110) R6 load(1, XDATA, add(CFA_XSP16, literal(-10)))
          CFI (cfiCond110) VB load(1, XDATA, add(CFA_XSP16, literal(-9)))
          CFI (cfiCond110) V0 load(1, XDATA, add(CFA_XSP16, literal(-8)))
          CFI (cfiCond110) V1 load(1, XDATA, add(CFA_XSP16, literal(-7)))
          CFI (cfiCond110) R7 load(1, XDATA, add(CFA_XSP16, literal(-6)))
          CFI (cfiCond110) ?RET_LOW load(1, XDATA, add(CFA_XSP16, literal(-5)))
          CFI (cfiCond110) ?RET_HIGH load(1, XDATA, add(CFA_XSP16, literal(-4)))
          CFI (cfiCond110) ?BRET_EXT load(1, XDATA, add(CFA_XSP16, literal(-3)))
          CFI (cfiCond110) DPL0 load(1, XDATA, add(CFA_XSP16, literal(-2)))
          CFI (cfiCond110) DPH0 load(1, XDATA, add(CFA_XSP16, literal(-1)))
          CFI (cfiCond110) CFA_SP SP+0
          CFI (cfiCond110) CFA_XSP16 add(XSP16, 10)
          CFI Block cfiCond111 Using cfiCommon0
          CFI (cfiCond111) Function rxAddrIsr
          CFI (cfiCond111) Conditional ??CrossCallReturnLabel_53
          CFI (cfiCond111) R6 load(1, XDATA, add(CFA_XSP16, literal(-9)))
          CFI (cfiCond111) VB load(1, XDATA, add(CFA_XSP16, literal(-8)))
          CFI (cfiCond111) V0 load(1, XDATA, add(CFA_XSP16, literal(-7)))
          CFI (cfiCond111) R7 load(1, XDATA, add(CFA_XSP16, literal(-6)))
          CFI (cfiCond111) ?RET_LOW load(1, XDATA, add(CFA_XSP16, literal(-5)))
          CFI (cfiCond111) ?RET_HIGH load(1, XDATA, add(CFA_XSP16, literal(-4)))
          CFI (cfiCond111) ?BRET_EXT load(1, XDATA, add(CFA_XSP16, literal(-3)))
          CFI (cfiCond111) DPL0 load(1, XDATA, add(CFA_XSP16, literal(-2)))
          CFI (cfiCond111) DPH0 load(1, XDATA, add(CFA_XSP16, literal(-1)))
          CFI (cfiCond111) CFA_SP SP+0
          CFI (cfiCond111) CFA_XSP16 add(XSP16, 29)
          CFI Block cfiCond112 Using cfiCommon0
          CFI (cfiCond112) Function rxFcsIsr
          CFI (cfiCond112) Conditional ??CrossCallReturnLabel_54
          CFI (cfiCond112) R6 load(1, XDATA, add(CFA_XSP16, literal(-10)))
          CFI (cfiCond112) VB load(1, XDATA, add(CFA_XSP16, literal(-9)))
          CFI (cfiCond112) V0 load(1, XDATA, add(CFA_XSP16, literal(-8)))
          CFI (cfiCond112) V1 load(1, XDATA, add(CFA_XSP16, literal(-7)))
          CFI (cfiCond112) R7 load(1, XDATA, add(CFA_XSP16, literal(-6)))
          CFI (cfiCond112) ?RET_LOW load(1, XDATA, add(CFA_XSP16, literal(-5)))
          CFI (cfiCond112) ?RET_HIGH load(1, XDATA, add(CFA_XSP16, literal(-4)))
          CFI (cfiCond112) ?BRET_EXT load(1, XDATA, add(CFA_XSP16, literal(-3)))
          CFI (cfiCond112) DPL0 load(1, XDATA, add(CFA_XSP16, literal(-2)))
          CFI (cfiCond112) DPH0 load(1, XDATA, add(CFA_XSP16, literal(-1)))
          CFI (cfiCond112) CFA_SP SP+0
          CFI (cfiCond112) CFA_XSP16 add(XSP16, 10)
          CFI Block cfiPicker113 Using cfiCommon1
          CFI (cfiPicker113) NoFunction
          CFI (cfiPicker113) Picker
        MOVX    @DPTR,A
        ; Setup parameters for call to function macRxCompleteCallback
        MOV     DPTR,#pRxBuf
        MOVX    A,@DPTR
        RET
          CFI EndBlock cfiCond109
          CFI EndBlock cfiCond110
          CFI EndBlock cfiCond111
          CFI EndBlock cfiCond112
          CFI EndBlock cfiPicker113

        RSEG BANKED_CODE:CODE:NOROOT(0)
?Subroutine3:
          CFI Block cfiCond114 Using cfiCommon0
          CFI Function rxFcsIsr
          CFI Conditional ??CrossCallReturnLabel_57
          CFI R6 load(1, XDATA, add(CFA_XSP16, literal(-10)))
          CFI VB load(1, XDATA, add(CFA_XSP16, literal(-9)))
          CFI V0 load(1, XDATA, add(CFA_XSP16, literal(-8)))
          CFI V1 load(1, XDATA, add(CFA_XSP16, literal(-7)))
          CFI R7 load(1, XDATA, add(CFA_XSP16, literal(-6)))
          CFI ?RET_LOW load(1, XDATA, add(CFA_XSP16, literal(-5)))
          CFI ?RET_HIGH load(1, XDATA, add(CFA_XSP16, literal(-4)))
          CFI ?BRET_EXT load(1, XDATA, add(CFA_XSP16, literal(-3)))
          CFI DPL0 load(1, XDATA, add(CFA_XSP16, literal(-2)))
          CFI DPH0 load(1, XDATA, add(CFA_XSP16, literal(-1)))
          CFI CFA_SP SP+0
          CFI CFA_XSP16 add(XSP16, 10)
          CFI Block cfiCond115 Using cfiCommon0
          CFI (cfiCond115) Function rxDiscardIsr
          CFI (cfiCond115) Conditional ??CrossCallReturnLabel_58
          CFI (cfiCond115) DPL0 Frame(CFA_SP, 4)
          CFI (cfiCond115) DPH0 Frame(CFA_SP, 5)
          CFI (cfiCond115) CFA_SP SP+-5
          CFI (cfiCond115) CFA_XSP16 add(XSP16, 16)
          CFI Block cfiPicker116 Using cfiCommon1
          CFI (cfiPicker116) NoFunction
          CFI (cfiPicker116) Picker
        MOV     DPTR,#0x6194
        MOV     A,#0x5
          CFI EndBlock cfiCond114
          CFI EndBlock cfiCond115
          CFI EndBlock cfiPicker116
        REQUIRE ??Subroutine27_0
        ; // Fall through to label ??Subroutine27_0

        RSEG BANKED_CODE:CODE:NOROOT(0)
??Subroutine27_0:
          CFI Block cfiCond117 Using cfiCommon0
          CFI Function macRxInit
          CFI Conditional ??CrossCallReturnLabel_59
          CFI DPL0 Frame(CFA_SP, 4)
          CFI DPH0 Frame(CFA_SP, 5)
          CFI CFA_SP SP+-5
          CFI Block cfiCond118 Using cfiCommon0
          CFI (cfiCond118) Function rxHaltCleanupFinalStep
          CFI (cfiCond118) Conditional ??CrossCallReturnLabel_60
          CFI (cfiCond118) DPL0 Frame(CFA_SP, 4)
          CFI (cfiCond118) DPH0 Frame(CFA_SP, 5)
          CFI (cfiCond118) CFA_SP SP+-5
          CFI Block cfiCond119 Using cfiCommon0
          CFI (cfiCond119) Function rxFcsIsr
          CFI (cfiCond119) Conditional ??CrossCallReturnLabel_57
          CFI (cfiCond119) R6 load(1, XDATA, add(CFA_XSP16, literal(-10)))
          CFI (cfiCond119) VB load(1, XDATA, add(CFA_XSP16, literal(-9)))
          CFI (cfiCond119) V0 load(1, XDATA, add(CFA_XSP16, literal(-8)))
          CFI (cfiCond119) V1 load(1, XDATA, add(CFA_XSP16, literal(-7)))
          CFI (cfiCond119) R7 load(1, XDATA, add(CFA_XSP16, literal(-6)))
          CFI (cfiCond119) ?RET_LOW load(1, XDATA, add(CFA_XSP16, literal(-5)))
          CFI (cfiCond119) ?RET_HIGH load(1, XDATA, add(CFA_XSP16, literal(-4)))
          CFI (cfiCond119) ?BRET_EXT load(1, XDATA, add(CFA_XSP16, literal(-3)))
          CFI (cfiCond119) DPL0 load(1, XDATA, add(CFA_XSP16, literal(-2)))
          CFI (cfiCond119) DPH0 load(1, XDATA, add(CFA_XSP16, literal(-1)))
          CFI (cfiCond119) CFA_SP SP+0
          CFI (cfiCond119) CFA_XSP16 add(XSP16, 10)
          CFI Block cfiCond120 Using cfiCommon0
          CFI (cfiCond120) Function rxDiscardIsr
          CFI (cfiCond120) Conditional ??CrossCallReturnLabel_58
          CFI (cfiCond120) DPL0 Frame(CFA_SP, 4)
          CFI (cfiCond120) DPH0 Frame(CFA_SP, 5)
          CFI (cfiCond120) CFA_SP SP+-5
          CFI (cfiCond120) CFA_XSP16 add(XSP16, 16)
          CFI Block cfiPicker121 Using cfiCommon1
          CFI (cfiPicker121) NoFunction
          CFI (cfiPicker121) Picker
        MOVX    @DPTR,A
        MOV     DPTR,#pFuncRxState
        MOV     A,#??rxStartIsr?relay & 0xff
        MOVX    @DPTR,A
        INC     DPTR
        MOV     A,#(??rxStartIsr?relay >> 8) & 0xff
        MOVX    @DPTR,A
        RET
          CFI EndBlock cfiCond117
          CFI EndBlock cfiCond118
          CFI EndBlock cfiCond119
          CFI EndBlock cfiCond120
          CFI EndBlock cfiPicker121

        RSEG BANKED_CODE:CODE:NOROOT(0)
?Subroutine2:
          CFI Block cfiCond122 Using cfiCommon0
          CFI Function rxStartIsr
          CFI Conditional ??CrossCallReturnLabel_0
          CFI R6 load(1, XDATA, add(CFA_XSP16, literal(-15)))
          CFI VB load(1, XDATA, add(CFA_XSP16, literal(-14)))
          CFI V0 load(1, XDATA, add(CFA_XSP16, literal(-13)))
          CFI V1 load(1, XDATA, add(CFA_XSP16, literal(-12)))
          CFI V2 load(1, XDATA, add(CFA_XSP16, literal(-11)))
          CFI V3 load(1, XDATA, add(CFA_XSP16, literal(-10)))
          CFI V4 load(1, XDATA, add(CFA_XSP16, literal(-9)))
          CFI V5 load(1, XDATA, add(CFA_XSP16, literal(-8)))
          CFI V6 load(1, XDATA, add(CFA_XSP16, literal(-7)))
          CFI R7 load(1, XDATA, add(CFA_XSP16, literal(-6)))
          CFI ?RET_LOW load(1, XDATA, add(CFA_XSP16, literal(-5)))
          CFI ?RET_HIGH load(1, XDATA, add(CFA_XSP16, literal(-4)))
          CFI ?BRET_EXT load(1, XDATA, add(CFA_XSP16, literal(-3)))
          CFI DPL0 load(1, XDATA, add(CFA_XSP16, literal(-2)))
          CFI DPH0 load(1, XDATA, add(CFA_XSP16, literal(-1)))
          CFI CFA_SP SP+0
          CFI CFA_XSP16 add(XSP16, 17)
          CFI Block cfiCond123 Using cfiCommon0
          CFI (cfiCond123) Function rxStartIsr
          CFI (cfiCond123) Conditional ??CrossCallReturnLabel_1
          CFI (cfiCond123) R6 load(1, XDATA, add(CFA_XSP16, literal(-15)))
          CFI (cfiCond123) VB load(1, XDATA, add(CFA_XSP16, literal(-14)))
          CFI (cfiCond123) V0 load(1, XDATA, add(CFA_XSP16, literal(-13)))
          CFI (cfiCond123) V1 load(1, XDATA, add(CFA_XSP16, literal(-12)))
          CFI (cfiCond123) V2 load(1, XDATA, add(CFA_XSP16, literal(-11)))
          CFI (cfiCond123) V3 load(1, XDATA, add(CFA_XSP16, literal(-10)))
          CFI (cfiCond123) V4 load(1, XDATA, add(CFA_XSP16, literal(-9)))
          CFI (cfiCond123) V5 load(1, XDATA, add(CFA_XSP16, literal(-8)))
          CFI (cfiCond123) V6 load(1, XDATA, add(CFA_XSP16, literal(-7)))
          CFI (cfiCond123) R7 load(1, XDATA, add(CFA_XSP16, literal(-6)))
          CFI (cfiCond123) ?RET_LOW load(1, XDATA, add(CFA_XSP16, literal(-5)))
          CFI (cfiCond123) ?RET_HIGH load(1, XDATA, add(CFA_XSP16, literal(-4)))
          CFI (cfiCond123) ?BRET_EXT load(1, XDATA, add(CFA_XSP16, literal(-3)))
          CFI (cfiCond123) DPL0 load(1, XDATA, add(CFA_XSP16, literal(-2)))
          CFI (cfiCond123) DPH0 load(1, XDATA, add(CFA_XSP16, literal(-1)))
          CFI (cfiCond123) CFA_SP SP+0
          CFI (cfiCond123) CFA_XSP16 add(XSP16, 17)
          CFI Block cfiCond124 Using cfiCommon0
          CFI (cfiCond124) Function rxStartIsr
          CFI (cfiCond124) Conditional ??CrossCallReturnLabel_2
          CFI (cfiCond124) R6 load(1, XDATA, add(CFA_XSP16, literal(-15)))
          CFI (cfiCond124) VB load(1, XDATA, add(CFA_XSP16, literal(-14)))
          CFI (cfiCond124) V0 load(1, XDATA, add(CFA_XSP16, literal(-13)))
          CFI (cfiCond124) V1 load(1, XDATA, add(CFA_XSP16, literal(-12)))
          CFI (cfiCond124) V2 load(1, XDATA, add(CFA_XSP16, literal(-11)))
          CFI (cfiCond124) V3 load(1, XDATA, add(CFA_XSP16, literal(-10)))
          CFI (cfiCond124) V4 load(1, XDATA, add(CFA_XSP16, literal(-9)))
          CFI (cfiCond124) V5 load(1, XDATA, add(CFA_XSP16, literal(-8)))
          CFI (cfiCond124) V6 load(1, XDATA, add(CFA_XSP16, literal(-7)))
          CFI (cfiCond124) R7 load(1, XDATA, add(CFA_XSP16, literal(-6)))
          CFI (cfiCond124) ?RET_LOW load(1, XDATA, add(CFA_XSP16, literal(-5)))
          CFI (cfiCond124) ?RET_HIGH load(1, XDATA, add(CFA_XSP16, literal(-4)))
          CFI (cfiCond124) ?BRET_EXT load(1, XDATA, add(CFA_XSP16, literal(-3)))
          CFI (cfiCond124) DPL0 load(1, XDATA, add(CFA_XSP16, literal(-2)))
          CFI (cfiCond124) DPH0 load(1, XDATA, add(CFA_XSP16, literal(-1)))
          CFI (cfiCond124) CFA_SP SP+0
          CFI (cfiCond124) CFA_XSP16 add(XSP16, 17)
          CFI Block cfiCond125 Using cfiCommon0
          CFI (cfiCond125) Function rxFcsIsr
          CFI (cfiCond125) Conditional ??CrossCallReturnLabel_3
          CFI (cfiCond125) R6 load(1, XDATA, add(CFA_XSP16, literal(-10)))
          CFI (cfiCond125) VB load(1, XDATA, add(CFA_XSP16, literal(-9)))
          CFI (cfiCond125) V0 load(1, XDATA, add(CFA_XSP16, literal(-8)))
          CFI (cfiCond125) V1 load(1, XDATA, add(CFA_XSP16, literal(-7)))
          CFI (cfiCond125) R7 load(1, XDATA, add(CFA_XSP16, literal(-6)))
          CFI (cfiCond125) ?RET_LOW load(1, XDATA, add(CFA_XSP16, literal(-5)))
          CFI (cfiCond125) ?RET_HIGH load(1, XDATA, add(CFA_XSP16, literal(-4)))
          CFI (cfiCond125) ?BRET_EXT load(1, XDATA, add(CFA_XSP16, literal(-3)))
          CFI (cfiCond125) DPL0 load(1, XDATA, add(CFA_XSP16, literal(-2)))
          CFI (cfiCond125) DPH0 load(1, XDATA, add(CFA_XSP16, literal(-1)))
          CFI (cfiCond125) CFA_SP SP+0
          CFI (cfiCond125) CFA_XSP16 add(XSP16, 10)
          CFI Block cfiCond126 Using cfiCommon0
          CFI (cfiCond126) Function rxFcsIsr
          CFI (cfiCond126) Conditional ??CrossCallReturnLabel_4
          CFI (cfiCond126) R6 load(1, XDATA, add(CFA_XSP16, literal(-10)))
          CFI (cfiCond126) VB load(1, XDATA, add(CFA_XSP16, literal(-9)))
          CFI (cfiCond126) V0 load(1, XDATA, add(CFA_XSP16, literal(-8)))
          CFI (cfiCond126) V1 load(1, XDATA, add(CFA_XSP16, literal(-7)))
          CFI (cfiCond126) R7 load(1, XDATA, add(CFA_XSP16, literal(-6)))
          CFI (cfiCond126) ?RET_LOW load(1, XDATA, add(CFA_XSP16, literal(-5)))
          CFI (cfiCond126) ?RET_HIGH load(1, XDATA, add(CFA_XSP16, literal(-4)))
          CFI (cfiCond126) ?BRET_EXT load(1, XDATA, add(CFA_XSP16, literal(-3)))
          CFI (cfiCond126) DPL0 load(1, XDATA, add(CFA_XSP16, literal(-2)))
          CFI (cfiCond126) DPH0 load(1, XDATA, add(CFA_XSP16, literal(-1)))
          CFI (cfiCond126) CFA_SP SP+0
          CFI (cfiCond126) CFA_XSP16 add(XSP16, 10)
          CFI Block cfiPicker127 Using cfiCommon1
          CFI (cfiPicker127) NoFunction
          CFI (cfiPicker127) Picker
        MOVX    @DPTR,A
        LCALL   ?Subroutine18 & 0xFFFF
??CrossCallReturnLabel_62:
        RET
          CFI EndBlock cfiCond122
          CFI EndBlock cfiCond123
          CFI EndBlock cfiCond124
          CFI EndBlock cfiCond125
          CFI EndBlock cfiCond126
          CFI EndBlock cfiPicker127

        RSEG BANKED_CODE:CODE:NOROOT(0)
?Subroutine18:
          CFI Block cfiCond128 Using cfiCommon0
          CFI Function rxStartIsr
          CFI Conditional ??CrossCallReturnLabel_63, ??CrossCallReturnLabel_11
          CFI R6 load(1, XDATA, add(CFA_XSP16, literal(-15)))
          CFI VB load(1, XDATA, add(CFA_XSP16, literal(-14)))
          CFI V0 load(1, XDATA, add(CFA_XSP16, literal(-13)))
          CFI V1 load(1, XDATA, add(CFA_XSP16, literal(-12)))
          CFI V2 load(1, XDATA, add(CFA_XSP16, literal(-11)))
          CFI V3 load(1, XDATA, add(CFA_XSP16, literal(-10)))
          CFI V4 load(1, XDATA, add(CFA_XSP16, literal(-9)))
          CFI V5 load(1, XDATA, add(CFA_XSP16, literal(-8)))
          CFI V6 load(1, XDATA, add(CFA_XSP16, literal(-7)))
          CFI R7 load(1, XDATA, add(CFA_XSP16, literal(-6)))
          CFI ?RET_LOW load(1, XDATA, add(CFA_XSP16, literal(-5)))
          CFI ?RET_HIGH load(1, XDATA, add(CFA_XSP16, literal(-4)))
          CFI ?BRET_EXT load(1, XDATA, add(CFA_XSP16, literal(-3)))
          CFI DPL0 load(1, XDATA, add(CFA_XSP16, literal(-2)))
          CFI DPH0 load(1, XDATA, add(CFA_XSP16, literal(-1)))
          CFI CFA_SP SP+-1
          CFI CFA_XSP16 add(XSP16, 17)
          CFI Block cfiCond129 Using cfiCommon0
          CFI (cfiCond129) Function rxAddrIsr
          CFI (cfiCond129) Conditional ??CrossCallReturnLabel_63, ??CrossCallReturnLabel_12
          CFI (cfiCond129) R6 load(1, XDATA, add(CFA_XSP16, literal(-9)))
          CFI (cfiCond129) VB load(1, XDATA, add(CFA_XSP16, literal(-8)))
          CFI (cfiCond129) V0 load(1, XDATA, add(CFA_XSP16, literal(-7)))
          CFI (cfiCond129) R7 load(1, XDATA, add(CFA_XSP16, literal(-6)))
          CFI (cfiCond129) ?RET_LOW load(1, XDATA, add(CFA_XSP16, literal(-5)))
          CFI (cfiCond129) ?RET_HIGH load(1, XDATA, add(CFA_XSP16, literal(-4)))
          CFI (cfiCond129) ?BRET_EXT load(1, XDATA, add(CFA_XSP16, literal(-3)))
          CFI (cfiCond129) DPL0 load(1, XDATA, add(CFA_XSP16, literal(-2)))
          CFI (cfiCond129) DPH0 load(1, XDATA, add(CFA_XSP16, literal(-1)))
          CFI (cfiCond129) CFA_SP SP+0
          CFI (cfiCond129) CFA_XSP16 add(XSP16, 29)
          CFI Block cfiCond130 Using cfiCommon0
          CFI (cfiCond130) Function rxStartIsr
          CFI (cfiCond130) Conditional ??CrossCallReturnLabel_62, ??CrossCallReturnLabel_0
          CFI (cfiCond130) R6 load(1, XDATA, add(CFA_XSP16, literal(-15)))
          CFI (cfiCond130) VB load(1, XDATA, add(CFA_XSP16, literal(-14)))
          CFI (cfiCond130) V0 load(1, XDATA, add(CFA_XSP16, literal(-13)))
          CFI (cfiCond130) V1 load(1, XDATA, add(CFA_XSP16, literal(-12)))
          CFI (cfiCond130) V2 load(1, XDATA, add(CFA_XSP16, literal(-11)))
          CFI (cfiCond130) V3 load(1, XDATA, add(CFA_XSP16, literal(-10)))
          CFI (cfiCond130) V4 load(1, XDATA, add(CFA_XSP16, literal(-9)))
          CFI (cfiCond130) V5 load(1, XDATA, add(CFA_XSP16, literal(-8)))
          CFI (cfiCond130) V6 load(1, XDATA, add(CFA_XSP16, literal(-7)))
          CFI (cfiCond130) R7 load(1, XDATA, add(CFA_XSP16, literal(-6)))
          CFI (cfiCond130) ?RET_LOW load(1, XDATA, add(CFA_XSP16, literal(-5)))
          CFI (cfiCond130) ?RET_HIGH load(1, XDATA, add(CFA_XSP16, literal(-4)))
          CFI (cfiCond130) ?BRET_EXT load(1, XDATA, add(CFA_XSP16, literal(-3)))
          CFI (cfiCond130) DPL0 load(1, XDATA, add(CFA_XSP16, literal(-2)))
          CFI (cfiCond130) DPH0 load(1, XDATA, add(CFA_XSP16, literal(-1)))
          CFI (cfiCond130) CFA_SP SP+0
          CFI (cfiCond130) CFA_XSP16 add(XSP16, 17)
          CFI Block cfiCond131 Using cfiCommon0
          CFI (cfiCond131) Function rxStartIsr
          CFI (cfiCond131) Conditional ??CrossCallReturnLabel_62, ??CrossCallReturnLabel_1
          CFI (cfiCond131) R6 load(1, XDATA, add(CFA_XSP16, literal(-15)))
          CFI (cfiCond131) VB load(1, XDATA, add(CFA_XSP16, literal(-14)))
          CFI (cfiCond131) V0 load(1, XDATA, add(CFA_XSP16, literal(-13)))
          CFI (cfiCond131) V1 load(1, XDATA, add(CFA_XSP16, literal(-12)))
          CFI (cfiCond131) V2 load(1, XDATA, add(CFA_XSP16, literal(-11)))
          CFI (cfiCond131) V3 load(1, XDATA, add(CFA_XSP16, literal(-10)))
          CFI (cfiCond131) V4 load(1, XDATA, add(CFA_XSP16, literal(-9)))
          CFI (cfiCond131) V5 load(1, XDATA, add(CFA_XSP16, literal(-8)))
          CFI (cfiCond131) V6 load(1, XDATA, add(CFA_XSP16, literal(-7)))
          CFI (cfiCond131) R7 load(1, XDATA, add(CFA_XSP16, literal(-6)))
          CFI (cfiCond131) ?RET_LOW load(1, XDATA, add(CFA_XSP16, literal(-5)))
          CFI (cfiCond131) ?RET_HIGH load(1, XDATA, add(CFA_XSP16, literal(-4)))
          CFI (cfiCond131) ?BRET_EXT load(1, XDATA, add(CFA_XSP16, literal(-3)))
          CFI (cfiCond131) DPL0 load(1, XDATA, add(CFA_XSP16, literal(-2)))
          CFI (cfiCond131) DPH0 load(1, XDATA, add(CFA_XSP16, literal(-1)))
          CFI (cfiCond131) CFA_SP SP+0
          CFI (cfiCond131) CFA_XSP16 add(XSP16, 17)
          CFI Block cfiCond132 Using cfiCommon0
          CFI (cfiCond132) Function rxStartIsr
          CFI (cfiCond132) Conditional ??CrossCallReturnLabel_62, ??CrossCallReturnLabel_2
          CFI (cfiCond132) R6 load(1, XDATA, add(CFA_XSP16, literal(-15)))
          CFI (cfiCond132) VB load(1, XDATA, add(CFA_XSP16, literal(-14)))
          CFI (cfiCond132) V0 load(1, XDATA, add(CFA_XSP16, literal(-13)))
          CFI (cfiCond132) V1 load(1, XDATA, add(CFA_XSP16, literal(-12)))
          CFI (cfiCond132) V2 load(1, XDATA, add(CFA_XSP16, literal(-11)))
          CFI (cfiCond132) V3 load(1, XDATA, add(CFA_XSP16, literal(-10)))
          CFI (cfiCond132) V4 load(1, XDATA, add(CFA_XSP16, literal(-9)))
          CFI (cfiCond132) V5 load(1, XDATA, add(CFA_XSP16, literal(-8)))
          CFI (cfiCond132) V6 load(1, XDATA, add(CFA_XSP16, literal(-7)))
          CFI (cfiCond132) R7 load(1, XDATA, add(CFA_XSP16, literal(-6)))
          CFI (cfiCond132) ?RET_LOW load(1, XDATA, add(CFA_XSP16, literal(-5)))
          CFI (cfiCond132) ?RET_HIGH load(1, XDATA, add(CFA_XSP16, literal(-4)))
          CFI (cfiCond132) ?BRET_EXT load(1, XDATA, add(CFA_XSP16, literal(-3)))
          CFI (cfiCond132) DPL0 load(1, XDATA, add(CFA_XSP16, literal(-2)))
          CFI (cfiCond132) DPH0 load(1, XDATA, add(CFA_XSP16, literal(-1)))
          CFI (cfiCond132) CFA_SP SP+0
          CFI (cfiCond132) CFA_XSP16 add(XSP16, 17)
          CFI Block cfiCond133 Using cfiCommon0
          CFI (cfiCond133) Function rxFcsIsr
          CFI (cfiCond133) Conditional ??CrossCallReturnLabel_62, ??CrossCallReturnLabel_3
          CFI (cfiCond133) R6 load(1, XDATA, add(CFA_XSP16, literal(-10)))
          CFI (cfiCond133) VB load(1, XDATA, add(CFA_XSP16, literal(-9)))
          CFI (cfiCond133) V0 load(1, XDATA, add(CFA_XSP16, literal(-8)))
          CFI (cfiCond133) V1 load(1, XDATA, add(CFA_XSP16, literal(-7)))
          CFI (cfiCond133) R7 load(1, XDATA, add(CFA_XSP16, literal(-6)))
          CFI (cfiCond133) ?RET_LOW load(1, XDATA, add(CFA_XSP16, literal(-5)))
          CFI (cfiCond133) ?RET_HIGH load(1, XDATA, add(CFA_XSP16, literal(-4)))
          CFI (cfiCond133) ?BRET_EXT load(1, XDATA, add(CFA_XSP16, literal(-3)))
          CFI (cfiCond133) DPL0 load(1, XDATA, add(CFA_XSP16, literal(-2)))
          CFI (cfiCond133) DPH0 load(1, XDATA, add(CFA_XSP16, literal(-1)))
          CFI (cfiCond133) CFA_SP SP+0
          CFI (cfiCond133) CFA_XSP16 add(XSP16, 10)
          CFI Block cfiCond134 Using cfiCommon0
          CFI (cfiCond134) Function rxFcsIsr
          CFI (cfiCond134) Conditional ??CrossCallReturnLabel_62, ??CrossCallReturnLabel_4
          CFI (cfiCond134) R6 load(1, XDATA, add(CFA_XSP16, literal(-10)))
          CFI (cfiCond134) VB load(1, XDATA, add(CFA_XSP16, literal(-9)))
          CFI (cfiCond134) V0 load(1, XDATA, add(CFA_XSP16, literal(-8)))
          CFI (cfiCond134) V1 load(1, XDATA, add(CFA_XSP16, literal(-7)))
          CFI (cfiCond134) R7 load(1, XDATA, add(CFA_XSP16, literal(-6)))
          CFI (cfiCond134) ?RET_LOW load(1, XDATA, add(CFA_XSP16, literal(-5)))
          CFI (cfiCond134) ?RET_HIGH load(1, XDATA, add(CFA_XSP16, literal(-4)))
          CFI (cfiCond134) ?BRET_EXT load(1, XDATA, add(CFA_XSP16, literal(-3)))
          CFI (cfiCond134) DPL0 load(1, XDATA, add(CFA_XSP16, literal(-2)))
          CFI (cfiCond134) DPH0 load(1, XDATA, add(CFA_XSP16, literal(-1)))
          CFI (cfiCond134) CFA_SP SP+0
          CFI (cfiCond134) CFA_XSP16 add(XSP16, 10)
          CFI Block cfiPicker135 Using cfiCommon1
          CFI (cfiPicker135) NoFunction
          CFI (cfiPicker135) Picker
        MOV     DPTR,#pRxBuf
          CFI EndBlock cfiCond128
          CFI EndBlock cfiCond129
          CFI EndBlock cfiCond130
          CFI EndBlock cfiCond131
          CFI EndBlock cfiCond132
          CFI EndBlock cfiCond133
          CFI EndBlock cfiCond134
          CFI EndBlock cfiPicker135
        REQUIRE ??Subroutine28_0
        ; // Fall through to label ??Subroutine28_0

        RSEG BANKED_CODE:CODE:NOROOT(0)
??Subroutine28_0:
          CFI Block cfiCond136 Using cfiCommon0
          CFI Function rxStartIsr
          CFI Conditional ??CrossCallReturnLabel_61, ??CrossCallReturnLabel_5
          CFI R6 load(1, XDATA, add(CFA_XSP16, literal(-15)))
          CFI VB load(1, XDATA, add(CFA_XSP16, literal(-14)))
          CFI V0 load(1, XDATA, add(CFA_XSP16, literal(-13)))
          CFI V1 load(1, XDATA, add(CFA_XSP16, literal(-12)))
          CFI V2 load(1, XDATA, add(CFA_XSP16, literal(-11)))
          CFI V3 load(1, XDATA, add(CFA_XSP16, literal(-10)))
          CFI V4 load(1, XDATA, add(CFA_XSP16, literal(-9)))
          CFI V5 load(1, XDATA, add(CFA_XSP16, literal(-8)))
          CFI V6 load(1, XDATA, add(CFA_XSP16, literal(-7)))
          CFI R7 load(1, XDATA, add(CFA_XSP16, literal(-6)))
          CFI ?RET_LOW load(1, XDATA, add(CFA_XSP16, literal(-5)))
          CFI ?RET_HIGH load(1, XDATA, add(CFA_XSP16, literal(-4)))
          CFI ?BRET_EXT load(1, XDATA, add(CFA_XSP16, literal(-3)))
          CFI DPL0 load(1, XDATA, add(CFA_XSP16, literal(-2)))
          CFI DPH0 load(1, XDATA, add(CFA_XSP16, literal(-1)))
          CFI CFA_SP SP+0
          CFI CFA_XSP16 add(XSP16, 17)
          CFI Block cfiCond137 Using cfiCommon0
          CFI (cfiCond137) Function rxStartIsr
          CFI (cfiCond137) Conditional ??CrossCallReturnLabel_61, ??CrossCallReturnLabel_6
          CFI (cfiCond137) R6 load(1, XDATA, add(CFA_XSP16, literal(-15)))
          CFI (cfiCond137) VB load(1, XDATA, add(CFA_XSP16, literal(-14)))
          CFI (cfiCond137) V0 load(1, XDATA, add(CFA_XSP16, literal(-13)))
          CFI (cfiCond137) V1 load(1, XDATA, add(CFA_XSP16, literal(-12)))
          CFI (cfiCond137) V2 load(1, XDATA, add(CFA_XSP16, literal(-11)))
          CFI (cfiCond137) V3 load(1, XDATA, add(CFA_XSP16, literal(-10)))
          CFI (cfiCond137) V4 load(1, XDATA, add(CFA_XSP16, literal(-9)))
          CFI (cfiCond137) V5 load(1, XDATA, add(CFA_XSP16, literal(-8)))
          CFI (cfiCond137) V6 load(1, XDATA, add(CFA_XSP16, literal(-7)))
          CFI (cfiCond137) R7 load(1, XDATA, add(CFA_XSP16, literal(-6)))
          CFI (cfiCond137) ?RET_LOW load(1, XDATA, add(CFA_XSP16, literal(-5)))
          CFI (cfiCond137) ?RET_HIGH load(1, XDATA, add(CFA_XSP16, literal(-4)))
          CFI (cfiCond137) ?BRET_EXT load(1, XDATA, add(CFA_XSP16, literal(-3)))
          CFI (cfiCond137) DPL0 load(1, XDATA, add(CFA_XSP16, literal(-2)))
          CFI (cfiCond137) DPH0 load(1, XDATA, add(CFA_XSP16, literal(-1)))
          CFI (cfiCond137) CFA_SP SP+0
          CFI (cfiCond137) CFA_XSP16 add(XSP16, 17)
          CFI Block cfiCond138 Using cfiCommon0
          CFI (cfiCond138) Function rxStartIsr
          CFI (cfiCond138) Conditional ??CrossCallReturnLabel_64, ??CrossCallReturnLabel_50
          CFI (cfiCond138) R6 load(1, XDATA, add(CFA_XSP16, literal(-15)))
          CFI (cfiCond138) VB load(1, XDATA, add(CFA_XSP16, literal(-14)))
          CFI (cfiCond138) V0 load(1, XDATA, add(CFA_XSP16, literal(-13)))
          CFI (cfiCond138) V1 load(1, XDATA, add(CFA_XSP16, literal(-12)))
          CFI (cfiCond138) V2 load(1, XDATA, add(CFA_XSP16, literal(-11)))
          CFI (cfiCond138) V3 load(1, XDATA, add(CFA_XSP16, literal(-10)))
          CFI (cfiCond138) V4 load(1, XDATA, add(CFA_XSP16, literal(-9)))
          CFI (cfiCond138) V5 load(1, XDATA, add(CFA_XSP16, literal(-8)))
          CFI (cfiCond138) V6 load(1, XDATA, add(CFA_XSP16, literal(-7)))
          CFI (cfiCond138) R7 load(1, XDATA, add(CFA_XSP16, literal(-6)))
          CFI (cfiCond138) ?RET_LOW load(1, XDATA, add(CFA_XSP16, literal(-5)))
          CFI (cfiCond138) ?RET_HIGH load(1, XDATA, add(CFA_XSP16, literal(-4)))
          CFI (cfiCond138) ?BRET_EXT load(1, XDATA, add(CFA_XSP16, literal(-3)))
          CFI (cfiCond138) DPL0 load(1, XDATA, add(CFA_XSP16, literal(-2)))
          CFI (cfiCond138) DPH0 load(1, XDATA, add(CFA_XSP16, literal(-1)))
          CFI (cfiCond138) CFA_SP SP+0
          CFI (cfiCond138) CFA_XSP16 add(XSP16, 17)
          CFI Block cfiCond139 Using cfiCommon0
          CFI (cfiCond139) Function rxStartIsr
          CFI (cfiCond139) Conditional ??CrossCallReturnLabel_64, ??CrossCallReturnLabel_51
          CFI (cfiCond139) R6 load(1, XDATA, add(CFA_XSP16, literal(-15)))
          CFI (cfiCond139) VB load(1, XDATA, add(CFA_XSP16, literal(-14)))
          CFI (cfiCond139) V0 load(1, XDATA, add(CFA_XSP16, literal(-13)))
          CFI (cfiCond139) V1 load(1, XDATA, add(CFA_XSP16, literal(-12)))
          CFI (cfiCond139) V2 load(1, XDATA, add(CFA_XSP16, literal(-11)))
          CFI (cfiCond139) V3 load(1, XDATA, add(CFA_XSP16, literal(-10)))
          CFI (cfiCond139) V4 load(1, XDATA, add(CFA_XSP16, literal(-9)))
          CFI (cfiCond139) V5 load(1, XDATA, add(CFA_XSP16, literal(-8)))
          CFI (cfiCond139) V6 load(1, XDATA, add(CFA_XSP16, literal(-7)))
          CFI (cfiCond139) R7 load(1, XDATA, add(CFA_XSP16, literal(-6)))
          CFI (cfiCond139) ?RET_LOW load(1, XDATA, add(CFA_XSP16, literal(-5)))
          CFI (cfiCond139) ?RET_HIGH load(1, XDATA, add(CFA_XSP16, literal(-4)))
          CFI (cfiCond139) ?BRET_EXT load(1, XDATA, add(CFA_XSP16, literal(-3)))
          CFI (cfiCond139) DPL0 load(1, XDATA, add(CFA_XSP16, literal(-2)))
          CFI (cfiCond139) DPH0 load(1, XDATA, add(CFA_XSP16, literal(-1)))
          CFI (cfiCond139) CFA_SP SP+-1
          CFI (cfiCond139) CFA_XSP16 add(XSP16, 17)
          CFI Block cfiCond140 Using cfiCommon0
          CFI (cfiCond140) Function rxFcsIsr
          CFI (cfiCond140) Conditional ??CrossCallReturnLabel_64, ??CrossCallReturnLabel_52
          CFI (cfiCond140) R6 load(1, XDATA, add(CFA_XSP16, literal(-10)))
          CFI (cfiCond140) VB load(1, XDATA, add(CFA_XSP16, literal(-9)))
          CFI (cfiCond140) V0 load(1, XDATA, add(CFA_XSP16, literal(-8)))
          CFI (cfiCond140) V1 load(1, XDATA, add(CFA_XSP16, literal(-7)))
          CFI (cfiCond140) R7 load(1, XDATA, add(CFA_XSP16, literal(-6)))
          CFI (cfiCond140) ?RET_LOW load(1, XDATA, add(CFA_XSP16, literal(-5)))
          CFI (cfiCond140) ?RET_HIGH load(1, XDATA, add(CFA_XSP16, literal(-4)))
          CFI (cfiCond140) ?BRET_EXT load(1, XDATA, add(CFA_XSP16, literal(-3)))
          CFI (cfiCond140) DPL0 load(1, XDATA, add(CFA_XSP16, literal(-2)))
          CFI (cfiCond140) DPH0 load(1, XDATA, add(CFA_XSP16, literal(-1)))
          CFI (cfiCond140) CFA_SP SP+0
          CFI (cfiCond140) CFA_XSP16 add(XSP16, 10)
          CFI Block cfiCond141 Using cfiCommon0
          CFI (cfiCond141) Function rxStartIsr
          CFI (cfiCond141) Conditional ??CrossCallReturnLabel_64, ??CrossCallReturnLabel_49
          CFI (cfiCond141) R6 load(1, XDATA, add(CFA_XSP16, literal(-15)))
          CFI (cfiCond141) VB load(1, XDATA, add(CFA_XSP16, literal(-14)))
          CFI (cfiCond141) V0 load(1, XDATA, add(CFA_XSP16, literal(-13)))
          CFI (cfiCond141) V1 load(1, XDATA, add(CFA_XSP16, literal(-12)))
          CFI (cfiCond141) V2 load(1, XDATA, add(CFA_XSP16, literal(-11)))
          CFI (cfiCond141) V3 load(1, XDATA, add(CFA_XSP16, literal(-10)))
          CFI (cfiCond141) V4 load(1, XDATA, add(CFA_XSP16, literal(-9)))
          CFI (cfiCond141) V5 load(1, XDATA, add(CFA_XSP16, literal(-8)))
          CFI (cfiCond141) V6 load(1, XDATA, add(CFA_XSP16, literal(-7)))
          CFI (cfiCond141) R7 load(1, XDATA, add(CFA_XSP16, literal(-6)))
          CFI (cfiCond141) ?RET_LOW load(1, XDATA, add(CFA_XSP16, literal(-5)))
          CFI (cfiCond141) ?RET_HIGH load(1, XDATA, add(CFA_XSP16, literal(-4)))
          CFI (cfiCond141) ?BRET_EXT load(1, XDATA, add(CFA_XSP16, literal(-3)))
          CFI (cfiCond141) DPL0 load(1, XDATA, add(CFA_XSP16, literal(-2)))
          CFI (cfiCond141) DPH0 load(1, XDATA, add(CFA_XSP16, literal(-1)))
          CFI (cfiCond141) CFA_SP SP+0
          CFI (cfiCond141) CFA_XSP16 add(XSP16, 17)
          CFI Block cfiCond142 Using cfiCommon0
          CFI (cfiCond142) Function rxStartIsr
          CFI (cfiCond142) Conditional ??CrossCallReturnLabel_63, ??CrossCallReturnLabel_11
          CFI (cfiCond142) R6 load(1, XDATA, add(CFA_XSP16, literal(-15)))
          CFI (cfiCond142) VB load(1, XDATA, add(CFA_XSP16, literal(-14)))
          CFI (cfiCond142) V0 load(1, XDATA, add(CFA_XSP16, literal(-13)))
          CFI (cfiCond142) V1 load(1, XDATA, add(CFA_XSP16, literal(-12)))
          CFI (cfiCond142) V2 load(1, XDATA, add(CFA_XSP16, literal(-11)))
          CFI (cfiCond142) V3 load(1, XDATA, add(CFA_XSP16, literal(-10)))
          CFI (cfiCond142) V4 load(1, XDATA, add(CFA_XSP16, literal(-9)))
          CFI (cfiCond142) V5 load(1, XDATA, add(CFA_XSP16, literal(-8)))
          CFI (cfiCond142) V6 load(1, XDATA, add(CFA_XSP16, literal(-7)))
          CFI (cfiCond142) R7 load(1, XDATA, add(CFA_XSP16, literal(-6)))
          CFI (cfiCond142) ?RET_LOW load(1, XDATA, add(CFA_XSP16, literal(-5)))
          CFI (cfiCond142) ?RET_HIGH load(1, XDATA, add(CFA_XSP16, literal(-4)))
          CFI (cfiCond142) ?BRET_EXT load(1, XDATA, add(CFA_XSP16, literal(-3)))
          CFI (cfiCond142) DPL0 load(1, XDATA, add(CFA_XSP16, literal(-2)))
          CFI (cfiCond142) DPH0 load(1, XDATA, add(CFA_XSP16, literal(-1)))
          CFI (cfiCond142) CFA_SP SP+-1
          CFI (cfiCond142) CFA_XSP16 add(XSP16, 17)
          CFI Block cfiCond143 Using cfiCommon0
          CFI (cfiCond143) Function rxAddrIsr
          CFI (cfiCond143) Conditional ??CrossCallReturnLabel_63, ??CrossCallReturnLabel_12
          CFI (cfiCond143) R6 load(1, XDATA, add(CFA_XSP16, literal(-9)))
          CFI (cfiCond143) VB load(1, XDATA, add(CFA_XSP16, literal(-8)))
          CFI (cfiCond143) V0 load(1, XDATA, add(CFA_XSP16, literal(-7)))
          CFI (cfiCond143) R7 load(1, XDATA, add(CFA_XSP16, literal(-6)))
          CFI (cfiCond143) ?RET_LOW load(1, XDATA, add(CFA_XSP16, literal(-5)))
          CFI (cfiCond143) ?RET_HIGH load(1, XDATA, add(CFA_XSP16, literal(-4)))
          CFI (cfiCond143) ?BRET_EXT load(1, XDATA, add(CFA_XSP16, literal(-3)))
          CFI (cfiCond143) DPL0 load(1, XDATA, add(CFA_XSP16, literal(-2)))
          CFI (cfiCond143) DPH0 load(1, XDATA, add(CFA_XSP16, literal(-1)))
          CFI (cfiCond143) CFA_SP SP+0
          CFI (cfiCond143) CFA_XSP16 add(XSP16, 29)
          CFI Block cfiCond144 Using cfiCommon0
          CFI (cfiCond144) Function rxStartIsr
          CFI (cfiCond144) Conditional ??CrossCallReturnLabel_62, ??CrossCallReturnLabel_0
          CFI (cfiCond144) R6 load(1, XDATA, add(CFA_XSP16, literal(-15)))
          CFI (cfiCond144) VB load(1, XDATA, add(CFA_XSP16, literal(-14)))
          CFI (cfiCond144) V0 load(1, XDATA, add(CFA_XSP16, literal(-13)))
          CFI (cfiCond144) V1 load(1, XDATA, add(CFA_XSP16, literal(-12)))
          CFI (cfiCond144) V2 load(1, XDATA, add(CFA_XSP16, literal(-11)))
          CFI (cfiCond144) V3 load(1, XDATA, add(CFA_XSP16, literal(-10)))
          CFI (cfiCond144) V4 load(1, XDATA, add(CFA_XSP16, literal(-9)))
          CFI (cfiCond144) V5 load(1, XDATA, add(CFA_XSP16, literal(-8)))
          CFI (cfiCond144) V6 load(1, XDATA, add(CFA_XSP16, literal(-7)))
          CFI (cfiCond144) R7 load(1, XDATA, add(CFA_XSP16, literal(-6)))
          CFI (cfiCond144) ?RET_LOW load(1, XDATA, add(CFA_XSP16, literal(-5)))
          CFI (cfiCond144) ?RET_HIGH load(1, XDATA, add(CFA_XSP16, literal(-4)))
          CFI (cfiCond144) ?BRET_EXT load(1, XDATA, add(CFA_XSP16, literal(-3)))
          CFI (cfiCond144) DPL0 load(1, XDATA, add(CFA_XSP16, literal(-2)))
          CFI (cfiCond144) DPH0 load(1, XDATA, add(CFA_XSP16, literal(-1)))
          CFI (cfiCond144) CFA_SP SP+0
          CFI (cfiCond144) CFA_XSP16 add(XSP16, 17)
          CFI Block cfiCond145 Using cfiCommon0
          CFI (cfiCond145) Function rxStartIsr
          CFI (cfiCond145) Conditional ??CrossCallReturnLabel_62, ??CrossCallReturnLabel_1
          CFI (cfiCond145) R6 load(1, XDATA, add(CFA_XSP16, literal(-15)))
          CFI (cfiCond145) VB load(1, XDATA, add(CFA_XSP16, literal(-14)))
          CFI (cfiCond145) V0 load(1, XDATA, add(CFA_XSP16, literal(-13)))
          CFI (cfiCond145) V1 load(1, XDATA, add(CFA_XSP16, literal(-12)))
          CFI (cfiCond145) V2 load(1, XDATA, add(CFA_XSP16, literal(-11)))
          CFI (cfiCond145) V3 load(1, XDATA, add(CFA_XSP16, literal(-10)))
          CFI (cfiCond145) V4 load(1, XDATA, add(CFA_XSP16, literal(-9)))
          CFI (cfiCond145) V5 load(1, XDATA, add(CFA_XSP16, literal(-8)))
          CFI (cfiCond145) V6 load(1, XDATA, add(CFA_XSP16, literal(-7)))
          CFI (cfiCond145) R7 load(1, XDATA, add(CFA_XSP16, literal(-6)))
          CFI (cfiCond145) ?RET_LOW load(1, XDATA, add(CFA_XSP16, literal(-5)))
          CFI (cfiCond145) ?RET_HIGH load(1, XDATA, add(CFA_XSP16, literal(-4)))
          CFI (cfiCond145) ?BRET_EXT load(1, XDATA, add(CFA_XSP16, literal(-3)))
          CFI (cfiCond145) DPL0 load(1, XDATA, add(CFA_XSP16, literal(-2)))
          CFI (cfiCond145) DPH0 load(1, XDATA, add(CFA_XSP16, literal(-1)))
          CFI (cfiCond145) CFA_SP SP+0
          CFI (cfiCond145) CFA_XSP16 add(XSP16, 17)
          CFI Block cfiCond146 Using cfiCommon0
          CFI (cfiCond146) Function rxStartIsr
          CFI (cfiCond146) Conditional ??CrossCallReturnLabel_62, ??CrossCallReturnLabel_2
          CFI (cfiCond146) R6 load(1, XDATA, add(CFA_XSP16, literal(-15)))
          CFI (cfiCond146) VB load(1, XDATA, add(CFA_XSP16, literal(-14)))
          CFI (cfiCond146) V0 load(1, XDATA, add(CFA_XSP16, literal(-13)))
          CFI (cfiCond146) V1 load(1, XDATA, add(CFA_XSP16, literal(-12)))
          CFI (cfiCond146) V2 load(1, XDATA, add(CFA_XSP16, literal(-11)))
          CFI (cfiCond146) V3 load(1, XDATA, add(CFA_XSP16, literal(-10)))
          CFI (cfiCond146) V4 load(1, XDATA, add(CFA_XSP16, literal(-9)))
          CFI (cfiCond146) V5 load(1, XDATA, add(CFA_XSP16, literal(-8)))
          CFI (cfiCond146) V6 load(1, XDATA, add(CFA_XSP16, literal(-7)))
          CFI (cfiCond146) R7 load(1, XDATA, add(CFA_XSP16, literal(-6)))
          CFI (cfiCond146) ?RET_LOW load(1, XDATA, add(CFA_XSP16, literal(-5)))
          CFI (cfiCond146) ?RET_HIGH load(1, XDATA, add(CFA_XSP16, literal(-4)))
          CFI (cfiCond146) ?BRET_EXT load(1, XDATA, add(CFA_XSP16, literal(-3)))
          CFI (cfiCond146) DPL0 load(1, XDATA, add(CFA_XSP16, literal(-2)))
          CFI (cfiCond146) DPH0 load(1, XDATA, add(CFA_XSP16, literal(-1)))
          CFI (cfiCond146) CFA_SP SP+0
          CFI (cfiCond146) CFA_XSP16 add(XSP16, 17)
          CFI Block cfiCond147 Using cfiCommon0
          CFI (cfiCond147) Function rxFcsIsr
          CFI (cfiCond147) Conditional ??CrossCallReturnLabel_62, ??CrossCallReturnLabel_3
          CFI (cfiCond147) R6 load(1, XDATA, add(CFA_XSP16, literal(-10)))
          CFI (cfiCond147) VB load(1, XDATA, add(CFA_XSP16, literal(-9)))
          CFI (cfiCond147) V0 load(1, XDATA, add(CFA_XSP16, literal(-8)))
          CFI (cfiCond147) V1 load(1, XDATA, add(CFA_XSP16, literal(-7)))
          CFI (cfiCond147) R7 load(1, XDATA, add(CFA_XSP16, literal(-6)))
          CFI (cfiCond147) ?RET_LOW load(1, XDATA, add(CFA_XSP16, literal(-5)))
          CFI (cfiCond147) ?RET_HIGH load(1, XDATA, add(CFA_XSP16, literal(-4)))
          CFI (cfiCond147) ?BRET_EXT load(1, XDATA, add(CFA_XSP16, literal(-3)))
          CFI (cfiCond147) DPL0 load(1, XDATA, add(CFA_XSP16, literal(-2)))
          CFI (cfiCond147) DPH0 load(1, XDATA, add(CFA_XSP16, literal(-1)))
          CFI (cfiCond147) CFA_SP SP+0
          CFI (cfiCond147) CFA_XSP16 add(XSP16, 10)
          CFI Block cfiCond148 Using cfiCommon0
          CFI (cfiCond148) Function rxFcsIsr
          CFI (cfiCond148) Conditional ??CrossCallReturnLabel_62, ??CrossCallReturnLabel_4
          CFI (cfiCond148) R6 load(1, XDATA, add(CFA_XSP16, literal(-10)))
          CFI (cfiCond148) VB load(1, XDATA, add(CFA_XSP16, literal(-9)))
          CFI (cfiCond148) V0 load(1, XDATA, add(CFA_XSP16, literal(-8)))
          CFI (cfiCond148) V1 load(1, XDATA, add(CFA_XSP16, literal(-7)))
          CFI (cfiCond148) R7 load(1, XDATA, add(CFA_XSP16, literal(-6)))
          CFI (cfiCond148) ?RET_LOW load(1, XDATA, add(CFA_XSP16, literal(-5)))
          CFI (cfiCond148) ?RET_HIGH load(1, XDATA, add(CFA_XSP16, literal(-4)))
          CFI (cfiCond148) ?BRET_EXT load(1, XDATA, add(CFA_XSP16, literal(-3)))
          CFI (cfiCond148) DPL0 load(1, XDATA, add(CFA_XSP16, literal(-2)))
          CFI (cfiCond148) DPH0 load(1, XDATA, add(CFA_XSP16, literal(-1)))
          CFI (cfiCond148) CFA_SP SP+0
          CFI (cfiCond148) CFA_XSP16 add(XSP16, 10)
          CFI Block cfiPicker149 Using cfiCommon1
          CFI (cfiPicker149) NoFunction
          CFI (cfiPicker149) Picker
        MOVX    A,@DPTR
        MOV     R0,A
        INC     DPTR
        MOVX    A,@DPTR
        XCH     A,R0
        RET
          CFI EndBlock cfiCond136
          CFI EndBlock cfiCond137
          CFI EndBlock cfiCond138
          CFI EndBlock cfiCond139
          CFI EndBlock cfiCond140
          CFI EndBlock cfiCond141
          CFI EndBlock cfiCond142
          CFI EndBlock cfiCond143
          CFI EndBlock cfiCond144
          CFI EndBlock cfiCond145
          CFI EndBlock cfiCond146
          CFI EndBlock cfiCond147
          CFI EndBlock cfiCond148
          CFI EndBlock cfiPicker149
//  983 
//  984 
//  985 /*=================================================================================================
//  986  * @fn          rxDone
//  987  *
//  988  * @brief       Common exit point for receive.
//  989  *
//  990  * @param       none
//  991  *
//  992  * @return      none
//  993  *=================================================================================================
//  994  */

        RSEG BANKED_CODE:CODE:NOROOT(0)
//  995 static void rxDone(void)
rxDone:
          CFI Block cfiBlock150 Using cfiCommon0
          CFI Function rxDone
        CODE
//  996 {
        FUNCALL rxDone, rxPostRxUpdates
        LOCFRAME ISTACK, 2, STACK
        LOCFRAME PSTACK, 0, STACK
        LOCFRAME XSTACK, 0, STACK
        LOCFRAME IOVERLAY, 0, STATIC
        LOCFRAME DOVERLAY, 0, STATIC
        ARGFRAME ISTACK, 2, STACK
        ARGFRAME PSTACK, 0, STACK
        ARGFRAME XSTACK, 0, STACK
        ARGFRAME IOVERLAY, 0, STATIC
        ARGFRAME DOVERLAY, 0, STATIC
        PUSH    DPL
          CFI DPL0 Frame(CFA_SP, 4)
          CFI CFA_SP SP+-4
        PUSH    DPH
          CFI DPH0 Frame(CFA_SP, 5)
          CFI CFA_SP SP+-5
        ; Saved register size: 2
        ; Auto size: 0
//  997   /* if the receive FIFO has overflowed, flush it here */
//  998   if (MAC_RADIO_RX_FIFO_HAS_OVERFLOWED())
        MOV     DPTR,#0x6193
        MOVX    A,@DPTR
        MOV     C,0xE0 /* A   */.6
        JNC     ??rxDone_0
        MOVX    A,@DPTR
        MOV     C,0xE0 /* A   */.7
        JC      ??rxDone_0
//  999   {
// 1000     MAC_RADIO_FLUSH_RX_FIFO();
        MOV     0xe1,#-0x13
        MOV     0xe1,#-0x13
// 1001   }
// 1002 
// 1003   /* mark receive as inactive */
// 1004   macRxActive = MAC_RX_ACTIVE_NO_ACTIVITY;
??rxDone_0:
        MOV     DPTR,#macRxActive
        CLR     A
        MOVX    @DPTR,A
// 1005 
// 1006   /* if there is no outgoing ACK, run the post receive updates */
// 1007   if (!macRxOutgoingAckFlag)
        MOV     DPTR,#macRxOutgoingAckFlag
        MOVX    A,@DPTR
        JNZ     ??rxDone_1
// 1008   {
// 1009     rxPostRxUpdates();
        ; Setup parameters for call to function rxPostRxUpdates
        LCALL   ??rxPostRxUpdates?relay
// 1010   }
// 1011 }
??rxDone_1:
        LJMP    ??Subroutine24_0 & 0xFFFF
          CFI EndBlock cfiBlock150
        REQUIRE RFST
// 1012 
// 1013 
// 1014 /**************************************************************************************************
// 1015  * @fn          macRxAckTxDoneCallback
// 1016  *
// 1017  * @brief       Function called when the outoing ACK has completed transmitting.
// 1018  *
// 1019  * @param       none
// 1020  *
// 1021  * @return      none
// 1022  **************************************************************************************************
// 1023  */

        RSEG BANKED_CODE:CODE:NOROOT(0)
// 1024 void macRxAckTxDoneCallback(void)
macRxAckTxDoneCallback:
          CFI Block cfiBlock151 Using cfiCommon0
          CFI Function macRxAckTxDoneCallback
        CODE
// 1025 {
        FUNCALL macRxAckTxDoneCallback, rxPostRxUpdates
        LOCFRAME ISTACK, 2, STACK
        LOCFRAME PSTACK, 0, STACK
        LOCFRAME XSTACK, 0, STACK
        LOCFRAME IOVERLAY, 0, STATIC
        LOCFRAME DOVERLAY, 0, STATIC
        ARGFRAME ISTACK, 2, STACK
        ARGFRAME PSTACK, 0, STACK
        ARGFRAME XSTACK, 0, STACK
        ARGFRAME IOVERLAY, 0, STATIC
        ARGFRAME DOVERLAY, 0, STATIC
        PUSH    DPL
          CFI DPL0 Frame(CFA_SP, 4)
          CFI CFA_SP SP+-4
        PUSH    DPH
          CFI DPH0 Frame(CFA_SP, 5)
          CFI CFA_SP SP+-5
        ; Saved register size: 2
        ; Auto size: 0
// 1026   macRxOutgoingAckFlag = 0;
        MOV     DPTR,#macRxOutgoingAckFlag
        CLR     A
        MOVX    @DPTR,A
// 1027 
// 1028   /*
// 1029    *  With certain interrupt priorities and timing conditions, it is possible this callback
// 1030    *  could be executed before the primary receive logic completes.  To prevent this, the
// 1031    *  post updates are only executed if receive logic is no longer active.  In the case the
// 1032    *  post updates are not executed here, they will execute when the main receive logic
// 1033    *  completes.
// 1034    */
// 1035   if (!macRxActive)
        MOV     DPTR,#macRxActive
        MOVX    A,@DPTR
        JNZ     ??macRxAckTxDoneCallback_0
// 1036   {
// 1037     rxPostRxUpdates();
        ; Setup parameters for call to function rxPostRxUpdates
        LCALL   ??rxPostRxUpdates?relay
// 1038   }
// 1039 }
??macRxAckTxDoneCallback_0:
        LJMP    ??Subroutine24_0 & 0xFFFF
          CFI EndBlock cfiBlock151
// 1040 
// 1041 
// 1042 /*=================================================================================================
// 1043  * @fn          rxPostRxUpdates
// 1044  *
// 1045  * @brief       Updates that need to be performed once receive is complete.
// 1046  *
// 1047  *              It is not fatal to execute this function if somehow receive is active.  Under
// 1048  *              certain timing/interrupt conditions a new receive may have started before this
// 1049  *              function executes.  This should happen very rarely (if it happens at all) and
// 1050  *              would cause no problems.
// 1051  *
// 1052  * @param       none
// 1053  *
// 1054  * @return      none
// 1055  *=================================================================================================
// 1056  */

        RSEG BANKED_CODE:CODE:NOROOT(0)
// 1057 static void rxPostRxUpdates(void)
rxPostRxUpdates:
          CFI Block cfiBlock152 Using cfiCommon0
          CFI Function rxPostRxUpdates
        CODE
// 1058 {
        FUNCALL rxPostRxUpdates, macRxOffRequest
        LOCFRAME ISTACK, 2, STACK
        LOCFRAME PSTACK, 0, STACK
        LOCFRAME XSTACK, 0, STACK
        LOCFRAME IOVERLAY, 0, STATIC
        LOCFRAME DOVERLAY, 0, STATIC
        ARGFRAME ISTACK, 2, STACK
        ARGFRAME PSTACK, 0, STACK
        ARGFRAME XSTACK, 0, STACK
        ARGFRAME IOVERLAY, 0, STATIC
        ARGFRAME DOVERLAY, 0, STATIC
        FUNCALL rxPostRxUpdates, macRadioUpdateTxPower
        LOCFRAME ISTACK, 2, STACK
        LOCFRAME PSTACK, 0, STACK
        LOCFRAME XSTACK, 0, STACK
        LOCFRAME IOVERLAY, 0, STATIC
        LOCFRAME DOVERLAY, 0, STATIC
        ARGFRAME ISTACK, 2, STACK
        ARGFRAME PSTACK, 0, STACK
        ARGFRAME XSTACK, 0, STACK
        ARGFRAME IOVERLAY, 0, STATIC
        ARGFRAME DOVERLAY, 0, STATIC
        FUNCALL rxPostRxUpdates, macTxStartQueuedFrame
        LOCFRAME ISTACK, 2, STACK
        LOCFRAME PSTACK, 0, STACK
        LOCFRAME XSTACK, 0, STACK
        LOCFRAME IOVERLAY, 0, STATIC
        LOCFRAME DOVERLAY, 0, STATIC
        ARGFRAME ISTACK, 2, STACK
        ARGFRAME PSTACK, 0, STACK
        ARGFRAME XSTACK, 0, STACK
        ARGFRAME IOVERLAY, 0, STATIC
        ARGFRAME DOVERLAY, 0, STATIC
        PUSH    DPL
          CFI DPL0 Frame(CFA_SP, 4)
          CFI CFA_SP SP+-4
        PUSH    DPH
          CFI DPH0 Frame(CFA_SP, 5)
          CFI CFA_SP SP+-5
        ; Saved register size: 2
        ; Auto size: 0
// 1059   /* turn off receiver if permitted */
// 1060   macRxOffRequest();
        ; Setup parameters for call to function macRxOffRequest
        LCALL   ??macRxOffRequest?relay
// 1061 
// 1062   /* update the transmit power, update may have been blocked by transmit of outgoing ACK */
// 1063   macRadioUpdateTxPower();
        ; Setup parameters for call to function macRadioUpdateTxPower
        LCALL   ??macRadioUpdateTxPower?relay
// 1064 
// 1065   /* initiate and transmit that was queued during receive */
// 1066   macTxStartQueuedFrame();
        ; Setup parameters for call to function macTxStartQueuedFrame
        LCALL   ??macTxStartQueuedFrame?relay
// 1067 }
        LJMP    ??Subroutine24_0 & 0xFFFF
          CFI EndBlock cfiBlock152
// 1068 
// 1069 
// 1070 /*=================================================================================================
// 1071  * @fn          rxDiscardFrame
// 1072  *
// 1073  * @brief       Initializes for discarding a packet.  Must be called before ACK is strobed.
// 1074  *
// 1075  * @param       none
// 1076  *
// 1077  * @return      none
// 1078  *=================================================================================================
// 1079  */

        RSEG BANKED_CODE:CODE:NOROOT(0)
// 1080 static void rxDiscardFrame(void)
rxDiscardFrame:
          CFI Block cfiBlock153 Using cfiCommon0
          CFI Function rxDiscardFrame
        CODE
// 1081 {
        FUNCALL rxDiscardFrame, halAssertHandler
        LOCFRAME ISTACK, 2, STACK
        LOCFRAME PSTACK, 0, STACK
        LOCFRAME XSTACK, 0, STACK
        LOCFRAME IOVERLAY, 0, STATIC
        LOCFRAME DOVERLAY, 0, STATIC
        ARGFRAME ISTACK, 2, STACK
        ARGFRAME PSTACK, 0, STACK
        ARGFRAME XSTACK, 0, STACK
        ARGFRAME IOVERLAY, 0, STATIC
        ARGFRAME DOVERLAY, 0, STATIC
        FUNCALL rxDiscardFrame, rxDone
        LOCFRAME ISTACK, 2, STACK
        LOCFRAME PSTACK, 0, STACK
        LOCFRAME XSTACK, 0, STACK
        LOCFRAME IOVERLAY, 0, STATIC
        LOCFRAME DOVERLAY, 0, STATIC
        ARGFRAME ISTACK, 2, STACK
        ARGFRAME PSTACK, 0, STACK
        ARGFRAME XSTACK, 0, STACK
        ARGFRAME IOVERLAY, 0, STATIC
        ARGFRAME DOVERLAY, 0, STATIC
        PUSH    DPL
          CFI DPL0 Frame(CFA_SP, 4)
          CFI CFA_SP SP+-4
        PUSH    DPH
          CFI DPH0 Frame(CFA_SP, 5)
          CFI CFA_SP SP+-5
        ; Saved register size: 2
        ; Auto size: 0
// 1082   MAC_ASSERT(pFuncRxState == &rxStartIsr); /* illegal state for calling discard frame function */
        MOV     DPTR,#pFuncRxState
        MOVX    A,@DPTR
        XRL     A,#??rxStartIsr?relay & 0xff
        JNZ     ??rxDiscardFrame_0
        INC     DPTR
        MOVX    A,@DPTR
        XRL     A,#(??rxStartIsr?relay >> 8) & 0xff
??rxDiscardFrame_0:
        JZ      ??rxDiscardFrame_1
        ; Setup parameters for call to function halAssertHandler
        LCALL   ??halAssertHandler?relay
// 1083 
// 1084   if (rxUnreadLen == 0)
??rxDiscardFrame_1:
        MOV     DPTR,#rxUnreadLen
        MOVX    A,@DPTR
        JNZ     ??rxDiscardFrame_2
// 1085   {
// 1086     rxDone();
        ; Setup parameters for call to function rxDone
        LCALL   ??rxDone?relay
        SJMP    ??rxDiscardFrame_3
// 1087   }
// 1088   else
// 1089   {
// 1090     rxNextLen = MIN(rxUnreadLen, MAX_PAYLOAD_BYTES_READ_PER_INTERRUPT);
??rxDiscardFrame_2:
        CLR     C
        SUBB    A,#0x10
        JNC     ??rxDiscardFrame_4
        MOVX    A,@DPTR
        MOV     DPTR,#rxNextLen
        SJMP    ??rxDiscardFrame_5
??rxDiscardFrame_4:
        MOV     DPTR,#rxNextLen
        MOV     A,#0x10
??rxDiscardFrame_5:
        MOVX    @DPTR,A
// 1091     MAC_RADIO_SET_RX_THRESHOLD(rxNextLen);
        MOVX    A,@DPTR
        DEC     A
        MOV     DPTR,#0x6194
        MOVX    @DPTR,A
// 1092     pFuncRxState = &rxDiscardIsr;
        MOV     DPTR,#pFuncRxState
        MOV     A,#??rxDiscardIsr?relay & 0xff
        MOVX    @DPTR,A
        INC     DPTR
        MOV     A,#(??rxDiscardIsr?relay >> 8) & 0xff
        MOVX    @DPTR,A
// 1093   }
// 1094 }
??rxDiscardFrame_3:
        LJMP    ??Subroutine24_0 & 0xFFFF
          CFI EndBlock cfiBlock153
// 1095 
// 1096 
// 1097 /*=================================================================================================
// 1098  * @fn          rxDiscardIsr
// 1099  *
// 1100  * @brief       Receive ISR state for discarding a packet.
// 1101  *
// 1102  * @param       none
// 1103  *
// 1104  * @return      none
// 1105  *=================================================================================================
// 1106  */

        RSEG BANKED_CODE:CODE:NOROOT(0)
// 1107 static void rxDiscardIsr(void)
rxDiscardIsr:
          CFI Block cfiBlock154 Using cfiCommon0
          CFI Function rxDiscardIsr
        CODE
// 1108 {
        FUNCALL rxDiscardIsr, macMemReadRxFifo
        LOCFRAME ISTACK, 2, STACK
        LOCFRAME PSTACK, 0, STACK
        LOCFRAME XSTACK, 16, STACK
        LOCFRAME IOVERLAY, 0, STATIC
        LOCFRAME DOVERLAY, 0, STATIC
        ARGFRAME ISTACK, 2, STACK
        ARGFRAME PSTACK, 0, STACK
        ARGFRAME XSTACK, 16, STACK
        ARGFRAME IOVERLAY, 0, STATIC
        ARGFRAME DOVERLAY, 0, STATIC
        FUNCALL rxDiscardIsr, rxDone
        LOCFRAME ISTACK, 2, STACK
        LOCFRAME PSTACK, 0, STACK
        LOCFRAME XSTACK, 16, STACK
        LOCFRAME IOVERLAY, 0, STATIC
        LOCFRAME DOVERLAY, 0, STATIC
        ARGFRAME ISTACK, 2, STACK
        ARGFRAME PSTACK, 0, STACK
        ARGFRAME XSTACK, 16, STACK
        ARGFRAME IOVERLAY, 0, STATIC
        ARGFRAME DOVERLAY, 0, STATIC
        PUSH    DPL
          CFI DPL0 Frame(CFA_SP, 4)
          CFI CFA_SP SP+-4
        PUSH    DPH
          CFI DPH0 Frame(CFA_SP, 5)
          CFI CFA_SP SP+-5
        ; Saved register size: 2
        ; Auto size: 16
        MOV     A,#-0x10
        LCALL   ?ALLOC_XSTACK8
          CFI CFA_XSP16 add(XSP16, 16)
// 1109   uint8 buf[MAX_PAYLOAD_BYTES_READ_PER_INTERRUPT];
// 1110 
// 1111   MAC_RADIO_READ_RX_FIFO(buf, rxNextLen);
        ; Setup parameters for call to function macMemReadRxFifo
        LCALL   ?Subroutine10 & 0xFFFF
??CrossCallReturnLabel_16:
        LCALL   ??macMemReadRxFifo?relay
// 1112   rxUnreadLen -= rxNextLen;
        MOV     DPTR,#rxNextLen
        MOVX    A,@DPTR
        MOV     R0,A
        MOV     DPTR,#rxUnreadLen
        MOVX    A,@DPTR
        CLR     C
        SUBB    A,R0
        MOVX    @DPTR,A
// 1113 
// 1114   /* read out and discard bytes until all bytes of packet are disposed of */
// 1115   if (rxUnreadLen != 0)
        JZ      ??rxDiscardIsr_0
// 1116   {
// 1117     if (rxUnreadLen < MAX_PAYLOAD_BYTES_READ_PER_INTERRUPT)
        CLR     C
        SUBB    A,#0x10
        JNC     ??rxDiscardIsr_1
// 1118     {
// 1119       rxNextLen = rxUnreadLen;
        MOVX    A,@DPTR
        MOV     DPTR,#rxNextLen
        MOVX    @DPTR,A
// 1120       MAC_RADIO_SET_RX_THRESHOLD(rxNextLen);
        DEC     A
        MOV     DPTR,#0x6194
        MOVX    @DPTR,A
        SJMP    ??rxDiscardIsr_1
// 1121     }
// 1122   }
// 1123   else
// 1124   {
// 1125     /* reset threshold level, reset receive state, and complete receive logic */
// 1126     MAC_RADIO_SET_RX_THRESHOLD(RX_THRESHOLD_START_LEN);
??rxDiscardIsr_0:
        LCALL   ?Subroutine3 & 0xFFFF
// 1127     pFuncRxState = &rxStartIsr;
// 1128     rxDone();
??CrossCallReturnLabel_58:
        ; Setup parameters for call to function rxDone
        LCALL   ??rxDone?relay
// 1129   }
// 1130 }
??rxDiscardIsr_1:
        MOV     A,#0x10
        LCALL   ?DEALLOC_XSTACK8
          CFI CFA_XSP16 XSP16+0
        LJMP    ??Subroutine24_0 & 0xFFFF
          CFI EndBlock cfiBlock154

        RSEG BANKED_CODE:CODE:NOROOT(0)
?Subroutine10:
          CFI Block cfiCond155 Using cfiCommon0
          CFI Function rxAddrIsr
          CFI Conditional ??CrossCallReturnLabel_15
          CFI R6 load(1, XDATA, add(CFA_XSP16, literal(-9)))
          CFI VB load(1, XDATA, add(CFA_XSP16, literal(-8)))
          CFI V0 load(1, XDATA, add(CFA_XSP16, literal(-7)))
          CFI R7 load(1, XDATA, add(CFA_XSP16, literal(-6)))
          CFI ?RET_LOW load(1, XDATA, add(CFA_XSP16, literal(-5)))
          CFI ?RET_HIGH load(1, XDATA, add(CFA_XSP16, literal(-4)))
          CFI ?BRET_EXT load(1, XDATA, add(CFA_XSP16, literal(-3)))
          CFI DPL0 load(1, XDATA, add(CFA_XSP16, literal(-2)))
          CFI DPH0 load(1, XDATA, add(CFA_XSP16, literal(-1)))
          CFI CFA_SP SP+0
          CFI CFA_XSP16 add(XSP16, 29)
          CFI Block cfiCond156 Using cfiCommon0
          CFI (cfiCond156) Function rxDiscardIsr
          CFI (cfiCond156) Conditional ??CrossCallReturnLabel_16
          CFI (cfiCond156) DPL0 Frame(CFA_SP, 4)
          CFI (cfiCond156) DPH0 Frame(CFA_SP, 5)
          CFI (cfiCond156) CFA_SP SP+-5
          CFI (cfiCond156) CFA_XSP16 add(XSP16, 16)
          CFI Block cfiPicker157 Using cfiCommon1
          CFI (cfiPicker157) NoFunction
          CFI (cfiPicker157) Picker
        MOV     DPTR,#rxNextLen
        MOVX    A,@DPTR
        MOV     R1,A
        MOV     DPL,?XSP + 0
        MOV     DPH,?XSP + 1
        MOV     R2,DPL
        MOV     R3,DPH
        RET
          CFI EndBlock cfiCond155
          CFI EndBlock cfiCond156
          CFI EndBlock cfiPicker157
// 1131 
// 1132 
// 1133 /**************************************************************************************************
// 1134  * @fn          maxRxRifoOverflowIsr
// 1135  *
// 1136  * @brief       This interrupt service routine is called when RX FIFO overflow. Note that this
// 1137  *              exception does not retrieve the good frames that are trapped in the RX FIFO.
// 1138  *              It simply halts and cleanup the RX.
// 1139  *
// 1140  * @param       none
// 1141  *
// 1142  * @return      none
// 1143  **************************************************************************************************
// 1144  */

        RSEG BANKED_CODE:CODE:NOROOT(0)
// 1145 MAC_INTERNAL_API void macRxFifoOverflowIsr(void)
macRxFifoOverflowIsr:
          CFI Block cfiBlock158 Using cfiCommon0
          CFI Function macRxFifoOverflowIsr
        CODE
// 1146 {
        FUNCALL macRxFifoOverflowIsr, macRxHaltCleanup
        LOCFRAME ISTACK, 2, STACK
        LOCFRAME PSTACK, 0, STACK
        LOCFRAME XSTACK, 0, STACK
        LOCFRAME IOVERLAY, 0, STATIC
        LOCFRAME DOVERLAY, 0, STATIC
        ARGFRAME ISTACK, 2, STACK
        ARGFRAME PSTACK, 0, STACK
        ARGFRAME XSTACK, 0, STACK
        ARGFRAME IOVERLAY, 0, STATIC
        ARGFRAME DOVERLAY, 0, STATIC
        PUSH    DPL
          CFI DPL0 Frame(CFA_SP, 4)
          CFI CFA_SP SP+-4
        PUSH    DPH
          CFI DPH0 Frame(CFA_SP, 5)
          CFI CFA_SP SP+-5
        ; Saved register size: 2
        ; Auto size: 0
// 1147   rxFifoOverflowCount++; /* This flag is used for debug purpose only */
        MOV     DPTR,#rxFifoOverflowCount
        MOVX    A,@DPTR
        INC     A
        MOVX    @DPTR,A
// 1148   macRxHaltCleanup();
        ; Setup parameters for call to function macRxHaltCleanup
        LCALL   ??macRxHaltCleanup?relay
// 1149 }
        LJMP    ??Subroutine24_0 & 0xFFFF
          CFI EndBlock cfiBlock158
// 1150 
// 1151 
// 1152 /**************************************************************************************************
// 1153  * @fn          macRxPromiscuousMode
// 1154  *
// 1155  * @brief       Sets promiscuous mode - enabling or disabling it.
// 1156  *
// 1157  * @param       none
// 1158  *
// 1159  * @return      none
// 1160  **************************************************************************************************
// 1161  */

        RSEG BANKED_CODE:CODE:NOROOT(0)
// 1162 MAC_INTERNAL_API void macRxPromiscuousMode(uint8 mode)
macRxPromiscuousMode:
          CFI Block cfiBlock159 Using cfiCommon0
          CFI Function macRxPromiscuousMode
        CODE
// 1163 {
        FUNCALL macRxPromiscuousMode, halAssertHandler
        LOCFRAME ISTACK, 0, STACK
        LOCFRAME PSTACK, 0, STACK
        LOCFRAME XSTACK, 9, STACK
        LOCFRAME IOVERLAY, 0, STATIC
        LOCFRAME DOVERLAY, 0, STATIC
        ARGFRAME ISTACK, 0, STACK
        ARGFRAME PSTACK, 0, STACK
        ARGFRAME XSTACK, 9, STACK
        ARGFRAME IOVERLAY, 0, STATIC
        ARGFRAME DOVERLAY, 0, STATIC
        MOV     A,#-0x9
        LCALL   ?BANKED_ENTER_XDATA
          CFI DPH0 load(1, XDATA, add(CFA_XSP16, literal(-1)))
          CFI DPL0 load(1, XDATA, add(CFA_XSP16, literal(-2)))
          CFI ?BRET_EXT load(1, XDATA, add(CFA_XSP16, literal(-3)))
          CFI ?RET_HIGH load(1, XDATA, add(CFA_XSP16, literal(-4)))
          CFI ?RET_LOW load(1, XDATA, add(CFA_XSP16, literal(-5)))
          CFI R7 load(1, XDATA, add(CFA_XSP16, literal(-6)))
          CFI V0 load(1, XDATA, add(CFA_XSP16, literal(-7)))
          CFI VB load(1, XDATA, add(CFA_XSP16, literal(-8)))
          CFI R6 load(1, XDATA, add(CFA_XSP16, literal(-9)))
          CFI CFA_SP SP+0
          CFI CFA_XSP16 add(XSP16, 9)
        ; Saved register size: 9
        ; Auto size: 0
        MOV     A,R1
        MOV     R6,A
// 1164   rxPromiscuousMode = mode;
        MOV     DPTR,#rxPromiscuousMode
        MOVX    @DPTR,A
// 1165 
// 1166   if (rxPromiscuousMode == MAC_PROMISCUOUS_MODE_OFF)
        JNZ     ??macRxPromiscuousMode_0
// 1167   {
// 1168       MAC_RADIO_TURN_ON_RX_FRAME_FILTERING();
        MOV     DPTR,#0x6180
        MOVX    A,@DPTR
        SETB    0xE0 /* A   */.0
        SJMP    ??macRxPromiscuousMode_1
// 1169   }
// 1170   else
// 1171   {
// 1172     MAC_ASSERT((mode == MAC_PROMISCUOUS_MODE_WITH_BAD_CRC)   ||
// 1173                (mode == MAC_PROMISCUOUS_MODE_COMPLIANT));  /* invalid mode */
??macRxPromiscuousMode_0:
        MOV     A,#0x2
        XRL     A,R6
        JZ      ??macRxPromiscuousMode_2
        MOV     A,#0x1
        XRL     A,R6
        JZ      ??macRxPromiscuousMode_2
        ; Setup parameters for call to function halAssertHandler
        LCALL   ??halAssertHandler?relay
// 1174 
// 1175     MAC_RADIO_TURN_OFF_RX_FRAME_FILTERING();
??macRxPromiscuousMode_2:
        MOV     DPTR,#0x6180
        MOVX    A,@DPTR
        CLR     0xE0 /* A   */.0
??macRxPromiscuousMode_1:
        MOVX    @DPTR,A
// 1176   }
// 1177 }
        LJMP    ?Subroutine1 & 0xFFFF
          CFI EndBlock cfiBlock159

        RSEG BANK_RELAYS:CODE:REORDER:NOROOT(0)
??macRxInit?relay:
        CODE
        LCALL   ?BDISPATCH
        DATA24
        DC24    macRxInit

        RSEG BANK_RELAYS:CODE:REORDER:NOROOT(0)
??macRxRadioPowerUpInit?relay:
        CODE
        LCALL   ?BDISPATCH
        DATA24
        DC24    macRxRadioPowerUpInit

        RSEG BANK_RELAYS:CODE:REORDER:NOROOT(0)
??macRxTxReset?relay:
        CODE
        LCALL   ?BDISPATCH
        DATA24
        DC24    macRxTxReset

        RSEG BANK_RELAYS:CODE:REORDER:NOROOT(0)
??macRxHaltCleanup?relay:
        CODE
        LCALL   ?BDISPATCH
        DATA24
        DC24    macRxHaltCleanup

        RSEG BANK_RELAYS:CODE:REORDER:NOROOT(0)
??rxHaltCleanupFinalStep?relay:
        CODE
        LCALL   ?BDISPATCH
        DATA24
        DC24    rxHaltCleanupFinalStep

        RSEG BANK_RELAYS:CODE:REORDER:NOROOT(0)
??macRxThresholdIsr?relay:
        CODE
        LCALL   ?BDISPATCH
        DATA24
        DC24    macRxThresholdIsr

        RSEG BANK_RELAYS:CODE:REORDER:NOROOT(0)
??rxStartIsr?relay:
        CODE
        LCALL   ?BDISPATCH
        DATA24
        DC24    rxStartIsr

        RSEG BANK_RELAYS:CODE:REORDER:NOROOT(0)
??rxAddrIsr?relay:
        CODE
        LCALL   ?BDISPATCH
        DATA24
        DC24    rxAddrIsr

        RSEG BANK_RELAYS:CODE:REORDER:NOROOT(0)
??rxPrepPayload?relay:
        CODE
        LCALL   ?BDISPATCH
        DATA24
        DC24    rxPrepPayload

        RSEG BANK_RELAYS:CODE:REORDER:NOROOT(0)
??rxPayloadIsr?relay:
        CODE
        LCALL   ?BDISPATCH
        DATA24
        DC24    rxPayloadIsr

        RSEG BANK_RELAYS:CODE:REORDER:NOROOT(0)
??rxFcsIsr?relay:
        CODE
        LCALL   ?BDISPATCH
        DATA24
        DC24    rxFcsIsr

        RSEG BANK_RELAYS:CODE:REORDER:NOROOT(0)
??rxDone?relay:
        CODE
        LCALL   ?BDISPATCH
        DATA24
        DC24    rxDone

        RSEG BANK_RELAYS:CODE:REORDER:NOROOT(0)
??macRxAckTxDoneCallback?relay:
        CODE
        LCALL   ?BDISPATCH
        DATA24
        DC24    macRxAckTxDoneCallback

        RSEG BANK_RELAYS:CODE:REORDER:NOROOT(0)
??rxPostRxUpdates?relay:
        CODE
        LCALL   ?BDISPATCH
        DATA24
        DC24    rxPostRxUpdates

        RSEG BANK_RELAYS:CODE:REORDER:NOROOT(0)
??rxDiscardFrame?relay:
        CODE
        LCALL   ?BDISPATCH
        DATA24
        DC24    rxDiscardFrame

        RSEG BANK_RELAYS:CODE:REORDER:NOROOT(0)
??rxDiscardIsr?relay:
        CODE
        LCALL   ?BDISPATCH
        DATA24
        DC24    rxDiscardIsr

        RSEG BANK_RELAYS:CODE:REORDER:NOROOT(0)
??macRxFifoOverflowIsr?relay:
        CODE
        LCALL   ?BDISPATCH
        DATA24
        DC24    macRxFifoOverflowIsr

        RSEG BANK_RELAYS:CODE:REORDER:NOROOT(0)
??macRxPromiscuousMode?relay:
        CODE
        LCALL   ?BDISPATCH
        DATA24
        DC24    macRxPromiscuousMode

        END
// 1178 
// 1179 
// 1180 
// 1181 /**************************************************************************************************
// 1182  *                                  Compile Time Integrity Checks
// 1183  **************************************************************************************************
// 1184  */
// 1185 
// 1186 /* check for changes to the spec that would affect the source code */
// 1187 #if ((MAC_A_MAX_PHY_PACKET_SIZE   !=  0x7F )   ||  \ 
// 1188      (MAC_FCF_FIELD_LEN           !=  2    )   ||  \ 
// 1189      (MAC_FCF_FRAME_TYPE_POS      !=  0    )   ||  \ 
// 1190      (MAC_FCF_FRAME_PENDING_POS   !=  4    )   ||  \ 
// 1191      (MAC_FCF_ACK_REQUEST_POS     !=  5    )   ||  \ 
// 1192      (MAC_FCF_INTRA_PAN_POS       !=  6    )   ||  \ 
// 1193      (MAC_FCF_DST_ADDR_MODE_POS   !=  10   )   ||  \ 
// 1194      (MAC_FCF_FRAME_VERSION_POS   !=  12   )   ||  \ 
// 1195      (MAC_FCF_SRC_ADDR_MODE_POS   !=  14   ))
// 1196 #error "ERROR!  Change to the spec that requires modification of source code."
// 1197 #endif
// 1198 
// 1199 /* check for changes to the internal flags format */
// 1200 #if ((MAC_RX_FLAG_VERSION      !=  0x03)  ||  \ 
// 1201      (MAC_RX_FLAG_ACK_PENDING  !=  0x04)  ||  \ 
// 1202      (MAC_RX_FLAG_SECURITY     !=  0x08)  ||  \ 
// 1203      (MAC_RX_FLAG_PENDING      !=  0x10)  ||  \ 
// 1204      (MAC_RX_FLAG_ACK_REQUEST  !=  0x20)  ||  \ 
// 1205      (MAC_RX_FLAG_INTRA_PAN    !=  0x40))
// 1206 #error "ERROR!  Change to the internal RX flags format.  Requires modification of source code."
// 1207 #endif
// 1208 
// 1209 /* validate CRC OK bit optimization */
// 1210 #if (MAC_RX_FLAG_CRC_OK != PROPRIETARY_FCS_CRC_OK_BIT)
// 1211 #error "ERROR!  Optimization relies on these bits having the same position."
// 1212 #endif
// 1213 
// 1214 #if (MAC_RX_ACTIVE_NO_ACTIVITY != 0x00)
// 1215 #error "ERROR! Zero is reserved value of macRxActive. Allows boolean operations, e.g !macRxActive."
// 1216 #endif
// 1217 
// 1218 #if (MAC_PROMISCUOUS_MODE_OFF != 0x00)
// 1219 #error "ERROR! Zero is reserved value of rxPromiscuousMode. Allows boolean operations, e.g !rxPromiscuousMode."
// 1220 #endif
// 1221 
// 1222 
// 1223 /**************************************************************************************************
// 1224 */
// 
// 2 150 bytes in segment BANKED_CODE
//   108 bytes in segment BANK_RELAYS
//     4 bytes in segment CODE_C
//     5 bytes in segment SFR_AN
//    19 bytes in segment XDATA_Z
// 
// 2 262 bytes of CODE  memory
//     0 bytes of DATA  memory (+ 5 bytes shared)
//    19 bytes of XDATA memory
//
//Errors: none
//Warnings: none
