///////////////////////////////////////////////////////////////////////////////
//                                                                            /
// IAR C/C++ Compiler V8.20.2.41139 for 8051            05/Jan/2016  14:03:42 /
// Copyright 2004-2013 IAR Systems AB.                                        /
//                                                                            /
//    Core               =  plain                                             /
//    Code model         =  banked                                            /
//    Data model         =  large                                             /
//    Calling convention =  xdata reentrant                                   /
//    Constant location  =  data_rom                                          /
//    Dptr setup         =  1,16                                              /
//                                                                            /
//    Source file        =  C:\Users\ArnoldWorkStation\Desktop\ZigbeeTest\Com /
//                          ponents\mt\MT.c                                   /
//    Command line       =  -f C:\Users\ArnoldWorkStation\Desktop\ZigbeeTest\ /
//                          Projects\zstack\Samples\SampleApp\CC2530DB\..\..\ /
//                          ..\Tools\CC2530DB\f8wRouter.cfg (-DCPU32MHZ       /
//                          -DROOT=__near_func -DMAC_CFG_APP_PENDING_QUEUE=TR /
//                          UE -DRTR_NWK -DBLINK_LEDS) -f                     /
//                          C:\Users\ArnoldWorkStation\Desktop\ZigbeeTest\Pro /
//                          jects\zstack\Samples\SampleApp\CC2530DB\..\..\..\ /
//                          Tools\CC2530DB\f8wConfig.cfg (-DSECURE=0          /
//                          -DZG_SECURE_DYNAMIC=0 -DREFLECTOR                 /
//                          -DDEFAULT_CHANLIST=0x00000800                     /
//                          -DZDAPP_CONFIG_PAN_ID=0xFFF1                      /
//                          -DNWK_START_DELAY=100 -DEXTENDED_JOINING_RANDOM_M /
//                          ASK=0x007F -DBEACON_REQUEST_DELAY=100             /
//                          -DBEACON_REQ_DELAY_MASK=0x00FF                    /
//                          -DROUTE_EXPIRY_TIME=30 -DAPSC_ACK_WAIT_DURATION_P /
//                          OLLED=3000 -DNWK_INDIRECT_MSG_TIMEOUT=7           /
//                          -DMAX_RREQ_ENTRIES=8 -DAPSC_MAX_FRAME_RETRIES=3   /
//                          -DNWK_MAX_DATA_RETRIES=2                          /
//                          -DMAX_POLL_FAILURE_RETRIES=2 -DMAX_BCAST=9        /
//                          -DAPS_MAX_GROUPS=16 -DMAX_RTG_ENTRIES=40          /
//                          -DNWK_MAX_BINDING_ENTRIES=4                       /
//                          -DMAX_BINDING_CLUSTER_IDS=4                       /
//                          "-DDEFAULT_KEY={0x01, 0x03, 0x05, 0x07, 0x09,     /
//                          0x0B, 0x0D, 0x0F, 0x00, 0x02, 0x04, 0x06, 0x08,   /
//                          0x0A, 0x0C, 0x0D}" -DMAC_MAX_FRAME_SIZE=116       /
//                          "-DCONST=const __code" -DGENERIC=__generic        /
//                          -DRFD_RCVC_ALWAYS_ON=TRUE -DPOLL_RATE=1000        /
//                          -DQUEUED_POLL_RATE=100 -DRESPONSE_POLL_RATE=100)  /
//                          -DREJOIN_POLL_RATE=440 C:\Users\ArnoldWorkStation /
//                          \Desktop\ZigbeeTest\Components\mt\MT.c -D         /
//                          ZIGBEEPRO -D ZTOOL_P1 -D MT_TASK -D MT_SYS_FUNC   /
//                          -D MT_ZDO_FUNC -D LCD_SUPPORTED=DEBUG -lC         /
//                          C:\Users\ArnoldWorkStation\Desktop\ZigbeeTest\Pro /
//                          jects\zstack\Samples\SampleApp\CC2530DB\AnchorRou /
//                          terPro\List\ -lA C:\Users\ArnoldWorkStation\Deskt /
//                          op\ZigbeeTest\Projects\zstack\Samples\SampleApp\C /
//                          C2530DB\AnchorRouterPro\List\ --diag_suppress     /
//                          Pe001,Pa010 -o C:\Users\ArnoldWorkStation\Desktop /
//                          \ZigbeeTest\Projects\zstack\Samples\SampleApp\CC2 /
//                          530DB\AnchorRouterPro\Obj\ -e --debug             /
//                          --core=plain --dptr=16,1 --data_model=large       /
//                          --code_model=banked --calling_convention=xdata_re /
//                          entrant --place_constants=data_rom                /
//                          --nr_virtual_regs 16 -I                           /
//                          C:\Users\ArnoldWorkStation\Desktop\ZigbeeTest\Pro /
//                          jects\zstack\Samples\SampleApp\CC2530DB\ -I       /
//                          C:\Users\ArnoldWorkStation\Desktop\ZigbeeTest\Pro /
//                          jects\zstack\Samples\SampleApp\CC2530DB\..\SOURCE /
//                          \ -I C:\Users\ArnoldWorkStation\Desktop\ZigbeeTes /
//                          t\Projects\zstack\Samples\SampleApp\CC2530DB\..\. /
//                          .\..\ZMAIN\TI2530DB\ -I                           /
//                          C:\Users\ArnoldWorkStation\Desktop\ZigbeeTest\Pro /
//                          jects\zstack\Samples\SampleApp\CC2530DB\..\..\..\ /
//                          ..\..\COMPONENTS\MT\ -I                           /
//                          C:\Users\ArnoldWorkStation\Desktop\ZigbeeTest\Pro /
//                          jects\zstack\Samples\SampleApp\CC2530DB\..\..\..\ /
//                          ..\..\COMPONENTS\HAL\INCLUDE\ -I                  /
//                          C:\Users\ArnoldWorkStation\Desktop\ZigbeeTest\Pro /
//                          jects\zstack\Samples\SampleApp\CC2530DB\..\..\..\ /
//                          ..\..\COMPONENTS\HAL\TARGET\CC2530EB\ -I          /
//                          C:\Users\ArnoldWorkStation\Desktop\ZigbeeTest\Pro /
//                          jects\zstack\Samples\SampleApp\CC2530DB\..\..\..\ /
//                          ..\..\COMPONENTS\OSAL\MCU\CCSOC\ -I               /
//                          C:\Users\ArnoldWorkStation\Desktop\ZigbeeTest\Pro /
//                          jects\zstack\Samples\SampleApp\CC2530DB\..\..\..\ /
//                          ..\..\COMPONENTS\OSAL\INCLUDE\ -I                 /
//                          C:\Users\ArnoldWorkStation\Desktop\ZigbeeTest\Pro /
//                          jects\zstack\Samples\SampleApp\CC2530DB\..\..\..\ /
//                          ..\..\COMPONENTS\STACK\AF\ -I                     /
//                          C:\Users\ArnoldWorkStation\Desktop\ZigbeeTest\Pro /
//                          jects\zstack\Samples\SampleApp\CC2530DB\..\..\..\ /
//                          ..\..\COMPONENTS\STACK\NWK\ -I                    /
//                          C:\Users\ArnoldWorkStation\Desktop\ZigbeeTest\Pro /
//                          jects\zstack\Samples\SampleApp\CC2530DB\..\..\..\ /
//                          ..\..\COMPONENTS\STACK\SEC\ -I                    /
//                          C:\Users\ArnoldWorkStation\Desktop\ZigbeeTest\Pro /
//                          jects\zstack\Samples\SampleApp\CC2530DB\..\..\..\ /
//                          ..\..\COMPONENTS\STACK\SAPI\ -I                   /
//                          C:\Users\ArnoldWorkStation\Desktop\ZigbeeTest\Pro /
//                          jects\zstack\Samples\SampleApp\CC2530DB\..\..\..\ /
//                          ..\..\COMPONENTS\STACK\SYS\ -I                    /
//                          C:\Users\ArnoldWorkStation\Desktop\ZigbeeTest\Pro /
//                          jects\zstack\Samples\SampleApp\CC2530DB\..\..\..\ /
//                          ..\..\COMPONENTS\STACK\ZDO\ -I                    /
//                          C:\Users\ArnoldWorkStation\Desktop\ZigbeeTest\Pro /
//                          jects\zstack\Samples\SampleApp\CC2530DB\..\..\..\ /
//                          ..\..\COMPONENTS\ZMAC\F8W\ -I                     /
//                          C:\Users\ArnoldWorkStation\Desktop\ZigbeeTest\Pro /
//                          jects\zstack\Samples\SampleApp\CC2530DB\..\..\..\ /
//                          ..\..\COMPONENTS\ZMAC\ -I                         /
//                          C:\Users\ArnoldWorkStation\Desktop\ZigbeeTest\Pro /
//                          jects\zstack\Samples\SampleApp\CC2530DB\..\..\..\ /
//                          ..\..\COMPONENTS\SERVICES\SADDR\ -I               /
//                          C:\Users\ArnoldWorkStation\Desktop\ZigbeeTest\Pro /
//                          jects\zstack\Samples\SampleApp\CC2530DB\..\..\..\ /
//                          ..\..\COMPONENTS\SERVICES\SDATA\ -I               /
//                          C:\Users\ArnoldWorkStation\Desktop\ZigbeeTest\Pro /
//                          jects\zstack\Samples\SampleApp\CC2530DB\..\..\..\ /
//                          ..\..\COMPONENTS\MAC\INCLUDE\ -I                  /
//                          C:\Users\ArnoldWorkStation\Desktop\ZigbeeTest\Pro /
//                          jects\zstack\Samples\SampleApp\CC2530DB\..\..\..\ /
//                          ..\..\COMPONENTS\MAC\HIGH_LEVEL\ -I               /
//                          C:\Users\ArnoldWorkStation\Desktop\ZigbeeTest\Pro /
//                          jects\zstack\Samples\SampleApp\CC2530DB\..\..\..\ /
//                          ..\..\COMPONENTS\MAC\LOW_LEVEL\srf04\ -I          /
//                          C:\Users\ArnoldWorkStation\Desktop\ZigbeeTest\Pro /
//                          jects\zstack\Samples\SampleApp\CC2530DB\..\..\..\ /
//                          ..\..\COMPONENTS\MAC\LOW_LEVEL\srf04\SINGLE_CHIP\ /
//                           -Ohz --require_prototypes                        /
//    List file          =  C:\Users\ArnoldWorkStation\Desktop\ZigbeeTest\Pro /
//                          jects\zstack\Samples\SampleApp\CC2530DB\AnchorRou /
//                          terPro\List\MT.s51                                /
//                                                                            /
//                                                                            /
///////////////////////////////////////////////////////////////////////////////

        NAME MT

        RTMODEL "__SystemLibrary", "CLib"
        RTMODEL "__calling_convention", "xdata_reentrant"
        RTMODEL "__code_model", "banked"
        RTMODEL "__core", "plain"
        RTMODEL "__data_model", "large"
        RTMODEL "__dptr_size", "16"
        RTMODEL "__extended_stack", "disabled"
        RTMODEL "__location_for_constants", "data"
        RTMODEL "__number_of_dptrs", "1"
        RTMODEL "__rt_version", "1"

        RSEG DOVERLAY:DATA:NOROOT(0)
        RSEG IOVERLAY:IDATA:NOROOT(0)
        RSEG ISTACK:IDATA:NOROOT(0)
        RSEG PSTACK:XDATA:NOROOT(0)
        RSEG XSTACK:XDATA:NOROOT(0)

        EXTERN ?ALLOC_XSTACK8
        EXTERN ?BANKED_ENTER_XDATA
        EXTERN ?BANKED_LEAVE_XDATA
        EXTERN ?BDISPATCH
        EXTERN ?CALL_IND
        EXTERN ?DEALLOC_XSTACK8
        EXTERN ?PUSH_XSTACK_I_THREE
        EXTERN ?PUSH_XSTACK_I_TWO
        EXTERN ?V0
        EXTERN ?XSP
        EXTERN ?XSTACK_DISP0_8
        EXTERN __INIT_XDATA_I
        EXTERN __INIT_XDATA_Z

        PUBLIC ??MTProcessAppRspMsg?relay
        FUNCTION ??MTProcessAppRspMsg?relay,0203H
        PUBLIC ??MT_BuildAndSendZToolResponse?relay
        FUNCTION ??MT_BuildAndSendZToolResponse?relay,0203H
        PUBLIC ??MT_BuildEndpointDesc?relay
        FUNCTION ??MT_BuildEndpointDesc?relay,0203H
        PUBLIC ??MT_BuildSPIMsg?relay
        FUNCTION ??MT_BuildSPIMsg?relay,0203H
        PUBLIC ??MT_Init?relay
        FUNCTION ??MT_Init?relay,0203H
        PUBLIC ??MT_ProcessIncoming?relay
        FUNCTION ??MT_ProcessIncoming?relay,0203H
        PUBLIC ??MT_ReverseBytes?relay
        FUNCTION ??MT_ReverseBytes?relay,0203H
        PUBLIC ??MT_Word2Buf?relay
        FUNCTION ??MT_Word2Buf?relay,0203H
        PUBLIC MTProcessAppRspMsg
        FUNCTION MTProcessAppRspMsg,021203H
        ARGFRAME XSTACK, 0, STACK
        LOCFRAME XSTACK, 9, STACK
        PUBLIC MT_BuildAndSendZToolResponse
        FUNCTION MT_BuildAndSendZToolResponse,021203H
        ARGFRAME XSTACK, 13, STACK
        ARGFRAME IOVERLAY, 0, STATIC
        ARGFRAME DOVERLAY, 0, STATIC
        LOCFRAME XSTACK, 18, STACK
        PUBLIC MT_BuildEndpointDesc
        FUNCTION MT_BuildEndpointDesc,021203H
        ARGFRAME XSTACK, 0, STACK
        LOCFRAME ISTACK, 1, STACK
        LOCFRAME XSTACK, 14, STACK
        PUBLIC MT_BuildSPIMsg
        FUNCTION MT_BuildSPIMsg,021203H
        ARGFRAME XSTACK, 18, STACK
        ARGFRAME IOVERLAY, 0, STATIC
        ARGFRAME DOVERLAY, 0, STATIC
        LOCFRAME ISTACK, 1, STACK
        LOCFRAME XSTACK, 19, STACK
        PUBLIC MT_Init
        FUNCTION MT_Init,021203H
        ARGFRAME XSTACK, 0, STACK
        LOCFRAME XSTACK, 9, STACK
        PUBLIC MT_ProcessIncoming
        FUNCTION MT_ProcessIncoming,021203H
        ARGFRAME XSTACK, 0, STACK
        LOCFRAME ISTACK, 1, STACK
        LOCFRAME XSTACK, 13, STACK
        PUBLIC MT_ReverseBytes
        FUNCTION MT_ReverseBytes,0203H
        ARGFRAME XSTACK, 0, STACK
        LOCFRAME ISTACK, 1, STACK
        LOCFRAME XSTACK, 12, STACK
        PUBLIC MT_TaskID
        PUBLIC MT_Word2Buf
        FUNCTION MT_Word2Buf,0203H
        ARGFRAME XSTACK, 0, STACK
        LOCFRAME ISTACK, 1, STACK
        LOCFRAME XSTACK, 9, STACK
        PUBLIC debugCompId
        PUBLIC debugThreshold
        PUBLIC mtProcessIncoming
        PUBLIC save_cmd
        
          CFI Names cfiNames0
          CFI StackFrame CFA_SP SP IDATA
          CFI StackFrame CFA_PSP16 PSP16 XDATA
          CFI StackFrame CFA_XSP16 XSP16 XDATA
          CFI StaticOverlayFrame CFA_IOVERLAY IOVERLAY
          CFI StaticOverlayFrame CFA_DOVERLAY DOVERLAY
          CFI Resource `PSW.CY`:1, `B.BR0`:1, `B.BR1`:1, `B.BR2`:1, `B.BR3`:1
          CFI Resource `B.BR4`:1, `B.BR5`:1, `B.BR6`:1, `B.BR7`:1, `VB.BR8`:1
          CFI Resource `VB.BR9`:1, `VB.BR10`:1, `VB.BR11`:1, `VB.BR12`:1
          CFI Resource `VB.BR13`:1, `VB.BR14`:1, `VB.BR15`:1, VB:8, B:8, A:8
          CFI Resource PSW:8, DPL0:8, DPH0:8, R0:8, R1:8, R2:8, R3:8, R4:8, R5:8
          CFI Resource R6:8, R7:8, V0:8, V1:8, V2:8, V3:8, V4:8, V5:8, V6:8, V7:8
          CFI Resource V8:8, V9:8, V10:8, V11:8, V12:8, V13:8, V14:8, V15:8, SP:8
          CFI Resource PSPH:8, PSPL:8, PSP16:16, XSPH:8, XSPL:8, XSP16:16
          CFI VirtualResource ?RET:24
          CFI Resource ?BRET_EXT:8
          CFI VirtualResource ?RET_HIGH:8, ?RET_LOW:8
          CFI ResourceParts PSP16 PSPH, PSPL
          CFI ResourceParts XSP16 XSPH, XSPL
          CFI ResourceParts ?RET ?BRET_EXT, ?RET_HIGH, ?RET_LOW
          CFI EndNames cfiNames0
        
          CFI Common cfiCommon0 Using cfiNames0
          CFI CodeAlign 1
          CFI DataAlign -1
          CFI ReturnAddress ?RET CODE
          CFI CFA_DOVERLAY Used
          CFI CFA_IOVERLAY Used
          CFI CFA_SP SP+-3
          CFI CFA_PSP16 PSP16+0
          CFI CFA_XSP16 XSP16+0
          CFI `PSW.CY` SameValue
          CFI `B.BR0` SameValue
          CFI `B.BR1` SameValue
          CFI `B.BR2` SameValue
          CFI `B.BR3` SameValue
          CFI `B.BR4` SameValue
          CFI `B.BR5` SameValue
          CFI `B.BR6` SameValue
          CFI `B.BR7` SameValue
          CFI `VB.BR8` SameValue
          CFI `VB.BR9` SameValue
          CFI `VB.BR10` SameValue
          CFI `VB.BR11` SameValue
          CFI `VB.BR12` SameValue
          CFI `VB.BR13` SameValue
          CFI `VB.BR14` SameValue
          CFI `VB.BR15` SameValue
          CFI VB SameValue
          CFI B Undefined
          CFI A Undefined
          CFI PSW SameValue
          CFI DPL0 SameValue
          CFI DPH0 SameValue
          CFI R0 Undefined
          CFI R1 Undefined
          CFI R2 Undefined
          CFI R3 Undefined
          CFI R4 Undefined
          CFI R5 Undefined
          CFI R6 SameValue
          CFI R7 SameValue
          CFI V0 SameValue
          CFI V1 SameValue
          CFI V2 SameValue
          CFI V3 SameValue
          CFI V4 SameValue
          CFI V5 SameValue
          CFI V6 SameValue
          CFI V7 SameValue
          CFI V8 SameValue
          CFI V9 SameValue
          CFI V10 SameValue
          CFI V11 SameValue
          CFI V12 SameValue
          CFI V13 SameValue
          CFI V14 SameValue
          CFI V15 SameValue
          CFI PSPH Undefined
          CFI PSPL Undefined
          CFI XSPH Undefined
          CFI XSPL Undefined
          CFI ?RET Concat
          CFI ?BRET_EXT Frame(CFA_SP, 3)
          CFI ?RET_HIGH Frame(CFA_SP, 2)
          CFI ?RET_LOW Frame(CFA_SP, 1)
          CFI EndCommon cfiCommon0
        
        
          CFI Common cfiCommon1 Using cfiNames0
          CFI CodeAlign 1
          CFI DataAlign -1
          CFI ReturnAddress ?RET CODE
          CFI CFA_DOVERLAY Used
          CFI CFA_IOVERLAY Used
          CFI CFA_SP SP+-2
          CFI CFA_PSP16 PSP16+0
          CFI CFA_XSP16 XSP16+0
          CFI `PSW.CY` SameValue
          CFI `B.BR0` SameValue
          CFI `B.BR1` SameValue
          CFI `B.BR2` SameValue
          CFI `B.BR3` SameValue
          CFI `B.BR4` SameValue
          CFI `B.BR5` SameValue
          CFI `B.BR6` SameValue
          CFI `B.BR7` SameValue
          CFI `VB.BR8` SameValue
          CFI `VB.BR9` SameValue
          CFI `VB.BR10` SameValue
          CFI `VB.BR11` SameValue
          CFI `VB.BR12` SameValue
          CFI `VB.BR13` SameValue
          CFI `VB.BR14` SameValue
          CFI `VB.BR15` SameValue
          CFI VB SameValue
          CFI B SameValue
          CFI A SameValue
          CFI PSW SameValue
          CFI DPL0 SameValue
          CFI DPH0 SameValue
          CFI R0 SameValue
          CFI R1 SameValue
          CFI R2 SameValue
          CFI R3 SameValue
          CFI R4 SameValue
          CFI R5 SameValue
          CFI R6 SameValue
          CFI R7 SameValue
          CFI V0 SameValue
          CFI V1 SameValue
          CFI V2 SameValue
          CFI V3 SameValue
          CFI V4 SameValue
          CFI V5 SameValue
          CFI V6 SameValue
          CFI V7 SameValue
          CFI V8 SameValue
          CFI V9 SameValue
          CFI V10 SameValue
          CFI V11 SameValue
          CFI V12 SameValue
          CFI V13 SameValue
          CFI V14 SameValue
          CFI V15 SameValue
          CFI PSPH Undefined
          CFI PSPL Undefined
          CFI XSPH Undefined
          CFI XSPL Undefined
          CFI ?RET Concat
          CFI ?BRET_EXT SameValue
          CFI ?RET_HIGH Frame(CFA_SP, 2)
          CFI ?RET_LOW Frame(CFA_SP, 1)
          CFI EndCommon cfiCommon1
        
`?<Name MT_SysCommandProcess 0>` SYMBOL "MT_SysCommandProcessing"
??MT_SysCommandProcessing?relay SYMBOL "?relay", `?<Name MT_SysCommandProcess 0>`
MT_SysResetInd      SYMBOL "MT_SysResetInd"
??MT_SysResetInd?relay SYMBOL "?relay", MT_SysResetInd
MT_TransportAlloc   SYMBOL "MT_TransportAlloc"
??MT_TransportAlloc?relay SYMBOL "?relay", MT_TransportAlloc
MT_TransportSend    SYMBOL "MT_TransportSend"
??MT_TransportSend?relay SYMBOL "?relay", MT_TransportSend
`?<Name MT_ZdoCommandProcess 8>` SYMBOL "MT_ZdoCommandProcessing"
??MT_ZdoCommandProcessing?relay SYMBOL "?relay", `?<Name MT_ZdoCommandProcess 8>`
MT_ZdoInit          SYMBOL "MT_ZdoInit"
??MT_ZdoInit?relay  SYMBOL "?relay", MT_ZdoInit
afFindEndPointDesc  SYMBOL "afFindEndPointDesc"
??afFindEndPointDesc?relay SYMBOL "?relay", afFindEndPointDesc
osal_mem_alloc      SYMBOL "osal_mem_alloc"
??osal_mem_alloc?relay SYMBOL "?relay", osal_mem_alloc
osal_mem_free       SYMBOL "osal_mem_free"
??osal_mem_free?relay SYMBOL "?relay", osal_mem_free
osal_memcpy         SYMBOL "osal_memcpy"
??osal_memcpy?relay SYMBOL "?relay", osal_memcpy
MTProcessAppRspMsg  SYMBOL "MTProcessAppRspMsg"
??MTProcessAppRspMsg?relay SYMBOL "?relay", MTProcessAppRspMsg
MT_BuildAndSendZToolResponse SYMBOL "MT_BuildAndSendZToolResponse"
??MT_BuildAndSendZToolResponse?relay SYMBOL "?relay", MT_BuildAndSendZToolResponse
MT_BuildEndpointDesc SYMBOL "MT_BuildEndpointDesc"
??MT_BuildEndpointDesc?relay SYMBOL "?relay", MT_BuildEndpointDesc
MT_BuildSPIMsg      SYMBOL "MT_BuildSPIMsg"
??MT_BuildSPIMsg?relay SYMBOL "?relay", MT_BuildSPIMsg
MT_Init             SYMBOL "MT_Init"
??MT_Init?relay     SYMBOL "?relay", MT_Init
MT_ProcessIncoming  SYMBOL "MT_ProcessIncoming"
??MT_ProcessIncoming?relay SYMBOL "?relay", MT_ProcessIncoming
MT_ReverseBytes     SYMBOL "MT_ReverseBytes"
??MT_ReverseBytes?relay SYMBOL "?relay", MT_ReverseBytes
MT_Word2Buf         SYMBOL "MT_Word2Buf"
??MT_Word2Buf?relay SYMBOL "?relay", MT_Word2Buf

        EXTERN ??MT_SysCommandProcessing?relay
        FUNCTION ??MT_SysCommandProcessing?relay,00H
        EXTERN ??MT_SysResetInd?relay
        FUNCTION ??MT_SysResetInd?relay,00H
        EXTERN ??MT_TransportAlloc?relay
        FUNCTION ??MT_TransportAlloc?relay,00H
        EXTERN ??MT_TransportSend?relay
        FUNCTION ??MT_TransportSend?relay,00H
        EXTERN ??MT_ZdoCommandProcessing?relay
        FUNCTION ??MT_ZdoCommandProcessing?relay,00H
        EXTERN ??MT_ZdoInit?relay
        FUNCTION ??MT_ZdoInit?relay,00H
        EXTERN ??afFindEndPointDesc?relay
        FUNCTION ??afFindEndPointDesc?relay,00H
        EXTERN ??osal_mem_alloc?relay
        FUNCTION ??osal_mem_alloc?relay,00H
        EXTERN ??osal_mem_free?relay
        FUNCTION ??osal_mem_free?relay,00H
        EXTERN ??osal_memcpy?relay
        FUNCTION ??osal_memcpy?relay,00H
        EXTERN MT_SysResetInd
        FUNCTION MT_SysResetInd,0202H
        ARGFRAME ISTACK, 0, STACK
        ARGFRAME PSTACK, 0, STACK
        ARGFRAME XSTACK, 9, STACK
        ARGFRAME IOVERLAY, 0, STATIC
        ARGFRAME DOVERLAY, 0, STATIC
        EXTERN MT_TransportAlloc
        FUNCTION MT_TransportAlloc,0202H
        ARGFRAME ISTACK, 0, STACK
        ARGFRAME PSTACK, 0, STACK
        ARGFRAME XSTACK, 16, STACK
        ARGFRAME IOVERLAY, 0, STATIC
        ARGFRAME DOVERLAY, 0, STATIC
        EXTERN MT_TransportSend
        FUNCTION MT_TransportSend,0202H
        ARGFRAME ISTACK, 0, STACK
        ARGFRAME PSTACK, 0, STACK
        ARGFRAME XSTACK, 16, STACK
        ARGFRAME IOVERLAY, 0, STATIC
        ARGFRAME DOVERLAY, 0, STATIC
        EXTERN MT_ZdoInit
        FUNCTION MT_ZdoInit,0202H
        ARGFRAME ISTACK, 0, STACK
        ARGFRAME PSTACK, 0, STACK
        ARGFRAME XSTACK, 9, STACK
        ARGFRAME IOVERLAY, 0, STATIC
        ARGFRAME DOVERLAY, 0, STATIC
        EXTERN afFindEndPointDesc
        FUNCTION afFindEndPointDesc,0202H
        ARGFRAME ISTACK, 0, STACK
        ARGFRAME PSTACK, 0, STACK
        ARGFRAME XSTACK, 14, STACK
        ARGFRAME IOVERLAY, 0, STATIC
        ARGFRAME DOVERLAY, 0, STATIC
        EXTERN osal_mem_alloc
        FUNCTION osal_mem_alloc,0202H
        ARGFRAME ISTACK, 0, STACK
        ARGFRAME PSTACK, 0, STACK
        ARGFRAME XSTACK, 14, STACK
        ARGFRAME IOVERLAY, 0, STATIC
        ARGFRAME DOVERLAY, 0, STATIC
        EXTERN osal_mem_free
        FUNCTION osal_mem_free,0202H
        ARGFRAME ISTACK, 0, STACK
        ARGFRAME PSTACK, 0, STACK
        ARGFRAME XSTACK, 14, STACK
        ARGFRAME IOVERLAY, 0, STATIC
        ARGFRAME DOVERLAY, 0, STATIC
        EXTERN osal_memcpy
        FUNCTION osal_memcpy,0202H
        ARGFRAME ISTACK, 0, STACK
        ARGFRAME PSTACK, 0, STACK
        ARGFRAME XSTACK, 19, STACK
        ARGFRAME IOVERLAY, 0, STATIC
        ARGFRAME DOVERLAY, 0, STATIC

// C:\Users\ArnoldWorkStation\Desktop\ZigbeeTest\Components\mt\MT.c
//    1 /***************************************************************************************************
//    2   Filename:       MTEL.c
//    3   Revised:        $Date: 2009-10-28 00:05:19 -0700 (Wed, 28 Oct 2009) $
//    4   Revision:       $Revision: 20998 $
//    5 
//    6   Description:    MonitorTest Event Loop functions.  Everything in the
//    7                   MonitorTest Task (except the serial driver).
//    8 
//    9   Copyright 2007 Texas Instruments Incorporated. All rights reserved.
//   10 
//   11   IMPORTANT: Your use of this Software is limited to those specific rights
//   12   granted under the terms of a software license agreement between the user
//   13   who downloaded the software, his/her employer (which must be your employer)
//   14   and Texas Instruments Incorporated (the "License").  You may not use this
//   15   Software unless you agree to abide by the terms of the License. The License
//   16   limits your use, and you acknowledge, that the Software may not be modified,
//   17   copied or distributed unless embedded on a Texas Instruments microcontroller
//   18   or used solely and exclusively in conjunction with a Texas Instruments radio
//   19   frequency transceiver, which is integrated into your product.  Other than for
//   20   the foregoing purpose, you may not use, reproduce, copy, prepare derivative
//   21   works of, modify, distribute, perform, display or sell this Software and/or
//   22   its documentation for any purpose.
//   23 
//   24   YOU FURTHER ACKNOWLEDGE AND AGREE THAT THE SOFTWARE AND DOCUMENTATION ARE
//   25   PROVIDED “AS IS” WITHOUT WARRANTY OF ANY KIND, EITHER EXPRESS OR IMPLIED,
//   26   INCLUDING WITHOUT LIMITATION, ANY WARRANTY OF MERCHANTABILITY, TITLE,
//   27   NON-INFRINGEMENT AND FITNESS FOR A PARTICULAR PURPOSE. IN NO EVENT SHALL
//   28   TEXAS INSTRUMENTS OR ITS LICENSORS BE LIABLE OR OBLIGATED UNDER CONTRACT,
//   29   NEGLIGENCE, STRICT LIABILITY, CONTRIBUTION, BREACH OF WARRANTY, OR OTHER
//   30   LEGAL EQUITABLE THEORY ANY DIRECT OR INDIRECT DAMAGES OR EXPENSES
//   31   INCLUDING BUT NOT LIMITED TO ANY INCIDENTAL, SPECIAL, INDIRECT, PUNITIVE
//   32   OR CONSEQUENTIAL DAMAGES, LOST PROFITS OR LOST DATA, COST OF PROCUREMENT
//   33   OF SUBSTITUTE GOODS, TECHNOLOGY, SERVICES, OR ANY CLAIMS BY THIRD PARTIES
//   34   (INCLUDING BUT NOT LIMITED TO ANY DEFENSE THEREOF), OR OTHER SIMILAR COSTS.
//   35 
//   36   Should you have any questions regarding your right to use this Software,
//   37   contact Texas Instruments Incorporated at www.TI.com.
//   38 
//   39  ***************************************************************************************************/
//   40 
//   41 
//   42 /***************************************************************************************************
//   43  * INCLUDES
//   44  ***************************************************************************************************/
//   45 #include "ZComDef.h"
//   46 #include "MT.h"
//   47 #include "MT_APP.h"
//   48 #include "MT_DEBUG.h"
//   49 #include "MT_UTIL.h"
//   50 #include "MT_SYS.h"
//   51 #include "MT_SAPI.h"
//   52 #include "AF.h"
//   53 
//   54 #include "OnBoard.h"
//   55 #include "OSAL.h"
//   56 #include "OSAL_Memory.h"
//   57 #include "OSAL_Nv.h"
//   58 
//   59 #include "DebugTrace.h"
//   60 #include "ZMAC.h"
//   61 
//   62 #if !defined ( NONWK )
//   63   #include "NLMEDE.h"
//   64   #include "nwk_bufs.h"
//   65   #include "ZDObject.h"
//   66   #include "ssp.h"
//   67   #include "nwk_util.h"
//   68 #endif
//   69 
//   70 #if defined( MT_MAC_FUNC ) || defined( MT_MAC_CB_FUNC )
//   71   #include "MT_MAC.h"
//   72 #endif
//   73 #if defined( MT_NWK_FUNC ) || defined( MT_NWK_CB_FUNC )
//   74   #include "MT_NWK.h"
//   75   #include "nwk.h"
//   76   #include "nwk_bufs.h"
//   77 #endif
//   78 #if defined( MT_AF_FUNC ) || defined( MT_AF_CB_FUNC )
//   79   #include "MT_AF.h"
//   80 #endif
//   81 #if defined( MT_USER_TEST_FUNC )
//   82   #include "AF.h"
//   83 #endif
//   84 #if defined( MT_ZDO_FUNC )
//   85   #include "MT_ZDO.h"
//   86 #endif
//   87 #if defined (MT_SAPI_FUNC)
//   88 	#include "MT_SAPI.h"
//   89 #endif
//   90 #if defined( APP_TP )
//   91  #include "TestProfile.h"
//   92 #endif
//   93 #if defined( APP_TP2 )
//   94  #include "TestProfile2.h"
//   95 #endif
//   96 
//   97 #if defined(APP_TGEN)
//   98   #include "TrafficGenApp.h"
//   99 #endif
//  100 #if defined(APP_DEBUG)
//  101 	#include "DebugApp.h"
//  102 #endif
//  103 #if defined (NWK_TEST)
//  104 	#include "HWTTApp.h"
//  105 #endif
//  106 
//  107 /* HAL */
//  108 #include "hal_uart.h"
//  109 #include "hal_led.h"
//  110 #include "hal_key.h"
//  111 #include "MT_UART.h"
//  112 
//  113 /***************************************************************************************************
//  114  * MACROS
//  115  ***************************************************************************************************/
//  116 #define MTEL_DEBUG_INFO( nParams, p1, p2, p3 ) DEBUG_INFO( COMPID_MTEL, nParams, p1, p2, p3 )
//  117 
//  118 #define MT_ERROR_SRSP_LEN   3
//  119 
//  120 /***************************************************************************************************
//  121  * CONSTANTS
//  122  ***************************************************************************************************/

        RSEG XDATA_I:XDATA:NOROOT(0)
//  123 mtProcessMsg_t mtProcessIncoming[] =
mtProcessIncoming:
        DATA8
        DS 20
        REQUIRE `?<Initializer for mtProcessIncoming>`
        REQUIRE __INIT_XDATA_I
//  124 {
//  125   NULL,
//  126 
//  127 #if defined (MT_SYS_FUNC)
//  128   MT_SysCommandProcessing,
//  129 #else
//  130   NULL,
//  131 #endif
//  132 
//  133 #if defined (MT_MAC_FUNC)
//  134   MT_MacCommandProcessing,
//  135 #else
//  136   NULL,
//  137 #endif
//  138 
//  139 #if defined (MT_NWK_FUNC)
//  140   MT_NwkCommandProcessing,
//  141 #else
//  142   NULL,
//  143 #endif
//  144 
//  145 #if defined (MT_AF_FUNC)
//  146   MT_AfCommandProcessing,
//  147 #else
//  148   NULL,
//  149 #endif
//  150 
//  151 #if defined (MT_ZDO_FUNC)
//  152   MT_ZdoCommandProcessing,
//  153 #else
//  154   NULL,
//  155 #endif
//  156 
//  157 #if defined (MT_SAPI_FUNC)
//  158   MT_SapiCommandProcessing,
//  159 #else
//  160   NULL,
//  161 #endif
//  162 
//  163 #if defined (MT_UTIL_FUNC)
//  164   MT_UtilCommandProcessing,
//  165 #else
//  166   NULL,
//  167 #endif
//  168 
//  169 #if defined (MT_DEBUG_FUNC)
//  170   MT_DebugCommandProcessing,
//  171 #else
//  172   NULL,
//  173 #endif
//  174 
//  175 #if defined (MT_APP_FUNC)
//  176   MT_AppCommandProcessing,
//  177 #else
//  178   NULL,
//  179 #endif
//  180 
//  181 };
//  182 
//  183 /***************************************************************************************************
//  184  * TYPEDEFS
//  185  ***************************************************************************************************/
//  186 
//  187 /***************************************************************************************************
//  188  * GLOBAL VARIABLES
//  189  ***************************************************************************************************/

        RSEG XDATA_Z:XDATA:NOROOT(0)
        DATA16
//  190 UINT16 save_cmd;
save_cmd:
        DS 2
        REQUIRE __INIT_XDATA_Z
//  191 

        RSEG XDATA_Z:XDATA:NOROOT(0)
        DATA8
//  192 byte MT_TaskID;
MT_TaskID:
        DS 1
        REQUIRE __INIT_XDATA_Z

        RSEG XDATA_Z:XDATA:NOROOT(0)
        DATA8
//  193 byte debugThreshold;
debugThreshold:
        DS 1
        REQUIRE __INIT_XDATA_Z

        RSEG XDATA_Z:XDATA:NOROOT(0)
        DATA8
//  194 byte debugCompId;
debugCompId:
        DS 1
        REQUIRE __INIT_XDATA_Z
//  195 
//  196 /***************************************************************************************************
//  197  * EXTERNAL FUNCTIONS
//  198  ***************************************************************************************************/
//  199 extern unsigned int mac_sim_eventLoop( void );
//  200 
//  201 #ifdef MACSIM
//  202 extern void MACSIM_TranslateMsg( byte *buf, byte bLen );  /*  Used to pass Zignet message */
//  203 #endif
//  204 
//  205 
//  206 /***************************************************************************************************
//  207  * LOCAL VARIABLES
//  208  ***************************************************************************************************/
//  209 
//  210 /***************************************************************************************************
//  211  * LOCAL FUNCTIONS
//  212  ***************************************************************************************************/
//  213 void MT_MsgQueueInit( void );
//  214 void MT_ResetMsgQueue( void );
//  215 byte MT_QueueMsg( byte *msg , byte len );
//  216 void MT_ProcessQueue( void );
//  217 
//  218 #if defined ( MT_USER_TEST_FUNC )
//  219 void MT_ProcessAppUserCmd( byte *pData );
//  220 #endif
//  221 
//  222 /***************************************************************************************************
//  223  * @fn      MT_Init()
//  224  *
//  225  * @brief   Initialize MT.
//  226  *
//  227  * @param   uint8 taskId - taskId
//  228  *
//  229  * @return  void
//  230  ***************************************************************************************************/

        RSEG BANKED_CODE:CODE:NOROOT(0)
//  231 void MT_Init(uint8 taskID)
MT_Init:
          CFI Block cfiBlock0 Using cfiCommon0
          CFI Function MT_Init
        CODE
//  232 {
        FUNCALL MT_Init, MT_ZdoInit
        LOCFRAME ISTACK, 0, STACK
        LOCFRAME PSTACK, 0, STACK
        LOCFRAME XSTACK, 9, STACK
        LOCFRAME IOVERLAY, 0, STATIC
        LOCFRAME DOVERLAY, 0, STATIC
        ARGFRAME ISTACK, 0, STACK
        ARGFRAME PSTACK, 0, STACK
        ARGFRAME XSTACK, 9, STACK
        ARGFRAME IOVERLAY, 0, STATIC
        ARGFRAME DOVERLAY, 0, STATIC
        FUNCALL MT_Init, MT_SysResetInd
        LOCFRAME ISTACK, 0, STACK
        LOCFRAME PSTACK, 0, STACK
        LOCFRAME XSTACK, 9, STACK
        LOCFRAME IOVERLAY, 0, STATIC
        LOCFRAME DOVERLAY, 0, STATIC
        ARGFRAME ISTACK, 0, STACK
        ARGFRAME PSTACK, 0, STACK
        ARGFRAME XSTACK, 9, STACK
        ARGFRAME IOVERLAY, 0, STATIC
        ARGFRAME DOVERLAY, 0, STATIC
        MOV     A,#-0x9
        LCALL   ?BANKED_ENTER_XDATA
          CFI DPH0 load(1, XDATA, add(CFA_XSP16, literal(-1)))
          CFI DPL0 load(1, XDATA, add(CFA_XSP16, literal(-2)))
          CFI ?BRET_EXT load(1, XDATA, add(CFA_XSP16, literal(-3)))
          CFI ?RET_HIGH load(1, XDATA, add(CFA_XSP16, literal(-4)))
          CFI ?RET_LOW load(1, XDATA, add(CFA_XSP16, literal(-5)))
          CFI R7 load(1, XDATA, add(CFA_XSP16, literal(-6)))
          CFI V0 load(1, XDATA, add(CFA_XSP16, literal(-7)))
          CFI VB load(1, XDATA, add(CFA_XSP16, literal(-8)))
          CFI R6 load(1, XDATA, add(CFA_XSP16, literal(-9)))
          CFI CFA_SP SP+0
          CFI CFA_XSP16 add(XSP16, 9)
        ; Saved register size: 9
        ; Auto size: 0
        MOV     A,R1
//  233   MT_TaskID = taskID;
        MOV     DPTR,#MT_TaskID
        MOVX    @DPTR,A
//  234   debugThreshold = 0;
        MOV     DPTR,#debugThreshold
        CLR     A
        MOVX    @DPTR,A
//  235   debugCompId = 0;
        MOV     DPTR,#debugCompId
        MOVX    @DPTR,A
//  236   
//  237 #if defined (MT_ZDO_FUNC)
//  238   MT_ZdoInit();
        ; Setup parameters for call to function MT_ZdoInit
        LCALL   ??MT_ZdoInit?relay
//  239 #endif
//  240   MT_SysResetInd();
        ; Setup parameters for call to function MT_SysResetInd
        LCALL   ??MT_SysResetInd?relay
          CFI EndBlock cfiBlock0
//  241 }
        REQUIRE ?Subroutine0
        ; // Fall through to label ?Subroutine0

        RSEG BANKED_CODE:CODE:NOROOT(0)
?Subroutine0:
          CFI Block cfiBlock1 Using cfiCommon0
          CFI NoFunction
          CFI CFA_SP SP+0
          CFI CFA_XSP16 add(XSP16, 9)
          CFI VB load(1, XDATA, add(CFA_XSP16, literal(-8)))
          CFI DPL0 load(1, XDATA, add(CFA_XSP16, literal(-2)))
          CFI DPH0 load(1, XDATA, add(CFA_XSP16, literal(-1)))
          CFI R6 load(1, XDATA, add(CFA_XSP16, literal(-9)))
          CFI R7 load(1, XDATA, add(CFA_XSP16, literal(-6)))
          CFI V0 load(1, XDATA, add(CFA_XSP16, literal(-7)))
          CFI ?BRET_EXT load(1, XDATA, add(CFA_XSP16, literal(-3)))
          CFI ?RET_HIGH load(1, XDATA, add(CFA_XSP16, literal(-4)))
          CFI ?RET_LOW load(1, XDATA, add(CFA_XSP16, literal(-5)))
        MOV     R7,#0x1
        LJMP    ?BANKED_LEAVE_XDATA
          CFI EndBlock cfiBlock1
//  242 
//  243 /***************************************************************************************************
//  244  * @fn      MT_BuildSPIMsg
//  245  *
//  246  * @brief
//  247  *
//  248  *   Format an SPI message.
//  249  *
//  250  * @param   UINT16 cmd - command id
//  251  * @param   byte *msg - pointer to message buffer
//  252  * @param   byte dataLen - length of data field
//  253  * @param   byte *pData - pointer to data field
//  254  *
//  255  * @return  void
//  256  ***************************************************************************************************/

        RSEG BANKED_CODE:CODE:NOROOT(0)
//  257 void MT_BuildSPIMsg( uint8 cmdType, uint8 cmdId, byte *msg, byte dataLen, byte *pData )
MT_BuildSPIMsg:
          CFI Block cfiBlock2 Using cfiCommon0
          CFI Function MT_BuildSPIMsg
        CODE
//  258 {
        FUNCALL MT_BuildSPIMsg, osal_memcpy
        LOCFRAME ISTACK, 0, STACK
        LOCFRAME PSTACK, 0, STACK
        LOCFRAME XSTACK, 19, STACK
        LOCFRAME IOVERLAY, 0, STATIC
        LOCFRAME DOVERLAY, 0, STATIC
        ARGFRAME ISTACK, 0, STACK
        ARGFRAME PSTACK, 0, STACK
        ARGFRAME XSTACK, 19, STACK
        ARGFRAME IOVERLAY, 0, STATIC
        ARGFRAME DOVERLAY, 0, STATIC
        MOV     A,#-0x10
        LCALL   ?BANKED_ENTER_XDATA
          CFI DPH0 load(1, XDATA, add(CFA_XSP16, literal(-1)))
          CFI DPL0 load(1, XDATA, add(CFA_XSP16, literal(-2)))
          CFI ?BRET_EXT load(1, XDATA, add(CFA_XSP16, literal(-3)))
          CFI ?RET_HIGH load(1, XDATA, add(CFA_XSP16, literal(-4)))
          CFI ?RET_LOW load(1, XDATA, add(CFA_XSP16, literal(-5)))
          CFI R7 load(1, XDATA, add(CFA_XSP16, literal(-6)))
          CFI V7 load(1, XDATA, add(CFA_XSP16, literal(-7)))
          CFI V6 load(1, XDATA, add(CFA_XSP16, literal(-8)))
          CFI V5 load(1, XDATA, add(CFA_XSP16, literal(-9)))
          CFI V4 load(1, XDATA, add(CFA_XSP16, literal(-10)))
          CFI V3 load(1, XDATA, add(CFA_XSP16, literal(-11)))
          CFI V2 load(1, XDATA, add(CFA_XSP16, literal(-12)))
          CFI V1 load(1, XDATA, add(CFA_XSP16, literal(-13)))
          CFI V0 load(1, XDATA, add(CFA_XSP16, literal(-14)))
          CFI VB load(1, XDATA, add(CFA_XSP16, literal(-15)))
          CFI R6 load(1, XDATA, add(CFA_XSP16, literal(-16)))
          CFI CFA_SP SP+0
          CFI CFA_XSP16 add(XSP16, 16)
        ; Saved register size: 16
        ; Auto size: 0
        MOV     A,R4
        MOV     R6,A
        MOV     A,R5
        MOV     R7,A
//  259   /* Fill in the CMD and Data Length */
//  260   *msg++ = dataLen;
        MOV     DPL,R6
        MOV     DPH,R7
        MOV     A,R3
        MOVX    @DPTR,A
        INC     DPTR
//  261   *msg++ = cmdType;
        MOV     A,R1
        MOVX    @DPTR,A
        INC     DPTR
//  262   *msg++ = cmdId;
        MOV     A,R2
        MOVX    @DPTR,A
        INC     DPTR
        MOV     R6,DPL
        MOV     R7,DPH
        MOV     A,#0x10
        LCALL   ?XSTACK_DISP0_8
        MOVX    A,@DPTR
        MOV     ?V0 + 0,A
        INC     DPTR
        MOVX    A,@DPTR
        MOV     ?V0 + 1,A
//  263 
//  264   /* Fill in the data */
//  265   if ( pData )
        MOV     A,?V0 + 0
        ORL     A,?V0 + 1
        JZ      ??MT_BuildSPIMsg_0
//  266   {
//  267     osal_memcpy( msg, pData, dataLen );
        ; Setup parameters for call to function osal_memcpy
        MOV     ?V0 + 4,?V0 + 0
        MOV     ?V0 + 5,?V0 + 1
        MOV     ?V0 + 6,#0x0
        MOV     R0,#?V0 + 4
        LCALL   ?PUSH_XSTACK_I_THREE
          CFI CFA_XSP16 add(XSP16, 19)
        MOV     ?V0 + 0,R3
        MOV     R4,?V0 + 0
        MOV     R5,#0x0
        MOV     A,R6
        MOV     R2,A
        MOV     A,R7
        MOV     R3,A
        LCALL   ??osal_memcpy?relay
        MOV     A,#0x3
        LCALL   ?DEALLOC_XSTACK8
          CFI CFA_XSP16 add(XSP16, 16)
          CFI EndBlock cfiBlock2
//  268   }
//  269 }
??MT_BuildSPIMsg_0:
        REQUIRE ?Subroutine1
        ; // Fall through to label ?Subroutine1

        RSEG BANKED_CODE:CODE:NOROOT(0)
?Subroutine1:
          CFI Block cfiBlock3 Using cfiCommon0
          CFI NoFunction
          CFI CFA_SP SP+0
          CFI CFA_XSP16 add(XSP16, 16)
          CFI VB load(1, XDATA, add(CFA_XSP16, literal(-15)))
          CFI DPL0 load(1, XDATA, add(CFA_XSP16, literal(-2)))
          CFI DPH0 load(1, XDATA, add(CFA_XSP16, literal(-1)))
          CFI R6 load(1, XDATA, add(CFA_XSP16, literal(-16)))
          CFI R7 load(1, XDATA, add(CFA_XSP16, literal(-6)))
          CFI V0 load(1, XDATA, add(CFA_XSP16, literal(-14)))
          CFI V1 load(1, XDATA, add(CFA_XSP16, literal(-13)))
          CFI V2 load(1, XDATA, add(CFA_XSP16, literal(-12)))
          CFI V3 load(1, XDATA, add(CFA_XSP16, literal(-11)))
          CFI V4 load(1, XDATA, add(CFA_XSP16, literal(-10)))
          CFI V5 load(1, XDATA, add(CFA_XSP16, literal(-9)))
          CFI V6 load(1, XDATA, add(CFA_XSP16, literal(-8)))
          CFI V7 load(1, XDATA, add(CFA_XSP16, literal(-7)))
          CFI ?BRET_EXT load(1, XDATA, add(CFA_XSP16, literal(-3)))
          CFI ?RET_HIGH load(1, XDATA, add(CFA_XSP16, literal(-4)))
          CFI ?RET_LOW load(1, XDATA, add(CFA_XSP16, literal(-5)))
        MOV     R7,#0x8
        LJMP    ?BANKED_LEAVE_XDATA
          CFI EndBlock cfiBlock3
//  270 
//  271 /***************************************************************************************************
//  272  * @fn      MT_BuildAndSendZToolResponse
//  273  *
//  274  * @brief   Build and send a ZTOOL msg
//  275  * @param   uint8 cmdType - include type and subsystem
//  276  *          uint8 cmdId - command ID
//  277  *          byte dataLen
//  278  *          byte *pData
//  279  *
//  280  * @return  void
//  281  ***************************************************************************************************/

        RSEG BANKED_CODE:CODE:NOROOT(0)
//  282 void MT_BuildAndSendZToolResponse(uint8 cmdType, uint8 cmdId, uint8 dataLen, uint8 *pData)
MT_BuildAndSendZToolResponse:
          CFI Block cfiBlock4 Using cfiCommon0
          CFI Function MT_BuildAndSendZToolResponse
        CODE
//  283 {
        FUNCALL MT_BuildAndSendZToolResponse, MT_TransportAlloc
        LOCFRAME ISTACK, 0, STACK
        LOCFRAME PSTACK, 0, STACK
        LOCFRAME XSTACK, 16, STACK
        LOCFRAME IOVERLAY, 0, STATIC
        LOCFRAME DOVERLAY, 0, STATIC
        ARGFRAME ISTACK, 0, STACK
        ARGFRAME PSTACK, 0, STACK
        ARGFRAME XSTACK, 16, STACK
        ARGFRAME IOVERLAY, 0, STATIC
        ARGFRAME DOVERLAY, 0, STATIC
        FUNCALL MT_BuildAndSendZToolResponse, MT_BuildSPIMsg
        LOCFRAME ISTACK, 0, STACK
        LOCFRAME PSTACK, 0, STACK
        LOCFRAME XSTACK, 18, STACK
        LOCFRAME IOVERLAY, 0, STATIC
        LOCFRAME DOVERLAY, 0, STATIC
        ARGFRAME ISTACK, 0, STACK
        ARGFRAME PSTACK, 0, STACK
        ARGFRAME XSTACK, 18, STACK
        ARGFRAME IOVERLAY, 0, STATIC
        ARGFRAME DOVERLAY, 0, STATIC
        FUNCALL MT_BuildAndSendZToolResponse, MT_TransportSend
        LOCFRAME ISTACK, 0, STACK
        LOCFRAME PSTACK, 0, STACK
        LOCFRAME XSTACK, 16, STACK
        LOCFRAME IOVERLAY, 0, STATIC
        LOCFRAME DOVERLAY, 0, STATIC
        ARGFRAME ISTACK, 0, STACK
        ARGFRAME PSTACK, 0, STACK
        ARGFRAME XSTACK, 16, STACK
        ARGFRAME IOVERLAY, 0, STATIC
        ARGFRAME DOVERLAY, 0, STATIC
        MOV     A,#-0x10
        LCALL   ?BANKED_ENTER_XDATA
          CFI DPH0 load(1, XDATA, add(CFA_XSP16, literal(-1)))
          CFI DPL0 load(1, XDATA, add(CFA_XSP16, literal(-2)))
          CFI ?BRET_EXT load(1, XDATA, add(CFA_XSP16, literal(-3)))
          CFI ?RET_HIGH load(1, XDATA, add(CFA_XSP16, literal(-4)))
          CFI ?RET_LOW load(1, XDATA, add(CFA_XSP16, literal(-5)))
          CFI R7 load(1, XDATA, add(CFA_XSP16, literal(-6)))
          CFI V7 load(1, XDATA, add(CFA_XSP16, literal(-7)))
          CFI V6 load(1, XDATA, add(CFA_XSP16, literal(-8)))
          CFI V5 load(1, XDATA, add(CFA_XSP16, literal(-9)))
          CFI V4 load(1, XDATA, add(CFA_XSP16, literal(-10)))
          CFI V3 load(1, XDATA, add(CFA_XSP16, literal(-11)))
          CFI V2 load(1, XDATA, add(CFA_XSP16, literal(-12)))
          CFI V1 load(1, XDATA, add(CFA_XSP16, literal(-13)))
          CFI V0 load(1, XDATA, add(CFA_XSP16, literal(-14)))
          CFI VB load(1, XDATA, add(CFA_XSP16, literal(-15)))
          CFI R6 load(1, XDATA, add(CFA_XSP16, literal(-16)))
          CFI CFA_SP SP+0
          CFI CFA_XSP16 add(XSP16, 16)
        ; Saved register size: 16
        ; Auto size: 0
        MOV     ?V0 + 1,R1
        MOV     ?V0 + 4,R2
        MOV     ?V0 + 0,R3
        MOV     ?V0 + 2,R4
        MOV     ?V0 + 3,R5
//  284   uint8 *msg_ptr;
//  285 
//  286   /* Allocate memory including SOP and FCS */
//  287   msg_ptr = MT_TransportAlloc((mtRpcCmdType_t)(cmdType & 0xE0), dataLen);
        ; Setup parameters for call to function MT_TransportAlloc
        MOV     R2,?V0 + 0
        MOV     A,#-0x20
        ANL     A,?V0 + 1
        MOV     R1,A
        LCALL   ??MT_TransportAlloc?relay
        MOV     ?V0 + 6,R2
        MOV     ?V0 + 7,R3
        MOV     R6,?V0 + 6
        MOV     R7,?V0 + 7
//  288 
//  289   if (msg_ptr)
        MOV     A,R6
        ORL     A,R7
        JZ      ??MT_BuildAndSendZToolResponse_0
//  290   {
//  291     /* Build the message */
//  292     MT_BuildSPIMsg(cmdType, cmdId, msg_ptr, dataLen, pData);
        ; Setup parameters for call to function MT_BuildSPIMsg
        MOV     R0,#?V0 + 2
        LCALL   ?PUSH_XSTACK_I_TWO
          CFI CFA_XSP16 add(XSP16, 18)
        MOV     R3,?V0 + 0
        MOV     A,R6
        MOV     R4,A
        MOV     A,R7
        MOV     R5,A
        MOV     R2,?V0 + 4
        MOV     R1,?V0 + 1
        LCALL   ??MT_BuildSPIMsg?relay
        MOV     A,#0x2
        LCALL   ?DEALLOC_XSTACK8
          CFI CFA_XSP16 add(XSP16, 16)
//  293     /* Send out the msg */
//  294     MT_TransportSend(msg_ptr);
        ; Setup parameters for call to function MT_TransportSend
        MOV     A,R6
        MOV     R2,A
        MOV     A,R7
        MOV     R3,A
        LCALL   ??MT_TransportSend?relay
//  295   }
//  296 }
??MT_BuildAndSendZToolResponse_0:
        SJMP    ?Subroutine1
          CFI EndBlock cfiBlock4
//  297 
//  298 /***************************************************************************************************
//  299  * @fn      MT_ProcessIncoming
//  300  *
//  301  * @brief  Process Incoming Message.
//  302  *
//  303  * @param   byte *pBuf - pointer to event message
//  304  *
//  305  * @return  void
//  306  ***************************************************************************************************/

        RSEG BANKED_CODE:CODE:NOROOT(0)
//  307 void MT_ProcessIncoming(uint8 *pBuf)
MT_ProcessIncoming:
          CFI Block cfiBlock5 Using cfiCommon0
          CFI Function MT_ProcessIncoming
        CODE
//  308 {
        FUNCALL MT_ProcessIncoming, MT_BuildAndSendZToolResponse
        LOCFRAME ISTACK, 0, STACK
        LOCFRAME PSTACK, 0, STACK
        LOCFRAME XSTACK, 13, STACK
        LOCFRAME IOVERLAY, 0, STATIC
        LOCFRAME DOVERLAY, 0, STATIC
        ARGFRAME ISTACK, 0, STACK
        ARGFRAME PSTACK, 0, STACK
        ARGFRAME XSTACK, 13, STACK
        ARGFRAME IOVERLAY, 0, STATIC
        ARGFRAME DOVERLAY, 0, STATIC
        MOV     A,#-0xa
        LCALL   ?BANKED_ENTER_XDATA
          CFI DPH0 load(1, XDATA, add(CFA_XSP16, literal(-1)))
          CFI DPL0 load(1, XDATA, add(CFA_XSP16, literal(-2)))
          CFI ?BRET_EXT load(1, XDATA, add(CFA_XSP16, literal(-3)))
          CFI ?RET_HIGH load(1, XDATA, add(CFA_XSP16, literal(-4)))
          CFI ?RET_LOW load(1, XDATA, add(CFA_XSP16, literal(-5)))
          CFI R7 load(1, XDATA, add(CFA_XSP16, literal(-6)))
          CFI V1 load(1, XDATA, add(CFA_XSP16, literal(-7)))
          CFI V0 load(1, XDATA, add(CFA_XSP16, literal(-8)))
          CFI VB load(1, XDATA, add(CFA_XSP16, literal(-9)))
          CFI R6 load(1, XDATA, add(CFA_XSP16, literal(-10)))
          CFI CFA_SP SP+0
          CFI CFA_XSP16 add(XSP16, 10)
        ; Saved register size: 10
        ; Auto size: 3
        MOV     A,#-0x3
        LCALL   ?ALLOC_XSTACK8
          CFI CFA_XSP16 add(XSP16, 13)
//  309   mtProcessMsg_t  func;
//  310   uint8           rsp[MT_ERROR_SRSP_LEN];
//  311 
//  312   /* pre-build response message:  | status | cmd0 | cmd1 | */
//  313   rsp[1] = pBuf[MT_RPC_POS_CMD0];
        MOV     DPL,R2
        MOV     DPH,R3
        INC     DPTR
        MOVX    A,@DPTR
        MOV     ?V0 + 0,A
        MOV     A,#0x1
        LCALL   ?XSTACK_DISP0_8
        MOV     A,?V0 + 0
        MOVX    @DPTR,A
//  314   rsp[2] = pBuf[MT_RPC_POS_CMD1];
        MOV     DPL,R2
        MOV     DPH,R3
        INC     DPTR
        INC     DPTR
        MOVX    A,@DPTR
        PUSH    A
          CFI CFA_SP SP+-1
        MOV     A,#0x2
        LCALL   ?XSTACK_DISP0_8
        POP     A
          CFI CFA_SP SP+0
        MOVX    @DPTR,A
//  315 
//  316   /* check length */
//  317   if (pBuf[MT_RPC_POS_LEN] > MT_RPC_DATA_MAX)
        MOV     DPL,R2
        MOV     DPH,R3
        MOVX    A,@DPTR
        CLR     C
        SUBB    A,#-0x2
        JC      ??MT_ProcessIncoming_0
//  318   {
//  319     rsp[0] = MT_RPC_ERR_LENGTH;
        MOV     DPL,?XSP + 0
        MOV     DPH,?XSP + 1
        MOV     A,#0x4
        SJMP    ??MT_ProcessIncoming_1
//  320   }
//  321   /* check subsystem range */
//  322   else if ((rsp[1] & MT_RPC_SUBSYSTEM_MASK) < MT_RPC_SYS_MAX)
??MT_ProcessIncoming_0:
        MOV     A,#0x1f
        ANL     A,?V0 + 0
        CLR     C
        SUBB    A,#0xa
        JNC     ??MT_ProcessIncoming_2
//  323   {
//  324     /* look up processing function */
//  325     func = mtProcessIncoming[rsp[1] & MT_RPC_SUBSYSTEM_MASK];
        MOV     A,?V0 + 0
        ANL     A,#0x1f
        CLR     C
        RLC     A
        MOV     R0,A
        MOV     A,#mtProcessIncoming & 0xff
        ADD     A,R0
        MOV     DPL,A
        MOV     A,#(mtProcessIncoming >> 8) & 0xff
        LCALL   ??Subroutine20_0 & 0xFFFF
??CrossCallReturnLabel_37:
        LCALL   ?Subroutine13 & 0xFFFF
//  326     if (func)
??CrossCallReturnLabel_20:
        MOV     A,DPL
        ORL     A,DPH
        JZ      ??MT_ProcessIncoming_2
//  327     {
//  328       /* execute processing function */
//  329       rsp[0] = (*func)(pBuf);
        ; Setup parameters for indirect call
        LCALL   ?CALL_IND
        MOV     A,R1
        MOV     DPL,?XSP + 0
        MOV     DPH,?XSP + 1
        MOVX    @DPTR,A
//  330     }
//  331     else
//  332     {
//  333       rsp[0] = MT_RPC_ERR_SUBSYSTEM;
//  334     }
//  335   }
//  336   else
//  337   {
//  338     rsp[0] = MT_RPC_ERR_SUBSYSTEM;
//  339   }
//  340 
//  341   /* if error and this was an SREQ, send error message */
//  342   if ((rsp[0] != MT_RPC_SUCCESS) && ((rsp[1] & MT_RPC_CMD_TYPE_MASK) == MT_RPC_CMD_SREQ))
        JNZ     ??MT_ProcessIncoming_3
        SJMP    ??MT_ProcessIncoming_4
??MT_ProcessIncoming_2:
        MOV     DPL,?XSP + 0
        MOV     DPH,?XSP + 1
        MOV     A,#0x1
??MT_ProcessIncoming_1:
        MOVX    @DPTR,A
??MT_ProcessIncoming_3:
        MOV     A,#0x1
        LCALL   ?XSTACK_DISP0_8
        MOVX    A,@DPTR
        ANL     A,#0xe0
        XRL     A,#0x20
        JNZ     ??MT_ProcessIncoming_4
//  343   {
//  344     MT_BuildAndSendZToolResponse(((uint8)MT_RPC_CMD_SRSP | (uint8)MT_RPC_SYS_RES0), 0, MT_ERROR_SRSP_LEN, rsp);
        ; Setup parameters for call to function MT_BuildAndSendZToolResponse
        MOV     DPL,?XSP + 0
        MOV     DPH,?XSP + 1
        MOV     R4,DPL
        MOV     R5,DPH
        MOV     R3,#0x3
        MOV     R2,#0x0
        MOV     R1,#0x60
        LCALL   ??MT_BuildAndSendZToolResponse?relay
//  345   }
//  346 }
??MT_ProcessIncoming_4:
        MOV     A,#0x3
        LCALL   ?DEALLOC_XSTACK8
          CFI CFA_XSP16 add(XSP16, 10)
        MOV     R7,#0x2
        LJMP    ?BANKED_LEAVE_XDATA
          CFI EndBlock cfiBlock5
//  347 
//  348 
//  349 /***************************************************************************************************
//  350  * @fn      MTProcessAppRspMsg
//  351  *
//  352  * @brief   Process the User App Response Message
//  353  *
//  354  * @param   data - output serial buffer.  The first byte must be the
//  355  *          endpoint that send this message.
//  356  * @param   len - data length
//  357  *
//  358  * @return  none
//  359  ***************************************************************************************************/

        RSEG BANKED_CODE:CODE:NOROOT(0)
//  360 void MTProcessAppRspMsg( byte *pData, byte len )
MTProcessAppRspMsg:
          CFI Block cfiBlock6 Using cfiCommon0
          CFI Function MTProcessAppRspMsg
        CODE
//  361 {
        FUNCALL MTProcessAppRspMsg, MT_BuildAndSendZToolResponse
        LOCFRAME ISTACK, 0, STACK
        LOCFRAME PSTACK, 0, STACK
        LOCFRAME XSTACK, 9, STACK
        LOCFRAME IOVERLAY, 0, STATIC
        LOCFRAME DOVERLAY, 0, STATIC
        ARGFRAME ISTACK, 0, STACK
        ARGFRAME PSTACK, 0, STACK
        ARGFRAME XSTACK, 9, STACK
        ARGFRAME IOVERLAY, 0, STATIC
        ARGFRAME DOVERLAY, 0, STATIC
        MOV     A,#-0x9
        LCALL   ?BANKED_ENTER_XDATA
          CFI DPH0 load(1, XDATA, add(CFA_XSP16, literal(-1)))
          CFI DPL0 load(1, XDATA, add(CFA_XSP16, literal(-2)))
          CFI ?BRET_EXT load(1, XDATA, add(CFA_XSP16, literal(-3)))
          CFI ?RET_HIGH load(1, XDATA, add(CFA_XSP16, literal(-4)))
          CFI ?RET_LOW load(1, XDATA, add(CFA_XSP16, literal(-5)))
          CFI R7 load(1, XDATA, add(CFA_XSP16, literal(-6)))
          CFI V0 load(1, XDATA, add(CFA_XSP16, literal(-7)))
          CFI VB load(1, XDATA, add(CFA_XSP16, literal(-8)))
          CFI R6 load(1, XDATA, add(CFA_XSP16, literal(-9)))
          CFI CFA_SP SP+0
          CFI CFA_XSP16 add(XSP16, 9)
        ; Saved register size: 9
        ; Auto size: 0
        MOV     A,R2
        MOV     R4,A
        MOV     A,R3
        MOV     R5,A
        MOV     A,R1
//  362   /* Send out Reset Response message */
//  363   MT_BuildAndSendZToolResponse( ((uint8)MT_RPC_CMD_SRSP | (uint8)MT_RPC_SYS_APP), MT_APP_RSP, len, pData );
        ; Setup parameters for call to function MT_BuildAndSendZToolResponse
        MOV     R3,A
        MOV     R2,#-0x80
        MOV     R1,#0x69
        LCALL   ??MT_BuildAndSendZToolResponse?relay
//  364 }
        LJMP    ?Subroutine0 & 0xFFFF
          CFI EndBlock cfiBlock6
//  365 
//  366 
//  367 /***************************************************************************************************
//  368  * @fn      MT_ReverseBytes
//  369  *
//  370  * @brief
//  371  *
//  372  *   Reverses bytes within an array
//  373  *
//  374  * @param   data - ptr to data buffer to reverse
//  375  * @param    len - number of bytes in buffer
//  376  *
//  377  * @return  void
//  378  ***************************************************************************************************/

        RSEG BANKED_CODE:CODE:NOROOT(0)
//  379 void MT_ReverseBytes( byte *pData, byte len )
MT_ReverseBytes:
          CFI Block cfiBlock7 Using cfiCommon0
          CFI Function MT_ReverseBytes
        CODE
//  380 {
        MOV     A,#-0xc
        LCALL   ?BANKED_ENTER_XDATA
          CFI DPH0 load(1, XDATA, add(CFA_XSP16, literal(-1)))
          CFI DPL0 load(1, XDATA, add(CFA_XSP16, literal(-2)))
          CFI ?BRET_EXT load(1, XDATA, add(CFA_XSP16, literal(-3)))
          CFI ?RET_HIGH load(1, XDATA, add(CFA_XSP16, literal(-4)))
          CFI ?RET_LOW load(1, XDATA, add(CFA_XSP16, literal(-5)))
          CFI R7 load(1, XDATA, add(CFA_XSP16, literal(-6)))
          CFI V3 load(1, XDATA, add(CFA_XSP16, literal(-7)))
          CFI V2 load(1, XDATA, add(CFA_XSP16, literal(-8)))
          CFI V1 load(1, XDATA, add(CFA_XSP16, literal(-9)))
          CFI V0 load(1, XDATA, add(CFA_XSP16, literal(-10)))
          CFI VB load(1, XDATA, add(CFA_XSP16, literal(-11)))
          CFI R6 load(1, XDATA, add(CFA_XSP16, literal(-12)))
          CFI CFA_SP SP+0
          CFI CFA_XSP16 add(XSP16, 12)
        ; Saved register size: 12
        ; Auto size: 0
        MOV     A,R1
        MOV     R6,A
//  381   byte i,j;
//  382   byte temp;
//  383 
//  384   for ( i = 0, j = len-1; len > 1; len-=2 )
        MOV     ?V0 + 2,#0x0
        MOV     A,#-0x1
        ADD     A,R6
        MOV     R7,A
        SJMP    ??MT_ReverseBytes_0
//  385   {
//  386     temp = pData[i];
??MT_ReverseBytes_1:
        MOV     ?V0 + 0,?V0 + 2
        MOV     A,R2
        ADD     A,?V0 + 0
        MOV     R0,A
        MOV     A,R3
        LCALL   ?Subroutine14 & 0xFFFF
??CrossCallReturnLabel_22:
        MOV     ?V0 + 3,A
//  387     pData[i++] = pData[j];
        MOV     ?V0 + 0,R7
        MOV     A,R2
        ADD     A,?V0 + 0
        MOV     R4,A
        MOV     A,R3
        ADDC    A,#0x0
        MOV     R5,A
        MOV     DPL,R4
        MOV     DPH,R5
        MOVX    A,@DPTR
        MOV     DPL,R0
        MOV     DPH,R1
        MOVX    @DPTR,A
        INC     ?V0 + 2
//  388     pData[j--] = temp;
        MOV     DPL,R4
        MOV     DPH,R5
        MOV     A,?V0 + 3
        MOVX    @DPTR,A
        DEC     R7
//  389   }
        DEC     R6
        DEC     R6
??MT_ReverseBytes_0:
        MOV     A,R6
        CLR     C
        SUBB    A,#0x2
        JNC     ??MT_ReverseBytes_1
//  390 }
        MOV     R7,#0x4
        LJMP    ?BANKED_LEAVE_XDATA
          CFI EndBlock cfiBlock7
//  391 
//  392 
//  393 /***************************************************************************************************
//  394  * @fn      MT_Word2Buf
//  395  *
//  396  * @brief   Copy a uint16 array to a byte array, little endian.
//  397  *
//  398  * @param   pBuf - byte array
//  399  * @param   pWord - uint16 array
//  400  * @param   len - length of uint16 array
//  401  *
//  402  * @return  pointer to end of byte array
//  403  ***************************************************************************************************/

        RSEG BANKED_CODE:CODE:NOROOT(0)
//  404 uint8 *MT_Word2Buf( uint8 *pBuf, uint16 *pWord, uint8 len )
MT_Word2Buf:
          CFI Block cfiBlock8 Using cfiCommon0
          CFI Function MT_Word2Buf
        CODE
//  405 {
        MOV     A,#-0x9
        LCALL   ?BANKED_ENTER_XDATA
          CFI DPH0 load(1, XDATA, add(CFA_XSP16, literal(-1)))
          CFI DPL0 load(1, XDATA, add(CFA_XSP16, literal(-2)))
          CFI ?BRET_EXT load(1, XDATA, add(CFA_XSP16, literal(-3)))
          CFI ?RET_HIGH load(1, XDATA, add(CFA_XSP16, literal(-4)))
          CFI ?RET_LOW load(1, XDATA, add(CFA_XSP16, literal(-5)))
          CFI R7 load(1, XDATA, add(CFA_XSP16, literal(-6)))
          CFI V0 load(1, XDATA, add(CFA_XSP16, literal(-7)))
          CFI VB load(1, XDATA, add(CFA_XSP16, literal(-8)))
          CFI R6 load(1, XDATA, add(CFA_XSP16, literal(-9)))
          CFI CFA_SP SP+0
          CFI CFA_XSP16 add(XSP16, 9)
        ; Saved register size: 9
        ; Auto size: 0
        SJMP    ??MT_Word2Buf_0
//  406   while ( len-- > 0 )
//  407   {
//  408     *pBuf++ = LO_UINT16( *pWord );
??MT_Word2Buf_1:
        MOV     DPL,R4
        MOV     DPH,R5
        MOVX    A,@DPTR
        MOV     DPL,R2
        MOV     DPH,R3
        MOVX    @DPTR,A
        INC     DPTR
        MOV     R2,DPL
        MOV     R3,DPH
//  409     *pBuf++ = HI_UINT16( *pWord );
        MOV     DPL,R4
        MOV     DPH,R5
        INC     DPTR
        MOVX    A,@DPTR
        MOV     DPL,R2
        MOV     DPH,R3
        MOVX    @DPTR,A
        INC     DPTR
        INC     R2
        MOV     R3,DPH
//  410     pWord++;
        MOV     A,R4
        ADD     A,#0x2
        MOV     R4,A
        MOV     A,R5
        ADDC    A,#0x0
        MOV     R5,A
//  411   }
??MT_Word2Buf_0:
        MOV     A,R1
        MOV     R0,A
        MOV     A,#-0x1
        ADD     A,R0
        DEC     R1
        INC     A
        JNZ     ??MT_Word2Buf_1
//  412 
//  413   return pBuf;
        LJMP    ?Subroutine0 & 0xFFFF
          CFI EndBlock cfiBlock8
//  414 }
//  415 /***************************************************************************************************
//  416  * @fn      MT_BuildEndpointDesc
//  417  *
//  418  * @brief   Build endpoint descriptor and simple descriptor structure from incoming buffer
//  419  *
//  420  * @param   pBuf - byte array
//  421  *
//  422  * @return  epDesc - pointer to the endpoint descriptor
//  423  ***************************************************************************************************/

        RSEG BANKED_CODE:CODE:NOROOT(0)
//  424 uint8 MT_BuildEndpointDesc( uint8 *pBuf, void *param )
MT_BuildEndpointDesc:
          CFI Block cfiBlock9 Using cfiCommon0
          CFI Function MT_BuildEndpointDesc
        CODE
//  425 {
        FUNCALL MT_BuildEndpointDesc, afFindEndPointDesc
        LOCFRAME ISTACK, 0, STACK
        LOCFRAME PSTACK, 0, STACK
        LOCFRAME XSTACK, 14, STACK
        LOCFRAME IOVERLAY, 0, STATIC
        LOCFRAME DOVERLAY, 0, STATIC
        ARGFRAME ISTACK, 0, STACK
        ARGFRAME PSTACK, 0, STACK
        ARGFRAME XSTACK, 14, STACK
        ARGFRAME IOVERLAY, 0, STATIC
        ARGFRAME DOVERLAY, 0, STATIC
        FUNCALL MT_BuildEndpointDesc, osal_mem_alloc
        LOCFRAME ISTACK, 0, STACK
        LOCFRAME PSTACK, 0, STACK
        LOCFRAME XSTACK, 14, STACK
        LOCFRAME IOVERLAY, 0, STATIC
        LOCFRAME DOVERLAY, 0, STATIC
        ARGFRAME ISTACK, 0, STACK
        ARGFRAME PSTACK, 0, STACK
        ARGFRAME XSTACK, 14, STACK
        ARGFRAME IOVERLAY, 0, STATIC
        ARGFRAME DOVERLAY, 0, STATIC
        FUNCALL MT_BuildEndpointDesc, osal_mem_alloc
        LOCFRAME ISTACK, 0, STACK
        LOCFRAME PSTACK, 0, STACK
        LOCFRAME XSTACK, 14, STACK
        LOCFRAME IOVERLAY, 0, STATIC
        LOCFRAME DOVERLAY, 0, STATIC
        ARGFRAME ISTACK, 0, STACK
        ARGFRAME PSTACK, 0, STACK
        ARGFRAME XSTACK, 14, STACK
        ARGFRAME IOVERLAY, 0, STATIC
        ARGFRAME DOVERLAY, 0, STATIC
        FUNCALL MT_BuildEndpointDesc, osal_mem_alloc
        LOCFRAME ISTACK, 0, STACK
        LOCFRAME PSTACK, 0, STACK
        LOCFRAME XSTACK, 14, STACK
        LOCFRAME IOVERLAY, 0, STATIC
        LOCFRAME DOVERLAY, 0, STATIC
        ARGFRAME ISTACK, 0, STACK
        ARGFRAME PSTACK, 0, STACK
        ARGFRAME XSTACK, 14, STACK
        ARGFRAME IOVERLAY, 0, STATIC
        ARGFRAME DOVERLAY, 0, STATIC
        FUNCALL MT_BuildEndpointDesc, osal_mem_free
        LOCFRAME ISTACK, 0, STACK
        LOCFRAME PSTACK, 0, STACK
        LOCFRAME XSTACK, 14, STACK
        LOCFRAME IOVERLAY, 0, STATIC
        LOCFRAME DOVERLAY, 0, STATIC
        ARGFRAME ISTACK, 0, STACK
        ARGFRAME PSTACK, 0, STACK
        ARGFRAME XSTACK, 14, STACK
        ARGFRAME IOVERLAY, 0, STATIC
        ARGFRAME DOVERLAY, 0, STATIC
        FUNCALL MT_BuildEndpointDesc, osal_mem_free
        LOCFRAME ISTACK, 0, STACK
        LOCFRAME PSTACK, 0, STACK
        LOCFRAME XSTACK, 14, STACK
        LOCFRAME IOVERLAY, 0, STATIC
        LOCFRAME DOVERLAY, 0, STATIC
        ARGFRAME ISTACK, 0, STACK
        ARGFRAME PSTACK, 0, STACK
        ARGFRAME XSTACK, 14, STACK
        ARGFRAME IOVERLAY, 0, STATIC
        ARGFRAME DOVERLAY, 0, STATIC
        FUNCALL MT_BuildEndpointDesc, osal_mem_free
        LOCFRAME ISTACK, 0, STACK
        LOCFRAME PSTACK, 0, STACK
        LOCFRAME XSTACK, 14, STACK
        LOCFRAME IOVERLAY, 0, STATIC
        LOCFRAME DOVERLAY, 0, STATIC
        ARGFRAME ISTACK, 0, STACK
        ARGFRAME PSTACK, 0, STACK
        ARGFRAME XSTACK, 14, STACK
        ARGFRAME IOVERLAY, 0, STATIC
        ARGFRAME DOVERLAY, 0, STATIC
        MOV     A,#-0xe
        LCALL   ?BANKED_ENTER_XDATA
          CFI DPH0 load(1, XDATA, add(CFA_XSP16, literal(-1)))
          CFI DPL0 load(1, XDATA, add(CFA_XSP16, literal(-2)))
          CFI ?BRET_EXT load(1, XDATA, add(CFA_XSP16, literal(-3)))
          CFI ?RET_HIGH load(1, XDATA, add(CFA_XSP16, literal(-4)))
          CFI ?RET_LOW load(1, XDATA, add(CFA_XSP16, literal(-5)))
          CFI R7 load(1, XDATA, add(CFA_XSP16, literal(-6)))
          CFI V5 load(1, XDATA, add(CFA_XSP16, literal(-7)))
          CFI V4 load(1, XDATA, add(CFA_XSP16, literal(-8)))
          CFI V3 load(1, XDATA, add(CFA_XSP16, literal(-9)))
          CFI V2 load(1, XDATA, add(CFA_XSP16, literal(-10)))
          CFI V1 load(1, XDATA, add(CFA_XSP16, literal(-11)))
          CFI V0 load(1, XDATA, add(CFA_XSP16, literal(-12)))
          CFI VB load(1, XDATA, add(CFA_XSP16, literal(-13)))
          CFI R6 load(1, XDATA, add(CFA_XSP16, literal(-14)))
          CFI CFA_SP SP+0
          CFI CFA_XSP16 add(XSP16, 14)
        ; Saved register size: 14
        ; Auto size: 0
        MOV     A,R2
        MOV     R6,A
        MOV     A,R3
        MOV     R7,A
        MOV     ?V0 + 0,R4
        MOV     ?V0 + 1,R5
//  426   uint8 i;
//  427   uint8 ret = ZSuccess;
        MOV     ?V0 + 2,#0x0
//  428   endPointDesc_t *epDesc;
//  429 
//  430   epDesc = (endPointDesc_t *)param;
//  431   /* check if this endpoint is already registered */
//  432   if ( afFindEndPointDesc( *pBuf ) != NULL )
        ; Setup parameters for call to function afFindEndPointDesc
        MOV     DPL,R6
        MOV     DPH,R7
        MOVX    A,@DPTR
        MOV     R1,A
        LCALL   ??afFindEndPointDesc?relay
        MOV     ?V0 + 5,R3
        MOV     A,R2
        ORL     A,?V0 + 5
        JZ      ??MT_BuildEndpointDesc_0
//  433   {
//  434     ret = ZApsDuplicateEntry;
        MOV     ?V0 + 2,#-0x48
        LJMP    ??MT_BuildEndpointDesc_1 & 0xFFFF
//  435   }
//  436   else if ( epDesc )
??MT_BuildEndpointDesc_0:
        MOV     A,?V0 + 0
        ORL     A,?V0 + 1
        JNZ     $+5
        LJMP    ??MT_BuildEndpointDesc_1 & 0xFFFF
//  437   {
//  438     epDesc->endPoint = *pBuf;
        MOV     DPL,R6
        MOV     DPH,R7
        MOVX    A,@DPTR
        MOV     DPL,?V0 + 0
        MOV     DPH,?V0 + 1
        MOVX    @DPTR,A
//  439 
//  440     /* Ignore the latency reqs */
//  441     epDesc->latencyReq = noLatencyReqs;
        INC     DPTR
        INC     DPTR
        INC     DPTR
        INC     DPTR
        INC     DPTR
        CLR     A
        MOVX    @DPTR,A
//  442 
//  443     /* allocate memory for the simple descriptor */
//  444     epDesc->simpleDesc = (SimpleDescriptionFormat_t *) osal_mem_alloc(sizeof(SimpleDescriptionFormat_t));
        MOV     A,?V0 + 0
        ADD     A,#0x3
        MOV     ?V0 + 0,A
        MOV     A,?V0 + 1
        ADDC    A,#0x0
        MOV     ?V0 + 1,A
        ; Setup parameters for call to function osal_mem_alloc
        MOV     R2,#0xc
        MOV     R3,#0x0
        LCALL   ??osal_mem_alloc?relay
        MOV     DPL,?V0 + 0
        MOV     DPH,?V0 + 1
        MOV     A,R2
        MOVX    @DPTR,A
        INC     DPTR
        MOV     A,R3
        MOVX    @DPTR,A
//  445     if (epDesc->simpleDesc)
        MOV     DPL,?V0 + 0
        MOV     DPH,?V0 + 1
        LCALL   ??Subroutine19_0 & 0xFFFF
??CrossCallReturnLabel_34:
        JNZ     $+5
        LJMP    ??MT_BuildEndpointDesc_2 & 0xFFFF
//  446     {
//  447       /* Endpoint */
//  448       epDesc->simpleDesc->EndPoint = *pBuf++;
        MOV     DPL,R6
        MOV     DPH,R7
        MOVX    A,@DPTR
        MOV     DPL,R0
        MOV     DPH,R1
        LCALL   ?Subroutine5 & 0xFFFF
//  449 
//  450       /* AppProfId */
//  451       epDesc->simpleDesc->AppProfId = BUILD_UINT16(pBuf[0], pBuf[1]);
??CrossCallReturnLabel_6:
        MOVX    A,@DPTR
        LCALL   ?Subroutine9 & 0xFFFF
??CrossCallReturnLabel_14:
        LCALL   ?Subroutine2 & 0xFFFF
//  452       pBuf += sizeof(uint16);
//  453 
//  454       /* AppDeviceId */
//  455       epDesc->simpleDesc->AppDeviceId = BUILD_UINT16(pBuf[0],pBuf[1]);
??CrossCallReturnLabel_0:
        LCALL   ?Subroutine9 & 0xFFFF
??CrossCallReturnLabel_15:
        INC     DPTR
        INC     DPTR
        LCALL   ?Subroutine2 & 0xFFFF
//  456       pBuf += sizeof(uint16);
//  457 
//  458       /* AppDevVer */
//  459       epDesc->simpleDesc->AppDevVer = (*pBuf++) & AF_APP_DEV_VER_MASK ;
??CrossCallReturnLabel_1:
        ANL     A,#0xf
        MOV     R2,A
        INC     DPTR
        INC     R6
        MOV     R7,DPH
        MOV     DPL,?V0 + 0
        MOV     DPH,?V0 + 1
        MOVX    A,@DPTR
        ADD     A,#0x5
        MOV     R0,A
        INC     DPTR
        MOVX    A,@DPTR
        LCALL   ?Subroutine14 & 0xFFFF
??CrossCallReturnLabel_23:
        ANL     A,#0xf0
        ORL     A,R2
        LCALL   ?Subroutine6 & 0xFFFF
//  460 
//  461       /* LatencyReq */
//  462       pBuf++;
//  463 
//  464       /* AppNumInClusters */
//  465       epDesc->simpleDesc->AppNumInClusters = *pBuf++;
??CrossCallReturnLabel_8:
        MOVX    A,@DPTR
        PUSH    A
          CFI CFA_SP SP+-1
        LCALL   ?Subroutine10 & 0xFFFF
??CrossCallReturnLabel_16:
        POP     A
          CFI CFA_SP SP+0
        LCALL   ?Subroutine6 & 0xFFFF
??CrossCallReturnLabel_9:
        LCALL   ?Subroutine10 & 0xFFFF
??CrossCallReturnLabel_17:
        MOVX    A,@DPTR
        JZ      ??MT_BuildEndpointDesc_3
//  466       if (epDesc->simpleDesc->AppNumInClusters)
//  467       {
//  468         epDesc->simpleDesc->pAppInClusterList = (uint16 *)
//  469                   osal_mem_alloc((epDesc->simpleDesc->AppNumInClusters)*sizeof(uint16));
        ; Setup parameters for call to function osal_mem_alloc
        CLR     C
        RLC     A
        MOV     R2,A
        CLR     A
        RLC     A
        MOV     R3,A
        LCALL   ??osal_mem_alloc?relay
        LCALL   ?Subroutine15 & 0xFFFF
??CrossCallReturnLabel_24:
        ADD     A,#0x7
        LCALL   ?Subroutine3 & 0xFFFF
//  470         if ( epDesc->simpleDesc->pAppInClusterList )
??CrossCallReturnLabel_2:
        ADD     A,#0x7
        LCALL   ?Subroutine12 & 0xFFFF
??CrossCallReturnLabel_35:
        JZ      ??MT_BuildEndpointDesc_4
//  471         {
//  472           for (i=0; i<(epDesc->simpleDesc->AppNumInClusters); i++)
        MOV     R4,#0x0
??MT_BuildEndpointDesc_5:
        MOV     DPL,?V0 + 0
        MOV     DPH,?V0 + 1
        LCALL   ?Subroutine13 & 0xFFFF
??CrossCallReturnLabel_21:
        INC     DPTR
        INC     DPTR
        INC     DPTR
        INC     DPTR
        INC     DPTR
        INC     DPTR
        MOVX    A,@DPTR
        MOV     R2,A
        MOV     A,R4
        CLR     C
        SUBB    A,R2
        JNC     ??MT_BuildEndpointDesc_3
//  473           {
//  474             epDesc->simpleDesc->pAppInClusterList[i] = BUILD_UINT16(*pBuf, *(pBuf+1));
        LCALL   ?Subroutine7 & 0xFFFF
//  475             pBuf += 2;
//  476           }
//  477         }
??CrossCallReturnLabel_10:
        LCALL   ?Subroutine4 & 0xFFFF
??CrossCallReturnLabel_4:
        SJMP    ??MT_BuildEndpointDesc_5
//  478         else
//  479         {
//  480           ret = ZMemError;
??MT_BuildEndpointDesc_4:
        MOV     ?V0 + 2,#0x10
//  481         }
//  482       }
//  483 
//  484       /* AppNumOutClusters */
//  485       epDesc->simpleDesc->AppNumOutClusters = *pBuf++;
??MT_BuildEndpointDesc_3:
        MOV     DPL,R6
        MOV     DPH,R7
        MOVX    A,@DPTR
        PUSH    A
          CFI CFA_SP SP+-1
        LCALL   ?Subroutine11 & 0xFFFF
??CrossCallReturnLabel_18:
        POP     A
          CFI CFA_SP SP+0
        LCALL   ?Subroutine5 & 0xFFFF
??CrossCallReturnLabel_7:
        LCALL   ?Subroutine11 & 0xFFFF
??CrossCallReturnLabel_19:
        MOVX    A,@DPTR
        JZ      ??MT_BuildEndpointDesc_6
//  486       if (epDesc->simpleDesc->AppNumOutClusters)
//  487       {
//  488         epDesc->simpleDesc->pAppOutClusterList = (uint16 *)
//  489                           osal_mem_alloc((epDesc->simpleDesc->AppNumOutClusters)*sizeof(uint16));
        ; Setup parameters for call to function osal_mem_alloc
        CLR     C
        RLC     A
        MOV     R2,A
        CLR     A
        RLC     A
        MOV     R3,A
        LCALL   ??osal_mem_alloc?relay
        LCALL   ?Subroutine15 & 0xFFFF
??CrossCallReturnLabel_25:
        ADD     A,#0xa
        LCALL   ?Subroutine3 & 0xFFFF
//  490         if (epDesc->simpleDesc->pAppOutClusterList)
??CrossCallReturnLabel_3:
        ADD     A,#0xa
        LCALL   ?Subroutine12 & 0xFFFF
??CrossCallReturnLabel_36:
        JZ      ??MT_BuildEndpointDesc_7
//  491         {
//  492           for (i=0; i<(epDesc->simpleDesc->AppNumOutClusters); i++)
        MOV     R4,#0x0
??MT_BuildEndpointDesc_8:
        LCALL   ?Subroutine8 & 0xFFFF
??CrossCallReturnLabel_12:
        MOV     R2,A
        MOV     A,R4
        CLR     C
        SUBB    A,R2
        JNC     ??MT_BuildEndpointDesc_6
//  493           {
//  494             epDesc->simpleDesc->pAppOutClusterList[i] = BUILD_UINT16(*pBuf, *(pBuf+1));
        LCALL   ?Subroutine7 & 0xFFFF
//  495             pBuf += 2;
//  496           }
//  497         }
??CrossCallReturnLabel_11:
        INC     DPTR
        INC     DPTR
        INC     DPTR
        LCALL   ?Subroutine4 & 0xFFFF
??CrossCallReturnLabel_5:
        SJMP    ??MT_BuildEndpointDesc_8
//  498         else
//  499         {
//  500           ret = ZMemError;
??MT_BuildEndpointDesc_7:
        MOV     ?V0 + 2,#0x10
        SJMP    ??MT_BuildEndpointDesc_9
//  501         }
//  502       }
//  503 
//  504       /* if any list cannot be allocated...free all */
//  505       if ( ret == ZMemError )
??MT_BuildEndpointDesc_6:
        MOV     A,#0x10
        XRL     A,?V0 + 2
        JNZ     ??MT_BuildEndpointDesc_1
??MT_BuildEndpointDesc_9:
        LCALL   ?Subroutine15 & 0xFFFF
??CrossCallReturnLabel_26:
        ADD     A,#0x7
        LCALL   ?Subroutine18 & 0xFFFF
??CrossCallReturnLabel_38:
        MOVX    A,@DPTR
        MOV     R2,A
        INC     DPTR
        MOVX    A,@DPTR
        MOV     R3,A
        MOV     A,R2
        ORL     A,R3
        JZ      ??MT_BuildEndpointDesc_10
//  506       {
//  507         if (epDesc->simpleDesc->pAppInClusterList)
//  508         {
//  509           osal_mem_free(epDesc->simpleDesc->pAppInClusterList);
        ; Setup parameters for call to function osal_mem_free
        LCALL   ??osal_mem_free?relay
//  510         }
//  511 
//  512         if (epDesc->simpleDesc->AppNumOutClusters)
??MT_BuildEndpointDesc_10:
        LCALL   ?Subroutine8 & 0xFFFF
??CrossCallReturnLabel_13:
        JZ      ??MT_BuildEndpointDesc_11
//  513         {
//  514           osal_mem_free(epDesc->simpleDesc->pAppOutClusterList);
        ; Setup parameters for call to function osal_mem_free
        MOV     DPL,R0
        MOV     DPH,R1
        INC     DPTR
        INC     DPTR
        INC     DPTR
        INC     DPTR
        INC     DPTR
        INC     DPTR
        INC     DPTR
        INC     DPTR
        INC     DPTR
        INC     DPTR
        MOVX    A,@DPTR
        MOV     R2,A
        INC     DPTR
        MOVX    A,@DPTR
        MOV     R3,A
        LCALL   ??osal_mem_free?relay
//  515         }
//  516 
//  517         osal_mem_free(epDesc->simpleDesc);
??MT_BuildEndpointDesc_11:
        ; Setup parameters for call to function osal_mem_free
        MOV     DPL,?V0 + 0
        MOV     DPH,?V0 + 1
        MOVX    A,@DPTR
        MOV     R2,A
        INC     DPTR
        MOVX    A,@DPTR
        MOV     R3,A
        LCALL   ??osal_mem_free?relay
        SJMP    ??MT_BuildEndpointDesc_1
//  518       }
//  519     }
//  520     else
//  521     {
//  522       ret = ZMemError;
??MT_BuildEndpointDesc_2:
        MOV     ?V0 + 2,#0x10
//  523     }
//  524   }
//  525 
//  526   return ret;
??MT_BuildEndpointDesc_1:
        MOV     R1,?V0 + 2
        MOV     R7,#0x6
        LJMP    ?BANKED_LEAVE_XDATA
          CFI EndBlock cfiBlock9
//  527 }

        RSEG BANKED_CODE:CODE:NOROOT(0)
?Subroutine14:
          CFI Block cfiCond10 Using cfiCommon0
          CFI Function MT_ReverseBytes
          CFI Conditional ??CrossCallReturnLabel_22
          CFI R6 load(1, XDATA, add(CFA_XSP16, literal(-12)))
          CFI VB load(1, XDATA, add(CFA_XSP16, literal(-11)))
          CFI V0 load(1, XDATA, add(CFA_XSP16, literal(-10)))
          CFI V1 load(1, XDATA, add(CFA_XSP16, literal(-9)))
          CFI V2 load(1, XDATA, add(CFA_XSP16, literal(-8)))
          CFI V3 load(1, XDATA, add(CFA_XSP16, literal(-7)))
          CFI R7 load(1, XDATA, add(CFA_XSP16, literal(-6)))
          CFI ?RET_LOW load(1, XDATA, add(CFA_XSP16, literal(-5)))
          CFI ?RET_HIGH load(1, XDATA, add(CFA_XSP16, literal(-4)))
          CFI ?BRET_EXT load(1, XDATA, add(CFA_XSP16, literal(-3)))
          CFI DPL0 load(1, XDATA, add(CFA_XSP16, literal(-2)))
          CFI DPH0 load(1, XDATA, add(CFA_XSP16, literal(-1)))
          CFI CFA_SP SP+0
          CFI CFA_XSP16 add(XSP16, 12)
          CFI Block cfiCond11 Using cfiCommon0
          CFI (cfiCond11) Function MT_BuildEndpointDesc
          CFI (cfiCond11) Conditional ??CrossCallReturnLabel_23
          CFI (cfiCond11) R6 load(1, XDATA, add(CFA_XSP16, literal(-14)))
          CFI (cfiCond11) VB load(1, XDATA, add(CFA_XSP16, literal(-13)))
          CFI (cfiCond11) V0 load(1, XDATA, add(CFA_XSP16, literal(-12)))
          CFI (cfiCond11) V1 load(1, XDATA, add(CFA_XSP16, literal(-11)))
          CFI (cfiCond11) V2 load(1, XDATA, add(CFA_XSP16, literal(-10)))
          CFI (cfiCond11) V3 load(1, XDATA, add(CFA_XSP16, literal(-9)))
          CFI (cfiCond11) V4 load(1, XDATA, add(CFA_XSP16, literal(-8)))
          CFI (cfiCond11) V5 load(1, XDATA, add(CFA_XSP16, literal(-7)))
          CFI (cfiCond11) R7 load(1, XDATA, add(CFA_XSP16, literal(-6)))
          CFI (cfiCond11) ?RET_LOW load(1, XDATA, add(CFA_XSP16, literal(-5)))
          CFI (cfiCond11) ?RET_HIGH load(1, XDATA, add(CFA_XSP16, literal(-4)))
          CFI (cfiCond11) ?BRET_EXT load(1, XDATA, add(CFA_XSP16, literal(-3)))
          CFI (cfiCond11) DPL0 load(1, XDATA, add(CFA_XSP16, literal(-2)))
          CFI (cfiCond11) DPH0 load(1, XDATA, add(CFA_XSP16, literal(-1)))
          CFI (cfiCond11) CFA_SP SP+0
          CFI (cfiCond11) CFA_XSP16 add(XSP16, 14)
          CFI Block cfiPicker12 Using cfiCommon1
          CFI (cfiPicker12) NoFunction
          CFI (cfiPicker12) Picker
        ADDC    A,#0x0
        MOV     R1,A
        MOV     DPL,R0
        MOV     DPH,R1
        MOVX    A,@DPTR
        RET
          CFI EndBlock cfiCond10
          CFI EndBlock cfiCond11
          CFI EndBlock cfiPicker12

        RSEG BANKED_CODE:CODE:NOROOT(0)
?Subroutine13:
          CFI Block cfiCond13 Using cfiCommon0
          CFI Function MT_ProcessIncoming
          CFI Conditional ??CrossCallReturnLabel_20
          CFI R6 load(1, XDATA, add(CFA_XSP16, literal(-10)))
          CFI VB load(1, XDATA, add(CFA_XSP16, literal(-9)))
          CFI V0 load(1, XDATA, add(CFA_XSP16, literal(-8)))
          CFI V1 load(1, XDATA, add(CFA_XSP16, literal(-7)))
          CFI R7 load(1, XDATA, add(CFA_XSP16, literal(-6)))
          CFI ?RET_LOW load(1, XDATA, add(CFA_XSP16, literal(-5)))
          CFI ?RET_HIGH load(1, XDATA, add(CFA_XSP16, literal(-4)))
          CFI ?BRET_EXT load(1, XDATA, add(CFA_XSP16, literal(-3)))
          CFI DPL0 load(1, XDATA, add(CFA_XSP16, literal(-2)))
          CFI DPH0 load(1, XDATA, add(CFA_XSP16, literal(-1)))
          CFI CFA_SP SP+0
          CFI CFA_XSP16 add(XSP16, 13)
          CFI Block cfiCond14 Using cfiCommon0
          CFI (cfiCond14) Function MT_BuildEndpointDesc
          CFI (cfiCond14) Conditional ??CrossCallReturnLabel_21
          CFI (cfiCond14) R6 load(1, XDATA, add(CFA_XSP16, literal(-14)))
          CFI (cfiCond14) VB load(1, XDATA, add(CFA_XSP16, literal(-13)))
          CFI (cfiCond14) V0 load(1, XDATA, add(CFA_XSP16, literal(-12)))
          CFI (cfiCond14) V1 load(1, XDATA, add(CFA_XSP16, literal(-11)))
          CFI (cfiCond14) V2 load(1, XDATA, add(CFA_XSP16, literal(-10)))
          CFI (cfiCond14) V3 load(1, XDATA, add(CFA_XSP16, literal(-9)))
          CFI (cfiCond14) V4 load(1, XDATA, add(CFA_XSP16, literal(-8)))
          CFI (cfiCond14) V5 load(1, XDATA, add(CFA_XSP16, literal(-7)))
          CFI (cfiCond14) R7 load(1, XDATA, add(CFA_XSP16, literal(-6)))
          CFI (cfiCond14) ?RET_LOW load(1, XDATA, add(CFA_XSP16, literal(-5)))
          CFI (cfiCond14) ?RET_HIGH load(1, XDATA, add(CFA_XSP16, literal(-4)))
          CFI (cfiCond14) ?BRET_EXT load(1, XDATA, add(CFA_XSP16, literal(-3)))
          CFI (cfiCond14) DPL0 load(1, XDATA, add(CFA_XSP16, literal(-2)))
          CFI (cfiCond14) DPH0 load(1, XDATA, add(CFA_XSP16, literal(-1)))
          CFI (cfiCond14) CFA_SP SP+0
          CFI (cfiCond14) CFA_XSP16 add(XSP16, 14)
          CFI Block cfiPicker15 Using cfiCommon1
          CFI (cfiPicker15) NoFunction
          CFI (cfiPicker15) Picker
        LCALL   ?Subroutine17 & 0xFFFF
??CrossCallReturnLabel_33:
        RET
          CFI EndBlock cfiCond13
          CFI EndBlock cfiCond14
          CFI EndBlock cfiPicker15

        RSEG BANKED_CODE:CODE:NOROOT(0)
?Subroutine17:
          CFI Block cfiCond16 Using cfiCommon0
          CFI Function MT_ProcessIncoming
          CFI Conditional ??CrossCallReturnLabel_33, ??CrossCallReturnLabel_20
          CFI R6 load(1, XDATA, add(CFA_XSP16, literal(-10)))
          CFI VB load(1, XDATA, add(CFA_XSP16, literal(-9)))
          CFI V0 load(1, XDATA, add(CFA_XSP16, literal(-8)))
          CFI V1 load(1, XDATA, add(CFA_XSP16, literal(-7)))
          CFI R7 load(1, XDATA, add(CFA_XSP16, literal(-6)))
          CFI ?RET_LOW load(1, XDATA, add(CFA_XSP16, literal(-5)))
          CFI ?RET_HIGH load(1, XDATA, add(CFA_XSP16, literal(-4)))
          CFI ?BRET_EXT load(1, XDATA, add(CFA_XSP16, literal(-3)))
          CFI DPL0 load(1, XDATA, add(CFA_XSP16, literal(-2)))
          CFI DPH0 load(1, XDATA, add(CFA_XSP16, literal(-1)))
          CFI CFA_SP SP+0
          CFI CFA_XSP16 add(XSP16, 13)
          CFI Block cfiCond17 Using cfiCommon0
          CFI (cfiCond17) Function MT_BuildEndpointDesc
          CFI (cfiCond17) Conditional ??CrossCallReturnLabel_33, ??CrossCallReturnLabel_21
          CFI (cfiCond17) R6 load(1, XDATA, add(CFA_XSP16, literal(-14)))
          CFI (cfiCond17) VB load(1, XDATA, add(CFA_XSP16, literal(-13)))
          CFI (cfiCond17) V0 load(1, XDATA, add(CFA_XSP16, literal(-12)))
          CFI (cfiCond17) V1 load(1, XDATA, add(CFA_XSP16, literal(-11)))
          CFI (cfiCond17) V2 load(1, XDATA, add(CFA_XSP16, literal(-10)))
          CFI (cfiCond17) V3 load(1, XDATA, add(CFA_XSP16, literal(-9)))
          CFI (cfiCond17) V4 load(1, XDATA, add(CFA_XSP16, literal(-8)))
          CFI (cfiCond17) V5 load(1, XDATA, add(CFA_XSP16, literal(-7)))
          CFI (cfiCond17) R7 load(1, XDATA, add(CFA_XSP16, literal(-6)))
          CFI (cfiCond17) ?RET_LOW load(1, XDATA, add(CFA_XSP16, literal(-5)))
          CFI (cfiCond17) ?RET_HIGH load(1, XDATA, add(CFA_XSP16, literal(-4)))
          CFI (cfiCond17) ?BRET_EXT load(1, XDATA, add(CFA_XSP16, literal(-3)))
          CFI (cfiCond17) DPL0 load(1, XDATA, add(CFA_XSP16, literal(-2)))
          CFI (cfiCond17) DPH0 load(1, XDATA, add(CFA_XSP16, literal(-1)))
          CFI (cfiCond17) CFA_SP SP+0
          CFI (cfiCond17) CFA_XSP16 add(XSP16, 14)
          CFI Block cfiCond18 Using cfiCommon0
          CFI (cfiCond18) Function MT_BuildEndpointDesc
          CFI (cfiCond18) Conditional ??CrossCallReturnLabel_32, ??CrossCallReturnLabel_12
          CFI (cfiCond18) R6 load(1, XDATA, add(CFA_XSP16, literal(-14)))
          CFI (cfiCond18) VB load(1, XDATA, add(CFA_XSP16, literal(-13)))
          CFI (cfiCond18) V0 load(1, XDATA, add(CFA_XSP16, literal(-12)))
          CFI (cfiCond18) V1 load(1, XDATA, add(CFA_XSP16, literal(-11)))
          CFI (cfiCond18) V2 load(1, XDATA, add(CFA_XSP16, literal(-10)))
          CFI (cfiCond18) V3 load(1, XDATA, add(CFA_XSP16, literal(-9)))
          CFI (cfiCond18) V4 load(1, XDATA, add(CFA_XSP16, literal(-8)))
          CFI (cfiCond18) V5 load(1, XDATA, add(CFA_XSP16, literal(-7)))
          CFI (cfiCond18) R7 load(1, XDATA, add(CFA_XSP16, literal(-6)))
          CFI (cfiCond18) ?RET_LOW load(1, XDATA, add(CFA_XSP16, literal(-5)))
          CFI (cfiCond18) ?RET_HIGH load(1, XDATA, add(CFA_XSP16, literal(-4)))
          CFI (cfiCond18) ?BRET_EXT load(1, XDATA, add(CFA_XSP16, literal(-3)))
          CFI (cfiCond18) DPL0 load(1, XDATA, add(CFA_XSP16, literal(-2)))
          CFI (cfiCond18) DPH0 load(1, XDATA, add(CFA_XSP16, literal(-1)))
          CFI (cfiCond18) CFA_SP SP+0
          CFI (cfiCond18) CFA_XSP16 add(XSP16, 14)
          CFI Block cfiCond19 Using cfiCommon0
          CFI (cfiCond19) Function MT_BuildEndpointDesc
          CFI (cfiCond19) Conditional ??CrossCallReturnLabel_32, ??CrossCallReturnLabel_13
          CFI (cfiCond19) R6 load(1, XDATA, add(CFA_XSP16, literal(-14)))
          CFI (cfiCond19) VB load(1, XDATA, add(CFA_XSP16, literal(-13)))
          CFI (cfiCond19) V0 load(1, XDATA, add(CFA_XSP16, literal(-12)))
          CFI (cfiCond19) V1 load(1, XDATA, add(CFA_XSP16, literal(-11)))
          CFI (cfiCond19) V2 load(1, XDATA, add(CFA_XSP16, literal(-10)))
          CFI (cfiCond19) V3 load(1, XDATA, add(CFA_XSP16, literal(-9)))
          CFI (cfiCond19) V4 load(1, XDATA, add(CFA_XSP16, literal(-8)))
          CFI (cfiCond19) V5 load(1, XDATA, add(CFA_XSP16, literal(-7)))
          CFI (cfiCond19) R7 load(1, XDATA, add(CFA_XSP16, literal(-6)))
          CFI (cfiCond19) ?RET_LOW load(1, XDATA, add(CFA_XSP16, literal(-5)))
          CFI (cfiCond19) ?RET_HIGH load(1, XDATA, add(CFA_XSP16, literal(-4)))
          CFI (cfiCond19) ?BRET_EXT load(1, XDATA, add(CFA_XSP16, literal(-3)))
          CFI (cfiCond19) DPL0 load(1, XDATA, add(CFA_XSP16, literal(-2)))
          CFI (cfiCond19) DPH0 load(1, XDATA, add(CFA_XSP16, literal(-1)))
          CFI (cfiCond19) CFA_SP SP+0
          CFI (cfiCond19) CFA_XSP16 add(XSP16, 14)
          CFI Block cfiPicker20 Using cfiCommon1
          CFI (cfiPicker20) NoFunction
          CFI (cfiPicker20) Picker
        MOVX    A,@DPTR
        MOV     R0,A
        INC     DPTR
        MOVX    A,@DPTR
        MOV     R1,A
        MOV     DPL,R0
        MOV     DPH,R1
        RET
          CFI EndBlock cfiCond16
          CFI EndBlock cfiCond17
          CFI EndBlock cfiCond18
          CFI EndBlock cfiCond19
          CFI EndBlock cfiPicker20

        RSEG BANKED_CODE:CODE:NOROOT(0)
?Subroutine12:
          CFI Block cfiCond21 Using cfiCommon0
          CFI Function MT_BuildEndpointDesc
          CFI Conditional ??CrossCallReturnLabel_35
          CFI R6 load(1, XDATA, add(CFA_XSP16, literal(-14)))
          CFI VB load(1, XDATA, add(CFA_XSP16, literal(-13)))
          CFI V0 load(1, XDATA, add(CFA_XSP16, literal(-12)))
          CFI V1 load(1, XDATA, add(CFA_XSP16, literal(-11)))
          CFI V2 load(1, XDATA, add(CFA_XSP16, literal(-10)))
          CFI V3 load(1, XDATA, add(CFA_XSP16, literal(-9)))
          CFI V4 load(1, XDATA, add(CFA_XSP16, literal(-8)))
          CFI V5 load(1, XDATA, add(CFA_XSP16, literal(-7)))
          CFI R7 load(1, XDATA, add(CFA_XSP16, literal(-6)))
          CFI ?RET_LOW load(1, XDATA, add(CFA_XSP16, literal(-5)))
          CFI ?RET_HIGH load(1, XDATA, add(CFA_XSP16, literal(-4)))
          CFI ?BRET_EXT load(1, XDATA, add(CFA_XSP16, literal(-3)))
          CFI DPL0 load(1, XDATA, add(CFA_XSP16, literal(-2)))
          CFI DPH0 load(1, XDATA, add(CFA_XSP16, literal(-1)))
          CFI CFA_SP SP+0
          CFI CFA_XSP16 add(XSP16, 14)
          CFI Block cfiCond22 Using cfiCommon0
          CFI (cfiCond22) Function MT_BuildEndpointDesc
          CFI (cfiCond22) Conditional ??CrossCallReturnLabel_36
          CFI (cfiCond22) R6 load(1, XDATA, add(CFA_XSP16, literal(-14)))
          CFI (cfiCond22) VB load(1, XDATA, add(CFA_XSP16, literal(-13)))
          CFI (cfiCond22) V0 load(1, XDATA, add(CFA_XSP16, literal(-12)))
          CFI (cfiCond22) V1 load(1, XDATA, add(CFA_XSP16, literal(-11)))
          CFI (cfiCond22) V2 load(1, XDATA, add(CFA_XSP16, literal(-10)))
          CFI (cfiCond22) V3 load(1, XDATA, add(CFA_XSP16, literal(-9)))
          CFI (cfiCond22) V4 load(1, XDATA, add(CFA_XSP16, literal(-8)))
          CFI (cfiCond22) V5 load(1, XDATA, add(CFA_XSP16, literal(-7)))
          CFI (cfiCond22) R7 load(1, XDATA, add(CFA_XSP16, literal(-6)))
          CFI (cfiCond22) ?RET_LOW load(1, XDATA, add(CFA_XSP16, literal(-5)))
          CFI (cfiCond22) ?RET_HIGH load(1, XDATA, add(CFA_XSP16, literal(-4)))
          CFI (cfiCond22) ?BRET_EXT load(1, XDATA, add(CFA_XSP16, literal(-3)))
          CFI (cfiCond22) DPL0 load(1, XDATA, add(CFA_XSP16, literal(-2)))
          CFI (cfiCond22) DPH0 load(1, XDATA, add(CFA_XSP16, literal(-1)))
          CFI (cfiCond22) CFA_SP SP+0
          CFI (cfiCond22) CFA_XSP16 add(XSP16, 14)
          CFI Block cfiPicker23 Using cfiCommon1
          CFI (cfiPicker23) NoFunction
          CFI (cfiPicker23) Picker
        LCALL   ?Subroutine18 & 0xFFFF
          CFI EndBlock cfiCond21
          CFI EndBlock cfiCond22
          CFI EndBlock cfiPicker23
??CrossCallReturnLabel_42:
        REQUIRE ??Subroutine19_0
        ; // Fall through to label ??Subroutine19_0

        RSEG BANKED_CODE:CODE:NOROOT(0)
??Subroutine19_0:
          CFI Block cfiCond24 Using cfiCommon0
          CFI Function MT_BuildEndpointDesc
          CFI Conditional ??CrossCallReturnLabel_34
          CFI R6 load(1, XDATA, add(CFA_XSP16, literal(-14)))
          CFI VB load(1, XDATA, add(CFA_XSP16, literal(-13)))
          CFI V0 load(1, XDATA, add(CFA_XSP16, literal(-12)))
          CFI V1 load(1, XDATA, add(CFA_XSP16, literal(-11)))
          CFI V2 load(1, XDATA, add(CFA_XSP16, literal(-10)))
          CFI V3 load(1, XDATA, add(CFA_XSP16, literal(-9)))
          CFI V4 load(1, XDATA, add(CFA_XSP16, literal(-8)))
          CFI V5 load(1, XDATA, add(CFA_XSP16, literal(-7)))
          CFI R7 load(1, XDATA, add(CFA_XSP16, literal(-6)))
          CFI ?RET_LOW load(1, XDATA, add(CFA_XSP16, literal(-5)))
          CFI ?RET_HIGH load(1, XDATA, add(CFA_XSP16, literal(-4)))
          CFI ?BRET_EXT load(1, XDATA, add(CFA_XSP16, literal(-3)))
          CFI DPL0 load(1, XDATA, add(CFA_XSP16, literal(-2)))
          CFI DPH0 load(1, XDATA, add(CFA_XSP16, literal(-1)))
          CFI CFA_SP SP+0
          CFI CFA_XSP16 add(XSP16, 14)
          CFI Block cfiCond25 Using cfiCommon0
          CFI (cfiCond25) Function MT_BuildEndpointDesc
          CFI (cfiCond25) Conditional ??CrossCallReturnLabel_35
          CFI (cfiCond25) R6 load(1, XDATA, add(CFA_XSP16, literal(-14)))
          CFI (cfiCond25) VB load(1, XDATA, add(CFA_XSP16, literal(-13)))
          CFI (cfiCond25) V0 load(1, XDATA, add(CFA_XSP16, literal(-12)))
          CFI (cfiCond25) V1 load(1, XDATA, add(CFA_XSP16, literal(-11)))
          CFI (cfiCond25) V2 load(1, XDATA, add(CFA_XSP16, literal(-10)))
          CFI (cfiCond25) V3 load(1, XDATA, add(CFA_XSP16, literal(-9)))
          CFI (cfiCond25) V4 load(1, XDATA, add(CFA_XSP16, literal(-8)))
          CFI (cfiCond25) V5 load(1, XDATA, add(CFA_XSP16, literal(-7)))
          CFI (cfiCond25) R7 load(1, XDATA, add(CFA_XSP16, literal(-6)))
          CFI (cfiCond25) ?RET_LOW load(1, XDATA, add(CFA_XSP16, literal(-5)))
          CFI (cfiCond25) ?RET_HIGH load(1, XDATA, add(CFA_XSP16, literal(-4)))
          CFI (cfiCond25) ?BRET_EXT load(1, XDATA, add(CFA_XSP16, literal(-3)))
          CFI (cfiCond25) DPL0 load(1, XDATA, add(CFA_XSP16, literal(-2)))
          CFI (cfiCond25) DPH0 load(1, XDATA, add(CFA_XSP16, literal(-1)))
          CFI (cfiCond25) CFA_SP SP+0
          CFI (cfiCond25) CFA_XSP16 add(XSP16, 14)
          CFI Block cfiCond26 Using cfiCommon0
          CFI (cfiCond26) Function MT_BuildEndpointDesc
          CFI (cfiCond26) Conditional ??CrossCallReturnLabel_36
          CFI (cfiCond26) R6 load(1, XDATA, add(CFA_XSP16, literal(-14)))
          CFI (cfiCond26) VB load(1, XDATA, add(CFA_XSP16, literal(-13)))
          CFI (cfiCond26) V0 load(1, XDATA, add(CFA_XSP16, literal(-12)))
          CFI (cfiCond26) V1 load(1, XDATA, add(CFA_XSP16, literal(-11)))
          CFI (cfiCond26) V2 load(1, XDATA, add(CFA_XSP16, literal(-10)))
          CFI (cfiCond26) V3 load(1, XDATA, add(CFA_XSP16, literal(-9)))
          CFI (cfiCond26) V4 load(1, XDATA, add(CFA_XSP16, literal(-8)))
          CFI (cfiCond26) V5 load(1, XDATA, add(CFA_XSP16, literal(-7)))
          CFI (cfiCond26) R7 load(1, XDATA, add(CFA_XSP16, literal(-6)))
          CFI (cfiCond26) ?RET_LOW load(1, XDATA, add(CFA_XSP16, literal(-5)))
          CFI (cfiCond26) ?RET_HIGH load(1, XDATA, add(CFA_XSP16, literal(-4)))
          CFI (cfiCond26) ?BRET_EXT load(1, XDATA, add(CFA_XSP16, literal(-3)))
          CFI (cfiCond26) DPL0 load(1, XDATA, add(CFA_XSP16, literal(-2)))
          CFI (cfiCond26) DPH0 load(1, XDATA, add(CFA_XSP16, literal(-1)))
          CFI (cfiCond26) CFA_SP SP+0
          CFI (cfiCond26) CFA_XSP16 add(XSP16, 14)
          CFI Block cfiPicker27 Using cfiCommon1
          CFI (cfiPicker27) NoFunction
          CFI (cfiPicker27) Picker
        MOVX    A,@DPTR
        MOV     R0,A
        INC     DPTR
        MOVX    A,@DPTR
        MOV     R1,A
        MOV     A,R0
        ORL     A,R1
        RET
          CFI EndBlock cfiCond24
          CFI EndBlock cfiCond25
          CFI EndBlock cfiCond26
          CFI EndBlock cfiPicker27

        RSEG BANKED_CODE:CODE:NOROOT(0)
?Subroutine11:
          CFI Block cfiCond28 Using cfiCommon0
          CFI Function MT_BuildEndpointDesc
          CFI Conditional ??CrossCallReturnLabel_18
          CFI R6 load(1, XDATA, add(CFA_XSP16, literal(-14)))
          CFI VB load(1, XDATA, add(CFA_XSP16, literal(-13)))
          CFI V0 load(1, XDATA, add(CFA_XSP16, literal(-12)))
          CFI V1 load(1, XDATA, add(CFA_XSP16, literal(-11)))
          CFI V2 load(1, XDATA, add(CFA_XSP16, literal(-10)))
          CFI V3 load(1, XDATA, add(CFA_XSP16, literal(-9)))
          CFI V4 load(1, XDATA, add(CFA_XSP16, literal(-8)))
          CFI V5 load(1, XDATA, add(CFA_XSP16, literal(-7)))
          CFI R7 load(1, XDATA, add(CFA_XSP16, literal(-6)))
          CFI ?RET_LOW load(1, XDATA, add(CFA_XSP16, literal(-5)))
          CFI ?RET_HIGH load(1, XDATA, add(CFA_XSP16, literal(-4)))
          CFI ?BRET_EXT load(1, XDATA, add(CFA_XSP16, literal(-3)))
          CFI DPL0 load(1, XDATA, add(CFA_XSP16, literal(-2)))
          CFI DPH0 load(1, XDATA, add(CFA_XSP16, literal(-1)))
          CFI CFA_SP SP+-1
          CFI CFA_XSP16 add(XSP16, 14)
          CFI Block cfiCond29 Using cfiCommon0
          CFI (cfiCond29) Function MT_BuildEndpointDesc
          CFI (cfiCond29) Conditional ??CrossCallReturnLabel_19
          CFI (cfiCond29) R6 load(1, XDATA, add(CFA_XSP16, literal(-14)))
          CFI (cfiCond29) VB load(1, XDATA, add(CFA_XSP16, literal(-13)))
          CFI (cfiCond29) V0 load(1, XDATA, add(CFA_XSP16, literal(-12)))
          CFI (cfiCond29) V1 load(1, XDATA, add(CFA_XSP16, literal(-11)))
          CFI (cfiCond29) V2 load(1, XDATA, add(CFA_XSP16, literal(-10)))
          CFI (cfiCond29) V3 load(1, XDATA, add(CFA_XSP16, literal(-9)))
          CFI (cfiCond29) V4 load(1, XDATA, add(CFA_XSP16, literal(-8)))
          CFI (cfiCond29) V5 load(1, XDATA, add(CFA_XSP16, literal(-7)))
          CFI (cfiCond29) R7 load(1, XDATA, add(CFA_XSP16, literal(-6)))
          CFI (cfiCond29) ?RET_LOW load(1, XDATA, add(CFA_XSP16, literal(-5)))
          CFI (cfiCond29) ?RET_HIGH load(1, XDATA, add(CFA_XSP16, literal(-4)))
          CFI (cfiCond29) ?BRET_EXT load(1, XDATA, add(CFA_XSP16, literal(-3)))
          CFI (cfiCond29) DPL0 load(1, XDATA, add(CFA_XSP16, literal(-2)))
          CFI (cfiCond29) DPH0 load(1, XDATA, add(CFA_XSP16, literal(-1)))
          CFI (cfiCond29) CFA_SP SP+0
          CFI (cfiCond29) CFA_XSP16 add(XSP16, 14)
          CFI Block cfiPicker30 Using cfiCommon1
          CFI (cfiPicker30) NoFunction
          CFI (cfiPicker30) Picker
        LCALL   ?Subroutine15 & 0xFFFF
??CrossCallReturnLabel_29:
        ADD     A,#0x9
        LCALL   ?Subroutine18 & 0xFFFF
??CrossCallReturnLabel_41:
        RET
          CFI EndBlock cfiCond28
          CFI EndBlock cfiCond29
          CFI EndBlock cfiPicker30

        RSEG BANKED_CODE:CODE:NOROOT(0)
?Subroutine10:
          CFI Block cfiCond31 Using cfiCommon0
          CFI Function MT_BuildEndpointDesc
          CFI Conditional ??CrossCallReturnLabel_16
          CFI R6 load(1, XDATA, add(CFA_XSP16, literal(-14)))
          CFI VB load(1, XDATA, add(CFA_XSP16, literal(-13)))
          CFI V0 load(1, XDATA, add(CFA_XSP16, literal(-12)))
          CFI V1 load(1, XDATA, add(CFA_XSP16, literal(-11)))
          CFI V2 load(1, XDATA, add(CFA_XSP16, literal(-10)))
          CFI V3 load(1, XDATA, add(CFA_XSP16, literal(-9)))
          CFI V4 load(1, XDATA, add(CFA_XSP16, literal(-8)))
          CFI V5 load(1, XDATA, add(CFA_XSP16, literal(-7)))
          CFI R7 load(1, XDATA, add(CFA_XSP16, literal(-6)))
          CFI ?RET_LOW load(1, XDATA, add(CFA_XSP16, literal(-5)))
          CFI ?RET_HIGH load(1, XDATA, add(CFA_XSP16, literal(-4)))
          CFI ?BRET_EXT load(1, XDATA, add(CFA_XSP16, literal(-3)))
          CFI DPL0 load(1, XDATA, add(CFA_XSP16, literal(-2)))
          CFI DPH0 load(1, XDATA, add(CFA_XSP16, literal(-1)))
          CFI CFA_SP SP+-1
          CFI CFA_XSP16 add(XSP16, 14)
          CFI Block cfiCond32 Using cfiCommon0
          CFI (cfiCond32) Function MT_BuildEndpointDesc
          CFI (cfiCond32) Conditional ??CrossCallReturnLabel_17
          CFI (cfiCond32) R6 load(1, XDATA, add(CFA_XSP16, literal(-14)))
          CFI (cfiCond32) VB load(1, XDATA, add(CFA_XSP16, literal(-13)))
          CFI (cfiCond32) V0 load(1, XDATA, add(CFA_XSP16, literal(-12)))
          CFI (cfiCond32) V1 load(1, XDATA, add(CFA_XSP16, literal(-11)))
          CFI (cfiCond32) V2 load(1, XDATA, add(CFA_XSP16, literal(-10)))
          CFI (cfiCond32) V3 load(1, XDATA, add(CFA_XSP16, literal(-9)))
          CFI (cfiCond32) V4 load(1, XDATA, add(CFA_XSP16, literal(-8)))
          CFI (cfiCond32) V5 load(1, XDATA, add(CFA_XSP16, literal(-7)))
          CFI (cfiCond32) R7 load(1, XDATA, add(CFA_XSP16, literal(-6)))
          CFI (cfiCond32) ?RET_LOW load(1, XDATA, add(CFA_XSP16, literal(-5)))
          CFI (cfiCond32) ?RET_HIGH load(1, XDATA, add(CFA_XSP16, literal(-4)))
          CFI (cfiCond32) ?BRET_EXT load(1, XDATA, add(CFA_XSP16, literal(-3)))
          CFI (cfiCond32) DPL0 load(1, XDATA, add(CFA_XSP16, literal(-2)))
          CFI (cfiCond32) DPH0 load(1, XDATA, add(CFA_XSP16, literal(-1)))
          CFI (cfiCond32) CFA_SP SP+0
          CFI (cfiCond32) CFA_XSP16 add(XSP16, 14)
          CFI Block cfiPicker33 Using cfiCommon1
          CFI (cfiPicker33) NoFunction
          CFI (cfiPicker33) Picker
        LCALL   ?Subroutine15 & 0xFFFF
??CrossCallReturnLabel_28:
        ADD     A,#0x6
        LCALL   ?Subroutine18 & 0xFFFF
??CrossCallReturnLabel_40:
        RET
          CFI EndBlock cfiCond31
          CFI EndBlock cfiCond32
          CFI EndBlock cfiPicker33

        RSEG BANKED_CODE:CODE:NOROOT(0)
?Subroutine18:
          CFI Block cfiCond34 Using cfiCommon0
          CFI Function MT_BuildEndpointDesc
          CFI Conditional ??CrossCallReturnLabel_38
          CFI R6 load(1, XDATA, add(CFA_XSP16, literal(-14)))
          CFI VB load(1, XDATA, add(CFA_XSP16, literal(-13)))
          CFI V0 load(1, XDATA, add(CFA_XSP16, literal(-12)))
          CFI V1 load(1, XDATA, add(CFA_XSP16, literal(-11)))
          CFI V2 load(1, XDATA, add(CFA_XSP16, literal(-10)))
          CFI V3 load(1, XDATA, add(CFA_XSP16, literal(-9)))
          CFI V4 load(1, XDATA, add(CFA_XSP16, literal(-8)))
          CFI V5 load(1, XDATA, add(CFA_XSP16, literal(-7)))
          CFI R7 load(1, XDATA, add(CFA_XSP16, literal(-6)))
          CFI ?RET_LOW load(1, XDATA, add(CFA_XSP16, literal(-5)))
          CFI ?RET_HIGH load(1, XDATA, add(CFA_XSP16, literal(-4)))
          CFI ?BRET_EXT load(1, XDATA, add(CFA_XSP16, literal(-3)))
          CFI DPL0 load(1, XDATA, add(CFA_XSP16, literal(-2)))
          CFI DPH0 load(1, XDATA, add(CFA_XSP16, literal(-1)))
          CFI CFA_SP SP+0
          CFI CFA_XSP16 add(XSP16, 14)
          CFI Block cfiCond35 Using cfiCommon0
          CFI (cfiCond35) Function MT_BuildEndpointDesc
          CFI (cfiCond35) Conditional ??CrossCallReturnLabel_42, ??CrossCallReturnLabel_35
          CFI (cfiCond35) R6 load(1, XDATA, add(CFA_XSP16, literal(-14)))
          CFI (cfiCond35) VB load(1, XDATA, add(CFA_XSP16, literal(-13)))
          CFI (cfiCond35) V0 load(1, XDATA, add(CFA_XSP16, literal(-12)))
          CFI (cfiCond35) V1 load(1, XDATA, add(CFA_XSP16, literal(-11)))
          CFI (cfiCond35) V2 load(1, XDATA, add(CFA_XSP16, literal(-10)))
          CFI (cfiCond35) V3 load(1, XDATA, add(CFA_XSP16, literal(-9)))
          CFI (cfiCond35) V4 load(1, XDATA, add(CFA_XSP16, literal(-8)))
          CFI (cfiCond35) V5 load(1, XDATA, add(CFA_XSP16, literal(-7)))
          CFI (cfiCond35) R7 load(1, XDATA, add(CFA_XSP16, literal(-6)))
          CFI (cfiCond35) ?RET_LOW load(1, XDATA, add(CFA_XSP16, literal(-5)))
          CFI (cfiCond35) ?RET_HIGH load(1, XDATA, add(CFA_XSP16, literal(-4)))
          CFI (cfiCond35) ?BRET_EXT load(1, XDATA, add(CFA_XSP16, literal(-3)))
          CFI (cfiCond35) DPL0 load(1, XDATA, add(CFA_XSP16, literal(-2)))
          CFI (cfiCond35) DPH0 load(1, XDATA, add(CFA_XSP16, literal(-1)))
          CFI (cfiCond35) CFA_SP SP+0
          CFI (cfiCond35) CFA_XSP16 add(XSP16, 14)
          CFI Block cfiCond36 Using cfiCommon0
          CFI (cfiCond36) Function MT_BuildEndpointDesc
          CFI (cfiCond36) Conditional ??CrossCallReturnLabel_42, ??CrossCallReturnLabel_36
          CFI (cfiCond36) R6 load(1, XDATA, add(CFA_XSP16, literal(-14)))
          CFI (cfiCond36) VB load(1, XDATA, add(CFA_XSP16, literal(-13)))
          CFI (cfiCond36) V0 load(1, XDATA, add(CFA_XSP16, literal(-12)))
          CFI (cfiCond36) V1 load(1, XDATA, add(CFA_XSP16, literal(-11)))
          CFI (cfiCond36) V2 load(1, XDATA, add(CFA_XSP16, literal(-10)))
          CFI (cfiCond36) V3 load(1, XDATA, add(CFA_XSP16, literal(-9)))
          CFI (cfiCond36) V4 load(1, XDATA, add(CFA_XSP16, literal(-8)))
          CFI (cfiCond36) V5 load(1, XDATA, add(CFA_XSP16, literal(-7)))
          CFI (cfiCond36) R7 load(1, XDATA, add(CFA_XSP16, literal(-6)))
          CFI (cfiCond36) ?RET_LOW load(1, XDATA, add(CFA_XSP16, literal(-5)))
          CFI (cfiCond36) ?RET_HIGH load(1, XDATA, add(CFA_XSP16, literal(-4)))
          CFI (cfiCond36) ?BRET_EXT load(1, XDATA, add(CFA_XSP16, literal(-3)))
          CFI (cfiCond36) DPL0 load(1, XDATA, add(CFA_XSP16, literal(-2)))
          CFI (cfiCond36) DPH0 load(1, XDATA, add(CFA_XSP16, literal(-1)))
          CFI (cfiCond36) CFA_SP SP+0
          CFI (cfiCond36) CFA_XSP16 add(XSP16, 14)
          CFI Block cfiCond37 Using cfiCommon0
          CFI (cfiCond37) Function MT_BuildEndpointDesc
          CFI (cfiCond37) Conditional ??CrossCallReturnLabel_41, ??CrossCallReturnLabel_18
          CFI (cfiCond37) R6 load(1, XDATA, add(CFA_XSP16, literal(-14)))
          CFI (cfiCond37) VB load(1, XDATA, add(CFA_XSP16, literal(-13)))
          CFI (cfiCond37) V0 load(1, XDATA, add(CFA_XSP16, literal(-12)))
          CFI (cfiCond37) V1 load(1, XDATA, add(CFA_XSP16, literal(-11)))
          CFI (cfiCond37) V2 load(1, XDATA, add(CFA_XSP16, literal(-10)))
          CFI (cfiCond37) V3 load(1, XDATA, add(CFA_XSP16, literal(-9)))
          CFI (cfiCond37) V4 load(1, XDATA, add(CFA_XSP16, literal(-8)))
          CFI (cfiCond37) V5 load(1, XDATA, add(CFA_XSP16, literal(-7)))
          CFI (cfiCond37) R7 load(1, XDATA, add(CFA_XSP16, literal(-6)))
          CFI (cfiCond37) ?RET_LOW load(1, XDATA, add(CFA_XSP16, literal(-5)))
          CFI (cfiCond37) ?RET_HIGH load(1, XDATA, add(CFA_XSP16, literal(-4)))
          CFI (cfiCond37) ?BRET_EXT load(1, XDATA, add(CFA_XSP16, literal(-3)))
          CFI (cfiCond37) DPL0 load(1, XDATA, add(CFA_XSP16, literal(-2)))
          CFI (cfiCond37) DPH0 load(1, XDATA, add(CFA_XSP16, literal(-1)))
          CFI (cfiCond37) CFA_SP SP+-1
          CFI (cfiCond37) CFA_XSP16 add(XSP16, 14)
          CFI Block cfiCond38 Using cfiCommon0
          CFI (cfiCond38) Function MT_BuildEndpointDesc
          CFI (cfiCond38) Conditional ??CrossCallReturnLabel_41, ??CrossCallReturnLabel_19
          CFI (cfiCond38) R6 load(1, XDATA, add(CFA_XSP16, literal(-14)))
          CFI (cfiCond38) VB load(1, XDATA, add(CFA_XSP16, literal(-13)))
          CFI (cfiCond38) V0 load(1, XDATA, add(CFA_XSP16, literal(-12)))
          CFI (cfiCond38) V1 load(1, XDATA, add(CFA_XSP16, literal(-11)))
          CFI (cfiCond38) V2 load(1, XDATA, add(CFA_XSP16, literal(-10)))
          CFI (cfiCond38) V3 load(1, XDATA, add(CFA_XSP16, literal(-9)))
          CFI (cfiCond38) V4 load(1, XDATA, add(CFA_XSP16, literal(-8)))
          CFI (cfiCond38) V5 load(1, XDATA, add(CFA_XSP16, literal(-7)))
          CFI (cfiCond38) R7 load(1, XDATA, add(CFA_XSP16, literal(-6)))
          CFI (cfiCond38) ?RET_LOW load(1, XDATA, add(CFA_XSP16, literal(-5)))
          CFI (cfiCond38) ?RET_HIGH load(1, XDATA, add(CFA_XSP16, literal(-4)))
          CFI (cfiCond38) ?BRET_EXT load(1, XDATA, add(CFA_XSP16, literal(-3)))
          CFI (cfiCond38) DPL0 load(1, XDATA, add(CFA_XSP16, literal(-2)))
          CFI (cfiCond38) DPH0 load(1, XDATA, add(CFA_XSP16, literal(-1)))
          CFI (cfiCond38) CFA_SP SP+0
          CFI (cfiCond38) CFA_XSP16 add(XSP16, 14)
          CFI Block cfiCond39 Using cfiCommon0
          CFI (cfiCond39) Function MT_BuildEndpointDesc
          CFI (cfiCond39) Conditional ??CrossCallReturnLabel_40, ??CrossCallReturnLabel_16
          CFI (cfiCond39) R6 load(1, XDATA, add(CFA_XSP16, literal(-14)))
          CFI (cfiCond39) VB load(1, XDATA, add(CFA_XSP16, literal(-13)))
          CFI (cfiCond39) V0 load(1, XDATA, add(CFA_XSP16, literal(-12)))
          CFI (cfiCond39) V1 load(1, XDATA, add(CFA_XSP16, literal(-11)))
          CFI (cfiCond39) V2 load(1, XDATA, add(CFA_XSP16, literal(-10)))
          CFI (cfiCond39) V3 load(1, XDATA, add(CFA_XSP16, literal(-9)))
          CFI (cfiCond39) V4 load(1, XDATA, add(CFA_XSP16, literal(-8)))
          CFI (cfiCond39) V5 load(1, XDATA, add(CFA_XSP16, literal(-7)))
          CFI (cfiCond39) R7 load(1, XDATA, add(CFA_XSP16, literal(-6)))
          CFI (cfiCond39) ?RET_LOW load(1, XDATA, add(CFA_XSP16, literal(-5)))
          CFI (cfiCond39) ?RET_HIGH load(1, XDATA, add(CFA_XSP16, literal(-4)))
          CFI (cfiCond39) ?BRET_EXT load(1, XDATA, add(CFA_XSP16, literal(-3)))
          CFI (cfiCond39) DPL0 load(1, XDATA, add(CFA_XSP16, literal(-2)))
          CFI (cfiCond39) DPH0 load(1, XDATA, add(CFA_XSP16, literal(-1)))
          CFI (cfiCond39) CFA_SP SP+-1
          CFI (cfiCond39) CFA_XSP16 add(XSP16, 14)
          CFI Block cfiCond40 Using cfiCommon0
          CFI (cfiCond40) Function MT_BuildEndpointDesc
          CFI (cfiCond40) Conditional ??CrossCallReturnLabel_40, ??CrossCallReturnLabel_17
          CFI (cfiCond40) R6 load(1, XDATA, add(CFA_XSP16, literal(-14)))
          CFI (cfiCond40) VB load(1, XDATA, add(CFA_XSP16, literal(-13)))
          CFI (cfiCond40) V0 load(1, XDATA, add(CFA_XSP16, literal(-12)))
          CFI (cfiCond40) V1 load(1, XDATA, add(CFA_XSP16, literal(-11)))
          CFI (cfiCond40) V2 load(1, XDATA, add(CFA_XSP16, literal(-10)))
          CFI (cfiCond40) V3 load(1, XDATA, add(CFA_XSP16, literal(-9)))
          CFI (cfiCond40) V4 load(1, XDATA, add(CFA_XSP16, literal(-8)))
          CFI (cfiCond40) V5 load(1, XDATA, add(CFA_XSP16, literal(-7)))
          CFI (cfiCond40) R7 load(1, XDATA, add(CFA_XSP16, literal(-6)))
          CFI (cfiCond40) ?RET_LOW load(1, XDATA, add(CFA_XSP16, literal(-5)))
          CFI (cfiCond40) ?RET_HIGH load(1, XDATA, add(CFA_XSP16, literal(-4)))
          CFI (cfiCond40) ?BRET_EXT load(1, XDATA, add(CFA_XSP16, literal(-3)))
          CFI (cfiCond40) DPL0 load(1, XDATA, add(CFA_XSP16, literal(-2)))
          CFI (cfiCond40) DPH0 load(1, XDATA, add(CFA_XSP16, literal(-1)))
          CFI (cfiCond40) CFA_SP SP+0
          CFI (cfiCond40) CFA_XSP16 add(XSP16, 14)
          CFI Block cfiCond41 Using cfiCommon0
          CFI (cfiCond41) Function MT_BuildEndpointDesc
          CFI (cfiCond41) Conditional ??CrossCallReturnLabel_39, ??CrossCallReturnLabel_2
          CFI (cfiCond41) R6 load(1, XDATA, add(CFA_XSP16, literal(-14)))
          CFI (cfiCond41) VB load(1, XDATA, add(CFA_XSP16, literal(-13)))
          CFI (cfiCond41) V0 load(1, XDATA, add(CFA_XSP16, literal(-12)))
          CFI (cfiCond41) V1 load(1, XDATA, add(CFA_XSP16, literal(-11)))
          CFI (cfiCond41) V2 load(1, XDATA, add(CFA_XSP16, literal(-10)))
          CFI (cfiCond41) V3 load(1, XDATA, add(CFA_XSP16, literal(-9)))
          CFI (cfiCond41) V4 load(1, XDATA, add(CFA_XSP16, literal(-8)))
          CFI (cfiCond41) V5 load(1, XDATA, add(CFA_XSP16, literal(-7)))
          CFI (cfiCond41) R7 load(1, XDATA, add(CFA_XSP16, literal(-6)))
          CFI (cfiCond41) ?RET_LOW load(1, XDATA, add(CFA_XSP16, literal(-5)))
          CFI (cfiCond41) ?RET_HIGH load(1, XDATA, add(CFA_XSP16, literal(-4)))
          CFI (cfiCond41) ?BRET_EXT load(1, XDATA, add(CFA_XSP16, literal(-3)))
          CFI (cfiCond41) DPL0 load(1, XDATA, add(CFA_XSP16, literal(-2)))
          CFI (cfiCond41) DPH0 load(1, XDATA, add(CFA_XSP16, literal(-1)))
          CFI (cfiCond41) CFA_SP SP+0
          CFI (cfiCond41) CFA_XSP16 add(XSP16, 14)
          CFI Block cfiCond42 Using cfiCommon0
          CFI (cfiCond42) Function MT_BuildEndpointDesc
          CFI (cfiCond42) Conditional ??CrossCallReturnLabel_39, ??CrossCallReturnLabel_3
          CFI (cfiCond42) R6 load(1, XDATA, add(CFA_XSP16, literal(-14)))
          CFI (cfiCond42) VB load(1, XDATA, add(CFA_XSP16, literal(-13)))
          CFI (cfiCond42) V0 load(1, XDATA, add(CFA_XSP16, literal(-12)))
          CFI (cfiCond42) V1 load(1, XDATA, add(CFA_XSP16, literal(-11)))
          CFI (cfiCond42) V2 load(1, XDATA, add(CFA_XSP16, literal(-10)))
          CFI (cfiCond42) V3 load(1, XDATA, add(CFA_XSP16, literal(-9)))
          CFI (cfiCond42) V4 load(1, XDATA, add(CFA_XSP16, literal(-8)))
          CFI (cfiCond42) V5 load(1, XDATA, add(CFA_XSP16, literal(-7)))
          CFI (cfiCond42) R7 load(1, XDATA, add(CFA_XSP16, literal(-6)))
          CFI (cfiCond42) ?RET_LOW load(1, XDATA, add(CFA_XSP16, literal(-5)))
          CFI (cfiCond42) ?RET_HIGH load(1, XDATA, add(CFA_XSP16, literal(-4)))
          CFI (cfiCond42) ?BRET_EXT load(1, XDATA, add(CFA_XSP16, literal(-3)))
          CFI (cfiCond42) DPL0 load(1, XDATA, add(CFA_XSP16, literal(-2)))
          CFI (cfiCond42) DPH0 load(1, XDATA, add(CFA_XSP16, literal(-1)))
          CFI (cfiCond42) CFA_SP SP+0
          CFI (cfiCond42) CFA_XSP16 add(XSP16, 14)
          CFI Block cfiPicker43 Using cfiCommon1
          CFI (cfiPicker43) NoFunction
          CFI (cfiPicker43) Picker
        MOV     DPL,A
        MOV     A,R0
          CFI EndBlock cfiCond34
          CFI EndBlock cfiCond35
          CFI EndBlock cfiCond36
          CFI EndBlock cfiCond37
          CFI EndBlock cfiCond38
          CFI EndBlock cfiCond39
          CFI EndBlock cfiCond40
          CFI EndBlock cfiCond41
          CFI EndBlock cfiCond42
          CFI EndBlock cfiPicker43
        REQUIRE ??Subroutine20_0
        ; // Fall through to label ??Subroutine20_0

        RSEG BANKED_CODE:CODE:NOROOT(0)
??Subroutine20_0:
          CFI Block cfiCond44 Using cfiCommon0
          CFI Function MT_ProcessIncoming
          CFI Conditional ??CrossCallReturnLabel_37
          CFI R6 load(1, XDATA, add(CFA_XSP16, literal(-10)))
          CFI VB load(1, XDATA, add(CFA_XSP16, literal(-9)))
          CFI V0 load(1, XDATA, add(CFA_XSP16, literal(-8)))
          CFI V1 load(1, XDATA, add(CFA_XSP16, literal(-7)))
          CFI R7 load(1, XDATA, add(CFA_XSP16, literal(-6)))
          CFI ?RET_LOW load(1, XDATA, add(CFA_XSP16, literal(-5)))
          CFI ?RET_HIGH load(1, XDATA, add(CFA_XSP16, literal(-4)))
          CFI ?BRET_EXT load(1, XDATA, add(CFA_XSP16, literal(-3)))
          CFI DPL0 load(1, XDATA, add(CFA_XSP16, literal(-2)))
          CFI DPH0 load(1, XDATA, add(CFA_XSP16, literal(-1)))
          CFI CFA_SP SP+0
          CFI CFA_XSP16 add(XSP16, 13)
          CFI Block cfiCond45 Using cfiCommon0
          CFI (cfiCond45) Function MT_BuildEndpointDesc
          CFI (cfiCond45) Conditional ??CrossCallReturnLabel_38
          CFI (cfiCond45) R6 load(1, XDATA, add(CFA_XSP16, literal(-14)))
          CFI (cfiCond45) VB load(1, XDATA, add(CFA_XSP16, literal(-13)))
          CFI (cfiCond45) V0 load(1, XDATA, add(CFA_XSP16, literal(-12)))
          CFI (cfiCond45) V1 load(1, XDATA, add(CFA_XSP16, literal(-11)))
          CFI (cfiCond45) V2 load(1, XDATA, add(CFA_XSP16, literal(-10)))
          CFI (cfiCond45) V3 load(1, XDATA, add(CFA_XSP16, literal(-9)))
          CFI (cfiCond45) V4 load(1, XDATA, add(CFA_XSP16, literal(-8)))
          CFI (cfiCond45) V5 load(1, XDATA, add(CFA_XSP16, literal(-7)))
          CFI (cfiCond45) R7 load(1, XDATA, add(CFA_XSP16, literal(-6)))
          CFI (cfiCond45) ?RET_LOW load(1, XDATA, add(CFA_XSP16, literal(-5)))
          CFI (cfiCond45) ?RET_HIGH load(1, XDATA, add(CFA_XSP16, literal(-4)))
          CFI (cfiCond45) ?BRET_EXT load(1, XDATA, add(CFA_XSP16, literal(-3)))
          CFI (cfiCond45) DPL0 load(1, XDATA, add(CFA_XSP16, literal(-2)))
          CFI (cfiCond45) DPH0 load(1, XDATA, add(CFA_XSP16, literal(-1)))
          CFI (cfiCond45) CFA_SP SP+0
          CFI (cfiCond45) CFA_XSP16 add(XSP16, 14)
          CFI Block cfiCond46 Using cfiCommon0
          CFI (cfiCond46) Function MT_BuildEndpointDesc
          CFI (cfiCond46) Conditional ??CrossCallReturnLabel_42, ??CrossCallReturnLabel_35
          CFI (cfiCond46) R6 load(1, XDATA, add(CFA_XSP16, literal(-14)))
          CFI (cfiCond46) VB load(1, XDATA, add(CFA_XSP16, literal(-13)))
          CFI (cfiCond46) V0 load(1, XDATA, add(CFA_XSP16, literal(-12)))
          CFI (cfiCond46) V1 load(1, XDATA, add(CFA_XSP16, literal(-11)))
          CFI (cfiCond46) V2 load(1, XDATA, add(CFA_XSP16, literal(-10)))
          CFI (cfiCond46) V3 load(1, XDATA, add(CFA_XSP16, literal(-9)))
          CFI (cfiCond46) V4 load(1, XDATA, add(CFA_XSP16, literal(-8)))
          CFI (cfiCond46) V5 load(1, XDATA, add(CFA_XSP16, literal(-7)))
          CFI (cfiCond46) R7 load(1, XDATA, add(CFA_XSP16, literal(-6)))
          CFI (cfiCond46) ?RET_LOW load(1, XDATA, add(CFA_XSP16, literal(-5)))
          CFI (cfiCond46) ?RET_HIGH load(1, XDATA, add(CFA_XSP16, literal(-4)))
          CFI (cfiCond46) ?BRET_EXT load(1, XDATA, add(CFA_XSP16, literal(-3)))
          CFI (cfiCond46) DPL0 load(1, XDATA, add(CFA_XSP16, literal(-2)))
          CFI (cfiCond46) DPH0 load(1, XDATA, add(CFA_XSP16, literal(-1)))
          CFI (cfiCond46) CFA_SP SP+0
          CFI (cfiCond46) CFA_XSP16 add(XSP16, 14)
          CFI Block cfiCond47 Using cfiCommon0
          CFI (cfiCond47) Function MT_BuildEndpointDesc
          CFI (cfiCond47) Conditional ??CrossCallReturnLabel_42, ??CrossCallReturnLabel_36
          CFI (cfiCond47) R6 load(1, XDATA, add(CFA_XSP16, literal(-14)))
          CFI (cfiCond47) VB load(1, XDATA, add(CFA_XSP16, literal(-13)))
          CFI (cfiCond47) V0 load(1, XDATA, add(CFA_XSP16, literal(-12)))
          CFI (cfiCond47) V1 load(1, XDATA, add(CFA_XSP16, literal(-11)))
          CFI (cfiCond47) V2 load(1, XDATA, add(CFA_XSP16, literal(-10)))
          CFI (cfiCond47) V3 load(1, XDATA, add(CFA_XSP16, literal(-9)))
          CFI (cfiCond47) V4 load(1, XDATA, add(CFA_XSP16, literal(-8)))
          CFI (cfiCond47) V5 load(1, XDATA, add(CFA_XSP16, literal(-7)))
          CFI (cfiCond47) R7 load(1, XDATA, add(CFA_XSP16, literal(-6)))
          CFI (cfiCond47) ?RET_LOW load(1, XDATA, add(CFA_XSP16, literal(-5)))
          CFI (cfiCond47) ?RET_HIGH load(1, XDATA, add(CFA_XSP16, literal(-4)))
          CFI (cfiCond47) ?BRET_EXT load(1, XDATA, add(CFA_XSP16, literal(-3)))
          CFI (cfiCond47) DPL0 load(1, XDATA, add(CFA_XSP16, literal(-2)))
          CFI (cfiCond47) DPH0 load(1, XDATA, add(CFA_XSP16, literal(-1)))
          CFI (cfiCond47) CFA_SP SP+0
          CFI (cfiCond47) CFA_XSP16 add(XSP16, 14)
          CFI Block cfiCond48 Using cfiCommon0
          CFI (cfiCond48) Function MT_BuildEndpointDesc
          CFI (cfiCond48) Conditional ??CrossCallReturnLabel_41, ??CrossCallReturnLabel_18
          CFI (cfiCond48) R6 load(1, XDATA, add(CFA_XSP16, literal(-14)))
          CFI (cfiCond48) VB load(1, XDATA, add(CFA_XSP16, literal(-13)))
          CFI (cfiCond48) V0 load(1, XDATA, add(CFA_XSP16, literal(-12)))
          CFI (cfiCond48) V1 load(1, XDATA, add(CFA_XSP16, literal(-11)))
          CFI (cfiCond48) V2 load(1, XDATA, add(CFA_XSP16, literal(-10)))
          CFI (cfiCond48) V3 load(1, XDATA, add(CFA_XSP16, literal(-9)))
          CFI (cfiCond48) V4 load(1, XDATA, add(CFA_XSP16, literal(-8)))
          CFI (cfiCond48) V5 load(1, XDATA, add(CFA_XSP16, literal(-7)))
          CFI (cfiCond48) R7 load(1, XDATA, add(CFA_XSP16, literal(-6)))
          CFI (cfiCond48) ?RET_LOW load(1, XDATA, add(CFA_XSP16, literal(-5)))
          CFI (cfiCond48) ?RET_HIGH load(1, XDATA, add(CFA_XSP16, literal(-4)))
          CFI (cfiCond48) ?BRET_EXT load(1, XDATA, add(CFA_XSP16, literal(-3)))
          CFI (cfiCond48) DPL0 load(1, XDATA, add(CFA_XSP16, literal(-2)))
          CFI (cfiCond48) DPH0 load(1, XDATA, add(CFA_XSP16, literal(-1)))
          CFI (cfiCond48) CFA_SP SP+-1
          CFI (cfiCond48) CFA_XSP16 add(XSP16, 14)
          CFI Block cfiCond49 Using cfiCommon0
          CFI (cfiCond49) Function MT_BuildEndpointDesc
          CFI (cfiCond49) Conditional ??CrossCallReturnLabel_41, ??CrossCallReturnLabel_19
          CFI (cfiCond49) R6 load(1, XDATA, add(CFA_XSP16, literal(-14)))
          CFI (cfiCond49) VB load(1, XDATA, add(CFA_XSP16, literal(-13)))
          CFI (cfiCond49) V0 load(1, XDATA, add(CFA_XSP16, literal(-12)))
          CFI (cfiCond49) V1 load(1, XDATA, add(CFA_XSP16, literal(-11)))
          CFI (cfiCond49) V2 load(1, XDATA, add(CFA_XSP16, literal(-10)))
          CFI (cfiCond49) V3 load(1, XDATA, add(CFA_XSP16, literal(-9)))
          CFI (cfiCond49) V4 load(1, XDATA, add(CFA_XSP16, literal(-8)))
          CFI (cfiCond49) V5 load(1, XDATA, add(CFA_XSP16, literal(-7)))
          CFI (cfiCond49) R7 load(1, XDATA, add(CFA_XSP16, literal(-6)))
          CFI (cfiCond49) ?RET_LOW load(1, XDATA, add(CFA_XSP16, literal(-5)))
          CFI (cfiCond49) ?RET_HIGH load(1, XDATA, add(CFA_XSP16, literal(-4)))
          CFI (cfiCond49) ?BRET_EXT load(1, XDATA, add(CFA_XSP16, literal(-3)))
          CFI (cfiCond49) DPL0 load(1, XDATA, add(CFA_XSP16, literal(-2)))
          CFI (cfiCond49) DPH0 load(1, XDATA, add(CFA_XSP16, literal(-1)))
          CFI (cfiCond49) CFA_SP SP+0
          CFI (cfiCond49) CFA_XSP16 add(XSP16, 14)
          CFI Block cfiCond50 Using cfiCommon0
          CFI (cfiCond50) Function MT_BuildEndpointDesc
          CFI (cfiCond50) Conditional ??CrossCallReturnLabel_40, ??CrossCallReturnLabel_16
          CFI (cfiCond50) R6 load(1, XDATA, add(CFA_XSP16, literal(-14)))
          CFI (cfiCond50) VB load(1, XDATA, add(CFA_XSP16, literal(-13)))
          CFI (cfiCond50) V0 load(1, XDATA, add(CFA_XSP16, literal(-12)))
          CFI (cfiCond50) V1 load(1, XDATA, add(CFA_XSP16, literal(-11)))
          CFI (cfiCond50) V2 load(1, XDATA, add(CFA_XSP16, literal(-10)))
          CFI (cfiCond50) V3 load(1, XDATA, add(CFA_XSP16, literal(-9)))
          CFI (cfiCond50) V4 load(1, XDATA, add(CFA_XSP16, literal(-8)))
          CFI (cfiCond50) V5 load(1, XDATA, add(CFA_XSP16, literal(-7)))
          CFI (cfiCond50) R7 load(1, XDATA, add(CFA_XSP16, literal(-6)))
          CFI (cfiCond50) ?RET_LOW load(1, XDATA, add(CFA_XSP16, literal(-5)))
          CFI (cfiCond50) ?RET_HIGH load(1, XDATA, add(CFA_XSP16, literal(-4)))
          CFI (cfiCond50) ?BRET_EXT load(1, XDATA, add(CFA_XSP16, literal(-3)))
          CFI (cfiCond50) DPL0 load(1, XDATA, add(CFA_XSP16, literal(-2)))
          CFI (cfiCond50) DPH0 load(1, XDATA, add(CFA_XSP16, literal(-1)))
          CFI (cfiCond50) CFA_SP SP+-1
          CFI (cfiCond50) CFA_XSP16 add(XSP16, 14)
          CFI Block cfiCond51 Using cfiCommon0
          CFI (cfiCond51) Function MT_BuildEndpointDesc
          CFI (cfiCond51) Conditional ??CrossCallReturnLabel_40, ??CrossCallReturnLabel_17
          CFI (cfiCond51) R6 load(1, XDATA, add(CFA_XSP16, literal(-14)))
          CFI (cfiCond51) VB load(1, XDATA, add(CFA_XSP16, literal(-13)))
          CFI (cfiCond51) V0 load(1, XDATA, add(CFA_XSP16, literal(-12)))
          CFI (cfiCond51) V1 load(1, XDATA, add(CFA_XSP16, literal(-11)))
          CFI (cfiCond51) V2 load(1, XDATA, add(CFA_XSP16, literal(-10)))
          CFI (cfiCond51) V3 load(1, XDATA, add(CFA_XSP16, literal(-9)))
          CFI (cfiCond51) V4 load(1, XDATA, add(CFA_XSP16, literal(-8)))
          CFI (cfiCond51) V5 load(1, XDATA, add(CFA_XSP16, literal(-7)))
          CFI (cfiCond51) R7 load(1, XDATA, add(CFA_XSP16, literal(-6)))
          CFI (cfiCond51) ?RET_LOW load(1, XDATA, add(CFA_XSP16, literal(-5)))
          CFI (cfiCond51) ?RET_HIGH load(1, XDATA, add(CFA_XSP16, literal(-4)))
          CFI (cfiCond51) ?BRET_EXT load(1, XDATA, add(CFA_XSP16, literal(-3)))
          CFI (cfiCond51) DPL0 load(1, XDATA, add(CFA_XSP16, literal(-2)))
          CFI (cfiCond51) DPH0 load(1, XDATA, add(CFA_XSP16, literal(-1)))
          CFI (cfiCond51) CFA_SP SP+0
          CFI (cfiCond51) CFA_XSP16 add(XSP16, 14)
          CFI Block cfiCond52 Using cfiCommon0
          CFI (cfiCond52) Function MT_BuildEndpointDesc
          CFI (cfiCond52) Conditional ??CrossCallReturnLabel_39, ??CrossCallReturnLabel_2
          CFI (cfiCond52) R6 load(1, XDATA, add(CFA_XSP16, literal(-14)))
          CFI (cfiCond52) VB load(1, XDATA, add(CFA_XSP16, literal(-13)))
          CFI (cfiCond52) V0 load(1, XDATA, add(CFA_XSP16, literal(-12)))
          CFI (cfiCond52) V1 load(1, XDATA, add(CFA_XSP16, literal(-11)))
          CFI (cfiCond52) V2 load(1, XDATA, add(CFA_XSP16, literal(-10)))
          CFI (cfiCond52) V3 load(1, XDATA, add(CFA_XSP16, literal(-9)))
          CFI (cfiCond52) V4 load(1, XDATA, add(CFA_XSP16, literal(-8)))
          CFI (cfiCond52) V5 load(1, XDATA, add(CFA_XSP16, literal(-7)))
          CFI (cfiCond52) R7 load(1, XDATA, add(CFA_XSP16, literal(-6)))
          CFI (cfiCond52) ?RET_LOW load(1, XDATA, add(CFA_XSP16, literal(-5)))
          CFI (cfiCond52) ?RET_HIGH load(1, XDATA, add(CFA_XSP16, literal(-4)))
          CFI (cfiCond52) ?BRET_EXT load(1, XDATA, add(CFA_XSP16, literal(-3)))
          CFI (cfiCond52) DPL0 load(1, XDATA, add(CFA_XSP16, literal(-2)))
          CFI (cfiCond52) DPH0 load(1, XDATA, add(CFA_XSP16, literal(-1)))
          CFI (cfiCond52) CFA_SP SP+0
          CFI (cfiCond52) CFA_XSP16 add(XSP16, 14)
          CFI Block cfiCond53 Using cfiCommon0
          CFI (cfiCond53) Function MT_BuildEndpointDesc
          CFI (cfiCond53) Conditional ??CrossCallReturnLabel_39, ??CrossCallReturnLabel_3
          CFI (cfiCond53) R6 load(1, XDATA, add(CFA_XSP16, literal(-14)))
          CFI (cfiCond53) VB load(1, XDATA, add(CFA_XSP16, literal(-13)))
          CFI (cfiCond53) V0 load(1, XDATA, add(CFA_XSP16, literal(-12)))
          CFI (cfiCond53) V1 load(1, XDATA, add(CFA_XSP16, literal(-11)))
          CFI (cfiCond53) V2 load(1, XDATA, add(CFA_XSP16, literal(-10)))
          CFI (cfiCond53) V3 load(1, XDATA, add(CFA_XSP16, literal(-9)))
          CFI (cfiCond53) V4 load(1, XDATA, add(CFA_XSP16, literal(-8)))
          CFI (cfiCond53) V5 load(1, XDATA, add(CFA_XSP16, literal(-7)))
          CFI (cfiCond53) R7 load(1, XDATA, add(CFA_XSP16, literal(-6)))
          CFI (cfiCond53) ?RET_LOW load(1, XDATA, add(CFA_XSP16, literal(-5)))
          CFI (cfiCond53) ?RET_HIGH load(1, XDATA, add(CFA_XSP16, literal(-4)))
          CFI (cfiCond53) ?BRET_EXT load(1, XDATA, add(CFA_XSP16, literal(-3)))
          CFI (cfiCond53) DPL0 load(1, XDATA, add(CFA_XSP16, literal(-2)))
          CFI (cfiCond53) DPH0 load(1, XDATA, add(CFA_XSP16, literal(-1)))
          CFI (cfiCond53) CFA_SP SP+0
          CFI (cfiCond53) CFA_XSP16 add(XSP16, 14)
          CFI Block cfiPicker54 Using cfiCommon1
          CFI (cfiPicker54) NoFunction
          CFI (cfiPicker54) Picker
        ADDC    A,#0x0
        MOV     DPH,A
        RET
          CFI EndBlock cfiCond44
          CFI EndBlock cfiCond45
          CFI EndBlock cfiCond46
          CFI EndBlock cfiCond47
          CFI EndBlock cfiCond48
          CFI EndBlock cfiCond49
          CFI EndBlock cfiCond50
          CFI EndBlock cfiCond51
          CFI EndBlock cfiCond52
          CFI EndBlock cfiCond53
          CFI EndBlock cfiPicker54

        RSEG BANKED_CODE:CODE:NOROOT(0)
?Subroutine9:
          CFI Block cfiCond55 Using cfiCommon0
          CFI Function MT_BuildEndpointDesc
          CFI Conditional ??CrossCallReturnLabel_14
          CFI R6 load(1, XDATA, add(CFA_XSP16, literal(-14)))
          CFI VB load(1, XDATA, add(CFA_XSP16, literal(-13)))
          CFI V0 load(1, XDATA, add(CFA_XSP16, literal(-12)))
          CFI V1 load(1, XDATA, add(CFA_XSP16, literal(-11)))
          CFI V2 load(1, XDATA, add(CFA_XSP16, literal(-10)))
          CFI V3 load(1, XDATA, add(CFA_XSP16, literal(-9)))
          CFI V4 load(1, XDATA, add(CFA_XSP16, literal(-8)))
          CFI V5 load(1, XDATA, add(CFA_XSP16, literal(-7)))
          CFI R7 load(1, XDATA, add(CFA_XSP16, literal(-6)))
          CFI ?RET_LOW load(1, XDATA, add(CFA_XSP16, literal(-5)))
          CFI ?RET_HIGH load(1, XDATA, add(CFA_XSP16, literal(-4)))
          CFI ?BRET_EXT load(1, XDATA, add(CFA_XSP16, literal(-3)))
          CFI DPL0 load(1, XDATA, add(CFA_XSP16, literal(-2)))
          CFI DPH0 load(1, XDATA, add(CFA_XSP16, literal(-1)))
          CFI CFA_SP SP+0
          CFI CFA_XSP16 add(XSP16, 14)
          CFI Block cfiCond56 Using cfiCommon0
          CFI (cfiCond56) Function MT_BuildEndpointDesc
          CFI (cfiCond56) Conditional ??CrossCallReturnLabel_15
          CFI (cfiCond56) R6 load(1, XDATA, add(CFA_XSP16, literal(-14)))
          CFI (cfiCond56) VB load(1, XDATA, add(CFA_XSP16, literal(-13)))
          CFI (cfiCond56) V0 load(1, XDATA, add(CFA_XSP16, literal(-12)))
          CFI (cfiCond56) V1 load(1, XDATA, add(CFA_XSP16, literal(-11)))
          CFI (cfiCond56) V2 load(1, XDATA, add(CFA_XSP16, literal(-10)))
          CFI (cfiCond56) V3 load(1, XDATA, add(CFA_XSP16, literal(-9)))
          CFI (cfiCond56) V4 load(1, XDATA, add(CFA_XSP16, literal(-8)))
          CFI (cfiCond56) V5 load(1, XDATA, add(CFA_XSP16, literal(-7)))
          CFI (cfiCond56) R7 load(1, XDATA, add(CFA_XSP16, literal(-6)))
          CFI (cfiCond56) ?RET_LOW load(1, XDATA, add(CFA_XSP16, literal(-5)))
          CFI (cfiCond56) ?RET_HIGH load(1, XDATA, add(CFA_XSP16, literal(-4)))
          CFI (cfiCond56) ?BRET_EXT load(1, XDATA, add(CFA_XSP16, literal(-3)))
          CFI (cfiCond56) DPL0 load(1, XDATA, add(CFA_XSP16, literal(-2)))
          CFI (cfiCond56) DPH0 load(1, XDATA, add(CFA_XSP16, literal(-1)))
          CFI (cfiCond56) CFA_SP SP+0
          CFI (cfiCond56) CFA_XSP16 add(XSP16, 14)
          CFI Block cfiPicker57 Using cfiCommon1
          CFI (cfiPicker57) NoFunction
          CFI (cfiPicker57) Picker
        MOV     R2,A
        INC     DPTR
        MOVX    A,@DPTR
        MOV     R1,A
        MOV     A,R2
        MOV     R0,A
        MOV     DPL,?V0 + 0
        MOV     DPH,?V0 + 1
        MOVX    A,@DPTR
        MOV     R2,A
        INC     DPTR
        MOVX    A,@DPTR
        MOV     DPH,A
        MOV     DPL,R2
        RET
          CFI EndBlock cfiCond55
          CFI EndBlock cfiCond56
          CFI EndBlock cfiPicker57

        RSEG BANKED_CODE:CODE:NOROOT(0)
?Subroutine8:
          CFI Block cfiCond58 Using cfiCommon0
          CFI Function MT_BuildEndpointDesc
          CFI Conditional ??CrossCallReturnLabel_12
          CFI R6 load(1, XDATA, add(CFA_XSP16, literal(-14)))
          CFI VB load(1, XDATA, add(CFA_XSP16, literal(-13)))
          CFI V0 load(1, XDATA, add(CFA_XSP16, literal(-12)))
          CFI V1 load(1, XDATA, add(CFA_XSP16, literal(-11)))
          CFI V2 load(1, XDATA, add(CFA_XSP16, literal(-10)))
          CFI V3 load(1, XDATA, add(CFA_XSP16, literal(-9)))
          CFI V4 load(1, XDATA, add(CFA_XSP16, literal(-8)))
          CFI V5 load(1, XDATA, add(CFA_XSP16, literal(-7)))
          CFI R7 load(1, XDATA, add(CFA_XSP16, literal(-6)))
          CFI ?RET_LOW load(1, XDATA, add(CFA_XSP16, literal(-5)))
          CFI ?RET_HIGH load(1, XDATA, add(CFA_XSP16, literal(-4)))
          CFI ?BRET_EXT load(1, XDATA, add(CFA_XSP16, literal(-3)))
          CFI DPL0 load(1, XDATA, add(CFA_XSP16, literal(-2)))
          CFI DPH0 load(1, XDATA, add(CFA_XSP16, literal(-1)))
          CFI CFA_SP SP+0
          CFI CFA_XSP16 add(XSP16, 14)
          CFI Block cfiCond59 Using cfiCommon0
          CFI (cfiCond59) Function MT_BuildEndpointDesc
          CFI (cfiCond59) Conditional ??CrossCallReturnLabel_13
          CFI (cfiCond59) R6 load(1, XDATA, add(CFA_XSP16, literal(-14)))
          CFI (cfiCond59) VB load(1, XDATA, add(CFA_XSP16, literal(-13)))
          CFI (cfiCond59) V0 load(1, XDATA, add(CFA_XSP16, literal(-12)))
          CFI (cfiCond59) V1 load(1, XDATA, add(CFA_XSP16, literal(-11)))
          CFI (cfiCond59) V2 load(1, XDATA, add(CFA_XSP16, literal(-10)))
          CFI (cfiCond59) V3 load(1, XDATA, add(CFA_XSP16, literal(-9)))
          CFI (cfiCond59) V4 load(1, XDATA, add(CFA_XSP16, literal(-8)))
          CFI (cfiCond59) V5 load(1, XDATA, add(CFA_XSP16, literal(-7)))
          CFI (cfiCond59) R7 load(1, XDATA, add(CFA_XSP16, literal(-6)))
          CFI (cfiCond59) ?RET_LOW load(1, XDATA, add(CFA_XSP16, literal(-5)))
          CFI (cfiCond59) ?RET_HIGH load(1, XDATA, add(CFA_XSP16, literal(-4)))
          CFI (cfiCond59) ?BRET_EXT load(1, XDATA, add(CFA_XSP16, literal(-3)))
          CFI (cfiCond59) DPL0 load(1, XDATA, add(CFA_XSP16, literal(-2)))
          CFI (cfiCond59) DPH0 load(1, XDATA, add(CFA_XSP16, literal(-1)))
          CFI (cfiCond59) CFA_SP SP+0
          CFI (cfiCond59) CFA_XSP16 add(XSP16, 14)
          CFI Block cfiPicker60 Using cfiCommon1
          CFI (cfiPicker60) NoFunction
          CFI (cfiPicker60) Picker
        MOV     DPL,?V0 + 0
        MOV     DPH,?V0 + 1
        LCALL   ?Subroutine17 & 0xFFFF
??CrossCallReturnLabel_32:
        INC     DPTR
        INC     DPTR
        INC     DPTR
        INC     DPTR
        INC     DPTR
        INC     DPTR
        INC     DPTR
        INC     DPTR
        INC     DPTR
        MOVX    A,@DPTR
        RET
          CFI EndBlock cfiCond58
          CFI EndBlock cfiCond59
          CFI EndBlock cfiPicker60

        RSEG BANKED_CODE:CODE:NOROOT(0)
?Subroutine7:
          CFI Block cfiCond61 Using cfiCommon0
          CFI Function MT_BuildEndpointDesc
          CFI Conditional ??CrossCallReturnLabel_10
          CFI R6 load(1, XDATA, add(CFA_XSP16, literal(-14)))
          CFI VB load(1, XDATA, add(CFA_XSP16, literal(-13)))
          CFI V0 load(1, XDATA, add(CFA_XSP16, literal(-12)))
          CFI V1 load(1, XDATA, add(CFA_XSP16, literal(-11)))
          CFI V2 load(1, XDATA, add(CFA_XSP16, literal(-10)))
          CFI V3 load(1, XDATA, add(CFA_XSP16, literal(-9)))
          CFI V4 load(1, XDATA, add(CFA_XSP16, literal(-8)))
          CFI V5 load(1, XDATA, add(CFA_XSP16, literal(-7)))
          CFI R7 load(1, XDATA, add(CFA_XSP16, literal(-6)))
          CFI ?RET_LOW load(1, XDATA, add(CFA_XSP16, literal(-5)))
          CFI ?RET_HIGH load(1, XDATA, add(CFA_XSP16, literal(-4)))
          CFI ?BRET_EXT load(1, XDATA, add(CFA_XSP16, literal(-3)))
          CFI DPL0 load(1, XDATA, add(CFA_XSP16, literal(-2)))
          CFI DPH0 load(1, XDATA, add(CFA_XSP16, literal(-1)))
          CFI CFA_SP SP+0
          CFI CFA_XSP16 add(XSP16, 14)
          CFI Block cfiCond62 Using cfiCommon0
          CFI (cfiCond62) Function MT_BuildEndpointDesc
          CFI (cfiCond62) Conditional ??CrossCallReturnLabel_11
          CFI (cfiCond62) R6 load(1, XDATA, add(CFA_XSP16, literal(-14)))
          CFI (cfiCond62) VB load(1, XDATA, add(CFA_XSP16, literal(-13)))
          CFI (cfiCond62) V0 load(1, XDATA, add(CFA_XSP16, literal(-12)))
          CFI (cfiCond62) V1 load(1, XDATA, add(CFA_XSP16, literal(-11)))
          CFI (cfiCond62) V2 load(1, XDATA, add(CFA_XSP16, literal(-10)))
          CFI (cfiCond62) V3 load(1, XDATA, add(CFA_XSP16, literal(-9)))
          CFI (cfiCond62) V4 load(1, XDATA, add(CFA_XSP16, literal(-8)))
          CFI (cfiCond62) V5 load(1, XDATA, add(CFA_XSP16, literal(-7)))
          CFI (cfiCond62) R7 load(1, XDATA, add(CFA_XSP16, literal(-6)))
          CFI (cfiCond62) ?RET_LOW load(1, XDATA, add(CFA_XSP16, literal(-5)))
          CFI (cfiCond62) ?RET_HIGH load(1, XDATA, add(CFA_XSP16, literal(-4)))
          CFI (cfiCond62) ?BRET_EXT load(1, XDATA, add(CFA_XSP16, literal(-3)))
          CFI (cfiCond62) DPL0 load(1, XDATA, add(CFA_XSP16, literal(-2)))
          CFI (cfiCond62) DPH0 load(1, XDATA, add(CFA_XSP16, literal(-1)))
          CFI (cfiCond62) CFA_SP SP+0
          CFI (cfiCond62) CFA_XSP16 add(XSP16, 14)
          CFI Block cfiPicker63 Using cfiCommon1
          CFI (cfiPicker63) NoFunction
          CFI (cfiPicker63) Picker
        MOV     DPL,R6
        MOV     DPH,R7
        MOVX    A,@DPTR
        MOV     ?V0 + 4,A
        INC     DPTR
        MOVX    A,@DPTR
        MOV     R3,A
        MOV     A,?V0 + 4
        ADD     A,#0x0
        CLR     A
        ADDC    A,R3
        MOV     ?V0 + 5,A
        MOV     A,R4
        RLC     A
        MOV     R2,A
        CLR     A
        RLC     A
        MOV     R3,A
        MOV     DPL,R0
        MOV     DPH,R1
        RET
          CFI EndBlock cfiCond61
          CFI EndBlock cfiCond62
          CFI EndBlock cfiPicker63

        RSEG BANKED_CODE:CODE:NOROOT(0)
?Subroutine6:
          CFI Block cfiCond64 Using cfiCommon0
          CFI Function MT_BuildEndpointDesc
          CFI Conditional ??CrossCallReturnLabel_8
          CFI R6 load(1, XDATA, add(CFA_XSP16, literal(-14)))
          CFI VB load(1, XDATA, add(CFA_XSP16, literal(-13)))
          CFI V0 load(1, XDATA, add(CFA_XSP16, literal(-12)))
          CFI V1 load(1, XDATA, add(CFA_XSP16, literal(-11)))
          CFI V2 load(1, XDATA, add(CFA_XSP16, literal(-10)))
          CFI V3 load(1, XDATA, add(CFA_XSP16, literal(-9)))
          CFI V4 load(1, XDATA, add(CFA_XSP16, literal(-8)))
          CFI V5 load(1, XDATA, add(CFA_XSP16, literal(-7)))
          CFI R7 load(1, XDATA, add(CFA_XSP16, literal(-6)))
          CFI ?RET_LOW load(1, XDATA, add(CFA_XSP16, literal(-5)))
          CFI ?RET_HIGH load(1, XDATA, add(CFA_XSP16, literal(-4)))
          CFI ?BRET_EXT load(1, XDATA, add(CFA_XSP16, literal(-3)))
          CFI DPL0 load(1, XDATA, add(CFA_XSP16, literal(-2)))
          CFI DPH0 load(1, XDATA, add(CFA_XSP16, literal(-1)))
          CFI CFA_SP SP+0
          CFI CFA_XSP16 add(XSP16, 14)
          CFI Block cfiCond65 Using cfiCommon0
          CFI (cfiCond65) Function MT_BuildEndpointDesc
          CFI (cfiCond65) Conditional ??CrossCallReturnLabel_9
          CFI (cfiCond65) R6 load(1, XDATA, add(CFA_XSP16, literal(-14)))
          CFI (cfiCond65) VB load(1, XDATA, add(CFA_XSP16, literal(-13)))
          CFI (cfiCond65) V0 load(1, XDATA, add(CFA_XSP16, literal(-12)))
          CFI (cfiCond65) V1 load(1, XDATA, add(CFA_XSP16, literal(-11)))
          CFI (cfiCond65) V2 load(1, XDATA, add(CFA_XSP16, literal(-10)))
          CFI (cfiCond65) V3 load(1, XDATA, add(CFA_XSP16, literal(-9)))
          CFI (cfiCond65) V4 load(1, XDATA, add(CFA_XSP16, literal(-8)))
          CFI (cfiCond65) V5 load(1, XDATA, add(CFA_XSP16, literal(-7)))
          CFI (cfiCond65) R7 load(1, XDATA, add(CFA_XSP16, literal(-6)))
          CFI (cfiCond65) ?RET_LOW load(1, XDATA, add(CFA_XSP16, literal(-5)))
          CFI (cfiCond65) ?RET_HIGH load(1, XDATA, add(CFA_XSP16, literal(-4)))
          CFI (cfiCond65) ?BRET_EXT load(1, XDATA, add(CFA_XSP16, literal(-3)))
          CFI (cfiCond65) DPL0 load(1, XDATA, add(CFA_XSP16, literal(-2)))
          CFI (cfiCond65) DPH0 load(1, XDATA, add(CFA_XSP16, literal(-1)))
          CFI (cfiCond65) CFA_SP SP+0
          CFI (cfiCond65) CFA_XSP16 add(XSP16, 14)
          CFI Block cfiPicker66 Using cfiCommon1
          CFI (cfiPicker66) NoFunction
          CFI (cfiPicker66) Picker
        MOVX    @DPTR,A
        MOV     DPL,R6
        MOV     DPH,R7
        INC     DPTR
        INC     R6
        MOV     R7,DPH
        RET
          CFI EndBlock cfiCond64
          CFI EndBlock cfiCond65
          CFI EndBlock cfiPicker66

        RSEG BANKED_CODE:CODE:NOROOT(0)
?Subroutine5:
          CFI Block cfiCond67 Using cfiCommon0
          CFI Function MT_BuildEndpointDesc
          CFI Conditional ??CrossCallReturnLabel_6
          CFI R6 load(1, XDATA, add(CFA_XSP16, literal(-14)))
          CFI VB load(1, XDATA, add(CFA_XSP16, literal(-13)))
          CFI V0 load(1, XDATA, add(CFA_XSP16, literal(-12)))
          CFI V1 load(1, XDATA, add(CFA_XSP16, literal(-11)))
          CFI V2 load(1, XDATA, add(CFA_XSP16, literal(-10)))
          CFI V3 load(1, XDATA, add(CFA_XSP16, literal(-9)))
          CFI V4 load(1, XDATA, add(CFA_XSP16, literal(-8)))
          CFI V5 load(1, XDATA, add(CFA_XSP16, literal(-7)))
          CFI R7 load(1, XDATA, add(CFA_XSP16, literal(-6)))
          CFI ?RET_LOW load(1, XDATA, add(CFA_XSP16, literal(-5)))
          CFI ?RET_HIGH load(1, XDATA, add(CFA_XSP16, literal(-4)))
          CFI ?BRET_EXT load(1, XDATA, add(CFA_XSP16, literal(-3)))
          CFI DPL0 load(1, XDATA, add(CFA_XSP16, literal(-2)))
          CFI DPH0 load(1, XDATA, add(CFA_XSP16, literal(-1)))
          CFI CFA_SP SP+0
          CFI CFA_XSP16 add(XSP16, 14)
          CFI Block cfiCond68 Using cfiCommon0
          CFI (cfiCond68) Function MT_BuildEndpointDesc
          CFI (cfiCond68) Conditional ??CrossCallReturnLabel_7
          CFI (cfiCond68) R6 load(1, XDATA, add(CFA_XSP16, literal(-14)))
          CFI (cfiCond68) VB load(1, XDATA, add(CFA_XSP16, literal(-13)))
          CFI (cfiCond68) V0 load(1, XDATA, add(CFA_XSP16, literal(-12)))
          CFI (cfiCond68) V1 load(1, XDATA, add(CFA_XSP16, literal(-11)))
          CFI (cfiCond68) V2 load(1, XDATA, add(CFA_XSP16, literal(-10)))
          CFI (cfiCond68) V3 load(1, XDATA, add(CFA_XSP16, literal(-9)))
          CFI (cfiCond68) V4 load(1, XDATA, add(CFA_XSP16, literal(-8)))
          CFI (cfiCond68) V5 load(1, XDATA, add(CFA_XSP16, literal(-7)))
          CFI (cfiCond68) R7 load(1, XDATA, add(CFA_XSP16, literal(-6)))
          CFI (cfiCond68) ?RET_LOW load(1, XDATA, add(CFA_XSP16, literal(-5)))
          CFI (cfiCond68) ?RET_HIGH load(1, XDATA, add(CFA_XSP16, literal(-4)))
          CFI (cfiCond68) ?BRET_EXT load(1, XDATA, add(CFA_XSP16, literal(-3)))
          CFI (cfiCond68) DPL0 load(1, XDATA, add(CFA_XSP16, literal(-2)))
          CFI (cfiCond68) DPH0 load(1, XDATA, add(CFA_XSP16, literal(-1)))
          CFI (cfiCond68) CFA_SP SP+0
          CFI (cfiCond68) CFA_XSP16 add(XSP16, 14)
          CFI Block cfiPicker69 Using cfiCommon1
          CFI (cfiPicker69) NoFunction
          CFI (cfiPicker69) Picker
        MOVX    @DPTR,A
        MOV     DPL,R6
        MOV     DPH,R7
        INC     DPTR
        MOV     R6,DPL
        MOV     R7,DPH
        RET
          CFI EndBlock cfiCond67
          CFI EndBlock cfiCond68
          CFI EndBlock cfiPicker69

        RSEG BANKED_CODE:CODE:NOROOT(0)
?Subroutine4:
          CFI Block cfiCond70 Using cfiCommon0
          CFI Function MT_BuildEndpointDesc
          CFI Conditional ??CrossCallReturnLabel_4
          CFI R6 load(1, XDATA, add(CFA_XSP16, literal(-14)))
          CFI VB load(1, XDATA, add(CFA_XSP16, literal(-13)))
          CFI V0 load(1, XDATA, add(CFA_XSP16, literal(-12)))
          CFI V1 load(1, XDATA, add(CFA_XSP16, literal(-11)))
          CFI V2 load(1, XDATA, add(CFA_XSP16, literal(-10)))
          CFI V3 load(1, XDATA, add(CFA_XSP16, literal(-9)))
          CFI V4 load(1, XDATA, add(CFA_XSP16, literal(-8)))
          CFI V5 load(1, XDATA, add(CFA_XSP16, literal(-7)))
          CFI R7 load(1, XDATA, add(CFA_XSP16, literal(-6)))
          CFI ?RET_LOW load(1, XDATA, add(CFA_XSP16, literal(-5)))
          CFI ?RET_HIGH load(1, XDATA, add(CFA_XSP16, literal(-4)))
          CFI ?BRET_EXT load(1, XDATA, add(CFA_XSP16, literal(-3)))
          CFI DPL0 load(1, XDATA, add(CFA_XSP16, literal(-2)))
          CFI DPH0 load(1, XDATA, add(CFA_XSP16, literal(-1)))
          CFI CFA_SP SP+0
          CFI CFA_XSP16 add(XSP16, 14)
          CFI Block cfiCond71 Using cfiCommon0
          CFI (cfiCond71) Function MT_BuildEndpointDesc
          CFI (cfiCond71) Conditional ??CrossCallReturnLabel_5
          CFI (cfiCond71) R6 load(1, XDATA, add(CFA_XSP16, literal(-14)))
          CFI (cfiCond71) VB load(1, XDATA, add(CFA_XSP16, literal(-13)))
          CFI (cfiCond71) V0 load(1, XDATA, add(CFA_XSP16, literal(-12)))
          CFI (cfiCond71) V1 load(1, XDATA, add(CFA_XSP16, literal(-11)))
          CFI (cfiCond71) V2 load(1, XDATA, add(CFA_XSP16, literal(-10)))
          CFI (cfiCond71) V3 load(1, XDATA, add(CFA_XSP16, literal(-9)))
          CFI (cfiCond71) V4 load(1, XDATA, add(CFA_XSP16, literal(-8)))
          CFI (cfiCond71) V5 load(1, XDATA, add(CFA_XSP16, literal(-7)))
          CFI (cfiCond71) R7 load(1, XDATA, add(CFA_XSP16, literal(-6)))
          CFI (cfiCond71) ?RET_LOW load(1, XDATA, add(CFA_XSP16, literal(-5)))
          CFI (cfiCond71) ?RET_HIGH load(1, XDATA, add(CFA_XSP16, literal(-4)))
          CFI (cfiCond71) ?BRET_EXT load(1, XDATA, add(CFA_XSP16, literal(-3)))
          CFI (cfiCond71) DPL0 load(1, XDATA, add(CFA_XSP16, literal(-2)))
          CFI (cfiCond71) DPH0 load(1, XDATA, add(CFA_XSP16, literal(-1)))
          CFI (cfiCond71) CFA_SP SP+0
          CFI (cfiCond71) CFA_XSP16 add(XSP16, 14)
          CFI Block cfiPicker72 Using cfiCommon1
          CFI (cfiPicker72) NoFunction
          CFI (cfiPicker72) Picker
        INC     DPTR
        INC     DPTR
        INC     DPTR
        INC     DPTR
        INC     DPTR
        INC     DPTR
        INC     DPTR
        MOVX    A,@DPTR
        ADD     A,R2
        MOV     R0,A
        INC     DPTR
        MOVX    A,@DPTR
        ADDC    A,R3
        MOV     DPL,R0
        MOV     DPH,A
        MOV     A,?V0 + 4
        MOVX    @DPTR,A
        INC     DPTR
        MOV     A,?V0 + 5
        LCALL   ?Subroutine16 & 0xFFFF
??CrossCallReturnLabel_30:
        INC     R4
        RET
          CFI EndBlock cfiCond70
          CFI EndBlock cfiCond71
          CFI EndBlock cfiPicker72

        RSEG BANKED_CODE:CODE:NOROOT(0)
?Subroutine3:
          CFI Block cfiCond73 Using cfiCommon0
          CFI Function MT_BuildEndpointDesc
          CFI Conditional ??CrossCallReturnLabel_2
          CFI R6 load(1, XDATA, add(CFA_XSP16, literal(-14)))
          CFI VB load(1, XDATA, add(CFA_XSP16, literal(-13)))
          CFI V0 load(1, XDATA, add(CFA_XSP16, literal(-12)))
          CFI V1 load(1, XDATA, add(CFA_XSP16, literal(-11)))
          CFI V2 load(1, XDATA, add(CFA_XSP16, literal(-10)))
          CFI V3 load(1, XDATA, add(CFA_XSP16, literal(-9)))
          CFI V4 load(1, XDATA, add(CFA_XSP16, literal(-8)))
          CFI V5 load(1, XDATA, add(CFA_XSP16, literal(-7)))
          CFI R7 load(1, XDATA, add(CFA_XSP16, literal(-6)))
          CFI ?RET_LOW load(1, XDATA, add(CFA_XSP16, literal(-5)))
          CFI ?RET_HIGH load(1, XDATA, add(CFA_XSP16, literal(-4)))
          CFI ?BRET_EXT load(1, XDATA, add(CFA_XSP16, literal(-3)))
          CFI DPL0 load(1, XDATA, add(CFA_XSP16, literal(-2)))
          CFI DPH0 load(1, XDATA, add(CFA_XSP16, literal(-1)))
          CFI CFA_SP SP+0
          CFI CFA_XSP16 add(XSP16, 14)
          CFI Block cfiCond74 Using cfiCommon0
          CFI (cfiCond74) Function MT_BuildEndpointDesc
          CFI (cfiCond74) Conditional ??CrossCallReturnLabel_3
          CFI (cfiCond74) R6 load(1, XDATA, add(CFA_XSP16, literal(-14)))
          CFI (cfiCond74) VB load(1, XDATA, add(CFA_XSP16, literal(-13)))
          CFI (cfiCond74) V0 load(1, XDATA, add(CFA_XSP16, literal(-12)))
          CFI (cfiCond74) V1 load(1, XDATA, add(CFA_XSP16, literal(-11)))
          CFI (cfiCond74) V2 load(1, XDATA, add(CFA_XSP16, literal(-10)))
          CFI (cfiCond74) V3 load(1, XDATA, add(CFA_XSP16, literal(-9)))
          CFI (cfiCond74) V4 load(1, XDATA, add(CFA_XSP16, literal(-8)))
          CFI (cfiCond74) V5 load(1, XDATA, add(CFA_XSP16, literal(-7)))
          CFI (cfiCond74) R7 load(1, XDATA, add(CFA_XSP16, literal(-6)))
          CFI (cfiCond74) ?RET_LOW load(1, XDATA, add(CFA_XSP16, literal(-5)))
          CFI (cfiCond74) ?RET_HIGH load(1, XDATA, add(CFA_XSP16, literal(-4)))
          CFI (cfiCond74) ?BRET_EXT load(1, XDATA, add(CFA_XSP16, literal(-3)))
          CFI (cfiCond74) DPL0 load(1, XDATA, add(CFA_XSP16, literal(-2)))
          CFI (cfiCond74) DPH0 load(1, XDATA, add(CFA_XSP16, literal(-1)))
          CFI (cfiCond74) CFA_SP SP+0
          CFI (cfiCond74) CFA_XSP16 add(XSP16, 14)
          CFI Block cfiPicker75 Using cfiCommon1
          CFI (cfiPicker75) NoFunction
          CFI (cfiPicker75) Picker
        LCALL   ?Subroutine18 & 0xFFFF
??CrossCallReturnLabel_39:
        MOV     A,R2
        MOVX    @DPTR,A
        INC     DPTR
        MOV     A,R3
        MOVX    @DPTR,A
        LCALL   ?Subroutine15 & 0xFFFF
??CrossCallReturnLabel_27:
        RET
          CFI EndBlock cfiCond73
          CFI EndBlock cfiCond74
          CFI EndBlock cfiPicker75

        RSEG BANKED_CODE:CODE:NOROOT(0)
?Subroutine15:
          CFI Block cfiCond76 Using cfiCommon0
          CFI Function MT_BuildEndpointDesc
          CFI Conditional ??CrossCallReturnLabel_24
          CFI R6 load(1, XDATA, add(CFA_XSP16, literal(-14)))
          CFI VB load(1, XDATA, add(CFA_XSP16, literal(-13)))
          CFI V0 load(1, XDATA, add(CFA_XSP16, literal(-12)))
          CFI V1 load(1, XDATA, add(CFA_XSP16, literal(-11)))
          CFI V2 load(1, XDATA, add(CFA_XSP16, literal(-10)))
          CFI V3 load(1, XDATA, add(CFA_XSP16, literal(-9)))
          CFI V4 load(1, XDATA, add(CFA_XSP16, literal(-8)))
          CFI V5 load(1, XDATA, add(CFA_XSP16, literal(-7)))
          CFI R7 load(1, XDATA, add(CFA_XSP16, literal(-6)))
          CFI ?RET_LOW load(1, XDATA, add(CFA_XSP16, literal(-5)))
          CFI ?RET_HIGH load(1, XDATA, add(CFA_XSP16, literal(-4)))
          CFI ?BRET_EXT load(1, XDATA, add(CFA_XSP16, literal(-3)))
          CFI DPL0 load(1, XDATA, add(CFA_XSP16, literal(-2)))
          CFI DPH0 load(1, XDATA, add(CFA_XSP16, literal(-1)))
          CFI CFA_SP SP+0
          CFI CFA_XSP16 add(XSP16, 14)
          CFI Block cfiCond77 Using cfiCommon0
          CFI (cfiCond77) Function MT_BuildEndpointDesc
          CFI (cfiCond77) Conditional ??CrossCallReturnLabel_25
          CFI (cfiCond77) R6 load(1, XDATA, add(CFA_XSP16, literal(-14)))
          CFI (cfiCond77) VB load(1, XDATA, add(CFA_XSP16, literal(-13)))
          CFI (cfiCond77) V0 load(1, XDATA, add(CFA_XSP16, literal(-12)))
          CFI (cfiCond77) V1 load(1, XDATA, add(CFA_XSP16, literal(-11)))
          CFI (cfiCond77) V2 load(1, XDATA, add(CFA_XSP16, literal(-10)))
          CFI (cfiCond77) V3 load(1, XDATA, add(CFA_XSP16, literal(-9)))
          CFI (cfiCond77) V4 load(1, XDATA, add(CFA_XSP16, literal(-8)))
          CFI (cfiCond77) V5 load(1, XDATA, add(CFA_XSP16, literal(-7)))
          CFI (cfiCond77) R7 load(1, XDATA, add(CFA_XSP16, literal(-6)))
          CFI (cfiCond77) ?RET_LOW load(1, XDATA, add(CFA_XSP16, literal(-5)))
          CFI (cfiCond77) ?RET_HIGH load(1, XDATA, add(CFA_XSP16, literal(-4)))
          CFI (cfiCond77) ?BRET_EXT load(1, XDATA, add(CFA_XSP16, literal(-3)))
          CFI (cfiCond77) DPL0 load(1, XDATA, add(CFA_XSP16, literal(-2)))
          CFI (cfiCond77) DPH0 load(1, XDATA, add(CFA_XSP16, literal(-1)))
          CFI (cfiCond77) CFA_SP SP+0
          CFI (cfiCond77) CFA_XSP16 add(XSP16, 14)
          CFI Block cfiCond78 Using cfiCommon0
          CFI (cfiCond78) Function MT_BuildEndpointDesc
          CFI (cfiCond78) Conditional ??CrossCallReturnLabel_26
          CFI (cfiCond78) R6 load(1, XDATA, add(CFA_XSP16, literal(-14)))
          CFI (cfiCond78) VB load(1, XDATA, add(CFA_XSP16, literal(-13)))
          CFI (cfiCond78) V0 load(1, XDATA, add(CFA_XSP16, literal(-12)))
          CFI (cfiCond78) V1 load(1, XDATA, add(CFA_XSP16, literal(-11)))
          CFI (cfiCond78) V2 load(1, XDATA, add(CFA_XSP16, literal(-10)))
          CFI (cfiCond78) V3 load(1, XDATA, add(CFA_XSP16, literal(-9)))
          CFI (cfiCond78) V4 load(1, XDATA, add(CFA_XSP16, literal(-8)))
          CFI (cfiCond78) V5 load(1, XDATA, add(CFA_XSP16, literal(-7)))
          CFI (cfiCond78) R7 load(1, XDATA, add(CFA_XSP16, literal(-6)))
          CFI (cfiCond78) ?RET_LOW load(1, XDATA, add(CFA_XSP16, literal(-5)))
          CFI (cfiCond78) ?RET_HIGH load(1, XDATA, add(CFA_XSP16, literal(-4)))
          CFI (cfiCond78) ?BRET_EXT load(1, XDATA, add(CFA_XSP16, literal(-3)))
          CFI (cfiCond78) DPL0 load(1, XDATA, add(CFA_XSP16, literal(-2)))
          CFI (cfiCond78) DPH0 load(1, XDATA, add(CFA_XSP16, literal(-1)))
          CFI (cfiCond78) CFA_SP SP+0
          CFI (cfiCond78) CFA_XSP16 add(XSP16, 14)
          CFI Block cfiCond79 Using cfiCommon0
          CFI (cfiCond79) Function MT_BuildEndpointDesc
          CFI (cfiCond79) Conditional ??CrossCallReturnLabel_29, ??CrossCallReturnLabel_18
          CFI (cfiCond79) R6 load(1, XDATA, add(CFA_XSP16, literal(-14)))
          CFI (cfiCond79) VB load(1, XDATA, add(CFA_XSP16, literal(-13)))
          CFI (cfiCond79) V0 load(1, XDATA, add(CFA_XSP16, literal(-12)))
          CFI (cfiCond79) V1 load(1, XDATA, add(CFA_XSP16, literal(-11)))
          CFI (cfiCond79) V2 load(1, XDATA, add(CFA_XSP16, literal(-10)))
          CFI (cfiCond79) V3 load(1, XDATA, add(CFA_XSP16, literal(-9)))
          CFI (cfiCond79) V4 load(1, XDATA, add(CFA_XSP16, literal(-8)))
          CFI (cfiCond79) V5 load(1, XDATA, add(CFA_XSP16, literal(-7)))
          CFI (cfiCond79) R7 load(1, XDATA, add(CFA_XSP16, literal(-6)))
          CFI (cfiCond79) ?RET_LOW load(1, XDATA, add(CFA_XSP16, literal(-5)))
          CFI (cfiCond79) ?RET_HIGH load(1, XDATA, add(CFA_XSP16, literal(-4)))
          CFI (cfiCond79) ?BRET_EXT load(1, XDATA, add(CFA_XSP16, literal(-3)))
          CFI (cfiCond79) DPL0 load(1, XDATA, add(CFA_XSP16, literal(-2)))
          CFI (cfiCond79) DPH0 load(1, XDATA, add(CFA_XSP16, literal(-1)))
          CFI (cfiCond79) CFA_SP SP+-1
          CFI (cfiCond79) CFA_XSP16 add(XSP16, 14)
          CFI Block cfiCond80 Using cfiCommon0
          CFI (cfiCond80) Function MT_BuildEndpointDesc
          CFI (cfiCond80) Conditional ??CrossCallReturnLabel_29, ??CrossCallReturnLabel_19
          CFI (cfiCond80) R6 load(1, XDATA, add(CFA_XSP16, literal(-14)))
          CFI (cfiCond80) VB load(1, XDATA, add(CFA_XSP16, literal(-13)))
          CFI (cfiCond80) V0 load(1, XDATA, add(CFA_XSP16, literal(-12)))
          CFI (cfiCond80) V1 load(1, XDATA, add(CFA_XSP16, literal(-11)))
          CFI (cfiCond80) V2 load(1, XDATA, add(CFA_XSP16, literal(-10)))
          CFI (cfiCond80) V3 load(1, XDATA, add(CFA_XSP16, literal(-9)))
          CFI (cfiCond80) V4 load(1, XDATA, add(CFA_XSP16, literal(-8)))
          CFI (cfiCond80) V5 load(1, XDATA, add(CFA_XSP16, literal(-7)))
          CFI (cfiCond80) R7 load(1, XDATA, add(CFA_XSP16, literal(-6)))
          CFI (cfiCond80) ?RET_LOW load(1, XDATA, add(CFA_XSP16, literal(-5)))
          CFI (cfiCond80) ?RET_HIGH load(1, XDATA, add(CFA_XSP16, literal(-4)))
          CFI (cfiCond80) ?BRET_EXT load(1, XDATA, add(CFA_XSP16, literal(-3)))
          CFI (cfiCond80) DPL0 load(1, XDATA, add(CFA_XSP16, literal(-2)))
          CFI (cfiCond80) DPH0 load(1, XDATA, add(CFA_XSP16, literal(-1)))
          CFI (cfiCond80) CFA_SP SP+0
          CFI (cfiCond80) CFA_XSP16 add(XSP16, 14)
          CFI Block cfiCond81 Using cfiCommon0
          CFI (cfiCond81) Function MT_BuildEndpointDesc
          CFI (cfiCond81) Conditional ??CrossCallReturnLabel_28, ??CrossCallReturnLabel_16
          CFI (cfiCond81) R6 load(1, XDATA, add(CFA_XSP16, literal(-14)))
          CFI (cfiCond81) VB load(1, XDATA, add(CFA_XSP16, literal(-13)))
          CFI (cfiCond81) V0 load(1, XDATA, add(CFA_XSP16, literal(-12)))
          CFI (cfiCond81) V1 load(1, XDATA, add(CFA_XSP16, literal(-11)))
          CFI (cfiCond81) V2 load(1, XDATA, add(CFA_XSP16, literal(-10)))
          CFI (cfiCond81) V3 load(1, XDATA, add(CFA_XSP16, literal(-9)))
          CFI (cfiCond81) V4 load(1, XDATA, add(CFA_XSP16, literal(-8)))
          CFI (cfiCond81) V5 load(1, XDATA, add(CFA_XSP16, literal(-7)))
          CFI (cfiCond81) R7 load(1, XDATA, add(CFA_XSP16, literal(-6)))
          CFI (cfiCond81) ?RET_LOW load(1, XDATA, add(CFA_XSP16, literal(-5)))
          CFI (cfiCond81) ?RET_HIGH load(1, XDATA, add(CFA_XSP16, literal(-4)))
          CFI (cfiCond81) ?BRET_EXT load(1, XDATA, add(CFA_XSP16, literal(-3)))
          CFI (cfiCond81) DPL0 load(1, XDATA, add(CFA_XSP16, literal(-2)))
          CFI (cfiCond81) DPH0 load(1, XDATA, add(CFA_XSP16, literal(-1)))
          CFI (cfiCond81) CFA_SP SP+-1
          CFI (cfiCond81) CFA_XSP16 add(XSP16, 14)
          CFI Block cfiCond82 Using cfiCommon0
          CFI (cfiCond82) Function MT_BuildEndpointDesc
          CFI (cfiCond82) Conditional ??CrossCallReturnLabel_28, ??CrossCallReturnLabel_17
          CFI (cfiCond82) R6 load(1, XDATA, add(CFA_XSP16, literal(-14)))
          CFI (cfiCond82) VB load(1, XDATA, add(CFA_XSP16, literal(-13)))
          CFI (cfiCond82) V0 load(1, XDATA, add(CFA_XSP16, literal(-12)))
          CFI (cfiCond82) V1 load(1, XDATA, add(CFA_XSP16, literal(-11)))
          CFI (cfiCond82) V2 load(1, XDATA, add(CFA_XSP16, literal(-10)))
          CFI (cfiCond82) V3 load(1, XDATA, add(CFA_XSP16, literal(-9)))
          CFI (cfiCond82) V4 load(1, XDATA, add(CFA_XSP16, literal(-8)))
          CFI (cfiCond82) V5 load(1, XDATA, add(CFA_XSP16, literal(-7)))
          CFI (cfiCond82) R7 load(1, XDATA, add(CFA_XSP16, literal(-6)))
          CFI (cfiCond82) ?RET_LOW load(1, XDATA, add(CFA_XSP16, literal(-5)))
          CFI (cfiCond82) ?RET_HIGH load(1, XDATA, add(CFA_XSP16, literal(-4)))
          CFI (cfiCond82) ?BRET_EXT load(1, XDATA, add(CFA_XSP16, literal(-3)))
          CFI (cfiCond82) DPL0 load(1, XDATA, add(CFA_XSP16, literal(-2)))
          CFI (cfiCond82) DPH0 load(1, XDATA, add(CFA_XSP16, literal(-1)))
          CFI (cfiCond82) CFA_SP SP+0
          CFI (cfiCond82) CFA_XSP16 add(XSP16, 14)
          CFI Block cfiCond83 Using cfiCommon0
          CFI (cfiCond83) Function MT_BuildEndpointDesc
          CFI (cfiCond83) Conditional ??CrossCallReturnLabel_27, ??CrossCallReturnLabel_2
          CFI (cfiCond83) R6 load(1, XDATA, add(CFA_XSP16, literal(-14)))
          CFI (cfiCond83) VB load(1, XDATA, add(CFA_XSP16, literal(-13)))
          CFI (cfiCond83) V0 load(1, XDATA, add(CFA_XSP16, literal(-12)))
          CFI (cfiCond83) V1 load(1, XDATA, add(CFA_XSP16, literal(-11)))
          CFI (cfiCond83) V2 load(1, XDATA, add(CFA_XSP16, literal(-10)))
          CFI (cfiCond83) V3 load(1, XDATA, add(CFA_XSP16, literal(-9)))
          CFI (cfiCond83) V4 load(1, XDATA, add(CFA_XSP16, literal(-8)))
          CFI (cfiCond83) V5 load(1, XDATA, add(CFA_XSP16, literal(-7)))
          CFI (cfiCond83) R7 load(1, XDATA, add(CFA_XSP16, literal(-6)))
          CFI (cfiCond83) ?RET_LOW load(1, XDATA, add(CFA_XSP16, literal(-5)))
          CFI (cfiCond83) ?RET_HIGH load(1, XDATA, add(CFA_XSP16, literal(-4)))
          CFI (cfiCond83) ?BRET_EXT load(1, XDATA, add(CFA_XSP16, literal(-3)))
          CFI (cfiCond83) DPL0 load(1, XDATA, add(CFA_XSP16, literal(-2)))
          CFI (cfiCond83) DPH0 load(1, XDATA, add(CFA_XSP16, literal(-1)))
          CFI (cfiCond83) CFA_SP SP+0
          CFI (cfiCond83) CFA_XSP16 add(XSP16, 14)
          CFI Block cfiCond84 Using cfiCommon0
          CFI (cfiCond84) Function MT_BuildEndpointDesc
          CFI (cfiCond84) Conditional ??CrossCallReturnLabel_27, ??CrossCallReturnLabel_3
          CFI (cfiCond84) R6 load(1, XDATA, add(CFA_XSP16, literal(-14)))
          CFI (cfiCond84) VB load(1, XDATA, add(CFA_XSP16, literal(-13)))
          CFI (cfiCond84) V0 load(1, XDATA, add(CFA_XSP16, literal(-12)))
          CFI (cfiCond84) V1 load(1, XDATA, add(CFA_XSP16, literal(-11)))
          CFI (cfiCond84) V2 load(1, XDATA, add(CFA_XSP16, literal(-10)))
          CFI (cfiCond84) V3 load(1, XDATA, add(CFA_XSP16, literal(-9)))
          CFI (cfiCond84) V4 load(1, XDATA, add(CFA_XSP16, literal(-8)))
          CFI (cfiCond84) V5 load(1, XDATA, add(CFA_XSP16, literal(-7)))
          CFI (cfiCond84) R7 load(1, XDATA, add(CFA_XSP16, literal(-6)))
          CFI (cfiCond84) ?RET_LOW load(1, XDATA, add(CFA_XSP16, literal(-5)))
          CFI (cfiCond84) ?RET_HIGH load(1, XDATA, add(CFA_XSP16, literal(-4)))
          CFI (cfiCond84) ?BRET_EXT load(1, XDATA, add(CFA_XSP16, literal(-3)))
          CFI (cfiCond84) DPL0 load(1, XDATA, add(CFA_XSP16, literal(-2)))
          CFI (cfiCond84) DPH0 load(1, XDATA, add(CFA_XSP16, literal(-1)))
          CFI (cfiCond84) CFA_SP SP+0
          CFI (cfiCond84) CFA_XSP16 add(XSP16, 14)
          CFI Block cfiPicker85 Using cfiCommon1
          CFI (cfiPicker85) NoFunction
          CFI (cfiPicker85) Picker
        MOV     DPL,?V0 + 0
        MOV     DPH,?V0 + 1
        MOVX    A,@DPTR
        MOV     R0,A
        INC     DPTR
        MOVX    A,@DPTR
        XCH     A,R0
        RET
          CFI EndBlock cfiCond76
          CFI EndBlock cfiCond77
          CFI EndBlock cfiCond78
          CFI EndBlock cfiCond79
          CFI EndBlock cfiCond80
          CFI EndBlock cfiCond81
          CFI EndBlock cfiCond82
          CFI EndBlock cfiCond83
          CFI EndBlock cfiCond84
          CFI EndBlock cfiPicker85

        RSEG BANKED_CODE:CODE:NOROOT(0)
?Subroutine2:
          CFI Block cfiCond86 Using cfiCommon0
          CFI Function MT_BuildEndpointDesc
          CFI Conditional ??CrossCallReturnLabel_0
          CFI R6 load(1, XDATA, add(CFA_XSP16, literal(-14)))
          CFI VB load(1, XDATA, add(CFA_XSP16, literal(-13)))
          CFI V0 load(1, XDATA, add(CFA_XSP16, literal(-12)))
          CFI V1 load(1, XDATA, add(CFA_XSP16, literal(-11)))
          CFI V2 load(1, XDATA, add(CFA_XSP16, literal(-10)))
          CFI V3 load(1, XDATA, add(CFA_XSP16, literal(-9)))
          CFI V4 load(1, XDATA, add(CFA_XSP16, literal(-8)))
          CFI V5 load(1, XDATA, add(CFA_XSP16, literal(-7)))
          CFI R7 load(1, XDATA, add(CFA_XSP16, literal(-6)))
          CFI ?RET_LOW load(1, XDATA, add(CFA_XSP16, literal(-5)))
          CFI ?RET_HIGH load(1, XDATA, add(CFA_XSP16, literal(-4)))
          CFI ?BRET_EXT load(1, XDATA, add(CFA_XSP16, literal(-3)))
          CFI DPL0 load(1, XDATA, add(CFA_XSP16, literal(-2)))
          CFI DPH0 load(1, XDATA, add(CFA_XSP16, literal(-1)))
          CFI CFA_SP SP+0
          CFI CFA_XSP16 add(XSP16, 14)
          CFI Block cfiCond87 Using cfiCommon0
          CFI (cfiCond87) Function MT_BuildEndpointDesc
          CFI (cfiCond87) Conditional ??CrossCallReturnLabel_1
          CFI (cfiCond87) R6 load(1, XDATA, add(CFA_XSP16, literal(-14)))
          CFI (cfiCond87) VB load(1, XDATA, add(CFA_XSP16, literal(-13)))
          CFI (cfiCond87) V0 load(1, XDATA, add(CFA_XSP16, literal(-12)))
          CFI (cfiCond87) V1 load(1, XDATA, add(CFA_XSP16, literal(-11)))
          CFI (cfiCond87) V2 load(1, XDATA, add(CFA_XSP16, literal(-10)))
          CFI (cfiCond87) V3 load(1, XDATA, add(CFA_XSP16, literal(-9)))
          CFI (cfiCond87) V4 load(1, XDATA, add(CFA_XSP16, literal(-8)))
          CFI (cfiCond87) V5 load(1, XDATA, add(CFA_XSP16, literal(-7)))
          CFI (cfiCond87) R7 load(1, XDATA, add(CFA_XSP16, literal(-6)))
          CFI (cfiCond87) ?RET_LOW load(1, XDATA, add(CFA_XSP16, literal(-5)))
          CFI (cfiCond87) ?RET_HIGH load(1, XDATA, add(CFA_XSP16, literal(-4)))
          CFI (cfiCond87) ?BRET_EXT load(1, XDATA, add(CFA_XSP16, literal(-3)))
          CFI (cfiCond87) DPL0 load(1, XDATA, add(CFA_XSP16, literal(-2)))
          CFI (cfiCond87) DPH0 load(1, XDATA, add(CFA_XSP16, literal(-1)))
          CFI (cfiCond87) CFA_SP SP+0
          CFI (cfiCond87) CFA_XSP16 add(XSP16, 14)
          CFI Block cfiPicker88 Using cfiCommon1
          CFI (cfiPicker88) NoFunction
          CFI (cfiPicker88) Picker
        INC     DPTR
        MOV     A,R0
        MOVX    @DPTR,A
        INC     DPTR
        MOV     A,R1
        LCALL   ?Subroutine16 & 0xFFFF
??CrossCallReturnLabel_31:
        MOV     DPL,R6
        MOV     DPH,R7
        MOVX    A,@DPTR
        RET
          CFI EndBlock cfiCond86
          CFI EndBlock cfiCond87
          CFI EndBlock cfiPicker88

        RSEG BANKED_CODE:CODE:NOROOT(0)
?Subroutine16:
          CFI Block cfiCond89 Using cfiCommon0
          CFI Function MT_BuildEndpointDesc
          CFI Conditional ??CrossCallReturnLabel_30, ??CrossCallReturnLabel_4
          CFI R6 load(1, XDATA, add(CFA_XSP16, literal(-14)))
          CFI VB load(1, XDATA, add(CFA_XSP16, literal(-13)))
          CFI V0 load(1, XDATA, add(CFA_XSP16, literal(-12)))
          CFI V1 load(1, XDATA, add(CFA_XSP16, literal(-11)))
          CFI V2 load(1, XDATA, add(CFA_XSP16, literal(-10)))
          CFI V3 load(1, XDATA, add(CFA_XSP16, literal(-9)))
          CFI V4 load(1, XDATA, add(CFA_XSP16, literal(-8)))
          CFI V5 load(1, XDATA, add(CFA_XSP16, literal(-7)))
          CFI R7 load(1, XDATA, add(CFA_XSP16, literal(-6)))
          CFI ?RET_LOW load(1, XDATA, add(CFA_XSP16, literal(-5)))
          CFI ?RET_HIGH load(1, XDATA, add(CFA_XSP16, literal(-4)))
          CFI ?BRET_EXT load(1, XDATA, add(CFA_XSP16, literal(-3)))
          CFI DPL0 load(1, XDATA, add(CFA_XSP16, literal(-2)))
          CFI DPH0 load(1, XDATA, add(CFA_XSP16, literal(-1)))
          CFI CFA_SP SP+0
          CFI CFA_XSP16 add(XSP16, 14)
          CFI Block cfiCond90 Using cfiCommon0
          CFI (cfiCond90) Function MT_BuildEndpointDesc
          CFI (cfiCond90) Conditional ??CrossCallReturnLabel_30, ??CrossCallReturnLabel_5
          CFI (cfiCond90) R6 load(1, XDATA, add(CFA_XSP16, literal(-14)))
          CFI (cfiCond90) VB load(1, XDATA, add(CFA_XSP16, literal(-13)))
          CFI (cfiCond90) V0 load(1, XDATA, add(CFA_XSP16, literal(-12)))
          CFI (cfiCond90) V1 load(1, XDATA, add(CFA_XSP16, literal(-11)))
          CFI (cfiCond90) V2 load(1, XDATA, add(CFA_XSP16, literal(-10)))
          CFI (cfiCond90) V3 load(1, XDATA, add(CFA_XSP16, literal(-9)))
          CFI (cfiCond90) V4 load(1, XDATA, add(CFA_XSP16, literal(-8)))
          CFI (cfiCond90) V5 load(1, XDATA, add(CFA_XSP16, literal(-7)))
          CFI (cfiCond90) R7 load(1, XDATA, add(CFA_XSP16, literal(-6)))
          CFI (cfiCond90) ?RET_LOW load(1, XDATA, add(CFA_XSP16, literal(-5)))
          CFI (cfiCond90) ?RET_HIGH load(1, XDATA, add(CFA_XSP16, literal(-4)))
          CFI (cfiCond90) ?BRET_EXT load(1, XDATA, add(CFA_XSP16, literal(-3)))
          CFI (cfiCond90) DPL0 load(1, XDATA, add(CFA_XSP16, literal(-2)))
          CFI (cfiCond90) DPH0 load(1, XDATA, add(CFA_XSP16, literal(-1)))
          CFI (cfiCond90) CFA_SP SP+0
          CFI (cfiCond90) CFA_XSP16 add(XSP16, 14)
          CFI Block cfiCond91 Using cfiCommon0
          CFI (cfiCond91) Function MT_BuildEndpointDesc
          CFI (cfiCond91) Conditional ??CrossCallReturnLabel_31, ??CrossCallReturnLabel_0
          CFI (cfiCond91) R6 load(1, XDATA, add(CFA_XSP16, literal(-14)))
          CFI (cfiCond91) VB load(1, XDATA, add(CFA_XSP16, literal(-13)))
          CFI (cfiCond91) V0 load(1, XDATA, add(CFA_XSP16, literal(-12)))
          CFI (cfiCond91) V1 load(1, XDATA, add(CFA_XSP16, literal(-11)))
          CFI (cfiCond91) V2 load(1, XDATA, add(CFA_XSP16, literal(-10)))
          CFI (cfiCond91) V3 load(1, XDATA, add(CFA_XSP16, literal(-9)))
          CFI (cfiCond91) V4 load(1, XDATA, add(CFA_XSP16, literal(-8)))
          CFI (cfiCond91) V5 load(1, XDATA, add(CFA_XSP16, literal(-7)))
          CFI (cfiCond91) R7 load(1, XDATA, add(CFA_XSP16, literal(-6)))
          CFI (cfiCond91) ?RET_LOW load(1, XDATA, add(CFA_XSP16, literal(-5)))
          CFI (cfiCond91) ?RET_HIGH load(1, XDATA, add(CFA_XSP16, literal(-4)))
          CFI (cfiCond91) ?BRET_EXT load(1, XDATA, add(CFA_XSP16, literal(-3)))
          CFI (cfiCond91) DPL0 load(1, XDATA, add(CFA_XSP16, literal(-2)))
          CFI (cfiCond91) DPH0 load(1, XDATA, add(CFA_XSP16, literal(-1)))
          CFI (cfiCond91) CFA_SP SP+0
          CFI (cfiCond91) CFA_XSP16 add(XSP16, 14)
          CFI Block cfiCond92 Using cfiCommon0
          CFI (cfiCond92) Function MT_BuildEndpointDesc
          CFI (cfiCond92) Conditional ??CrossCallReturnLabel_31, ??CrossCallReturnLabel_1
          CFI (cfiCond92) R6 load(1, XDATA, add(CFA_XSP16, literal(-14)))
          CFI (cfiCond92) VB load(1, XDATA, add(CFA_XSP16, literal(-13)))
          CFI (cfiCond92) V0 load(1, XDATA, add(CFA_XSP16, literal(-12)))
          CFI (cfiCond92) V1 load(1, XDATA, add(CFA_XSP16, literal(-11)))
          CFI (cfiCond92) V2 load(1, XDATA, add(CFA_XSP16, literal(-10)))
          CFI (cfiCond92) V3 load(1, XDATA, add(CFA_XSP16, literal(-9)))
          CFI (cfiCond92) V4 load(1, XDATA, add(CFA_XSP16, literal(-8)))
          CFI (cfiCond92) V5 load(1, XDATA, add(CFA_XSP16, literal(-7)))
          CFI (cfiCond92) R7 load(1, XDATA, add(CFA_XSP16, literal(-6)))
          CFI (cfiCond92) ?RET_LOW load(1, XDATA, add(CFA_XSP16, literal(-5)))
          CFI (cfiCond92) ?RET_HIGH load(1, XDATA, add(CFA_XSP16, literal(-4)))
          CFI (cfiCond92) ?BRET_EXT load(1, XDATA, add(CFA_XSP16, literal(-3)))
          CFI (cfiCond92) DPL0 load(1, XDATA, add(CFA_XSP16, literal(-2)))
          CFI (cfiCond92) DPH0 load(1, XDATA, add(CFA_XSP16, literal(-1)))
          CFI (cfiCond92) CFA_SP SP+0
          CFI (cfiCond92) CFA_XSP16 add(XSP16, 14)
          CFI Block cfiPicker93 Using cfiCommon1
          CFI (cfiPicker93) NoFunction
          CFI (cfiPicker93) Picker
        MOVX    @DPTR,A
        MOV     A,R6
        ADD     A,#0x2
        MOV     R6,A
        MOV     A,R7
        ADDC    A,#0x0
        MOV     R7,A
        RET
          CFI EndBlock cfiCond89
          CFI EndBlock cfiCond90
          CFI EndBlock cfiCond91
          CFI EndBlock cfiCond92
          CFI EndBlock cfiPicker93

        RSEG XDATA_ID:CODE:NOROOT(0)
`?<Initializer for mtProcessIncoming>`:
        DATA16
        DW 0H
        DW ??MT_SysCommandProcessing?relay
        DW 0H
        DW 0H
        DW 0H
        DW ??MT_ZdoCommandProcessing?relay
        DW 0H
        DW 0H
        DW 0H
        DW 0H

        RSEG BANK_RELAYS:CODE:REORDER:NOROOT(0)
??MT_Init?relay:
        CODE
        LCALL   ?BDISPATCH
        DATA24
        DC24    MT_Init

        RSEG BANK_RELAYS:CODE:REORDER:NOROOT(0)
??MT_BuildSPIMsg?relay:
        CODE
        LCALL   ?BDISPATCH
        DATA24
        DC24    MT_BuildSPIMsg

        RSEG BANK_RELAYS:CODE:REORDER:NOROOT(0)
??MT_BuildAndSendZToolResponse?relay:
        CODE
        LCALL   ?BDISPATCH
        DATA24
        DC24    MT_BuildAndSendZToolResponse

        RSEG BANK_RELAYS:CODE:REORDER:NOROOT(0)
??MT_ProcessIncoming?relay:
        CODE
        LCALL   ?BDISPATCH
        DATA24
        DC24    MT_ProcessIncoming

        RSEG BANK_RELAYS:CODE:REORDER:NOROOT(0)
??MTProcessAppRspMsg?relay:
        CODE
        LCALL   ?BDISPATCH
        DATA24
        DC24    MTProcessAppRspMsg

        RSEG BANK_RELAYS:CODE:REORDER:NOROOT(0)
??MT_ReverseBytes?relay:
        CODE
        LCALL   ?BDISPATCH
        DATA24
        DC24    MT_ReverseBytes

        RSEG BANK_RELAYS:CODE:REORDER:NOROOT(0)
??MT_Word2Buf?relay:
        CODE
        LCALL   ?BDISPATCH
        DATA24
        DC24    MT_Word2Buf

        RSEG BANK_RELAYS:CODE:REORDER:NOROOT(0)
??MT_BuildEndpointDesc?relay:
        CODE
        LCALL   ?BDISPATCH
        DATA24
        DC24    MT_BuildEndpointDesc

        END
//  528 /***************************************************************************************************
//  529 ***************************************************************************************************/
// 
// 1 112 bytes in segment BANKED_CODE
//    48 bytes in segment BANK_RELAYS
//    20 bytes in segment XDATA_I
//    20 bytes in segment XDATA_ID
//     5 bytes in segment XDATA_Z
// 
// 1 180 bytes of CODE  memory
//    25 bytes of XDATA memory
//
//Errors: none
//Warnings: none
