###############################################################################
#                                                                             #
# IAR C/C++ Compiler V8.20.2.41139 for 8051             01/Jan/2016  15:55:55 #
# Copyright 2004-2013 IAR Systems AB.                                         #
#                                                                             #
#    Core               =  plain                                              #
#    Code model         =  banked                                             #
#    Data model         =  large                                              #
#    Calling convention =  xdata reentrant                                    #
#    Constant location  =  data_rom                                           #
#    Dptr setup         =  1,16                                               #
#                                                                             #
#    Source file        =  C:\Users\ArnoldWorkStation\Desktop\ZigbeeTest\Comp #
#                          onents\osal\mcu\cc2530\OSAL_Nv.c                   #
#    Command line       =  -f C:\Users\ArnoldWorkStation\Desktop\ZigbeeTest\P #
#                          rojects\zstack\Samples\SampleApp\CC2530DB\..\..\.. #
#                          \Tools\CC2530DB\f8wRouter.cfg (-DCPU32MHZ          #
#                          -DROOT=__near_func -DMAC_CFG_APP_PENDING_QUEUE=TRU #
#                          E -DRTR_NWK -DBLINK_LEDS) -f                       #
#                          C:\Users\ArnoldWorkStation\Desktop\ZigbeeTest\Proj #
#                          ects\zstack\Samples\SampleApp\CC2530DB\..\..\..\To #
#                          ols\CC2530DB\f8wConfig.cfg (-DSECURE=0             #
#                          -DZG_SECURE_DYNAMIC=0 -DREFLECTOR                  #
#                          -DDEFAULT_CHANLIST=0x00000800                      #
#                          -DZDAPP_CONFIG_PAN_ID=0xFFF1                       #
#                          -DNWK_START_DELAY=100 -DEXTENDED_JOINING_RANDOM_MA #
#                          SK=0x007F -DBEACON_REQUEST_DELAY=100               #
#                          -DBEACON_REQ_DELAY_MASK=0x00FF                     #
#                          -DROUTE_EXPIRY_TIME=30 -DAPSC_ACK_WAIT_DURATION_PO #
#                          LLED=3000 -DNWK_INDIRECT_MSG_TIMEOUT=7             #
#                          -DMAX_RREQ_ENTRIES=8 -DAPSC_MAX_FRAME_RETRIES=3    #
#                          -DNWK_MAX_DATA_RETRIES=2                           #
#                          -DMAX_POLL_FAILURE_RETRIES=2 -DMAX_BCAST=9         #
#                          -DAPS_MAX_GROUPS=16 -DMAX_RTG_ENTRIES=40           #
#                          -DNWK_MAX_BINDING_ENTRIES=4                        #
#                          -DMAX_BINDING_CLUSTER_IDS=4 "-DDEFAULT_KEY={0x01,  #
#                          0x03, 0x05, 0x07, 0x09, 0x0B, 0x0D, 0x0F, 0x00,    #
#                          0x02, 0x04, 0x06, 0x08, 0x0A, 0x0C, 0x0D}"         #
#                          -DMAC_MAX_FRAME_SIZE=116 "-DCONST=const __code"    #
#                          -DGENERIC=__generic -DRFD_RCVC_ALWAYS_ON=TRUE      #
#                          -DPOLL_RATE=1000 -DQUEUED_POLL_RATE=100            #
#                          -DRESPONSE_POLL_RATE=100) -DREJOIN_POLL_RATE=440   #
#                          C:\Users\ArnoldWorkStation\Desktop\ZigbeeTest\Comp #
#                          onents\osal\mcu\cc2530\OSAL_Nv.c -D ZIGBEEPRO -D   #
#                          ZTOOL_P1 -D MT_TASK -D MT_SYS_FUNC -D MT_ZDO_FUNC  #
#                          -D LCD_SUPPORTED=DEBUG -lC                         #
#                          C:\Users\ArnoldWorkStation\Desktop\ZigbeeTest\Proj #
#                          ects\zstack\Samples\SampleApp\CC2530DB\AnchorRoute #
#                          rPro\List\ -lA C:\Users\ArnoldWorkStation\Desktop\ #
#                          ZigbeeTest\Projects\zstack\Samples\SampleApp\CC253 #
#                          0DB\AnchorRouterPro\List\ --diag_suppress          #
#                          Pe001,Pa010 -o C:\Users\ArnoldWorkStation\Desktop\ #
#                          ZigbeeTest\Projects\zstack\Samples\SampleApp\CC253 #
#                          0DB\AnchorRouterPro\Obj\ -e --debug --core=plain   #
#                          --dptr=16,1 --data_model=large                     #
#                          --code_model=banked --calling_convention=xdata_ree #
#                          ntrant --place_constants=data_rom                  #
#                          --nr_virtual_regs 16 -I C:\Users\ArnoldWorkStation #
#                          \Desktop\ZigbeeTest\Projects\zstack\Samples\Sample #
#                          App\CC2530DB\ -I C:\Users\ArnoldWorkStation\Deskto #
#                          p\ZigbeeTest\Projects\zstack\Samples\SampleApp\CC2 #
#                          530DB\..\SOURCE\ -I C:\Users\ArnoldWorkStation\Des #
#                          ktop\ZigbeeTest\Projects\zstack\Samples\SampleApp\ #
#                          CC2530DB\..\..\..\ZMAIN\TI2530DB\ -I               #
#                          C:\Users\ArnoldWorkStation\Desktop\ZigbeeTest\Proj #
#                          ects\zstack\Samples\SampleApp\CC2530DB\..\..\..\.. #
#                          \..\COMPONENTS\MT\ -I C:\Users\ArnoldWorkStation\D #
#                          esktop\ZigbeeTest\Projects\zstack\Samples\SampleAp #
#                          p\CC2530DB\..\..\..\..\..\COMPONENTS\HAL\INCLUDE\  #
#                          -I C:\Users\ArnoldWorkStation\Desktop\ZigbeeTest\P #
#                          rojects\zstack\Samples\SampleApp\CC2530DB\..\..\.. #
#                          \..\..\COMPONENTS\HAL\TARGET\CC2530EB\ -I          #
#                          C:\Users\ArnoldWorkStation\Desktop\ZigbeeTest\Proj #
#                          ects\zstack\Samples\SampleApp\CC2530DB\..\..\..\.. #
#                          \..\COMPONENTS\OSAL\MCU\CCSOC\ -I                  #
#                          C:\Users\ArnoldWorkStation\Desktop\ZigbeeTest\Proj #
#                          ects\zstack\Samples\SampleApp\CC2530DB\..\..\..\.. #
#                          \..\COMPONENTS\OSAL\INCLUDE\ -I                    #
#                          C:\Users\ArnoldWorkStation\Desktop\ZigbeeTest\Proj #
#                          ects\zstack\Samples\SampleApp\CC2530DB\..\..\..\.. #
#                          \..\COMPONENTS\STACK\AF\ -I                        #
#                          C:\Users\ArnoldWorkStation\Desktop\ZigbeeTest\Proj #
#                          ects\zstack\Samples\SampleApp\CC2530DB\..\..\..\.. #
#                          \..\COMPONENTS\STACK\NWK\ -I                       #
#                          C:\Users\ArnoldWorkStation\Desktop\ZigbeeTest\Proj #
#                          ects\zstack\Samples\SampleApp\CC2530DB\..\..\..\.. #
#                          \..\COMPONENTS\STACK\SEC\ -I                       #
#                          C:\Users\ArnoldWorkStation\Desktop\ZigbeeTest\Proj #
#                          ects\zstack\Samples\SampleApp\CC2530DB\..\..\..\.. #
#                          \..\COMPONENTS\STACK\SAPI\ -I                      #
#                          C:\Users\ArnoldWorkStation\Desktop\ZigbeeTest\Proj #
#                          ects\zstack\Samples\SampleApp\CC2530DB\..\..\..\.. #
#                          \..\COMPONENTS\STACK\SYS\ -I                       #
#                          C:\Users\ArnoldWorkStation\Desktop\ZigbeeTest\Proj #
#                          ects\zstack\Samples\SampleApp\CC2530DB\..\..\..\.. #
#                          \..\COMPONENTS\STACK\ZDO\ -I                       #
#                          C:\Users\ArnoldWorkStation\Desktop\ZigbeeTest\Proj #
#                          ects\zstack\Samples\SampleApp\CC2530DB\..\..\..\.. #
#                          \..\COMPONENTS\ZMAC\F8W\ -I                        #
#                          C:\Users\ArnoldWorkStation\Desktop\ZigbeeTest\Proj #
#                          ects\zstack\Samples\SampleApp\CC2530DB\..\..\..\.. #
#                          \..\COMPONENTS\ZMAC\ -I C:\Users\ArnoldWorkStation #
#                          \Desktop\ZigbeeTest\Projects\zstack\Samples\Sample #
#                          App\CC2530DB\..\..\..\..\..\COMPONENTS\SERVICES\SA #
#                          DDR\ -I C:\Users\ArnoldWorkStation\Desktop\ZigbeeT #
#                          est\Projects\zstack\Samples\SampleApp\CC2530DB\..\ #
#                          ..\..\..\..\COMPONENTS\SERVICES\SDATA\ -I          #
#                          C:\Users\ArnoldWorkStation\Desktop\ZigbeeTest\Proj #
#                          ects\zstack\Samples\SampleApp\CC2530DB\..\..\..\.. #
#                          \..\COMPONENTS\MAC\INCLUDE\ -I                     #
#                          C:\Users\ArnoldWorkStation\Desktop\ZigbeeTest\Proj #
#                          ects\zstack\Samples\SampleApp\CC2530DB\..\..\..\.. #
#                          \..\COMPONENTS\MAC\HIGH_LEVEL\ -I                  #
#                          C:\Users\ArnoldWorkStation\Desktop\ZigbeeTest\Proj #
#                          ects\zstack\Samples\SampleApp\CC2530DB\..\..\..\.. #
#                          \..\COMPONENTS\MAC\LOW_LEVEL\srf04\ -I             #
#                          C:\Users\ArnoldWorkStation\Desktop\ZigbeeTest\Proj #
#                          ects\zstack\Samples\SampleApp\CC2530DB\..\..\..\.. #
#                          \..\COMPONENTS\MAC\LOW_LEVEL\srf04\SINGLE_CHIP\    #
#                          -Ohz --require_prototypes                          #
#    List file          =  C:\Users\ArnoldWorkStation\Desktop\ZigbeeTest\Proj #
#                          ects\zstack\Samples\SampleApp\CC2530DB\AnchorRoute #
#                          rPro\List\OSAL_Nv.lst                              #
#    Object file        =  C:\Users\ArnoldWorkStation\Desktop\ZigbeeTest\Proj #
#                          ects\zstack\Samples\SampleApp\CC2530DB\AnchorRoute #
#                          rPro\Obj\OSAL_Nv.r51                               #
#                                                                             #
#                                                                             #
###############################################################################

C:\Users\ArnoldWorkStation\Desktop\ZigbeeTest\Components\osal\mcu\cc2530\OSAL_Nv.c
      1          /**************************************************************************************************
      2            Filename:       OSAL_Nv.c
      3            Revised:        $Date: 2008-08-06 17:17:11 -0700 (Wed, 06 Aug 2008) $
      4            Revision:       $Revision: 17715 $
      5          
      6            Description:    This module contains the OSAL non-volatile memory functions.
      7          
      8          
      9            Copyright 2006-2009 Texas Instruments Incorporated. All rights reserved.
     10          
     11            IMPORTANT: Your use of this Software is limited to those specific rights
     12            granted under the terms of a software license agreement between the user
     13            who downloaded the software, his/her employer (which must be your employer)
     14            and Texas Instruments Incorporated (the "License").  You may not use this
     15            Software unless you agree to abide by the terms of the License. The License
     16            limits your use, and you acknowledge, that the Software may not be modified,
     17            copied or distributed unless embedded on a Texas Instruments microcontroller
     18            or used solely and exclusively in conjunction with a Texas Instruments radio
     19            frequency transceiver, which is integrated into your product.  Other than for
     20            the foregoing purpose, you may not use, reproduce, copy, prepare derivative
     21            works of, modify, distribute, perform, display or sell this Software and/or
     22            its documentation for any purpose.
     23          
     24            YOU FURTHER ACKNOWLEDGE AND AGREE THAT THE SOFTWARE AND DOCUMENTATION ARE
     25            PROVIDED “AS IS” WITHOUT WARRANTY OF ANY KIND, EITHER EXPRESS OR IMPLIED,
     26            INCLUDING WITHOUT LIMITATION, ANY WARRANTY OF MERCHANTABILITY, TITLE,
     27            NON-INFRINGEMENT AND FITNESS FOR A PARTICULAR PURPOSE. IN NO EVENT SHALL
     28            TEXAS INSTRUMENTS OR ITS LICENSORS BE LIABLE OR OBLIGATED UNDER CONTRACT,
     29            NEGLIGENCE, STRICT LIABILITY, CONTRIBUTION, BREACH OF WARRANTY, OR OTHER
     30            LEGAL EQUITABLE THEORY ANY DIRECT OR INDIRECT DAMAGES OR EXPENSES
     31            INCLUDING BUT NOT LIMITED TO ANY INCIDENTAL, SPECIAL, INDIRECT, PUNITIVE
     32            OR CONSEQUENTIAL DAMAGES, LOST PROFITS OR LOST DATA, COST OF PROCUREMENT
     33            OF SUBSTITUTE GOODS, TECHNOLOGY, SERVICES, OR ANY CLAIMS BY THIRD PARTIES
     34            (INCLUDING BUT NOT LIMITED TO ANY DEFENSE THEREOF), OR OTHER SIMILAR COSTS.
     35          
     36            Should you have any questions regarding your right to use this Software,
     37            contact Texas Instruments Incorporated at www.TI.com.
     38          **************************************************************************************************/
     39          
     40          /**************************************************************************************************
     41            Notes:
     42              - A trick buried deep in initPage() requires that the MSB of the NV Item Id is to
     43                be reserved for use by this module.
     44          **************************************************************************************************/
     45          
     46          /*********************************************************************
     47           * INCLUDES
     48           */
     49          
     50          #include "hal_adc.h"
     51          #include "hal_flash.h"
     52          #include "hal_types.h"
     53          #include "ZComdef.h"
     54          #include "OSAL_Nv.h"
     55          
     56          /*********************************************************************
     57           * CONSTANTS
     58           */
     59          
     60          #define OSAL_NV_PAGE_SIZE       HAL_FLASH_PAGE_SIZE
     61          #define OSAL_NV_PAGES_USED      HAL_NV_PAGE_CNT
     62          #define OSAL_NV_PAGE_BEG        HAL_NV_PAGE_BEG
     63          #define OSAL_NV_PAGE_END       (OSAL_NV_PAGE_BEG + OSAL_NV_PAGES_USED - 1)
     64          
     65          #define OSAL_NV_ACTIVE          0x00
     66          #define OSAL_NV_ERASED          0xFF
     67          #define OSAL_NV_ERASED_ID       0xFFFF
     68          #define OSAL_NV_ZEROED_ID       0x0000
     69          // Reserve MSB of Id to signal a search for the "old" source copy (new write interrupted/failed.)
     70          #define OSAL_NV_SOURCE_ID       0x8000
     71          
     72          #define OSAL_NV_PAGE_FREE       HAL_FLASH_PAGE_SIZE
     73          
     74          // In case pages 0-1 are ever used, define a null page value.
     75          #define OSAL_NV_PAGE_NULL       0
     76          
     77          // In case item Id 0 is ever used, define a null item value.
     78          #define OSAL_NV_ITEM_NULL       0
     79          
     80          #define OSAL_NV_WORD_SIZE       HAL_FLASH_WORD_SIZE
     81          
     82          #define OSAL_NV_PAGE_HDR_OFFSET 0
     83          
     84          /*********************************************************************
     85           * MACROS
     86           */
     87          
     88          #define  OSAL_NV_CHECK_BUS_VOLTAGE  (HalAdcCheckVdd( HAL_ADC_VDD_LIMIT_4 ))
     89          
     90          #define OSAL_NV_DATA_SIZE( LEN )  \
     91             ((((LEN) + OSAL_NV_WORD_SIZE - 1) / OSAL_NV_WORD_SIZE) * OSAL_NV_WORD_SIZE)
     92          
     93          #define OSAL_NV_ITEM_SIZE( LEN )  \
     94            (((((LEN) + OSAL_NV_WORD_SIZE - 1) / OSAL_NV_WORD_SIZE) * OSAL_NV_WORD_SIZE) + OSAL_NV_HDR_SIZE)
     95          
     96          /*********************************************************************
     97           * TYPEDEFS
     98           */
     99          
    100          typedef struct
    101          {
    102            uint16 id;
    103            uint16 len;   // Enforce Flash-WORD size on len.
    104            uint16 chk;   // Byte-wise checksum of the 'len' data bytes of the item.
    105            uint16 stat;  // Item status.
    106          } osalNvHdr_t;
    107          // Struct member offsets.
    108          #define OSAL_NV_HDR_ID    0
    109          #define OSAL_NV_HDR_LEN   2
    110          #define OSAL_NV_HDR_CHK   4
    111          #define OSAL_NV_HDR_STAT  6
    112          
    113          #define OSAL_NV_HDR_ITEM  2  // Length of any item of a header struct.
    114          #define OSAL_NV_HDR_SIZE  8
    115          #define OSAL_NV_HDR_HALF (OSAL_NV_HDR_SIZE / 2)
    116          
    117          typedef struct
    118          {
    119            uint16 active;
    120            uint16 inUse;
    121            uint16 xfer;
    122            uint16 spare;
    123          } osalNvPgHdr_t;
    124          // Struct member offsets.
    125          #define OSAL_NV_PG_ACTIVE 0
    126          #define OSAL_NV_PG_INUSE  2
    127          #define OSAL_NV_PG_XFER   4
    128          #define OSAL_NV_PG_SPARE  6
    129          
    130          #define OSAL_NV_PAGE_HDR_SIZE  8
    131          #define OSAL_NV_PAGE_HDR_HALF (OSAL_NV_PAGE_HDR_SIZE / 2)
    132          
    133          typedef enum
    134          {
    135            eNvXfer,
    136            eNvZero
    137          } eNvHdrEnum;
    138          
    139          typedef enum
    140          {
    141            ePgActive,
    142            ePgInUse,
    143            ePgXfer,
    144            ePgSpare
    145          } ePgHdrEnum;
    146          
    147          /*********************************************************************
    148           * EXTERNAL FUNCTIONS
    149           */
    150          
    151          extern bool HalAdcCheckVdd(uint8 limit);
    152          
    153          /*********************************************************************
    154           * GLOBAL VARIABLES
    155           */
    156          
    157          #ifndef OAD_KEEP_NV_PAGES
    158          // When NV pages are to remain intact during OAD download,
    159          // the image itself should not include NV pages.
    160          #pragma location="ZIGNV_ADDRESS_SPACE"

   \                                 In  segment ZIGNV_ADDRESS_SPACE, align 1
    161          __no_init uint8 _nvBuf[OSAL_NV_PAGES_USED * OSAL_NV_PAGE_SIZE];
   \                     _nvBuf:
   \   000000                DS 12288
    162          #pragma required=_nvBuf
    163          #pragma location="IEEE_ADDRESS_SPACE"

   \                                 In  segment IEEE_ADDRESS_SPACE, align 1
    164          __no_init uint8 _nvIEEE[Z_EXTADDR_LEN];
   \                     _nvIEEE:
   \   000000                DS 8
   \   000008                REQUIRE _nvBuf
    165          #pragma required=_nvIEEE
    166          #endif // OAD_KEEP_NV_PAGES
    167          
    168          /*********************************************************************
    169           * LOCAL VARIABLES
    170           */
    171          
    172          // Offset into the page of the first available erased space.

   \                                 In  segment XDATA_Z, align 1, keep-with-next
    173          static uint16 pgOff[OSAL_NV_PAGES_USED];
   \                     pgOff:
   \   000000                DS 12
   \   00000C                REQUIRE __INIT_XDATA_Z
   \   00000C                REQUIRE _nvIEEE
    174          
    175          // Count of the bytes lost for the zeroed-out items.

   \                                 In  segment XDATA_Z, align 1, keep-with-next
    176          static uint16 pgLost[OSAL_NV_PAGES_USED];
   \                     pgLost:
   \   000000                DS 12
   \   00000C                REQUIRE __INIT_XDATA_Z
    177          

   \                                 In  segment XDATA_Z, align 1, keep-with-next
    178          static uint8 pgRes;  // Page reserved for item compacting transfer.
   \                     pgRes:
   \   000000                DS 1
   \   000001                REQUIRE __INIT_XDATA_Z
    179          
    180          // Saving ~100 code bytes to move a uint8* parameter/return value from findItem() to a global.

   \                                 In  segment XDATA_Z, align 1, keep-with-next
    181          static uint8 findPg;
   \                     findPg:
   \   000000                DS 1
   \   000001                REQUIRE __INIT_XDATA_Z
    182          
    183          /* Immediately before the voltage critical operations of a page erase or
    184           * a word write, check bus voltage. If less than min, set global flag & abort.
    185           * Since this is to be done at the lowest level, many void functions would have to be changed to
    186           * return a value and code added to check that value before proceeding, resulting in a very
    187           * expensive code size hit for implementing this properly. Therefore, use this global as follows:
    188           * at the start of osal_nv_item_init/osal_nv_write, set to FALSE, and at the end, before returning,
    189           * check the value. Thus, the global is an accumulator of any error that occurred in any of the
    190           * attempts to modify Flash with a low bus voltage during the complicated sequence of events that
    191           * may occur on any item init or write. This is much more expedient and code saving than adding
    192           * return values and checking return values to early out. No matter which method is used, an NV
    193           * data record may end up mangled due to the low VCC conditions. The strategy is that the headers
    194           * and checksums will detect and allow recovery from such a condition.
    195           *
    196           * One unfortunate side-effect of using the global fail flag vice adding and checking return
    197           * values, is that when setting an item Id to zero has failed due to the low VCC check,
    198           * the page lost-bytes counter is still updated. Having an artificially high lost-byte
    199           * count makes it look like there are more bytes to recover from compacting a page than there may
    200           * actually be. The easy work-around implemented is it to invoke initNV() from osal_nv_item_init or
    201           * osal_nv_write anytime that the failF gets set - this will re-walk all of the pages and set the
    202           * page offset count and page lost bytes count to their actual values.
    203           */

   \                                 In  segment XDATA_Z, align 1, keep-with-next
    204          static uint8 failF;
   \                     failF:
   \   000000                DS 1
   \   000001                REQUIRE __INIT_XDATA_Z
    205          
    206          /*********************************************************************
    207           * LOCAL FUNCTIONS
    208           */
    209          
    210          static uint8  initNV( void );
    211          
    212          static void   setPageUse( uint8 pg, uint8 inUse );
    213          static uint16 initPage( uint8 pg, uint16 id, uint8 findDups );
    214          static void   erasePage( uint8 pg );
    215          static void   compactPage( uint8 pg );
    216          
    217          static uint16 findItem( uint16 id );
    218          static uint8  initItem( uint8 flag, uint16 id, uint16 len, void *buf );
    219          static void   setItem( uint8 pg, uint16 offset, eNvHdrEnum stat );
    220          
    221          static uint16 calcChkB( uint16 len, uint8 *buf );
    222          static uint16 calcChkF( byte pg, uint16 offset, uint16 len );
    223          
    224          static void   writeWord( uint8 pg, uint16 offset, uint8 *buf );
    225          static void   writeWordH( uint8 pg, uint16 offset, uint8 *buf );
    226          static void   writeWordM( uint8 pg, uint16 offset, uint8 *buf, uint16 cnt );
    227          static void   writeBuf( uint8 pg, uint16 offset, uint16 len, uint8 *buf );
    228          static void   xferBuf( uint8 srcPg, uint16 srcOff, uint8 dstPg, uint16 dstOff, uint16 len );
    229          
    230          static uint8  writeItem( uint8 pg, uint16 id, uint16 len, void *buf, uint8 flag );
    231          
    232          /*********************************************************************
    233           * @fn      initNV
    234           *
    235           * @brief   Initialize the NV flash pages.
    236           *
    237           * @param   none
    238           *
    239           * @return  TRUE
    240           */

   \                                 In  segment BANKED_CODE, align 1, keep-with-next
    241          static uint8 initNV( void )
   \                     initNV:
    242          {
   \   000000   74F4         MOV     A,#-0xc
   \   000002   12....       LCALL   ?BANKED_ENTER_XDATA
   \   000005                ; Saved register size: 12
   \   000005                ; Auto size: 8
   \   000005   74F8         MOV     A,#-0x8
   \   000007   12....       LCALL   ?ALLOC_XSTACK8
    243            osalNvPgHdr_t pgHdr;
    244            uint8 oldPg = OSAL_NV_PAGE_NULL;
   \   00000A   75..00       MOV     ?V0 + 1,#0x0
    245            uint8 newPg = OSAL_NV_PAGE_NULL;
   \   00000D   75..00       MOV     ?V0 + 0,#0x0
    246            uint8 findDups = FALSE;
   \   000010   7F00         MOV     R7,#0x0
    247            uint8 pg;
    248          
    249            pgRes = OSAL_NV_PAGE_NULL;
   \   000012   90....       MOV     DPTR,#pgRes
   \   000015   E4           CLR     A
   \   000016   F0           MOVX    @DPTR,A
    250          
    251            for ( pg = OSAL_NV_PAGE_BEG; pg <= OSAL_NV_PAGE_END; pg++ )
   \   000017   7E79         MOV     R6,#0x79
    252            {
    253              HalFlashRead(pg, OSAL_NV_PAGE_HDR_OFFSET, (uint8 *)(&pgHdr), OSAL_NV_HDR_SIZE);
   \                     ??initNV_0:
   \   000019                ; Setup parameters for call to function HalFlashRead
   \   000019   75..08       MOV     ?V0 + 2,#0x8
   \   00001C   75..00       MOV     ?V0 + 3,#0x0
   \   00001F   78..         MOV     R0,#?V0 + 2
   \   000021   12....       LCALL   ?PUSH_XSTACK_I_TWO
   \   000024   7402         MOV     A,#0x2
   \   000026   12....       LCALL   ?XSTACK_DISP0_8
   \   000029   AC82         MOV     R4,DPL
   \   00002B   AD83         MOV     R5,DPH
   \   00002D   7A00         MOV     R2,#0x0
   \   00002F   7B00         MOV     R3,#0x0
   \   000031   EE           MOV     A,R6
   \   000032   F9           MOV     R1,A
   \   000033   12....       LCALL   ??HalFlashRead?relay
   \   000036   7402         MOV     A,#0x2
   \   000038   12....       LCALL   ?DEALLOC_XSTACK8
    254          
    255              if ( pgHdr.active == OSAL_NV_ERASED_ID )
   \   00003B   85..82       MOV     DPL,?XSP + 0
   \   00003E   85..83       MOV     DPH,?XSP + 1
   \   000041   E0           MOVX    A,@DPTR
   \   000042   F4           CPL     A
   \   000043   7003         JNZ     ??initNV_1
   \   000045   A3           INC     DPTR
   \   000046   E0           MOVX    A,@DPTR
   \   000047   F4           CPL     A
   \                     ??initNV_1:
   \   000048   7013         JNZ     ??initNV_2
    256              {
    257                if ( pgRes == OSAL_NV_PAGE_NULL )
   \   00004A   90....       MOV     DPTR,#pgRes
   \   00004D   E0           MOVX    A,@DPTR
   \   00004E   7004         JNZ     ??initNV_3
    258                {
    259                  pgRes = pg;
   \   000050   EE           MOV     A,R6
   \   000051   F0           MOVX    @DPTR,A
   \   000052   802B         SJMP    ??initNV_4
    260                }
    261                else
    262                {
    263                  setPageUse( pg, TRUE );
   \                     ??initNV_3:
   \   000054                ; Setup parameters for call to function setPageUse
   \   000054   7A01         MOV     R2,#0x1
   \   000056   EE           MOV     A,R6
   \   000057   F9           MOV     R1,A
   \   000058   12....       LCALL   ??setPageUse?relay
   \   00005B   8022         SJMP    ??initNV_4
    264                }
    265              }
    266              else  // Page is active.
    267              {
    268                // If the page is not yet in use, it is the tgt of items from an xfer.
    269                if ( pgHdr.inUse == OSAL_NV_ERASED_ID )
   \                     ??initNV_2:
   \   00005D   7402         MOV     A,#0x2
   \   00005F   12....       LCALL   ?XSTACK_DISP0_8
   \   000062   E0           MOVX    A,@DPTR
   \   000063   F4           CPL     A
   \   000064   7003         JNZ     ??initNV_5
   \   000066   A3           INC     DPTR
   \   000067   E0           MOVX    A,@DPTR
   \   000068   F4           CPL     A
   \                     ??initNV_5:
   \   000069   7004         JNZ     ??initNV_6
    270                {
    271                  newPg = pg;
   \   00006B   8E..         MOV     ?V0 + 0,R6
   \   00006D   8010         SJMP    ??initNV_4
    272                }
    273                // An Xfer from this page was in progress.
    274                else if ( pgHdr.xfer != OSAL_NV_ERASED_ID )
   \                     ??initNV_6:
   \   00006F   7404         MOV     A,#0x4
   \   000071   12....       LCALL   ?XSTACK_DISP0_8
   \   000074   E0           MOVX    A,@DPTR
   \   000075   F4           CPL     A
   \   000076   7003         JNZ     ??initNV_7
   \   000078   A3           INC     DPTR
   \   000079   E0           MOVX    A,@DPTR
   \   00007A   F4           CPL     A
   \                     ??initNV_7:
   \   00007B   6002         JZ      ??initNV_4
    275                {
    276                  oldPg = pg;
   \   00007D   8E..         MOV     ?V0 + 1,R6
    277                }
    278              }
    279          
    280              // Calculate page offset and lost bytes - any "old" item triggers an N^2 re-scan from start.
    281              if ( initPage( pg, OSAL_NV_ITEM_NULL, findDups ) != OSAL_NV_ITEM_NULL )
   \                     ??initNV_4:
   \   00007F                ; Setup parameters for call to function initPage
   \   00007F   EF           MOV     A,R7
   \   000080   FC           MOV     R4,A
   \   000081   7A00         MOV     R2,#0x0
   \   000083   7B00         MOV     R3,#0x0
   \   000085   EE           MOV     A,R6
   \   000086   F9           MOV     R1,A
   \   000087   12....       LCALL   ??initPage?relay
   \   00008A   8B..         MOV     ?V0 + 3,R3
   \   00008C   EA           MOV     A,R2
   \   00008D   45..         ORL     A,?V0 + 3
   \   00008F   6004         JZ      ??initNV_8
    282              {
    283                findDups = TRUE;
   \   000091   7F01         MOV     R7,#0x1
    284                pg = OSAL_NV_PAGE_BEG-1;
   \   000093   7E78         MOV     R6,#0x78
    285                continue;
    286              }
    287            }  // for ( pg = OSAL_NV_PAGE_BEG; pg <= OSAL_NV_PAGE_END; pg++ )
   \                     ??initNV_8:
   \   000095   0E           INC     R6
   \   000096   EE           MOV     A,R6
   \   000097   C3           CLR     C
   \   000098   947F         SUBB    A,#0x7f
   \   00009A   5003         JNC     $+5
   \   00009C   02....       LJMP    ??initNV_0 & 0xFFFF
    288          
    289            /* First the old page is erased, and then the new page is put into use.
    290             * So if a transfer was in progress, the new page will always not yet be
    291             * marked as in use, since that is the last step to ending a transfer.
    292             */
    293            if ( newPg != OSAL_NV_PAGE_NULL )
   \   00009F   E5..         MOV     A,?V0 + 0
   \   0000A1   601F         JZ      ??initNV_9
    294            {
    295              /* If there is already a fallow page reserved, keep it and put the newPg in use.
    296               * An unfinished compaction will finish to the new reserve page and the old page
    297               * will be erased and reserved.
    298               */
    299              if ( pgRes != OSAL_NV_PAGE_NULL )
   \   0000A3   90....       MOV     DPTR,#pgRes
   \   0000A6   E0           MOVX    A,@DPTR
   \   0000A7   600D         JZ      ??initNV_10
    300              {
    301                setPageUse( newPg, TRUE );
   \   0000A9                ; Setup parameters for call to function setPageUse
   \   0000A9   7A01         MOV     R2,#0x1
   \   0000AB   A9..         MOV     R1,?V0 + 0
   \   0000AD   12....       LCALL   ??setPageUse?relay
    302              }
    303              else if ( oldPg != OSAL_NV_PAGE_NULL )
    304              {
    305                pgRes = newPg;
    306              }
    307          
    308              /* If a page compaction was interrupted and the page being compacted is not
    309               * yet erased, then there may be items remaining to xfer before erasing.
    310               */
    311              if ( oldPg != OSAL_NV_PAGE_NULL )
   \   0000B0   E5..         MOV     A,?V0 + 1
   \   0000B2   7009         JNZ     ??initNV_11
   \   0000B4   800C         SJMP    ??initNV_9
   \                     ??initNV_10:
   \   0000B6   E5..         MOV     A,?V0 + 1
   \   0000B8   600E         JZ      ??initNV_12
   \   0000BA   E5..         MOV     A,?V0 + 0
   \   0000BC   F0           MOVX    @DPTR,A
    312              {
    313                compactPage( oldPg );
   \                     ??initNV_11:
   \   0000BD                ; Setup parameters for call to function compactPage
   \   0000BD   A9..         MOV     R1,?V0 + 1
   \   0000BF   12....       LCALL   ??compactPage?relay
    314              }
    315            }
    316          
    317            /* If no page met the criteria to be the reserve page:
    318             *  - A compactPage() failed or board reset before doing so.
    319             *  - Perhaps the user changed which Flash pages are dedicated to NV and downloaded the code
    320             *    without erasing Flash?
    321             */
    322            if ( pgRes == OSAL_NV_PAGE_NULL )
   \                     ??initNV_9:
   \   0000C2   90....       MOV     DPTR,#pgRes
   \   0000C5   E0           MOVX    A,@DPTR
   \   0000C6   7011         JNZ     ??initNV_13
    323            {
    324              for ( pg = OSAL_NV_PAGE_BEG; pg <= OSAL_NV_PAGE_END; pg++ )
   \                     ??initNV_12:
   \   0000C8   7E79         MOV     R6,#0x79
    325              {
    326                erasePage( pg );
   \                     ??initNV_14:
   \   0000CA                ; Setup parameters for call to function erasePage
   \   0000CA   EE           MOV     A,R6
   \   0000CB   F9           MOV     R1,A
   \   0000CC   12....       LCALL   ??erasePage?relay
    327              }
   \   0000CF   0E           INC     R6
   \   0000D0   EE           MOV     A,R6
   \   0000D1   C3           CLR     C
   \   0000D2   947F         SUBB    A,#0x7f
   \   0000D4   40F4         JC      ??initNV_14
    328              initNV();
   \   0000D6                ; Setup parameters for call to function initNV
   \   0000D6   12....       LCALL   ??initNV?relay
    329            }
    330          
    331            return TRUE;
   \                     ??initNV_13:
   \   0000D9   7901         MOV     R1,#0x1
   \   0000DB   7408         MOV     A,#0x8
   \   0000DD   12....       LCALL   ?DEALLOC_XSTACK8
   \   0000E0                REQUIRE ?Subroutine0
   \   0000E0                ; // Fall through to label ?Subroutine0
    332          }

   \                                 In  segment BANKED_CODE, align 1, keep-with-next
   \                     ?Subroutine0:
   \   000000   7F04         MOV     R7,#0x4
   \   000002   02....       LJMP    ?BANKED_LEAVE_XDATA
    333          
    334          /*********************************************************************
    335           * @fn      setPageUse
    336           *
    337           * @brief   Set page header active/inUse state according to 'inUse'.
    338           *
    339           * @param   pg - Valid NV page to verify and init.
    340           * @param   inUse - Boolean TRUE if inUse, FALSE if only active.
    341           *
    342           * @return  none
    343           */

   \                                 In  segment BANKED_CODE, align 1, keep-with-next
    344          static void setPageUse( uint8 pg, uint8 inUse )
   \                     setPageUse:
    345          {
   \   000000   74F7         MOV     A,#-0x9
   \   000002   12....       LCALL   ?BANKED_ENTER_XDATA
   \   000005                ; Saved register size: 9
   \   000005                ; Auto size: 8
   \   000005   74F8         MOV     A,#-0x8
   \   000007   12....       LCALL   ?ALLOC_XSTACK8
   \   00000A   EA           MOV     A,R2
   \   00000B   FF           MOV     R7,A
    346            osalNvPgHdr_t pgHdr;
    347          
    348            pgHdr.active = OSAL_NV_ZEROED_ID;
   \   00000C   85..82       MOV     DPL,?XSP + 0
   \   00000F   85..83       MOV     DPH,?XSP + 1
   \   000012   E4           CLR     A
   \   000013   F0           MOVX    @DPTR,A
   \   000014   A3           INC     DPTR
   \   000015   F0           MOVX    @DPTR,A
    349          
    350            if ( inUse )
   \   000016   EF           MOV     A,R7
   \   000017   6008         JZ      ??setPageUse_0
    351            {
    352              pgHdr.inUse = OSAL_NV_ZEROED_ID;
   \   000019   7402         MOV     A,#0x2
   \   00001B   12....       LCALL   ?XSTACK_DISP0_8
   \   00001E   E4           CLR     A
   \   00001F   8007         SJMP    ??setPageUse_1
    353            }
    354            else
    355            {
    356              pgHdr.inUse = OSAL_NV_ERASED_ID;
   \                     ??setPageUse_0:
   \   000021   7402         MOV     A,#0x2
   \   000023   12....       LCALL   ?XSTACK_DISP0_8
   \   000026   74FF         MOV     A,#-0x1
    357            }
   \                     ??setPageUse_1:
   \   000028   12....       LCALL   ??Subroutine30_0 & 0xFFFF
    358          
    359            writeWord( pg, OSAL_NV_PAGE_HDR_OFFSET, (uint8*)(&pgHdr) );
   \                     ??CrossCallReturnLabel_65:
   \   00002B   7A00         MOV     R2,#0x0
   \   00002D   7B00         MOV     R3,#0x0
   \   00002F   12....       LCALL   ??writeWord?relay
    360          }
   \   000032   7408         MOV     A,#0x8
   \   000034                REQUIRE ?Subroutine1
   \   000034                ; // Fall through to label ?Subroutine1

   \                                 In  segment BANKED_CODE, align 1, keep-with-next
   \                     ?Subroutine1:
   \   000000   12....       LCALL   ?DEALLOC_XSTACK8
   \   000003                REQUIRE ??Subroutine28_0
   \   000003                ; // Fall through to label ??Subroutine28_0

   \                                 In  segment BANKED_CODE, align 1, keep-with-next
   \                     ??Subroutine28_0:
   \   000000   7F01         MOV     R7,#0x1
   \   000002   02....       LJMP    ?BANKED_LEAVE_XDATA

   \                                 In  segment BANKED_CODE, align 1, keep-with-next
   \                     ??Subroutine30_0:
   \   000000   F0           MOVX    @DPTR,A
   \   000001   A3           INC     DPTR
   \   000002                REQUIRE ??Subroutine31_0
   \   000002                ; // Fall through to label ??Subroutine31_0

   \                                 In  segment BANKED_CODE, align 1, keep-with-next
   \                     ??Subroutine31_0:
   \   000000   F0           MOVX    @DPTR,A
   \   000001                ; Setup parameters for call to function writeWordH
   \   000001                ; Setup parameters for call to function writeWord
   \   000001                ; Setup parameters for call to function writeWord
   \   000001                ; Setup parameters for call to function writeWord
   \   000001   85..82       MOV     DPL,?XSP + 0
   \   000004   85..83       MOV     DPH,?XSP + 1
   \   000007   AC82         MOV     R4,DPL
   \   000009   AD83         MOV     R5,DPH
   \   00000B   22           RET
    361          
    362          /*********************************************************************
    363           * @fn      initPage
    364           *
    365           * @brief   Walk the page items; calculate checksums, lost bytes & page offset.
    366           *
    367           * @param   pg - Valid NV page to verify and init.
    368           * @param   id - Valid NV item Id to use function as a "findItem".
    369           *               If set to NULL then just perform the page initialization.
    370           *
    371           * @return  If 'id' is non-NULL and good checksums are found, return the offset
    372           *          of the data corresponding to item Id; else OSAL_NV_ITEM_NULL.
    373           */

   \                                 In  segment BANKED_CODE, align 1, keep-with-next
    374          static uint16 initPage( uint8 pg, uint16 id, uint8 findDups )
   \                     initPage:
    375          {
   \   000000   74EE         MOV     A,#-0x12
   \   000002   12....       LCALL   ?BANKED_ENTER_XDATA
   \   000005                ; Saved register size: 18
   \   000005                ; Auto size: 8
   \   000005   74F8         MOV     A,#-0x8
   \   000007   12....       LCALL   ?ALLOC_XSTACK8
   \   00000A   89..         MOV     ?V0 + 4,R1
   \   00000C   8A..         MOV     ?V0 + 6,R2
   \   00000E   8B..         MOV     ?V0 + 7,R3
   \   000010   8C..         MOV     ?V0 + 5,R4
    376            uint16 offset = OSAL_NV_PAGE_HDR_SIZE;
   \   000012   75..08       MOV     ?V0 + 2,#0x8
   \   000015   75..00       MOV     ?V0 + 3,#0x0
    377            uint16 sz, lost = 0;
   \   000018   7E00         MOV     R6,#0x0
   \   00001A   7F00         MOV     R7,#0x0
   \   00001C   801C         SJMP    ??initPage_0
    378            osalNvHdr_t hdr;
    379          
    380            do
    381            {
    382              HalFlashRead(pg, offset, (uint8 *)(&hdr), OSAL_NV_HDR_SIZE);
    383          
    384              if ( hdr.id == OSAL_NV_ERASED_ID )
    385              {
    386                break;
    387              }
    388              offset += OSAL_NV_HDR_SIZE;
    389              sz = OSAL_NV_DATA_SIZE( hdr.len );
    390          
    391              // A bad 'len' write has blown away the rest of the page.
    392              if ( (offset + sz) > OSAL_NV_PAGE_FREE )
    393              {
    394                lost += (OSAL_NV_PAGE_FREE - offset + OSAL_NV_HDR_SIZE);
    395                offset = OSAL_NV_PAGE_FREE;
    396                break;
    397              }
    398          
    399              if ( hdr.id != OSAL_NV_ZEROED_ID )
    400              {
    401                /* This trick allows function to do double duty for findItem() without
    402                 * compromising its essential functionality at powerup initialization.
    403                 */
    404                if ( id != OSAL_NV_ITEM_NULL )
    405                {
    406                  /* This trick allows asking to find the old/transferred item in case
    407                   * of a successful new item write that gets interrupted before the
    408                   * old item can be zeroed out.
    409                   */
    410                  if ( (id & 0x7fff) == hdr.id )
    411                  {
    412                    if ( (((id & OSAL_NV_SOURCE_ID) == 0) && (hdr.stat == OSAL_NV_ERASED_ID)) ||
    413                         (((id & OSAL_NV_SOURCE_ID) != 0) && (hdr.stat != OSAL_NV_ERASED_ID)) )
    414                    {
    415                      return offset;
    416                    }
    417                  }
    418                }
    419                // When invoked from the osal_nv_init(), verify checksums and find & zero any duplicates.
    420                else
    421                {
    422                  if ( hdr.chk == calcChkF( pg, offset, hdr.len ) )
    423                  {
    424                    if ( findDups )
    425                    {
    426                      if ( hdr.stat == OSAL_NV_ERASED_ID )
    427                      {
    428                        /* The trick of setting the MSB of the item Id causes the logic
    429                         * immediately above to return a valid page only if the header 'stat'
    430                         * indicates that it was the older item being transferred.
    431                         */
    432                        uint16 off = findItem( (hdr.id | OSAL_NV_SOURCE_ID) );
    433          
    434                        if ( off != OSAL_NV_ITEM_NULL )
    435                        {
    436                          setItem( findPg, off, eNvZero );  // Mark old duplicate as invalid.
    437                        }
    438                      }
    439                    }
    440                    // Any "old" item immediately exits and triggers the N^2 exhaustive initialization.
    441                    else if ( hdr.stat != OSAL_NV_ERASED_ID )
    442                    {
    443                      return OSAL_NV_ERASED_ID;
    444                    }
    445                  }
    446                  else
    447                  {
    448                    setItem( pg, offset, eNvZero );  // Mark bad checksum as invalid.
    449                    lost += (OSAL_NV_HDR_SIZE + sz);
    450                  }
    451                }
    452              }
    453              else
    454              {
    455                lost += (OSAL_NV_HDR_SIZE + sz);
   \                     ??initPage_1:
   \   00001E   E5..         MOV     A,?V0 + 0
   \   000020   2408         ADD     A,#0x8
   \   000022   F8           MOV     R0,A
   \   000023   E5..         MOV     A,?V0 + 1
   \   000025   3400         ADDC    A,#0x0
   \   000027   F9           MOV     R1,A
   \   000028   EE           MOV     A,R6
   \   000029   28           ADD     A,R0
   \   00002A   FE           MOV     R6,A
   \   00002B   EF           MOV     A,R7
   \   00002C   39           ADDC    A,R1
   \   00002D   FF           MOV     R7,A
    456              }
    457              offset += sz;
   \                     ??initPage_2:
   \   00002E   E5..         MOV     A,?V0 + 2
   \   000030   25..         ADD     A,?V0 + 0
   \   000032   F5..         MOV     ?V0 + 2,A
   \   000034   E5..         MOV     A,?V0 + 3
   \   000036   35..         ADDC    A,?V0 + 1
   \   000038   F5..         MOV     ?V0 + 3,A
    458          
    459            } while ( TRUE );
   \                     ??initPage_0:
   \   00003A                ; Setup parameters for call to function HalFlashRead
   \   00003A   75..08       MOV     ?V0 + 0,#0x8
   \   00003D   75..00       MOV     ?V0 + 1,#0x0
   \   000040   78..         MOV     R0,#?V0 + 0
   \   000042   12....       LCALL   ?PUSH_XSTACK_I_TWO
   \   000045   7402         MOV     A,#0x2
   \   000047   12....       LCALL   ?XSTACK_DISP0_8
   \   00004A   AC82         MOV     R4,DPL
   \   00004C   AD83         MOV     R5,DPH
   \   00004E   AA..         MOV     R2,?V0 + 2
   \   000050   AB..         MOV     R3,?V0 + 3
   \   000052   A9..         MOV     R1,?V0 + 4
   \   000054   12....       LCALL   ??HalFlashRead?relay
   \   000057   7402         MOV     A,#0x2
   \   000059   12....       LCALL   ?DEALLOC_XSTACK8
   \   00005C   85..82       MOV     DPL,?XSP + 0
   \   00005F   85..83       MOV     DPH,?XSP + 1
   \   000062   E0           MOVX    A,@DPTR
   \   000063   F4           CPL     A
   \   000064   7003         JNZ     ??initPage_3
   \   000066   A3           INC     DPTR
   \   000067   E0           MOVX    A,@DPTR
   \   000068   F4           CPL     A
   \                     ??initPage_3:
   \   000069   6046         JZ      ??initPage_4
   \   00006B   E5..         MOV     A,?V0 + 2
   \   00006D   2408         ADD     A,#0x8
   \   00006F   F5..         MOV     ?V0 + 2,A
   \   000071   E5..         MOV     A,?V0 + 3
   \   000073   3400         ADDC    A,#0x0
   \   000075   F5..         MOV     ?V0 + 3,A
   \   000077   7402         MOV     A,#0x2
   \   000079   12....       LCALL   ?XSTACK_DISP0_8
   \   00007C   12....       LCALL   ?Subroutine15 & 0xFFFF
   \                     ??CrossCallReturnLabel_28:
   \   00007F   12....       LCALL   ?Subroutine16 & 0xFFFF
   \                     ??CrossCallReturnLabel_32:
   \   000082   F5..         MOV     ?V0 + 0,A
   \   000084   E9           MOV     A,R1
   \   000085   F5..         MOV     ?V0 + 1,A
   \   000087   E5..         MOV     A,?V0 + 2
   \   000089   25..         ADD     A,?V0 + 0
   \   00008B   F8           MOV     R0,A
   \   00008C   E5..         MOV     A,?V0 + 3
   \   00008E   35..         ADDC    A,?V0 + 1
   \   000090   F9           MOV     R1,A
   \   000091   C3           CLR     C
   \   000092   E8           MOV     A,R0
   \   000093   9401         SUBB    A,#0x1
   \   000095   E9           MOV     A,R1
   \   000096   9408         SUBB    A,#0x8
   \   000098   4033         JC      ??initPage_5
   \   00009A   EE           MOV     A,R6
   \   00009B   2408         ADD     A,#0x8
   \   00009D   F8           MOV     R0,A
   \   00009E   EF           MOV     A,R7
   \   00009F   3408         ADDC    A,#0x8
   \   0000A1   F9           MOV     R1,A
   \   0000A2   E8           MOV     A,R0
   \   0000A3   C3           CLR     C
   \   0000A4   95..         SUBB    A,?V0 + 2
   \   0000A6   FE           MOV     R6,A
   \   0000A7   E9           MOV     A,R1
   \   0000A8   95..         SUBB    A,?V0 + 3
   \   0000AA   FF           MOV     R7,A
   \   0000AB   75..00       MOV     ?V0 + 2,#0x0
   \   0000AE   75..08       MOV     ?V0 + 3,#0x8
    460          
    461            pgOff[pg - OSAL_NV_PAGE_BEG] = offset;
   \                     ??initPage_4:
   \   0000B1   E5..         MOV     A,?V0 + 4
   \   0000B3   12....       LCALL   ?Subroutine18 & 0xFFFF
   \                     ??CrossCallReturnLabel_37:
   \   0000B6   E5..         MOV     A,?V0 + 2
   \   0000B8   F0           MOVX    @DPTR,A
   \   0000B9   A3           INC     DPTR
   \   0000BA   E5..         MOV     A,?V0 + 3
   \   0000BC   12....       LCALL   ?Subroutine6 & 0xFFFF
    462            pgLost[pg - OSAL_NV_PAGE_BEG] = lost;
   \                     ??CrossCallReturnLabel_2:
   \   0000BF   EE           MOV     A,R6
   \   0000C0   F0           MOVX    @DPTR,A
   \   0000C1   A3           INC     DPTR
   \   0000C2   EF           MOV     A,R7
   \   0000C3   F0           MOVX    @DPTR,A
    463          
    464            return OSAL_NV_ITEM_NULL;
   \   0000C4   7A00         MOV     R2,#0x0
   \   0000C6   7B00         MOV     R3,#0x0
   \                     ??initPage_6:
   \   0000C8   7408         MOV     A,#0x8
   \   0000CA   02....       LJMP    ??Subroutine32_0 & 0xFFFF
   \                     ??initPage_5:
   \   0000CD   85..82       MOV     DPL,?XSP + 0
   \   0000D0   85..83       MOV     DPH,?XSP + 1
   \   0000D3   12....       LCALL   ?Subroutine11 & 0xFFFF
   \                     ??CrossCallReturnLabel_12:
   \   0000D6   7003         JNZ     $+5
   \   0000D8   02....       LJMP    ??initPage_1 & 0xFFFF
   \   0000DB   E5..         MOV     A,?V0 + 6
   \   0000DD   45..         ORL     A,?V0 + 7
   \   0000DF   6049         JZ      ??initPage_7
   \   0000E1   A8..         MOV     R0,?V0 + 6
   \   0000E3   E5..         MOV     A,?V0 + 7
   \   0000E5   547F         ANL     A,#0x7f
   \   0000E7   F9           MOV     R1,A
   \   0000E8   85..82       MOV     DPL,?XSP + 0
   \   0000EB   85..83       MOV     DPH,?XSP + 1
   \   0000EE   E0           MOVX    A,@DPTR
   \   0000EF   68           XRL     A,R0
   \   0000F0   7003         JNZ     ??initPage_8
   \   0000F2   A3           INC     DPTR
   \   0000F3   E0           MOVX    A,@DPTR
   \   0000F4   69           XRL     A,R1
   \                     ??initPage_8:
   \   0000F5   6003         JZ      $+5
   \   0000F7   02....       LJMP    ??initPage_2 & 0xFFFF
   \   0000FA   7406         MOV     A,#0x6
   \   0000FC   12....       LCALL   ?XSTACK_DISP0_8
   \   0000FF   12....       LCALL   ?Subroutine12 & 0xFFFF
   \                     ??CrossCallReturnLabel_15:
   \   000102   E5..         MOV     A,?V0 + 7
   \   000104   5480         ANL     A,#0x80
   \   000106   700F         JNZ     ??initPage_9
   \   000108   74FF         MOV     A,#-0x1
   \   00010A   68           XRL     A,R0
   \   00010B   7003         JNZ     ??initPage_10
   \   00010D   74FF         MOV     A,#-0x1
   \   00010F   69           XRL     A,R1
   \                     ??initPage_10:
   \   000110   6003         JZ      $+5
   \   000112   02....       LJMP    ??initPage_2 & 0xFFFF
   \   000115   800D         SJMP    ??initPage_11
   \                     ??initPage_9:
   \   000117   74FF         MOV     A,#-0x1
   \   000119   68           XRL     A,R0
   \   00011A   7003         JNZ     ??initPage_12
   \   00011C   74FF         MOV     A,#-0x1
   \   00011E   69           XRL     A,R1
   \                     ??initPage_12:
   \   00011F   7003         JNZ     $+5
   \   000121   02....       LJMP    ??initPage_2 & 0xFFFF
   \                     ??initPage_11:
   \   000124   AA..         MOV     R2,?V0 + 2
   \   000126   AB..         MOV     R3,?V0 + 3
   \   000128   809E         SJMP    ??initPage_6
   \                     ??initPage_7:
   \   00012A                ; Setup parameters for call to function calcChkF
   \   00012A   AA..         MOV     R2,?V0 + 2
   \   00012C   AB..         MOV     R3,?V0 + 3
   \   00012E   A9..         MOV     R1,?V0 + 4
   \   000130   12....       LCALL   ??calcChkF?relay
   \   000133   8A..         MOV     ?V0 + 8,R2
   \   000135   8B..         MOV     ?V0 + 9,R3
   \   000137   A8..         MOV     R0,?V0 + 8
   \   000139   A9..         MOV     R1,?V0 + 9
   \   00013B   7404         MOV     A,#0x4
   \   00013D   12....       LCALL   ?XSTACK_DISP0_8
   \   000140   E0           MOVX    A,@DPTR
   \   000141   68           XRL     A,R0
   \   000142   7003         JNZ     ??initPage_13
   \   000144   A3           INC     DPTR
   \   000145   E0           MOVX    A,@DPTR
   \   000146   69           XRL     A,R1
   \                     ??initPage_13:
   \   000147   7051         JNZ     ??initPage_14
   \   000149   7406         MOV     A,#0x6
   \   00014B   12....       LCALL   ?XSTACK_DISP0_8
   \   00014E   12....       LCALL   ?Subroutine12 & 0xFFFF
   \                     ??CrossCallReturnLabel_16:
   \   000151   E5..         MOV     A,?V0 + 5
   \   000153   6031         JZ      ??initPage_15
   \   000155   74FF         MOV     A,#-0x1
   \   000157   68           XRL     A,R0
   \   000158   7003         JNZ     ??initPage_16
   \   00015A   74FF         MOV     A,#-0x1
   \   00015C   69           XRL     A,R1
   \                     ??initPage_16:
   \   00015D   6003         JZ      $+5
   \   00015F   02....       LJMP    ??initPage_2 & 0xFFFF
   \   000162                ; Setup parameters for call to function findItem
   \   000162   85..82       MOV     DPL,?XSP + 0
   \   000165   85..83       MOV     DPH,?XSP + 1
   \   000168   E0           MOVX    A,@DPTR
   \   000169   FA           MOV     R2,A
   \   00016A   A3           INC     DPTR
   \   00016B   E0           MOVX    A,@DPTR
   \   00016C   4480         ORL     A,#0x80
   \   00016E   FB           MOV     R3,A
   \   00016F   12....       LCALL   ??findItem?relay
   \   000172   EA           MOV     A,R2
   \   000173   4B           ORL     A,R3
   \   000174   7003         JNZ     $+5
   \   000176   02....       LJMP    ??initPage_2 & 0xFFFF
   \   000179                ; Setup parameters for call to function setItem
   \   000179   7C01         MOV     R4,#0x1
   \   00017B   90....       MOV     DPTR,#findPg
   \   00017E   E0           MOVX    A,@DPTR
   \   00017F   F9           MOV     R1,A
   \   000180   12....       LCALL   ??setItem?relay
   \   000183   02....       LJMP    ??initPage_2 & 0xFFFF
   \                     ??initPage_15:
   \   000186   74FF         MOV     A,#-0x1
   \   000188   68           XRL     A,R0
   \   000189   7003         JNZ     ??initPage_17
   \   00018B   74FF         MOV     A,#-0x1
   \   00018D   69           XRL     A,R1
   \                     ??initPage_17:
   \   00018E   7003         JNZ     $+5
   \   000190   02....       LJMP    ??initPage_2 & 0xFFFF
   \   000193   7AFF         MOV     R2,#-0x1
   \   000195   7BFF         MOV     R3,#-0x1
   \   000197   02....       LJMP    ??initPage_6 & 0xFFFF
   \                     ??initPage_14:
   \   00019A                ; Setup parameters for call to function setItem
   \   00019A   7C01         MOV     R4,#0x1
   \   00019C   AA..         MOV     R2,?V0 + 2
   \   00019E   AB..         MOV     R3,?V0 + 3
   \   0001A0   A9..         MOV     R1,?V0 + 4
   \   0001A2   12....       LCALL   ??setItem?relay
   \   0001A5   02....       LJMP    ??initPage_1 & 0xFFFF
    465          }

   \                                 In  segment BANKED_CODE, align 1, keep-with-next
   \                     ?Subroutine18:
   \   000000   12....       LCALL   ?Subroutine26 & 0xFFFF
   \                     ??CrossCallReturnLabel_55:
   \   000003   22           RET

   \                                 In  segment BANKED_CODE, align 1, keep-with-next
   \                     ?Subroutine6:
   \   000000   F0           MOVX    @DPTR,A
   \   000001   12....       LCALL   ?Subroutine27 & 0xFFFF
   \                     ??CrossCallReturnLabel_57:
   \   000004   22           RET

   \                                 In  segment BANKED_CODE, align 1, keep-with-next
   \                     ?Subroutine27:
   \   000000   74..         MOV     A,#(pgLost + 14) & 0xff
   \   000002   28           ADD     A,R0
   \   000003   F582         MOV     DPL,A
   \   000005   74..         MOV     A,#((pgLost - 242) >> 8) & 0xff
   \   000007   39           ADDC    A,R1
   \   000008   F583         MOV     DPH,A
   \   00000A   22           RET

   \                                 In  segment BANKED_CODE, align 1, keep-with-next
   \                     ?Subroutine16:
   \   000000   EC           MOV     A,R4
   \   000001   2403         ADD     A,#0x3
   \   000003   F8           MOV     R0,A
   \   000004   ED           MOV     A,R5
   \   000005   3400         ADDC    A,#0x0
   \   000007   F9           MOV     R1,A
   \   000008   E8           MOV     A,R0
   \   000009   54FC         ANL     A,#0xfc
   \   00000B   22           RET

   \                                 In  segment BANKED_CODE, align 1, keep-with-next
   \                     ?Subroutine15:
   \   000000   E0           MOVX    A,@DPTR
   \   000001   FC           MOV     R4,A
   \   000002   A3           INC     DPTR
   \   000003   E0           MOVX    A,@DPTR
   \   000004   FD           MOV     R5,A
   \   000005   22           RET

   \                                 In  segment BANKED_CODE, align 1, keep-with-next
   \                     ?Subroutine11:
   \   000000   E0           MOVX    A,@DPTR
   \   000001   F8           MOV     R0,A
   \   000002   A3           INC     DPTR
   \   000003   E0           MOVX    A,@DPTR
   \   000004   F9           MOV     R1,A
   \   000005   E8           MOV     A,R0
   \   000006   49           ORL     A,R1
   \   000007   22           RET

   \                                 In  segment BANKED_CODE, align 1, keep-with-next
   \                     ?Subroutine26:
   \   000000   C3           CLR     C
   \   000001   33           RLC     A
   \   000002   F8           MOV     R0,A
   \   000003   E4           CLR     A
   \   000004   33           RLC     A
   \   000005   F9           MOV     R1,A
   \   000006   74..         MOV     A,#(pgOff + 14) & 0xff
   \   000008   28           ADD     A,R0
   \   000009   F582         MOV     DPL,A
   \   00000B   74..         MOV     A,#((pgOff - 242) >> 8) & 0xff
   \   00000D   39           ADDC    A,R1
   \   00000E   F583         MOV     DPH,A
   \   000010   22           RET

   \                                 In  segment BANKED_CODE, align 1, keep-with-next
   \                     ??Subroutine32_0:
   \   000000   12....       LCALL   ?DEALLOC_XSTACK8
   \   000003   7F0A         MOV     R7,#0xa
   \   000005   02....       LJMP    ?BANKED_LEAVE_XDATA

   \                                 In  segment BANKED_CODE, align 1, keep-with-next
   \                     ?Subroutine12:
   \   000000   E0           MOVX    A,@DPTR
   \   000001   F8           MOV     R0,A
   \   000002   A3           INC     DPTR
   \   000003   E0           MOVX    A,@DPTR
   \   000004   F9           MOV     R1,A
   \   000005   22           RET
    466          
    467          /*********************************************************************
    468           * @fn      erasePage
    469           *
    470           * @brief   Erases a page in Flash.
    471           *
    472           * @param   pg - Valid NV page to erase.
    473           *
    474           * @return  none
    475           */

   \                                 In  segment BANKED_CODE, align 1, keep-with-next
    476          static void erasePage( uint8 pg )
   \                     erasePage:
    477          {
   \   000000   74F7         MOV     A,#-0x9
   \   000002   12....       LCALL   ?BANKED_ENTER_XDATA
   \   000005                ; Saved register size: 9
   \   000005                ; Auto size: 0
   \   000005   E9           MOV     A,R1
   \   000006   FE           MOV     R6,A
    478            if ( !OSAL_NV_CHECK_BUS_VOLTAGE )
   \   000007                ; Setup parameters for call to function HalAdcCheckVdd
   \   000007   7904         MOV     R1,#0x4
   \   000009   12....       LCALL   ??HalAdcCheckVdd?relay
   \   00000C   E9           MOV     A,R1
   \   00000D   7007         JNZ     ??erasePage_0
    479            {
    480              failF = TRUE;
   \   00000F   90....       MOV     DPTR,#failF
   \   000012   7401         MOV     A,#0x1
   \   000014   8014         SJMP    ??erasePage_1
    481              return;
    482            }
    483          
    484            HalFlashErase(pg);
   \                     ??erasePage_0:
   \   000016                ; Setup parameters for call to function HalFlashErase
   \   000016   EE           MOV     A,R6
   \   000017   F9           MOV     R1,A
   \   000018   12....       LCALL   ??HalFlashErase?relay
    485          
    486            pgOff[pg - OSAL_NV_PAGE_BEG] = OSAL_NV_PAGE_HDR_SIZE;
   \   00001B   EE           MOV     A,R6
   \   00001C   12....       LCALL   ?Subroutine18 & 0xFFFF
   \                     ??CrossCallReturnLabel_38:
   \   00001F   7408         MOV     A,#0x8
   \   000021   F0           MOVX    @DPTR,A
   \   000022   A3           INC     DPTR
   \   000023   E4           CLR     A
   \   000024   12....       LCALL   ?Subroutine6 & 0xFFFF
    487            pgLost[pg - OSAL_NV_PAGE_BEG] = 0;
   \                     ??CrossCallReturnLabel_3:
   \   000027   E4           CLR     A
   \   000028   F0           MOVX    @DPTR,A
   \   000029   A3           INC     DPTR
   \                     ??erasePage_1:
   \   00002A   F0           MOVX    @DPTR,A
    488          }
   \   00002B   02....       LJMP    ??Subroutine28_0 & 0xFFFF
    489          
    490          /*********************************************************************
    491           * @fn      compactPage
    492           *
    493           * @brief   Compacts the page specified.
    494           *
    495           * @param   srcPg - Valid NV page to erase.
    496           *
    497           * @return  none
    498           */

   \                                 In  segment BANKED_CODE, align 1, keep-with-next
    499          static void compactPage( uint8 srcPg )
   \                     compactPage:
    500          {
   \   000000   74F2         MOV     A,#-0xe
   \   000002   12....       LCALL   ?BANKED_ENTER_XDATA
   \   000005                ; Saved register size: 14
   \   000005                ; Auto size: 10
   \   000005   74F6         MOV     A,#-0xa
   \   000007   12....       LCALL   ?ALLOC_XSTACK8
   \   00000A   E9           MOV     A,R1
   \   00000B   FE           MOV     R6,A
    501            uint16 dstOff = pgOff[pgRes-OSAL_NV_PAGE_BEG];
   \   00000C   12....       LCALL   ?Subroutine8 & 0xFFFF
   \                     ??CrossCallReturnLabel_4:
   \   00000F   E0           MOVX    A,@DPTR
   \   000010   F5..         MOV     ?V0 + 0,A
   \   000012   A3           INC     DPTR
   \   000013   E0           MOVX    A,@DPTR
   \   000014   F5..         MOV     ?V0 + 1,A
    502            uint16 srcOff = OSAL_NV_ZEROED_ID;
   \   000016   12....       LCALL   ?Subroutine4 & 0xFFFF
    503            osalNvHdr_t hdr;
    504          
    505            // Mark page as being in process of compaction.
    506            writeWordH( srcPg, OSAL_NV_PG_XFER, (uint8*)(&srcOff) );
   \                     ??CrossCallReturnLabel_63:
   \   000019   7A04         MOV     R2,#0x4
   \   00001B   FB           MOV     R3,A
   \   00001C   EE           MOV     A,R6
   \   00001D   F9           MOV     R1,A
   \   00001E   12....       LCALL   ??writeWordH?relay
    507          
    508            srcOff = OSAL_NV_PAGE_HDR_SIZE;
   \   000021   85..82       MOV     DPL,?XSP + 0
   \   000024   85..83       MOV     DPH,?XSP + 1
   \   000027   7408         MOV     A,#0x8
   \   000029   F0           MOVX    @DPTR,A
   \   00002A   A3           INC     DPTR
   \   00002B   E4           CLR     A
   \   00002C   02....       LJMP    ??compactPage_0 & 0xFFFF
    509          
    510            do
    511            {
    512              uint16 sz;
    513              HalFlashRead(srcPg, srcOff, (uint8 *)(&hdr), OSAL_NV_HDR_SIZE);
    514          
    515              if ( hdr.id == OSAL_NV_ERASED_ID )
    516              {
    517                break;
    518              }
    519          
    520              srcOff += OSAL_NV_HDR_SIZE;
    521          
    522              if ( (srcOff + hdr.len) > OSAL_NV_PAGE_FREE )
    523              {
    524                break;
    525              }
    526          
    527              sz = OSAL_NV_DATA_SIZE( hdr.len );
   \                     ??compactPage_1:
   \   00002F   12....       LCALL   ?Subroutine16 & 0xFFFF
   \                     ??CrossCallReturnLabel_33:
   \   000032   F5..         MOV     ?V0 + 4,A
   \   000034   E9           MOV     A,R1
   \   000035   F5..         MOV     ?V0 + 5,A
    528          
    529              if ( hdr.id != OSAL_NV_ZEROED_ID )
   \   000037   7402         MOV     A,#0x2
   \   000039   12....       LCALL   ?XSTACK_DISP0_8
   \   00003C   12....       LCALL   ?Subroutine11 & 0xFFFF
   \                     ??CrossCallReturnLabel_13:
   \   00003F   7003         JNZ     $+5
   \   000041   02....       LJMP    ??compactPage_2 & 0xFFFF
    530              {
    531                if ( hdr.chk == calcChkF( srcPg, srcOff, hdr.len ) )
   \   000044                ; Setup parameters for call to function calcChkF
   \   000044   12....       LCALL   ?Subroutine7 & 0xFFFF
   \                     ??CrossCallReturnLabel_60:
   \   000047   12....       LCALL   ??calcChkF?relay
   \   00004A   8A..         MOV     ?V0 + 2,R2
   \   00004C   8B..         MOV     ?V0 + 3,R3
   \   00004E   A8..         MOV     R0,?V0 + 2
   \   000050   A9..         MOV     R1,?V0 + 3
   \   000052   7406         MOV     A,#0x6
   \   000054   12....       LCALL   ?XSTACK_DISP0_8
   \   000057   E0           MOVX    A,@DPTR
   \   000058   68           XRL     A,R0
   \   000059   7003         JNZ     ??compactPage_3
   \   00005B   A3           INC     DPTR
   \   00005C   E0           MOVX    A,@DPTR
   \   00005D   69           XRL     A,R1
   \                     ??compactPage_3:
   \   00005E   7064         JNZ     ??compactPage_4
    532                {
    533                  setItem( srcPg, srcOff, eNvXfer );
   \   000060                ; Setup parameters for call to function setItem
   \   000060   7C00         MOV     R4,#0x0
   \   000062   12....       LCALL   ?Subroutine7 & 0xFFFF
   \                     ??CrossCallReturnLabel_61:
   \   000065   12....       LCALL   ??setItem?relay
    534                  writeBuf( pgRes, dstOff, OSAL_NV_HDR_SIZE, (byte *)(&hdr) );
   \   000068                ; Setup parameters for call to function writeBuf
   \   000068   7402         MOV     A,#0x2
   \   00006A   12....       LCALL   ?XSTACK_DISP0_8
   \   00006D   8582..       MOV     ?V0 + 2,DPL
   \   000070   8583..       MOV     ?V0 + 3,DPH
   \   000073   78..         MOV     R0,#?V0 + 2
   \   000075   12....       LCALL   ?PUSH_XSTACK_I_TWO
   \   000078   7C08         MOV     R4,#0x8
   \   00007A   7D00         MOV     R5,#0x0
   \   00007C   AA..         MOV     R2,?V0 + 0
   \   00007E   AB..         MOV     R3,?V0 + 1
   \   000080   90....       MOV     DPTR,#pgRes
   \   000083   E0           MOVX    A,@DPTR
   \   000084   F9           MOV     R1,A
   \   000085   12....       LCALL   ??writeBuf?relay
   \   000088   7402         MOV     A,#0x2
   \   00008A   12....       LCALL   ?DEALLOC_XSTACK8
    535                  dstOff += OSAL_NV_HDR_SIZE;
   \   00008D   E5..         MOV     A,?V0 + 0
   \   00008F   2408         ADD     A,#0x8
   \   000091   F5..         MOV     ?V0 + 0,A
   \   000093   E5..         MOV     A,?V0 + 1
   \   000095   3400         ADDC    A,#0x0
   \   000097   F5..         MOV     ?V0 + 1,A
    536                  xferBuf( srcPg, srcOff, pgRes, dstOff, sz );
   \   000099                ; Setup parameters for call to function xferBuf
   \   000099   78..         MOV     R0,#?V0 + 4
   \   00009B   12....       LCALL   ?PUSH_XSTACK_I_TWO
   \   00009E   78..         MOV     R0,#?V0 + 0
   \   0000A0   12....       LCALL   ?PUSH_XSTACK_I_TWO
   \   0000A3   90....       MOV     DPTR,#pgRes
   \   0000A6   E0           MOVX    A,@DPTR
   \   0000A7   FC           MOV     R4,A
   \   0000A8   7404         MOV     A,#0x4
   \   0000AA   12....       LCALL   ?XSTACK_DISP0_8
   \   0000AD   12....       LCALL   ??Subroutine29_0 & 0xFFFF
   \                     ??CrossCallReturnLabel_58:
   \   0000B0   12....       LCALL   ??xferBuf?relay
   \   0000B3   7404         MOV     A,#0x4
   \   0000B5   12....       LCALL   ?DEALLOC_XSTACK8
    537                  dstOff += sz;
   \   0000B8   E5..         MOV     A,?V0 + 0
   \   0000BA   25..         ADD     A,?V0 + 4
   \   0000BC   F5..         MOV     ?V0 + 0,A
   \   0000BE   E5..         MOV     A,?V0 + 1
   \   0000C0   35..         ADDC    A,?V0 + 5
   \   0000C2   F5..         MOV     ?V0 + 1,A
    538                }
    539          
    540                setItem( srcPg, srcOff, eNvZero );  // Mark old location as invalid.
   \                     ??compactPage_4:
   \   0000C4                ; Setup parameters for call to function setItem
   \   0000C4   7C01         MOV     R4,#0x1
   \   0000C6   12....       LCALL   ?Subroutine7 & 0xFFFF
    541              }
   \                     ??CrossCallReturnLabel_62:
   \   0000C9   12....       LCALL   ??setItem?relay
    542          
    543              srcOff += sz;
   \                     ??compactPage_2:
   \   0000CC   85..82       MOV     DPL,?XSP + 0
   \   0000CF   85..83       MOV     DPH,?XSP + 1
   \   0000D2   E0           MOVX    A,@DPTR
   \   0000D3   25..         ADD     A,?V0 + 4
   \   0000D5   F0           MOVX    @DPTR,A
   \   0000D6   A3           INC     DPTR
   \   0000D7   E0           MOVX    A,@DPTR
   \   0000D8   35..         ADDC    A,?V0 + 5
   \                     ??compactPage_0:
   \   0000DA   F0           MOVX    @DPTR,A
    544          
    545            } while ( TRUE );
   \   0000DB                ; Setup parameters for call to function HalFlashRead
   \   0000DB   75..08       MOV     ?V0 + 2,#0x8
   \   0000DE   75..00       MOV     ?V0 + 3,#0x0
   \   0000E1   78..         MOV     R0,#?V0 + 2
   \   0000E3   12....       LCALL   ?PUSH_XSTACK_I_TWO
   \   0000E6   7404         MOV     A,#0x4
   \   0000E8   12....       LCALL   ?XSTACK_DISP0_8
   \   0000EB   AC82         MOV     R4,DPL
   \   0000ED   AD83         MOV     R5,DPH
   \   0000EF   7402         MOV     A,#0x2
   \   0000F1   12....       LCALL   ?XSTACK_DISP0_8
   \   0000F4   12....       LCALL   ??Subroutine29_0 & 0xFFFF
   \                     ??CrossCallReturnLabel_59:
   \   0000F7   12....       LCALL   ??HalFlashRead?relay
   \   0000FA   7402         MOV     A,#0x2
   \   0000FC   12....       LCALL   ?DEALLOC_XSTACK8
   \   0000FF   7402         MOV     A,#0x2
   \   000101   12....       LCALL   ?XSTACK_DISP0_8
   \   000104   E0           MOVX    A,@DPTR
   \   000105   F4           CPL     A
   \   000106   7003         JNZ     ??compactPage_5
   \   000108   A3           INC     DPTR
   \   000109   E0           MOVX    A,@DPTR
   \   00010A   F4           CPL     A
   \                     ??compactPage_5:
   \   00010B   6030         JZ      ??compactPage_6
   \   00010D   85..82       MOV     DPL,?XSP + 0
   \   000110   85..83       MOV     DPH,?XSP + 1
   \   000113   E0           MOVX    A,@DPTR
   \   000114   2408         ADD     A,#0x8
   \   000116   F0           MOVX    @DPTR,A
   \   000117   A3           INC     DPTR
   \   000118   E0           MOVX    A,@DPTR
   \   000119   3400         ADDC    A,#0x0
   \   00011B   F0           MOVX    @DPTR,A
   \   00011C   7404         MOV     A,#0x4
   \   00011E   12....       LCALL   ?XSTACK_DISP0_8
   \   000121   12....       LCALL   ?Subroutine15 & 0xFFFF
   \                     ??CrossCallReturnLabel_29:
   \   000124   85..82       MOV     DPL,?XSP + 0
   \   000127   85..83       MOV     DPH,?XSP + 1
   \   00012A   E0           MOVX    A,@DPTR
   \   00012B   2C           ADD     A,R4
   \   00012C   F8           MOV     R0,A
   \   00012D   A3           INC     DPTR
   \   00012E   E0           MOVX    A,@DPTR
   \   00012F   3D           ADDC    A,R5
   \   000130   F9           MOV     R1,A
   \   000131   C3           CLR     C
   \   000132   E8           MOV     A,R0
   \   000133   9401         SUBB    A,#0x1
   \   000135   E9           MOV     A,R1
   \   000136   9408         SUBB    A,#0x8
   \   000138   5003         JNC     $+5
   \   00013A   02....       LJMP    ??compactPage_1 & 0xFFFF
    546          
    547            pgOff[pgRes-OSAL_NV_PAGE_BEG] = dstOff;
   \                     ??compactPage_6:
   \   00013D   12....       LCALL   ?Subroutine8 & 0xFFFF
   \                     ??CrossCallReturnLabel_5:
   \   000140   E5..         MOV     A,?V0 + 0
   \   000142   F0           MOVX    @DPTR,A
   \   000143   A3           INC     DPTR
   \   000144   E5..         MOV     A,?V0 + 1
   \   000146   F0           MOVX    @DPTR,A
    548          
    549            /* In order to recover from a page compaction that is interrupted,
    550             * the logic in osal_nv_init() depends upon the following order:
    551             * 1. Compacted page is erased.
    552             * 2. State of the target of compaction is changed ePgActive to ePgInUse.
    553             */
    554            erasePage( srcPg );
   \   000147                ; Setup parameters for call to function erasePage
   \   000147   EE           MOV     A,R6
   \   000148   F9           MOV     R1,A
   \   000149   12....       LCALL   ??erasePage?relay
    555          
    556            // Mark the reserve page as being in use.
    557            setPageUse( pgRes, TRUE );
   \   00014C                ; Setup parameters for call to function setPageUse
   \   00014C   7A01         MOV     R2,#0x1
   \   00014E   90....       MOV     DPTR,#pgRes
   \   000151   E0           MOVX    A,@DPTR
   \   000152   F9           MOV     R1,A
   \   000153   12....       LCALL   ??setPageUse?relay
    558          
    559            // Set the reserve page to be the newly erased page.
    560            pgRes = srcPg;
   \   000156   EE           MOV     A,R6
   \   000157   90....       MOV     DPTR,#pgRes
   \   00015A   F0           MOVX    @DPTR,A
    561          }
   \   00015B   740A         MOV     A,#0xa
   \   00015D   02....       LJMP    ?Subroutine3 & 0xFFFF

   \                                 In  segment BANKED_CODE, align 1, keep-with-next
   \                     ?Subroutine8:
   \   000000   90....       MOV     DPTR,#pgRes
   \   000003   E0           MOVX    A,@DPTR
   \   000004   12....       LCALL   ?Subroutine26 & 0xFFFF
   \                     ??CrossCallReturnLabel_54:
   \   000007   22           RET

   \                                 In  segment BANKED_CODE, align 1, keep-with-next
   \                     ?Subroutine7:
   \   000000   85..82       MOV     DPL,?XSP + 0
   \   000003   85..83       MOV     DPH,?XSP + 1
   \   000006                REQUIRE ??Subroutine29_0
   \   000006                ; // Fall through to label ??Subroutine29_0

   \                                 In  segment BANKED_CODE, align 1, keep-with-next
   \                     ??Subroutine29_0:
   \   000000   E0           MOVX    A,@DPTR
   \   000001   FA           MOV     R2,A
   \   000002   A3           INC     DPTR
   \   000003   E0           MOVX    A,@DPTR
   \   000004   FB           MOV     R3,A
   \   000005   EE           MOV     A,R6
   \   000006   F9           MOV     R1,A
   \   000007   22           RET

   \                                 In  segment BANKED_CODE, align 1, keep-with-next
   \                     ?Subroutine4:
   \   000000   85..82       MOV     DPL,?XSP + 0
   \   000003   85..83       MOV     DPH,?XSP + 1
   \   000006   E4           CLR     A
   \   000007                REQUIRE ??Subroutine30_0
   \   000007                ; // Fall through to label ??Subroutine30_0

   \                                 In  segment BANKED_CODE, align 1, keep-with-next
   \                     ?Subroutine3:
   \   000000   12....       LCALL   ?DEALLOC_XSTACK8
   \   000003                REQUIRE ??Subroutine33_0
   \   000003                ; // Fall through to label ??Subroutine33_0

   \                                 In  segment BANKED_CODE, align 1, keep-with-next
   \                     ??Subroutine33_0:
   \   000000   7F06         MOV     R7,#0x6
   \   000002   02....       LJMP    ?BANKED_LEAVE_XDATA
    562          
    563          /*********************************************************************
    564           * @fn      findItem
    565           *
    566           * @brief   Find an item Id in NV and return the page and offset to its data.
    567           *
    568           * @param   id - Valid NV item Id.
    569           *
    570           * @return  Offset of data corresponding to item Id, if found;
    571           *          otherwise OSAL_NV_ITEM_NULL.
    572           *
    573           *          The page containing the item, if found;
    574           *          otherwise no valid assignment made - left equal to item Id.
    575           *
    576           */

   \                                 In  segment BANKED_CODE, align 1, keep-with-next
    577          static uint16 findItem( uint16 id )
   \                     findItem:
    578          {
   \   000000   74F4         MOV     A,#-0xc
   \   000002   12....       LCALL   ?BANKED_ENTER_XDATA
   \   000005                ; Saved register size: 12
   \   000005                ; Auto size: 0
   \   000005   EA           MOV     A,R2
   \   000006   FE           MOV     R6,A
   \   000007   EB           MOV     A,R3
   \   000008   8003         SJMP    ??findItem_0
    579            uint16 off;
    580            uint8 pg;
    581          
    582            for ( pg = OSAL_NV_PAGE_BEG; pg <= OSAL_NV_PAGE_END; pg++ )
    583            {
    584              if ( (off = initPage( pg, id, FALSE )) != OSAL_NV_ITEM_NULL )
    585              {
    586                findPg = pg;
    587                return off;
    588              }
    589            }
    590          
    591            // Now attempt to find the item as the "old" item of a failed/interrupted NV write.
    592            if ( (id & OSAL_NV_SOURCE_ID) == 0 )
    593            {
    594              return findItem( id | OSAL_NV_SOURCE_ID );
   \                     ??findItem_1:
   \   00000A   7480         MOV     A,#-0x80
   \   00000C   4F           ORL     A,R7
   \                     ??findItem_0:
   \   00000D   FF           MOV     R7,A
    595            }
   \   00000E   75..79       MOV     ?V0 + 0,#0x79
   \                     ??findItem_2:
   \   000011                ; Setup parameters for call to function initPage
   \   000011   7C00         MOV     R4,#0x0
   \   000013   EE           MOV     A,R6
   \   000014   FA           MOV     R2,A
   \   000015   EF           MOV     A,R7
   \   000016   FB           MOV     R3,A
   \   000017   A9..         MOV     R1,?V0 + 0
   \   000019   12....       LCALL   ??initPage?relay
   \   00001C   EA           MOV     A,R2
   \   00001D   4B           ORL     A,R3
   \   00001E   6008         JZ      ??findItem_3
   \   000020   E5..         MOV     A,?V0 + 0
   \   000022   90....       MOV     DPTR,#findPg
   \   000025   F0           MOVX    @DPTR,A
   \   000026   8015         SJMP    ??findItem_4
   \                     ??findItem_3:
   \   000028   05..         INC     ?V0 + 0
   \   00002A   E5..         MOV     A,?V0 + 0
   \   00002C   C3           CLR     C
   \   00002D   947F         SUBB    A,#0x7f
   \   00002F   40E0         JC      ??findItem_2
   \   000031   EF           MOV     A,R7
   \   000032   5480         ANL     A,#0x80
   \   000034   60D4         JZ      ??findItem_1
    596            else
    597            {
    598              findPg = OSAL_NV_PAGE_NULL;
   \   000036   90....       MOV     DPTR,#findPg
   \   000039   E4           CLR     A
   \   00003A   F0           MOVX    @DPTR,A
    599              return OSAL_NV_ITEM_NULL;
   \   00003B   FA           MOV     R2,A
   \   00003C   FB           MOV     R3,A
    600            }
   \                     ??findItem_4:
   \   00003D   02....       LJMP    ?Subroutine0 & 0xFFFF
    601          }
    602          
    603          /*********************************************************************
    604           * @fn      initItem
    605           *
    606           * @brief   An NV item is created and initialized with the data passed to the function, if any.
    607           *
    608           * @param   id  - Valid NV item Id.
    609           * @param   len - Item data length.
    610           * @param  *buf - Pointer to item initalization data. Set to NULL if none.
    611           *
    612           * @return  TRUE if item write and read back checksums ok; FALSE otherwise.
    613           */

   \                                 In  segment BANKED_CODE, align 1, keep-with-next
    614          static uint8 initItem( uint8 flag, uint16 id, uint16 len, void *buf )
   \                     initItem:
    615          {
   \   000000   74F1         MOV     A,#-0xf
   \   000002   12....       LCALL   ?BANKED_ENTER_XDATA
   \   000005                ; Saved register size: 15
   \   000005                ; Auto size: 0
   \   000005   E9           MOV     A,R1
   \   000006   FF           MOV     R7,A
    616            uint16 sz = OSAL_NV_ITEM_SIZE( len );
   \   000007   12....       LCALL   ?Subroutine16 & 0xFFFF
   \                     ??CrossCallReturnLabel_34:
   \   00000A   2408         ADD     A,#0x8
   \   00000C   F5..         MOV     ?V0 + 2,A
   \   00000E   E9           MOV     A,R1
   \   00000F   3400         ADDC    A,#0x0
   \   000011   F5..         MOV     ?V0 + 3,A
    617            uint8 rtrn = FALSE;
   \   000013   75..00       MOV     ?V0 + 1,#0x0
    618            uint8 cnt = OSAL_NV_PAGES_USED;
   \   000016   75..06       MOV     ?V0 + 6,#0x6
    619            uint8 pg = pgRes+1;  // Set to 1 after the reserve page to even wear across all available pages.
   \   000019   90....       MOV     DPTR,#pgRes
   \   00001C   E0           MOVX    A,@DPTR
   \   00001D   04           INC     A
   \   00001E   FE           MOV     R6,A
    620            uint8 idx = 0;
    621          
    622            do {
    623              if (pg >= OSAL_NV_PAGE_BEG+OSAL_NV_PAGES_USED)
   \                     ??initItem_0:
   \   00001F   EE           MOV     A,R6
   \   000020   C3           CLR     C
   \   000021   947F         SUBB    A,#0x7f
   \   000023   4002         JC      ??initItem_1
    624              {
    625                pg = OSAL_NV_PAGE_BEG;
   \   000025   7E79         MOV     R6,#0x79
    626              }
    627              if ( pg != pgRes )
   \                     ??initItem_1:
   \   000027   90....       MOV     DPTR,#pgRes
   \   00002A   E0           MOVX    A,@DPTR
   \   00002B   6E           XRL     A,R6
   \   00002C   603C         JZ      ??initItem_2
    628              {
    629                idx = pg - OSAL_NV_PAGE_BEG;
   \   00002E   7487         MOV     A,#-0x79
   \   000030   2E           ADD     A,R6
   \   000031   F5..         MOV     ?V0 + 0,A
    630                if ( (pgOff[idx] - pgLost[idx] + sz) <= OSAL_NV_PAGE_FREE )
   \   000033   C3           CLR     C
   \   000034   33           RLC     A
   \   000035   F8           MOV     R0,A
   \   000036   E4           CLR     A
   \   000037   33           RLC     A
   \   000038   F9           MOV     R1,A
   \   000039   74..         MOV     A,#pgOff & 0xff
   \   00003B   28           ADD     A,R0
   \   00003C   F582         MOV     DPL,A
   \   00003E   74..         MOV     A,#(pgOff >> 8) & 0xff
   \   000040   39           ADDC    A,R1
   \   000041   F583         MOV     DPH,A
   \   000043   E0           MOVX    A,@DPTR
   \   000044   F5..         MOV     ?V0 + 4,A
   \   000046   A3           INC     DPTR
   \   000047   E0           MOVX    A,@DPTR
   \   000048   F5..         MOV     ?V0 + 5,A
   \   00004A   74..         MOV     A,#pgLost & 0xff
   \   00004C   28           ADD     A,R0
   \   00004D   F582         MOV     DPL,A
   \   00004F   74..         MOV     A,#(pgLost >> 8) & 0xff
   \   000051   39           ADDC    A,R1
   \   000052   F583         MOV     DPH,A
   \   000054   12....       LCALL   ?Subroutine12 & 0xFFFF
    631                {
    632                  break;
    633                }
    634              }
   \                     ??CrossCallReturnLabel_17:
   \   000057   E5..         MOV     A,?V0 + 4
   \   000059   C3           CLR     C
   \   00005A   98           SUBB    A,R0
   \   00005B   F8           MOV     R0,A
   \   00005C   E5..         MOV     A,?V0 + 5
   \   00005E   99           SUBB    A,R1
   \   00005F   F9           MOV     R1,A
   \   000060   E8           MOV     A,R0
   \   000061   25..         ADD     A,?V0 + 2
   \   000063   F8           MOV     R0,A
   \   000064   E9           MOV     A,R1
   \   000065   12....       LCALL   ?Subroutine19 & 0xFFFF
   \                     ??CrossCallReturnLabel_39:
   \   000068   4009         JC      ??initItem_3
    635              pg++;
   \                     ??initItem_2:
   \   00006A   0E           INC     R6
    636            } while (--cnt);
   \   00006B   15..         DEC     ?V0 + 6
   \   00006D   E5..         MOV     A,?V0 + 6
   \   00006F   70AE         JNZ     ??initItem_0
   \   000071   8053         SJMP    ??initItem_4
    637          
    638            if (cnt)
   \                     ??initItem_3:
   \   000073   E5..         MOV     A,?V0 + 6
   \   000075   604F         JZ      ??initItem_4
    639            {
    640              // Item fits if an old page is compacted.
    641              if ( (pgOff[idx] + sz) > OSAL_NV_PAGE_FREE )
   \   000077   E5..         MOV     A,?V0 + 4
   \   000079   25..         ADD     A,?V0 + 2
   \   00007B   F8           MOV     R0,A
   \   00007C   E5..         MOV     A,?V0 + 5
   \   00007E   12....       LCALL   ?Subroutine19 & 0xFFFF
   \                     ??CrossCallReturnLabel_40:
   \   000081   4005         JC      ??initItem_5
    642              {
    643                pg = pgRes;
   \   000083   90....       MOV     DPTR,#pgRes
   \   000086   E0           MOVX    A,@DPTR
   \   000087   FE           MOV     R6,A
   \                     ??initItem_5:
   \   000088   740F         MOV     A,#0xf
   \   00008A   12....       LCALL   ?XSTACK_DISP0_8
    644              }
   \   00008D   12....       LCALL   ?Subroutine9 & 0xFFFF
    645          
    646              // New item is the first one written to the reserved page, then the old page is compacted.
    647              rtrn = writeItem( pg, id, len, buf, flag );
   \                     ??CrossCallReturnLabel_6:
   \   000090                ; Setup parameters for call to function writeItem
   \   000090   EF           MOV     A,R7
   \   000091   F5..         MOV     ?V0 + 1,A
   \   000093   78..         MOV     R0,#?V0 + 1
   \   000095   12....       LCALL   ?PUSH_XSTACK_I_ONE
   \   000098   78..         MOV     R0,#?V0 + 2
   \   00009A   12....       LCALL   ?PUSH_XSTACK_I_TWO
   \   00009D   EE           MOV     A,R6
   \   00009E   F9           MOV     R1,A
   \   00009F   12....       LCALL   ??writeItem?relay
   \   0000A2   7403         MOV     A,#0x3
   \   0000A4   12....       LCALL   ?DEALLOC_XSTACK8
   \   0000A7   E9           MOV     A,R1
   \   0000A8   F5..         MOV     ?V0 + 1,A
    648          
    649              if ( pg == pgRes )
   \   0000AA   90....       MOV     DPTR,#pgRes
   \   0000AD   E0           MOVX    A,@DPTR
   \   0000AE   6E           XRL     A,R6
   \   0000AF   7015         JNZ     ??initItem_4
    650              {
    651                if ( flag )
   \   0000B1   7479         MOV     A,#0x79
   \   0000B3   25..         ADD     A,?V0 + 0
   \   0000B5   F9           MOV     R1,A
   \   0000B6   EF           MOV     A,R7
   \   0000B7   6005         JZ      ??initItem_6
    652                {
    653                  compactPage( OSAL_NV_PAGE_BEG+idx );
   \   0000B9                ; Setup parameters for call to function compactPage
   \   0000B9   12....       LCALL   ??compactPage?relay
   \   0000BC   8008         SJMP    ??initItem_4
    654                }
    655                else
    656                {
    657                  *(uint8 *)buf = OSAL_NV_PAGE_BEG+idx;
   \                     ??initItem_6:
   \   0000BE   E9           MOV     A,R1
   \   0000BF   85..82       MOV     DPL,?V0 + 2
   \   0000C2   85..83       MOV     DPH,?V0 + 3
   \   0000C5   F0           MOVX    @DPTR,A
    658                }
    659              }
    660            }
    661          
    662            return rtrn;
   \                     ??initItem_4:
   \   0000C6   A9..         MOV     R1,?V0 + 1
   \   0000C8   7F07         MOV     R7,#0x7
   \   0000CA   02....       LJMP    ?BANKED_LEAVE_XDATA
    663          }

   \                                 In  segment BANKED_CODE, align 1, keep-with-next
   \                     ?Subroutine19:
   \   000000   35..         ADDC    A,?V0 + 3
   \   000002   F9           MOV     R1,A
   \   000003   C3           CLR     C
   \   000004   E8           MOV     A,R0
   \   000005   9401         SUBB    A,#0x1
   \   000007   E9           MOV     A,R1
   \   000008   9408         SUBB    A,#0x8
   \   00000A   22           RET

   \                                 In  segment BANKED_CODE, align 1, keep-with-next
   \                     ?Subroutine9:
   \   000000   E0           MOVX    A,@DPTR
   \   000001   F5..         MOV     ?V0 + 2,A
   \   000003   A3           INC     DPTR
   \   000004   E0           MOVX    A,@DPTR
   \   000005   F5..         MOV     ?V0 + 3,A
   \   000007   22           RET
    664          
    665          /*********************************************************************
    666           * @fn      setItem
    667           *
    668           * @brief   Set an item Id or status to mark its state.
    669           *
    670           * @param   pg - Valid NV page.
    671           * @param   offset - Valid offset into the page of the item data - the header
    672           *                   offset is calculated from this.
    673           * @param   stat - Valid enum value for the item status.
    674           *
    675           * @return  none
    676           */

   \                                 In  segment BANKED_CODE, align 1, keep-with-next
    677          static void setItem( uint8 pg, uint16 offset, eNvHdrEnum stat )
   \                     setItem:
    678          {
   \   000000   74F2         MOV     A,#-0xe
   \   000002   12....       LCALL   ?BANKED_ENTER_XDATA
   \   000005                ; Saved register size: 14
   \   000005                ; Auto size: 8
   \   000005   74F8         MOV     A,#-0x8
   \   000007   12....       LCALL   ?ALLOC_XSTACK8
   \   00000A   89..         MOV     ?V0 + 1,R1
   \   00000C   8C..         MOV     ?V0 + 0,R4
    679            osalNvHdr_t hdr;
    680          
    681            offset -= OSAL_NV_HDR_SIZE;
   \   00000E   EA           MOV     A,R2
   \   00000F   24F8         ADD     A,#-0x8
   \   000011   F5..         MOV     ?V0 + 2,A
   \   000013   EB           MOV     A,R3
   \   000014   34FF         ADDC    A,#-0x1
   \   000016   F5..         MOV     ?V0 + 3,A
    682            HalFlashRead(pg, offset, (uint8 *)(&hdr), OSAL_NV_HDR_SIZE);
   \   000018                ; Setup parameters for call to function HalFlashRead
   \   000018   75..08       MOV     ?V0 + 4,#0x8
   \   00001B   75..00       MOV     ?V0 + 5,#0x0
   \   00001E   78..         MOV     R0,#?V0 + 4
   \   000020   12....       LCALL   ?PUSH_XSTACK_I_TWO
   \   000023   7402         MOV     A,#0x2
   \   000025   12....       LCALL   ?XSTACK_DISP0_8
   \   000028   AC82         MOV     R4,DPL
   \   00002A   AD83         MOV     R5,DPH
   \   00002C   AA..         MOV     R2,?V0 + 2
   \   00002E   AB..         MOV     R3,?V0 + 3
   \   000030   12....       LCALL   ??HalFlashRead?relay
   \   000033   7402         MOV     A,#0x2
   \   000035   12....       LCALL   ?DEALLOC_XSTACK8
    683          
    684            if ( stat == eNvXfer )
   \   000038   E5..         MOV     A,?V0 + 0
   \   00003A   7023         JNZ     ??setItem_0
    685            {
    686              hdr.stat = OSAL_NV_ACTIVE;
   \   00003C   7406         MOV     A,#0x6
   \   00003E   12....       LCALL   ?XSTACK_DISP0_8
   \   000041   E4           CLR     A
   \   000042   F0           MOVX    @DPTR,A
   \   000043   A3           INC     DPTR
   \   000044   F0           MOVX    @DPTR,A
    687              writeWord( pg, offset+OSAL_NV_HDR_CHK, (uint8*)(&(hdr.chk)) );
   \   000045                ; Setup parameters for call to function writeWord
   \   000045   7404         MOV     A,#0x4
   \   000047   12....       LCALL   ?XSTACK_DISP0_8
   \   00004A   AC82         MOV     R4,DPL
   \   00004C   AD83         MOV     R5,DPH
   \   00004E   E5..         MOV     A,?V0 + 2
   \   000050   2404         ADD     A,#0x4
   \   000052   FA           MOV     R2,A
   \   000053   E5..         MOV     A,?V0 + 3
   \   000055   3400         ADDC    A,#0x0
   \   000057   FB           MOV     R3,A
   \   000058   A9..         MOV     R1,?V0 + 1
   \   00005A   12....       LCALL   ??writeWord?relay
   \   00005D   802B         SJMP    ??setItem_1
    688          }
    689            else // if ( stat == eNvZero )
    690            {
    691              uint16 sz = ((hdr.len + (OSAL_NV_WORD_SIZE-1)) / OSAL_NV_WORD_SIZE) * OSAL_NV_WORD_SIZE +
    692                                                                                    OSAL_NV_HDR_SIZE;
   \                     ??setItem_0:
   \   00005F   7402         MOV     A,#0x2
   \   000061   12....       LCALL   ?XSTACK_DISP0_8
   \   000064   12....       LCALL   ?Subroutine10 & 0xFFFF
   \                     ??CrossCallReturnLabel_10:
   \   000067   FE           MOV     R6,A
   \   000068   E9           MOV     A,R1
   \   000069   3400         ADDC    A,#0x0
   \   00006B   FF           MOV     R7,A
    693              hdr.id = 0;
   \   00006C   12....       LCALL   ?Subroutine4 & 0xFFFF
    694              writeWord( pg, offset, (uint8 *)(&hdr) );
   \                     ??CrossCallReturnLabel_64:
   \   00006F   AA..         MOV     R2,?V0 + 2
   \   000071   AB..         MOV     R3,?V0 + 3
   \   000073   A9..         MOV     R1,?V0 + 1
   \   000075   12....       LCALL   ??writeWord?relay
    695              pgLost[pg-OSAL_NV_PAGE_BEG] += sz;
   \   000078   E5..         MOV     A,?V0 + 1
   \   00007A   C3           CLR     C
   \   00007B   33           RLC     A
   \   00007C   F8           MOV     R0,A
   \   00007D   E4           CLR     A
   \   00007E   33           RLC     A
   \   00007F   F9           MOV     R1,A
   \   000080   12....       LCALL   ?Subroutine27 & 0xFFFF
    696            }
   \                     ??CrossCallReturnLabel_56:
   \   000083   E0           MOVX    A,@DPTR
   \   000084   2E           ADD     A,R6
   \   000085   F0           MOVX    @DPTR,A
   \   000086   A3           INC     DPTR
   \   000087   E0           MOVX    A,@DPTR
   \   000088   3F           ADDC    A,R7
   \   000089   F0           MOVX    @DPTR,A
    697          }
   \                     ??setItem_1:
   \   00008A   7408         MOV     A,#0x8
   \   00008C   02....       LJMP    ?Subroutine3 & 0xFFFF

   \                                 In  segment BANKED_CODE, align 1, keep-with-next
   \                     ?Subroutine10:
   \   000000   12....       LCALL   ?Subroutine25 & 0xFFFF
   \                     ??CrossCallReturnLabel_53:
   \   000003   2408         ADD     A,#0x8
   \   000005   22           RET

   \                                 In  segment BANKED_CODE, align 1, keep-with-next
   \                     ?Subroutine25:
   \   000000   E0           MOVX    A,@DPTR
   \   000001   2403         ADD     A,#0x3
   \   000003   F8           MOV     R0,A
   \   000004   A3           INC     DPTR
   \   000005   E0           MOVX    A,@DPTR
   \   000006   3400         ADDC    A,#0x0
   \   000008   F9           MOV     R1,A
   \   000009   E8           MOV     A,R0
   \   00000A   54FC         ANL     A,#0xfc
   \   00000C   22           RET
    698          
    699          /*********************************************************************
    700           * @fn      calcChkB
    701           *
    702           * @brief   Calculates the data checksum over the 'buf' parameter.
    703           *
    704           * @param   pg - A valid NV Flash page.
    705           * @param   offset - A valid offset into the page.
    706           * @param   len - Byte count of the data to be checksummed.
    707           *
    708           * @return  Calculated checksum of the data bytes.
    709           */
    710          static uint16 calcChkB( uint16 len, uint8 *buf )
    711          {
    712            uint8 fill = len % OSAL_NV_WORD_SIZE;
    713            uint16 chk;
    714          
    715            if ( !buf )
    716            {
    717              chk = len * OSAL_NV_ERASED;
    718            }
    719            else
    720            {
    721              chk = 0;
    722              while ( len-- )
    723              {
    724                chk += *buf++;
    725              }
    726            }
    727          
    728            // calcChkF() will calculate over OSAL_NV_WORD_SIZE alignment.
    729            if ( fill )
    730            {
    731              chk += (OSAL_NV_WORD_SIZE - fill) * OSAL_NV_ERASED;
    732            }
    733          
    734            return chk;
    735          }
    736          
    737          /*********************************************************************
    738           * @fn      calcChkF
    739           *
    740           * @brief   Calculates the data checksum by reading the data bytes from NV.
    741           *
    742           * @param   pg - A valid NV Flash page.
    743           * @param   offset - A valid offset into the page.
    744           * @param   len - Byte count of the data to be checksummed.
    745           *
    746           * @return  Calculated checksum of the data bytes.
    747           */

   \                                 In  segment BANKED_CODE, align 1, keep-with-next
    748          static uint16 calcChkF( byte pg, uint16 offset, uint16 len )
   \                     calcChkF:
    749          {
   \   000000   74F0         MOV     A,#-0x10
   \   000002   12....       LCALL   ?BANKED_ENTER_XDATA
   \   000005                ; Saved register size: 16
   \   000005                ; Auto size: 4
   \   000005   74FC         MOV     A,#-0x4
   \   000007   12....       LCALL   ?ALLOC_XSTACK8
   \   00000A   89..         MOV     ?V0 + 4,R1
   \   00000C   8A..         MOV     ?V0 + 2,R2
   \   00000E   8B..         MOV     ?V0 + 3,R3
   \   000010   EC           MOV     A,R4
   \   000011   FE           MOV     R6,A
   \   000012   ED           MOV     A,R5
   \   000013   FF           MOV     R7,A
    750            uint16 chk = 0;
   \   000014   75..00       MOV     ?V0 + 0,#0x0
   \   000017   75..00       MOV     ?V0 + 1,#0x0
    751          
    752            len = (len + (OSAL_NV_WORD_SIZE-1)) / OSAL_NV_WORD_SIZE;
   \   00001A   EE           MOV     A,R6
   \   00001B   2403         ADD     A,#0x3
   \   00001D   F5..         MOV     ?V0 + 6,A
   \   00001F   EF           MOV     A,R7
   \   000020   3400         ADDC    A,#0x0
   \   000022   F5..         MOV     ?V0 + 7,A
   \   000024   7402         MOV     A,#0x2
   \   000026   78..         MOV     R0,#?V0 + 6
   \   000028   12....       LCALL   ?US_SHR
   \   00002B   AE..         MOV     R6,?V0 + 6
   \   00002D   AF..         MOV     R7,?V0 + 7
    753          
    754            while ( len-- )
   \                     ??calcChkF_0:
   \   00002F   12....       LCALL   ?Subroutine24 & 0xFFFF
   \                     ??CrossCallReturnLabel_50:
   \   000032   604B         JZ      ??calcChkF_1
    755            {
    756              uint8 cnt, tmp[OSAL_NV_WORD_SIZE];
    757          
    758              HalFlashRead(pg, offset, tmp, OSAL_NV_WORD_SIZE);
   \   000034                ; Setup parameters for call to function HalFlashRead
   \   000034   75..04       MOV     ?V0 + 6,#0x4
   \   000037   75..00       MOV     ?V0 + 7,#0x0
   \   00003A   78..         MOV     R0,#?V0 + 6
   \   00003C   12....       LCALL   ?PUSH_XSTACK_I_TWO
   \   00003F   7402         MOV     A,#0x2
   \   000041   12....       LCALL   ?XSTACK_DISP0_8
   \   000044   AC82         MOV     R4,DPL
   \   000046   AD83         MOV     R5,DPH
   \   000048   AA..         MOV     R2,?V0 + 2
   \   00004A   AB..         MOV     R3,?V0 + 3
   \   00004C   A9..         MOV     R1,?V0 + 4
   \   00004E   12....       LCALL   ??HalFlashRead?relay
   \   000051   7402         MOV     A,#0x2
   \   000053   12....       LCALL   ?DEALLOC_XSTACK8
    759              offset += OSAL_NV_WORD_SIZE;
   \   000056   E5..         MOV     A,?V0 + 2
   \   000058   2404         ADD     A,#0x4
   \   00005A   F5..         MOV     ?V0 + 2,A
   \   00005C   E5..         MOV     A,?V0 + 3
   \   00005E   3400         ADDC    A,#0x0
   \   000060   F5..         MOV     ?V0 + 3,A
    760          
    761              for ( cnt = 0; cnt < OSAL_NV_WORD_SIZE; cnt++ )
   \   000062   7800         MOV     R0,#0x0
    762              {
    763                chk += tmp[cnt];
   \                     ??calcChkF_2:
   \   000064   88..         MOV     ?V0 + 6,R0
   \   000066   12....       LCALL   ?Subroutine23 & 0xFFFF
    764              }
   \                     ??CrossCallReturnLabel_48:
   \   000069   E0           MOVX    A,@DPTR
   \   00006A   FA           MOV     R2,A
   \   00006B   E5..         MOV     A,?V0 + 0
   \   00006D   2A           ADD     A,R2
   \   00006E   F5..         MOV     ?V0 + 0,A
   \   000070   E5..         MOV     A,?V0 + 1
   \   000072   3400         ADDC    A,#0x0
   \   000074   F5..         MOV     ?V0 + 1,A
   \   000076   08           INC     R0
   \   000077   E8           MOV     A,R0
   \   000078   C3           CLR     C
   \   000079   9404         SUBB    A,#0x4
   \   00007B   50B2         JNC     ??calcChkF_0
   \   00007D   80E5         SJMP    ??calcChkF_2
    765            }
    766          
    767            return chk;
   \                     ??calcChkF_1:
   \   00007F   AA..         MOV     R2,?V0 + 0
   \   000081   AB..         MOV     R3,?V0 + 1
   \   000083   7404         MOV     A,#0x4
   \   000085   12....       LCALL   ?DEALLOC_XSTACK8
   \   000088   7F08         MOV     R7,#0x8
   \   00008A   02....       LJMP    ?BANKED_LEAVE_XDATA
    768          }

   \                                 In  segment BANKED_CODE, align 1, keep-with-next
   \                     ?Subroutine23:
   \   000000   85..82       MOV     DPL,?XSP + 0
   \   000003   85..83       MOV     DPH,?XSP + 1
   \   000006   E582         MOV     A,DPL
   \   000008   25..         ADD     A,?V0 + 6
   \   00000A   F582         MOV     DPL,A
   \   00000C   E583         MOV     A,DPH
   \   00000E   3400         ADDC    A,#0x0
   \   000010   F583         MOV     DPH,A
   \   000012   22           RET

   \                                 In  segment BANKED_CODE, align 1, keep-with-next
   \                     ?Subroutine24:
   \   000000   EE           MOV     A,R6
   \   000001   F8           MOV     R0,A
   \   000002   EF           MOV     A,R7
   \   000003   F9           MOV     R1,A
   \   000004   E8           MOV     A,R0
   \   000005   24FF         ADD     A,#-0x1
   \   000007   1E           DEC     R6
   \   000008   E9           MOV     A,R1
   \   000009   34FF         ADDC    A,#-0x1
   \   00000B   FF           MOV     R7,A
   \   00000C   E8           MOV     A,R0
   \   00000D   49           ORL     A,R1
   \   00000E   22           RET
    769          
    770          /*********************************************************************
    771           * @fn      writeWord
    772           *
    773           * @brief   Writes a Flash-WORD to NV.
    774           *
    775           * @param   pg - A valid NV Flash page.
    776           * @param   offset - A valid offset into the page.
    777           * @param   buf - Pointer to source buffer.
    778           *
    779           * @return  none
    780           */

   \                                 In  segment BANKED_CODE, align 1, keep-with-next
    781          static void writeWord( uint8 pg, uint16 offset, uint8 *buf )
   \                     writeWord:
    782          {
   \   000000   74F3         MOV     A,#-0xd
   \   000002   12....       LCALL   ?BANKED_ENTER_XDATA
   \   000005                ; Saved register size: 13
   \   000005                ; Auto size: 0
   \   000005   89..         MOV     ?V0 + 4,R1
   \   000007   8A..         MOV     ?V0 + 0,R2
   \   000009   8B..         MOV     ?V0 + 1,R3
   \   00000B   EC           MOV     A,R4
   \   00000C   FE           MOV     R6,A
   \   00000D   ED           MOV     A,R5
   \   00000E   FF           MOV     R7,A
    783            offset = (offset >> 2) + ((uint16)pg << 9);
    784          
    785            if ( OSAL_NV_CHECK_BUS_VOLTAGE )
   \   00000F                ; Setup parameters for call to function HalAdcCheckVdd
   \   00000F   7904         MOV     R1,#0x4
   \   000011   12....       LCALL   ??HalAdcCheckVdd?relay
   \   000014   E9           MOV     A,R1
   \   000015   6034         JZ      ??writeWord_0
    786            {
    787              HalFlashWrite(offset, buf, 1);
   \   000017                ; Setup parameters for call to function HalFlashWrite
   \   000017   75..01       MOV     ?V0 + 2,#0x1
   \   00001A   75..00       MOV     ?V0 + 3,#0x0
   \   00001D   78..         MOV     R0,#?V0 + 2
   \   00001F   12....       LCALL   ?PUSH_XSTACK_I_TWO
   \   000022   EE           MOV     A,R6
   \   000023   FC           MOV     R4,A
   \   000024   EF           MOV     A,R7
   \   000025   FD           MOV     R5,A
   \   000026   7402         MOV     A,#0x2
   \   000028   78..         MOV     R0,#?V0 + 0
   \   00002A   12....       LCALL   ?US_SHR
   \   00002D   85....       MOV     ?V0 + 2,?V0 + 4
   \   000030   7409         MOV     A,#0x9
   \   000032   78..         MOV     R0,#?V0 + 2
   \   000034   12....       LCALL   ?S_SHL
   \   000037   E5..         MOV     A,?V0 + 0
   \   000039   2400         ADD     A,#0x0
   \   00003B   FA           MOV     R2,A
   \   00003C   E5..         MOV     A,?V0 + 1
   \   00003E   35..         ADDC    A,?V0 + 3
   \   000040   FB           MOV     R3,A
   \   000041   12....       LCALL   ??HalFlashWrite?relay
   \   000044   7402         MOV     A,#0x2
   \   000046   12....       LCALL   ?DEALLOC_XSTACK8
   \   000049   8006         SJMP    ??writeWord_1
    788            }
    789            else
    790            {
    791              failF = TRUE;
   \                     ??writeWord_0:
   \   00004B   90....       MOV     DPTR,#failF
   \   00004E   7401         MOV     A,#0x1
   \   000050   F0           MOVX    @DPTR,A
    792            }
    793          }
   \                     ??writeWord_1:
   \   000051   7F05         MOV     R7,#0x5
   \   000053   02....       LJMP    ?BANKED_LEAVE_XDATA
    794          
    795          /*********************************************************************
    796           * @fn      writeWordM
    797           *
    798           * @brief   Writes multiple Flash-WORDs to NV.
    799           *
    800           * @param   pg - A valid NV Flash page.
    801           * @param   offset - A valid offset into the page.
    802           * @param   buf - Pointer to source buffer.
    803           * @param   cnt - Number of 4-byte blocks to write.
    804           *
    805           * @return  none
    806           */
    807          static void writeWordM( uint8 pg, uint16 offset, uint8 *buf, uint16 cnt )
    808          {
    809            offset = (offset >> 2) + ((uint16)pg << 9);
    810          
    811            if ( OSAL_NV_CHECK_BUS_VOLTAGE )
    812            {
    813              HalFlashWrite(offset, buf, cnt);
    814            }
    815            else
    816            {
    817              failF = TRUE;
    818            }
    819          }
    820          
    821          /*********************************************************************
    822           * @fn      writeWordH
    823           *
    824           * @brief   Writes the 1st half of a Flash-WORD to NV (filling 2nd half with 0xffff).
    825           *
    826           * @param   pg - A valid NV Flash page.
    827           * @param   offset - A valid offset into the page.
    828           * @param   buf - Pointer to source buffer.
    829           *
    830           * @return  none
    831           */

   \                                 In  segment BANKED_CODE, align 1, keep-with-next
    832          static void writeWordH( uint8 pg, uint16 offset, uint8 *buf )
   \                     writeWordH:
    833          {
   \   000000   74F7         MOV     A,#-0x9
   \   000002   12....       LCALL   ?BANKED_ENTER_XDATA
   \   000005                ; Saved register size: 9
   \   000005                ; Auto size: 4
   \   000005   74FC         MOV     A,#-0x4
   \   000007   12....       LCALL   ?ALLOC_XSTACK8
    834            uint8 tmp[4];
    835          
    836            tmp[0] = buf[0];
   \   00000A   8C82         MOV     DPL,R4
   \   00000C   8D83         MOV     DPH,R5
   \   00000E   E0           MOVX    A,@DPTR
   \   00000F   85..82       MOV     DPL,?XSP + 0
   \   000012   85..83       MOV     DPH,?XSP + 1
   \   000015   F0           MOVX    @DPTR,A
    837            tmp[1] = buf[1];
   \   000016   8C82         MOV     DPL,R4
   \   000018   8D83         MOV     DPH,R5
   \   00001A   A3           INC     DPTR
   \   00001B   E0           MOVX    A,@DPTR
   \   00001C   C0E0         PUSH    A
   \   00001E   7401         MOV     A,#0x1
   \   000020   12....       LCALL   ?XSTACK_DISP0_8
   \   000023   D0E0         POP     A
   \   000025   F0           MOVX    @DPTR,A
    838            tmp[2] = OSAL_NV_ERASED;
   \   000026   7402         MOV     A,#0x2
   \   000028   12....       LCALL   ?XSTACK_DISP0_8
   \   00002B   74FF         MOV     A,#-0x1
   \   00002D   F0           MOVX    @DPTR,A
    839            tmp[3] = OSAL_NV_ERASED;
   \   00002E   7403         MOV     A,#0x3
   \   000030   12....       LCALL   ?XSTACK_DISP0_8
   \   000033   74FF         MOV     A,#-0x1
   \   000035   12....       LCALL   ??Subroutine31_0 & 0xFFFF
    840          
    841            writeWord( pg, offset, tmp );
   \                     ??CrossCallReturnLabel_66:
   \   000038   12....       LCALL   ??writeWord?relay
    842          }
   \   00003B   7404         MOV     A,#0x4
   \   00003D   02....       LJMP    ?Subroutine1 & 0xFFFF
    843          
    844          /*********************************************************************
    845           * @fn      writeBuf
    846           *
    847           * @brief   Writes a data buffer to NV.
    848           *
    849           * @param   dstPg - A valid NV Flash page.
    850           * @param   offset - A valid offset into the page.
    851           * @param   len  - Byte count of the data to write.
    852           * @param   buf  - The data to write.
    853           *
    854           * @return  TRUE if data buf checksum matches read back checksum, else FALSE.
    855           */

   \                                 In  segment BANKED_CODE, align 1, keep-with-next
    856          static void writeBuf( uint8 dstPg, uint16 dstOff, uint16 len, uint8 *buf )
   \                     writeBuf:
    857          {
   \   000000   74EE         MOV     A,#-0x12
   \   000002   12....       LCALL   ?BANKED_ENTER_XDATA
   \   000005                ; Saved register size: 18
   \   000005                ; Auto size: 4
   \   000005   74FC         MOV     A,#-0x4
   \   000007   12....       LCALL   ?ALLOC_XSTACK8
   \   00000A   89..         MOV     ?V0 + 1,R1
   \   00000C   EA           MOV     A,R2
   \   00000D   FE           MOV     R6,A
   \   00000E   EB           MOV     A,R3
   \   00000F   FF           MOV     R7,A
   \   000010   8C..         MOV     ?V0 + 4,R4
   \   000012   8D..         MOV     ?V0 + 5,R5
    858            uint8 rem = dstOff % OSAL_NV_WORD_SIZE;
   \   000014   EE           MOV     A,R6
   \   000015   5403         ANL     A,#0x3
   \   000017   F5..         MOV     ?V0 + 0,A
   \   000019   7416         MOV     A,#0x16
   \   00001B   12....       LCALL   ?XSTACK_DISP0_8
   \   00001E   12....       LCALL   ?Subroutine9 & 0xFFFF
    859            uint8 tmp[OSAL_NV_WORD_SIZE];
    860          
    861            if ( rem )
   \                     ??CrossCallReturnLabel_7:
   \   000021   E5..         MOV     A,?V0 + 0
   \   000023   606C         JZ      ??writeBuf_0
    862            {
    863              dstOff = (dstOff / OSAL_NV_WORD_SIZE) * OSAL_NV_WORD_SIZE;
   \   000025   74FC         MOV     A,#-0x4
   \   000027   5E           ANL     A,R6
   \   000028   FE           MOV     R6,A
    864              HalFlashRead(dstPg, dstOff, tmp, OSAL_NV_WORD_SIZE);
   \   000029                ; Setup parameters for call to function HalFlashRead
   \   000029   75..04       MOV     ?V0 + 6,#0x4
   \   00002C   75..00       MOV     ?V0 + 7,#0x0
   \   00002F   78..         MOV     R0,#?V0 + 6
   \   000031   12....       LCALL   ?PUSH_XSTACK_I_TWO
   \   000034   7402         MOV     A,#0x2
   \   000036   12....       LCALL   ?XSTACK_DISP0_8
   \   000039   AC82         MOV     R4,DPL
   \   00003B   AD83         MOV     R5,DPH
   \   00003D   EE           MOV     A,R6
   \   00003E   FA           MOV     R2,A
   \   00003F   12....       LCALL   ??HalFlashRead?relay
   \   000042   7402         MOV     A,#0x2
   \   000044   12....       LCALL   ?DEALLOC_XSTACK8
   \                     ??writeBuf_1:
   \   000047   E5..         MOV     A,?V0 + 4
   \   000049   45..         ORL     A,?V0 + 5
   \   00004B   6029         JZ      ??writeBuf_2
    865          
    866              while ( (rem < OSAL_NV_WORD_SIZE) && len )
    867              {
    868                tmp[rem++] = *buf++;
   \   00004D   85..82       MOV     DPL,?V0 + 2
   \   000050   85..83       MOV     DPH,?V0 + 3
   \   000053   E0           MOVX    A,@DPTR
   \   000054   C0E0         PUSH    A
   \   000056   85....       MOV     ?V0 + 6,?V0 + 0
   \   000059   12....       LCALL   ?Subroutine23 & 0xFFFF
   \                     ??CrossCallReturnLabel_49:
   \   00005C   D0E0         POP     A
   \   00005E   12....       LCALL   ?Subroutine5 & 0xFFFF
   \                     ??CrossCallReturnLabel_0:
   \   000061   05..         INC     ?V0 + 0
    869                len--;
   \   000063   E5..         MOV     A,?V0 + 4
   \   000065   24FF         ADD     A,#-0x1
   \   000067   F5..         MOV     ?V0 + 4,A
   \   000069   E5..         MOV     A,?V0 + 5
   \   00006B   34FF         ADDC    A,#-0x1
   \   00006D   F5..         MOV     ?V0 + 5,A
    870              }
   \   00006F   E5..         MOV     A,?V0 + 0
   \   000071   C3           CLR     C
   \   000072   9404         SUBB    A,#0x4
   \   000074   40D1         JC      ??writeBuf_1
    871          
    872              writeWord( dstPg, dstOff, tmp );
   \                     ??writeBuf_2:
   \   000076                ; Setup parameters for call to function writeWord
   \   000076   85..82       MOV     DPL,?XSP + 0
   \   000079   85..83       MOV     DPH,?XSP + 1
   \   00007C   AC82         MOV     R4,DPL
   \   00007E   AD83         MOV     R5,DPH
   \   000080   EE           MOV     A,R6
   \   000081   FA           MOV     R2,A
   \   000082   EF           MOV     A,R7
   \   000083   FB           MOV     R3,A
   \   000084   A9..         MOV     R1,?V0 + 1
   \   000086   12....       LCALL   ??writeWord?relay
    873              dstOff += OSAL_NV_WORD_SIZE;
   \   000089   EE           MOV     A,R6
   \   00008A   2404         ADD     A,#0x4
   \   00008C   FE           MOV     R6,A
   \   00008D   EF           MOV     A,R7
   \   00008E   3400         ADDC    A,#0x0
   \   000090   FF           MOV     R7,A
    874            }
    875          
    876            rem = len % OSAL_NV_WORD_SIZE;
   \                     ??writeBuf_0:
   \   000091   E5..         MOV     A,?V0 + 4
   \   000093   5403         ANL     A,#0x3
   \   000095   F5..         MOV     ?V0 + 0,A
    877            len /= OSAL_NV_WORD_SIZE;
   \   000097   85....       MOV     ?V0 + 6,?V0 + 4
   \   00009A   85....       MOV     ?V0 + 7,?V0 + 5
   \   00009D   7402         MOV     A,#0x2
   \   00009F   78..         MOV     R0,#?V0 + 6
   \   0000A1   12....       LCALL   ?US_SHR
   \   0000A4   85....       MOV     ?V0 + 4,?V0 + 6
   \   0000A7   85....       MOV     ?V0 + 5,?V0 + 7
    878          
    879            if ( len )
   \   0000AA   E5..         MOV     A,?V0 + 4
   \   0000AC   45..         ORL     A,?V0 + 5
   \   0000AE   605D         JZ      ??writeBuf_3
    880            {
    881              writeWordM( dstPg, dstOff, buf, len );
   \   0000B0                ; Setup parameters for call to function HalAdcCheckVdd
   \   0000B0   7904         MOV     R1,#0x4
   \   0000B2   12....       LCALL   ??HalAdcCheckVdd?relay
   \   0000B5   E9           MOV     A,R1
   \   0000B6   6034         JZ      ??writeBuf_4
   \   0000B8                ; Setup parameters for call to function HalFlashWrite
   \   0000B8   78..         MOV     R0,#?V0 + 4
   \   0000BA   12....       LCALL   ?PUSH_XSTACK_I_TWO
   \   0000BD   AC..         MOV     R4,?V0 + 2
   \   0000BF   AD..         MOV     R5,?V0 + 3
   \   0000C1   8E..         MOV     ?V0 + 6,R6
   \   0000C3   8F..         MOV     ?V0 + 7,R7
   \   0000C5   7402         MOV     A,#0x2
   \   0000C7   78..         MOV     R0,#?V0 + 6
   \   0000C9   12....       LCALL   ?US_SHR
   \   0000CC   85....       MOV     ?V0 + 8,?V0 + 1
   \   0000CF   F5..         MOV     ?V0 + 9,A
   \   0000D1   7409         MOV     A,#0x9
   \   0000D3   78..         MOV     R0,#?V0 + 8
   \   0000D5   12....       LCALL   ?S_SHL
   \   0000D8   E5..         MOV     A,?V0 + 6
   \   0000DA   2400         ADD     A,#0x0
   \   0000DC   FA           MOV     R2,A
   \   0000DD   E5..         MOV     A,?V0 + 7
   \   0000DF   35..         ADDC    A,?V0 + 9
   \   0000E1   FB           MOV     R3,A
   \   0000E2   12....       LCALL   ??HalFlashWrite?relay
   \   0000E5   7402         MOV     A,#0x2
   \   0000E7   12....       LCALL   ?DEALLOC_XSTACK8
   \   0000EA   8006         SJMP    ??writeBuf_5
   \                     ??writeBuf_4:
   \   0000EC   90....       MOV     DPTR,#failF
   \   0000EF   7401         MOV     A,#0x1
   \   0000F1   F0           MOVX    @DPTR,A
    882              dstOff += OSAL_NV_WORD_SIZE * len;
   \                     ??writeBuf_5:
   \   0000F2   7402         MOV     A,#0x2
   \   0000F4   78..         MOV     R0,#?V0 + 4
   \   0000F6   12....       LCALL   ?S_SHL
   \   0000F9   A8..         MOV     R0,?V0 + 4
   \   0000FB   A9..         MOV     R1,?V0 + 5
   \   0000FD   EE           MOV     A,R6
   \   0000FE   28           ADD     A,R0
   \   0000FF   FE           MOV     R6,A
   \   000100   EF           MOV     A,R7
   \   000101   39           ADDC    A,R1
   \   000102   FF           MOV     R7,A
    883              buf += OSAL_NV_WORD_SIZE * len;
   \   000103   E5..         MOV     A,?V0 + 2
   \   000105   28           ADD     A,R0
   \   000106   F5..         MOV     ?V0 + 2,A
   \   000108   E5..         MOV     A,?V0 + 3
   \   00010A   39           ADDC    A,R1
   \   00010B   F5..         MOV     ?V0 + 3,A
    884            }
    885          
    886            if ( rem )
   \                     ??writeBuf_3:
   \   00010D   E5..         MOV     A,?V0 + 0
   \   00010F   606B         JZ      ??writeBuf_6
    887            {
    888              uint8 idx = 0;
   \   000111   75..00       MOV     ?V0 + 6,#0x0
    889              HalFlashRead(dstPg, dstOff, tmp, OSAL_NV_WORD_SIZE);
   \   000114                ; Setup parameters for call to function HalFlashRead
   \   000114   75..04       MOV     ?V0 + 4,#0x4
   \   000117   75..00       MOV     ?V0 + 5,#0x0
   \   00011A   78..         MOV     R0,#?V0 + 4
   \   00011C   12....       LCALL   ?PUSH_XSTACK_I_TWO
   \   00011F   7402         MOV     A,#0x2
   \   000121   12....       LCALL   ?XSTACK_DISP0_8
   \   000124   AC82         MOV     R4,DPL
   \   000126   AD83         MOV     R5,DPH
   \   000128   EE           MOV     A,R6
   \   000129   FA           MOV     R2,A
   \   00012A   EF           MOV     A,R7
   \   00012B   FB           MOV     R3,A
   \   00012C   A9..         MOV     R1,?V0 + 1
   \   00012E   12....       LCALL   ??HalFlashRead?relay
   \   000131   7402         MOV     A,#0x2
   \   000133   12....       LCALL   ?DEALLOC_XSTACK8
   \   000136   8025         SJMP    ??writeBuf_7
    890              while ( rem-- )
    891              {
    892                tmp[idx++] = *buf++;
   \                     ??writeBuf_8:
   \   000138   85..82       MOV     DPL,?V0 + 2
   \   00013B   85..83       MOV     DPH,?V0 + 3
   \   00013E   E0           MOVX    A,@DPTR
   \   00013F   C0E0         PUSH    A
   \   000141   85....       MOV     ?V0 + 4,?V0 + 6
   \   000144   85..82       MOV     DPL,?XSP + 0
   \   000147   85..83       MOV     DPH,?XSP + 1
   \   00014A   E582         MOV     A,DPL
   \   00014C   25..         ADD     A,?V0 + 4
   \   00014E   F582         MOV     DPL,A
   \   000150   E583         MOV     A,DPH
   \   000152   3400         ADDC    A,#0x0
   \   000154   F583         MOV     DPH,A
   \   000156   D0E0         POP     A
   \   000158   12....       LCALL   ?Subroutine5 & 0xFFFF
    893              }
   \                     ??CrossCallReturnLabel_1:
   \   00015B   05..         INC     ?V0 + 6
   \                     ??writeBuf_7:
   \   00015D   85....       MOV     ?V0 + 4,?V0 + 0
   \   000160   74FF         MOV     A,#-0x1
   \   000162   25..         ADD     A,?V0 + 4
   \   000164   F5..         MOV     ?V0 + 0,A
   \   000166   04           INC     A
   \   000167   70CF         JNZ     ??writeBuf_8
    894              writeWord( dstPg, dstOff, tmp );
   \   000169                ; Setup parameters for call to function writeWord
   \   000169   85..82       MOV     DPL,?XSP + 0
   \   00016C   85..83       MOV     DPH,?XSP + 1
   \   00016F   AC82         MOV     R4,DPL
   \   000171   AD83         MOV     R5,DPH
   \   000173   EE           MOV     A,R6
   \   000174   FA           MOV     R2,A
   \   000175   EF           MOV     A,R7
   \   000176   FB           MOV     R3,A
   \   000177   A9..         MOV     R1,?V0 + 1
   \   000179   12....       LCALL   ??writeWord?relay
    895            }
    896          }
   \                     ??writeBuf_6:
   \   00017C                REQUIRE ?Subroutine2
   \   00017C                ; // Fall through to label ?Subroutine2

   \                                 In  segment BANKED_CODE, align 1, keep-with-next
   \                     ?Subroutine2:
   \   000000   7404         MOV     A,#0x4
   \   000002                REQUIRE ??Subroutine32_0
   \   000002                ; // Fall through to label ??Subroutine32_0

   \                                 In  segment BANKED_CODE, align 1, keep-with-next
   \                     ?Subroutine5:
   \   000000   F0           MOVX    @DPTR,A
   \   000001   85..82       MOV     DPL,?V0 + 2
   \   000004   85..83       MOV     DPH,?V0 + 3
   \   000007   A3           INC     DPTR
   \   000008   8582..       MOV     ?V0 + 2,DPL
   \   00000B   8583..       MOV     ?V0 + 3,DPH
   \   00000E   22           RET
    897          
    898          /*********************************************************************
    899           * @fn      xferBuf
    900           *
    901           * @brief   Xfers an NV buffer from one location to another, enforcing OSAL_NV_WORD_SIZE writes.
    902           *
    903           * @return  none
    904           */

   \                                 In  segment BANKED_CODE, align 1, keep-with-next
    905          static void xferBuf( uint8 srcPg, uint16 srcOff, uint8 dstPg, uint16 dstOff, uint16 len )
   \                     xferBuf:
    906          {
   \   000000   74EE         MOV     A,#-0x12
   \   000002   12....       LCALL   ?BANKED_ENTER_XDATA
   \   000005                ; Saved register size: 18
   \   000005                ; Auto size: 4
   \   000005   74FC         MOV     A,#-0x4
   \   000007   12....       LCALL   ?ALLOC_XSTACK8
   \   00000A   89..         MOV     ?V0 + 6,R1
   \   00000C   8A..         MOV     ?V0 + 4,R2
   \   00000E   8B..         MOV     ?V0 + 5,R3
   \   000010   8C..         MOV     ?V0 + 3,R4
   \   000012   7416         MOV     A,#0x16
   \   000014   12....       LCALL   ?XSTACK_DISP0_8
   \   000017   E0           MOVX    A,@DPTR
   \   000018   F5..         MOV     ?V0 + 0,A
   \   00001A   A3           INC     DPTR
   \   00001B   E0           MOVX    A,@DPTR
   \   00001C   F5..         MOV     ?V0 + 1,A
    907            uint8 rem = dstOff % OSAL_NV_WORD_SIZE;
   \   00001E   E5..         MOV     A,?V0 + 0
   \   000020   5403         ANL     A,#0x3
   \   000022   F5..         MOV     ?V0 + 2,A
   \   000024   7418         MOV     A,#0x18
   \   000026   12....       LCALL   ?XSTACK_DISP0_8
   \   000029   E0           MOVX    A,@DPTR
   \   00002A   FE           MOV     R6,A
   \   00002B   A3           INC     DPTR
   \   00002C   E0           MOVX    A,@DPTR
   \   00002D   FF           MOV     R7,A
    908            uint8 tmp[OSAL_NV_WORD_SIZE];
    909          
    910            if ( rem )
   \   00002E   E5..         MOV     A,?V0 + 2
   \   000030   607A         JZ      ??CrossCallReturnLabel_41
    911            {
    912              dstOff -= rem;
   \   000032   F5..         MOV     ?V0 + 8,A
   \   000034   C3           CLR     C
   \   000035   E5..         MOV     A,?V0 + 0
   \   000037   95..         SUBB    A,?V0 + 8
   \   000039   F5..         MOV     ?V0 + 0,A
   \   00003B   E5..         MOV     A,?V0 + 1
   \   00003D   9400         SUBB    A,#0x0
   \   00003F   F5..         MOV     ?V0 + 1,A
    913              HalFlashRead(dstPg, dstOff, tmp, OSAL_NV_WORD_SIZE);
   \   000041                ; Setup parameters for call to function HalFlashRead
   \   000041   75..04       MOV     ?V0 + 8,#0x4
   \   000044   75..00       MOV     ?V0 + 9,#0x0
   \   000047   78..         MOV     R0,#?V0 + 8
   \   000049   12....       LCALL   ?PUSH_XSTACK_I_TWO
   \   00004C   7402         MOV     A,#0x2
   \   00004E   12....       LCALL   ?XSTACK_DISP0_8
   \   000051   AC82         MOV     R4,DPL
   \   000053   AD83         MOV     R5,DPH
   \   000055   AA..         MOV     R2,?V0 + 0
   \   000057   AB..         MOV     R3,?V0 + 1
   \   000059   A9..         MOV     R1,?V0 + 3
   \   00005B   12....       LCALL   ??HalFlashRead?relay
   \   00005E   7402         MOV     A,#0x2
   \   000060   12....       LCALL   ?DEALLOC_XSTACK8
   \                     ??xferBuf_0:
   \   000063   EE           MOV     A,R6
   \   000064   4F           ORL     A,R7
   \   000065   602F         JZ      ??xferBuf_1
    914          
    915              while ( (rem < OSAL_NV_WORD_SIZE) && len )
    916              {
    917                HalFlashRead(srcPg, srcOff, tmp+rem, 1);
   \   000067                ; Setup parameters for call to function HalFlashRead
   \   000067   75..01       MOV     ?V0 + 8,#0x1
   \   00006A   78..         MOV     R0,#?V0 + 8
   \   00006C   12....       LCALL   ?PUSH_XSTACK_I_TWO
   \   00006F   85....       MOV     ?V0 + 8,?V0 + 2
   \   000072   7402         MOV     A,#0x2
   \   000074   12....       LCALL   ?XSTACK_DISP0_8
   \   000077   12....       LCALL   ?Subroutine17 & 0xFFFF
   \                     ??CrossCallReturnLabel_35:
   \   00007A   12....       LCALL   ??HalFlashRead?relay
   \   00007D   7402         MOV     A,#0x2
   \   00007F   12....       LCALL   ?DEALLOC_XSTACK8
    918                srcOff++;
   \   000082   12....       LCALL   ?Subroutine22 & 0xFFFF
    919                rem++;
   \                     ??CrossCallReturnLabel_45:
   \   000085   05..         INC     ?V0 + 2
    920                len--;
   \   000087   EE           MOV     A,R6
   \   000088   24FF         ADD     A,#-0x1
   \   00008A   1E           DEC     R6
   \   00008B   EF           MOV     A,R7
   \   00008C   34FF         ADDC    A,#-0x1
   \   00008E   FF           MOV     R7,A
    921              }
   \   00008F   E5..         MOV     A,?V0 + 2
   \   000091   C3           CLR     C
   \   000092   9404         SUBB    A,#0x4
   \   000094   40CD         JC      ??xferBuf_0
    922          
    923              writeWord( dstPg, dstOff, tmp );
   \                     ??xferBuf_1:
   \   000096                ; Setup parameters for call to function writeWord
   \   000096   85..82       MOV     DPL,?XSP + 0
   \   000099   85..83       MOV     DPH,?XSP + 1
   \   00009C   AC82         MOV     R4,DPL
   \   00009E   AD83         MOV     R5,DPH
   \   0000A0   AA..         MOV     R2,?V0 + 0
   \   0000A2   AB..         MOV     R3,?V0 + 1
   \   0000A4   A9..         MOV     R1,?V0 + 3
   \   0000A6   12....       LCALL   ??writeWord?relay
    924              dstOff += OSAL_NV_WORD_SIZE;
   \   0000A9   12....       LCALL   ?Subroutine20 & 0xFFFF
    925            }
    926          
    927            rem = len % OSAL_NV_WORD_SIZE;
   \                     ??CrossCallReturnLabel_41:
   \   0000AC   EE           MOV     A,R6
   \   0000AD   5403         ANL     A,#0x3
   \   0000AF   F5..         MOV     ?V0 + 2,A
    928            len /= OSAL_NV_WORD_SIZE;
   \   0000B1   8E..         MOV     ?V0 + 8,R6
   \   0000B3   8F..         MOV     ?V0 + 9,R7
   \   0000B5   7402         MOV     A,#0x2
   \   0000B7   78..         MOV     R0,#?V0 + 8
   \   0000B9   12....       LCALL   ?US_SHR
   \   0000BC   AE..         MOV     R6,?V0 + 8
   \   0000BE   AF..         MOV     R7,?V0 + 9
   \   0000C0   8044         SJMP    ??CrossCallReturnLabel_42
    929          
    930            while ( len-- )
    931            {
    932              HalFlashRead(srcPg, srcOff, tmp, OSAL_NV_WORD_SIZE);
   \                     ??xferBuf_2:
   \   0000C2                ; Setup parameters for call to function HalFlashRead
   \   0000C2   75..04       MOV     ?V0 + 8,#0x4
   \   0000C5   75..00       MOV     ?V0 + 9,#0x0
   \   0000C8   78..         MOV     R0,#?V0 + 8
   \   0000CA   12....       LCALL   ?PUSH_XSTACK_I_TWO
   \   0000CD   7402         MOV     A,#0x2
   \   0000CF   12....       LCALL   ?XSTACK_DISP0_8
   \   0000D2   AC82         MOV     R4,DPL
   \   0000D4   AD83         MOV     R5,DPH
   \   0000D6   AA..         MOV     R2,?V0 + 4
   \   0000D8   AB..         MOV     R3,?V0 + 5
   \   0000DA   A9..         MOV     R1,?V0 + 6
   \   0000DC   12....       LCALL   ??HalFlashRead?relay
   \   0000DF   7402         MOV     A,#0x2
   \   0000E1   12....       LCALL   ?DEALLOC_XSTACK8
    933              srcOff += OSAL_NV_WORD_SIZE;
   \   0000E4   E5..         MOV     A,?V0 + 4
   \   0000E6   2404         ADD     A,#0x4
   \   0000E8   F5..         MOV     ?V0 + 4,A
   \   0000EA   E5..         MOV     A,?V0 + 5
   \   0000EC   3400         ADDC    A,#0x0
   \   0000EE   F5..         MOV     ?V0 + 5,A
    934              writeWord( dstPg, dstOff, tmp );
   \   0000F0                ; Setup parameters for call to function writeWord
   \   0000F0   85..82       MOV     DPL,?XSP + 0
   \   0000F3   85..83       MOV     DPH,?XSP + 1
   \   0000F6   AC82         MOV     R4,DPL
   \   0000F8   AD83         MOV     R5,DPH
   \   0000FA   AA..         MOV     R2,?V0 + 0
   \   0000FC   AB..         MOV     R3,?V0 + 1
   \   0000FE   A9..         MOV     R1,?V0 + 3
   \   000100   12....       LCALL   ??writeWord?relay
    935              dstOff += OSAL_NV_WORD_SIZE;
   \   000103   12....       LCALL   ?Subroutine20 & 0xFFFF
    936            }
   \                     ??CrossCallReturnLabel_42:
   \   000106   12....       LCALL   ?Subroutine24 & 0xFFFF
   \                     ??CrossCallReturnLabel_51:
   \   000109   70B7         JNZ     ??xferBuf_2
    937          
    938            if ( rem )
   \   00010B   E5..         MOV     A,?V0 + 2
   \   00010D   6060         JZ      ??xferBuf_3
    939            {
    940              uint8 idx = 0;
   \   00010F   7E00         MOV     R6,#0x0
    941              HalFlashRead(dstPg, dstOff, tmp, OSAL_NV_WORD_SIZE);
   \   000111                ; Setup parameters for call to function HalFlashRead
   \   000111   75..04       MOV     ?V0 + 8,#0x4
   \   000114   8E..         MOV     ?V0 + 9,R6
   \   000116   78..         MOV     R0,#?V0 + 8
   \   000118   12....       LCALL   ?PUSH_XSTACK_I_TWO
   \   00011B   7402         MOV     A,#0x2
   \   00011D   12....       LCALL   ?XSTACK_DISP0_8
   \   000120   AC82         MOV     R4,DPL
   \   000122   AD83         MOV     R5,DPH
   \   000124   AA..         MOV     R2,?V0 + 0
   \   000126   AB..         MOV     R3,?V0 + 1
   \   000128   A9..         MOV     R1,?V0 + 3
   \   00012A   12....       LCALL   ??HalFlashRead?relay
   \   00012D   7402         MOV     A,#0x2
   \   00012F   12....       LCALL   ?DEALLOC_XSTACK8
   \   000132   801E         SJMP    ??xferBuf_4
    942              while ( rem-- )
    943              {
    944                HalFlashRead(srcPg, srcOff, tmp+idx, 1);
   \                     ??xferBuf_5:
   \   000134                ; Setup parameters for call to function HalFlashRead
   \   000134   75..01       MOV     ?V0 + 8,#0x1
   \   000137   78..         MOV     R0,#?V0 + 8
   \   000139   12....       LCALL   ?PUSH_XSTACK_I_TWO
   \   00013C   8E..         MOV     ?V0 + 8,R6
   \   00013E   7402         MOV     A,#0x2
   \   000140   12....       LCALL   ?XSTACK_DISP0_8
   \   000143   12....       LCALL   ?Subroutine17 & 0xFFFF
   \                     ??CrossCallReturnLabel_36:
   \   000146   12....       LCALL   ??HalFlashRead?relay
   \   000149   7402         MOV     A,#0x2
   \   00014B   12....       LCALL   ?DEALLOC_XSTACK8
    945                srcOff++;
   \   00014E   12....       LCALL   ?Subroutine22 & 0xFFFF
    946                idx++;
   \                     ??CrossCallReturnLabel_46:
   \   000151   0E           INC     R6
    947              }
   \                     ??xferBuf_4:
   \   000152   AF..         MOV     R7,?V0 + 2
   \   000154   74FF         MOV     A,#-0x1
   \   000156   2F           ADD     A,R7
   \   000157   F5..         MOV     ?V0 + 2,A
   \   000159   04           INC     A
   \   00015A   70D8         JNZ     ??xferBuf_5
    948              writeWord( dstPg, dstOff, tmp );
   \   00015C                ; Setup parameters for call to function writeWord
   \   00015C   85..82       MOV     DPL,?XSP + 0
   \   00015F   85..83       MOV     DPH,?XSP + 1
   \   000162   AC82         MOV     R4,DPL
   \   000164   AD83         MOV     R5,DPH
   \   000166   AA..         MOV     R2,?V0 + 0
   \   000168   AB..         MOV     R3,?V0 + 1
   \   00016A   A9..         MOV     R1,?V0 + 3
   \   00016C   12....       LCALL   ??writeWord?relay
    949            }
    950          }
   \                     ??xferBuf_3:
   \   00016F   02....       LJMP    ?Subroutine2 & 0xFFFF

   \                                 In  segment BANKED_CODE, align 1, keep-with-next
   \                     ?Subroutine20:
   \   000000   E5..         MOV     A,?V0 + 0
   \   000002   2404         ADD     A,#0x4
   \   000004   F5..         MOV     ?V0 + 0,A
   \   000006   E5..         MOV     A,?V0 + 1
   \   000008   3400         ADDC    A,#0x0
   \   00000A   F5..         MOV     ?V0 + 1,A
   \   00000C   22           RET

   \                                 In  segment BANKED_CODE, align 1, keep-with-next
   \                     ?Subroutine17:
   \   000000   E582         MOV     A,DPL
   \   000002   25..         ADD     A,?V0 + 8
   \   000004   FC           MOV     R4,A
   \   000005   E583         MOV     A,DPH
   \   000007   3400         ADDC    A,#0x0
   \   000009   FD           MOV     R5,A
   \   00000A   AA..         MOV     R2,?V0 + 4
   \   00000C   AB..         MOV     R3,?V0 + 5
   \   00000E   A9..         MOV     R1,?V0 + 6
   \   000010   22           RET

   \                                 In  segment BANKED_CODE, align 1, keep-with-next
   \                     ?Subroutine22:
   \   000000   E5..         MOV     A,?V0 + 4
   \   000002   2401         ADD     A,#0x1
   \   000004   F5..         MOV     ?V0 + 4,A
   \   000006   E5..         MOV     A,?V0 + 5
   \   000008   3400         ADDC    A,#0x0
   \   00000A   F5..         MOV     ?V0 + 5,A
   \   00000C   22           RET
    951          
    952          /*********************************************************************
    953           * @fn      writeItem
    954           *
    955           * @brief   Writes an item header/data combo to the specified NV page.
    956           *
    957           * @param   pg - Valid NV Flash page.
    958           * @param   id - Valid NV item Id.
    959           * @param   len  - Byte count of the data to write.
    960           * @param   buf  - The data to write. If NULL, no data/checksum write.
    961           * @param   flag - TRUE if the checksum should be written, FALSE otherwise.
    962           *
    963           * @return  TRUE if header/data to write matches header/data read back, else FALSE.
    964           */

   \                                 In  segment BANKED_CODE, align 1, keep-with-next
    965          static uint8 writeItem( uint8 pg, uint16 id, uint16 len, void *buf, uint8 flag )
   \                     writeItem:
    966          {
   \   000000   74EC         MOV     A,#-0x14
   \   000002   12....       LCALL   ?BANKED_ENTER_XDATA
   \   000005                ; Saved register size: 20
   \   000005                ; Auto size: 10
   \   000005   74F6         MOV     A,#-0xa
   \   000007   12....       LCALL   ?ALLOC_XSTACK8
   \   00000A   89..         MOV     ?V0 + 0,R1
   \   00000C   8A..         MOV     ?V0 + 6,R2
   \   00000E   8B..         MOV     ?V0 + 7,R3
   \   000010   8C..         MOV     ?V0 + 2,R4
   \   000012   8D..         MOV     ?V0 + 3,R5
   \   000014   7420         MOV     A,#0x20
   \   000016   12....       LCALL   ?XSTACK_DISP0_8
   \   000019   E0           MOVX    A,@DPTR
   \   00001A   F5..         MOV     ?V0 + 4,A
    967            uint16 offset = pgOff[pg-OSAL_NV_PAGE_BEG];
   \   00001C   E9           MOV     A,R1
   \   00001D   C3           CLR     C
   \   00001E   33           RLC     A
   \   00001F   F8           MOV     R0,A
   \   000020   E4           CLR     A
   \   000021   33           RLC     A
   \   000022   F9           MOV     R1,A
   \   000023   74..         MOV     A,#(pgOff + 14) & 0xff
   \   000025   28           ADD     A,R0
   \   000026   F5..         MOV     ?V0 + 8,A
   \   000028   74..         MOV     A,#((pgOff - 242) >> 8) & 0xff
   \   00002A   39           ADDC    A,R1
   \   00002B   F5..         MOV     ?V0 + 9,A
   \   00002D   85..82       MOV     DPL,?V0 + 8
   \   000030   F583         MOV     DPH,A
   \   000032   E0           MOVX    A,@DPTR
   \   000033   FE           MOV     R6,A
   \   000034   A3           INC     DPTR
   \   000035   E0           MOVX    A,@DPTR
   \   000036   FF           MOV     R7,A
    968            uint8 rtrn = FALSE;
   \   000037   75..00       MOV     ?V0 + 1,#0x0
    969            osalNvHdr_t hdr;
    970          
    971            if ( pg == pgRes )
   \   00003A   90....       MOV     DPTR,#pgRes
   \   00003D   E0           MOVX    A,@DPTR
   \   00003E   65..         XRL     A,?V0 + 0
   \   000040   7007         JNZ     ??writeItem_0
    972            {
    973              /* Mark reserve page as being active, in process of receiving items.
    974               * Invoking function must effect a page compaction.
    975               */
    976              setPageUse( pg, FALSE );
   \   000042                ; Setup parameters for call to function setPageUse
   \   000042   7A00         MOV     R2,#0x0
   \   000044   A9..         MOV     R1,?V0 + 0
   \   000046   12....       LCALL   ??setPageUse?relay
    977            }
    978          
    979            hdr.id = id;
   \                     ??writeItem_0:
   \   000049   7402         MOV     A,#0x2
   \   00004B   12....       LCALL   ?XSTACK_DISP0_8
   \   00004E   E5..         MOV     A,?V0 + 6
   \   000050   F0           MOVX    @DPTR,A
   \   000051   A3           INC     DPTR
   \   000052   E5..         MOV     A,?V0 + 7
   \   000054   F0           MOVX    @DPTR,A
    980            hdr.len = len;
   \   000055   7404         MOV     A,#0x4
   \   000057   12....       LCALL   ?XSTACK_DISP0_8
   \   00005A   E5..         MOV     A,?V0 + 2
   \   00005C   F0           MOVX    @DPTR,A
   \   00005D   A3           INC     DPTR
   \   00005E   E5..         MOV     A,?V0 + 3
   \   000060   F0           MOVX    @DPTR,A
    981          
    982            writeWord( pg, offset, (uint8 *)&hdr );
   \   000061                ; Setup parameters for call to function writeWord
   \   000061   7402         MOV     A,#0x2
   \   000063   12....       LCALL   ?XSTACK_DISP0_8
   \   000066   AC82         MOV     R4,DPL
   \   000068   AD83         MOV     R5,DPH
   \   00006A   EE           MOV     A,R6
   \   00006B   FA           MOV     R2,A
   \   00006C   EF           MOV     A,R7
   \   00006D   FB           MOV     R3,A
   \   00006E   A9..         MOV     R1,?V0 + 0
   \   000070   12....       LCALL   ??writeWord?relay
    983            HalFlashRead(pg, offset, (uint8 *)(&hdr), OSAL_NV_HDR_SIZE);
   \   000073                ; Setup parameters for call to function HalFlashRead
   \   000073   75..08       MOV     ?V0 + 10,#0x8
   \   000076   75..00       MOV     ?V0 + 11,#0x0
   \   000079   78..         MOV     R0,#?V0 + 10
   \   00007B   12....       LCALL   ?PUSH_XSTACK_I_TWO
   \   00007E   7404         MOV     A,#0x4
   \   000080   12....       LCALL   ?XSTACK_DISP0_8
   \   000083   AC82         MOV     R4,DPL
   \   000085   AD83         MOV     R5,DPH
   \   000087   EE           MOV     A,R6
   \   000088   FA           MOV     R2,A
   \   000089   EF           MOV     A,R7
   \   00008A   FB           MOV     R3,A
   \   00008B   A9..         MOV     R1,?V0 + 0
   \   00008D   12....       LCALL   ??HalFlashRead?relay
   \   000090   7402         MOV     A,#0x2
   \   000092   12....       LCALL   ?DEALLOC_XSTACK8
    984          
    985            if ( (hdr.id == id) && (hdr.len == len) )
   \   000095   7402         MOV     A,#0x2
   \   000097   12....       LCALL   ?XSTACK_DISP0_8
   \   00009A   E0           MOVX    A,@DPTR
   \   00009B   65..         XRL     A,?V0 + 6
   \   00009D   7004         JNZ     ??writeItem_1
   \   00009F   A3           INC     DPTR
   \   0000A0   E0           MOVX    A,@DPTR
   \   0000A1   65..         XRL     A,?V0 + 7
   \                     ??writeItem_1:
   \   0000A3   6003         JZ      $+5
   \   0000A5   02....       LJMP    ??writeItem_2 & 0xFFFF
   \   0000A8   7404         MOV     A,#0x4
   \   0000AA   12....       LCALL   ?XSTACK_DISP0_8
   \   0000AD   E0           MOVX    A,@DPTR
   \   0000AE   65..         XRL     A,?V0 + 2
   \   0000B0   7004         JNZ     ??writeItem_3
   \   0000B2   A3           INC     DPTR
   \   0000B3   E0           MOVX    A,@DPTR
   \   0000B4   65..         XRL     A,?V0 + 3
   \                     ??writeItem_3:
   \   0000B6   6003         JZ      $+5
   \   0000B8   02....       LJMP    ??writeItem_2 & 0xFFFF
    986            {
    987              if ( flag )
   \   0000BB   E5..         MOV     A,?V0 + 4
   \   0000BD   7003         JNZ     $+5
   \   0000BF   02....       LJMP    ??writeItem_4 & 0xFFFF
   \   0000C2   741E         MOV     A,#0x1e
   \   0000C4   12....       LCALL   ?XSTACK_DISP0_8
   \   0000C7   E0           MOVX    A,@DPTR
   \   0000C8   F5..         MOV     ?V0 + 4,A
   \   0000CA   A3           INC     DPTR
   \   0000CB   E0           MOVX    A,@DPTR
   \   0000CC   F5..         MOV     ?V0 + 5,A
    988              {
    989                uint16 chk = calcChkB( len, buf );
   \   0000CE   85..82       MOV     DPL,?V0 + 4
   \   0000D1   F583         MOV     DPH,A
   \   0000D3   A8..         MOV     R0,?V0 + 2
   \   0000D5   A9..         MOV     R1,?V0 + 3
   \   0000D7   E8           MOV     A,R0
   \   0000D8   5403         ANL     A,#0x3
   \   0000DA   F5..         MOV     ?V0 + 6,A
   \   0000DC   E582         MOV     A,DPL
   \   0000DE   4583         ORL     A,DPH
   \   0000E0   7015         JNZ     ??writeItem_5
   \   0000E2   E8           MOV     A,R0
   \   0000E3   75F0FF       MOV     B,#-0x1
   \   0000E6   A4           MUL     AB
   \   0000E7   F8           MOV     R0,A
   \   0000E8   AAF0         MOV     R2,B
   \   0000EA   75F0FF       MOV     B,#-0x1
   \   0000ED   E9           MOV     A,R1
   \   0000EE   A4           MUL     AB
   \   0000EF   2A           ADD     A,R2
   \   0000F0   F9           MOV     R1,A
   \   0000F1   E8           MOV     A,R0
   \   0000F2   FA           MOV     R2,A
   \   0000F3   E9           MOV     A,R1
   \   0000F4   FB           MOV     R3,A
   \   0000F5   8020         SJMP    ??writeItem_6
   \                     ??writeItem_5:
   \   0000F7   7A00         MOV     R2,#0x0
   \   0000F9   7B00         MOV     R3,#0x0
   \   0000FB   800A         SJMP    ??writeItem_7
   \                     ??writeItem_8:
   \   0000FD   E0           MOVX    A,@DPTR
   \   0000FE   FC           MOV     R4,A
   \   0000FF   EA           MOV     A,R2
   \   000100   2C           ADD     A,R4
   \   000101   FA           MOV     R2,A
   \   000102   EB           MOV     A,R3
   \   000103   3400         ADDC    A,#0x0
   \   000105   FB           MOV     R3,A
   \   000106   A3           INC     DPTR
   \                     ??writeItem_7:
   \   000107   E8           MOV     A,R0
   \   000108   FC           MOV     R4,A
   \   000109   E9           MOV     A,R1
   \   00010A   FD           MOV     R5,A
   \   00010B   EC           MOV     A,R4
   \   00010C   24FF         ADD     A,#-0x1
   \   00010E   18           DEC     R0
   \   00010F   ED           MOV     A,R5
   \   000110   34FF         ADDC    A,#-0x1
   \   000112   F9           MOV     R1,A
   \   000113   EC           MOV     A,R4
   \   000114   4D           ORL     A,R5
   \   000115   70E6         JNZ     ??writeItem_8
   \                     ??writeItem_6:
   \   000117   E5..         MOV     A,?V0 + 6
   \   000119   601E         JZ      ??writeItem_9
   \   00011B   7404         MOV     A,#0x4
   \   00011D   C3           CLR     C
   \   00011E   95..         SUBB    A,?V0 + 6
   \   000120   F8           MOV     R0,A
   \   000121   95E0         SUBB    A,0xE0 /* A   */
   \   000123   F9           MOV     R1,A
   \   000124   E8           MOV     A,R0
   \   000125   75F0FF       MOV     B,#-0x1
   \   000128   A4           MUL     AB
   \   000129   F8           MOV     R0,A
   \   00012A   ACF0         MOV     R4,B
   \   00012C   75F0FF       MOV     B,#-0x1
   \   00012F   E9           MOV     A,R1
   \   000130   A4           MUL     AB
   \   000131   2C           ADD     A,R4
   \   000132   F9           MOV     R1,A
   \   000133   EA           MOV     A,R2
   \   000134   28           ADD     A,R0
   \   000135   FA           MOV     R2,A
   \   000136   EB           MOV     A,R3
   \   000137   39           ADDC    A,R1
   \   000138   FB           MOV     R3,A
   \                     ??writeItem_9:
   \   000139   85..82       MOV     DPL,?XSP + 0
   \   00013C   85..83       MOV     DPH,?XSP + 1
   \   00013F   EA           MOV     A,R2
   \   000140   F0           MOVX    @DPTR,A
   \   000141   A3           INC     DPTR
   \   000142   EB           MOV     A,R3
   \   000143   F0           MOVX    @DPTR,A
    990          
    991                offset += OSAL_NV_HDR_SIZE;
   \   000144   EE           MOV     A,R6
   \   000145   2408         ADD     A,#0x8
   \   000147   FE           MOV     R6,A
   \   000148   EF           MOV     A,R7
   \   000149   3400         ADDC    A,#0x0
   \   00014B   FF           MOV     R7,A
    992                if ( buf != NULL )
   \   00014C   E5..         MOV     A,?V0 + 4
   \   00014E   45..         ORL     A,?V0 + 5
   \   000150   6017         JZ      ??writeItem_10
    993                {
    994                  writeBuf( pg, offset, len, buf );
   \   000152                ; Setup parameters for call to function writeBuf
   \   000152   78..         MOV     R0,#?V0 + 4
   \   000154   12....       LCALL   ?PUSH_XSTACK_I_TWO
   \   000157   AC..         MOV     R4,?V0 + 2
   \   000159   AD..         MOV     R5,?V0 + 3
   \   00015B   EE           MOV     A,R6
   \   00015C   FA           MOV     R2,A
   \   00015D   EF           MOV     A,R7
   \   00015E   FB           MOV     R3,A
   \   00015F   A9..         MOV     R1,?V0 + 0
   \   000161   12....       LCALL   ??writeBuf?relay
   \   000164   7402         MOV     A,#0x2
   \   000166   12....       LCALL   ?DEALLOC_XSTACK8
    995                }
    996          
    997                if ( chk == calcChkF( pg, offset, len ) )
   \                     ??writeItem_10:
   \   000169                ; Setup parameters for call to function calcChkF
   \   000169   AC..         MOV     R4,?V0 + 2
   \   00016B   AD..         MOV     R5,?V0 + 3
   \   00016D   EE           MOV     A,R6
   \   00016E   FA           MOV     R2,A
   \   00016F   EF           MOV     A,R7
   \   000170   FB           MOV     R3,A
   \   000171   A9..         MOV     R1,?V0 + 0
   \   000173   12....       LCALL   ??calcChkF?relay
   \   000176   8A..         MOV     ?V0 + 2,R2
   \   000178   8B..         MOV     ?V0 + 3,R3
   \   00017A   A8..         MOV     R0,?V0 + 2
   \   00017C   A9..         MOV     R1,?V0 + 3
   \   00017E   85..82       MOV     DPL,?XSP + 0
   \   000181   85..83       MOV     DPH,?XSP + 1
   \   000184   E0           MOVX    A,@DPTR
   \   000185   68           XRL     A,R0
   \   000186   7003         JNZ     ??writeItem_11
   \   000188   A3           INC     DPTR
   \   000189   E0           MOVX    A,@DPTR
   \   00018A   69           XRL     A,R1
   \                     ??writeItem_11:
   \   00018B   7057         JNZ     ??writeItem_2
    998                {
    999                  writeWordH(pg, (offset-OSAL_NV_WORD_SIZE), (uint8 *)&chk);
   \   00018D                ; Setup parameters for call to function writeWordH
   \   00018D   85..82       MOV     DPL,?XSP + 0
   \   000190   85..83       MOV     DPH,?XSP + 1
   \   000193   AC82         MOV     R4,DPL
   \   000195   AD83         MOV     R5,DPH
   \   000197   EE           MOV     A,R6
   \   000198   24FC         ADD     A,#-0x4
   \   00019A   FA           MOV     R2,A
   \   00019B   EF           MOV     A,R7
   \   00019C   34FF         ADDC    A,#-0x1
   \   00019E   FB           MOV     R3,A
   \   00019F   A9..         MOV     R1,?V0 + 0
   \   0001A1   12....       LCALL   ??writeWordH?relay
   1000                  HalFlashRead(pg, (offset-OSAL_NV_HDR_SIZE), (uint8 *)(&hdr), OSAL_NV_HDR_SIZE);
   \   0001A4                ; Setup parameters for call to function HalFlashRead
   \   0001A4   75..08       MOV     ?V0 + 2,#0x8
   \   0001A7   75..00       MOV     ?V0 + 3,#0x0
   \   0001AA   78..         MOV     R0,#?V0 + 2
   \   0001AC   12....       LCALL   ?PUSH_XSTACK_I_TWO
   \   0001AF   7404         MOV     A,#0x4
   \   0001B1   12....       LCALL   ?XSTACK_DISP0_8
   \   0001B4   AC82         MOV     R4,DPL
   \   0001B6   AD83         MOV     R5,DPH
   \   0001B8   EE           MOV     A,R6
   \   0001B9   24F8         ADD     A,#-0x8
   \   0001BB   FA           MOV     R2,A
   \   0001BC   EF           MOV     A,R7
   \   0001BD   34FF         ADDC    A,#-0x1
   \   0001BF   FB           MOV     R3,A
   \   0001C0   A9..         MOV     R1,?V0 + 0
   \   0001C2   12....       LCALL   ??HalFlashRead?relay
   \   0001C5   7402         MOV     A,#0x2
   \   0001C7   12....       LCALL   ?DEALLOC_XSTACK8
   1001          
   1002                  if ( chk == hdr.chk )
   \   0001CA   85..82       MOV     DPL,?XSP + 0
   \   0001CD   85..83       MOV     DPH,?XSP + 1
   \   0001D0   12....       LCALL   ?Subroutine12 & 0xFFFF
   1003                  {
   1004                    rtrn = pg;
   1005                  }
   1006                }
   1007              }
   \                     ??CrossCallReturnLabel_18:
   \   0001D3   7406         MOV     A,#0x6
   \   0001D5   12....       LCALL   ?XSTACK_DISP0_8
   \   0001D8   E0           MOVX    A,@DPTR
   \   0001D9   68           XRL     A,R0
   \   0001DA   7003         JNZ     ??writeItem_12
   \   0001DC   A3           INC     DPTR
   \   0001DD   E0           MOVX    A,@DPTR
   \   0001DE   69           XRL     A,R1
   \                     ??writeItem_12:
   \   0001DF   7003         JNZ     ??writeItem_2
   1008              else
   1009              {
   1010                rtrn = pg;
   \                     ??writeItem_4:
   \   0001E1   85....       MOV     ?V0 + 1,?V0 + 0
   1011              }
   1012            }
   1013          
   1014            len = OSAL_NV_ITEM_SIZE( hdr.len );
   1015            pgOff[pg-OSAL_NV_PAGE_BEG] += len;
   \                     ??writeItem_2:
   \   0001E4   7404         MOV     A,#0x4
   \   0001E6   12....       LCALL   ?XSTACK_DISP0_8
   \   0001E9   12....       LCALL   ?Subroutine10 & 0xFFFF
   \                     ??CrossCallReturnLabel_11:
   \   0001EC   F8           MOV     R0,A
   \   0001ED   E9           MOV     A,R1
   \   0001EE   3400         ADDC    A,#0x0
   \   0001F0   F9           MOV     R1,A
   \   0001F1   85..82       MOV     DPL,?V0 + 8
   \   0001F4   85..83       MOV     DPH,?V0 + 9
   \   0001F7   E0           MOVX    A,@DPTR
   \   0001F8   28           ADD     A,R0
   \   0001F9   F0           MOVX    @DPTR,A
   \   0001FA   A3           INC     DPTR
   \   0001FB   E0           MOVX    A,@DPTR
   \   0001FC   39           ADDC    A,R1
   \   0001FD   F0           MOVX    @DPTR,A
   1016          
   1017            return rtrn;
   \   0001FE   A9..         MOV     R1,?V0 + 1
   \   000200   740A         MOV     A,#0xa
   \   000202   12....       LCALL   ?DEALLOC_XSTACK8
   \   000205   7F0C         MOV     R7,#0xc
   \   000207   02....       LJMP    ?BANKED_LEAVE_XDATA
   1018          }
   1019          
   1020          /*********************************************************************
   1021           * @fn      osal_nv_init
   1022           *
   1023           * @brief   Initialize NV service.
   1024           *
   1025           * @param   p - Not used.
   1026           *
   1027           * @return  none
   1028           */

   \                                 In  segment BANKED_CODE, align 1, keep-with-next
   1029          void osal_nv_init( void *p )
   \                     osal_nv_init:
   1030          {
   \   000000   C082         PUSH    DPL
   \   000002   C083         PUSH    DPH
   \   000004                ; Saved register size: 2
   \   000004                ; Auto size: 0
   1031            (void)p;  // Suppress Lint warning.
   1032            (void)initNV();  // Always returns TRUE after pages have been erased.
   \   000004                ; Setup parameters for call to function initNV
   \   000004   12....       LCALL   ??initNV?relay
   1033          }
   \   000007   D083         POP     DPH
   \   000009   D082         POP     DPL
   \   00000B   02....       LJMP    ?BRET
   1034          
   1035          /*********************************************************************
   1036           * @fn      osal_nv_item_init
   1037           *
   1038           * @brief   If the NV item does not already exist, it is created and
   1039           *          initialized with the data passed to the function, if any.
   1040           *          This function must be called before calling osal_nv_read() or
   1041           *          osal_nv_write().
   1042           *
   1043           * @param   id  - Valid NV item Id.
   1044           * @param   len - Item length.
   1045           * @param  *buf - Pointer to item initalization data. Set to NULL if none.
   1046           *
   1047           * @return  NV_ITEM_UNINIT - Id did not exist and was created successfully.
   1048           *          ZSUCCESS       - Id already existed, no action taken.
   1049           *          NV_OPER_FAILED - Failure to find or create Id.
   1050           */

   \                                 In  segment BANKED_CODE, align 1, keep-with-next
   1051          uint8 osal_nv_item_init( uint16 id, uint16 len, void *buf )
   \                     osal_nv_item_init:
   1052          {
   \   000000   74F2         MOV     A,#-0xe
   \   000002   12....       LCALL   ?BANKED_ENTER_XDATA
   \   000005                ; Saved register size: 14
   \   000005                ; Auto size: 0
   \   000005   EA           MOV     A,R2
   \   000006   FE           MOV     R6,A
   \   000007   EB           MOV     A,R3
   \   000008   FF           MOV     R7,A
   \   000009   8C..         MOV     ?V0 + 0,R4
   \   00000B   8D..         MOV     ?V0 + 1,R5
   \   00000D   740E         MOV     A,#0xe
   \   00000F   12....       LCALL   ?XSTACK_DISP0_8
   \   000012   12....       LCALL   ?Subroutine9 & 0xFFFF
   1053            /* Global fail flag for fail due to low bus voltage has less impact on code
   1054             * size than passing back a return value all the way from the lowest level.
   1055             */
   1056            failF = FALSE;
   \                     ??CrossCallReturnLabel_8:
   \   000015   90....       MOV     DPTR,#failF
   \   000018   E4           CLR     A
   \   000019   F0           MOVX    @DPTR,A
   1057          
   1058            if ( (findItem( id ) != OSAL_NV_ITEM_NULL) )
   \   00001A                ; Setup parameters for call to function findItem
   \   00001A   12....       LCALL   ??findItem?relay
   \   00001D   8B..         MOV     ?V0 + 5,R3
   \   00001F   EA           MOV     A,R2
   \   000020   45..         ORL     A,?V0 + 5
   \   000022   6004         JZ      ??osal_nv_item_init_0
   1059            {
   1060              return ZSUCCESS;
   \   000024   7900         MOV     R1,#0x0
   \   000026   802B         SJMP    ??osal_nv_item_init_1
   1061            }
   1062            else if ( initItem( TRUE, id, len, buf ) )
   \                     ??osal_nv_item_init_0:
   \   000028                ; Setup parameters for call to function initItem
   \   000028   78..         MOV     R0,#?V0 + 2
   \   00002A   12....       LCALL   ?PUSH_XSTACK_I_TWO
   \   00002D   AC..         MOV     R4,?V0 + 0
   \   00002F   AD..         MOV     R5,?V0 + 1
   \   000031   EE           MOV     A,R6
   \   000032   FA           MOV     R2,A
   \   000033   EF           MOV     A,R7
   \   000034   FB           MOV     R3,A
   \   000035   7901         MOV     R1,#0x1
   \   000037   12....       LCALL   ??initItem?relay
   \   00003A   7402         MOV     A,#0x2
   \   00003C   12....       LCALL   ?DEALLOC_XSTACK8
   \   00003F   E9           MOV     A,R1
   \   000040   600F         JZ      ??osal_nv_item_init_2
   1063            {
   1064              if ( failF )
   \   000042   90....       MOV     DPTR,#failF
   \   000045   E0           MOVX    A,@DPTR
   \   000046   6005         JZ      ??osal_nv_item_init_3
   1065              {
   1066                (void)initNV();  // See comment at the declaration of failF.
   \   000048                ; Setup parameters for call to function initNV
   \   000048   12....       LCALL   ??initNV?relay
   1067                return NV_OPER_FAILED;
   \   00004B   8004         SJMP    ??osal_nv_item_init_2
   1068              }
   1069              else
   1070              {
   1071                return NV_ITEM_UNINIT;
   \                     ??osal_nv_item_init_3:
   \   00004D   7909         MOV     R1,#0x9
   \   00004F   8002         SJMP    ??osal_nv_item_init_1
   1072              }
   1073            }
   1074            else
   1075            {
   1076              return NV_OPER_FAILED;
   \                     ??osal_nv_item_init_2:
   \   000051   790A         MOV     R1,#0xa
   1077            }
   \                     ??osal_nv_item_init_1:
   \   000053   80..         SJMP    ??Subroutine33_0
   1078          }
   1079          
   1080          /*********************************************************************
   1081           * @fn      osal_nv_item_len
   1082           *
   1083           * @brief   Get the data length of the item stored in NV memory.
   1084           *
   1085           * @param   id  - Valid NV item Id.
   1086           *
   1087           * @return  Item length, if found; zero otherwise.
   1088           */

   \                                 In  segment BANKED_CODE, align 1, keep-with-next
   1089          uint16 osal_nv_item_len( uint16 id )
   \                     osal_nv_item_len:
   1090          {
   \   000000   74F6         MOV     A,#-0xa
   \   000002   12....       LCALL   ?BANKED_ENTER_XDATA
   \   000005                ; Saved register size: 10
   \   000005                ; Auto size: 8
   \   000005   74F8         MOV     A,#-0x8
   \   000007   12....       LCALL   ?ALLOC_XSTACK8
   1091            uint16 offset = findItem( id );
   \   00000A                ; Setup parameters for call to function findItem
   \   00000A   12....       LCALL   ??findItem?relay
   1092          
   1093            if ( offset == OSAL_NV_ITEM_NULL )
   \   00000D   EA           MOV     A,R2
   \   00000E   4B           ORL     A,R3
   \   00000F   7006         JNZ     ??osal_nv_item_len_0
   1094            {
   1095              return 0;
   \   000011   7A00         MOV     R2,#0x0
   \   000013   7B00         MOV     R3,#0x0
   \   000015   802E         SJMP    ??osal_nv_item_len_1
   1096            }
   1097            else
   1098            {
   1099              osalNvHdr_t hdr;
   1100              HalFlashRead(findPg, (offset - OSAL_NV_HDR_SIZE), (uint8 *)(&hdr), OSAL_NV_HDR_SIZE);
   \                     ??osal_nv_item_len_0:
   \   000017                ; Setup parameters for call to function HalFlashRead
   \   000017   75..08       MOV     ?V0 + 0,#0x8
   \   00001A   75..00       MOV     ?V0 + 1,#0x0
   \   00001D   78..         MOV     R0,#?V0 + 0
   \   00001F   12....       LCALL   ?PUSH_XSTACK_I_TWO
   \   000022   7402         MOV     A,#0x2
   \   000024   12....       LCALL   ?XSTACK_DISP0_8
   \   000027   AC82         MOV     R4,DPL
   \   000029   AD83         MOV     R5,DPH
   \   00002B   EA           MOV     A,R2
   \   00002C   24F8         ADD     A,#-0x8
   \   00002E   FA           MOV     R2,A
   \   00002F   EB           MOV     A,R3
   \   000030   12....       LCALL   ?Subroutine21 & 0xFFFF
   \                     ??CrossCallReturnLabel_43:
   \   000033   12....       LCALL   ??HalFlashRead?relay
   \   000036   7402         MOV     A,#0x2
   \   000038   12....       LCALL   ?DEALLOC_XSTACK8
   1101              return hdr.len;
   \   00003B   7402         MOV     A,#0x2
   \   00003D   12....       LCALL   ?XSTACK_DISP0_8
   \   000040   E0           MOVX    A,@DPTR
   \   000041   FA           MOV     R2,A
   \   000042   A3           INC     DPTR
   \   000043   E0           MOVX    A,@DPTR
   \   000044   FB           MOV     R3,A
   \                     ??osal_nv_item_len_1:
   \   000045   7408         MOV     A,#0x8
   \   000047   12....       LCALL   ?DEALLOC_XSTACK8
   \   00004A   7F02         MOV     R7,#0x2
   \   00004C   02....       LJMP    ?BANKED_LEAVE_XDATA
   1102            }
   1103          }

   \                                 In  segment BANKED_CODE, align 1, keep-with-next
   \                     ?Subroutine21:
   \   000000   34FF         ADDC    A,#-0x1
   \   000002   FB           MOV     R3,A
   \   000003   90....       MOV     DPTR,#findPg
   \   000006   E0           MOVX    A,@DPTR
   \   000007   F9           MOV     R1,A
   \   000008   22           RET
   1104          
   1105          /*********************************************************************
   1106           * @fn      osal_nv_write
   1107           *
   1108           * @brief   Write a data item to NV. Function can write an entire item to NV or
   1109           *          an element of an item by indexing into the item with an offset.
   1110           *
   1111           * @param   id  - Valid NV item Id.
   1112           * @param   ndx - Index offset into item
   1113           * @param   len - Length of data to write.
   1114           * @param  *buf - Data to write.
   1115           *
   1116           * @return  ZSUCCESS if successful, NV_ITEM_UNINIT if item did not
   1117           *          exist in NV and offset is non-zero, NV_OPER_FAILED if failure.
   1118           */

   \                                 In  segment BANKED_CODE, align 1, keep-with-next
   1119          uint8 osal_nv_write( uint16 id, uint16 ndx, uint16 len, void *buf )
   \                     osal_nv_write:
   1120          {
   \   000000   74E8         MOV     A,#-0x18
   \   000002   12....       LCALL   ?BANKED_ENTER_XDATA
   \   000005                ; Saved register size: 24
   \   000005                ; Auto size: 13
   \   000005   74F3         MOV     A,#-0xd
   \   000007   12....       LCALL   ?ALLOC_XSTACK8
   \   00000A   8A..         MOV     ?V0 + 14,R2
   \   00000C   8B..         MOV     ?V0 + 15,R3
   \   00000E   8C..         MOV     ?V0 + 2,R4
   \   000010   8D..         MOV     ?V0 + 3,R5
   1121            uint8 rtrn = ZSUCCESS;
   \   000012   75..00       MOV     ?V0 + 1,#0x0
   1122          
   1123            /* Global fail flag for fail due to low bus voltage has less impact on code
   1124             * size than passing back a return value all the way from the lowest level.
   1125             */
   1126            failF = FALSE;
   \   000015   90....       MOV     DPTR,#failF
   \   000018   E4           CLR     A
   \   000019   F0           MOVX    @DPTR,A
   \   00001A   7425         MOV     A,#0x25
   \   00001C   12....       LCALL   ?XSTACK_DISP0_8
   \   00001F   E0           MOVX    A,@DPTR
   \   000020   F5..         MOV     ?V0 + 10,A
   \   000022   A3           INC     DPTR
   \   000023   E0           MOVX    A,@DPTR
   \   000024   F5..         MOV     ?V0 + 11,A
   1127          
   1128            if ( len != 0 )
   \   000026   E5..         MOV     A,?V0 + 10
   \   000028   45..         ORL     A,?V0 + 11
   \   00002A   7003         JNZ     $+5
   \   00002C   02....       LJMP    ??osal_nv_write_0 & 0xFFFF
   1129            {
   1130              osalNvHdr_t hdr;
   1131              uint16 origOff, srcOff;
   1132              uint16 cnt;
   1133              uint8 *ptr;
   1134          
   1135              origOff = srcOff = findItem( id );
   \   00002F                ; Setup parameters for call to function findItem
   \   00002F   12....       LCALL   ??findItem?relay
   \   000032   7401         MOV     A,#0x1
   \   000034   12....       LCALL   ?XSTACK_DISP0_8
   \   000037   EA           MOV     A,R2
   \   000038   F0           MOVX    @DPTR,A
   \   000039   A3           INC     DPTR
   \   00003A   EB           MOV     A,R3
   \   00003B   F0           MOVX    @DPTR,A
   1136              if ( srcOff == OSAL_NV_ITEM_NULL )
   \   00003C   7401         MOV     A,#0x1
   \   00003E   12....       LCALL   ?XSTACK_DISP0_8
   \   000041   12....       LCALL   ?Subroutine11 & 0xFFFF
   \                     ??CrossCallReturnLabel_14:
   \   000044   7005         JNZ     ??osal_nv_write_1
   1137              {
   1138                return NV_ITEM_UNINIT;
   \   000046   7909         MOV     R1,#0x9
   \   000048   02....       LJMP    ??osal_nv_write_2 & 0xFFFF
   1139              }
   1140          
   1141              HalFlashRead(findPg, (srcOff - OSAL_NV_HDR_SIZE), (uint8 *)(&hdr), OSAL_NV_HDR_SIZE);
   \                     ??osal_nv_write_1:
   \   00004B                ; Setup parameters for call to function HalFlashRead
   \   00004B   75..08       MOV     ?V0 + 4,#0x8
   \   00004E   75..00       MOV     ?V0 + 5,#0x0
   \   000051   78..         MOV     R0,#?V0 + 4
   \   000053   12....       LCALL   ?PUSH_XSTACK_I_TWO
   \   000056   7407         MOV     A,#0x7
   \   000058   12....       LCALL   ?XSTACK_DISP0_8
   \   00005B   AC82         MOV     R4,DPL
   \   00005D   AD83         MOV     R5,DPH
   \   00005F   7403         MOV     A,#0x3
   \   000061   12....       LCALL   ?XSTACK_DISP0_8
   \   000064   E0           MOVX    A,@DPTR
   \   000065   24F8         ADD     A,#-0x8
   \   000067   FA           MOV     R2,A
   \   000068   A3           INC     DPTR
   \   000069   E0           MOVX    A,@DPTR
   \   00006A   12....       LCALL   ?Subroutine21 & 0xFFFF
   \                     ??CrossCallReturnLabel_44:
   \   00006D   12....       LCALL   ??HalFlashRead?relay
   \   000070   7402         MOV     A,#0x2
   \   000072   12....       LCALL   ?DEALLOC_XSTACK8
   1142              if ( hdr.len < (ndx + len) )
   \   000075   7407         MOV     A,#0x7
   \   000077   12....       LCALL   ?XSTACK_DISP0_8
   \   00007A   E5..         MOV     A,?V0 + 2
   \   00007C   25..         ADD     A,?V0 + 10
   \   00007E   F8           MOV     R0,A
   \   00007F   E5..         MOV     A,?V0 + 3
   \   000081   35..         ADDC    A,?V0 + 11
   \   000083   F9           MOV     R1,A
   \   000084   C3           CLR     C
   \   000085   E0           MOVX    A,@DPTR
   \   000086   98           SUBB    A,R0
   \   000087   A3           INC     DPTR
   \   000088   E0           MOVX    A,@DPTR
   \   000089   99           SUBB    A,R1
   \   00008A   5005         JNC     ??osal_nv_write_3
   1143              {
   1144                return NV_OPER_FAILED;
   \   00008C   790A         MOV     R1,#0xa
   \   00008E   02....       LJMP    ??osal_nv_write_2 & 0xFFFF
   1145              }
   1146          
   1147              srcOff += ndx;
   \                     ??osal_nv_write_3:
   \   000091   7401         MOV     A,#0x1
   \   000093   12....       LCALL   ?XSTACK_DISP0_8
   \   000096   E0           MOVX    A,@DPTR
   \   000097   25..         ADD     A,?V0 + 2
   \   000099   FE           MOV     R6,A
   \   00009A   A3           INC     DPTR
   \   00009B   E0           MOVX    A,@DPTR
   \   00009C   35..         ADDC    A,?V0 + 3
   \   00009E   FF           MOV     R7,A
   \   00009F   8E..         MOV     ?V0 + 4,R6
   \   0000A1   8F..         MOV     ?V0 + 5,R7
   \   0000A3   7427         MOV     A,#0x27
   \   0000A5   12....       LCALL   ?XSTACK_DISP0_8
   \   0000A8   12....       LCALL   ?Subroutine12 & 0xFFFF
   \                     ??CrossCallReturnLabel_19:
   \   0000AB   7427         MOV     A,#0x27
   \   0000AD   12....       LCALL   ?XSTACK_DISP0_8
   \   0000B0   E8           MOV     A,R0
   \   0000B1   F0           MOVX    @DPTR,A
   \   0000B2   A3           INC     DPTR
   \   0000B3   E9           MOV     A,R1
   \   0000B4   F0           MOVX    @DPTR,A
   1148              ptr = buf;
   \   0000B5   7427         MOV     A,#0x27
   \   0000B7   12....       LCALL   ?XSTACK_DISP0_8
   \   0000BA   E0           MOVX    A,@DPTR
   \   0000BB   F5..         MOV     ?V0 + 6,A
   \   0000BD   A3           INC     DPTR
   \   0000BE   E0           MOVX    A,@DPTR
   \   0000BF   F5..         MOV     ?V0 + 7,A
   1149              cnt = len;
   \   0000C1   85....       MOV     ?V0 + 8,?V0 + 10
   \   0000C4   85....       MOV     ?V0 + 9,?V0 + 11
   1150              while ( cnt )
   1151              {
   1152                uint8 tmp;
   1153                HalFlashRead(findPg, srcOff++, &tmp, 1);
   \                     ??osal_nv_write_4:
   \   0000C7                ; Setup parameters for call to function HalFlashRead
   \   0000C7   75..01       MOV     ?V0 + 12,#0x1
   \   0000CA   75..00       MOV     ?V0 + 13,#0x0
   \   0000CD   78..         MOV     R0,#?V0 + 12
   \   0000CF   12....       LCALL   ?PUSH_XSTACK_I_TWO
   \   0000D2   7402         MOV     A,#0x2
   \   0000D4   12....       LCALL   ?XSTACK_DISP0_8
   \   0000D7   AC82         MOV     R4,DPL
   \   0000D9   AD83         MOV     R5,DPH
   \   0000DB   AA..         MOV     R2,?V0 + 4
   \   0000DD   AB..         MOV     R3,?V0 + 5
   \   0000DF   90....       MOV     DPTR,#findPg
   \   0000E2   E0           MOVX    A,@DPTR
   \   0000E3   F9           MOV     R1,A
   \   0000E4   12....       LCALL   ??HalFlashRead?relay
   \   0000E7   7402         MOV     A,#0x2
   \   0000E9   12....       LCALL   ?DEALLOC_XSTACK8
   \   0000EC   12....       LCALL   ?Subroutine22 & 0xFFFF
   1154                if ( tmp != *ptr++ )
   \                     ??CrossCallReturnLabel_47:
   \   0000EF   A8..         MOV     R0,?V0 + 6
   \   0000F1   A9..         MOV     R1,?V0 + 7
   \   0000F3   8882         MOV     DPL,R0
   \   0000F5   8983         MOV     DPH,R1
   \   0000F7   A3           INC     DPTR
   \   0000F8   8582..       MOV     ?V0 + 6,DPL
   \   0000FB   8583..       MOV     ?V0 + 7,DPH
   \   0000FE   85..82       MOV     DPL,?XSP + 0
   \   000101   85..83       MOV     DPH,?XSP + 1
   \   000104   E0           MOVX    A,@DPTR
   \   000105   FA           MOV     R2,A
   \   000106   8882         MOV     DPL,R0
   \   000108   8983         MOV     DPH,R1
   \   00010A   E0           MOVX    A,@DPTR
   \   00010B   6A           XRL     A,R2
   \   00010C   7017         JNZ     ??osal_nv_write_5
   1155                {
   1156                  break;
   1157                }
   1158                cnt--;
   1159              }
   \   00010E   E5..         MOV     A,?V0 + 8
   \   000110   24FF         ADD     A,#-0x1
   \   000112   F5..         MOV     ?V0 + 8,A
   \   000114   E5..         MOV     A,?V0 + 9
   \   000116   34FF         ADDC    A,#-0x1
   \   000118   F5..         MOV     ?V0 + 9,A
   \   00011A   E5..         MOV     A,?V0 + 8
   \   00011C   45..         ORL     A,?V0 + 9
   \   00011E   7003         JNZ     $+5
   \   000120   02....       LJMP    ??osal_nv_write_6 & 0xFFFF
   \   000123   80A2         SJMP    ??osal_nv_write_4
   1160          
   1161              if ( cnt != 0 )  // If the buffer to write is different in one or more bytes.
   1162              {
   1163                uint8 comPg, dstPg = initItem( FALSE, id, hdr.len, &comPg );
   \                     ??osal_nv_write_5:
   \   000125                ; Setup parameters for call to function initItem
   \   000125   85..82       MOV     DPL,?XSP + 0
   \   000128   85..83       MOV     DPH,?XSP + 1
   \   00012B   8582..       MOV     ?V0 + 4,DPL
   \   00012E   8583..       MOV     ?V0 + 5,DPH
   \   000131   78..         MOV     R0,#?V0 + 4
   \   000133   12....       LCALL   ?PUSH_XSTACK_I_TWO
   \   000136   7409         MOV     A,#0x9
   \   000138   12....       LCALL   ?XSTACK_DISP0_8
   \   00013B   12....       LCALL   ?Subroutine15 & 0xFFFF
   \                     ??CrossCallReturnLabel_30:
   \   00013E   AA..         MOV     R2,?V0 + 14
   \   000140   AB..         MOV     R3,?V0 + 15
   \   000142   7900         MOV     R1,#0x0
   \   000144   12....       LCALL   ??initItem?relay
   \   000147   7402         MOV     A,#0x2
   \   000149   12....       LCALL   ?DEALLOC_XSTACK8
   \   00014C   E9           MOV     A,R1
   \   00014D   F5..         MOV     ?V0 + 0,A
   1164          
   1165                if ( dstPg != OSAL_NV_PAGE_NULL )
   \   00014F   7003         JNZ     $+5
   \   000151   02....       LJMP    ??osal_nv_write_7 & 0xFFFF
   1166                {
   1167                  uint16 tmp = OSAL_NV_DATA_SIZE( hdr.len );
   \   000154   7407         MOV     A,#0x7
   \   000156   12....       LCALL   ?XSTACK_DISP0_8
   \   000159   12....       LCALL   ?Subroutine25 & 0xFFFF
   \                     ??CrossCallReturnLabel_52:
   \   00015C   F8           MOV     R0,A
   \   00015D   7403         MOV     A,#0x3
   \   00015F   12....       LCALL   ?XSTACK_DISP0_8
   \   000162   E8           MOV     A,R0
   \   000163   F0           MOVX    @DPTR,A
   \   000164   A3           INC     DPTR
   \   000165   E9           MOV     A,R1
   \   000166   F0           MOVX    @DPTR,A
   1168                  uint16 dstOff = pgOff[dstPg-OSAL_NV_PAGE_BEG] - tmp;
   \   000167   E5..         MOV     A,?V0 + 0
   \   000169   C3           CLR     C
   \   00016A   33           RLC     A
   \   00016B   F8           MOV     R0,A
   \   00016C   E4           CLR     A
   \   00016D   33           RLC     A
   \   00016E   F9           MOV     R1,A
   \   00016F   74..         MOV     A,#(pgOff + 14) & 0xff
   \   000171   28           ADD     A,R0
   \   000172   F5..         MOV     ?V0 + 6,A
   \   000174   74..         MOV     A,#((pgOff - 242) >> 8) & 0xff
   \   000176   39           ADDC    A,R1
   \   000177   F5..         MOV     ?V0 + 7,A
   \   000179   85..82       MOV     DPL,?V0 + 6
   \   00017C   F583         MOV     DPH,A
   \   00017E   C082         PUSH    DPL
   \   000180   C083         PUSH    DPH
   \   000182   7403         MOV     A,#0x3
   \   000184   12....       LCALL   ?XSTACK_DISP0_8
   \   000187   12....       LCALL   ?Subroutine12 & 0xFFFF
   \                     ??CrossCallReturnLabel_20:
   \   00018A   D083         POP     DPH
   \   00018C   D082         POP     DPL
   \   00018E   12....       LCALL   ?Subroutine14 & 0xFFFF
   1169                  uint8 srcPg = findPg;
   \                     ??CrossCallReturnLabel_26:
   \   000191   90....       MOV     DPTR,#findPg
   \   000194   E0           MOVX    A,@DPTR
   \   000195   F5..         MOV     ?V0 + 4,A
   1170                  srcOff = origOff;
   1171          
   1172                  setItem( srcPg, srcOff, eNvXfer );
   \   000197                ; Setup parameters for call to function setItem
   \   000197   7C00         MOV     R4,#0x0
   \   000199   7401         MOV     A,#0x1
   \   00019B   12....       LCALL   ?XSTACK_DISP0_8
   \   00019E   12....       LCALL   ?Subroutine13 & 0xFFFF
   \                     ??CrossCallReturnLabel_23:
   \   0001A1   12....       LCALL   ??setItem?relay
   1173          
   1174                  xferBuf( srcPg, srcOff, dstPg, dstOff, ndx );
   \   0001A4                ; Setup parameters for call to function xferBuf
   \   0001A4   78..         MOV     R0,#?V0 + 2
   \   0001A6   12....       LCALL   ?PUSH_XSTACK_I_TWO
   \   0001A9   78..         MOV     R0,#?V0 + 8
   \   0001AB   12....       LCALL   ?PUSH_XSTACK_I_TWO
   \   0001AE   AC..         MOV     R4,?V0 + 0
   \   0001B0   7405         MOV     A,#0x5
   \   0001B2   12....       LCALL   ?XSTACK_DISP0_8
   \   0001B5   12....       LCALL   ?Subroutine13 & 0xFFFF
   \                     ??CrossCallReturnLabel_24:
   \   0001B8   12....       LCALL   ??xferBuf?relay
   \   0001BB   7404         MOV     A,#0x4
   \   0001BD   12....       LCALL   ?DEALLOC_XSTACK8
   1175                  srcOff += ndx;
   1176                  dstOff += ndx;
   \   0001C0   E5..         MOV     A,?V0 + 8
   \   0001C2   25..         ADD     A,?V0 + 2
   \   0001C4   F5..         MOV     ?V0 + 8,A
   \   0001C6   E5..         MOV     A,?V0 + 9
   \   0001C8   35..         ADDC    A,?V0 + 3
   \   0001CA   F5..         MOV     ?V0 + 9,A
   1177          
   1178                  writeBuf( dstPg, dstOff, len, buf );
   \   0001CC                ; Setup parameters for call to function writeBuf
   \   0001CC   7427         MOV     A,#0x27
   \   0001CE   12....       LCALL   ?XSTACK_DISP0_8
   \   0001D1   12....       LCALL   ?PUSH_XSTACK8_X_TWO
   \   0001D4   AC..         MOV     R4,?V0 + 10
   \   0001D6   AD..         MOV     R5,?V0 + 11
   \   0001D8   AA..         MOV     R2,?V0 + 8
   \   0001DA   AB..         MOV     R3,?V0 + 9
   \   0001DC   A9..         MOV     R1,?V0 + 0
   \   0001DE   12....       LCALL   ??writeBuf?relay
   \   0001E1   7402         MOV     A,#0x2
   \   0001E3   12....       LCALL   ?DEALLOC_XSTACK8
   1179                  srcOff += len;
   1180                  dstOff += len;
   1181          
   1182                  xferBuf( srcPg, srcOff, dstPg, dstOff, (hdr.len-ndx-len) );
   \   0001E6                ; Setup parameters for call to function xferBuf
   \   0001E6   7407         MOV     A,#0x7
   \   0001E8   12....       LCALL   ?XSTACK_DISP0_8
   \   0001EB   E0           MOVX    A,@DPTR
   \   0001EC   C3           CLR     C
   \   0001ED   95..         SUBB    A,?V0 + 2
   \   0001EF   F8           MOV     R0,A
   \   0001F0   A3           INC     DPTR
   \   0001F1   E0           MOVX    A,@DPTR
   \   0001F2   95..         SUBB    A,?V0 + 3
   \   0001F4   F9           MOV     R1,A
   \   0001F5   E8           MOV     A,R0
   \   0001F6   C3           CLR     C
   \   0001F7   95..         SUBB    A,?V0 + 10
   \   0001F9   F5..         MOV     ?V0 + 2,A
   \   0001FB   E9           MOV     A,R1
   \   0001FC   95..         SUBB    A,?V0 + 11
   \   0001FE   F5..         MOV     ?V0 + 3,A
   \   000200   78..         MOV     R0,#?V0 + 2
   \   000202   12....       LCALL   ?PUSH_XSTACK_I_TWO
   \   000205   E5..         MOV     A,?V0 + 8
   \   000207   25..         ADD     A,?V0 + 10
   \   000209   F5..         MOV     ?V0 + 2,A
   \   00020B   E5..         MOV     A,?V0 + 9
   \   00020D   35..         ADDC    A,?V0 + 11
   \   00020F   F5..         MOV     ?V0 + 3,A
   \   000211   78..         MOV     R0,#?V0 + 2
   \   000213   12....       LCALL   ?PUSH_XSTACK_I_TWO
   \   000216   AC..         MOV     R4,?V0 + 0
   \   000218   EE           MOV     A,R6
   \   000219   25..         ADD     A,?V0 + 10
   \   00021B   FA           MOV     R2,A
   \   00021C   EF           MOV     A,R7
   \   00021D   35..         ADDC    A,?V0 + 11
   \   00021F   FB           MOV     R3,A
   \   000220   A9..         MOV     R1,?V0 + 4
   \   000222   12....       LCALL   ??xferBuf?relay
   \   000225   7404         MOV     A,#0x4
   \   000227   12....       LCALL   ?DEALLOC_XSTACK8
   1183          
   1184                  // Calculate and write the new checksum.
   1185                  dstOff = pgOff[dstPg-OSAL_NV_PAGE_BEG] - tmp;
   \   00022A   85..82       MOV     DPL,?V0 + 6
   \   00022D   85..83       MOV     DPH,?V0 + 7
   \   000230   C082         PUSH    DPL
   \   000232   C083         PUSH    DPH
   \   000234   7403         MOV     A,#0x3
   \   000236   12....       LCALL   ?XSTACK_DISP0_8
   \   000239   12....       LCALL   ?Subroutine12 & 0xFFFF
   \                     ??CrossCallReturnLabel_21:
   \   00023C   D083         POP     DPH
   \   00023E   D082         POP     DPL
   \   000240   12....       LCALL   ?Subroutine14 & 0xFFFF
   1186                  tmp = calcChkF( dstPg, dstOff, hdr.len );
   \                     ??CrossCallReturnLabel_27:
   \   000243                ; Setup parameters for call to function calcChkF
   \   000243   7407         MOV     A,#0x7
   \   000245   12....       LCALL   ?XSTACK_DISP0_8
   \   000248   12....       LCALL   ?Subroutine15 & 0xFFFF
   \                     ??CrossCallReturnLabel_31:
   \   00024B   AA..         MOV     R2,?V0 + 8
   \   00024D   AB..         MOV     R3,?V0 + 9
   \   00024F   A9..         MOV     R1,?V0 + 0
   \   000251   12....       LCALL   ??calcChkF?relay
   \   000254   7403         MOV     A,#0x3
   \   000256   12....       LCALL   ?XSTACK_DISP0_8
   \   000259   EA           MOV     A,R2
   \   00025A   F0           MOVX    @DPTR,A
   \   00025B   A3           INC     DPTR
   \   00025C   EB           MOV     A,R3
   \   00025D   F0           MOVX    @DPTR,A
   1187                  dstOff -= OSAL_NV_HDR_SIZE;
   \   00025E   E5..         MOV     A,?V0 + 8
   \   000260   24F8         ADD     A,#-0x8
   \   000262   F5..         MOV     ?V0 + 8,A
   \   000264   E5..         MOV     A,?V0 + 9
   \   000266   34FF         ADDC    A,#-0x1
   \   000268   F5..         MOV     ?V0 + 9,A
   1188                  writeWordH( dstPg, (dstOff+OSAL_NV_HDR_CHK), (uint8 *)&tmp );
   \   00026A                ; Setup parameters for call to function writeWordH
   \   00026A   7403         MOV     A,#0x3
   \   00026C   12....       LCALL   ?XSTACK_DISP0_8
   \   00026F   AC82         MOV     R4,DPL
   \   000271   AD83         MOV     R5,DPH
   \   000273   E5..         MOV     A,?V0 + 8
   \   000275   2404         ADD     A,#0x4
   \   000277   FA           MOV     R2,A
   \   000278   E5..         MOV     A,?V0 + 9
   \   00027A   3400         ADDC    A,#0x0
   \   00027C   FB           MOV     R3,A
   \   00027D   A9..         MOV     R1,?V0 + 0
   \   00027F   12....       LCALL   ??writeWordH?relay
   1189                  HalFlashRead(dstPg, dstOff, (uint8 *)(&hdr), OSAL_NV_HDR_SIZE);
   \   000282                ; Setup parameters for call to function HalFlashRead
   \   000282   75..08       MOV     ?V0 + 2,#0x8
   \   000285   75..00       MOV     ?V0 + 3,#0x0
   \   000288   78..         MOV     R0,#?V0 + 2
   \   00028A   12....       LCALL   ?PUSH_XSTACK_I_TWO
   \   00028D   7407         MOV     A,#0x7
   \   00028F   12....       LCALL   ?XSTACK_DISP0_8
   \   000292   AC82         MOV     R4,DPL
   \   000294   AD83         MOV     R5,DPH
   \   000296   AA..         MOV     R2,?V0 + 8
   \   000298   AB..         MOV     R3,?V0 + 9
   \   00029A   A9..         MOV     R1,?V0 + 0
   \   00029C   12....       LCALL   ??HalFlashRead?relay
   \   00029F   7402         MOV     A,#0x2
   \   0002A1   12....       LCALL   ?DEALLOC_XSTACK8
   1190          
   1191                  if ( tmp == hdr.chk )
   \   0002A4   7403         MOV     A,#0x3
   \   0002A6   12....       LCALL   ?XSTACK_DISP0_8
   \   0002A9   12....       LCALL   ?Subroutine12 & 0xFFFF
   \                     ??CrossCallReturnLabel_22:
   \   0002AC   7409         MOV     A,#0x9
   \   0002AE   12....       LCALL   ?XSTACK_DISP0_8
   \   0002B1   E0           MOVX    A,@DPTR
   \   0002B2   68           XRL     A,R0
   \   0002B3   7003         JNZ     ??osal_nv_write_8
   \   0002B5   A3           INC     DPTR
   \   0002B6   E0           MOVX    A,@DPTR
   \   0002B7   69           XRL     A,R1
   \                     ??osal_nv_write_8:
   \   0002B8   700E         JNZ     ??osal_nv_write_9
   1192                  {
   1193                    setItem( srcPg, origOff, eNvZero );
   \   0002BA                ; Setup parameters for call to function setItem
   \   0002BA   7C01         MOV     R4,#0x1
   \   0002BC   EC           MOV     A,R4
   \   0002BD   12....       LCALL   ?XSTACK_DISP0_8
   \   0002C0   12....       LCALL   ?Subroutine13 & 0xFFFF
   1194                  }
   \                     ??CrossCallReturnLabel_25:
   \   0002C3   12....       LCALL   ??setItem?relay
   \   0002C6   8003         SJMP    ??osal_nv_write_10
   1195                  else
   1196                  {
   1197                    rtrn = NV_OPER_FAILED;
   \                     ??osal_nv_write_9:
   \   0002C8   75..0A       MOV     ?V0 + 1,#0xa
   1198                  }
   1199          
   1200                  if ( dstPg == pgRes )
   \                     ??osal_nv_write_10:
   \   0002CB   90....       MOV     DPTR,#pgRes
   \   0002CE   E0           MOVX    A,@DPTR
   \   0002CF   65..         XRL     A,?V0 + 0
   \   0002D1   7010         JNZ     ??osal_nv_write_6
   1201                  {
   1202                    compactPage( comPg );
   \   0002D3                ; Setup parameters for call to function compactPage
   \   0002D3   85..82       MOV     DPL,?XSP + 0
   \   0002D6   85..83       MOV     DPH,?XSP + 1
   \   0002D9   E0           MOVX    A,@DPTR
   \   0002DA   F9           MOV     R1,A
   \   0002DB   12....       LCALL   ??compactPage?relay
   \   0002DE   8003         SJMP    ??osal_nv_write_6
   1203                  }
   1204                }
   1205                else
   1206                {
   1207                  rtrn = NV_OPER_FAILED;
   \                     ??osal_nv_write_7:
   \   0002E0   75..0A       MOV     ?V0 + 1,#0xa
   1208                }
   1209              }
   1210            }
   1211          
   1212            if ( failF )
   \                     ??osal_nv_write_6:
   \   0002E3   90....       MOV     DPTR,#failF
   \   0002E6   E0           MOVX    A,@DPTR
   \   0002E7   6006         JZ      ??osal_nv_write_0
   1213            {
   1214              (void)initNV();  // See comment at the declaration of failF.
   \   0002E9                ; Setup parameters for call to function initNV
   \   0002E9   12....       LCALL   ??initNV?relay
   1215              rtrn = NV_OPER_FAILED;
   \   0002EC   75..0A       MOV     ?V0 + 1,#0xa
   1216            }
   1217          
   1218            return rtrn;
   \                     ??osal_nv_write_0:
   \   0002EF   A9..         MOV     R1,?V0 + 1
   \                     ??osal_nv_write_2:
   \   0002F1   740D         MOV     A,#0xd
   \   0002F3   12....       LCALL   ?DEALLOC_XSTACK8
   \   0002F6   7F10         MOV     R7,#0x10
   \   0002F8   02....       LJMP    ?BANKED_LEAVE_XDATA
   1219          }

   \                                 In  segment BANKED_CODE, align 1, keep-with-next
   \                     ?Subroutine14:
   \   000000   E0           MOVX    A,@DPTR
   \   000001   C3           CLR     C
   \   000002   98           SUBB    A,R0
   \   000003   F5..         MOV     ?V0 + 8,A
   \   000005   A3           INC     DPTR
   \   000006   E0           MOVX    A,@DPTR
   \   000007   99           SUBB    A,R1
   \   000008   F5..         MOV     ?V0 + 9,A
   \   00000A   22           RET

   \                                 In  segment BANKED_CODE, align 1, keep-with-next
   \                     ?Subroutine13:
   \   000000   E0           MOVX    A,@DPTR
   \   000001   FA           MOV     R2,A
   \   000002   A3           INC     DPTR
   \   000003   E0           MOVX    A,@DPTR
   \   000004   FB           MOV     R3,A
   \   000005   A9..         MOV     R1,?V0 + 4
   \   000007   22           RET
   1220          
   1221          /*********************************************************************
   1222           * @fn      osal_nv_read
   1223           *
   1224           * @brief   Read data from NV. This function can be used to read an entire item from NV or
   1225           *          an element of an item by indexing into the item with an offset.
   1226           *          Read data is copied into *buf.
   1227           *
   1228           * @param   id  - Valid NV item Id.
   1229           * @param   ndx - Index offset into item
   1230           * @param   len - Length of data to read.
   1231           * @param  *buf - Data is read into this buffer.
   1232           *
   1233           * @return  ZSUCCESS if NV data was copied to the parameter 'buf'.
   1234           *          Otherwise, NV_OPER_FAILED for failure.
   1235           */

   \                                 In  segment BANKED_CODE, align 1, keep-with-next
   1236          uint8 osal_nv_read( uint16 id, uint16 ndx, uint16 len, void *buf )
   \                     osal_nv_read:
   1237          {
   \   000000   74F2         MOV     A,#-0xe
   \   000002   12....       LCALL   ?BANKED_ENTER_XDATA
   \   000005                ; Saved register size: 14
   \   000005                ; Auto size: 0
   \   000005   8C..         MOV     ?V0 + 0,R4
   \   000007   8D..         MOV     ?V0 + 1,R5
   \   000009   740E         MOV     A,#0xe
   \   00000B   12....       LCALL   ?XSTACK_DISP0_8
   \   00000E   12....       LCALL   ?Subroutine9 & 0xFFFF
   \                     ??CrossCallReturnLabel_9:
   \   000011   7410         MOV     A,#0x10
   \   000013   12....       LCALL   ?XSTACK_DISP0_8
   \   000016   E0           MOVX    A,@DPTR
   \   000017   FE           MOV     R6,A
   \   000018   A3           INC     DPTR
   \   000019   E0           MOVX    A,@DPTR
   \   00001A   FF           MOV     R7,A
   1238            uint16 offset;
   1239          
   1240            offset = findItem( id );
   \   00001B                ; Setup parameters for call to function findItem
   \   00001B   12....       LCALL   ??findItem?relay
   1241            if ( offset == OSAL_NV_ITEM_NULL )
   \   00001E   EA           MOV     A,R2
   \   00001F   4B           ORL     A,R3
   \   000020   7004         JNZ     ??osal_nv_read_0
   1242            {
   1243              return NV_OPER_FAILED;
   \   000022   790A         MOV     R1,#0xa
   \   000024   8020         SJMP    ??osal_nv_read_1
   1244            }
   1245          
   1246            HalFlashRead(findPg, offset+ndx, buf, len);
   \                     ??osal_nv_read_0:
   \   000026                ; Setup parameters for call to function HalFlashRead
   \   000026   78..         MOV     R0,#?V0 + 2
   \   000028   12....       LCALL   ?PUSH_XSTACK_I_TWO
   \   00002B   EE           MOV     A,R6
   \   00002C   FC           MOV     R4,A
   \   00002D   EF           MOV     A,R7
   \   00002E   FD           MOV     R5,A
   \   00002F   EA           MOV     A,R2
   \   000030   25..         ADD     A,?V0 + 0
   \   000032   FA           MOV     R2,A
   \   000033   EB           MOV     A,R3
   \   000034   35..         ADDC    A,?V0 + 1
   \   000036   FB           MOV     R3,A
   \   000037   90....       MOV     DPTR,#findPg
   \   00003A   E0           MOVX    A,@DPTR
   \   00003B   F9           MOV     R1,A
   \   00003C   12....       LCALL   ??HalFlashRead?relay
   \   00003F   7402         MOV     A,#0x2
   \   000041   12....       LCALL   ?DEALLOC_XSTACK8
   1247          
   1248            return ZSUCCESS;
   \   000044   7900         MOV     R1,#0x0
   \                     ??osal_nv_read_1:
   \   000046   02....       LJMP    ??Subroutine33_0 & 0xFFFF
   1249          }

   \                                 In  segment BANK_RELAYS, align 1
   \                     ??initNV?relay:
   \   000000   12....       LCALL   ?BDISPATCH
   \   000003   ......       DC24    initNV

   \                                 In  segment BANK_RELAYS, align 1
   \                     ??setPageUse?relay:
   \   000000   12....       LCALL   ?BDISPATCH
   \   000003   ......       DC24    setPageUse

   \                                 In  segment BANK_RELAYS, align 1
   \                     ??initPage?relay:
   \   000000   12....       LCALL   ?BDISPATCH
   \   000003   ......       DC24    initPage

   \                                 In  segment BANK_RELAYS, align 1
   \                     ??erasePage?relay:
   \   000000   12....       LCALL   ?BDISPATCH
   \   000003   ......       DC24    erasePage

   \                                 In  segment BANK_RELAYS, align 1
   \                     ??compactPage?relay:
   \   000000   12....       LCALL   ?BDISPATCH
   \   000003   ......       DC24    compactPage

   \                                 In  segment BANK_RELAYS, align 1
   \                     ??findItem?relay:
   \   000000   12....       LCALL   ?BDISPATCH
   \   000003   ......       DC24    findItem

   \                                 In  segment BANK_RELAYS, align 1
   \                     ??initItem?relay:
   \   000000   12....       LCALL   ?BDISPATCH
   \   000003   ......       DC24    initItem

   \                                 In  segment BANK_RELAYS, align 1
   \                     ??setItem?relay:
   \   000000   12....       LCALL   ?BDISPATCH
   \   000003   ......       DC24    setItem

   \                                 In  segment BANK_RELAYS, align 1
   \                     ??calcChkF?relay:
   \   000000   12....       LCALL   ?BDISPATCH
   \   000003   ......       DC24    calcChkF

   \                                 In  segment BANK_RELAYS, align 1
   \                     ??writeWord?relay:
   \   000000   12....       LCALL   ?BDISPATCH
   \   000003   ......       DC24    writeWord

   \                                 In  segment BANK_RELAYS, align 1
   \                     ??writeWordH?relay:
   \   000000   12....       LCALL   ?BDISPATCH
   \   000003   ......       DC24    writeWordH

   \                                 In  segment BANK_RELAYS, align 1
   \                     ??writeBuf?relay:
   \   000000   12....       LCALL   ?BDISPATCH
   \   000003   ......       DC24    writeBuf

   \                                 In  segment BANK_RELAYS, align 1
   \                     ??xferBuf?relay:
   \   000000   12....       LCALL   ?BDISPATCH
   \   000003   ......       DC24    xferBuf

   \                                 In  segment BANK_RELAYS, align 1
   \                     ??writeItem?relay:
   \   000000   12....       LCALL   ?BDISPATCH
   \   000003   ......       DC24    writeItem

   \                                 In  segment BANK_RELAYS, align 1
   \                     ??osal_nv_init?relay:
   \   000000   12....       LCALL   ?BDISPATCH
   \   000003   ......       DC24    osal_nv_init

   \                                 In  segment BANK_RELAYS, align 1
   \                     ??osal_nv_item_init?relay:
   \   000000   12....       LCALL   ?BDISPATCH
   \   000003   ......       DC24    osal_nv_item_init

   \                                 In  segment BANK_RELAYS, align 1
   \                     ??osal_nv_item_len?relay:
   \   000000   12....       LCALL   ?BDISPATCH
   \   000003   ......       DC24    osal_nv_item_len

   \                                 In  segment BANK_RELAYS, align 1
   \                     ??osal_nv_write?relay:
   \   000000   12....       LCALL   ?BDISPATCH
   \   000003   ......       DC24    osal_nv_write

   \                                 In  segment BANK_RELAYS, align 1
   \                     ??osal_nv_read?relay:
   \   000000   12....       LCALL   ?BDISPATCH
   \   000003   ......       DC24    osal_nv_read
   1250          
   1251          /*********************************************************************
   1252          *********************************************************************/

   Maximum stack usage in bytes:

   ISTACK PSTACK XSTACK Function
   ------ ------ ------ --------
       0      0     59  calcChkF
                          0 0 22 -> HalFlashRead
       0      0     65  compactPage
                          0 0 26 -> HalFlashRead
                          0 0 24 -> calcChkF
                          0 0 24 -> erasePage
                          0 0 24 -> setItem
                          0 0 24 -> setPageUse
                          0 0 26 -> writeBuf
                          0 0 24 -> writeWordH
                          0 0 28 -> xferBuf
       0      0     33  erasePage
                          0 0  9 -> HalAdcCheckVdd
                          0 0  9 -> HalFlashErase
       0      0     49  findItem
                          0 0 12 -> initPage
       1      0     57  initItem
                          0 0 15 -> compactPage
                          0 0 18 -> writeItem
       0      0     59  initNV
                          0 0 22 -> HalFlashRead
                          0 0 20 -> compactPage
                          0 0 20 -> erasePage
                          0 0 20 -> initNV
                          0 0 20 -> initPage
                          0 0 20 -> setPageUse
       0      0     48  initPage
                          0 0 28 -> HalFlashRead
                          0 0 26 -> calcChkF
                          0 0 26 -> findItem
                          0 0 26 -> setItem
       2      0      0  osal_nv_init
                          2 0  0 -> initNV
       0      0     18  osal_nv_item_init
                          0 0 14 -> findItem
                          0 0 16 -> initItem
                          0 0 14 -> initNV
       0      0     20  osal_nv_item_len
                          0 0 20 -> HalFlashRead
                          0 0 18 -> findItem
       0      0     20  osal_nv_read
                          0 0 16 -> HalFlashRead
                          0 0 14 -> findItem
       2      0     45  osal_nv_write
                          0 0 39 -> HalFlashRead
                          0 0 37 -> calcChkF
                          0 0 37 -> compactPage
                          0 0 37 -> findItem
                          0 0 39 -> initItem
                          0 0 37 -> initNV
                          0 0 37 -> setItem
                          0 0 39 -> writeBuf
                          0 0 37 -> writeWordH
                          0 0 41 -> xferBuf
       0      0     61  setItem
                          0 0 24 -> HalFlashRead
                          0 0 22 -> writeWord
       0      0     47  setPageUse
                          0 0 17 -> writeWord
       1      0     63  writeBuf
                          0 0 22 -> HalAdcCheckVdd
                          0 0 24 -> HalFlashRead
                          0 0 24 -> HalFlashWrite
                          0 0 22 -> writeWord
       0      0     50  writeItem
                          0 0 32 -> HalFlashRead
                          0 0 30 -> calcChkF
                          0 0 30 -> setPageUse
                          0 0 32 -> writeBuf
                          0 0 30 -> writeWord
                          0 0 30 -> writeWordH
       0      0     45  writeWord
                          0 0 13 -> HalAdcCheckVdd
                          0 0 15 -> HalFlashWrite
       1      0     50  writeWordH
                          0 0 13 -> writeWord
       0      0     65  xferBuf
                          0 0 24 -> HalFlashRead
                          0 0 22 -> writeWord


   Segment part sizes:

   Bytes  Function/Label
   -----  --------------
       5  ??Subroutine28_0
       8  ??Subroutine29_0
       2  ??Subroutine30_0
      12  ??Subroutine31_0
       8  ??Subroutine32_0
       5  ??Subroutine33_0
       6  ??calcChkF?relay
       6  ??compactPage?relay
       6  ??erasePage?relay
       6  ??findItem?relay
       6  ??initItem?relay
       6  ??initNV?relay
       6  ??initPage?relay
       6  ??osal_nv_init?relay
       6  ??osal_nv_item_init?relay
       6  ??osal_nv_item_len?relay
       6  ??osal_nv_read?relay
       6  ??osal_nv_write?relay
       6  ??setItem?relay
       6  ??setPageUse?relay
       6  ??writeBuf?relay
       6  ??writeItem?relay
       6  ??writeWord?relay
       6  ??writeWordH?relay
       6  ??xferBuf?relay
       5  ?Subroutine0
       3  ?Subroutine1
       6  ?Subroutine10
       8  ?Subroutine11
       6  ?Subroutine12
       8  ?Subroutine13
      11  ?Subroutine14
       6  ?Subroutine15
      12  ?Subroutine16
      17  ?Subroutine17
       4  ?Subroutine18
      11  ?Subroutine19
       2  ?Subroutine2
      13  ?Subroutine20
       9  ?Subroutine21
      13  ?Subroutine22
      19  ?Subroutine23
      15  ?Subroutine24
      13  ?Subroutine25
      17  ?Subroutine26
      11  ?Subroutine27
       3  ?Subroutine3
       7  ?Subroutine4
      15  ?Subroutine5
       5  ?Subroutine6
       6  ?Subroutine7
       8  ?Subroutine8
       8  ?Subroutine9
   12288  _nvBuf
       8  _nvIEEE
     141  calcChkF
     352  compactPage
      46  erasePage
       1  failF
      64  findItem
       1  findPg
     205  initItem
     224  initNV
     424  initPage
      14  osal_nv_init
      85  osal_nv_item_init
      79  osal_nv_item_len
      73  osal_nv_read
     763  osal_nv_write
      12  pgLost
      12  pgOff
       1  pgRes
     143  setItem
      52  setPageUse
     380  writeBuf
     522  writeItem
      86  writeWord
      64  writeWordH
     370  xferBuf

 
  4 388 bytes in segment BANKED_CODE
    114 bytes in segment BANK_RELAYS
      8 bytes in segment IEEE_ADDRESS_SPACE
     27 bytes in segment XDATA_Z
 12 288 bytes in segment ZIGNV_ADDRESS_SPACE
 
  4 502 bytes of CODE  memory
 12 323 bytes of XDATA memory

Errors: none
Warnings: none
