///////////////////////////////////////////////////////////////////////////////
//                                                                            /
// IAR C/C++ Compiler V8.20.2.41139 for 8051            01/Jan/2016  15:55:55 /
// Copyright 2004-2013 IAR Systems AB.                                        /
//                                                                            /
//    Core               =  plain                                             /
//    Code model         =  banked                                            /
//    Data model         =  large                                             /
//    Calling convention =  xdata reentrant                                   /
//    Constant location  =  data_rom                                          /
//    Dptr setup         =  1,16                                              /
//                                                                            /
//    Source file        =  C:\Users\ArnoldWorkStation\Desktop\ZigbeeTest\Com /
//                          ponents\osal\mcu\cc2530\OSAL_Nv.c                 /
//    Command line       =  -f C:\Users\ArnoldWorkStation\Desktop\ZigbeeTest\ /
//                          Projects\zstack\Samples\SampleApp\CC2530DB\..\..\ /
//                          ..\Tools\CC2530DB\f8wRouter.cfg (-DCPU32MHZ       /
//                          -DROOT=__near_func -DMAC_CFG_APP_PENDING_QUEUE=TR /
//                          UE -DRTR_NWK -DBLINK_LEDS) -f                     /
//                          C:\Users\ArnoldWorkStation\Desktop\ZigbeeTest\Pro /
//                          jects\zstack\Samples\SampleApp\CC2530DB\..\..\..\ /
//                          Tools\CC2530DB\f8wConfig.cfg (-DSECURE=0          /
//                          -DZG_SECURE_DYNAMIC=0 -DREFLECTOR                 /
//                          -DDEFAULT_CHANLIST=0x00000800                     /
//                          -DZDAPP_CONFIG_PAN_ID=0xFFF1                      /
//                          -DNWK_START_DELAY=100 -DEXTENDED_JOINING_RANDOM_M /
//                          ASK=0x007F -DBEACON_REQUEST_DELAY=100             /
//                          -DBEACON_REQ_DELAY_MASK=0x00FF                    /
//                          -DROUTE_EXPIRY_TIME=30 -DAPSC_ACK_WAIT_DURATION_P /
//                          OLLED=3000 -DNWK_INDIRECT_MSG_TIMEOUT=7           /
//                          -DMAX_RREQ_ENTRIES=8 -DAPSC_MAX_FRAME_RETRIES=3   /
//                          -DNWK_MAX_DATA_RETRIES=2                          /
//                          -DMAX_POLL_FAILURE_RETRIES=2 -DMAX_BCAST=9        /
//                          -DAPS_MAX_GROUPS=16 -DMAX_RTG_ENTRIES=40          /
//                          -DNWK_MAX_BINDING_ENTRIES=4                       /
//                          -DMAX_BINDING_CLUSTER_IDS=4                       /
//                          "-DDEFAULT_KEY={0x01, 0x03, 0x05, 0x07, 0x09,     /
//                          0x0B, 0x0D, 0x0F, 0x00, 0x02, 0x04, 0x06, 0x08,   /
//                          0x0A, 0x0C, 0x0D}" -DMAC_MAX_FRAME_SIZE=116       /
//                          "-DCONST=const __code" -DGENERIC=__generic        /
//                          -DRFD_RCVC_ALWAYS_ON=TRUE -DPOLL_RATE=1000        /
//                          -DQUEUED_POLL_RATE=100 -DRESPONSE_POLL_RATE=100)  /
//                          -DREJOIN_POLL_RATE=440 C:\Users\ArnoldWorkStation /
//                          \Desktop\ZigbeeTest\Components\osal\mcu\cc2530\OS /
//                          AL_Nv.c -D ZIGBEEPRO -D ZTOOL_P1 -D MT_TASK -D    /
//                          MT_SYS_FUNC -D MT_ZDO_FUNC -D                     /
//                          LCD_SUPPORTED=DEBUG -lC                           /
//                          C:\Users\ArnoldWorkStation\Desktop\ZigbeeTest\Pro /
//                          jects\zstack\Samples\SampleApp\CC2530DB\AnchorRou /
//                          terPro\List\ -lA C:\Users\ArnoldWorkStation\Deskt /
//                          op\ZigbeeTest\Projects\zstack\Samples\SampleApp\C /
//                          C2530DB\AnchorRouterPro\List\ --diag_suppress     /
//                          Pe001,Pa010 -o C:\Users\ArnoldWorkStation\Desktop /
//                          \ZigbeeTest\Projects\zstack\Samples\SampleApp\CC2 /
//                          530DB\AnchorRouterPro\Obj\ -e --debug             /
//                          --core=plain --dptr=16,1 --data_model=large       /
//                          --code_model=banked --calling_convention=xdata_re /
//                          entrant --place_constants=data_rom                /
//                          --nr_virtual_regs 16 -I                           /
//                          C:\Users\ArnoldWorkStation\Desktop\ZigbeeTest\Pro /
//                          jects\zstack\Samples\SampleApp\CC2530DB\ -I       /
//                          C:\Users\ArnoldWorkStation\Desktop\ZigbeeTest\Pro /
//                          jects\zstack\Samples\SampleApp\CC2530DB\..\SOURCE /
//                          \ -I C:\Users\ArnoldWorkStation\Desktop\ZigbeeTes /
//                          t\Projects\zstack\Samples\SampleApp\CC2530DB\..\. /
//                          .\..\ZMAIN\TI2530DB\ -I                           /
//                          C:\Users\ArnoldWorkStation\Desktop\ZigbeeTest\Pro /
//                          jects\zstack\Samples\SampleApp\CC2530DB\..\..\..\ /
//                          ..\..\COMPONENTS\MT\ -I                           /
//                          C:\Users\ArnoldWorkStation\Desktop\ZigbeeTest\Pro /
//                          jects\zstack\Samples\SampleApp\CC2530DB\..\..\..\ /
//                          ..\..\COMPONENTS\HAL\INCLUDE\ -I                  /
//                          C:\Users\ArnoldWorkStation\Desktop\ZigbeeTest\Pro /
//                          jects\zstack\Samples\SampleApp\CC2530DB\..\..\..\ /
//                          ..\..\COMPONENTS\HAL\TARGET\CC2530EB\ -I          /
//                          C:\Users\ArnoldWorkStation\Desktop\ZigbeeTest\Pro /
//                          jects\zstack\Samples\SampleApp\CC2530DB\..\..\..\ /
//                          ..\..\COMPONENTS\OSAL\MCU\CCSOC\ -I               /
//                          C:\Users\ArnoldWorkStation\Desktop\ZigbeeTest\Pro /
//                          jects\zstack\Samples\SampleApp\CC2530DB\..\..\..\ /
//                          ..\..\COMPONENTS\OSAL\INCLUDE\ -I                 /
//                          C:\Users\ArnoldWorkStation\Desktop\ZigbeeTest\Pro /
//                          jects\zstack\Samples\SampleApp\CC2530DB\..\..\..\ /
//                          ..\..\COMPONENTS\STACK\AF\ -I                     /
//                          C:\Users\ArnoldWorkStation\Desktop\ZigbeeTest\Pro /
//                          jects\zstack\Samples\SampleApp\CC2530DB\..\..\..\ /
//                          ..\..\COMPONENTS\STACK\NWK\ -I                    /
//                          C:\Users\ArnoldWorkStation\Desktop\ZigbeeTest\Pro /
//                          jects\zstack\Samples\SampleApp\CC2530DB\..\..\..\ /
//                          ..\..\COMPONENTS\STACK\SEC\ -I                    /
//                          C:\Users\ArnoldWorkStation\Desktop\ZigbeeTest\Pro /
//                          jects\zstack\Samples\SampleApp\CC2530DB\..\..\..\ /
//                          ..\..\COMPONENTS\STACK\SAPI\ -I                   /
//                          C:\Users\ArnoldWorkStation\Desktop\ZigbeeTest\Pro /
//                          jects\zstack\Samples\SampleApp\CC2530DB\..\..\..\ /
//                          ..\..\COMPONENTS\STACK\SYS\ -I                    /
//                          C:\Users\ArnoldWorkStation\Desktop\ZigbeeTest\Pro /
//                          jects\zstack\Samples\SampleApp\CC2530DB\..\..\..\ /
//                          ..\..\COMPONENTS\STACK\ZDO\ -I                    /
//                          C:\Users\ArnoldWorkStation\Desktop\ZigbeeTest\Pro /
//                          jects\zstack\Samples\SampleApp\CC2530DB\..\..\..\ /
//                          ..\..\COMPONENTS\ZMAC\F8W\ -I                     /
//                          C:\Users\ArnoldWorkStation\Desktop\ZigbeeTest\Pro /
//                          jects\zstack\Samples\SampleApp\CC2530DB\..\..\..\ /
//                          ..\..\COMPONENTS\ZMAC\ -I                         /
//                          C:\Users\ArnoldWorkStation\Desktop\ZigbeeTest\Pro /
//                          jects\zstack\Samples\SampleApp\CC2530DB\..\..\..\ /
//                          ..\..\COMPONENTS\SERVICES\SADDR\ -I               /
//                          C:\Users\ArnoldWorkStation\Desktop\ZigbeeTest\Pro /
//                          jects\zstack\Samples\SampleApp\CC2530DB\..\..\..\ /
//                          ..\..\COMPONENTS\SERVICES\SDATA\ -I               /
//                          C:\Users\ArnoldWorkStation\Desktop\ZigbeeTest\Pro /
//                          jects\zstack\Samples\SampleApp\CC2530DB\..\..\..\ /
//                          ..\..\COMPONENTS\MAC\INCLUDE\ -I                  /
//                          C:\Users\ArnoldWorkStation\Desktop\ZigbeeTest\Pro /
//                          jects\zstack\Samples\SampleApp\CC2530DB\..\..\..\ /
//                          ..\..\COMPONENTS\MAC\HIGH_LEVEL\ -I               /
//                          C:\Users\ArnoldWorkStation\Desktop\ZigbeeTest\Pro /
//                          jects\zstack\Samples\SampleApp\CC2530DB\..\..\..\ /
//                          ..\..\COMPONENTS\MAC\LOW_LEVEL\srf04\ -I          /
//                          C:\Users\ArnoldWorkStation\Desktop\ZigbeeTest\Pro /
//                          jects\zstack\Samples\SampleApp\CC2530DB\..\..\..\ /
//                          ..\..\COMPONENTS\MAC\LOW_LEVEL\srf04\SINGLE_CHIP\ /
//                           -Ohz --require_prototypes                        /
//    List file          =  C:\Users\ArnoldWorkStation\Desktop\ZigbeeTest\Pro /
//                          jects\zstack\Samples\SampleApp\CC2530DB\AnchorRou /
//                          terPro\List\OSAL_Nv.s51                           /
//                                                                            /
//                                                                            /
///////////////////////////////////////////////////////////////////////////////

        NAME OSAL_Nv

        RTMODEL "__SystemLibrary", "CLib"
        RTMODEL "__calling_convention", "xdata_reentrant"
        RTMODEL "__code_model", "banked"
        RTMODEL "__core", "plain"
        RTMODEL "__data_model", "large"
        RTMODEL "__dptr_size", "16"
        RTMODEL "__extended_stack", "disabled"
        RTMODEL "__location_for_constants", "data"
        RTMODEL "__number_of_dptrs", "1"
        RTMODEL "__rt_version", "1"

        RSEG DOVERLAY:DATA:NOROOT(0)
        RSEG IOVERLAY:IDATA:NOROOT(0)
        RSEG ISTACK:IDATA:NOROOT(0)
        RSEG PSTACK:XDATA:NOROOT(0)
        RSEG XSTACK:XDATA:NOROOT(0)

        EXTERN ?ALLOC_XSTACK8
        EXTERN ?BANKED_ENTER_XDATA
        EXTERN ?BANKED_LEAVE_XDATA
        EXTERN ?BDISPATCH
        EXTERN ?BRET
        EXTERN ?DEALLOC_XSTACK8
        EXTERN ?PUSH_XSTACK8_X_TWO
        EXTERN ?PUSH_XSTACK_I_ONE
        EXTERN ?PUSH_XSTACK_I_TWO
        EXTERN ?S_SHL
        EXTERN ?US_SHR
        EXTERN ?V0
        EXTERN ?XSP
        EXTERN ?XSTACK_DISP0_8
        EXTERN __INIT_XDATA_Z

        FUNCTION ??calcChkF?relay,0203H
        FUNCTION ??compactPage?relay,0203H
        FUNCTION ??erasePage?relay,0203H
        FUNCTION ??findItem?relay,0203H
        FUNCTION ??initItem?relay,0203H
        FUNCTION ??initNV?relay,0203H
        FUNCTION ??initPage?relay,0203H
        PUBLIC ??osal_nv_init?relay
        FUNCTION ??osal_nv_init?relay,0203H
        PUBLIC ??osal_nv_item_init?relay
        FUNCTION ??osal_nv_item_init?relay,0203H
        PUBLIC ??osal_nv_item_len?relay
        FUNCTION ??osal_nv_item_len?relay,0203H
        PUBLIC ??osal_nv_read?relay
        FUNCTION ??osal_nv_read?relay,0203H
        PUBLIC ??osal_nv_write?relay
        FUNCTION ??osal_nv_write?relay,0203H
        FUNCTION ??setItem?relay,0203H
        FUNCTION ??setPageUse?relay,0203H
        FUNCTION ??writeBuf?relay,0203H
        FUNCTION ??writeItem?relay,0203H
        FUNCTION ??writeWord?relay,0203H
        FUNCTION ??writeWordH?relay,0203H
        FUNCTION ??xferBuf?relay,0203H
        PUBLIC _nvBuf
        PUBLIC _nvIEEE
        FUNCTION calcChkF,021203H
        ARGFRAME XSTACK, 37, STACK
        ARGFRAME IOVERLAY, 0, STATIC
        ARGFRAME DOVERLAY, 0, STATIC
        LOCFRAME XSTACK, 22, STACK
        FUNCTION compactPage,021203H
        ARGFRAME XSTACK, 37, STACK
        ARGFRAME IOVERLAY, 0, STATIC
        ARGFRAME DOVERLAY, 0, STATIC
        LOCFRAME XSTACK, 28, STACK
        FUNCTION erasePage,021203H
        ARGFRAME XSTACK, 24, STACK
        ARGFRAME IOVERLAY, 0, STATIC
        ARGFRAME DOVERLAY, 0, STATIC
        LOCFRAME XSTACK, 9, STACK
        FUNCTION findItem,021203H
        ARGFRAME XSTACK, 37, STACK
        ARGFRAME IOVERLAY, 0, STATIC
        ARGFRAME DOVERLAY, 0, STATIC
        LOCFRAME XSTACK, 12, STACK
        FUNCTION initItem,021203H
        ARGFRAME XSTACK, 39, STACK
        ARGFRAME IOVERLAY, 0, STATIC
        ARGFRAME DOVERLAY, 0, STATIC
        LOCFRAME ISTACK, 1, STACK
        LOCFRAME XSTACK, 18, STACK
        FUNCTION initNV,021203H
        ARGFRAME XSTACK, 37, STACK
        ARGFRAME IOVERLAY, 0, STATIC
        ARGFRAME DOVERLAY, 0, STATIC
        LOCFRAME XSTACK, 22, STACK
        FUNCTION initPage,021203H
        ARGFRAME XSTACK, 20, STACK
        ARGFRAME IOVERLAY, 0, STATIC
        ARGFRAME DOVERLAY, 0, STATIC
        LOCFRAME XSTACK, 28, STACK
        PUBLIC osal_nv_init
        FUNCTION osal_nv_init,021203H
        ARGFRAME XSTACK, 0, STACK
        LOCFRAME ISTACK, 2, STACK
        PUBLIC osal_nv_item_init
        FUNCTION osal_nv_item_init,021203H
        ARGFRAME XSTACK, 2, STACK
        LOCFRAME XSTACK, 16, STACK
        PUBLIC osal_nv_item_len
        FUNCTION osal_nv_item_len,021203H
        ARGFRAME XSTACK, 0, STACK
        LOCFRAME XSTACK, 20, STACK
        PUBLIC osal_nv_read
        FUNCTION osal_nv_read,021203H
        ARGFRAME XSTACK, 4, STACK
        LOCFRAME XSTACK, 16, STACK
        PUBLIC osal_nv_write
        FUNCTION osal_nv_write,021203H
        ARGFRAME XSTACK, 4, STACK
        LOCFRAME ISTACK, 2, STACK
        LOCFRAME XSTACK, 41, STACK
        FUNCTION setItem,021203H
        ARGFRAME XSTACK, 37, STACK
        ARGFRAME IOVERLAY, 0, STATIC
        ARGFRAME DOVERLAY, 0, STATIC
        LOCFRAME XSTACK, 24, STACK
        FUNCTION setPageUse,021203H
        ARGFRAME XSTACK, 30, STACK
        ARGFRAME IOVERLAY, 0, STATIC
        ARGFRAME DOVERLAY, 0, STATIC
        LOCFRAME XSTACK, 17, STACK
        FUNCTION writeBuf,021203H
        ARGFRAME XSTACK, 39, STACK
        ARGFRAME IOVERLAY, 0, STATIC
        ARGFRAME DOVERLAY, 0, STATIC
        LOCFRAME ISTACK, 1, STACK
        LOCFRAME XSTACK, 24, STACK
        FUNCTION writeItem,021203H
        ARGFRAME XSTACK, 18, STACK
        ARGFRAME IOVERLAY, 0, STATIC
        ARGFRAME DOVERLAY, 0, STATIC
        LOCFRAME XSTACK, 32, STACK
        FUNCTION writeWord,021203H
        ARGFRAME XSTACK, 30, STACK
        ARGFRAME IOVERLAY, 0, STATIC
        ARGFRAME DOVERLAY, 0, STATIC
        LOCFRAME XSTACK, 15, STACK
        FUNCTION writeWordH,021203H
        ARGFRAME XSTACK, 37, STACK
        ARGFRAME IOVERLAY, 0, STATIC
        ARGFRAME DOVERLAY, 0, STATIC
        LOCFRAME ISTACK, 1, STACK
        LOCFRAME XSTACK, 13, STACK
        FUNCTION xferBuf,021203H
        ARGFRAME XSTACK, 41, STACK
        ARGFRAME IOVERLAY, 0, STATIC
        ARGFRAME DOVERLAY, 0, STATIC
        LOCFRAME XSTACK, 24, STACK
        
          CFI Names cfiNames0
          CFI StackFrame CFA_SP SP IDATA
          CFI StackFrame CFA_PSP16 PSP16 XDATA
          CFI StackFrame CFA_XSP16 XSP16 XDATA
          CFI StaticOverlayFrame CFA_IOVERLAY IOVERLAY
          CFI StaticOverlayFrame CFA_DOVERLAY DOVERLAY
          CFI Resource `PSW.CY`:1, `B.BR0`:1, `B.BR1`:1, `B.BR2`:1, `B.BR3`:1
          CFI Resource `B.BR4`:1, `B.BR5`:1, `B.BR6`:1, `B.BR7`:1, `VB.BR8`:1
          CFI Resource `VB.BR9`:1, `VB.BR10`:1, `VB.BR11`:1, `VB.BR12`:1
          CFI Resource `VB.BR13`:1, `VB.BR14`:1, `VB.BR15`:1, VB:8, B:8, A:8
          CFI Resource PSW:8, DPL0:8, DPH0:8, R0:8, R1:8, R2:8, R3:8, R4:8, R5:8
          CFI Resource R6:8, R7:8, V0:8, V1:8, V2:8, V3:8, V4:8, V5:8, V6:8, V7:8
          CFI Resource V8:8, V9:8, V10:8, V11:8, V12:8, V13:8, V14:8, V15:8, SP:8
          CFI Resource PSPH:8, PSPL:8, PSP16:16, XSPH:8, XSPL:8, XSP16:16
          CFI VirtualResource ?RET:24
          CFI Resource ?BRET_EXT:8
          CFI VirtualResource ?RET_HIGH:8, ?RET_LOW:8
          CFI ResourceParts PSP16 PSPH, PSPL
          CFI ResourceParts XSP16 XSPH, XSPL
          CFI ResourceParts ?RET ?BRET_EXT, ?RET_HIGH, ?RET_LOW
          CFI EndNames cfiNames0
        
          CFI Common cfiCommon0 Using cfiNames0
          CFI CodeAlign 1
          CFI DataAlign -1
          CFI ReturnAddress ?RET CODE
          CFI CFA_DOVERLAY Used
          CFI CFA_IOVERLAY Used
          CFI CFA_SP SP+-3
          CFI CFA_PSP16 PSP16+0
          CFI CFA_XSP16 XSP16+0
          CFI `PSW.CY` SameValue
          CFI `B.BR0` SameValue
          CFI `B.BR1` SameValue
          CFI `B.BR2` SameValue
          CFI `B.BR3` SameValue
          CFI `B.BR4` SameValue
          CFI `B.BR5` SameValue
          CFI `B.BR6` SameValue
          CFI `B.BR7` SameValue
          CFI `VB.BR8` SameValue
          CFI `VB.BR9` SameValue
          CFI `VB.BR10` SameValue
          CFI `VB.BR11` SameValue
          CFI `VB.BR12` SameValue
          CFI `VB.BR13` SameValue
          CFI `VB.BR14` SameValue
          CFI `VB.BR15` SameValue
          CFI VB SameValue
          CFI B Undefined
          CFI A Undefined
          CFI PSW SameValue
          CFI DPL0 SameValue
          CFI DPH0 SameValue
          CFI R0 Undefined
          CFI R1 Undefined
          CFI R2 Undefined
          CFI R3 Undefined
          CFI R4 Undefined
          CFI R5 Undefined
          CFI R6 SameValue
          CFI R7 SameValue
          CFI V0 SameValue
          CFI V1 SameValue
          CFI V2 SameValue
          CFI V3 SameValue
          CFI V4 SameValue
          CFI V5 SameValue
          CFI V6 SameValue
          CFI V7 SameValue
          CFI V8 SameValue
          CFI V9 SameValue
          CFI V10 SameValue
          CFI V11 SameValue
          CFI V12 SameValue
          CFI V13 SameValue
          CFI V14 SameValue
          CFI V15 SameValue
          CFI PSPH Undefined
          CFI PSPL Undefined
          CFI XSPH Undefined
          CFI XSPL Undefined
          CFI ?RET Concat
          CFI ?BRET_EXT Frame(CFA_SP, 3)
          CFI ?RET_HIGH Frame(CFA_SP, 2)
          CFI ?RET_LOW Frame(CFA_SP, 1)
          CFI EndCommon cfiCommon0
        
        
          CFI Common cfiCommon1 Using cfiNames0
          CFI CodeAlign 1
          CFI DataAlign -1
          CFI ReturnAddress ?RET CODE
          CFI CFA_DOVERLAY Used
          CFI CFA_IOVERLAY Used
          CFI CFA_SP SP+-2
          CFI CFA_PSP16 PSP16+0
          CFI CFA_XSP16 XSP16+0
          CFI `PSW.CY` SameValue
          CFI `B.BR0` SameValue
          CFI `B.BR1` SameValue
          CFI `B.BR2` SameValue
          CFI `B.BR3` SameValue
          CFI `B.BR4` SameValue
          CFI `B.BR5` SameValue
          CFI `B.BR6` SameValue
          CFI `B.BR7` SameValue
          CFI `VB.BR8` SameValue
          CFI `VB.BR9` SameValue
          CFI `VB.BR10` SameValue
          CFI `VB.BR11` SameValue
          CFI `VB.BR12` SameValue
          CFI `VB.BR13` SameValue
          CFI `VB.BR14` SameValue
          CFI `VB.BR15` SameValue
          CFI VB SameValue
          CFI B SameValue
          CFI A SameValue
          CFI PSW SameValue
          CFI DPL0 SameValue
          CFI DPH0 SameValue
          CFI R0 SameValue
          CFI R1 SameValue
          CFI R2 SameValue
          CFI R3 SameValue
          CFI R4 SameValue
          CFI R5 SameValue
          CFI R6 SameValue
          CFI R7 SameValue
          CFI V0 SameValue
          CFI V1 SameValue
          CFI V2 SameValue
          CFI V3 SameValue
          CFI V4 SameValue
          CFI V5 SameValue
          CFI V6 SameValue
          CFI V7 SameValue
          CFI V8 SameValue
          CFI V9 SameValue
          CFI V10 SameValue
          CFI V11 SameValue
          CFI V12 SameValue
          CFI V13 SameValue
          CFI V14 SameValue
          CFI V15 SameValue
          CFI PSPH Undefined
          CFI PSPL Undefined
          CFI XSPH Undefined
          CFI XSPL Undefined
          CFI ?RET Concat
          CFI ?BRET_EXT SameValue
          CFI ?RET_HIGH Frame(CFA_SP, 2)
          CFI ?RET_LOW Frame(CFA_SP, 1)
          CFI EndCommon cfiCommon1
        
HalAdcCheckVdd      SYMBOL "HalAdcCheckVdd"
??HalAdcCheckVdd?relay SYMBOL "?relay", HalAdcCheckVdd
HalFlashErase       SYMBOL "HalFlashErase"
??HalFlashErase?relay SYMBOL "?relay", HalFlashErase
HalFlashRead        SYMBOL "HalFlashRead"
??HalFlashRead?relay SYMBOL "?relay", HalFlashRead
HalFlashWrite       SYMBOL "HalFlashWrite"
??HalFlashWrite?relay SYMBOL "?relay", HalFlashWrite
osal_nv_init        SYMBOL "osal_nv_init"
??osal_nv_init?relay SYMBOL "?relay", osal_nv_init
osal_nv_item_init   SYMBOL "osal_nv_item_init"
??osal_nv_item_init?relay SYMBOL "?relay", osal_nv_item_init
osal_nv_item_len    SYMBOL "osal_nv_item_len"
??osal_nv_item_len?relay SYMBOL "?relay", osal_nv_item_len
osal_nv_read        SYMBOL "osal_nv_read"
??osal_nv_read?relay SYMBOL "?relay", osal_nv_read
osal_nv_write       SYMBOL "osal_nv_write"
??osal_nv_write?relay SYMBOL "?relay", osal_nv_write

        EXTERN ??HalAdcCheckVdd?relay
        FUNCTION ??HalAdcCheckVdd?relay,00H
        EXTERN ??HalFlashErase?relay
        FUNCTION ??HalFlashErase?relay,00H
        EXTERN ??HalFlashRead?relay
        FUNCTION ??HalFlashRead?relay,00H
        EXTERN ??HalFlashWrite?relay
        FUNCTION ??HalFlashWrite?relay,00H
        EXTERN HalAdcCheckVdd
        FUNCTION HalAdcCheckVdd,0202H
        ARGFRAME ISTACK, 0, STACK
        ARGFRAME PSTACK, 0, STACK
        ARGFRAME XSTACK, 22, STACK
        ARGFRAME IOVERLAY, 0, STATIC
        ARGFRAME DOVERLAY, 0, STATIC
        EXTERN HalFlashErase
        FUNCTION HalFlashErase,0202H
        ARGFRAME ISTACK, 0, STACK
        ARGFRAME PSTACK, 0, STACK
        ARGFRAME XSTACK, 9, STACK
        ARGFRAME IOVERLAY, 0, STATIC
        ARGFRAME DOVERLAY, 0, STATIC
        EXTERN HalFlashRead
        FUNCTION HalFlashRead,0202H
        ARGFRAME ISTACK, 0, STACK
        ARGFRAME PSTACK, 0, STACK
        ARGFRAME XSTACK, 39, STACK
        ARGFRAME IOVERLAY, 0, STATIC
        ARGFRAME DOVERLAY, 0, STATIC
        EXTERN HalFlashWrite
        FUNCTION HalFlashWrite,0202H
        ARGFRAME ISTACK, 0, STACK
        ARGFRAME PSTACK, 0, STACK
        ARGFRAME XSTACK, 24, STACK
        ARGFRAME IOVERLAY, 0, STATIC
        ARGFRAME DOVERLAY, 0, STATIC

// C:\Users\ArnoldWorkStation\Desktop\ZigbeeTest\Components\osal\mcu\cc2530\OSAL_Nv.c
//    1 /**************************************************************************************************
//    2   Filename:       OSAL_Nv.c
//    3   Revised:        $Date: 2008-08-06 17:17:11 -0700 (Wed, 06 Aug 2008) $
//    4   Revision:       $Revision: 17715 $
//    5 
//    6   Description:    This module contains the OSAL non-volatile memory functions.
//    7 
//    8 
//    9   Copyright 2006-2009 Texas Instruments Incorporated. All rights reserved.
//   10 
//   11   IMPORTANT: Your use of this Software is limited to those specific rights
//   12   granted under the terms of a software license agreement between the user
//   13   who downloaded the software, his/her employer (which must be your employer)
//   14   and Texas Instruments Incorporated (the "License").  You may not use this
//   15   Software unless you agree to abide by the terms of the License. The License
//   16   limits your use, and you acknowledge, that the Software may not be modified,
//   17   copied or distributed unless embedded on a Texas Instruments microcontroller
//   18   or used solely and exclusively in conjunction with a Texas Instruments radio
//   19   frequency transceiver, which is integrated into your product.  Other than for
//   20   the foregoing purpose, you may not use, reproduce, copy, prepare derivative
//   21   works of, modify, distribute, perform, display or sell this Software and/or
//   22   its documentation for any purpose.
//   23 
//   24   YOU FURTHER ACKNOWLEDGE AND AGREE THAT THE SOFTWARE AND DOCUMENTATION ARE
//   25   PROVIDED “AS IS” WITHOUT WARRANTY OF ANY KIND, EITHER EXPRESS OR IMPLIED,
//   26   INCLUDING WITHOUT LIMITATION, ANY WARRANTY OF MERCHANTABILITY, TITLE,
//   27   NON-INFRINGEMENT AND FITNESS FOR A PARTICULAR PURPOSE. IN NO EVENT SHALL
//   28   TEXAS INSTRUMENTS OR ITS LICENSORS BE LIABLE OR OBLIGATED UNDER CONTRACT,
//   29   NEGLIGENCE, STRICT LIABILITY, CONTRIBUTION, BREACH OF WARRANTY, OR OTHER
//   30   LEGAL EQUITABLE THEORY ANY DIRECT OR INDIRECT DAMAGES OR EXPENSES
//   31   INCLUDING BUT NOT LIMITED TO ANY INCIDENTAL, SPECIAL, INDIRECT, PUNITIVE
//   32   OR CONSEQUENTIAL DAMAGES, LOST PROFITS OR LOST DATA, COST OF PROCUREMENT
//   33   OF SUBSTITUTE GOODS, TECHNOLOGY, SERVICES, OR ANY CLAIMS BY THIRD PARTIES
//   34   (INCLUDING BUT NOT LIMITED TO ANY DEFENSE THEREOF), OR OTHER SIMILAR COSTS.
//   35 
//   36   Should you have any questions regarding your right to use this Software,
//   37   contact Texas Instruments Incorporated at www.TI.com.
//   38 **************************************************************************************************/
//   39 
//   40 /**************************************************************************************************
//   41   Notes:
//   42     - A trick buried deep in initPage() requires that the MSB of the NV Item Id is to
//   43       be reserved for use by this module.
//   44 **************************************************************************************************/
//   45 
//   46 /*********************************************************************
//   47  * INCLUDES
//   48  */
//   49 
//   50 #include "hal_adc.h"
//   51 #include "hal_flash.h"
//   52 #include "hal_types.h"
//   53 #include "ZComdef.h"
//   54 #include "OSAL_Nv.h"
//   55 
//   56 /*********************************************************************
//   57  * CONSTANTS
//   58  */
//   59 
//   60 #define OSAL_NV_PAGE_SIZE       HAL_FLASH_PAGE_SIZE
//   61 #define OSAL_NV_PAGES_USED      HAL_NV_PAGE_CNT
//   62 #define OSAL_NV_PAGE_BEG        HAL_NV_PAGE_BEG
//   63 #define OSAL_NV_PAGE_END       (OSAL_NV_PAGE_BEG + OSAL_NV_PAGES_USED - 1)
//   64 
//   65 #define OSAL_NV_ACTIVE          0x00
//   66 #define OSAL_NV_ERASED          0xFF
//   67 #define OSAL_NV_ERASED_ID       0xFFFF
//   68 #define OSAL_NV_ZEROED_ID       0x0000
//   69 // Reserve MSB of Id to signal a search for the "old" source copy (new write interrupted/failed.)
//   70 #define OSAL_NV_SOURCE_ID       0x8000
//   71 
//   72 #define OSAL_NV_PAGE_FREE       HAL_FLASH_PAGE_SIZE
//   73 
//   74 // In case pages 0-1 are ever used, define a null page value.
//   75 #define OSAL_NV_PAGE_NULL       0
//   76 
//   77 // In case item Id 0 is ever used, define a null item value.
//   78 #define OSAL_NV_ITEM_NULL       0
//   79 
//   80 #define OSAL_NV_WORD_SIZE       HAL_FLASH_WORD_SIZE
//   81 
//   82 #define OSAL_NV_PAGE_HDR_OFFSET 0
//   83 
//   84 /*********************************************************************
//   85  * MACROS
//   86  */
//   87 
//   88 #define  OSAL_NV_CHECK_BUS_VOLTAGE  (HalAdcCheckVdd( HAL_ADC_VDD_LIMIT_4 ))
//   89 
//   90 #define OSAL_NV_DATA_SIZE( LEN )  \ 
//   91    ((((LEN) + OSAL_NV_WORD_SIZE - 1) / OSAL_NV_WORD_SIZE) * OSAL_NV_WORD_SIZE)
//   92 
//   93 #define OSAL_NV_ITEM_SIZE( LEN )  \ 
//   94   (((((LEN) + OSAL_NV_WORD_SIZE - 1) / OSAL_NV_WORD_SIZE) * OSAL_NV_WORD_SIZE) + OSAL_NV_HDR_SIZE)
//   95 
//   96 /*********************************************************************
//   97  * TYPEDEFS
//   98  */
//   99 
//  100 typedef struct
//  101 {
//  102   uint16 id;
//  103   uint16 len;   // Enforce Flash-WORD size on len.
//  104   uint16 chk;   // Byte-wise checksum of the 'len' data bytes of the item.
//  105   uint16 stat;  // Item status.
//  106 } osalNvHdr_t;
//  107 // Struct member offsets.
//  108 #define OSAL_NV_HDR_ID    0
//  109 #define OSAL_NV_HDR_LEN   2
//  110 #define OSAL_NV_HDR_CHK   4
//  111 #define OSAL_NV_HDR_STAT  6
//  112 
//  113 #define OSAL_NV_HDR_ITEM  2  // Length of any item of a header struct.
//  114 #define OSAL_NV_HDR_SIZE  8
//  115 #define OSAL_NV_HDR_HALF (OSAL_NV_HDR_SIZE / 2)
//  116 
//  117 typedef struct
//  118 {
//  119   uint16 active;
//  120   uint16 inUse;
//  121   uint16 xfer;
//  122   uint16 spare;
//  123 } osalNvPgHdr_t;
//  124 // Struct member offsets.
//  125 #define OSAL_NV_PG_ACTIVE 0
//  126 #define OSAL_NV_PG_INUSE  2
//  127 #define OSAL_NV_PG_XFER   4
//  128 #define OSAL_NV_PG_SPARE  6
//  129 
//  130 #define OSAL_NV_PAGE_HDR_SIZE  8
//  131 #define OSAL_NV_PAGE_HDR_HALF (OSAL_NV_PAGE_HDR_SIZE / 2)
//  132 
//  133 typedef enum
//  134 {
//  135   eNvXfer,
//  136   eNvZero
//  137 } eNvHdrEnum;
//  138 
//  139 typedef enum
//  140 {
//  141   ePgActive,
//  142   ePgInUse,
//  143   ePgXfer,
//  144   ePgSpare
//  145 } ePgHdrEnum;
//  146 
//  147 /*********************************************************************
//  148  * EXTERNAL FUNCTIONS
//  149  */
//  150 
//  151 extern bool HalAdcCheckVdd(uint8 limit);
//  152 
//  153 /*********************************************************************
//  154  * GLOBAL VARIABLES
//  155  */
//  156 
//  157 #ifndef OAD_KEEP_NV_PAGES
//  158 // When NV pages are to remain intact during OAD download,
//  159 // the image itself should not include NV pages.
//  160 #pragma location="ZIGNV_ADDRESS_SPACE"

        RSEG ZIGNV_ADDRESS_SPACE:XDATA:REORDER:NOROOT(0)
        DATA8
//  161 __no_init uint8 _nvBuf[OSAL_NV_PAGES_USED * OSAL_NV_PAGE_SIZE];
_nvBuf:
        DS 12288
//  162 #pragma required=_nvBuf
//  163 #pragma location="IEEE_ADDRESS_SPACE"

        RSEG IEEE_ADDRESS_SPACE:XDATA:REORDER:NOROOT(0)
        DATA8
//  164 __no_init uint8 _nvIEEE[Z_EXTADDR_LEN];
_nvIEEE:
        DS 8
        REQUIRE _nvBuf
//  165 #pragma required=_nvIEEE
//  166 #endif // OAD_KEEP_NV_PAGES
//  167 
//  168 /*********************************************************************
//  169  * LOCAL VARIABLES
//  170  */
//  171 
//  172 // Offset into the page of the first available erased space.

        RSEG XDATA_Z:XDATA:NOROOT(0)
        DATA8
//  173 static uint16 pgOff[OSAL_NV_PAGES_USED];
pgOff:
        DS 12
        REQUIRE __INIT_XDATA_Z
        REQUIRE _nvIEEE
//  174 
//  175 // Count of the bytes lost for the zeroed-out items.

        RSEG XDATA_Z:XDATA:NOROOT(0)
        DATA8
//  176 static uint16 pgLost[OSAL_NV_PAGES_USED];
pgLost:
        DS 12
        REQUIRE __INIT_XDATA_Z
//  177 

        RSEG XDATA_Z:XDATA:NOROOT(0)
        DATA8
//  178 static uint8 pgRes;  // Page reserved for item compacting transfer.
pgRes:
        DS 1
        REQUIRE __INIT_XDATA_Z
//  179 
//  180 // Saving ~100 code bytes to move a uint8* parameter/return value from findItem() to a global.

        RSEG XDATA_Z:XDATA:NOROOT(0)
        DATA8
//  181 static uint8 findPg;
findPg:
        DS 1
        REQUIRE __INIT_XDATA_Z
//  182 
//  183 /* Immediately before the voltage critical operations of a page erase or
//  184  * a word write, check bus voltage. If less than min, set global flag & abort.
//  185  * Since this is to be done at the lowest level, many void functions would have to be changed to
//  186  * return a value and code added to check that value before proceeding, resulting in a very
//  187  * expensive code size hit for implementing this properly. Therefore, use this global as follows:
//  188  * at the start of osal_nv_item_init/osal_nv_write, set to FALSE, and at the end, before returning,
//  189  * check the value. Thus, the global is an accumulator of any error that occurred in any of the
//  190  * attempts to modify Flash with a low bus voltage during the complicated sequence of events that
//  191  * may occur on any item init or write. This is much more expedient and code saving than adding
//  192  * return values and checking return values to early out. No matter which method is used, an NV
//  193  * data record may end up mangled due to the low VCC conditions. The strategy is that the headers
//  194  * and checksums will detect and allow recovery from such a condition.
//  195  *
//  196  * One unfortunate side-effect of using the global fail flag vice adding and checking return
//  197  * values, is that when setting an item Id to zero has failed due to the low VCC check,
//  198  * the page lost-bytes counter is still updated. Having an artificially high lost-byte
//  199  * count makes it look like there are more bytes to recover from compacting a page than there may
//  200  * actually be. The easy work-around implemented is it to invoke initNV() from osal_nv_item_init or
//  201  * osal_nv_write anytime that the failF gets set - this will re-walk all of the pages and set the
//  202  * page offset count and page lost bytes count to their actual values.
//  203  */

        RSEG XDATA_Z:XDATA:NOROOT(0)
        DATA8
//  204 static uint8 failF;
failF:
        DS 1
        REQUIRE __INIT_XDATA_Z
//  205 
//  206 /*********************************************************************
//  207  * LOCAL FUNCTIONS
//  208  */
//  209 
//  210 static uint8  initNV( void );
//  211 
//  212 static void   setPageUse( uint8 pg, uint8 inUse );
//  213 static uint16 initPage( uint8 pg, uint16 id, uint8 findDups );
//  214 static void   erasePage( uint8 pg );
//  215 static void   compactPage( uint8 pg );
//  216 
//  217 static uint16 findItem( uint16 id );
//  218 static uint8  initItem( uint8 flag, uint16 id, uint16 len, void *buf );
//  219 static void   setItem( uint8 pg, uint16 offset, eNvHdrEnum stat );
//  220 
//  221 static uint16 calcChkB( uint16 len, uint8 *buf );
//  222 static uint16 calcChkF( byte pg, uint16 offset, uint16 len );
//  223 
//  224 static void   writeWord( uint8 pg, uint16 offset, uint8 *buf );
//  225 static void   writeWordH( uint8 pg, uint16 offset, uint8 *buf );
//  226 static void   writeWordM( uint8 pg, uint16 offset, uint8 *buf, uint16 cnt );
//  227 static void   writeBuf( uint8 pg, uint16 offset, uint16 len, uint8 *buf );
//  228 static void   xferBuf( uint8 srcPg, uint16 srcOff, uint8 dstPg, uint16 dstOff, uint16 len );
//  229 
//  230 static uint8  writeItem( uint8 pg, uint16 id, uint16 len, void *buf, uint8 flag );
//  231 
//  232 /*********************************************************************
//  233  * @fn      initNV
//  234  *
//  235  * @brief   Initialize the NV flash pages.
//  236  *
//  237  * @param   none
//  238  *
//  239  * @return  TRUE
//  240  */

        RSEG BANKED_CODE:CODE:NOROOT(0)
//  241 static uint8 initNV( void )
initNV:
          CFI Block cfiBlock0 Using cfiCommon0
          CFI Function initNV
        CODE
//  242 {
        FUNCALL initNV, HalFlashRead
        LOCFRAME ISTACK, 0, STACK
        LOCFRAME PSTACK, 0, STACK
        LOCFRAME XSTACK, 22, STACK
        LOCFRAME IOVERLAY, 0, STATIC
        LOCFRAME DOVERLAY, 0, STATIC
        ARGFRAME ISTACK, 0, STACK
        ARGFRAME PSTACK, 0, STACK
        ARGFRAME XSTACK, 22, STACK
        ARGFRAME IOVERLAY, 0, STATIC
        ARGFRAME DOVERLAY, 0, STATIC
        FUNCALL initNV, setPageUse
        LOCFRAME ISTACK, 0, STACK
        LOCFRAME PSTACK, 0, STACK
        LOCFRAME XSTACK, 20, STACK
        LOCFRAME IOVERLAY, 0, STATIC
        LOCFRAME DOVERLAY, 0, STATIC
        ARGFRAME ISTACK, 0, STACK
        ARGFRAME PSTACK, 0, STACK
        ARGFRAME XSTACK, 20, STACK
        ARGFRAME IOVERLAY, 0, STATIC
        ARGFRAME DOVERLAY, 0, STATIC
        FUNCALL initNV, initPage
        LOCFRAME ISTACK, 0, STACK
        LOCFRAME PSTACK, 0, STACK
        LOCFRAME XSTACK, 20, STACK
        LOCFRAME IOVERLAY, 0, STATIC
        LOCFRAME DOVERLAY, 0, STATIC
        ARGFRAME ISTACK, 0, STACK
        ARGFRAME PSTACK, 0, STACK
        ARGFRAME XSTACK, 20, STACK
        ARGFRAME IOVERLAY, 0, STATIC
        ARGFRAME DOVERLAY, 0, STATIC
        FUNCALL initNV, setPageUse
        LOCFRAME ISTACK, 0, STACK
        LOCFRAME PSTACK, 0, STACK
        LOCFRAME XSTACK, 20, STACK
        LOCFRAME IOVERLAY, 0, STATIC
        LOCFRAME DOVERLAY, 0, STATIC
        ARGFRAME ISTACK, 0, STACK
        ARGFRAME PSTACK, 0, STACK
        ARGFRAME XSTACK, 20, STACK
        ARGFRAME IOVERLAY, 0, STATIC
        ARGFRAME DOVERLAY, 0, STATIC
        FUNCALL initNV, compactPage
        LOCFRAME ISTACK, 0, STACK
        LOCFRAME PSTACK, 0, STACK
        LOCFRAME XSTACK, 20, STACK
        LOCFRAME IOVERLAY, 0, STATIC
        LOCFRAME DOVERLAY, 0, STATIC
        ARGFRAME ISTACK, 0, STACK
        ARGFRAME PSTACK, 0, STACK
        ARGFRAME XSTACK, 20, STACK
        ARGFRAME IOVERLAY, 0, STATIC
        ARGFRAME DOVERLAY, 0, STATIC
        FUNCALL initNV, erasePage
        LOCFRAME ISTACK, 0, STACK
        LOCFRAME PSTACK, 0, STACK
        LOCFRAME XSTACK, 20, STACK
        LOCFRAME IOVERLAY, 0, STATIC
        LOCFRAME DOVERLAY, 0, STATIC
        ARGFRAME ISTACK, 0, STACK
        ARGFRAME PSTACK, 0, STACK
        ARGFRAME XSTACK, 20, STACK
        ARGFRAME IOVERLAY, 0, STATIC
        ARGFRAME DOVERLAY, 0, STATIC
        FUNCALL initNV, initNV
        LOCFRAME ISTACK, 0, STACK
        LOCFRAME PSTACK, 0, STACK
        LOCFRAME XSTACK, 20, STACK
        LOCFRAME IOVERLAY, 0, STATIC
        LOCFRAME DOVERLAY, 0, STATIC
        ARGFRAME ISTACK, 0, STACK
        ARGFRAME PSTACK, 0, STACK
        ARGFRAME XSTACK, 20, STACK
        ARGFRAME IOVERLAY, 0, STATIC
        ARGFRAME DOVERLAY, 0, STATIC
        MOV     A,#-0xc
        LCALL   ?BANKED_ENTER_XDATA
          CFI DPH0 load(1, XDATA, add(CFA_XSP16, literal(-1)))
          CFI DPL0 load(1, XDATA, add(CFA_XSP16, literal(-2)))
          CFI ?BRET_EXT load(1, XDATA, add(CFA_XSP16, literal(-3)))
          CFI ?RET_HIGH load(1, XDATA, add(CFA_XSP16, literal(-4)))
          CFI ?RET_LOW load(1, XDATA, add(CFA_XSP16, literal(-5)))
          CFI R7 load(1, XDATA, add(CFA_XSP16, literal(-6)))
          CFI V3 load(1, XDATA, add(CFA_XSP16, literal(-7)))
          CFI V2 load(1, XDATA, add(CFA_XSP16, literal(-8)))
          CFI V1 load(1, XDATA, add(CFA_XSP16, literal(-9)))
          CFI V0 load(1, XDATA, add(CFA_XSP16, literal(-10)))
          CFI VB load(1, XDATA, add(CFA_XSP16, literal(-11)))
          CFI R6 load(1, XDATA, add(CFA_XSP16, literal(-12)))
          CFI CFA_SP SP+0
          CFI CFA_XSP16 add(XSP16, 12)
        ; Saved register size: 12
        ; Auto size: 8
        MOV     A,#-0x8
        LCALL   ?ALLOC_XSTACK8
          CFI CFA_XSP16 add(XSP16, 20)
//  243   osalNvPgHdr_t pgHdr;
//  244   uint8 oldPg = OSAL_NV_PAGE_NULL;
        MOV     ?V0 + 1,#0x0
//  245   uint8 newPg = OSAL_NV_PAGE_NULL;
        MOV     ?V0 + 0,#0x0
//  246   uint8 findDups = FALSE;
        MOV     R7,#0x0
//  247   uint8 pg;
//  248 
//  249   pgRes = OSAL_NV_PAGE_NULL;
        MOV     DPTR,#pgRes
        CLR     A
        MOVX    @DPTR,A
//  250 
//  251   for ( pg = OSAL_NV_PAGE_BEG; pg <= OSAL_NV_PAGE_END; pg++ )
        MOV     R6,#0x79
//  252   {
//  253     HalFlashRead(pg, OSAL_NV_PAGE_HDR_OFFSET, (uint8 *)(&pgHdr), OSAL_NV_HDR_SIZE);
??initNV_0:
        ; Setup parameters for call to function HalFlashRead
        MOV     ?V0 + 2,#0x8
        MOV     ?V0 + 3,#0x0
        MOV     R0,#?V0 + 2
        LCALL   ?PUSH_XSTACK_I_TWO
          CFI CFA_XSP16 add(XSP16, 22)
        MOV     A,#0x2
        LCALL   ?XSTACK_DISP0_8
        MOV     R4,DPL
        MOV     R5,DPH
        MOV     R2,#0x0
        MOV     R3,#0x0
        MOV     A,R6
        MOV     R1,A
        LCALL   ??HalFlashRead?relay
        MOV     A,#0x2
        LCALL   ?DEALLOC_XSTACK8
          CFI CFA_XSP16 add(XSP16, 20)
//  254 
//  255     if ( pgHdr.active == OSAL_NV_ERASED_ID )
        MOV     DPL,?XSP + 0
        MOV     DPH,?XSP + 1
        MOVX    A,@DPTR
        CPL     A
        JNZ     ??initNV_1
        INC     DPTR
        MOVX    A,@DPTR
        CPL     A
??initNV_1:
        JNZ     ??initNV_2
//  256     {
//  257       if ( pgRes == OSAL_NV_PAGE_NULL )
        MOV     DPTR,#pgRes
        MOVX    A,@DPTR
        JNZ     ??initNV_3
//  258       {
//  259         pgRes = pg;
        MOV     A,R6
        MOVX    @DPTR,A
        SJMP    ??initNV_4
//  260       }
//  261       else
//  262       {
//  263         setPageUse( pg, TRUE );
??initNV_3:
        ; Setup parameters for call to function setPageUse
        MOV     R2,#0x1
        MOV     A,R6
        MOV     R1,A
        LCALL   ??setPageUse?relay
        SJMP    ??initNV_4
//  264       }
//  265     }
//  266     else  // Page is active.
//  267     {
//  268       // If the page is not yet in use, it is the tgt of items from an xfer.
//  269       if ( pgHdr.inUse == OSAL_NV_ERASED_ID )
??initNV_2:
        MOV     A,#0x2
        LCALL   ?XSTACK_DISP0_8
        MOVX    A,@DPTR
        CPL     A
        JNZ     ??initNV_5
        INC     DPTR
        MOVX    A,@DPTR
        CPL     A
??initNV_5:
        JNZ     ??initNV_6
//  270       {
//  271         newPg = pg;
        MOV     ?V0 + 0,R6
        SJMP    ??initNV_4
//  272       }
//  273       // An Xfer from this page was in progress.
//  274       else if ( pgHdr.xfer != OSAL_NV_ERASED_ID )
??initNV_6:
        MOV     A,#0x4
        LCALL   ?XSTACK_DISP0_8
        MOVX    A,@DPTR
        CPL     A
        JNZ     ??initNV_7
        INC     DPTR
        MOVX    A,@DPTR
        CPL     A
??initNV_7:
        JZ      ??initNV_4
//  275       {
//  276         oldPg = pg;
        MOV     ?V0 + 1,R6
//  277       }
//  278     }
//  279 
//  280     // Calculate page offset and lost bytes - any "old" item triggers an N^2 re-scan from start.
//  281     if ( initPage( pg, OSAL_NV_ITEM_NULL, findDups ) != OSAL_NV_ITEM_NULL )
??initNV_4:
        ; Setup parameters for call to function initPage
        MOV     A,R7
        MOV     R4,A
        MOV     R2,#0x0
        MOV     R3,#0x0
        MOV     A,R6
        MOV     R1,A
        LCALL   ??initPage?relay
        MOV     ?V0 + 3,R3
        MOV     A,R2
        ORL     A,?V0 + 3
        JZ      ??initNV_8
//  282     {
//  283       findDups = TRUE;
        MOV     R7,#0x1
//  284       pg = OSAL_NV_PAGE_BEG-1;
        MOV     R6,#0x78
//  285       continue;
//  286     }
//  287   }  // for ( pg = OSAL_NV_PAGE_BEG; pg <= OSAL_NV_PAGE_END; pg++ )
??initNV_8:
        INC     R6
        MOV     A,R6
        CLR     C
        SUBB    A,#0x7f
        JNC     $+5
        LJMP    ??initNV_0 & 0xFFFF
//  288 
//  289   /* First the old page is erased, and then the new page is put into use.
//  290    * So if a transfer was in progress, the new page will always not yet be
//  291    * marked as in use, since that is the last step to ending a transfer.
//  292    */
//  293   if ( newPg != OSAL_NV_PAGE_NULL )
        MOV     A,?V0 + 0
        JZ      ??initNV_9
//  294   {
//  295     /* If there is already a fallow page reserved, keep it and put the newPg in use.
//  296      * An unfinished compaction will finish to the new reserve page and the old page
//  297      * will be erased and reserved.
//  298      */
//  299     if ( pgRes != OSAL_NV_PAGE_NULL )
        MOV     DPTR,#pgRes
        MOVX    A,@DPTR
        JZ      ??initNV_10
//  300     {
//  301       setPageUse( newPg, TRUE );
        ; Setup parameters for call to function setPageUse
        MOV     R2,#0x1
        MOV     R1,?V0 + 0
        LCALL   ??setPageUse?relay
//  302     }
//  303     else if ( oldPg != OSAL_NV_PAGE_NULL )
//  304     {
//  305       pgRes = newPg;
//  306     }
//  307 
//  308     /* If a page compaction was interrupted and the page being compacted is not
//  309      * yet erased, then there may be items remaining to xfer before erasing.
//  310      */
//  311     if ( oldPg != OSAL_NV_PAGE_NULL )
        MOV     A,?V0 + 1
        JNZ     ??initNV_11
        SJMP    ??initNV_9
??initNV_10:
        MOV     A,?V0 + 1
        JZ      ??initNV_12
        MOV     A,?V0 + 0
        MOVX    @DPTR,A
//  312     {
//  313       compactPage( oldPg );
??initNV_11:
        ; Setup parameters for call to function compactPage
        MOV     R1,?V0 + 1
        LCALL   ??compactPage?relay
//  314     }
//  315   }
//  316 
//  317   /* If no page met the criteria to be the reserve page:
//  318    *  - A compactPage() failed or board reset before doing so.
//  319    *  - Perhaps the user changed which Flash pages are dedicated to NV and downloaded the code
//  320    *    without erasing Flash?
//  321    */
//  322   if ( pgRes == OSAL_NV_PAGE_NULL )
??initNV_9:
        MOV     DPTR,#pgRes
        MOVX    A,@DPTR
        JNZ     ??initNV_13
//  323   {
//  324     for ( pg = OSAL_NV_PAGE_BEG; pg <= OSAL_NV_PAGE_END; pg++ )
??initNV_12:
        MOV     R6,#0x79
//  325     {
//  326       erasePage( pg );
??initNV_14:
        ; Setup parameters for call to function erasePage
        MOV     A,R6
        MOV     R1,A
        LCALL   ??erasePage?relay
//  327     }
        INC     R6
        MOV     A,R6
        CLR     C
        SUBB    A,#0x7f
        JC      ??initNV_14
//  328     initNV();
        ; Setup parameters for call to function initNV
        LCALL   ??initNV?relay
//  329   }
//  330 
//  331   return TRUE;
??initNV_13:
        MOV     R1,#0x1
        MOV     A,#0x8
        LCALL   ?DEALLOC_XSTACK8
          CFI EndBlock cfiBlock0
        REQUIRE ?Subroutine0
        ; // Fall through to label ?Subroutine0
//  332 }

        RSEG BANKED_CODE:CODE:NOROOT(0)
?Subroutine0:
          CFI Block cfiBlock1 Using cfiCommon0
          CFI NoFunction
          CFI CFA_SP SP+0
          CFI CFA_XSP16 add(XSP16, 12)
          CFI VB load(1, XDATA, add(CFA_XSP16, literal(-11)))
          CFI DPL0 load(1, XDATA, add(CFA_XSP16, literal(-2)))
          CFI DPH0 load(1, XDATA, add(CFA_XSP16, literal(-1)))
          CFI R6 load(1, XDATA, add(CFA_XSP16, literal(-12)))
          CFI R7 load(1, XDATA, add(CFA_XSP16, literal(-6)))
          CFI V0 load(1, XDATA, add(CFA_XSP16, literal(-10)))
          CFI V1 load(1, XDATA, add(CFA_XSP16, literal(-9)))
          CFI V2 load(1, XDATA, add(CFA_XSP16, literal(-8)))
          CFI V3 load(1, XDATA, add(CFA_XSP16, literal(-7)))
          CFI ?BRET_EXT load(1, XDATA, add(CFA_XSP16, literal(-3)))
          CFI ?RET_HIGH load(1, XDATA, add(CFA_XSP16, literal(-4)))
          CFI ?RET_LOW load(1, XDATA, add(CFA_XSP16, literal(-5)))
        MOV     R7,#0x4
        LJMP    ?BANKED_LEAVE_XDATA
          CFI EndBlock cfiBlock1
//  333 
//  334 /*********************************************************************
//  335  * @fn      setPageUse
//  336  *
//  337  * @brief   Set page header active/inUse state according to 'inUse'.
//  338  *
//  339  * @param   pg - Valid NV page to verify and init.
//  340  * @param   inUse - Boolean TRUE if inUse, FALSE if only active.
//  341  *
//  342  * @return  none
//  343  */

        RSEG BANKED_CODE:CODE:NOROOT(0)
//  344 static void setPageUse( uint8 pg, uint8 inUse )
setPageUse:
          CFI Block cfiBlock2 Using cfiCommon0
          CFI Function setPageUse
        CODE
//  345 {
        FUNCALL setPageUse, writeWord
        LOCFRAME ISTACK, 0, STACK
        LOCFRAME PSTACK, 0, STACK
        LOCFRAME XSTACK, 17, STACK
        LOCFRAME IOVERLAY, 0, STATIC
        LOCFRAME DOVERLAY, 0, STATIC
        ARGFRAME ISTACK, 0, STACK
        ARGFRAME PSTACK, 0, STACK
        ARGFRAME XSTACK, 17, STACK
        ARGFRAME IOVERLAY, 0, STATIC
        ARGFRAME DOVERLAY, 0, STATIC
        MOV     A,#-0x9
        LCALL   ?BANKED_ENTER_XDATA
          CFI DPH0 load(1, XDATA, add(CFA_XSP16, literal(-1)))
          CFI DPL0 load(1, XDATA, add(CFA_XSP16, literal(-2)))
          CFI ?BRET_EXT load(1, XDATA, add(CFA_XSP16, literal(-3)))
          CFI ?RET_HIGH load(1, XDATA, add(CFA_XSP16, literal(-4)))
          CFI ?RET_LOW load(1, XDATA, add(CFA_XSP16, literal(-5)))
          CFI R7 load(1, XDATA, add(CFA_XSP16, literal(-6)))
          CFI V0 load(1, XDATA, add(CFA_XSP16, literal(-7)))
          CFI VB load(1, XDATA, add(CFA_XSP16, literal(-8)))
          CFI R6 load(1, XDATA, add(CFA_XSP16, literal(-9)))
          CFI CFA_SP SP+0
          CFI CFA_XSP16 add(XSP16, 9)
        ; Saved register size: 9
        ; Auto size: 8
        MOV     A,#-0x8
        LCALL   ?ALLOC_XSTACK8
          CFI CFA_XSP16 add(XSP16, 17)
        MOV     A,R2
        MOV     R7,A
//  346   osalNvPgHdr_t pgHdr;
//  347 
//  348   pgHdr.active = OSAL_NV_ZEROED_ID;
        MOV     DPL,?XSP + 0
        MOV     DPH,?XSP + 1
        CLR     A
        MOVX    @DPTR,A
        INC     DPTR
        MOVX    @DPTR,A
//  349 
//  350   if ( inUse )
        MOV     A,R7
        JZ      ??setPageUse_0
//  351   {
//  352     pgHdr.inUse = OSAL_NV_ZEROED_ID;
        MOV     A,#0x2
        LCALL   ?XSTACK_DISP0_8
        CLR     A
        SJMP    ??setPageUse_1
//  353   }
//  354   else
//  355   {
//  356     pgHdr.inUse = OSAL_NV_ERASED_ID;
??setPageUse_0:
        MOV     A,#0x2
        LCALL   ?XSTACK_DISP0_8
        MOV     A,#-0x1
//  357   }
??setPageUse_1:
        LCALL   ??Subroutine30_0 & 0xFFFF
//  358 
//  359   writeWord( pg, OSAL_NV_PAGE_HDR_OFFSET, (uint8*)(&pgHdr) );
??CrossCallReturnLabel_65:
        MOV     R2,#0x0
        MOV     R3,#0x0
        LCALL   ??writeWord?relay
//  360 }
        MOV     A,#0x8
          CFI EndBlock cfiBlock2
        REQUIRE ?Subroutine1
        ; // Fall through to label ?Subroutine1

        RSEG BANKED_CODE:CODE:NOROOT(0)
?Subroutine1:
          CFI Block cfiBlock3 Using cfiCommon0
          CFI NoFunction
          CFI CFA_SP SP+0
          CFI CFA_XSP16 add(XSP16, 17)
          CFI VB load(1, XDATA, add(CFA_XSP16, literal(-8)))
          CFI DPL0 load(1, XDATA, add(CFA_XSP16, literal(-2)))
          CFI DPH0 load(1, XDATA, add(CFA_XSP16, literal(-1)))
          CFI R6 load(1, XDATA, add(CFA_XSP16, literal(-9)))
          CFI R7 load(1, XDATA, add(CFA_XSP16, literal(-6)))
          CFI V0 load(1, XDATA, add(CFA_XSP16, literal(-7)))
          CFI ?BRET_EXT load(1, XDATA, add(CFA_XSP16, literal(-3)))
          CFI ?RET_HIGH load(1, XDATA, add(CFA_XSP16, literal(-4)))
          CFI ?RET_LOW load(1, XDATA, add(CFA_XSP16, literal(-5)))
          CFI Invalid
        LCALL   ?DEALLOC_XSTACK8
          CFI EndBlock cfiBlock3
        REQUIRE ??Subroutine28_0
        ; // Fall through to label ??Subroutine28_0

        RSEG BANKED_CODE:CODE:NOROOT(0)
??Subroutine28_0:
          CFI Block cfiBlock4 Using cfiCommon0
          CFI NoFunction
          CFI CFA_SP SP+0
          CFI CFA_XSP16 add(XSP16, 9)
          CFI VB load(1, XDATA, add(CFA_XSP16, literal(-8)))
          CFI DPL0 load(1, XDATA, add(CFA_XSP16, literal(-2)))
          CFI DPH0 load(1, XDATA, add(CFA_XSP16, literal(-1)))
          CFI R6 load(1, XDATA, add(CFA_XSP16, literal(-9)))
          CFI R7 load(1, XDATA, add(CFA_XSP16, literal(-6)))
          CFI V0 load(1, XDATA, add(CFA_XSP16, literal(-7)))
          CFI ?BRET_EXT load(1, XDATA, add(CFA_XSP16, literal(-3)))
          CFI ?RET_HIGH load(1, XDATA, add(CFA_XSP16, literal(-4)))
          CFI ?RET_LOW load(1, XDATA, add(CFA_XSP16, literal(-5)))
        MOV     R7,#0x1
        LJMP    ?BANKED_LEAVE_XDATA
          CFI EndBlock cfiBlock4
//  361 
//  362 /*********************************************************************
//  363  * @fn      initPage
//  364  *
//  365  * @brief   Walk the page items; calculate checksums, lost bytes & page offset.
//  366  *
//  367  * @param   pg - Valid NV page to verify and init.
//  368  * @param   id - Valid NV item Id to use function as a "findItem".
//  369  *               If set to NULL then just perform the page initialization.
//  370  *
//  371  * @return  If 'id' is non-NULL and good checksums are found, return the offset
//  372  *          of the data corresponding to item Id; else OSAL_NV_ITEM_NULL.
//  373  */

        RSEG BANKED_CODE:CODE:NOROOT(0)
//  374 static uint16 initPage( uint8 pg, uint16 id, uint8 findDups )
initPage:
          CFI Block cfiBlock5 Using cfiCommon0
          CFI Function initPage
        CODE
//  375 {
        FUNCALL initPage, HalFlashRead
        LOCFRAME ISTACK, 0, STACK
        LOCFRAME PSTACK, 0, STACK
        LOCFRAME XSTACK, 28, STACK
        LOCFRAME IOVERLAY, 0, STATIC
        LOCFRAME DOVERLAY, 0, STATIC
        ARGFRAME ISTACK, 0, STACK
        ARGFRAME PSTACK, 0, STACK
        ARGFRAME XSTACK, 28, STACK
        ARGFRAME IOVERLAY, 0, STATIC
        ARGFRAME DOVERLAY, 0, STATIC
        FUNCALL initPage, calcChkF
        LOCFRAME ISTACK, 0, STACK
        LOCFRAME PSTACK, 0, STACK
        LOCFRAME XSTACK, 26, STACK
        LOCFRAME IOVERLAY, 0, STATIC
        LOCFRAME DOVERLAY, 0, STATIC
        ARGFRAME ISTACK, 0, STACK
        ARGFRAME PSTACK, 0, STACK
        ARGFRAME XSTACK, 26, STACK
        ARGFRAME IOVERLAY, 0, STATIC
        ARGFRAME DOVERLAY, 0, STATIC
        FUNCALL initPage, findItem
        LOCFRAME ISTACK, 0, STACK
        LOCFRAME PSTACK, 0, STACK
        LOCFRAME XSTACK, 26, STACK
        LOCFRAME IOVERLAY, 0, STATIC
        LOCFRAME DOVERLAY, 0, STATIC
        ARGFRAME ISTACK, 0, STACK
        ARGFRAME PSTACK, 0, STACK
        ARGFRAME XSTACK, 26, STACK
        ARGFRAME IOVERLAY, 0, STATIC
        ARGFRAME DOVERLAY, 0, STATIC
        FUNCALL initPage, setItem
        LOCFRAME ISTACK, 0, STACK
        LOCFRAME PSTACK, 0, STACK
        LOCFRAME XSTACK, 26, STACK
        LOCFRAME IOVERLAY, 0, STATIC
        LOCFRAME DOVERLAY, 0, STATIC
        ARGFRAME ISTACK, 0, STACK
        ARGFRAME PSTACK, 0, STACK
        ARGFRAME XSTACK, 26, STACK
        ARGFRAME IOVERLAY, 0, STATIC
        ARGFRAME DOVERLAY, 0, STATIC
        FUNCALL initPage, setItem
        LOCFRAME ISTACK, 0, STACK
        LOCFRAME PSTACK, 0, STACK
        LOCFRAME XSTACK, 26, STACK
        LOCFRAME IOVERLAY, 0, STATIC
        LOCFRAME DOVERLAY, 0, STATIC
        ARGFRAME ISTACK, 0, STACK
        ARGFRAME PSTACK, 0, STACK
        ARGFRAME XSTACK, 26, STACK
        ARGFRAME IOVERLAY, 0, STATIC
        ARGFRAME DOVERLAY, 0, STATIC
        MOV     A,#-0x12
        LCALL   ?BANKED_ENTER_XDATA
          CFI DPH0 load(1, XDATA, add(CFA_XSP16, literal(-1)))
          CFI DPL0 load(1, XDATA, add(CFA_XSP16, literal(-2)))
          CFI ?BRET_EXT load(1, XDATA, add(CFA_XSP16, literal(-3)))
          CFI ?RET_HIGH load(1, XDATA, add(CFA_XSP16, literal(-4)))
          CFI ?RET_LOW load(1, XDATA, add(CFA_XSP16, literal(-5)))
          CFI R7 load(1, XDATA, add(CFA_XSP16, literal(-6)))
          CFI V9 load(1, XDATA, add(CFA_XSP16, literal(-7)))
          CFI V8 load(1, XDATA, add(CFA_XSP16, literal(-8)))
          CFI V7 load(1, XDATA, add(CFA_XSP16, literal(-9)))
          CFI V6 load(1, XDATA, add(CFA_XSP16, literal(-10)))
          CFI V5 load(1, XDATA, add(CFA_XSP16, literal(-11)))
          CFI V4 load(1, XDATA, add(CFA_XSP16, literal(-12)))
          CFI V3 load(1, XDATA, add(CFA_XSP16, literal(-13)))
          CFI V2 load(1, XDATA, add(CFA_XSP16, literal(-14)))
          CFI V1 load(1, XDATA, add(CFA_XSP16, literal(-15)))
          CFI V0 load(1, XDATA, add(CFA_XSP16, literal(-16)))
          CFI VB load(1, XDATA, add(CFA_XSP16, literal(-17)))
          CFI R6 load(1, XDATA, add(CFA_XSP16, literal(-18)))
          CFI CFA_SP SP+0
          CFI CFA_XSP16 add(XSP16, 18)
        ; Saved register size: 18
        ; Auto size: 8
        MOV     A,#-0x8
        LCALL   ?ALLOC_XSTACK8
          CFI CFA_XSP16 add(XSP16, 26)
        MOV     ?V0 + 4,R1
        MOV     ?V0 + 6,R2
        MOV     ?V0 + 7,R3
        MOV     ?V0 + 5,R4
//  376   uint16 offset = OSAL_NV_PAGE_HDR_SIZE;
        MOV     ?V0 + 2,#0x8
        MOV     ?V0 + 3,#0x0
//  377   uint16 sz, lost = 0;
        MOV     R6,#0x0
        MOV     R7,#0x0
        SJMP    ??initPage_0
//  378   osalNvHdr_t hdr;
//  379 
//  380   do
//  381   {
//  382     HalFlashRead(pg, offset, (uint8 *)(&hdr), OSAL_NV_HDR_SIZE);
//  383 
//  384     if ( hdr.id == OSAL_NV_ERASED_ID )
//  385     {
//  386       break;
//  387     }
//  388     offset += OSAL_NV_HDR_SIZE;
//  389     sz = OSAL_NV_DATA_SIZE( hdr.len );
//  390 
//  391     // A bad 'len' write has blown away the rest of the page.
//  392     if ( (offset + sz) > OSAL_NV_PAGE_FREE )
//  393     {
//  394       lost += (OSAL_NV_PAGE_FREE - offset + OSAL_NV_HDR_SIZE);
//  395       offset = OSAL_NV_PAGE_FREE;
//  396       break;
//  397     }
//  398 
//  399     if ( hdr.id != OSAL_NV_ZEROED_ID )
//  400     {
//  401       /* This trick allows function to do double duty for findItem() without
//  402        * compromising its essential functionality at powerup initialization.
//  403        */
//  404       if ( id != OSAL_NV_ITEM_NULL )
//  405       {
//  406         /* This trick allows asking to find the old/transferred item in case
//  407          * of a successful new item write that gets interrupted before the
//  408          * old item can be zeroed out.
//  409          */
//  410         if ( (id & 0x7fff) == hdr.id )
//  411         {
//  412           if ( (((id & OSAL_NV_SOURCE_ID) == 0) && (hdr.stat == OSAL_NV_ERASED_ID)) ||
//  413                (((id & OSAL_NV_SOURCE_ID) != 0) && (hdr.stat != OSAL_NV_ERASED_ID)) )
//  414           {
//  415             return offset;
//  416           }
//  417         }
//  418       }
//  419       // When invoked from the osal_nv_init(), verify checksums and find & zero any duplicates.
//  420       else
//  421       {
//  422         if ( hdr.chk == calcChkF( pg, offset, hdr.len ) )
//  423         {
//  424           if ( findDups )
//  425           {
//  426             if ( hdr.stat == OSAL_NV_ERASED_ID )
//  427             {
//  428               /* The trick of setting the MSB of the item Id causes the logic
//  429                * immediately above to return a valid page only if the header 'stat'
//  430                * indicates that it was the older item being transferred.
//  431                */
//  432               uint16 off = findItem( (hdr.id | OSAL_NV_SOURCE_ID) );
//  433 
//  434               if ( off != OSAL_NV_ITEM_NULL )
//  435               {
//  436                 setItem( findPg, off, eNvZero );  // Mark old duplicate as invalid.
//  437               }
//  438             }
//  439           }
//  440           // Any "old" item immediately exits and triggers the N^2 exhaustive initialization.
//  441           else if ( hdr.stat != OSAL_NV_ERASED_ID )
//  442           {
//  443             return OSAL_NV_ERASED_ID;
//  444           }
//  445         }
//  446         else
//  447         {
//  448           setItem( pg, offset, eNvZero );  // Mark bad checksum as invalid.
//  449           lost += (OSAL_NV_HDR_SIZE + sz);
//  450         }
//  451       }
//  452     }
//  453     else
//  454     {
//  455       lost += (OSAL_NV_HDR_SIZE + sz);
??initPage_1:
        MOV     A,?V0 + 0
        ADD     A,#0x8
        MOV     R0,A
        MOV     A,?V0 + 1
        ADDC    A,#0x0
        MOV     R1,A
        MOV     A,R6
        ADD     A,R0
        MOV     R6,A
        MOV     A,R7
        ADDC    A,R1
        MOV     R7,A
//  456     }
//  457     offset += sz;
??initPage_2:
        MOV     A,?V0 + 2
        ADD     A,?V0 + 0
        MOV     ?V0 + 2,A
        MOV     A,?V0 + 3
        ADDC    A,?V0 + 1
        MOV     ?V0 + 3,A
//  458 
//  459   } while ( TRUE );
??initPage_0:
        ; Setup parameters for call to function HalFlashRead
        MOV     ?V0 + 0,#0x8
        MOV     ?V0 + 1,#0x0
        MOV     R0,#?V0 + 0
        LCALL   ?PUSH_XSTACK_I_TWO
          CFI CFA_XSP16 add(XSP16, 28)
        MOV     A,#0x2
        LCALL   ?XSTACK_DISP0_8
        MOV     R4,DPL
        MOV     R5,DPH
        MOV     R2,?V0 + 2
        MOV     R3,?V0 + 3
        MOV     R1,?V0 + 4
        LCALL   ??HalFlashRead?relay
        MOV     A,#0x2
        LCALL   ?DEALLOC_XSTACK8
          CFI CFA_XSP16 add(XSP16, 26)
        MOV     DPL,?XSP + 0
        MOV     DPH,?XSP + 1
        MOVX    A,@DPTR
        CPL     A
        JNZ     ??initPage_3
        INC     DPTR
        MOVX    A,@DPTR
        CPL     A
??initPage_3:
        JZ      ??initPage_4
        MOV     A,?V0 + 2
        ADD     A,#0x8
        MOV     ?V0 + 2,A
        MOV     A,?V0 + 3
        ADDC    A,#0x0
        MOV     ?V0 + 3,A
        MOV     A,#0x2
        LCALL   ?XSTACK_DISP0_8
        LCALL   ?Subroutine15 & 0xFFFF
??CrossCallReturnLabel_28:
        LCALL   ?Subroutine16 & 0xFFFF
??CrossCallReturnLabel_32:
        MOV     ?V0 + 0,A
        MOV     A,R1
        MOV     ?V0 + 1,A
        MOV     A,?V0 + 2
        ADD     A,?V0 + 0
        MOV     R0,A
        MOV     A,?V0 + 3
        ADDC    A,?V0 + 1
        MOV     R1,A
        CLR     C
        MOV     A,R0
        SUBB    A,#0x1
        MOV     A,R1
        SUBB    A,#0x8
        JC      ??initPage_5
        MOV     A,R6
        ADD     A,#0x8
        MOV     R0,A
        MOV     A,R7
        ADDC    A,#0x8
        MOV     R1,A
        MOV     A,R0
        CLR     C
        SUBB    A,?V0 + 2
        MOV     R6,A
        MOV     A,R1
        SUBB    A,?V0 + 3
        MOV     R7,A
        MOV     ?V0 + 2,#0x0
        MOV     ?V0 + 3,#0x8
//  460 
//  461   pgOff[pg - OSAL_NV_PAGE_BEG] = offset;
??initPage_4:
        MOV     A,?V0 + 4
        LCALL   ?Subroutine18 & 0xFFFF
??CrossCallReturnLabel_37:
        MOV     A,?V0 + 2
        MOVX    @DPTR,A
        INC     DPTR
        MOV     A,?V0 + 3
        LCALL   ?Subroutine6 & 0xFFFF
//  462   pgLost[pg - OSAL_NV_PAGE_BEG] = lost;
??CrossCallReturnLabel_2:
        MOV     A,R6
        MOVX    @DPTR,A
        INC     DPTR
        MOV     A,R7
        MOVX    @DPTR,A
//  463 
//  464   return OSAL_NV_ITEM_NULL;
        MOV     R2,#0x0
        MOV     R3,#0x0
??initPage_6:
        MOV     A,#0x8
        LJMP    ??Subroutine32_0 & 0xFFFF
??initPage_5:
        MOV     DPL,?XSP + 0
        MOV     DPH,?XSP + 1
        LCALL   ?Subroutine11 & 0xFFFF
??CrossCallReturnLabel_12:
        JNZ     $+5
        LJMP    ??initPage_1 & 0xFFFF
        MOV     A,?V0 + 6
        ORL     A,?V0 + 7
        JZ      ??initPage_7
        MOV     R0,?V0 + 6
        MOV     A,?V0 + 7
        ANL     A,#0x7f
        MOV     R1,A
        MOV     DPL,?XSP + 0
        MOV     DPH,?XSP + 1
        MOVX    A,@DPTR
        XRL     A,R0
        JNZ     ??initPage_8
        INC     DPTR
        MOVX    A,@DPTR
        XRL     A,R1
??initPage_8:
        JZ      $+5
        LJMP    ??initPage_2 & 0xFFFF
        MOV     A,#0x6
        LCALL   ?XSTACK_DISP0_8
        LCALL   ?Subroutine12 & 0xFFFF
??CrossCallReturnLabel_15:
        MOV     A,?V0 + 7
        ANL     A,#0x80
        JNZ     ??initPage_9
        MOV     A,#-0x1
        XRL     A,R0
        JNZ     ??initPage_10
        MOV     A,#-0x1
        XRL     A,R1
??initPage_10:
        JZ      $+5
        LJMP    ??initPage_2 & 0xFFFF
        SJMP    ??initPage_11
??initPage_9:
        MOV     A,#-0x1
        XRL     A,R0
        JNZ     ??initPage_12
        MOV     A,#-0x1
        XRL     A,R1
??initPage_12:
        JNZ     $+5
        LJMP    ??initPage_2 & 0xFFFF
??initPage_11:
        MOV     R2,?V0 + 2
        MOV     R3,?V0 + 3
        SJMP    ??initPage_6
??initPage_7:
        ; Setup parameters for call to function calcChkF
        MOV     R2,?V0 + 2
        MOV     R3,?V0 + 3
        MOV     R1,?V0 + 4
        LCALL   ??calcChkF?relay
        MOV     ?V0 + 8,R2
        MOV     ?V0 + 9,R3
        MOV     R0,?V0 + 8
        MOV     R1,?V0 + 9
        MOV     A,#0x4
        LCALL   ?XSTACK_DISP0_8
        MOVX    A,@DPTR
        XRL     A,R0
        JNZ     ??initPage_13
        INC     DPTR
        MOVX    A,@DPTR
        XRL     A,R1
??initPage_13:
        JNZ     ??initPage_14
        MOV     A,#0x6
        LCALL   ?XSTACK_DISP0_8
        LCALL   ?Subroutine12 & 0xFFFF
??CrossCallReturnLabel_16:
        MOV     A,?V0 + 5
        JZ      ??initPage_15
        MOV     A,#-0x1
        XRL     A,R0
        JNZ     ??initPage_16
        MOV     A,#-0x1
        XRL     A,R1
??initPage_16:
        JZ      $+5
        LJMP    ??initPage_2 & 0xFFFF
        ; Setup parameters for call to function findItem
        MOV     DPL,?XSP + 0
        MOV     DPH,?XSP + 1
        MOVX    A,@DPTR
        MOV     R2,A
        INC     DPTR
        MOVX    A,@DPTR
        ORL     A,#0x80
        MOV     R3,A
        LCALL   ??findItem?relay
        MOV     A,R2
        ORL     A,R3
        JNZ     $+5
        LJMP    ??initPage_2 & 0xFFFF
        ; Setup parameters for call to function setItem
        MOV     R4,#0x1
        MOV     DPTR,#findPg
        MOVX    A,@DPTR
        MOV     R1,A
        LCALL   ??setItem?relay
        LJMP    ??initPage_2 & 0xFFFF
??initPage_15:
        MOV     A,#-0x1
        XRL     A,R0
        JNZ     ??initPage_17
        MOV     A,#-0x1
        XRL     A,R1
??initPage_17:
        JNZ     $+5
        LJMP    ??initPage_2 & 0xFFFF
        MOV     R2,#-0x1
        MOV     R3,#-0x1
        LJMP    ??initPage_6 & 0xFFFF
??initPage_14:
        ; Setup parameters for call to function setItem
        MOV     R4,#0x1
        MOV     R2,?V0 + 2
        MOV     R3,?V0 + 3
        MOV     R1,?V0 + 4
        LCALL   ??setItem?relay
        LJMP    ??initPage_1 & 0xFFFF
          CFI EndBlock cfiBlock5
//  465 }
//  466 
//  467 /*********************************************************************
//  468  * @fn      erasePage
//  469  *
//  470  * @brief   Erases a page in Flash.
//  471  *
//  472  * @param   pg - Valid NV page to erase.
//  473  *
//  474  * @return  none
//  475  */

        RSEG BANKED_CODE:CODE:NOROOT(0)
//  476 static void erasePage( uint8 pg )
erasePage:
          CFI Block cfiBlock6 Using cfiCommon0
          CFI Function erasePage
        CODE
//  477 {
        FUNCALL erasePage, HalAdcCheckVdd
        LOCFRAME ISTACK, 0, STACK
        LOCFRAME PSTACK, 0, STACK
        LOCFRAME XSTACK, 9, STACK
        LOCFRAME IOVERLAY, 0, STATIC
        LOCFRAME DOVERLAY, 0, STATIC
        ARGFRAME ISTACK, 0, STACK
        ARGFRAME PSTACK, 0, STACK
        ARGFRAME XSTACK, 9, STACK
        ARGFRAME IOVERLAY, 0, STATIC
        ARGFRAME DOVERLAY, 0, STATIC
        FUNCALL erasePage, HalFlashErase
        LOCFRAME ISTACK, 0, STACK
        LOCFRAME PSTACK, 0, STACK
        LOCFRAME XSTACK, 9, STACK
        LOCFRAME IOVERLAY, 0, STATIC
        LOCFRAME DOVERLAY, 0, STATIC
        ARGFRAME ISTACK, 0, STACK
        ARGFRAME PSTACK, 0, STACK
        ARGFRAME XSTACK, 9, STACK
        ARGFRAME IOVERLAY, 0, STATIC
        ARGFRAME DOVERLAY, 0, STATIC
        MOV     A,#-0x9
        LCALL   ?BANKED_ENTER_XDATA
          CFI DPH0 load(1, XDATA, add(CFA_XSP16, literal(-1)))
          CFI DPL0 load(1, XDATA, add(CFA_XSP16, literal(-2)))
          CFI ?BRET_EXT load(1, XDATA, add(CFA_XSP16, literal(-3)))
          CFI ?RET_HIGH load(1, XDATA, add(CFA_XSP16, literal(-4)))
          CFI ?RET_LOW load(1, XDATA, add(CFA_XSP16, literal(-5)))
          CFI R7 load(1, XDATA, add(CFA_XSP16, literal(-6)))
          CFI V0 load(1, XDATA, add(CFA_XSP16, literal(-7)))
          CFI VB load(1, XDATA, add(CFA_XSP16, literal(-8)))
          CFI R6 load(1, XDATA, add(CFA_XSP16, literal(-9)))
          CFI CFA_SP SP+0
          CFI CFA_XSP16 add(XSP16, 9)
        ; Saved register size: 9
        ; Auto size: 0
        MOV     A,R1
        MOV     R6,A
//  478   if ( !OSAL_NV_CHECK_BUS_VOLTAGE )
        ; Setup parameters for call to function HalAdcCheckVdd
        MOV     R1,#0x4
        LCALL   ??HalAdcCheckVdd?relay
        MOV     A,R1
        JNZ     ??erasePage_0
//  479   {
//  480     failF = TRUE;
        MOV     DPTR,#failF
        MOV     A,#0x1
        SJMP    ??erasePage_1
//  481     return;
//  482   }
//  483 
//  484   HalFlashErase(pg);
??erasePage_0:
        ; Setup parameters for call to function HalFlashErase
        MOV     A,R6
        MOV     R1,A
        LCALL   ??HalFlashErase?relay
//  485 
//  486   pgOff[pg - OSAL_NV_PAGE_BEG] = OSAL_NV_PAGE_HDR_SIZE;
        MOV     A,R6
        LCALL   ?Subroutine18 & 0xFFFF
??CrossCallReturnLabel_38:
        MOV     A,#0x8
        MOVX    @DPTR,A
        INC     DPTR
        CLR     A
        LCALL   ?Subroutine6 & 0xFFFF
//  487   pgLost[pg - OSAL_NV_PAGE_BEG] = 0;
??CrossCallReturnLabel_3:
        CLR     A
        MOVX    @DPTR,A
        INC     DPTR
??erasePage_1:
        MOVX    @DPTR,A
//  488 }
        LJMP    ??Subroutine28_0 & 0xFFFF
          CFI EndBlock cfiBlock6

        RSEG BANKED_CODE:CODE:NOROOT(0)
?Subroutine18:
          CFI Block cfiCond7 Using cfiCommon0
          CFI Function initPage
          CFI Conditional ??CrossCallReturnLabel_37
          CFI R6 load(1, XDATA, add(CFA_XSP16, literal(-18)))
          CFI VB load(1, XDATA, add(CFA_XSP16, literal(-17)))
          CFI V0 load(1, XDATA, add(CFA_XSP16, literal(-16)))
          CFI V1 load(1, XDATA, add(CFA_XSP16, literal(-15)))
          CFI V2 load(1, XDATA, add(CFA_XSP16, literal(-14)))
          CFI V3 load(1, XDATA, add(CFA_XSP16, literal(-13)))
          CFI V4 load(1, XDATA, add(CFA_XSP16, literal(-12)))
          CFI V5 load(1, XDATA, add(CFA_XSP16, literal(-11)))
          CFI V6 load(1, XDATA, add(CFA_XSP16, literal(-10)))
          CFI V7 load(1, XDATA, add(CFA_XSP16, literal(-9)))
          CFI V8 load(1, XDATA, add(CFA_XSP16, literal(-8)))
          CFI V9 load(1, XDATA, add(CFA_XSP16, literal(-7)))
          CFI R7 load(1, XDATA, add(CFA_XSP16, literal(-6)))
          CFI ?RET_LOW load(1, XDATA, add(CFA_XSP16, literal(-5)))
          CFI ?RET_HIGH load(1, XDATA, add(CFA_XSP16, literal(-4)))
          CFI ?BRET_EXT load(1, XDATA, add(CFA_XSP16, literal(-3)))
          CFI DPL0 load(1, XDATA, add(CFA_XSP16, literal(-2)))
          CFI DPH0 load(1, XDATA, add(CFA_XSP16, literal(-1)))
          CFI CFA_SP SP+0
          CFI CFA_XSP16 add(XSP16, 26)
          CFI Block cfiCond8 Using cfiCommon0
          CFI (cfiCond8) Function erasePage
          CFI (cfiCond8) Conditional ??CrossCallReturnLabel_38
          CFI (cfiCond8) R6 load(1, XDATA, add(CFA_XSP16, literal(-9)))
          CFI (cfiCond8) VB load(1, XDATA, add(CFA_XSP16, literal(-8)))
          CFI (cfiCond8) V0 load(1, XDATA, add(CFA_XSP16, literal(-7)))
          CFI (cfiCond8) R7 load(1, XDATA, add(CFA_XSP16, literal(-6)))
          CFI (cfiCond8) ?RET_LOW load(1, XDATA, add(CFA_XSP16, literal(-5)))
          CFI (cfiCond8) ?RET_HIGH load(1, XDATA, add(CFA_XSP16, literal(-4)))
          CFI (cfiCond8) ?BRET_EXT load(1, XDATA, add(CFA_XSP16, literal(-3)))
          CFI (cfiCond8) DPL0 load(1, XDATA, add(CFA_XSP16, literal(-2)))
          CFI (cfiCond8) DPH0 load(1, XDATA, add(CFA_XSP16, literal(-1)))
          CFI (cfiCond8) CFA_SP SP+0
          CFI (cfiCond8) CFA_XSP16 add(XSP16, 9)
          CFI Block cfiPicker9 Using cfiCommon1
          CFI (cfiPicker9) NoFunction
          CFI (cfiPicker9) Picker
        LCALL   ?Subroutine26 & 0xFFFF
??CrossCallReturnLabel_55:
        RET
          CFI EndBlock cfiCond7
          CFI EndBlock cfiCond8
          CFI EndBlock cfiPicker9

        RSEG BANKED_CODE:CODE:NOROOT(0)
?Subroutine6:
          CFI Block cfiCond10 Using cfiCommon0
          CFI Function initPage
          CFI Conditional ??CrossCallReturnLabel_2
          CFI R6 load(1, XDATA, add(CFA_XSP16, literal(-18)))
          CFI VB load(1, XDATA, add(CFA_XSP16, literal(-17)))
          CFI V0 load(1, XDATA, add(CFA_XSP16, literal(-16)))
          CFI V1 load(1, XDATA, add(CFA_XSP16, literal(-15)))
          CFI V2 load(1, XDATA, add(CFA_XSP16, literal(-14)))
          CFI V3 load(1, XDATA, add(CFA_XSP16, literal(-13)))
          CFI V4 load(1, XDATA, add(CFA_XSP16, literal(-12)))
          CFI V5 load(1, XDATA, add(CFA_XSP16, literal(-11)))
          CFI V6 load(1, XDATA, add(CFA_XSP16, literal(-10)))
          CFI V7 load(1, XDATA, add(CFA_XSP16, literal(-9)))
          CFI V8 load(1, XDATA, add(CFA_XSP16, literal(-8)))
          CFI V9 load(1, XDATA, add(CFA_XSP16, literal(-7)))
          CFI R7 load(1, XDATA, add(CFA_XSP16, literal(-6)))
          CFI ?RET_LOW load(1, XDATA, add(CFA_XSP16, literal(-5)))
          CFI ?RET_HIGH load(1, XDATA, add(CFA_XSP16, literal(-4)))
          CFI ?BRET_EXT load(1, XDATA, add(CFA_XSP16, literal(-3)))
          CFI DPL0 load(1, XDATA, add(CFA_XSP16, literal(-2)))
          CFI DPH0 load(1, XDATA, add(CFA_XSP16, literal(-1)))
          CFI CFA_SP SP+0
          CFI CFA_XSP16 add(XSP16, 26)
          CFI Block cfiCond11 Using cfiCommon0
          CFI (cfiCond11) Function erasePage
          CFI (cfiCond11) Conditional ??CrossCallReturnLabel_3
          CFI (cfiCond11) R6 load(1, XDATA, add(CFA_XSP16, literal(-9)))
          CFI (cfiCond11) VB load(1, XDATA, add(CFA_XSP16, literal(-8)))
          CFI (cfiCond11) V0 load(1, XDATA, add(CFA_XSP16, literal(-7)))
          CFI (cfiCond11) R7 load(1, XDATA, add(CFA_XSP16, literal(-6)))
          CFI (cfiCond11) ?RET_LOW load(1, XDATA, add(CFA_XSP16, literal(-5)))
          CFI (cfiCond11) ?RET_HIGH load(1, XDATA, add(CFA_XSP16, literal(-4)))
          CFI (cfiCond11) ?BRET_EXT load(1, XDATA, add(CFA_XSP16, literal(-3)))
          CFI (cfiCond11) DPL0 load(1, XDATA, add(CFA_XSP16, literal(-2)))
          CFI (cfiCond11) DPH0 load(1, XDATA, add(CFA_XSP16, literal(-1)))
          CFI (cfiCond11) CFA_SP SP+0
          CFI (cfiCond11) CFA_XSP16 add(XSP16, 9)
          CFI Block cfiPicker12 Using cfiCommon1
          CFI (cfiPicker12) NoFunction
          CFI (cfiPicker12) Picker
        MOVX    @DPTR,A
        LCALL   ?Subroutine27 & 0xFFFF
??CrossCallReturnLabel_57:
        RET
          CFI EndBlock cfiCond10
          CFI EndBlock cfiCond11
          CFI EndBlock cfiPicker12

        RSEG BANKED_CODE:CODE:NOROOT(0)
?Subroutine27:
          CFI Block cfiCond13 Using cfiCommon0
          CFI Function initPage
          CFI Conditional ??CrossCallReturnLabel_57, ??CrossCallReturnLabel_2
          CFI R6 load(1, XDATA, add(CFA_XSP16, literal(-18)))
          CFI VB load(1, XDATA, add(CFA_XSP16, literal(-17)))
          CFI V0 load(1, XDATA, add(CFA_XSP16, literal(-16)))
          CFI V1 load(1, XDATA, add(CFA_XSP16, literal(-15)))
          CFI V2 load(1, XDATA, add(CFA_XSP16, literal(-14)))
          CFI V3 load(1, XDATA, add(CFA_XSP16, literal(-13)))
          CFI V4 load(1, XDATA, add(CFA_XSP16, literal(-12)))
          CFI V5 load(1, XDATA, add(CFA_XSP16, literal(-11)))
          CFI V6 load(1, XDATA, add(CFA_XSP16, literal(-10)))
          CFI V7 load(1, XDATA, add(CFA_XSP16, literal(-9)))
          CFI V8 load(1, XDATA, add(CFA_XSP16, literal(-8)))
          CFI V9 load(1, XDATA, add(CFA_XSP16, literal(-7)))
          CFI R7 load(1, XDATA, add(CFA_XSP16, literal(-6)))
          CFI ?RET_LOW load(1, XDATA, add(CFA_XSP16, literal(-5)))
          CFI ?RET_HIGH load(1, XDATA, add(CFA_XSP16, literal(-4)))
          CFI ?BRET_EXT load(1, XDATA, add(CFA_XSP16, literal(-3)))
          CFI DPL0 load(1, XDATA, add(CFA_XSP16, literal(-2)))
          CFI DPH0 load(1, XDATA, add(CFA_XSP16, literal(-1)))
          CFI CFA_SP SP+0
          CFI CFA_XSP16 add(XSP16, 26)
          CFI Block cfiCond14 Using cfiCommon0
          CFI (cfiCond14) Function erasePage
          CFI (cfiCond14) Conditional ??CrossCallReturnLabel_57, ??CrossCallReturnLabel_3
          CFI (cfiCond14) R6 load(1, XDATA, add(CFA_XSP16, literal(-9)))
          CFI (cfiCond14) VB load(1, XDATA, add(CFA_XSP16, literal(-8)))
          CFI (cfiCond14) V0 load(1, XDATA, add(CFA_XSP16, literal(-7)))
          CFI (cfiCond14) R7 load(1, XDATA, add(CFA_XSP16, literal(-6)))
          CFI (cfiCond14) ?RET_LOW load(1, XDATA, add(CFA_XSP16, literal(-5)))
          CFI (cfiCond14) ?RET_HIGH load(1, XDATA, add(CFA_XSP16, literal(-4)))
          CFI (cfiCond14) ?BRET_EXT load(1, XDATA, add(CFA_XSP16, literal(-3)))
          CFI (cfiCond14) DPL0 load(1, XDATA, add(CFA_XSP16, literal(-2)))
          CFI (cfiCond14) DPH0 load(1, XDATA, add(CFA_XSP16, literal(-1)))
          CFI (cfiCond14) CFA_SP SP+0
          CFI (cfiCond14) CFA_XSP16 add(XSP16, 9)
          CFI Block cfiCond15 Using cfiCommon0
          CFI (cfiCond15) Function setItem
          CFI (cfiCond15) Conditional ??CrossCallReturnLabel_56
          CFI (cfiCond15) R6 load(1, XDATA, add(CFA_XSP16, literal(-14)))
          CFI (cfiCond15) VB load(1, XDATA, add(CFA_XSP16, literal(-13)))
          CFI (cfiCond15) V0 load(1, XDATA, add(CFA_XSP16, literal(-12)))
          CFI (cfiCond15) V1 load(1, XDATA, add(CFA_XSP16, literal(-11)))
          CFI (cfiCond15) V2 load(1, XDATA, add(CFA_XSP16, literal(-10)))
          CFI (cfiCond15) V3 load(1, XDATA, add(CFA_XSP16, literal(-9)))
          CFI (cfiCond15) V4 load(1, XDATA, add(CFA_XSP16, literal(-8)))
          CFI (cfiCond15) V5 load(1, XDATA, add(CFA_XSP16, literal(-7)))
          CFI (cfiCond15) R7 load(1, XDATA, add(CFA_XSP16, literal(-6)))
          CFI (cfiCond15) ?RET_LOW load(1, XDATA, add(CFA_XSP16, literal(-5)))
          CFI (cfiCond15) ?RET_HIGH load(1, XDATA, add(CFA_XSP16, literal(-4)))
          CFI (cfiCond15) ?BRET_EXT load(1, XDATA, add(CFA_XSP16, literal(-3)))
          CFI (cfiCond15) DPL0 load(1, XDATA, add(CFA_XSP16, literal(-2)))
          CFI (cfiCond15) DPH0 load(1, XDATA, add(CFA_XSP16, literal(-1)))
          CFI (cfiCond15) CFA_SP SP+0
          CFI (cfiCond15) CFA_XSP16 add(XSP16, 22)
          CFI Block cfiPicker16 Using cfiCommon1
          CFI (cfiPicker16) NoFunction
          CFI (cfiPicker16) Picker
        MOV     A,#(pgLost + 14) & 0xff
        ADD     A,R0
        MOV     DPL,A
        MOV     A,#((pgLost - 242) >> 8) & 0xff
        ADDC    A,R1
        MOV     DPH,A
        RET
          CFI EndBlock cfiCond13
          CFI EndBlock cfiCond14
          CFI EndBlock cfiCond15
          CFI EndBlock cfiPicker16
//  489 
//  490 /*********************************************************************
//  491  * @fn      compactPage
//  492  *
//  493  * @brief   Compacts the page specified.
//  494  *
//  495  * @param   srcPg - Valid NV page to erase.
//  496  *
//  497  * @return  none
//  498  */

        RSEG BANKED_CODE:CODE:NOROOT(0)
//  499 static void compactPage( uint8 srcPg )
compactPage:
          CFI Block cfiBlock17 Using cfiCommon0
          CFI Function compactPage
        CODE
//  500 {
        FUNCALL compactPage, writeWordH
        LOCFRAME ISTACK, 0, STACK
        LOCFRAME PSTACK, 0, STACK
        LOCFRAME XSTACK, 24, STACK
        LOCFRAME IOVERLAY, 0, STATIC
        LOCFRAME DOVERLAY, 0, STATIC
        ARGFRAME ISTACK, 0, STACK
        ARGFRAME PSTACK, 0, STACK
        ARGFRAME XSTACK, 24, STACK
        ARGFRAME IOVERLAY, 0, STATIC
        ARGFRAME DOVERLAY, 0, STATIC
        FUNCALL compactPage, calcChkF
        LOCFRAME ISTACK, 0, STACK
        LOCFRAME PSTACK, 0, STACK
        LOCFRAME XSTACK, 24, STACK
        LOCFRAME IOVERLAY, 0, STATIC
        LOCFRAME DOVERLAY, 0, STATIC
        ARGFRAME ISTACK, 0, STACK
        ARGFRAME PSTACK, 0, STACK
        ARGFRAME XSTACK, 24, STACK
        ARGFRAME IOVERLAY, 0, STATIC
        ARGFRAME DOVERLAY, 0, STATIC
        FUNCALL compactPage, setItem
        LOCFRAME ISTACK, 0, STACK
        LOCFRAME PSTACK, 0, STACK
        LOCFRAME XSTACK, 24, STACK
        LOCFRAME IOVERLAY, 0, STATIC
        LOCFRAME DOVERLAY, 0, STATIC
        ARGFRAME ISTACK, 0, STACK
        ARGFRAME PSTACK, 0, STACK
        ARGFRAME XSTACK, 24, STACK
        ARGFRAME IOVERLAY, 0, STATIC
        ARGFRAME DOVERLAY, 0, STATIC
        FUNCALL compactPage, writeBuf
        LOCFRAME ISTACK, 0, STACK
        LOCFRAME PSTACK, 0, STACK
        LOCFRAME XSTACK, 26, STACK
        LOCFRAME IOVERLAY, 0, STATIC
        LOCFRAME DOVERLAY, 0, STATIC
        ARGFRAME ISTACK, 0, STACK
        ARGFRAME PSTACK, 0, STACK
        ARGFRAME XSTACK, 26, STACK
        ARGFRAME IOVERLAY, 0, STATIC
        ARGFRAME DOVERLAY, 0, STATIC
        FUNCALL compactPage, xferBuf
        LOCFRAME ISTACK, 0, STACK
        LOCFRAME PSTACK, 0, STACK
        LOCFRAME XSTACK, 28, STACK
        LOCFRAME IOVERLAY, 0, STATIC
        LOCFRAME DOVERLAY, 0, STATIC
        ARGFRAME ISTACK, 0, STACK
        ARGFRAME PSTACK, 0, STACK
        ARGFRAME XSTACK, 28, STACK
        ARGFRAME IOVERLAY, 0, STATIC
        ARGFRAME DOVERLAY, 0, STATIC
        FUNCALL compactPage, setItem
        LOCFRAME ISTACK, 0, STACK
        LOCFRAME PSTACK, 0, STACK
        LOCFRAME XSTACK, 24, STACK
        LOCFRAME IOVERLAY, 0, STATIC
        LOCFRAME DOVERLAY, 0, STATIC
        ARGFRAME ISTACK, 0, STACK
        ARGFRAME PSTACK, 0, STACK
        ARGFRAME XSTACK, 24, STACK
        ARGFRAME IOVERLAY, 0, STATIC
        ARGFRAME DOVERLAY, 0, STATIC
        FUNCALL compactPage, HalFlashRead
        LOCFRAME ISTACK, 0, STACK
        LOCFRAME PSTACK, 0, STACK
        LOCFRAME XSTACK, 26, STACK
        LOCFRAME IOVERLAY, 0, STATIC
        LOCFRAME DOVERLAY, 0, STATIC
        ARGFRAME ISTACK, 0, STACK
        ARGFRAME PSTACK, 0, STACK
        ARGFRAME XSTACK, 26, STACK
        ARGFRAME IOVERLAY, 0, STATIC
        ARGFRAME DOVERLAY, 0, STATIC
        FUNCALL compactPage, erasePage
        LOCFRAME ISTACK, 0, STACK
        LOCFRAME PSTACK, 0, STACK
        LOCFRAME XSTACK, 24, STACK
        LOCFRAME IOVERLAY, 0, STATIC
        LOCFRAME DOVERLAY, 0, STATIC
        ARGFRAME ISTACK, 0, STACK
        ARGFRAME PSTACK, 0, STACK
        ARGFRAME XSTACK, 24, STACK
        ARGFRAME IOVERLAY, 0, STATIC
        ARGFRAME DOVERLAY, 0, STATIC
        FUNCALL compactPage, setPageUse
        LOCFRAME ISTACK, 0, STACK
        LOCFRAME PSTACK, 0, STACK
        LOCFRAME XSTACK, 24, STACK
        LOCFRAME IOVERLAY, 0, STATIC
        LOCFRAME DOVERLAY, 0, STATIC
        ARGFRAME ISTACK, 0, STACK
        ARGFRAME PSTACK, 0, STACK
        ARGFRAME XSTACK, 24, STACK
        ARGFRAME IOVERLAY, 0, STATIC
        ARGFRAME DOVERLAY, 0, STATIC
        MOV     A,#-0xe
        LCALL   ?BANKED_ENTER_XDATA
          CFI DPH0 load(1, XDATA, add(CFA_XSP16, literal(-1)))
          CFI DPL0 load(1, XDATA, add(CFA_XSP16, literal(-2)))
          CFI ?BRET_EXT load(1, XDATA, add(CFA_XSP16, literal(-3)))
          CFI ?RET_HIGH load(1, XDATA, add(CFA_XSP16, literal(-4)))
          CFI ?RET_LOW load(1, XDATA, add(CFA_XSP16, literal(-5)))
          CFI R7 load(1, XDATA, add(CFA_XSP16, literal(-6)))
          CFI V5 load(1, XDATA, add(CFA_XSP16, literal(-7)))
          CFI V4 load(1, XDATA, add(CFA_XSP16, literal(-8)))
          CFI V3 load(1, XDATA, add(CFA_XSP16, literal(-9)))
          CFI V2 load(1, XDATA, add(CFA_XSP16, literal(-10)))
          CFI V1 load(1, XDATA, add(CFA_XSP16, literal(-11)))
          CFI V0 load(1, XDATA, add(CFA_XSP16, literal(-12)))
          CFI VB load(1, XDATA, add(CFA_XSP16, literal(-13)))
          CFI R6 load(1, XDATA, add(CFA_XSP16, literal(-14)))
          CFI CFA_SP SP+0
          CFI CFA_XSP16 add(XSP16, 14)
        ; Saved register size: 14
        ; Auto size: 10
        MOV     A,#-0xa
        LCALL   ?ALLOC_XSTACK8
          CFI CFA_XSP16 add(XSP16, 24)
        MOV     A,R1
        MOV     R6,A
//  501   uint16 dstOff = pgOff[pgRes-OSAL_NV_PAGE_BEG];
        LCALL   ?Subroutine8 & 0xFFFF
??CrossCallReturnLabel_4:
        MOVX    A,@DPTR
        MOV     ?V0 + 0,A
        INC     DPTR
        MOVX    A,@DPTR
        MOV     ?V0 + 1,A
//  502   uint16 srcOff = OSAL_NV_ZEROED_ID;
        LCALL   ?Subroutine4 & 0xFFFF
//  503   osalNvHdr_t hdr;
//  504 
//  505   // Mark page as being in process of compaction.
//  506   writeWordH( srcPg, OSAL_NV_PG_XFER, (uint8*)(&srcOff) );
??CrossCallReturnLabel_63:
        MOV     R2,#0x4
        MOV     R3,A
        MOV     A,R6
        MOV     R1,A
        LCALL   ??writeWordH?relay
//  507 
//  508   srcOff = OSAL_NV_PAGE_HDR_SIZE;
        MOV     DPL,?XSP + 0
        MOV     DPH,?XSP + 1
        MOV     A,#0x8
        MOVX    @DPTR,A
        INC     DPTR
        CLR     A
        LJMP    ??compactPage_0 & 0xFFFF
//  509 
//  510   do
//  511   {
//  512     uint16 sz;
//  513     HalFlashRead(srcPg, srcOff, (uint8 *)(&hdr), OSAL_NV_HDR_SIZE);
//  514 
//  515     if ( hdr.id == OSAL_NV_ERASED_ID )
//  516     {
//  517       break;
//  518     }
//  519 
//  520     srcOff += OSAL_NV_HDR_SIZE;
//  521 
//  522     if ( (srcOff + hdr.len) > OSAL_NV_PAGE_FREE )
//  523     {
//  524       break;
//  525     }
//  526 
//  527     sz = OSAL_NV_DATA_SIZE( hdr.len );
??compactPage_1:
        LCALL   ?Subroutine16 & 0xFFFF
??CrossCallReturnLabel_33:
        MOV     ?V0 + 4,A
        MOV     A,R1
        MOV     ?V0 + 5,A
//  528 
//  529     if ( hdr.id != OSAL_NV_ZEROED_ID )
        MOV     A,#0x2
        LCALL   ?XSTACK_DISP0_8
        LCALL   ?Subroutine11 & 0xFFFF
??CrossCallReturnLabel_13:
        JNZ     $+5
        LJMP    ??compactPage_2 & 0xFFFF
//  530     {
//  531       if ( hdr.chk == calcChkF( srcPg, srcOff, hdr.len ) )
        ; Setup parameters for call to function calcChkF
        LCALL   ?Subroutine7 & 0xFFFF
??CrossCallReturnLabel_60:
        LCALL   ??calcChkF?relay
        MOV     ?V0 + 2,R2
        MOV     ?V0 + 3,R3
        MOV     R0,?V0 + 2
        MOV     R1,?V0 + 3
        MOV     A,#0x6
        LCALL   ?XSTACK_DISP0_8
        MOVX    A,@DPTR
        XRL     A,R0
        JNZ     ??compactPage_3
        INC     DPTR
        MOVX    A,@DPTR
        XRL     A,R1
??compactPage_3:
        JNZ     ??compactPage_4
//  532       {
//  533         setItem( srcPg, srcOff, eNvXfer );
        ; Setup parameters for call to function setItem
        MOV     R4,#0x0
        LCALL   ?Subroutine7 & 0xFFFF
??CrossCallReturnLabel_61:
        LCALL   ??setItem?relay
//  534         writeBuf( pgRes, dstOff, OSAL_NV_HDR_SIZE, (byte *)(&hdr) );
        ; Setup parameters for call to function writeBuf
        MOV     A,#0x2
        LCALL   ?XSTACK_DISP0_8
        MOV     ?V0 + 2,DPL
        MOV     ?V0 + 3,DPH
        MOV     R0,#?V0 + 2
        LCALL   ?PUSH_XSTACK_I_TWO
          CFI CFA_XSP16 add(XSP16, 26)
        MOV     R4,#0x8
        MOV     R5,#0x0
        MOV     R2,?V0 + 0
        MOV     R3,?V0 + 1
        MOV     DPTR,#pgRes
        MOVX    A,@DPTR
        MOV     R1,A
        LCALL   ??writeBuf?relay
        MOV     A,#0x2
        LCALL   ?DEALLOC_XSTACK8
          CFI CFA_XSP16 add(XSP16, 24)
//  535         dstOff += OSAL_NV_HDR_SIZE;
        MOV     A,?V0 + 0
        ADD     A,#0x8
        MOV     ?V0 + 0,A
        MOV     A,?V0 + 1
        ADDC    A,#0x0
        MOV     ?V0 + 1,A
//  536         xferBuf( srcPg, srcOff, pgRes, dstOff, sz );
        ; Setup parameters for call to function xferBuf
        MOV     R0,#?V0 + 4
        LCALL   ?PUSH_XSTACK_I_TWO
          CFI CFA_XSP16 add(XSP16, 26)
        MOV     R0,#?V0 + 0
        LCALL   ?PUSH_XSTACK_I_TWO
          CFI CFA_XSP16 add(XSP16, 28)
        MOV     DPTR,#pgRes
        MOVX    A,@DPTR
        MOV     R4,A
        MOV     A,#0x4
        LCALL   ?XSTACK_DISP0_8
        LCALL   ??Subroutine29_0 & 0xFFFF
??CrossCallReturnLabel_58:
        LCALL   ??xferBuf?relay
        MOV     A,#0x4
        LCALL   ?DEALLOC_XSTACK8
          CFI CFA_XSP16 add(XSP16, 24)
//  537         dstOff += sz;
        MOV     A,?V0 + 0
        ADD     A,?V0 + 4
        MOV     ?V0 + 0,A
        MOV     A,?V0 + 1
        ADDC    A,?V0 + 5
        MOV     ?V0 + 1,A
//  538       }
//  539 
//  540       setItem( srcPg, srcOff, eNvZero );  // Mark old location as invalid.
??compactPage_4:
        ; Setup parameters for call to function setItem
        MOV     R4,#0x1
        LCALL   ?Subroutine7 & 0xFFFF
//  541     }
??CrossCallReturnLabel_62:
        LCALL   ??setItem?relay
//  542 
//  543     srcOff += sz;
??compactPage_2:
        MOV     DPL,?XSP + 0
        MOV     DPH,?XSP + 1
        MOVX    A,@DPTR
        ADD     A,?V0 + 4
        MOVX    @DPTR,A
        INC     DPTR
        MOVX    A,@DPTR
        ADDC    A,?V0 + 5
??compactPage_0:
        MOVX    @DPTR,A
//  544 
//  545   } while ( TRUE );
        ; Setup parameters for call to function HalFlashRead
        MOV     ?V0 + 2,#0x8
        MOV     ?V0 + 3,#0x0
        MOV     R0,#?V0 + 2
        LCALL   ?PUSH_XSTACK_I_TWO
          CFI CFA_XSP16 add(XSP16, 26)
        MOV     A,#0x4
        LCALL   ?XSTACK_DISP0_8
        MOV     R4,DPL
        MOV     R5,DPH
        MOV     A,#0x2
        LCALL   ?XSTACK_DISP0_8
        LCALL   ??Subroutine29_0 & 0xFFFF
??CrossCallReturnLabel_59:
        LCALL   ??HalFlashRead?relay
        MOV     A,#0x2
        LCALL   ?DEALLOC_XSTACK8
          CFI CFA_XSP16 add(XSP16, 24)
        MOV     A,#0x2
        LCALL   ?XSTACK_DISP0_8
        MOVX    A,@DPTR
        CPL     A
        JNZ     ??compactPage_5
        INC     DPTR
        MOVX    A,@DPTR
        CPL     A
??compactPage_5:
        JZ      ??compactPage_6
        MOV     DPL,?XSP + 0
        MOV     DPH,?XSP + 1
        MOVX    A,@DPTR
        ADD     A,#0x8
        MOVX    @DPTR,A
        INC     DPTR
        MOVX    A,@DPTR
        ADDC    A,#0x0
        MOVX    @DPTR,A
        MOV     A,#0x4
        LCALL   ?XSTACK_DISP0_8
        LCALL   ?Subroutine15 & 0xFFFF
??CrossCallReturnLabel_29:
        MOV     DPL,?XSP + 0
        MOV     DPH,?XSP + 1
        MOVX    A,@DPTR
        ADD     A,R4
        MOV     R0,A
        INC     DPTR
        MOVX    A,@DPTR
        ADDC    A,R5
        MOV     R1,A
        CLR     C
        MOV     A,R0
        SUBB    A,#0x1
        MOV     A,R1
        SUBB    A,#0x8
        JNC     $+5
        LJMP    ??compactPage_1 & 0xFFFF
//  546 
//  547   pgOff[pgRes-OSAL_NV_PAGE_BEG] = dstOff;
??compactPage_6:
        LCALL   ?Subroutine8 & 0xFFFF
??CrossCallReturnLabel_5:
        MOV     A,?V0 + 0
        MOVX    @DPTR,A
        INC     DPTR
        MOV     A,?V0 + 1
        MOVX    @DPTR,A
//  548 
//  549   /* In order to recover from a page compaction that is interrupted,
//  550    * the logic in osal_nv_init() depends upon the following order:
//  551    * 1. Compacted page is erased.
//  552    * 2. State of the target of compaction is changed ePgActive to ePgInUse.
//  553    */
//  554   erasePage( srcPg );
        ; Setup parameters for call to function erasePage
        MOV     A,R6
        MOV     R1,A
        LCALL   ??erasePage?relay
//  555 
//  556   // Mark the reserve page as being in use.
//  557   setPageUse( pgRes, TRUE );
        ; Setup parameters for call to function setPageUse
        MOV     R2,#0x1
        MOV     DPTR,#pgRes
        MOVX    A,@DPTR
        MOV     R1,A
        LCALL   ??setPageUse?relay
//  558 
//  559   // Set the reserve page to be the newly erased page.
//  560   pgRes = srcPg;
        MOV     A,R6
        MOV     DPTR,#pgRes
        MOVX    @DPTR,A
//  561 }
        MOV     A,#0xa
        LJMP    ?Subroutine3 & 0xFFFF
          CFI EndBlock cfiBlock17

        RSEG BANKED_CODE:CODE:NOROOT(0)
?Subroutine16:
          CFI Block cfiCond18 Using cfiCommon0
          CFI Function initPage
          CFI Conditional ??CrossCallReturnLabel_32
          CFI R6 load(1, XDATA, add(CFA_XSP16, literal(-18)))
          CFI VB load(1, XDATA, add(CFA_XSP16, literal(-17)))
          CFI V0 load(1, XDATA, add(CFA_XSP16, literal(-16)))
          CFI V1 load(1, XDATA, add(CFA_XSP16, literal(-15)))
          CFI V2 load(1, XDATA, add(CFA_XSP16, literal(-14)))
          CFI V3 load(1, XDATA, add(CFA_XSP16, literal(-13)))
          CFI V4 load(1, XDATA, add(CFA_XSP16, literal(-12)))
          CFI V5 load(1, XDATA, add(CFA_XSP16, literal(-11)))
          CFI V6 load(1, XDATA, add(CFA_XSP16, literal(-10)))
          CFI V7 load(1, XDATA, add(CFA_XSP16, literal(-9)))
          CFI V8 load(1, XDATA, add(CFA_XSP16, literal(-8)))
          CFI V9 load(1, XDATA, add(CFA_XSP16, literal(-7)))
          CFI R7 load(1, XDATA, add(CFA_XSP16, literal(-6)))
          CFI ?RET_LOW load(1, XDATA, add(CFA_XSP16, literal(-5)))
          CFI ?RET_HIGH load(1, XDATA, add(CFA_XSP16, literal(-4)))
          CFI ?BRET_EXT load(1, XDATA, add(CFA_XSP16, literal(-3)))
          CFI DPL0 load(1, XDATA, add(CFA_XSP16, literal(-2)))
          CFI DPH0 load(1, XDATA, add(CFA_XSP16, literal(-1)))
          CFI CFA_SP SP+0
          CFI CFA_XSP16 add(XSP16, 26)
          CFI Block cfiCond19 Using cfiCommon0
          CFI (cfiCond19) Function compactPage
          CFI (cfiCond19) Conditional ??CrossCallReturnLabel_33
          CFI (cfiCond19) R6 load(1, XDATA, add(CFA_XSP16, literal(-14)))
          CFI (cfiCond19) VB load(1, XDATA, add(CFA_XSP16, literal(-13)))
          CFI (cfiCond19) V0 load(1, XDATA, add(CFA_XSP16, literal(-12)))
          CFI (cfiCond19) V1 load(1, XDATA, add(CFA_XSP16, literal(-11)))
          CFI (cfiCond19) V2 load(1, XDATA, add(CFA_XSP16, literal(-10)))
          CFI (cfiCond19) V3 load(1, XDATA, add(CFA_XSP16, literal(-9)))
          CFI (cfiCond19) V4 load(1, XDATA, add(CFA_XSP16, literal(-8)))
          CFI (cfiCond19) V5 load(1, XDATA, add(CFA_XSP16, literal(-7)))
          CFI (cfiCond19) R7 load(1, XDATA, add(CFA_XSP16, literal(-6)))
          CFI (cfiCond19) ?RET_LOW load(1, XDATA, add(CFA_XSP16, literal(-5)))
          CFI (cfiCond19) ?RET_HIGH load(1, XDATA, add(CFA_XSP16, literal(-4)))
          CFI (cfiCond19) ?BRET_EXT load(1, XDATA, add(CFA_XSP16, literal(-3)))
          CFI (cfiCond19) DPL0 load(1, XDATA, add(CFA_XSP16, literal(-2)))
          CFI (cfiCond19) DPH0 load(1, XDATA, add(CFA_XSP16, literal(-1)))
          CFI (cfiCond19) CFA_SP SP+0
          CFI (cfiCond19) CFA_XSP16 add(XSP16, 24)
          CFI Block cfiCond20 Using cfiCommon0
          CFI (cfiCond20) Function initItem
          CFI (cfiCond20) Conditional ??CrossCallReturnLabel_34
          CFI (cfiCond20) R6 load(1, XDATA, add(CFA_XSP16, literal(-15)))
          CFI (cfiCond20) VB load(1, XDATA, add(CFA_XSP16, literal(-14)))
          CFI (cfiCond20) V0 load(1, XDATA, add(CFA_XSP16, literal(-13)))
          CFI (cfiCond20) V1 load(1, XDATA, add(CFA_XSP16, literal(-12)))
          CFI (cfiCond20) V2 load(1, XDATA, add(CFA_XSP16, literal(-11)))
          CFI (cfiCond20) V3 load(1, XDATA, add(CFA_XSP16, literal(-10)))
          CFI (cfiCond20) V4 load(1, XDATA, add(CFA_XSP16, literal(-9)))
          CFI (cfiCond20) V5 load(1, XDATA, add(CFA_XSP16, literal(-8)))
          CFI (cfiCond20) V6 load(1, XDATA, add(CFA_XSP16, literal(-7)))
          CFI (cfiCond20) R7 load(1, XDATA, add(CFA_XSP16, literal(-6)))
          CFI (cfiCond20) ?RET_LOW load(1, XDATA, add(CFA_XSP16, literal(-5)))
          CFI (cfiCond20) ?RET_HIGH load(1, XDATA, add(CFA_XSP16, literal(-4)))
          CFI (cfiCond20) ?BRET_EXT load(1, XDATA, add(CFA_XSP16, literal(-3)))
          CFI (cfiCond20) DPL0 load(1, XDATA, add(CFA_XSP16, literal(-2)))
          CFI (cfiCond20) DPH0 load(1, XDATA, add(CFA_XSP16, literal(-1)))
          CFI (cfiCond20) CFA_SP SP+0
          CFI (cfiCond20) CFA_XSP16 add(XSP16, 15)
          CFI Block cfiPicker21 Using cfiCommon1
          CFI (cfiPicker21) NoFunction
          CFI (cfiPicker21) Picker
        MOV     A,R4
        ADD     A,#0x3
        MOV     R0,A
        MOV     A,R5
        ADDC    A,#0x0
        MOV     R1,A
        MOV     A,R0
        ANL     A,#0xfc
        RET
          CFI EndBlock cfiCond18
          CFI EndBlock cfiCond19
          CFI EndBlock cfiCond20
          CFI EndBlock cfiPicker21

        RSEG BANKED_CODE:CODE:NOROOT(0)
?Subroutine15:
          CFI Block cfiCond22 Using cfiCommon0
          CFI Function initPage
          CFI Conditional ??CrossCallReturnLabel_28
          CFI R6 load(1, XDATA, add(CFA_XSP16, literal(-18)))
          CFI VB load(1, XDATA, add(CFA_XSP16, literal(-17)))
          CFI V0 load(1, XDATA, add(CFA_XSP16, literal(-16)))
          CFI V1 load(1, XDATA, add(CFA_XSP16, literal(-15)))
          CFI V2 load(1, XDATA, add(CFA_XSP16, literal(-14)))
          CFI V3 load(1, XDATA, add(CFA_XSP16, literal(-13)))
          CFI V4 load(1, XDATA, add(CFA_XSP16, literal(-12)))
          CFI V5 load(1, XDATA, add(CFA_XSP16, literal(-11)))
          CFI V6 load(1, XDATA, add(CFA_XSP16, literal(-10)))
          CFI V7 load(1, XDATA, add(CFA_XSP16, literal(-9)))
          CFI V8 load(1, XDATA, add(CFA_XSP16, literal(-8)))
          CFI V9 load(1, XDATA, add(CFA_XSP16, literal(-7)))
          CFI R7 load(1, XDATA, add(CFA_XSP16, literal(-6)))
          CFI ?RET_LOW load(1, XDATA, add(CFA_XSP16, literal(-5)))
          CFI ?RET_HIGH load(1, XDATA, add(CFA_XSP16, literal(-4)))
          CFI ?BRET_EXT load(1, XDATA, add(CFA_XSP16, literal(-3)))
          CFI DPL0 load(1, XDATA, add(CFA_XSP16, literal(-2)))
          CFI DPH0 load(1, XDATA, add(CFA_XSP16, literal(-1)))
          CFI CFA_SP SP+0
          CFI CFA_XSP16 add(XSP16, 26)
          CFI Block cfiCond23 Using cfiCommon0
          CFI (cfiCond23) Function compactPage
          CFI (cfiCond23) Conditional ??CrossCallReturnLabel_29
          CFI (cfiCond23) R6 load(1, XDATA, add(CFA_XSP16, literal(-14)))
          CFI (cfiCond23) VB load(1, XDATA, add(CFA_XSP16, literal(-13)))
          CFI (cfiCond23) V0 load(1, XDATA, add(CFA_XSP16, literal(-12)))
          CFI (cfiCond23) V1 load(1, XDATA, add(CFA_XSP16, literal(-11)))
          CFI (cfiCond23) V2 load(1, XDATA, add(CFA_XSP16, literal(-10)))
          CFI (cfiCond23) V3 load(1, XDATA, add(CFA_XSP16, literal(-9)))
          CFI (cfiCond23) V4 load(1, XDATA, add(CFA_XSP16, literal(-8)))
          CFI (cfiCond23) V5 load(1, XDATA, add(CFA_XSP16, literal(-7)))
          CFI (cfiCond23) R7 load(1, XDATA, add(CFA_XSP16, literal(-6)))
          CFI (cfiCond23) ?RET_LOW load(1, XDATA, add(CFA_XSP16, literal(-5)))
          CFI (cfiCond23) ?RET_HIGH load(1, XDATA, add(CFA_XSP16, literal(-4)))
          CFI (cfiCond23) ?BRET_EXT load(1, XDATA, add(CFA_XSP16, literal(-3)))
          CFI (cfiCond23) DPL0 load(1, XDATA, add(CFA_XSP16, literal(-2)))
          CFI (cfiCond23) DPH0 load(1, XDATA, add(CFA_XSP16, literal(-1)))
          CFI (cfiCond23) CFA_SP SP+0
          CFI (cfiCond23) CFA_XSP16 add(XSP16, 24)
          CFI Block cfiCond24 Using cfiCommon0
          CFI (cfiCond24) Function osal_nv_write
          CFI (cfiCond24) Conditional ??CrossCallReturnLabel_30
          CFI (cfiCond24) R6 load(1, XDATA, add(CFA_XSP16, literal(-24)))
          CFI (cfiCond24) VB load(1, XDATA, add(CFA_XSP16, literal(-23)))
          CFI (cfiCond24) V0 load(1, XDATA, add(CFA_XSP16, literal(-22)))
          CFI (cfiCond24) V1 load(1, XDATA, add(CFA_XSP16, literal(-21)))
          CFI (cfiCond24) V2 load(1, XDATA, add(CFA_XSP16, literal(-20)))
          CFI (cfiCond24) V3 load(1, XDATA, add(CFA_XSP16, literal(-19)))
          CFI (cfiCond24) V4 load(1, XDATA, add(CFA_XSP16, literal(-18)))
          CFI (cfiCond24) V5 load(1, XDATA, add(CFA_XSP16, literal(-17)))
          CFI (cfiCond24) V6 load(1, XDATA, add(CFA_XSP16, literal(-16)))
          CFI (cfiCond24) V7 load(1, XDATA, add(CFA_XSP16, literal(-15)))
          CFI (cfiCond24) V8 load(1, XDATA, add(CFA_XSP16, literal(-14)))
          CFI (cfiCond24) V9 load(1, XDATA, add(CFA_XSP16, literal(-13)))
          CFI (cfiCond24) V10 load(1, XDATA, add(CFA_XSP16, literal(-12)))
          CFI (cfiCond24) V11 load(1, XDATA, add(CFA_XSP16, literal(-11)))
          CFI (cfiCond24) V12 load(1, XDATA, add(CFA_XSP16, literal(-10)))
          CFI (cfiCond24) V13 load(1, XDATA, add(CFA_XSP16, literal(-9)))
          CFI (cfiCond24) V14 load(1, XDATA, add(CFA_XSP16, literal(-8)))
          CFI (cfiCond24) V15 load(1, XDATA, add(CFA_XSP16, literal(-7)))
          CFI (cfiCond24) R7 load(1, XDATA, add(CFA_XSP16, literal(-6)))
          CFI (cfiCond24) ?RET_LOW load(1, XDATA, add(CFA_XSP16, literal(-5)))
          CFI (cfiCond24) ?RET_HIGH load(1, XDATA, add(CFA_XSP16, literal(-4)))
          CFI (cfiCond24) ?BRET_EXT load(1, XDATA, add(CFA_XSP16, literal(-3)))
          CFI (cfiCond24) DPL0 load(1, XDATA, add(CFA_XSP16, literal(-2)))
          CFI (cfiCond24) DPH0 load(1, XDATA, add(CFA_XSP16, literal(-1)))
          CFI (cfiCond24) CFA_SP SP+0
          CFI (cfiCond24) CFA_XSP16 add(XSP16, 39)
          CFI Block cfiCond25 Using cfiCommon0
          CFI (cfiCond25) Function osal_nv_write
          CFI (cfiCond25) Conditional ??CrossCallReturnLabel_31
          CFI (cfiCond25) R6 load(1, XDATA, add(CFA_XSP16, literal(-24)))
          CFI (cfiCond25) VB load(1, XDATA, add(CFA_XSP16, literal(-23)))
          CFI (cfiCond25) V0 load(1, XDATA, add(CFA_XSP16, literal(-22)))
          CFI (cfiCond25) V1 load(1, XDATA, add(CFA_XSP16, literal(-21)))
          CFI (cfiCond25) V2 load(1, XDATA, add(CFA_XSP16, literal(-20)))
          CFI (cfiCond25) V3 load(1, XDATA, add(CFA_XSP16, literal(-19)))
          CFI (cfiCond25) V4 load(1, XDATA, add(CFA_XSP16, literal(-18)))
          CFI (cfiCond25) V5 load(1, XDATA, add(CFA_XSP16, literal(-17)))
          CFI (cfiCond25) V6 load(1, XDATA, add(CFA_XSP16, literal(-16)))
          CFI (cfiCond25) V7 load(1, XDATA, add(CFA_XSP16, literal(-15)))
          CFI (cfiCond25) V8 load(1, XDATA, add(CFA_XSP16, literal(-14)))
          CFI (cfiCond25) V9 load(1, XDATA, add(CFA_XSP16, literal(-13)))
          CFI (cfiCond25) V10 load(1, XDATA, add(CFA_XSP16, literal(-12)))
          CFI (cfiCond25) V11 load(1, XDATA, add(CFA_XSP16, literal(-11)))
          CFI (cfiCond25) V12 load(1, XDATA, add(CFA_XSP16, literal(-10)))
          CFI (cfiCond25) V13 load(1, XDATA, add(CFA_XSP16, literal(-9)))
          CFI (cfiCond25) V14 load(1, XDATA, add(CFA_XSP16, literal(-8)))
          CFI (cfiCond25) V15 load(1, XDATA, add(CFA_XSP16, literal(-7)))
          CFI (cfiCond25) R7 load(1, XDATA, add(CFA_XSP16, literal(-6)))
          CFI (cfiCond25) ?RET_LOW load(1, XDATA, add(CFA_XSP16, literal(-5)))
          CFI (cfiCond25) ?RET_HIGH load(1, XDATA, add(CFA_XSP16, literal(-4)))
          CFI (cfiCond25) ?BRET_EXT load(1, XDATA, add(CFA_XSP16, literal(-3)))
          CFI (cfiCond25) DPL0 load(1, XDATA, add(CFA_XSP16, literal(-2)))
          CFI (cfiCond25) DPH0 load(1, XDATA, add(CFA_XSP16, literal(-1)))
          CFI (cfiCond25) CFA_SP SP+0
          CFI (cfiCond25) CFA_XSP16 add(XSP16, 37)
          CFI Block cfiPicker26 Using cfiCommon1
          CFI (cfiPicker26) NoFunction
          CFI (cfiPicker26) Picker
        MOVX    A,@DPTR
        MOV     R4,A
        INC     DPTR
        MOVX    A,@DPTR
        MOV     R5,A
        RET
          CFI EndBlock cfiCond22
          CFI EndBlock cfiCond23
          CFI EndBlock cfiCond24
          CFI EndBlock cfiCond25
          CFI EndBlock cfiPicker26

        RSEG BANKED_CODE:CODE:NOROOT(0)
?Subroutine11:
          CFI Block cfiCond27 Using cfiCommon0
          CFI Function initPage
          CFI Conditional ??CrossCallReturnLabel_12
          CFI R6 load(1, XDATA, add(CFA_XSP16, literal(-18)))
          CFI VB load(1, XDATA, add(CFA_XSP16, literal(-17)))
          CFI V0 load(1, XDATA, add(CFA_XSP16, literal(-16)))
          CFI V1 load(1, XDATA, add(CFA_XSP16, literal(-15)))
          CFI V2 load(1, XDATA, add(CFA_XSP16, literal(-14)))
          CFI V3 load(1, XDATA, add(CFA_XSP16, literal(-13)))
          CFI V4 load(1, XDATA, add(CFA_XSP16, literal(-12)))
          CFI V5 load(1, XDATA, add(CFA_XSP16, literal(-11)))
          CFI V6 load(1, XDATA, add(CFA_XSP16, literal(-10)))
          CFI V7 load(1, XDATA, add(CFA_XSP16, literal(-9)))
          CFI V8 load(1, XDATA, add(CFA_XSP16, literal(-8)))
          CFI V9 load(1, XDATA, add(CFA_XSP16, literal(-7)))
          CFI R7 load(1, XDATA, add(CFA_XSP16, literal(-6)))
          CFI ?RET_LOW load(1, XDATA, add(CFA_XSP16, literal(-5)))
          CFI ?RET_HIGH load(1, XDATA, add(CFA_XSP16, literal(-4)))
          CFI ?BRET_EXT load(1, XDATA, add(CFA_XSP16, literal(-3)))
          CFI DPL0 load(1, XDATA, add(CFA_XSP16, literal(-2)))
          CFI DPH0 load(1, XDATA, add(CFA_XSP16, literal(-1)))
          CFI CFA_SP SP+0
          CFI CFA_XSP16 add(XSP16, 26)
          CFI Block cfiCond28 Using cfiCommon0
          CFI (cfiCond28) Function compactPage
          CFI (cfiCond28) Conditional ??CrossCallReturnLabel_13
          CFI (cfiCond28) R6 load(1, XDATA, add(CFA_XSP16, literal(-14)))
          CFI (cfiCond28) VB load(1, XDATA, add(CFA_XSP16, literal(-13)))
          CFI (cfiCond28) V0 load(1, XDATA, add(CFA_XSP16, literal(-12)))
          CFI (cfiCond28) V1 load(1, XDATA, add(CFA_XSP16, literal(-11)))
          CFI (cfiCond28) V2 load(1, XDATA, add(CFA_XSP16, literal(-10)))
          CFI (cfiCond28) V3 load(1, XDATA, add(CFA_XSP16, literal(-9)))
          CFI (cfiCond28) V4 load(1, XDATA, add(CFA_XSP16, literal(-8)))
          CFI (cfiCond28) V5 load(1, XDATA, add(CFA_XSP16, literal(-7)))
          CFI (cfiCond28) R7 load(1, XDATA, add(CFA_XSP16, literal(-6)))
          CFI (cfiCond28) ?RET_LOW load(1, XDATA, add(CFA_XSP16, literal(-5)))
          CFI (cfiCond28) ?RET_HIGH load(1, XDATA, add(CFA_XSP16, literal(-4)))
          CFI (cfiCond28) ?BRET_EXT load(1, XDATA, add(CFA_XSP16, literal(-3)))
          CFI (cfiCond28) DPL0 load(1, XDATA, add(CFA_XSP16, literal(-2)))
          CFI (cfiCond28) DPH0 load(1, XDATA, add(CFA_XSP16, literal(-1)))
          CFI (cfiCond28) CFA_SP SP+0
          CFI (cfiCond28) CFA_XSP16 add(XSP16, 24)
          CFI Block cfiCond29 Using cfiCommon0
          CFI (cfiCond29) Function osal_nv_write
          CFI (cfiCond29) Conditional ??CrossCallReturnLabel_14
          CFI (cfiCond29) R6 load(1, XDATA, add(CFA_XSP16, literal(-24)))
          CFI (cfiCond29) VB load(1, XDATA, add(CFA_XSP16, literal(-23)))
          CFI (cfiCond29) V0 load(1, XDATA, add(CFA_XSP16, literal(-22)))
          CFI (cfiCond29) V1 load(1, XDATA, add(CFA_XSP16, literal(-21)))
          CFI (cfiCond29) V2 load(1, XDATA, add(CFA_XSP16, literal(-20)))
          CFI (cfiCond29) V3 load(1, XDATA, add(CFA_XSP16, literal(-19)))
          CFI (cfiCond29) V4 load(1, XDATA, add(CFA_XSP16, literal(-18)))
          CFI (cfiCond29) V5 load(1, XDATA, add(CFA_XSP16, literal(-17)))
          CFI (cfiCond29) V6 load(1, XDATA, add(CFA_XSP16, literal(-16)))
          CFI (cfiCond29) V7 load(1, XDATA, add(CFA_XSP16, literal(-15)))
          CFI (cfiCond29) V8 load(1, XDATA, add(CFA_XSP16, literal(-14)))
          CFI (cfiCond29) V9 load(1, XDATA, add(CFA_XSP16, literal(-13)))
          CFI (cfiCond29) V10 load(1, XDATA, add(CFA_XSP16, literal(-12)))
          CFI (cfiCond29) V11 load(1, XDATA, add(CFA_XSP16, literal(-11)))
          CFI (cfiCond29) V12 load(1, XDATA, add(CFA_XSP16, literal(-10)))
          CFI (cfiCond29) V13 load(1, XDATA, add(CFA_XSP16, literal(-9)))
          CFI (cfiCond29) V14 load(1, XDATA, add(CFA_XSP16, literal(-8)))
          CFI (cfiCond29) V15 load(1, XDATA, add(CFA_XSP16, literal(-7)))
          CFI (cfiCond29) R7 load(1, XDATA, add(CFA_XSP16, literal(-6)))
          CFI (cfiCond29) ?RET_LOW load(1, XDATA, add(CFA_XSP16, literal(-5)))
          CFI (cfiCond29) ?RET_HIGH load(1, XDATA, add(CFA_XSP16, literal(-4)))
          CFI (cfiCond29) ?BRET_EXT load(1, XDATA, add(CFA_XSP16, literal(-3)))
          CFI (cfiCond29) DPL0 load(1, XDATA, add(CFA_XSP16, literal(-2)))
          CFI (cfiCond29) DPH0 load(1, XDATA, add(CFA_XSP16, literal(-1)))
          CFI (cfiCond29) CFA_SP SP+0
          CFI (cfiCond29) CFA_XSP16 add(XSP16, 37)
          CFI Block cfiPicker30 Using cfiCommon1
          CFI (cfiPicker30) NoFunction
          CFI (cfiPicker30) Picker
        MOVX    A,@DPTR
        MOV     R0,A
        INC     DPTR
        MOVX    A,@DPTR
        MOV     R1,A
        MOV     A,R0
        ORL     A,R1
        RET
          CFI EndBlock cfiCond27
          CFI EndBlock cfiCond28
          CFI EndBlock cfiCond29
          CFI EndBlock cfiPicker30

        RSEG BANKED_CODE:CODE:NOROOT(0)
?Subroutine8:
          CFI Block cfiCond31 Using cfiCommon0
          CFI Function compactPage
          CFI Conditional ??CrossCallReturnLabel_4
          CFI R6 load(1, XDATA, add(CFA_XSP16, literal(-14)))
          CFI VB load(1, XDATA, add(CFA_XSP16, literal(-13)))
          CFI V0 load(1, XDATA, add(CFA_XSP16, literal(-12)))
          CFI V1 load(1, XDATA, add(CFA_XSP16, literal(-11)))
          CFI V2 load(1, XDATA, add(CFA_XSP16, literal(-10)))
          CFI V3 load(1, XDATA, add(CFA_XSP16, literal(-9)))
          CFI V4 load(1, XDATA, add(CFA_XSP16, literal(-8)))
          CFI V5 load(1, XDATA, add(CFA_XSP16, literal(-7)))
          CFI R7 load(1, XDATA, add(CFA_XSP16, literal(-6)))
          CFI ?RET_LOW load(1, XDATA, add(CFA_XSP16, literal(-5)))
          CFI ?RET_HIGH load(1, XDATA, add(CFA_XSP16, literal(-4)))
          CFI ?BRET_EXT load(1, XDATA, add(CFA_XSP16, literal(-3)))
          CFI DPL0 load(1, XDATA, add(CFA_XSP16, literal(-2)))
          CFI DPH0 load(1, XDATA, add(CFA_XSP16, literal(-1)))
          CFI CFA_SP SP+0
          CFI CFA_XSP16 add(XSP16, 24)
          CFI Block cfiCond32 Using cfiCommon0
          CFI (cfiCond32) Function compactPage
          CFI (cfiCond32) Conditional ??CrossCallReturnLabel_5
          CFI (cfiCond32) R6 load(1, XDATA, add(CFA_XSP16, literal(-14)))
          CFI (cfiCond32) VB load(1, XDATA, add(CFA_XSP16, literal(-13)))
          CFI (cfiCond32) V0 load(1, XDATA, add(CFA_XSP16, literal(-12)))
          CFI (cfiCond32) V1 load(1, XDATA, add(CFA_XSP16, literal(-11)))
          CFI (cfiCond32) V2 load(1, XDATA, add(CFA_XSP16, literal(-10)))
          CFI (cfiCond32) V3 load(1, XDATA, add(CFA_XSP16, literal(-9)))
          CFI (cfiCond32) V4 load(1, XDATA, add(CFA_XSP16, literal(-8)))
          CFI (cfiCond32) V5 load(1, XDATA, add(CFA_XSP16, literal(-7)))
          CFI (cfiCond32) R7 load(1, XDATA, add(CFA_XSP16, literal(-6)))
          CFI (cfiCond32) ?RET_LOW load(1, XDATA, add(CFA_XSP16, literal(-5)))
          CFI (cfiCond32) ?RET_HIGH load(1, XDATA, add(CFA_XSP16, literal(-4)))
          CFI (cfiCond32) ?BRET_EXT load(1, XDATA, add(CFA_XSP16, literal(-3)))
          CFI (cfiCond32) DPL0 load(1, XDATA, add(CFA_XSP16, literal(-2)))
          CFI (cfiCond32) DPH0 load(1, XDATA, add(CFA_XSP16, literal(-1)))
          CFI (cfiCond32) CFA_SP SP+0
          CFI (cfiCond32) CFA_XSP16 add(XSP16, 24)
          CFI Block cfiPicker33 Using cfiCommon1
          CFI (cfiPicker33) NoFunction
          CFI (cfiPicker33) Picker
        MOV     DPTR,#pgRes
        MOVX    A,@DPTR
        LCALL   ?Subroutine26 & 0xFFFF
??CrossCallReturnLabel_54:
        RET
          CFI EndBlock cfiCond31
          CFI EndBlock cfiCond32
          CFI EndBlock cfiPicker33

        RSEG BANKED_CODE:CODE:NOROOT(0)
?Subroutine26:
          CFI Block cfiCond34 Using cfiCommon0
          CFI Function initPage
          CFI Conditional ??CrossCallReturnLabel_55, ??CrossCallReturnLabel_37
          CFI R6 load(1, XDATA, add(CFA_XSP16, literal(-18)))
          CFI VB load(1, XDATA, add(CFA_XSP16, literal(-17)))
          CFI V0 load(1, XDATA, add(CFA_XSP16, literal(-16)))
          CFI V1 load(1, XDATA, add(CFA_XSP16, literal(-15)))
          CFI V2 load(1, XDATA, add(CFA_XSP16, literal(-14)))
          CFI V3 load(1, XDATA, add(CFA_XSP16, literal(-13)))
          CFI V4 load(1, XDATA, add(CFA_XSP16, literal(-12)))
          CFI V5 load(1, XDATA, add(CFA_XSP16, literal(-11)))
          CFI V6 load(1, XDATA, add(CFA_XSP16, literal(-10)))
          CFI V7 load(1, XDATA, add(CFA_XSP16, literal(-9)))
          CFI V8 load(1, XDATA, add(CFA_XSP16, literal(-8)))
          CFI V9 load(1, XDATA, add(CFA_XSP16, literal(-7)))
          CFI R7 load(1, XDATA, add(CFA_XSP16, literal(-6)))
          CFI ?RET_LOW load(1, XDATA, add(CFA_XSP16, literal(-5)))
          CFI ?RET_HIGH load(1, XDATA, add(CFA_XSP16, literal(-4)))
          CFI ?BRET_EXT load(1, XDATA, add(CFA_XSP16, literal(-3)))
          CFI DPL0 load(1, XDATA, add(CFA_XSP16, literal(-2)))
          CFI DPH0 load(1, XDATA, add(CFA_XSP16, literal(-1)))
          CFI CFA_SP SP+0
          CFI CFA_XSP16 add(XSP16, 26)
          CFI Block cfiCond35 Using cfiCommon0
          CFI (cfiCond35) Function erasePage
          CFI (cfiCond35) Conditional ??CrossCallReturnLabel_55, ??CrossCallReturnLabel_38
          CFI (cfiCond35) R6 load(1, XDATA, add(CFA_XSP16, literal(-9)))
          CFI (cfiCond35) VB load(1, XDATA, add(CFA_XSP16, literal(-8)))
          CFI (cfiCond35) V0 load(1, XDATA, add(CFA_XSP16, literal(-7)))
          CFI (cfiCond35) R7 load(1, XDATA, add(CFA_XSP16, literal(-6)))
          CFI (cfiCond35) ?RET_LOW load(1, XDATA, add(CFA_XSP16, literal(-5)))
          CFI (cfiCond35) ?RET_HIGH load(1, XDATA, add(CFA_XSP16, literal(-4)))
          CFI (cfiCond35) ?BRET_EXT load(1, XDATA, add(CFA_XSP16, literal(-3)))
          CFI (cfiCond35) DPL0 load(1, XDATA, add(CFA_XSP16, literal(-2)))
          CFI (cfiCond35) DPH0 load(1, XDATA, add(CFA_XSP16, literal(-1)))
          CFI (cfiCond35) CFA_SP SP+0
          CFI (cfiCond35) CFA_XSP16 add(XSP16, 9)
          CFI Block cfiCond36 Using cfiCommon0
          CFI (cfiCond36) Function compactPage
          CFI (cfiCond36) Conditional ??CrossCallReturnLabel_54, ??CrossCallReturnLabel_4
          CFI (cfiCond36) R6 load(1, XDATA, add(CFA_XSP16, literal(-14)))
          CFI (cfiCond36) VB load(1, XDATA, add(CFA_XSP16, literal(-13)))
          CFI (cfiCond36) V0 load(1, XDATA, add(CFA_XSP16, literal(-12)))
          CFI (cfiCond36) V1 load(1, XDATA, add(CFA_XSP16, literal(-11)))
          CFI (cfiCond36) V2 load(1, XDATA, add(CFA_XSP16, literal(-10)))
          CFI (cfiCond36) V3 load(1, XDATA, add(CFA_XSP16, literal(-9)))
          CFI (cfiCond36) V4 load(1, XDATA, add(CFA_XSP16, literal(-8)))
          CFI (cfiCond36) V5 load(1, XDATA, add(CFA_XSP16, literal(-7)))
          CFI (cfiCond36) R7 load(1, XDATA, add(CFA_XSP16, literal(-6)))
          CFI (cfiCond36) ?RET_LOW load(1, XDATA, add(CFA_XSP16, literal(-5)))
          CFI (cfiCond36) ?RET_HIGH load(1, XDATA, add(CFA_XSP16, literal(-4)))
          CFI (cfiCond36) ?BRET_EXT load(1, XDATA, add(CFA_XSP16, literal(-3)))
          CFI (cfiCond36) DPL0 load(1, XDATA, add(CFA_XSP16, literal(-2)))
          CFI (cfiCond36) DPH0 load(1, XDATA, add(CFA_XSP16, literal(-1)))
          CFI (cfiCond36) CFA_SP SP+0
          CFI (cfiCond36) CFA_XSP16 add(XSP16, 24)
          CFI Block cfiCond37 Using cfiCommon0
          CFI (cfiCond37) Function compactPage
          CFI (cfiCond37) Conditional ??CrossCallReturnLabel_54, ??CrossCallReturnLabel_5
          CFI (cfiCond37) R6 load(1, XDATA, add(CFA_XSP16, literal(-14)))
          CFI (cfiCond37) VB load(1, XDATA, add(CFA_XSP16, literal(-13)))
          CFI (cfiCond37) V0 load(1, XDATA, add(CFA_XSP16, literal(-12)))
          CFI (cfiCond37) V1 load(1, XDATA, add(CFA_XSP16, literal(-11)))
          CFI (cfiCond37) V2 load(1, XDATA, add(CFA_XSP16, literal(-10)))
          CFI (cfiCond37) V3 load(1, XDATA, add(CFA_XSP16, literal(-9)))
          CFI (cfiCond37) V4 load(1, XDATA, add(CFA_XSP16, literal(-8)))
          CFI (cfiCond37) V5 load(1, XDATA, add(CFA_XSP16, literal(-7)))
          CFI (cfiCond37) R7 load(1, XDATA, add(CFA_XSP16, literal(-6)))
          CFI (cfiCond37) ?RET_LOW load(1, XDATA, add(CFA_XSP16, literal(-5)))
          CFI (cfiCond37) ?RET_HIGH load(1, XDATA, add(CFA_XSP16, literal(-4)))
          CFI (cfiCond37) ?BRET_EXT load(1, XDATA, add(CFA_XSP16, literal(-3)))
          CFI (cfiCond37) DPL0 load(1, XDATA, add(CFA_XSP16, literal(-2)))
          CFI (cfiCond37) DPH0 load(1, XDATA, add(CFA_XSP16, literal(-1)))
          CFI (cfiCond37) CFA_SP SP+0
          CFI (cfiCond37) CFA_XSP16 add(XSP16, 24)
          CFI Block cfiPicker38 Using cfiCommon1
          CFI (cfiPicker38) NoFunction
          CFI (cfiPicker38) Picker
        CLR     C
        RLC     A
        MOV     R0,A
        CLR     A
        RLC     A
        MOV     R1,A
        MOV     A,#(pgOff + 14) & 0xff
        ADD     A,R0
        MOV     DPL,A
        MOV     A,#((pgOff - 242) >> 8) & 0xff
        ADDC    A,R1
        MOV     DPH,A
        RET
          CFI EndBlock cfiCond34
          CFI EndBlock cfiCond35
          CFI EndBlock cfiCond36
          CFI EndBlock cfiCond37
          CFI EndBlock cfiPicker38

        RSEG BANKED_CODE:CODE:NOROOT(0)
?Subroutine7:
          CFI Block cfiCond39 Using cfiCommon0
          CFI Function compactPage
          CFI Conditional ??CrossCallReturnLabel_60
          CFI R6 load(1, XDATA, add(CFA_XSP16, literal(-14)))
          CFI VB load(1, XDATA, add(CFA_XSP16, literal(-13)))
          CFI V0 load(1, XDATA, add(CFA_XSP16, literal(-12)))
          CFI V1 load(1, XDATA, add(CFA_XSP16, literal(-11)))
          CFI V2 load(1, XDATA, add(CFA_XSP16, literal(-10)))
          CFI V3 load(1, XDATA, add(CFA_XSP16, literal(-9)))
          CFI V4 load(1, XDATA, add(CFA_XSP16, literal(-8)))
          CFI V5 load(1, XDATA, add(CFA_XSP16, literal(-7)))
          CFI R7 load(1, XDATA, add(CFA_XSP16, literal(-6)))
          CFI ?RET_LOW load(1, XDATA, add(CFA_XSP16, literal(-5)))
          CFI ?RET_HIGH load(1, XDATA, add(CFA_XSP16, literal(-4)))
          CFI ?BRET_EXT load(1, XDATA, add(CFA_XSP16, literal(-3)))
          CFI DPL0 load(1, XDATA, add(CFA_XSP16, literal(-2)))
          CFI DPH0 load(1, XDATA, add(CFA_XSP16, literal(-1)))
          CFI CFA_SP SP+0
          CFI CFA_XSP16 add(XSP16, 24)
          CFI Block cfiCond40 Using cfiCommon0
          CFI (cfiCond40) Function compactPage
          CFI (cfiCond40) Conditional ??CrossCallReturnLabel_61
          CFI (cfiCond40) R6 load(1, XDATA, add(CFA_XSP16, literal(-14)))
          CFI (cfiCond40) VB load(1, XDATA, add(CFA_XSP16, literal(-13)))
          CFI (cfiCond40) V0 load(1, XDATA, add(CFA_XSP16, literal(-12)))
          CFI (cfiCond40) V1 load(1, XDATA, add(CFA_XSP16, literal(-11)))
          CFI (cfiCond40) V2 load(1, XDATA, add(CFA_XSP16, literal(-10)))
          CFI (cfiCond40) V3 load(1, XDATA, add(CFA_XSP16, literal(-9)))
          CFI (cfiCond40) V4 load(1, XDATA, add(CFA_XSP16, literal(-8)))
          CFI (cfiCond40) V5 load(1, XDATA, add(CFA_XSP16, literal(-7)))
          CFI (cfiCond40) R7 load(1, XDATA, add(CFA_XSP16, literal(-6)))
          CFI (cfiCond40) ?RET_LOW load(1, XDATA, add(CFA_XSP16, literal(-5)))
          CFI (cfiCond40) ?RET_HIGH load(1, XDATA, add(CFA_XSP16, literal(-4)))
          CFI (cfiCond40) ?BRET_EXT load(1, XDATA, add(CFA_XSP16, literal(-3)))
          CFI (cfiCond40) DPL0 load(1, XDATA, add(CFA_XSP16, literal(-2)))
          CFI (cfiCond40) DPH0 load(1, XDATA, add(CFA_XSP16, literal(-1)))
          CFI (cfiCond40) CFA_SP SP+0
          CFI (cfiCond40) CFA_XSP16 add(XSP16, 24)
          CFI Block cfiCond41 Using cfiCommon0
          CFI (cfiCond41) Function compactPage
          CFI (cfiCond41) Conditional ??CrossCallReturnLabel_62
          CFI (cfiCond41) R6 load(1, XDATA, add(CFA_XSP16, literal(-14)))
          CFI (cfiCond41) VB load(1, XDATA, add(CFA_XSP16, literal(-13)))
          CFI (cfiCond41) V0 load(1, XDATA, add(CFA_XSP16, literal(-12)))
          CFI (cfiCond41) V1 load(1, XDATA, add(CFA_XSP16, literal(-11)))
          CFI (cfiCond41) V2 load(1, XDATA, add(CFA_XSP16, literal(-10)))
          CFI (cfiCond41) V3 load(1, XDATA, add(CFA_XSP16, literal(-9)))
          CFI (cfiCond41) V4 load(1, XDATA, add(CFA_XSP16, literal(-8)))
          CFI (cfiCond41) V5 load(1, XDATA, add(CFA_XSP16, literal(-7)))
          CFI (cfiCond41) R7 load(1, XDATA, add(CFA_XSP16, literal(-6)))
          CFI (cfiCond41) ?RET_LOW load(1, XDATA, add(CFA_XSP16, literal(-5)))
          CFI (cfiCond41) ?RET_HIGH load(1, XDATA, add(CFA_XSP16, literal(-4)))
          CFI (cfiCond41) ?BRET_EXT load(1, XDATA, add(CFA_XSP16, literal(-3)))
          CFI (cfiCond41) DPL0 load(1, XDATA, add(CFA_XSP16, literal(-2)))
          CFI (cfiCond41) DPH0 load(1, XDATA, add(CFA_XSP16, literal(-1)))
          CFI (cfiCond41) CFA_SP SP+0
          CFI (cfiCond41) CFA_XSP16 add(XSP16, 24)
          CFI Block cfiPicker42 Using cfiCommon1
          CFI (cfiPicker42) NoFunction
          CFI (cfiPicker42) Picker
        MOV     DPL,?XSP + 0
        MOV     DPH,?XSP + 1
          CFI EndBlock cfiCond39
          CFI EndBlock cfiCond40
          CFI EndBlock cfiCond41
          CFI EndBlock cfiPicker42
        REQUIRE ??Subroutine29_0
        ; // Fall through to label ??Subroutine29_0

        RSEG BANKED_CODE:CODE:NOROOT(0)
??Subroutine29_0:
          CFI Block cfiCond43 Using cfiCommon0
          CFI Function compactPage
          CFI Conditional ??CrossCallReturnLabel_58
          CFI R6 load(1, XDATA, add(CFA_XSP16, literal(-14)))
          CFI VB load(1, XDATA, add(CFA_XSP16, literal(-13)))
          CFI V0 load(1, XDATA, add(CFA_XSP16, literal(-12)))
          CFI V1 load(1, XDATA, add(CFA_XSP16, literal(-11)))
          CFI V2 load(1, XDATA, add(CFA_XSP16, literal(-10)))
          CFI V3 load(1, XDATA, add(CFA_XSP16, literal(-9)))
          CFI V4 load(1, XDATA, add(CFA_XSP16, literal(-8)))
          CFI V5 load(1, XDATA, add(CFA_XSP16, literal(-7)))
          CFI R7 load(1, XDATA, add(CFA_XSP16, literal(-6)))
          CFI ?RET_LOW load(1, XDATA, add(CFA_XSP16, literal(-5)))
          CFI ?RET_HIGH load(1, XDATA, add(CFA_XSP16, literal(-4)))
          CFI ?BRET_EXT load(1, XDATA, add(CFA_XSP16, literal(-3)))
          CFI DPL0 load(1, XDATA, add(CFA_XSP16, literal(-2)))
          CFI DPH0 load(1, XDATA, add(CFA_XSP16, literal(-1)))
          CFI CFA_SP SP+0
          CFI CFA_XSP16 add(XSP16, 28)
          CFI Block cfiCond44 Using cfiCommon0
          CFI (cfiCond44) Function compactPage
          CFI (cfiCond44) Conditional ??CrossCallReturnLabel_59
          CFI (cfiCond44) R6 load(1, XDATA, add(CFA_XSP16, literal(-14)))
          CFI (cfiCond44) VB load(1, XDATA, add(CFA_XSP16, literal(-13)))
          CFI (cfiCond44) V0 load(1, XDATA, add(CFA_XSP16, literal(-12)))
          CFI (cfiCond44) V1 load(1, XDATA, add(CFA_XSP16, literal(-11)))
          CFI (cfiCond44) V2 load(1, XDATA, add(CFA_XSP16, literal(-10)))
          CFI (cfiCond44) V3 load(1, XDATA, add(CFA_XSP16, literal(-9)))
          CFI (cfiCond44) V4 load(1, XDATA, add(CFA_XSP16, literal(-8)))
          CFI (cfiCond44) V5 load(1, XDATA, add(CFA_XSP16, literal(-7)))
          CFI (cfiCond44) R7 load(1, XDATA, add(CFA_XSP16, literal(-6)))
          CFI (cfiCond44) ?RET_LOW load(1, XDATA, add(CFA_XSP16, literal(-5)))
          CFI (cfiCond44) ?RET_HIGH load(1, XDATA, add(CFA_XSP16, literal(-4)))
          CFI (cfiCond44) ?BRET_EXT load(1, XDATA, add(CFA_XSP16, literal(-3)))
          CFI (cfiCond44) DPL0 load(1, XDATA, add(CFA_XSP16, literal(-2)))
          CFI (cfiCond44) DPH0 load(1, XDATA, add(CFA_XSP16, literal(-1)))
          CFI (cfiCond44) CFA_SP SP+0
          CFI (cfiCond44) CFA_XSP16 add(XSP16, 26)
          CFI Block cfiCond45 Using cfiCommon0
          CFI (cfiCond45) Function compactPage
          CFI (cfiCond45) Conditional ??CrossCallReturnLabel_60
          CFI (cfiCond45) R6 load(1, XDATA, add(CFA_XSP16, literal(-14)))
          CFI (cfiCond45) VB load(1, XDATA, add(CFA_XSP16, literal(-13)))
          CFI (cfiCond45) V0 load(1, XDATA, add(CFA_XSP16, literal(-12)))
          CFI (cfiCond45) V1 load(1, XDATA, add(CFA_XSP16, literal(-11)))
          CFI (cfiCond45) V2 load(1, XDATA, add(CFA_XSP16, literal(-10)))
          CFI (cfiCond45) V3 load(1, XDATA, add(CFA_XSP16, literal(-9)))
          CFI (cfiCond45) V4 load(1, XDATA, add(CFA_XSP16, literal(-8)))
          CFI (cfiCond45) V5 load(1, XDATA, add(CFA_XSP16, literal(-7)))
          CFI (cfiCond45) R7 load(1, XDATA, add(CFA_XSP16, literal(-6)))
          CFI (cfiCond45) ?RET_LOW load(1, XDATA, add(CFA_XSP16, literal(-5)))
          CFI (cfiCond45) ?RET_HIGH load(1, XDATA, add(CFA_XSP16, literal(-4)))
          CFI (cfiCond45) ?BRET_EXT load(1, XDATA, add(CFA_XSP16, literal(-3)))
          CFI (cfiCond45) DPL0 load(1, XDATA, add(CFA_XSP16, literal(-2)))
          CFI (cfiCond45) DPH0 load(1, XDATA, add(CFA_XSP16, literal(-1)))
          CFI (cfiCond45) CFA_SP SP+0
          CFI (cfiCond45) CFA_XSP16 add(XSP16, 24)
          CFI Block cfiCond46 Using cfiCommon0
          CFI (cfiCond46) Function compactPage
          CFI (cfiCond46) Conditional ??CrossCallReturnLabel_61
          CFI (cfiCond46) R6 load(1, XDATA, add(CFA_XSP16, literal(-14)))
          CFI (cfiCond46) VB load(1, XDATA, add(CFA_XSP16, literal(-13)))
          CFI (cfiCond46) V0 load(1, XDATA, add(CFA_XSP16, literal(-12)))
          CFI (cfiCond46) V1 load(1, XDATA, add(CFA_XSP16, literal(-11)))
          CFI (cfiCond46) V2 load(1, XDATA, add(CFA_XSP16, literal(-10)))
          CFI (cfiCond46) V3 load(1, XDATA, add(CFA_XSP16, literal(-9)))
          CFI (cfiCond46) V4 load(1, XDATA, add(CFA_XSP16, literal(-8)))
          CFI (cfiCond46) V5 load(1, XDATA, add(CFA_XSP16, literal(-7)))
          CFI (cfiCond46) R7 load(1, XDATA, add(CFA_XSP16, literal(-6)))
          CFI (cfiCond46) ?RET_LOW load(1, XDATA, add(CFA_XSP16, literal(-5)))
          CFI (cfiCond46) ?RET_HIGH load(1, XDATA, add(CFA_XSP16, literal(-4)))
          CFI (cfiCond46) ?BRET_EXT load(1, XDATA, add(CFA_XSP16, literal(-3)))
          CFI (cfiCond46) DPL0 load(1, XDATA, add(CFA_XSP16, literal(-2)))
          CFI (cfiCond46) DPH0 load(1, XDATA, add(CFA_XSP16, literal(-1)))
          CFI (cfiCond46) CFA_SP SP+0
          CFI (cfiCond46) CFA_XSP16 add(XSP16, 24)
          CFI Block cfiCond47 Using cfiCommon0
          CFI (cfiCond47) Function compactPage
          CFI (cfiCond47) Conditional ??CrossCallReturnLabel_62
          CFI (cfiCond47) R6 load(1, XDATA, add(CFA_XSP16, literal(-14)))
          CFI (cfiCond47) VB load(1, XDATA, add(CFA_XSP16, literal(-13)))
          CFI (cfiCond47) V0 load(1, XDATA, add(CFA_XSP16, literal(-12)))
          CFI (cfiCond47) V1 load(1, XDATA, add(CFA_XSP16, literal(-11)))
          CFI (cfiCond47) V2 load(1, XDATA, add(CFA_XSP16, literal(-10)))
          CFI (cfiCond47) V3 load(1, XDATA, add(CFA_XSP16, literal(-9)))
          CFI (cfiCond47) V4 load(1, XDATA, add(CFA_XSP16, literal(-8)))
          CFI (cfiCond47) V5 load(1, XDATA, add(CFA_XSP16, literal(-7)))
          CFI (cfiCond47) R7 load(1, XDATA, add(CFA_XSP16, literal(-6)))
          CFI (cfiCond47) ?RET_LOW load(1, XDATA, add(CFA_XSP16, literal(-5)))
          CFI (cfiCond47) ?RET_HIGH load(1, XDATA, add(CFA_XSP16, literal(-4)))
          CFI (cfiCond47) ?BRET_EXT load(1, XDATA, add(CFA_XSP16, literal(-3)))
          CFI (cfiCond47) DPL0 load(1, XDATA, add(CFA_XSP16, literal(-2)))
          CFI (cfiCond47) DPH0 load(1, XDATA, add(CFA_XSP16, literal(-1)))
          CFI (cfiCond47) CFA_SP SP+0
          CFI (cfiCond47) CFA_XSP16 add(XSP16, 24)
          CFI Block cfiPicker48 Using cfiCommon1
          CFI (cfiPicker48) NoFunction
          CFI (cfiPicker48) Picker
        MOVX    A,@DPTR
        MOV     R2,A
        INC     DPTR
        MOVX    A,@DPTR
        MOV     R3,A
        MOV     A,R6
        MOV     R1,A
        RET
          CFI EndBlock cfiCond43
          CFI EndBlock cfiCond44
          CFI EndBlock cfiCond45
          CFI EndBlock cfiCond46
          CFI EndBlock cfiCond47
          CFI EndBlock cfiPicker48

        RSEG BANKED_CODE:CODE:NOROOT(0)
?Subroutine4:
          CFI Block cfiCond49 Using cfiCommon0
          CFI Function compactPage
          CFI Conditional ??CrossCallReturnLabel_63
          CFI R6 load(1, XDATA, add(CFA_XSP16, literal(-14)))
          CFI VB load(1, XDATA, add(CFA_XSP16, literal(-13)))
          CFI V0 load(1, XDATA, add(CFA_XSP16, literal(-12)))
          CFI V1 load(1, XDATA, add(CFA_XSP16, literal(-11)))
          CFI V2 load(1, XDATA, add(CFA_XSP16, literal(-10)))
          CFI V3 load(1, XDATA, add(CFA_XSP16, literal(-9)))
          CFI V4 load(1, XDATA, add(CFA_XSP16, literal(-8)))
          CFI V5 load(1, XDATA, add(CFA_XSP16, literal(-7)))
          CFI R7 load(1, XDATA, add(CFA_XSP16, literal(-6)))
          CFI ?RET_LOW load(1, XDATA, add(CFA_XSP16, literal(-5)))
          CFI ?RET_HIGH load(1, XDATA, add(CFA_XSP16, literal(-4)))
          CFI ?BRET_EXT load(1, XDATA, add(CFA_XSP16, literal(-3)))
          CFI DPL0 load(1, XDATA, add(CFA_XSP16, literal(-2)))
          CFI DPH0 load(1, XDATA, add(CFA_XSP16, literal(-1)))
          CFI CFA_SP SP+0
          CFI CFA_XSP16 add(XSP16, 24)
          CFI Block cfiCond50 Using cfiCommon0
          CFI (cfiCond50) Function setItem
          CFI (cfiCond50) Conditional ??CrossCallReturnLabel_64
          CFI (cfiCond50) R6 load(1, XDATA, add(CFA_XSP16, literal(-14)))
          CFI (cfiCond50) VB load(1, XDATA, add(CFA_XSP16, literal(-13)))
          CFI (cfiCond50) V0 load(1, XDATA, add(CFA_XSP16, literal(-12)))
          CFI (cfiCond50) V1 load(1, XDATA, add(CFA_XSP16, literal(-11)))
          CFI (cfiCond50) V2 load(1, XDATA, add(CFA_XSP16, literal(-10)))
          CFI (cfiCond50) V3 load(1, XDATA, add(CFA_XSP16, literal(-9)))
          CFI (cfiCond50) V4 load(1, XDATA, add(CFA_XSP16, literal(-8)))
          CFI (cfiCond50) V5 load(1, XDATA, add(CFA_XSP16, literal(-7)))
          CFI (cfiCond50) R7 load(1, XDATA, add(CFA_XSP16, literal(-6)))
          CFI (cfiCond50) ?RET_LOW load(1, XDATA, add(CFA_XSP16, literal(-5)))
          CFI (cfiCond50) ?RET_HIGH load(1, XDATA, add(CFA_XSP16, literal(-4)))
          CFI (cfiCond50) ?BRET_EXT load(1, XDATA, add(CFA_XSP16, literal(-3)))
          CFI (cfiCond50) DPL0 load(1, XDATA, add(CFA_XSP16, literal(-2)))
          CFI (cfiCond50) DPH0 load(1, XDATA, add(CFA_XSP16, literal(-1)))
          CFI (cfiCond50) CFA_SP SP+0
          CFI (cfiCond50) CFA_XSP16 add(XSP16, 22)
          CFI Block cfiPicker51 Using cfiCommon1
          CFI (cfiPicker51) NoFunction
          CFI (cfiPicker51) Picker
        MOV     DPL,?XSP + 0
        MOV     DPH,?XSP + 1
        CLR     A
          CFI EndBlock cfiCond49
          CFI EndBlock cfiCond50
          CFI EndBlock cfiPicker51
        REQUIRE ??Subroutine30_0
        ; // Fall through to label ??Subroutine30_0

        RSEG BANKED_CODE:CODE:NOROOT(0)
??Subroutine30_0:
          CFI Block cfiCond52 Using cfiCommon0
          CFI Function setPageUse
          CFI Conditional ??CrossCallReturnLabel_65
          CFI R6 load(1, XDATA, add(CFA_XSP16, literal(-9)))
          CFI VB load(1, XDATA, add(CFA_XSP16, literal(-8)))
          CFI V0 load(1, XDATA, add(CFA_XSP16, literal(-7)))
          CFI R7 load(1, XDATA, add(CFA_XSP16, literal(-6)))
          CFI ?RET_LOW load(1, XDATA, add(CFA_XSP16, literal(-5)))
          CFI ?RET_HIGH load(1, XDATA, add(CFA_XSP16, literal(-4)))
          CFI ?BRET_EXT load(1, XDATA, add(CFA_XSP16, literal(-3)))
          CFI DPL0 load(1, XDATA, add(CFA_XSP16, literal(-2)))
          CFI DPH0 load(1, XDATA, add(CFA_XSP16, literal(-1)))
          CFI CFA_SP SP+0
          CFI CFA_XSP16 add(XSP16, 17)
          CFI Block cfiCond53 Using cfiCommon0
          CFI (cfiCond53) Function compactPage
          CFI (cfiCond53) Conditional ??CrossCallReturnLabel_63
          CFI (cfiCond53) R6 load(1, XDATA, add(CFA_XSP16, literal(-14)))
          CFI (cfiCond53) VB load(1, XDATA, add(CFA_XSP16, literal(-13)))
          CFI (cfiCond53) V0 load(1, XDATA, add(CFA_XSP16, literal(-12)))
          CFI (cfiCond53) V1 load(1, XDATA, add(CFA_XSP16, literal(-11)))
          CFI (cfiCond53) V2 load(1, XDATA, add(CFA_XSP16, literal(-10)))
          CFI (cfiCond53) V3 load(1, XDATA, add(CFA_XSP16, literal(-9)))
          CFI (cfiCond53) V4 load(1, XDATA, add(CFA_XSP16, literal(-8)))
          CFI (cfiCond53) V5 load(1, XDATA, add(CFA_XSP16, literal(-7)))
          CFI (cfiCond53) R7 load(1, XDATA, add(CFA_XSP16, literal(-6)))
          CFI (cfiCond53) ?RET_LOW load(1, XDATA, add(CFA_XSP16, literal(-5)))
          CFI (cfiCond53) ?RET_HIGH load(1, XDATA, add(CFA_XSP16, literal(-4)))
          CFI (cfiCond53) ?BRET_EXT load(1, XDATA, add(CFA_XSP16, literal(-3)))
          CFI (cfiCond53) DPL0 load(1, XDATA, add(CFA_XSP16, literal(-2)))
          CFI (cfiCond53) DPH0 load(1, XDATA, add(CFA_XSP16, literal(-1)))
          CFI (cfiCond53) CFA_SP SP+0
          CFI (cfiCond53) CFA_XSP16 add(XSP16, 24)
          CFI Block cfiCond54 Using cfiCommon0
          CFI (cfiCond54) Function setItem
          CFI (cfiCond54) Conditional ??CrossCallReturnLabel_64
          CFI (cfiCond54) R6 load(1, XDATA, add(CFA_XSP16, literal(-14)))
          CFI (cfiCond54) VB load(1, XDATA, add(CFA_XSP16, literal(-13)))
          CFI (cfiCond54) V0 load(1, XDATA, add(CFA_XSP16, literal(-12)))
          CFI (cfiCond54) V1 load(1, XDATA, add(CFA_XSP16, literal(-11)))
          CFI (cfiCond54) V2 load(1, XDATA, add(CFA_XSP16, literal(-10)))
          CFI (cfiCond54) V3 load(1, XDATA, add(CFA_XSP16, literal(-9)))
          CFI (cfiCond54) V4 load(1, XDATA, add(CFA_XSP16, literal(-8)))
          CFI (cfiCond54) V5 load(1, XDATA, add(CFA_XSP16, literal(-7)))
          CFI (cfiCond54) R7 load(1, XDATA, add(CFA_XSP16, literal(-6)))
          CFI (cfiCond54) ?RET_LOW load(1, XDATA, add(CFA_XSP16, literal(-5)))
          CFI (cfiCond54) ?RET_HIGH load(1, XDATA, add(CFA_XSP16, literal(-4)))
          CFI (cfiCond54) ?BRET_EXT load(1, XDATA, add(CFA_XSP16, literal(-3)))
          CFI (cfiCond54) DPL0 load(1, XDATA, add(CFA_XSP16, literal(-2)))
          CFI (cfiCond54) DPH0 load(1, XDATA, add(CFA_XSP16, literal(-1)))
          CFI (cfiCond54) CFA_SP SP+0
          CFI (cfiCond54) CFA_XSP16 add(XSP16, 22)
          CFI Block cfiPicker55 Using cfiCommon1
          CFI (cfiPicker55) NoFunction
          CFI (cfiPicker55) Picker
        MOVX    @DPTR,A
        INC     DPTR
          CFI EndBlock cfiCond52
          CFI EndBlock cfiCond53
          CFI EndBlock cfiCond54
          CFI EndBlock cfiPicker55
        REQUIRE ??Subroutine31_0
        ; // Fall through to label ??Subroutine31_0

        RSEG BANKED_CODE:CODE:NOROOT(0)
??Subroutine31_0:
          CFI Block cfiCond56 Using cfiCommon0
          CFI Function writeWordH
          CFI Conditional ??CrossCallReturnLabel_66
          CFI R6 load(1, XDATA, add(CFA_XSP16, literal(-9)))
          CFI VB load(1, XDATA, add(CFA_XSP16, literal(-8)))
          CFI V0 load(1, XDATA, add(CFA_XSP16, literal(-7)))
          CFI R7 load(1, XDATA, add(CFA_XSP16, literal(-6)))
          CFI ?RET_LOW load(1, XDATA, add(CFA_XSP16, literal(-5)))
          CFI ?RET_HIGH load(1, XDATA, add(CFA_XSP16, literal(-4)))
          CFI ?BRET_EXT load(1, XDATA, add(CFA_XSP16, literal(-3)))
          CFI DPL0 load(1, XDATA, add(CFA_XSP16, literal(-2)))
          CFI DPH0 load(1, XDATA, add(CFA_XSP16, literal(-1)))
          CFI CFA_SP SP+0
          CFI CFA_XSP16 add(XSP16, 13)
          CFI Block cfiCond57 Using cfiCommon0
          CFI (cfiCond57) Function setPageUse
          CFI (cfiCond57) Conditional ??CrossCallReturnLabel_65
          CFI (cfiCond57) R6 load(1, XDATA, add(CFA_XSP16, literal(-9)))
          CFI (cfiCond57) VB load(1, XDATA, add(CFA_XSP16, literal(-8)))
          CFI (cfiCond57) V0 load(1, XDATA, add(CFA_XSP16, literal(-7)))
          CFI (cfiCond57) R7 load(1, XDATA, add(CFA_XSP16, literal(-6)))
          CFI (cfiCond57) ?RET_LOW load(1, XDATA, add(CFA_XSP16, literal(-5)))
          CFI (cfiCond57) ?RET_HIGH load(1, XDATA, add(CFA_XSP16, literal(-4)))
          CFI (cfiCond57) ?BRET_EXT load(1, XDATA, add(CFA_XSP16, literal(-3)))
          CFI (cfiCond57) DPL0 load(1, XDATA, add(CFA_XSP16, literal(-2)))
          CFI (cfiCond57) DPH0 load(1, XDATA, add(CFA_XSP16, literal(-1)))
          CFI (cfiCond57) CFA_SP SP+0
          CFI (cfiCond57) CFA_XSP16 add(XSP16, 17)
          CFI Block cfiCond58 Using cfiCommon0
          CFI (cfiCond58) Function compactPage
          CFI (cfiCond58) Conditional ??CrossCallReturnLabel_63
          CFI (cfiCond58) R6 load(1, XDATA, add(CFA_XSP16, literal(-14)))
          CFI (cfiCond58) VB load(1, XDATA, add(CFA_XSP16, literal(-13)))
          CFI (cfiCond58) V0 load(1, XDATA, add(CFA_XSP16, literal(-12)))
          CFI (cfiCond58) V1 load(1, XDATA, add(CFA_XSP16, literal(-11)))
          CFI (cfiCond58) V2 load(1, XDATA, add(CFA_XSP16, literal(-10)))
          CFI (cfiCond58) V3 load(1, XDATA, add(CFA_XSP16, literal(-9)))
          CFI (cfiCond58) V4 load(1, XDATA, add(CFA_XSP16, literal(-8)))
          CFI (cfiCond58) V5 load(1, XDATA, add(CFA_XSP16, literal(-7)))
          CFI (cfiCond58) R7 load(1, XDATA, add(CFA_XSP16, literal(-6)))
          CFI (cfiCond58) ?RET_LOW load(1, XDATA, add(CFA_XSP16, literal(-5)))
          CFI (cfiCond58) ?RET_HIGH load(1, XDATA, add(CFA_XSP16, literal(-4)))
          CFI (cfiCond58) ?BRET_EXT load(1, XDATA, add(CFA_XSP16, literal(-3)))
          CFI (cfiCond58) DPL0 load(1, XDATA, add(CFA_XSP16, literal(-2)))
          CFI (cfiCond58) DPH0 load(1, XDATA, add(CFA_XSP16, literal(-1)))
          CFI (cfiCond58) CFA_SP SP+0
          CFI (cfiCond58) CFA_XSP16 add(XSP16, 24)
          CFI Block cfiCond59 Using cfiCommon0
          CFI (cfiCond59) Function setItem
          CFI (cfiCond59) Conditional ??CrossCallReturnLabel_64
          CFI (cfiCond59) R6 load(1, XDATA, add(CFA_XSP16, literal(-14)))
          CFI (cfiCond59) VB load(1, XDATA, add(CFA_XSP16, literal(-13)))
          CFI (cfiCond59) V0 load(1, XDATA, add(CFA_XSP16, literal(-12)))
          CFI (cfiCond59) V1 load(1, XDATA, add(CFA_XSP16, literal(-11)))
          CFI (cfiCond59) V2 load(1, XDATA, add(CFA_XSP16, literal(-10)))
          CFI (cfiCond59) V3 load(1, XDATA, add(CFA_XSP16, literal(-9)))
          CFI (cfiCond59) V4 load(1, XDATA, add(CFA_XSP16, literal(-8)))
          CFI (cfiCond59) V5 load(1, XDATA, add(CFA_XSP16, literal(-7)))
          CFI (cfiCond59) R7 load(1, XDATA, add(CFA_XSP16, literal(-6)))
          CFI (cfiCond59) ?RET_LOW load(1, XDATA, add(CFA_XSP16, literal(-5)))
          CFI (cfiCond59) ?RET_HIGH load(1, XDATA, add(CFA_XSP16, literal(-4)))
          CFI (cfiCond59) ?BRET_EXT load(1, XDATA, add(CFA_XSP16, literal(-3)))
          CFI (cfiCond59) DPL0 load(1, XDATA, add(CFA_XSP16, literal(-2)))
          CFI (cfiCond59) DPH0 load(1, XDATA, add(CFA_XSP16, literal(-1)))
          CFI (cfiCond59) CFA_SP SP+0
          CFI (cfiCond59) CFA_XSP16 add(XSP16, 22)
          CFI Block cfiPicker60 Using cfiCommon1
          CFI (cfiPicker60) NoFunction
          CFI (cfiPicker60) Picker
        MOVX    @DPTR,A
        ; Setup parameters for call to function writeWordH
        ; Setup parameters for call to function writeWord
        ; Setup parameters for call to function writeWord
        ; Setup parameters for call to function writeWord
        MOV     DPL,?XSP + 0
        MOV     DPH,?XSP + 1
        MOV     R4,DPL
        MOV     R5,DPH
        RET
          CFI EndBlock cfiCond56
          CFI EndBlock cfiCond57
          CFI EndBlock cfiCond58
          CFI EndBlock cfiCond59
          CFI EndBlock cfiPicker60
//  562 
//  563 /*********************************************************************
//  564  * @fn      findItem
//  565  *
//  566  * @brief   Find an item Id in NV and return the page and offset to its data.
//  567  *
//  568  * @param   id - Valid NV item Id.
//  569  *
//  570  * @return  Offset of data corresponding to item Id, if found;
//  571  *          otherwise OSAL_NV_ITEM_NULL.
//  572  *
//  573  *          The page containing the item, if found;
//  574  *          otherwise no valid assignment made - left equal to item Id.
//  575  *
//  576  */

        RSEG BANKED_CODE:CODE:NOROOT(0)
//  577 static uint16 findItem( uint16 id )
findItem:
          CFI Block cfiBlock61 Using cfiCommon0
          CFI Function findItem
        CODE
//  578 {
        FUNCALL findItem, initPage
        LOCFRAME ISTACK, 0, STACK
        LOCFRAME PSTACK, 0, STACK
        LOCFRAME XSTACK, 12, STACK
        LOCFRAME IOVERLAY, 0, STATIC
        LOCFRAME DOVERLAY, 0, STATIC
        ARGFRAME ISTACK, 0, STACK
        ARGFRAME PSTACK, 0, STACK
        ARGFRAME XSTACK, 12, STACK
        ARGFRAME IOVERLAY, 0, STATIC
        ARGFRAME DOVERLAY, 0, STATIC
        MOV     A,#-0xc
        LCALL   ?BANKED_ENTER_XDATA
          CFI DPH0 load(1, XDATA, add(CFA_XSP16, literal(-1)))
          CFI DPL0 load(1, XDATA, add(CFA_XSP16, literal(-2)))
          CFI ?BRET_EXT load(1, XDATA, add(CFA_XSP16, literal(-3)))
          CFI ?RET_HIGH load(1, XDATA, add(CFA_XSP16, literal(-4)))
          CFI ?RET_LOW load(1, XDATA, add(CFA_XSP16, literal(-5)))
          CFI R7 load(1, XDATA, add(CFA_XSP16, literal(-6)))
          CFI V3 load(1, XDATA, add(CFA_XSP16, literal(-7)))
          CFI V2 load(1, XDATA, add(CFA_XSP16, literal(-8)))
          CFI V1 load(1, XDATA, add(CFA_XSP16, literal(-9)))
          CFI V0 load(1, XDATA, add(CFA_XSP16, literal(-10)))
          CFI VB load(1, XDATA, add(CFA_XSP16, literal(-11)))
          CFI R6 load(1, XDATA, add(CFA_XSP16, literal(-12)))
          CFI CFA_SP SP+0
          CFI CFA_XSP16 add(XSP16, 12)
        ; Saved register size: 12
        ; Auto size: 0
        MOV     A,R2
        MOV     R6,A
        MOV     A,R3
        SJMP    ??findItem_0
//  579   uint16 off;
//  580   uint8 pg;
//  581 
//  582   for ( pg = OSAL_NV_PAGE_BEG; pg <= OSAL_NV_PAGE_END; pg++ )
//  583   {
//  584     if ( (off = initPage( pg, id, FALSE )) != OSAL_NV_ITEM_NULL )
//  585     {
//  586       findPg = pg;
//  587       return off;
//  588     }
//  589   }
//  590 
//  591   // Now attempt to find the item as the "old" item of a failed/interrupted NV write.
//  592   if ( (id & OSAL_NV_SOURCE_ID) == 0 )
//  593   {
//  594     return findItem( id | OSAL_NV_SOURCE_ID );
??findItem_1:
        MOV     A,#-0x80
        ORL     A,R7
??findItem_0:
        MOV     R7,A
//  595   }
        MOV     ?V0 + 0,#0x79
??findItem_2:
        ; Setup parameters for call to function initPage
        MOV     R4,#0x0
        MOV     A,R6
        MOV     R2,A
        MOV     A,R7
        MOV     R3,A
        MOV     R1,?V0 + 0
        LCALL   ??initPage?relay
        MOV     A,R2
        ORL     A,R3
        JZ      ??findItem_3
        MOV     A,?V0 + 0
        MOV     DPTR,#findPg
        MOVX    @DPTR,A
        SJMP    ??findItem_4
??findItem_3:
        INC     ?V0 + 0
        MOV     A,?V0 + 0
        CLR     C
        SUBB    A,#0x7f
        JC      ??findItem_2
        MOV     A,R7
        ANL     A,#0x80
        JZ      ??findItem_1
//  596   else
//  597   {
//  598     findPg = OSAL_NV_PAGE_NULL;
        MOV     DPTR,#findPg
        CLR     A
        MOVX    @DPTR,A
//  599     return OSAL_NV_ITEM_NULL;
        MOV     R2,A
        MOV     R3,A
//  600   }
??findItem_4:
        LJMP    ?Subroutine0 & 0xFFFF
          CFI EndBlock cfiBlock61
//  601 }
//  602 
//  603 /*********************************************************************
//  604  * @fn      initItem
//  605  *
//  606  * @brief   An NV item is created and initialized with the data passed to the function, if any.
//  607  *
//  608  * @param   id  - Valid NV item Id.
//  609  * @param   len - Item data length.
//  610  * @param  *buf - Pointer to item initalization data. Set to NULL if none.
//  611  *
//  612  * @return  TRUE if item write and read back checksums ok; FALSE otherwise.
//  613  */

        RSEG BANKED_CODE:CODE:NOROOT(0)
//  614 static uint8 initItem( uint8 flag, uint16 id, uint16 len, void *buf )
initItem:
          CFI Block cfiBlock62 Using cfiCommon0
          CFI Function initItem
        CODE
//  615 {
        FUNCALL initItem, writeItem
        LOCFRAME ISTACK, 0, STACK
        LOCFRAME PSTACK, 0, STACK
        LOCFRAME XSTACK, 18, STACK
        LOCFRAME IOVERLAY, 0, STATIC
        LOCFRAME DOVERLAY, 0, STATIC
        ARGFRAME ISTACK, 0, STACK
        ARGFRAME PSTACK, 0, STACK
        ARGFRAME XSTACK, 18, STACK
        ARGFRAME IOVERLAY, 0, STATIC
        ARGFRAME DOVERLAY, 0, STATIC
        FUNCALL initItem, compactPage
        LOCFRAME ISTACK, 0, STACK
        LOCFRAME PSTACK, 0, STACK
        LOCFRAME XSTACK, 15, STACK
        LOCFRAME IOVERLAY, 0, STATIC
        LOCFRAME DOVERLAY, 0, STATIC
        ARGFRAME ISTACK, 0, STACK
        ARGFRAME PSTACK, 0, STACK
        ARGFRAME XSTACK, 15, STACK
        ARGFRAME IOVERLAY, 0, STATIC
        ARGFRAME DOVERLAY, 0, STATIC
        MOV     A,#-0xf
        LCALL   ?BANKED_ENTER_XDATA
          CFI DPH0 load(1, XDATA, add(CFA_XSP16, literal(-1)))
          CFI DPL0 load(1, XDATA, add(CFA_XSP16, literal(-2)))
          CFI ?BRET_EXT load(1, XDATA, add(CFA_XSP16, literal(-3)))
          CFI ?RET_HIGH load(1, XDATA, add(CFA_XSP16, literal(-4)))
          CFI ?RET_LOW load(1, XDATA, add(CFA_XSP16, literal(-5)))
          CFI R7 load(1, XDATA, add(CFA_XSP16, literal(-6)))
          CFI V6 load(1, XDATA, add(CFA_XSP16, literal(-7)))
          CFI V5 load(1, XDATA, add(CFA_XSP16, literal(-8)))
          CFI V4 load(1, XDATA, add(CFA_XSP16, literal(-9)))
          CFI V3 load(1, XDATA, add(CFA_XSP16, literal(-10)))
          CFI V2 load(1, XDATA, add(CFA_XSP16, literal(-11)))
          CFI V1 load(1, XDATA, add(CFA_XSP16, literal(-12)))
          CFI V0 load(1, XDATA, add(CFA_XSP16, literal(-13)))
          CFI VB load(1, XDATA, add(CFA_XSP16, literal(-14)))
          CFI R6 load(1, XDATA, add(CFA_XSP16, literal(-15)))
          CFI CFA_SP SP+0
          CFI CFA_XSP16 add(XSP16, 15)
        ; Saved register size: 15
        ; Auto size: 0
        MOV     A,R1
        MOV     R7,A
//  616   uint16 sz = OSAL_NV_ITEM_SIZE( len );
        LCALL   ?Subroutine16 & 0xFFFF
??CrossCallReturnLabel_34:
        ADD     A,#0x8
        MOV     ?V0 + 2,A
        MOV     A,R1
        ADDC    A,#0x0
        MOV     ?V0 + 3,A
//  617   uint8 rtrn = FALSE;
        MOV     ?V0 + 1,#0x0
//  618   uint8 cnt = OSAL_NV_PAGES_USED;
        MOV     ?V0 + 6,#0x6
//  619   uint8 pg = pgRes+1;  // Set to 1 after the reserve page to even wear across all available pages.
        MOV     DPTR,#pgRes
        MOVX    A,@DPTR
        INC     A
        MOV     R6,A
//  620   uint8 idx = 0;
//  621 
//  622   do {
//  623     if (pg >= OSAL_NV_PAGE_BEG+OSAL_NV_PAGES_USED)
??initItem_0:
        MOV     A,R6
        CLR     C
        SUBB    A,#0x7f
        JC      ??initItem_1
//  624     {
//  625       pg = OSAL_NV_PAGE_BEG;
        MOV     R6,#0x79
//  626     }
//  627     if ( pg != pgRes )
??initItem_1:
        MOV     DPTR,#pgRes
        MOVX    A,@DPTR
        XRL     A,R6
        JZ      ??initItem_2
//  628     {
//  629       idx = pg - OSAL_NV_PAGE_BEG;
        MOV     A,#-0x79
        ADD     A,R6
        MOV     ?V0 + 0,A
//  630       if ( (pgOff[idx] - pgLost[idx] + sz) <= OSAL_NV_PAGE_FREE )
        CLR     C
        RLC     A
        MOV     R0,A
        CLR     A
        RLC     A
        MOV     R1,A
        MOV     A,#pgOff & 0xff
        ADD     A,R0
        MOV     DPL,A
        MOV     A,#(pgOff >> 8) & 0xff
        ADDC    A,R1
        MOV     DPH,A
        MOVX    A,@DPTR
        MOV     ?V0 + 4,A
        INC     DPTR
        MOVX    A,@DPTR
        MOV     ?V0 + 5,A
        MOV     A,#pgLost & 0xff
        ADD     A,R0
        MOV     DPL,A
        MOV     A,#(pgLost >> 8) & 0xff
        ADDC    A,R1
        MOV     DPH,A
        LCALL   ?Subroutine12 & 0xFFFF
//  631       {
//  632         break;
//  633       }
//  634     }
??CrossCallReturnLabel_17:
        MOV     A,?V0 + 4
        CLR     C
        SUBB    A,R0
        MOV     R0,A
        MOV     A,?V0 + 5
        SUBB    A,R1
        MOV     R1,A
        MOV     A,R0
        ADD     A,?V0 + 2
        MOV     R0,A
        MOV     A,R1
        LCALL   ?Subroutine19 & 0xFFFF
??CrossCallReturnLabel_39:
        JC      ??initItem_3
//  635     pg++;
??initItem_2:
        INC     R6
//  636   } while (--cnt);
        DEC     ?V0 + 6
        MOV     A,?V0 + 6
        JNZ     ??initItem_0
        SJMP    ??initItem_4
//  637 
//  638   if (cnt)
??initItem_3:
        MOV     A,?V0 + 6
        JZ      ??initItem_4
//  639   {
//  640     // Item fits if an old page is compacted.
//  641     if ( (pgOff[idx] + sz) > OSAL_NV_PAGE_FREE )
        MOV     A,?V0 + 4
        ADD     A,?V0 + 2
        MOV     R0,A
        MOV     A,?V0 + 5
        LCALL   ?Subroutine19 & 0xFFFF
??CrossCallReturnLabel_40:
        JC      ??initItem_5
//  642     {
//  643       pg = pgRes;
        MOV     DPTR,#pgRes
        MOVX    A,@DPTR
        MOV     R6,A
??initItem_5:
        MOV     A,#0xf
        LCALL   ?XSTACK_DISP0_8
//  644     }
        LCALL   ?Subroutine9 & 0xFFFF
//  645 
//  646     // New item is the first one written to the reserved page, then the old page is compacted.
//  647     rtrn = writeItem( pg, id, len, buf, flag );
??CrossCallReturnLabel_6:
        ; Setup parameters for call to function writeItem
        MOV     A,R7
        MOV     ?V0 + 1,A
        MOV     R0,#?V0 + 1
        LCALL   ?PUSH_XSTACK_I_ONE
          CFI CFA_XSP16 add(XSP16, 16)
        MOV     R0,#?V0 + 2
        LCALL   ?PUSH_XSTACK_I_TWO
          CFI CFA_XSP16 add(XSP16, 18)
        MOV     A,R6
        MOV     R1,A
        LCALL   ??writeItem?relay
        MOV     A,#0x3
        LCALL   ?DEALLOC_XSTACK8
          CFI CFA_XSP16 add(XSP16, 15)
        MOV     A,R1
        MOV     ?V0 + 1,A
//  648 
//  649     if ( pg == pgRes )
        MOV     DPTR,#pgRes
        MOVX    A,@DPTR
        XRL     A,R6
        JNZ     ??initItem_4
//  650     {
//  651       if ( flag )
        MOV     A,#0x79
        ADD     A,?V0 + 0
        MOV     R1,A
        MOV     A,R7
        JZ      ??initItem_6
//  652       {
//  653         compactPage( OSAL_NV_PAGE_BEG+idx );
        ; Setup parameters for call to function compactPage
        LCALL   ??compactPage?relay
        SJMP    ??initItem_4
//  654       }
//  655       else
//  656       {
//  657         *(uint8 *)buf = OSAL_NV_PAGE_BEG+idx;
??initItem_6:
        MOV     A,R1
        MOV     DPL,?V0 + 2
        MOV     DPH,?V0 + 3
        MOVX    @DPTR,A
//  658       }
//  659     }
//  660   }
//  661 
//  662   return rtrn;
??initItem_4:
        MOV     R1,?V0 + 1
        MOV     R7,#0x7
        LJMP    ?BANKED_LEAVE_XDATA
          CFI EndBlock cfiBlock62
//  663 }

        RSEG BANKED_CODE:CODE:NOROOT(0)
?Subroutine19:
          CFI Block cfiCond63 Using cfiCommon0
          CFI Function initItem
          CFI Conditional ??CrossCallReturnLabel_39
          CFI R6 load(1, XDATA, add(CFA_XSP16, literal(-15)))
          CFI VB load(1, XDATA, add(CFA_XSP16, literal(-14)))
          CFI V0 load(1, XDATA, add(CFA_XSP16, literal(-13)))
          CFI V1 load(1, XDATA, add(CFA_XSP16, literal(-12)))
          CFI V2 load(1, XDATA, add(CFA_XSP16, literal(-11)))
          CFI V3 load(1, XDATA, add(CFA_XSP16, literal(-10)))
          CFI V4 load(1, XDATA, add(CFA_XSP16, literal(-9)))
          CFI V5 load(1, XDATA, add(CFA_XSP16, literal(-8)))
          CFI V6 load(1, XDATA, add(CFA_XSP16, literal(-7)))
          CFI R7 load(1, XDATA, add(CFA_XSP16, literal(-6)))
          CFI ?RET_LOW load(1, XDATA, add(CFA_XSP16, literal(-5)))
          CFI ?RET_HIGH load(1, XDATA, add(CFA_XSP16, literal(-4)))
          CFI ?BRET_EXT load(1, XDATA, add(CFA_XSP16, literal(-3)))
          CFI DPL0 load(1, XDATA, add(CFA_XSP16, literal(-2)))
          CFI DPH0 load(1, XDATA, add(CFA_XSP16, literal(-1)))
          CFI CFA_SP SP+0
          CFI CFA_XSP16 add(XSP16, 15)
          CFI Block cfiCond64 Using cfiCommon0
          CFI (cfiCond64) Function initItem
          CFI (cfiCond64) Conditional ??CrossCallReturnLabel_40
          CFI (cfiCond64) R6 load(1, XDATA, add(CFA_XSP16, literal(-15)))
          CFI (cfiCond64) VB load(1, XDATA, add(CFA_XSP16, literal(-14)))
          CFI (cfiCond64) V0 load(1, XDATA, add(CFA_XSP16, literal(-13)))
          CFI (cfiCond64) V1 load(1, XDATA, add(CFA_XSP16, literal(-12)))
          CFI (cfiCond64) V2 load(1, XDATA, add(CFA_XSP16, literal(-11)))
          CFI (cfiCond64) V3 load(1, XDATA, add(CFA_XSP16, literal(-10)))
          CFI (cfiCond64) V4 load(1, XDATA, add(CFA_XSP16, literal(-9)))
          CFI (cfiCond64) V5 load(1, XDATA, add(CFA_XSP16, literal(-8)))
          CFI (cfiCond64) V6 load(1, XDATA, add(CFA_XSP16, literal(-7)))
          CFI (cfiCond64) R7 load(1, XDATA, add(CFA_XSP16, literal(-6)))
          CFI (cfiCond64) ?RET_LOW load(1, XDATA, add(CFA_XSP16, literal(-5)))
          CFI (cfiCond64) ?RET_HIGH load(1, XDATA, add(CFA_XSP16, literal(-4)))
          CFI (cfiCond64) ?BRET_EXT load(1, XDATA, add(CFA_XSP16, literal(-3)))
          CFI (cfiCond64) DPL0 load(1, XDATA, add(CFA_XSP16, literal(-2)))
          CFI (cfiCond64) DPH0 load(1, XDATA, add(CFA_XSP16, literal(-1)))
          CFI (cfiCond64) CFA_SP SP+0
          CFI (cfiCond64) CFA_XSP16 add(XSP16, 15)
          CFI Block cfiPicker65 Using cfiCommon1
          CFI (cfiPicker65) NoFunction
          CFI (cfiPicker65) Picker
        ADDC    A,?V0 + 3
        MOV     R1,A
        CLR     C
        MOV     A,R0
        SUBB    A,#0x1
        MOV     A,R1
        SUBB    A,#0x8
        RET
          CFI EndBlock cfiCond63
          CFI EndBlock cfiCond64
          CFI EndBlock cfiPicker65
//  664 
//  665 /*********************************************************************
//  666  * @fn      setItem
//  667  *
//  668  * @brief   Set an item Id or status to mark its state.
//  669  *
//  670  * @param   pg - Valid NV page.
//  671  * @param   offset - Valid offset into the page of the item data - the header
//  672  *                   offset is calculated from this.
//  673  * @param   stat - Valid enum value for the item status.
//  674  *
//  675  * @return  none
//  676  */

        RSEG BANKED_CODE:CODE:NOROOT(0)
//  677 static void setItem( uint8 pg, uint16 offset, eNvHdrEnum stat )
setItem:
          CFI Block cfiBlock66 Using cfiCommon0
          CFI Function setItem
        CODE
//  678 {
        FUNCALL setItem, HalFlashRead
        LOCFRAME ISTACK, 0, STACK
        LOCFRAME PSTACK, 0, STACK
        LOCFRAME XSTACK, 24, STACK
        LOCFRAME IOVERLAY, 0, STATIC
        LOCFRAME DOVERLAY, 0, STATIC
        ARGFRAME ISTACK, 0, STACK
        ARGFRAME PSTACK, 0, STACK
        ARGFRAME XSTACK, 24, STACK
        ARGFRAME IOVERLAY, 0, STATIC
        ARGFRAME DOVERLAY, 0, STATIC
        FUNCALL setItem, writeWord
        LOCFRAME ISTACK, 0, STACK
        LOCFRAME PSTACK, 0, STACK
        LOCFRAME XSTACK, 22, STACK
        LOCFRAME IOVERLAY, 0, STATIC
        LOCFRAME DOVERLAY, 0, STATIC
        ARGFRAME ISTACK, 0, STACK
        ARGFRAME PSTACK, 0, STACK
        ARGFRAME XSTACK, 22, STACK
        ARGFRAME IOVERLAY, 0, STATIC
        ARGFRAME DOVERLAY, 0, STATIC
        FUNCALL setItem, writeWord
        LOCFRAME ISTACK, 0, STACK
        LOCFRAME PSTACK, 0, STACK
        LOCFRAME XSTACK, 22, STACK
        LOCFRAME IOVERLAY, 0, STATIC
        LOCFRAME DOVERLAY, 0, STATIC
        ARGFRAME ISTACK, 0, STACK
        ARGFRAME PSTACK, 0, STACK
        ARGFRAME XSTACK, 22, STACK
        ARGFRAME IOVERLAY, 0, STATIC
        ARGFRAME DOVERLAY, 0, STATIC
        MOV     A,#-0xe
        LCALL   ?BANKED_ENTER_XDATA
          CFI DPH0 load(1, XDATA, add(CFA_XSP16, literal(-1)))
          CFI DPL0 load(1, XDATA, add(CFA_XSP16, literal(-2)))
          CFI ?BRET_EXT load(1, XDATA, add(CFA_XSP16, literal(-3)))
          CFI ?RET_HIGH load(1, XDATA, add(CFA_XSP16, literal(-4)))
          CFI ?RET_LOW load(1, XDATA, add(CFA_XSP16, literal(-5)))
          CFI R7 load(1, XDATA, add(CFA_XSP16, literal(-6)))
          CFI V5 load(1, XDATA, add(CFA_XSP16, literal(-7)))
          CFI V4 load(1, XDATA, add(CFA_XSP16, literal(-8)))
          CFI V3 load(1, XDATA, add(CFA_XSP16, literal(-9)))
          CFI V2 load(1, XDATA, add(CFA_XSP16, literal(-10)))
          CFI V1 load(1, XDATA, add(CFA_XSP16, literal(-11)))
          CFI V0 load(1, XDATA, add(CFA_XSP16, literal(-12)))
          CFI VB load(1, XDATA, add(CFA_XSP16, literal(-13)))
          CFI R6 load(1, XDATA, add(CFA_XSP16, literal(-14)))
          CFI CFA_SP SP+0
          CFI CFA_XSP16 add(XSP16, 14)
        ; Saved register size: 14
        ; Auto size: 8
        MOV     A,#-0x8
        LCALL   ?ALLOC_XSTACK8
          CFI CFA_XSP16 add(XSP16, 22)
        MOV     ?V0 + 1,R1
        MOV     ?V0 + 0,R4
//  679   osalNvHdr_t hdr;
//  680 
//  681   offset -= OSAL_NV_HDR_SIZE;
        MOV     A,R2
        ADD     A,#-0x8
        MOV     ?V0 + 2,A
        MOV     A,R3
        ADDC    A,#-0x1
        MOV     ?V0 + 3,A
//  682   HalFlashRead(pg, offset, (uint8 *)(&hdr), OSAL_NV_HDR_SIZE);
        ; Setup parameters for call to function HalFlashRead
        MOV     ?V0 + 4,#0x8
        MOV     ?V0 + 5,#0x0
        MOV     R0,#?V0 + 4
        LCALL   ?PUSH_XSTACK_I_TWO
          CFI CFA_XSP16 add(XSP16, 24)
        MOV     A,#0x2
        LCALL   ?XSTACK_DISP0_8
        MOV     R4,DPL
        MOV     R5,DPH
        MOV     R2,?V0 + 2
        MOV     R3,?V0 + 3
        LCALL   ??HalFlashRead?relay
        MOV     A,#0x2
        LCALL   ?DEALLOC_XSTACK8
          CFI CFA_XSP16 add(XSP16, 22)
//  683 
//  684   if ( stat == eNvXfer )
        MOV     A,?V0 + 0
        JNZ     ??setItem_0
//  685   {
//  686     hdr.stat = OSAL_NV_ACTIVE;
        MOV     A,#0x6
        LCALL   ?XSTACK_DISP0_8
        CLR     A
        MOVX    @DPTR,A
        INC     DPTR
        MOVX    @DPTR,A
//  687     writeWord( pg, offset+OSAL_NV_HDR_CHK, (uint8*)(&(hdr.chk)) );
        ; Setup parameters for call to function writeWord
        MOV     A,#0x4
        LCALL   ?XSTACK_DISP0_8
        MOV     R4,DPL
        MOV     R5,DPH
        MOV     A,?V0 + 2
        ADD     A,#0x4
        MOV     R2,A
        MOV     A,?V0 + 3
        ADDC    A,#0x0
        MOV     R3,A
        MOV     R1,?V0 + 1
        LCALL   ??writeWord?relay
        SJMP    ??setItem_1
//  688 }
//  689   else // if ( stat == eNvZero )
//  690   {
//  691     uint16 sz = ((hdr.len + (OSAL_NV_WORD_SIZE-1)) / OSAL_NV_WORD_SIZE) * OSAL_NV_WORD_SIZE +
//  692                                                                           OSAL_NV_HDR_SIZE;
??setItem_0:
        MOV     A,#0x2
        LCALL   ?XSTACK_DISP0_8
        LCALL   ?Subroutine10 & 0xFFFF
??CrossCallReturnLabel_10:
        MOV     R6,A
        MOV     A,R1
        ADDC    A,#0x0
        MOV     R7,A
//  693     hdr.id = 0;
        LCALL   ?Subroutine4 & 0xFFFF
//  694     writeWord( pg, offset, (uint8 *)(&hdr) );
??CrossCallReturnLabel_64:
        MOV     R2,?V0 + 2
        MOV     R3,?V0 + 3
        MOV     R1,?V0 + 1
        LCALL   ??writeWord?relay
//  695     pgLost[pg-OSAL_NV_PAGE_BEG] += sz;
        MOV     A,?V0 + 1
        CLR     C
        RLC     A
        MOV     R0,A
        CLR     A
        RLC     A
        MOV     R1,A
        LCALL   ?Subroutine27 & 0xFFFF
//  696   }
??CrossCallReturnLabel_56:
        MOVX    A,@DPTR
        ADD     A,R6
        MOVX    @DPTR,A
        INC     DPTR
        MOVX    A,@DPTR
        ADDC    A,R7
        MOVX    @DPTR,A
//  697 }
??setItem_1:
        MOV     A,#0x8
        LJMP    ?Subroutine3 & 0xFFFF
          CFI EndBlock cfiBlock66
//  698 
//  699 /*********************************************************************
//  700  * @fn      calcChkB
//  701  *
//  702  * @brief   Calculates the data checksum over the 'buf' parameter.
//  703  *
//  704  * @param   pg - A valid NV Flash page.
//  705  * @param   offset - A valid offset into the page.
//  706  * @param   len - Byte count of the data to be checksummed.
//  707  *
//  708  * @return  Calculated checksum of the data bytes.
//  709  */
//  710 static uint16 calcChkB( uint16 len, uint8 *buf )
//  711 {
//  712   uint8 fill = len % OSAL_NV_WORD_SIZE;
//  713   uint16 chk;
//  714 
//  715   if ( !buf )
//  716   {
//  717     chk = len * OSAL_NV_ERASED;
//  718   }
//  719   else
//  720   {
//  721     chk = 0;
//  722     while ( len-- )
//  723     {
//  724       chk += *buf++;
//  725     }
//  726   }
//  727 
//  728   // calcChkF() will calculate over OSAL_NV_WORD_SIZE alignment.
//  729   if ( fill )
//  730   {
//  731     chk += (OSAL_NV_WORD_SIZE - fill) * OSAL_NV_ERASED;
//  732   }
//  733 
//  734   return chk;
//  735 }
//  736 
//  737 /*********************************************************************
//  738  * @fn      calcChkF
//  739  *
//  740  * @brief   Calculates the data checksum by reading the data bytes from NV.
//  741  *
//  742  * @param   pg - A valid NV Flash page.
//  743  * @param   offset - A valid offset into the page.
//  744  * @param   len - Byte count of the data to be checksummed.
//  745  *
//  746  * @return  Calculated checksum of the data bytes.
//  747  */

        RSEG BANKED_CODE:CODE:NOROOT(0)
//  748 static uint16 calcChkF( byte pg, uint16 offset, uint16 len )
calcChkF:
          CFI Block cfiBlock67 Using cfiCommon0
          CFI Function calcChkF
        CODE
//  749 {
        FUNCALL calcChkF, HalFlashRead
        LOCFRAME ISTACK, 0, STACK
        LOCFRAME PSTACK, 0, STACK
        LOCFRAME XSTACK, 22, STACK
        LOCFRAME IOVERLAY, 0, STATIC
        LOCFRAME DOVERLAY, 0, STATIC
        ARGFRAME ISTACK, 0, STACK
        ARGFRAME PSTACK, 0, STACK
        ARGFRAME XSTACK, 22, STACK
        ARGFRAME IOVERLAY, 0, STATIC
        ARGFRAME DOVERLAY, 0, STATIC
        MOV     A,#-0x10
        LCALL   ?BANKED_ENTER_XDATA
          CFI DPH0 load(1, XDATA, add(CFA_XSP16, literal(-1)))
          CFI DPL0 load(1, XDATA, add(CFA_XSP16, literal(-2)))
          CFI ?BRET_EXT load(1, XDATA, add(CFA_XSP16, literal(-3)))
          CFI ?RET_HIGH load(1, XDATA, add(CFA_XSP16, literal(-4)))
          CFI ?RET_LOW load(1, XDATA, add(CFA_XSP16, literal(-5)))
          CFI R7 load(1, XDATA, add(CFA_XSP16, literal(-6)))
          CFI V7 load(1, XDATA, add(CFA_XSP16, literal(-7)))
          CFI V6 load(1, XDATA, add(CFA_XSP16, literal(-8)))
          CFI V5 load(1, XDATA, add(CFA_XSP16, literal(-9)))
          CFI V4 load(1, XDATA, add(CFA_XSP16, literal(-10)))
          CFI V3 load(1, XDATA, add(CFA_XSP16, literal(-11)))
          CFI V2 load(1, XDATA, add(CFA_XSP16, literal(-12)))
          CFI V1 load(1, XDATA, add(CFA_XSP16, literal(-13)))
          CFI V0 load(1, XDATA, add(CFA_XSP16, literal(-14)))
          CFI VB load(1, XDATA, add(CFA_XSP16, literal(-15)))
          CFI R6 load(1, XDATA, add(CFA_XSP16, literal(-16)))
          CFI CFA_SP SP+0
          CFI CFA_XSP16 add(XSP16, 16)
        ; Saved register size: 16
        ; Auto size: 4
        MOV     A,#-0x4
        LCALL   ?ALLOC_XSTACK8
          CFI CFA_XSP16 add(XSP16, 20)
        MOV     ?V0 + 4,R1
        MOV     ?V0 + 2,R2
        MOV     ?V0 + 3,R3
        MOV     A,R4
        MOV     R6,A
        MOV     A,R5
        MOV     R7,A
//  750   uint16 chk = 0;
        MOV     ?V0 + 0,#0x0
        MOV     ?V0 + 1,#0x0
//  751 
//  752   len = (len + (OSAL_NV_WORD_SIZE-1)) / OSAL_NV_WORD_SIZE;
        MOV     A,R6
        ADD     A,#0x3
        MOV     ?V0 + 6,A
        MOV     A,R7
        ADDC    A,#0x0
        MOV     ?V0 + 7,A
        MOV     A,#0x2
        MOV     R0,#?V0 + 6
        LCALL   ?US_SHR
        MOV     R6,?V0 + 6
        MOV     R7,?V0 + 7
//  753 
//  754   while ( len-- )
??calcChkF_0:
        LCALL   ?Subroutine24 & 0xFFFF
??CrossCallReturnLabel_50:
        JZ      ??calcChkF_1
//  755   {
//  756     uint8 cnt, tmp[OSAL_NV_WORD_SIZE];
//  757 
//  758     HalFlashRead(pg, offset, tmp, OSAL_NV_WORD_SIZE);
        ; Setup parameters for call to function HalFlashRead
        MOV     ?V0 + 6,#0x4
        MOV     ?V0 + 7,#0x0
        MOV     R0,#?V0 + 6
        LCALL   ?PUSH_XSTACK_I_TWO
          CFI CFA_XSP16 add(XSP16, 22)
        MOV     A,#0x2
        LCALL   ?XSTACK_DISP0_8
        MOV     R4,DPL
        MOV     R5,DPH
        MOV     R2,?V0 + 2
        MOV     R3,?V0 + 3
        MOV     R1,?V0 + 4
        LCALL   ??HalFlashRead?relay
        MOV     A,#0x2
        LCALL   ?DEALLOC_XSTACK8
          CFI CFA_XSP16 add(XSP16, 20)
//  759     offset += OSAL_NV_WORD_SIZE;
        MOV     A,?V0 + 2
        ADD     A,#0x4
        MOV     ?V0 + 2,A
        MOV     A,?V0 + 3
        ADDC    A,#0x0
        MOV     ?V0 + 3,A
//  760 
//  761     for ( cnt = 0; cnt < OSAL_NV_WORD_SIZE; cnt++ )
        MOV     R0,#0x0
//  762     {
//  763       chk += tmp[cnt];
??calcChkF_2:
        MOV     ?V0 + 6,R0
        LCALL   ?Subroutine23 & 0xFFFF
//  764     }
??CrossCallReturnLabel_48:
        MOVX    A,@DPTR
        MOV     R2,A
        MOV     A,?V0 + 0
        ADD     A,R2
        MOV     ?V0 + 0,A
        MOV     A,?V0 + 1
        ADDC    A,#0x0
        MOV     ?V0 + 1,A
        INC     R0
        MOV     A,R0
        CLR     C
        SUBB    A,#0x4
        JNC     ??calcChkF_0
        SJMP    ??calcChkF_2
//  765   }
//  766 
//  767   return chk;
??calcChkF_1:
        MOV     R2,?V0 + 0
        MOV     R3,?V0 + 1
        MOV     A,#0x4
        LCALL   ?DEALLOC_XSTACK8
          CFI CFA_XSP16 add(XSP16, 16)
        MOV     R7,#0x8
        LJMP    ?BANKED_LEAVE_XDATA
          CFI EndBlock cfiBlock67
//  768 }
//  769 
//  770 /*********************************************************************
//  771  * @fn      writeWord
//  772  *
//  773  * @brief   Writes a Flash-WORD to NV.
//  774  *
//  775  * @param   pg - A valid NV Flash page.
//  776  * @param   offset - A valid offset into the page.
//  777  * @param   buf - Pointer to source buffer.
//  778  *
//  779  * @return  none
//  780  */

        RSEG BANKED_CODE:CODE:NOROOT(0)
//  781 static void writeWord( uint8 pg, uint16 offset, uint8 *buf )
writeWord:
          CFI Block cfiBlock68 Using cfiCommon0
          CFI Function writeWord
        CODE
//  782 {
        FUNCALL writeWord, HalAdcCheckVdd
        LOCFRAME ISTACK, 0, STACK
        LOCFRAME PSTACK, 0, STACK
        LOCFRAME XSTACK, 13, STACK
        LOCFRAME IOVERLAY, 0, STATIC
        LOCFRAME DOVERLAY, 0, STATIC
        ARGFRAME ISTACK, 0, STACK
        ARGFRAME PSTACK, 0, STACK
        ARGFRAME XSTACK, 13, STACK
        ARGFRAME IOVERLAY, 0, STATIC
        ARGFRAME DOVERLAY, 0, STATIC
        FUNCALL writeWord, HalFlashWrite
        LOCFRAME ISTACK, 0, STACK
        LOCFRAME PSTACK, 0, STACK
        LOCFRAME XSTACK, 15, STACK
        LOCFRAME IOVERLAY, 0, STATIC
        LOCFRAME DOVERLAY, 0, STATIC
        ARGFRAME ISTACK, 0, STACK
        ARGFRAME PSTACK, 0, STACK
        ARGFRAME XSTACK, 15, STACK
        ARGFRAME IOVERLAY, 0, STATIC
        ARGFRAME DOVERLAY, 0, STATIC
        MOV     A,#-0xd
        LCALL   ?BANKED_ENTER_XDATA
          CFI DPH0 load(1, XDATA, add(CFA_XSP16, literal(-1)))
          CFI DPL0 load(1, XDATA, add(CFA_XSP16, literal(-2)))
          CFI ?BRET_EXT load(1, XDATA, add(CFA_XSP16, literal(-3)))
          CFI ?RET_HIGH load(1, XDATA, add(CFA_XSP16, literal(-4)))
          CFI ?RET_LOW load(1, XDATA, add(CFA_XSP16, literal(-5)))
          CFI R7 load(1, XDATA, add(CFA_XSP16, literal(-6)))
          CFI V4 load(1, XDATA, add(CFA_XSP16, literal(-7)))
          CFI V3 load(1, XDATA, add(CFA_XSP16, literal(-8)))
          CFI V2 load(1, XDATA, add(CFA_XSP16, literal(-9)))
          CFI V1 load(1, XDATA, add(CFA_XSP16, literal(-10)))
          CFI V0 load(1, XDATA, add(CFA_XSP16, literal(-11)))
          CFI VB load(1, XDATA, add(CFA_XSP16, literal(-12)))
          CFI R6 load(1, XDATA, add(CFA_XSP16, literal(-13)))
          CFI CFA_SP SP+0
          CFI CFA_XSP16 add(XSP16, 13)
        ; Saved register size: 13
        ; Auto size: 0
        MOV     ?V0 + 4,R1
        MOV     ?V0 + 0,R2
        MOV     ?V0 + 1,R3
        MOV     A,R4
        MOV     R6,A
        MOV     A,R5
        MOV     R7,A
//  783   offset = (offset >> 2) + ((uint16)pg << 9);
//  784 
//  785   if ( OSAL_NV_CHECK_BUS_VOLTAGE )
        ; Setup parameters for call to function HalAdcCheckVdd
        MOV     R1,#0x4
        LCALL   ??HalAdcCheckVdd?relay
        MOV     A,R1
        JZ      ??writeWord_0
//  786   {
//  787     HalFlashWrite(offset, buf, 1);
        ; Setup parameters for call to function HalFlashWrite
        MOV     ?V0 + 2,#0x1
        MOV     ?V0 + 3,#0x0
        MOV     R0,#?V0 + 2
        LCALL   ?PUSH_XSTACK_I_TWO
          CFI CFA_XSP16 add(XSP16, 15)
        MOV     A,R6
        MOV     R4,A
        MOV     A,R7
        MOV     R5,A
        MOV     A,#0x2
        MOV     R0,#?V0 + 0
        LCALL   ?US_SHR
        MOV     ?V0 + 2,?V0 + 4
        MOV     A,#0x9
        MOV     R0,#?V0 + 2
        LCALL   ?S_SHL
        MOV     A,?V0 + 0
        ADD     A,#0x0
        MOV     R2,A
        MOV     A,?V0 + 1
        ADDC    A,?V0 + 3
        MOV     R3,A
        LCALL   ??HalFlashWrite?relay
        MOV     A,#0x2
        LCALL   ?DEALLOC_XSTACK8
          CFI CFA_XSP16 add(XSP16, 13)
        SJMP    ??writeWord_1
//  788   }
//  789   else
//  790   {
//  791     failF = TRUE;
??writeWord_0:
        MOV     DPTR,#failF
        MOV     A,#0x1
        MOVX    @DPTR,A
//  792   }
//  793 }
??writeWord_1:
        MOV     R7,#0x5
        LJMP    ?BANKED_LEAVE_XDATA
          CFI EndBlock cfiBlock68
//  794 
//  795 /*********************************************************************
//  796  * @fn      writeWordM
//  797  *
//  798  * @brief   Writes multiple Flash-WORDs to NV.
//  799  *
//  800  * @param   pg - A valid NV Flash page.
//  801  * @param   offset - A valid offset into the page.
//  802  * @param   buf - Pointer to source buffer.
//  803  * @param   cnt - Number of 4-byte blocks to write.
//  804  *
//  805  * @return  none
//  806  */
//  807 static void writeWordM( uint8 pg, uint16 offset, uint8 *buf, uint16 cnt )
//  808 {
//  809   offset = (offset >> 2) + ((uint16)pg << 9);
//  810 
//  811   if ( OSAL_NV_CHECK_BUS_VOLTAGE )
//  812   {
//  813     HalFlashWrite(offset, buf, cnt);
//  814   }
//  815   else
//  816   {
//  817     failF = TRUE;
//  818   }
//  819 }
//  820 
//  821 /*********************************************************************
//  822  * @fn      writeWordH
//  823  *
//  824  * @brief   Writes the 1st half of a Flash-WORD to NV (filling 2nd half with 0xffff).
//  825  *
//  826  * @param   pg - A valid NV Flash page.
//  827  * @param   offset - A valid offset into the page.
//  828  * @param   buf - Pointer to source buffer.
//  829  *
//  830  * @return  none
//  831  */

        RSEG BANKED_CODE:CODE:NOROOT(0)
//  832 static void writeWordH( uint8 pg, uint16 offset, uint8 *buf )
writeWordH:
          CFI Block cfiBlock69 Using cfiCommon0
          CFI Function writeWordH
        CODE
//  833 {
        FUNCALL writeWordH, writeWord
        LOCFRAME ISTACK, 0, STACK
        LOCFRAME PSTACK, 0, STACK
        LOCFRAME XSTACK, 13, STACK
        LOCFRAME IOVERLAY, 0, STATIC
        LOCFRAME DOVERLAY, 0, STATIC
        ARGFRAME ISTACK, 0, STACK
        ARGFRAME PSTACK, 0, STACK
        ARGFRAME XSTACK, 13, STACK
        ARGFRAME IOVERLAY, 0, STATIC
        ARGFRAME DOVERLAY, 0, STATIC
        MOV     A,#-0x9
        LCALL   ?BANKED_ENTER_XDATA
          CFI DPH0 load(1, XDATA, add(CFA_XSP16, literal(-1)))
          CFI DPL0 load(1, XDATA, add(CFA_XSP16, literal(-2)))
          CFI ?BRET_EXT load(1, XDATA, add(CFA_XSP16, literal(-3)))
          CFI ?RET_HIGH load(1, XDATA, add(CFA_XSP16, literal(-4)))
          CFI ?RET_LOW load(1, XDATA, add(CFA_XSP16, literal(-5)))
          CFI R7 load(1, XDATA, add(CFA_XSP16, literal(-6)))
          CFI V0 load(1, XDATA, add(CFA_XSP16, literal(-7)))
          CFI VB load(1, XDATA, add(CFA_XSP16, literal(-8)))
          CFI R6 load(1, XDATA, add(CFA_XSP16, literal(-9)))
          CFI CFA_SP SP+0
          CFI CFA_XSP16 add(XSP16, 9)
        ; Saved register size: 9
        ; Auto size: 4
        MOV     A,#-0x4
        LCALL   ?ALLOC_XSTACK8
          CFI CFA_XSP16 add(XSP16, 13)
//  834   uint8 tmp[4];
//  835 
//  836   tmp[0] = buf[0];
        MOV     DPL,R4
        MOV     DPH,R5
        MOVX    A,@DPTR
        MOV     DPL,?XSP + 0
        MOV     DPH,?XSP + 1
        MOVX    @DPTR,A
//  837   tmp[1] = buf[1];
        MOV     DPL,R4
        MOV     DPH,R5
        INC     DPTR
        MOVX    A,@DPTR
        PUSH    A
          CFI CFA_SP SP+-1
        MOV     A,#0x1
        LCALL   ?XSTACK_DISP0_8
        POP     A
          CFI CFA_SP SP+0
        MOVX    @DPTR,A
//  838   tmp[2] = OSAL_NV_ERASED;
        MOV     A,#0x2
        LCALL   ?XSTACK_DISP0_8
        MOV     A,#-0x1
        MOVX    @DPTR,A
//  839   tmp[3] = OSAL_NV_ERASED;
        MOV     A,#0x3
        LCALL   ?XSTACK_DISP0_8
        MOV     A,#-0x1
        LCALL   ??Subroutine31_0 & 0xFFFF
//  840 
//  841   writeWord( pg, offset, tmp );
??CrossCallReturnLabel_66:
        LCALL   ??writeWord?relay
//  842 }
        MOV     A,#0x4
        LJMP    ?Subroutine1 & 0xFFFF
          CFI EndBlock cfiBlock69
//  843 
//  844 /*********************************************************************
//  845  * @fn      writeBuf
//  846  *
//  847  * @brief   Writes a data buffer to NV.
//  848  *
//  849  * @param   dstPg - A valid NV Flash page.
//  850  * @param   offset - A valid offset into the page.
//  851  * @param   len  - Byte count of the data to write.
//  852  * @param   buf  - The data to write.
//  853  *
//  854  * @return  TRUE if data buf checksum matches read back checksum, else FALSE.
//  855  */

        RSEG BANKED_CODE:CODE:NOROOT(0)
//  856 static void writeBuf( uint8 dstPg, uint16 dstOff, uint16 len, uint8 *buf )
writeBuf:
          CFI Block cfiBlock70 Using cfiCommon0
          CFI Function writeBuf
        CODE
//  857 {
        FUNCALL writeBuf, HalFlashRead
        LOCFRAME ISTACK, 0, STACK
        LOCFRAME PSTACK, 0, STACK
        LOCFRAME XSTACK, 24, STACK
        LOCFRAME IOVERLAY, 0, STATIC
        LOCFRAME DOVERLAY, 0, STATIC
        ARGFRAME ISTACK, 0, STACK
        ARGFRAME PSTACK, 0, STACK
        ARGFRAME XSTACK, 24, STACK
        ARGFRAME IOVERLAY, 0, STATIC
        ARGFRAME DOVERLAY, 0, STATIC
        FUNCALL writeBuf, writeWord
        LOCFRAME ISTACK, 0, STACK
        LOCFRAME PSTACK, 0, STACK
        LOCFRAME XSTACK, 22, STACK
        LOCFRAME IOVERLAY, 0, STATIC
        LOCFRAME DOVERLAY, 0, STATIC
        ARGFRAME ISTACK, 0, STACK
        ARGFRAME PSTACK, 0, STACK
        ARGFRAME XSTACK, 22, STACK
        ARGFRAME IOVERLAY, 0, STATIC
        ARGFRAME DOVERLAY, 0, STATIC
        FUNCALL writeBuf, HalAdcCheckVdd
        LOCFRAME ISTACK, 0, STACK
        LOCFRAME PSTACK, 0, STACK
        LOCFRAME XSTACK, 22, STACK
        LOCFRAME IOVERLAY, 0, STATIC
        LOCFRAME DOVERLAY, 0, STATIC
        ARGFRAME ISTACK, 0, STACK
        ARGFRAME PSTACK, 0, STACK
        ARGFRAME XSTACK, 22, STACK
        ARGFRAME IOVERLAY, 0, STATIC
        ARGFRAME DOVERLAY, 0, STATIC
        FUNCALL writeBuf, HalFlashWrite
        LOCFRAME ISTACK, 0, STACK
        LOCFRAME PSTACK, 0, STACK
        LOCFRAME XSTACK, 24, STACK
        LOCFRAME IOVERLAY, 0, STATIC
        LOCFRAME DOVERLAY, 0, STATIC
        ARGFRAME ISTACK, 0, STACK
        ARGFRAME PSTACK, 0, STACK
        ARGFRAME XSTACK, 24, STACK
        ARGFRAME IOVERLAY, 0, STATIC
        ARGFRAME DOVERLAY, 0, STATIC
        FUNCALL writeBuf, HalFlashRead
        LOCFRAME ISTACK, 0, STACK
        LOCFRAME PSTACK, 0, STACK
        LOCFRAME XSTACK, 24, STACK
        LOCFRAME IOVERLAY, 0, STATIC
        LOCFRAME DOVERLAY, 0, STATIC
        ARGFRAME ISTACK, 0, STACK
        ARGFRAME PSTACK, 0, STACK
        ARGFRAME XSTACK, 24, STACK
        ARGFRAME IOVERLAY, 0, STATIC
        ARGFRAME DOVERLAY, 0, STATIC
        FUNCALL writeBuf, writeWord
        LOCFRAME ISTACK, 0, STACK
        LOCFRAME PSTACK, 0, STACK
        LOCFRAME XSTACK, 22, STACK
        LOCFRAME IOVERLAY, 0, STATIC
        LOCFRAME DOVERLAY, 0, STATIC
        ARGFRAME ISTACK, 0, STACK
        ARGFRAME PSTACK, 0, STACK
        ARGFRAME XSTACK, 22, STACK
        ARGFRAME IOVERLAY, 0, STATIC
        ARGFRAME DOVERLAY, 0, STATIC
        MOV     A,#-0x12
        LCALL   ?BANKED_ENTER_XDATA
          CFI DPH0 load(1, XDATA, add(CFA_XSP16, literal(-1)))
          CFI DPL0 load(1, XDATA, add(CFA_XSP16, literal(-2)))
          CFI ?BRET_EXT load(1, XDATA, add(CFA_XSP16, literal(-3)))
          CFI ?RET_HIGH load(1, XDATA, add(CFA_XSP16, literal(-4)))
          CFI ?RET_LOW load(1, XDATA, add(CFA_XSP16, literal(-5)))
          CFI R7 load(1, XDATA, add(CFA_XSP16, literal(-6)))
          CFI V9 load(1, XDATA, add(CFA_XSP16, literal(-7)))
          CFI V8 load(1, XDATA, add(CFA_XSP16, literal(-8)))
          CFI V7 load(1, XDATA, add(CFA_XSP16, literal(-9)))
          CFI V6 load(1, XDATA, add(CFA_XSP16, literal(-10)))
          CFI V5 load(1, XDATA, add(CFA_XSP16, literal(-11)))
          CFI V4 load(1, XDATA, add(CFA_XSP16, literal(-12)))
          CFI V3 load(1, XDATA, add(CFA_XSP16, literal(-13)))
          CFI V2 load(1, XDATA, add(CFA_XSP16, literal(-14)))
          CFI V1 load(1, XDATA, add(CFA_XSP16, literal(-15)))
          CFI V0 load(1, XDATA, add(CFA_XSP16, literal(-16)))
          CFI VB load(1, XDATA, add(CFA_XSP16, literal(-17)))
          CFI R6 load(1, XDATA, add(CFA_XSP16, literal(-18)))
          CFI CFA_SP SP+0
          CFI CFA_XSP16 add(XSP16, 18)
        ; Saved register size: 18
        ; Auto size: 4
        MOV     A,#-0x4
        LCALL   ?ALLOC_XSTACK8
          CFI CFA_XSP16 add(XSP16, 22)
        MOV     ?V0 + 1,R1
        MOV     A,R2
        MOV     R6,A
        MOV     A,R3
        MOV     R7,A
        MOV     ?V0 + 4,R4
        MOV     ?V0 + 5,R5
//  858   uint8 rem = dstOff % OSAL_NV_WORD_SIZE;
        MOV     A,R6
        ANL     A,#0x3
        MOV     ?V0 + 0,A
        MOV     A,#0x16
        LCALL   ?XSTACK_DISP0_8
        LCALL   ?Subroutine9 & 0xFFFF
//  859   uint8 tmp[OSAL_NV_WORD_SIZE];
//  860 
//  861   if ( rem )
??CrossCallReturnLabel_7:
        MOV     A,?V0 + 0
        JZ      ??writeBuf_0
//  862   {
//  863     dstOff = (dstOff / OSAL_NV_WORD_SIZE) * OSAL_NV_WORD_SIZE;
        MOV     A,#-0x4
        ANL     A,R6
        MOV     R6,A
//  864     HalFlashRead(dstPg, dstOff, tmp, OSAL_NV_WORD_SIZE);
        ; Setup parameters for call to function HalFlashRead
        MOV     ?V0 + 6,#0x4
        MOV     ?V0 + 7,#0x0
        MOV     R0,#?V0 + 6
        LCALL   ?PUSH_XSTACK_I_TWO
          CFI CFA_XSP16 add(XSP16, 24)
        MOV     A,#0x2
        LCALL   ?XSTACK_DISP0_8
        MOV     R4,DPL
        MOV     R5,DPH
        MOV     A,R6
        MOV     R2,A
        LCALL   ??HalFlashRead?relay
        MOV     A,#0x2
        LCALL   ?DEALLOC_XSTACK8
          CFI CFA_XSP16 add(XSP16, 22)
??writeBuf_1:
        MOV     A,?V0 + 4
        ORL     A,?V0 + 5
        JZ      ??writeBuf_2
//  865 
//  866     while ( (rem < OSAL_NV_WORD_SIZE) && len )
//  867     {
//  868       tmp[rem++] = *buf++;
        MOV     DPL,?V0 + 2
        MOV     DPH,?V0 + 3
        MOVX    A,@DPTR
        PUSH    A
          CFI CFA_SP SP+-1
        MOV     ?V0 + 6,?V0 + 0
        LCALL   ?Subroutine23 & 0xFFFF
??CrossCallReturnLabel_49:
        POP     A
          CFI CFA_SP SP+0
        LCALL   ?Subroutine5 & 0xFFFF
??CrossCallReturnLabel_0:
        INC     ?V0 + 0
//  869       len--;
        MOV     A,?V0 + 4
        ADD     A,#-0x1
        MOV     ?V0 + 4,A
        MOV     A,?V0 + 5
        ADDC    A,#-0x1
        MOV     ?V0 + 5,A
//  870     }
        MOV     A,?V0 + 0
        CLR     C
        SUBB    A,#0x4
        JC      ??writeBuf_1
//  871 
//  872     writeWord( dstPg, dstOff, tmp );
??writeBuf_2:
        ; Setup parameters for call to function writeWord
        MOV     DPL,?XSP + 0
        MOV     DPH,?XSP + 1
        MOV     R4,DPL
        MOV     R5,DPH
        MOV     A,R6
        MOV     R2,A
        MOV     A,R7
        MOV     R3,A
        MOV     R1,?V0 + 1
        LCALL   ??writeWord?relay
//  873     dstOff += OSAL_NV_WORD_SIZE;
        MOV     A,R6
        ADD     A,#0x4
        MOV     R6,A
        MOV     A,R7
        ADDC    A,#0x0
        MOV     R7,A
//  874   }
//  875 
//  876   rem = len % OSAL_NV_WORD_SIZE;
??writeBuf_0:
        MOV     A,?V0 + 4
        ANL     A,#0x3
        MOV     ?V0 + 0,A
//  877   len /= OSAL_NV_WORD_SIZE;
        MOV     ?V0 + 6,?V0 + 4
        MOV     ?V0 + 7,?V0 + 5
        MOV     A,#0x2
        MOV     R0,#?V0 + 6
        LCALL   ?US_SHR
        MOV     ?V0 + 4,?V0 + 6
        MOV     ?V0 + 5,?V0 + 7
//  878 
//  879   if ( len )
        MOV     A,?V0 + 4
        ORL     A,?V0 + 5
        JZ      ??writeBuf_3
//  880   {
//  881     writeWordM( dstPg, dstOff, buf, len );
        ; Setup parameters for call to function HalAdcCheckVdd
        MOV     R1,#0x4
        LCALL   ??HalAdcCheckVdd?relay
        MOV     A,R1
        JZ      ??writeBuf_4
        ; Setup parameters for call to function HalFlashWrite
        MOV     R0,#?V0 + 4
        LCALL   ?PUSH_XSTACK_I_TWO
          CFI CFA_XSP16 add(XSP16, 24)
        MOV     R4,?V0 + 2
        MOV     R5,?V0 + 3
        MOV     ?V0 + 6,R6
        MOV     ?V0 + 7,R7
        MOV     A,#0x2
        MOV     R0,#?V0 + 6
        LCALL   ?US_SHR
        MOV     ?V0 + 8,?V0 + 1
        MOV     ?V0 + 9,A
        MOV     A,#0x9
        MOV     R0,#?V0 + 8
        LCALL   ?S_SHL
        MOV     A,?V0 + 6
        ADD     A,#0x0
        MOV     R2,A
        MOV     A,?V0 + 7
        ADDC    A,?V0 + 9
        MOV     R3,A
        LCALL   ??HalFlashWrite?relay
        MOV     A,#0x2
        LCALL   ?DEALLOC_XSTACK8
          CFI CFA_XSP16 add(XSP16, 22)
        SJMP    ??writeBuf_5
??writeBuf_4:
        MOV     DPTR,#failF
        MOV     A,#0x1
        MOVX    @DPTR,A
//  882     dstOff += OSAL_NV_WORD_SIZE * len;
??writeBuf_5:
        MOV     A,#0x2
        MOV     R0,#?V0 + 4
        LCALL   ?S_SHL
        MOV     R0,?V0 + 4
        MOV     R1,?V0 + 5
        MOV     A,R6
        ADD     A,R0
        MOV     R6,A
        MOV     A,R7
        ADDC    A,R1
        MOV     R7,A
//  883     buf += OSAL_NV_WORD_SIZE * len;
        MOV     A,?V0 + 2
        ADD     A,R0
        MOV     ?V0 + 2,A
        MOV     A,?V0 + 3
        ADDC    A,R1
        MOV     ?V0 + 3,A
//  884   }
//  885 
//  886   if ( rem )
??writeBuf_3:
        MOV     A,?V0 + 0
        JZ      ??writeBuf_6
//  887   {
//  888     uint8 idx = 0;
        MOV     ?V0 + 6,#0x0
//  889     HalFlashRead(dstPg, dstOff, tmp, OSAL_NV_WORD_SIZE);
        ; Setup parameters for call to function HalFlashRead
        MOV     ?V0 + 4,#0x4
        MOV     ?V0 + 5,#0x0
        MOV     R0,#?V0 + 4
        LCALL   ?PUSH_XSTACK_I_TWO
          CFI CFA_XSP16 add(XSP16, 24)
        MOV     A,#0x2
        LCALL   ?XSTACK_DISP0_8
        MOV     R4,DPL
        MOV     R5,DPH
        MOV     A,R6
        MOV     R2,A
        MOV     A,R7
        MOV     R3,A
        MOV     R1,?V0 + 1
        LCALL   ??HalFlashRead?relay
        MOV     A,#0x2
        LCALL   ?DEALLOC_XSTACK8
          CFI CFA_XSP16 add(XSP16, 22)
        SJMP    ??writeBuf_7
//  890     while ( rem-- )
//  891     {
//  892       tmp[idx++] = *buf++;
??writeBuf_8:
        MOV     DPL,?V0 + 2
        MOV     DPH,?V0 + 3
        MOVX    A,@DPTR
        PUSH    A
          CFI CFA_SP SP+-1
        MOV     ?V0 + 4,?V0 + 6
        MOV     DPL,?XSP + 0
        MOV     DPH,?XSP + 1
        MOV     A,DPL
        ADD     A,?V0 + 4
        MOV     DPL,A
        MOV     A,DPH
        ADDC    A,#0x0
        MOV     DPH,A
        POP     A
          CFI CFA_SP SP+0
        LCALL   ?Subroutine5 & 0xFFFF
//  893     }
??CrossCallReturnLabel_1:
        INC     ?V0 + 6
??writeBuf_7:
        MOV     ?V0 + 4,?V0 + 0
        MOV     A,#-0x1
        ADD     A,?V0 + 4
        MOV     ?V0 + 0,A
        INC     A
        JNZ     ??writeBuf_8
//  894     writeWord( dstPg, dstOff, tmp );
        ; Setup parameters for call to function writeWord
        MOV     DPL,?XSP + 0
        MOV     DPH,?XSP + 1
        MOV     R4,DPL
        MOV     R5,DPH
        MOV     A,R6
        MOV     R2,A
        MOV     A,R7
        MOV     R3,A
        MOV     R1,?V0 + 1
        LCALL   ??writeWord?relay
          CFI EndBlock cfiBlock70
//  895   }
//  896 }
??writeBuf_6:
        REQUIRE ?Subroutine2
        ; // Fall through to label ?Subroutine2

        RSEG BANKED_CODE:CODE:NOROOT(0)
?Subroutine2:
          CFI Block cfiBlock71 Using cfiCommon0
          CFI NoFunction
          CFI CFA_SP SP+0
          CFI CFA_XSP16 add(XSP16, 22)
          CFI VB load(1, XDATA, add(CFA_XSP16, literal(-17)))
          CFI DPL0 load(1, XDATA, add(CFA_XSP16, literal(-2)))
          CFI DPH0 load(1, XDATA, add(CFA_XSP16, literal(-1)))
          CFI R6 load(1, XDATA, add(CFA_XSP16, literal(-18)))
          CFI R7 load(1, XDATA, add(CFA_XSP16, literal(-6)))
          CFI V0 load(1, XDATA, add(CFA_XSP16, literal(-16)))
          CFI V1 load(1, XDATA, add(CFA_XSP16, literal(-15)))
          CFI V2 load(1, XDATA, add(CFA_XSP16, literal(-14)))
          CFI V3 load(1, XDATA, add(CFA_XSP16, literal(-13)))
          CFI V4 load(1, XDATA, add(CFA_XSP16, literal(-12)))
          CFI V5 load(1, XDATA, add(CFA_XSP16, literal(-11)))
          CFI V6 load(1, XDATA, add(CFA_XSP16, literal(-10)))
          CFI V7 load(1, XDATA, add(CFA_XSP16, literal(-9)))
          CFI V8 load(1, XDATA, add(CFA_XSP16, literal(-8)))
          CFI V9 load(1, XDATA, add(CFA_XSP16, literal(-7)))
          CFI ?BRET_EXT load(1, XDATA, add(CFA_XSP16, literal(-3)))
          CFI ?RET_HIGH load(1, XDATA, add(CFA_XSP16, literal(-4)))
          CFI ?RET_LOW load(1, XDATA, add(CFA_XSP16, literal(-5)))
        MOV     A,#0x4
          CFI EndBlock cfiBlock71
        REQUIRE ??Subroutine32_0
        ; // Fall through to label ??Subroutine32_0

        RSEG BANKED_CODE:CODE:NOROOT(0)
??Subroutine32_0:
          CFI Block cfiBlock72 Using cfiCommon0
          CFI NoFunction
          CFI CFA_SP SP+0
          CFI CFA_XSP16 add(XSP16, 26)
          CFI VB load(1, XDATA, add(CFA_XSP16, literal(-17)))
          CFI DPL0 load(1, XDATA, add(CFA_XSP16, literal(-2)))
          CFI DPH0 load(1, XDATA, add(CFA_XSP16, literal(-1)))
          CFI R6 load(1, XDATA, add(CFA_XSP16, literal(-18)))
          CFI R7 load(1, XDATA, add(CFA_XSP16, literal(-6)))
          CFI V0 load(1, XDATA, add(CFA_XSP16, literal(-16)))
          CFI V1 load(1, XDATA, add(CFA_XSP16, literal(-15)))
          CFI V2 load(1, XDATA, add(CFA_XSP16, literal(-14)))
          CFI V3 load(1, XDATA, add(CFA_XSP16, literal(-13)))
          CFI V4 load(1, XDATA, add(CFA_XSP16, literal(-12)))
          CFI V5 load(1, XDATA, add(CFA_XSP16, literal(-11)))
          CFI V6 load(1, XDATA, add(CFA_XSP16, literal(-10)))
          CFI V7 load(1, XDATA, add(CFA_XSP16, literal(-9)))
          CFI V8 load(1, XDATA, add(CFA_XSP16, literal(-8)))
          CFI V9 load(1, XDATA, add(CFA_XSP16, literal(-7)))
          CFI ?BRET_EXT load(1, XDATA, add(CFA_XSP16, literal(-3)))
          CFI ?RET_HIGH load(1, XDATA, add(CFA_XSP16, literal(-4)))
          CFI ?RET_LOW load(1, XDATA, add(CFA_XSP16, literal(-5)))
          CFI Invalid
        LCALL   ?DEALLOC_XSTACK8
          CFI CFA_XSP16 add(XSP16, 18)
          CFI Valid
        MOV     R7,#0xa
        LJMP    ?BANKED_LEAVE_XDATA
          CFI EndBlock cfiBlock72

        RSEG BANKED_CODE:CODE:NOROOT(0)
?Subroutine23:
          CFI Block cfiCond73 Using cfiCommon0
          CFI Function calcChkF
          CFI Conditional ??CrossCallReturnLabel_48
          CFI R6 load(1, XDATA, add(CFA_XSP16, literal(-16)))
          CFI VB load(1, XDATA, add(CFA_XSP16, literal(-15)))
          CFI V0 load(1, XDATA, add(CFA_XSP16, literal(-14)))
          CFI V1 load(1, XDATA, add(CFA_XSP16, literal(-13)))
          CFI V2 load(1, XDATA, add(CFA_XSP16, literal(-12)))
          CFI V3 load(1, XDATA, add(CFA_XSP16, literal(-11)))
          CFI V4 load(1, XDATA, add(CFA_XSP16, literal(-10)))
          CFI V5 load(1, XDATA, add(CFA_XSP16, literal(-9)))
          CFI V6 load(1, XDATA, add(CFA_XSP16, literal(-8)))
          CFI V7 load(1, XDATA, add(CFA_XSP16, literal(-7)))
          CFI R7 load(1, XDATA, add(CFA_XSP16, literal(-6)))
          CFI ?RET_LOW load(1, XDATA, add(CFA_XSP16, literal(-5)))
          CFI ?RET_HIGH load(1, XDATA, add(CFA_XSP16, literal(-4)))
          CFI ?BRET_EXT load(1, XDATA, add(CFA_XSP16, literal(-3)))
          CFI DPL0 load(1, XDATA, add(CFA_XSP16, literal(-2)))
          CFI DPH0 load(1, XDATA, add(CFA_XSP16, literal(-1)))
          CFI CFA_SP SP+0
          CFI CFA_XSP16 add(XSP16, 20)
          CFI Block cfiCond74 Using cfiCommon0
          CFI (cfiCond74) Function writeBuf
          CFI (cfiCond74) Conditional ??CrossCallReturnLabel_49
          CFI (cfiCond74) R6 load(1, XDATA, add(CFA_XSP16, literal(-18)))
          CFI (cfiCond74) VB load(1, XDATA, add(CFA_XSP16, literal(-17)))
          CFI (cfiCond74) V0 load(1, XDATA, add(CFA_XSP16, literal(-16)))
          CFI (cfiCond74) V1 load(1, XDATA, add(CFA_XSP16, literal(-15)))
          CFI (cfiCond74) V2 load(1, XDATA, add(CFA_XSP16, literal(-14)))
          CFI (cfiCond74) V3 load(1, XDATA, add(CFA_XSP16, literal(-13)))
          CFI (cfiCond74) V4 load(1, XDATA, add(CFA_XSP16, literal(-12)))
          CFI (cfiCond74) V5 load(1, XDATA, add(CFA_XSP16, literal(-11)))
          CFI (cfiCond74) V6 load(1, XDATA, add(CFA_XSP16, literal(-10)))
          CFI (cfiCond74) V7 load(1, XDATA, add(CFA_XSP16, literal(-9)))
          CFI (cfiCond74) V8 load(1, XDATA, add(CFA_XSP16, literal(-8)))
          CFI (cfiCond74) V9 load(1, XDATA, add(CFA_XSP16, literal(-7)))
          CFI (cfiCond74) R7 load(1, XDATA, add(CFA_XSP16, literal(-6)))
          CFI (cfiCond74) ?RET_LOW load(1, XDATA, add(CFA_XSP16, literal(-5)))
          CFI (cfiCond74) ?RET_HIGH load(1, XDATA, add(CFA_XSP16, literal(-4)))
          CFI (cfiCond74) ?BRET_EXT load(1, XDATA, add(CFA_XSP16, literal(-3)))
          CFI (cfiCond74) DPL0 load(1, XDATA, add(CFA_XSP16, literal(-2)))
          CFI (cfiCond74) DPH0 load(1, XDATA, add(CFA_XSP16, literal(-1)))
          CFI (cfiCond74) CFA_SP SP+-1
          CFI (cfiCond74) CFA_XSP16 add(XSP16, 22)
          CFI Block cfiPicker75 Using cfiCommon1
          CFI (cfiPicker75) NoFunction
          CFI (cfiPicker75) Picker
        MOV     DPL,?XSP + 0
        MOV     DPH,?XSP + 1
        MOV     A,DPL
        ADD     A,?V0 + 6
        MOV     DPL,A
        MOV     A,DPH
        ADDC    A,#0x0
        MOV     DPH,A
        RET
          CFI EndBlock cfiCond73
          CFI EndBlock cfiCond74
          CFI EndBlock cfiPicker75

        RSEG BANKED_CODE:CODE:NOROOT(0)
?Subroutine5:
          CFI Block cfiCond76 Using cfiCommon0
          CFI Function writeBuf
          CFI Conditional ??CrossCallReturnLabel_0
          CFI R6 load(1, XDATA, add(CFA_XSP16, literal(-18)))
          CFI VB load(1, XDATA, add(CFA_XSP16, literal(-17)))
          CFI V0 load(1, XDATA, add(CFA_XSP16, literal(-16)))
          CFI V1 load(1, XDATA, add(CFA_XSP16, literal(-15)))
          CFI V2 load(1, XDATA, add(CFA_XSP16, literal(-14)))
          CFI V3 load(1, XDATA, add(CFA_XSP16, literal(-13)))
          CFI V4 load(1, XDATA, add(CFA_XSP16, literal(-12)))
          CFI V5 load(1, XDATA, add(CFA_XSP16, literal(-11)))
          CFI V6 load(1, XDATA, add(CFA_XSP16, literal(-10)))
          CFI V7 load(1, XDATA, add(CFA_XSP16, literal(-9)))
          CFI V8 load(1, XDATA, add(CFA_XSP16, literal(-8)))
          CFI V9 load(1, XDATA, add(CFA_XSP16, literal(-7)))
          CFI R7 load(1, XDATA, add(CFA_XSP16, literal(-6)))
          CFI ?RET_LOW load(1, XDATA, add(CFA_XSP16, literal(-5)))
          CFI ?RET_HIGH load(1, XDATA, add(CFA_XSP16, literal(-4)))
          CFI ?BRET_EXT load(1, XDATA, add(CFA_XSP16, literal(-3)))
          CFI DPL0 load(1, XDATA, add(CFA_XSP16, literal(-2)))
          CFI DPH0 load(1, XDATA, add(CFA_XSP16, literal(-1)))
          CFI CFA_SP SP+0
          CFI CFA_XSP16 add(XSP16, 22)
          CFI Block cfiCond77 Using cfiCommon0
          CFI (cfiCond77) Function writeBuf
          CFI (cfiCond77) Conditional ??CrossCallReturnLabel_1
          CFI (cfiCond77) R6 load(1, XDATA, add(CFA_XSP16, literal(-18)))
          CFI (cfiCond77) VB load(1, XDATA, add(CFA_XSP16, literal(-17)))
          CFI (cfiCond77) V0 load(1, XDATA, add(CFA_XSP16, literal(-16)))
          CFI (cfiCond77) V1 load(1, XDATA, add(CFA_XSP16, literal(-15)))
          CFI (cfiCond77) V2 load(1, XDATA, add(CFA_XSP16, literal(-14)))
          CFI (cfiCond77) V3 load(1, XDATA, add(CFA_XSP16, literal(-13)))
          CFI (cfiCond77) V4 load(1, XDATA, add(CFA_XSP16, literal(-12)))
          CFI (cfiCond77) V5 load(1, XDATA, add(CFA_XSP16, literal(-11)))
          CFI (cfiCond77) V6 load(1, XDATA, add(CFA_XSP16, literal(-10)))
          CFI (cfiCond77) V7 load(1, XDATA, add(CFA_XSP16, literal(-9)))
          CFI (cfiCond77) V8 load(1, XDATA, add(CFA_XSP16, literal(-8)))
          CFI (cfiCond77) V9 load(1, XDATA, add(CFA_XSP16, literal(-7)))
          CFI (cfiCond77) R7 load(1, XDATA, add(CFA_XSP16, literal(-6)))
          CFI (cfiCond77) ?RET_LOW load(1, XDATA, add(CFA_XSP16, literal(-5)))
          CFI (cfiCond77) ?RET_HIGH load(1, XDATA, add(CFA_XSP16, literal(-4)))
          CFI (cfiCond77) ?BRET_EXT load(1, XDATA, add(CFA_XSP16, literal(-3)))
          CFI (cfiCond77) DPL0 load(1, XDATA, add(CFA_XSP16, literal(-2)))
          CFI (cfiCond77) DPH0 load(1, XDATA, add(CFA_XSP16, literal(-1)))
          CFI (cfiCond77) CFA_SP SP+0
          CFI (cfiCond77) CFA_XSP16 add(XSP16, 22)
          CFI Block cfiPicker78 Using cfiCommon1
          CFI (cfiPicker78) NoFunction
          CFI (cfiPicker78) Picker
        MOVX    @DPTR,A
        MOV     DPL,?V0 + 2
        MOV     DPH,?V0 + 3
        INC     DPTR
        MOV     ?V0 + 2,DPL
        MOV     ?V0 + 3,DPH
        RET
          CFI EndBlock cfiCond76
          CFI EndBlock cfiCond77
          CFI EndBlock cfiPicker78
//  897 
//  898 /*********************************************************************
//  899  * @fn      xferBuf
//  900  *
//  901  * @brief   Xfers an NV buffer from one location to another, enforcing OSAL_NV_WORD_SIZE writes.
//  902  *
//  903  * @return  none
//  904  */

        RSEG BANKED_CODE:CODE:NOROOT(0)
//  905 static void xferBuf( uint8 srcPg, uint16 srcOff, uint8 dstPg, uint16 dstOff, uint16 len )
xferBuf:
          CFI Block cfiBlock79 Using cfiCommon0
          CFI Function xferBuf
        CODE
//  906 {
        FUNCALL xferBuf, HalFlashRead
        LOCFRAME ISTACK, 0, STACK
        LOCFRAME PSTACK, 0, STACK
        LOCFRAME XSTACK, 24, STACK
        LOCFRAME IOVERLAY, 0, STATIC
        LOCFRAME DOVERLAY, 0, STATIC
        ARGFRAME ISTACK, 0, STACK
        ARGFRAME PSTACK, 0, STACK
        ARGFRAME XSTACK, 24, STACK
        ARGFRAME IOVERLAY, 0, STATIC
        ARGFRAME DOVERLAY, 0, STATIC
        FUNCALL xferBuf, HalFlashRead
        LOCFRAME ISTACK, 0, STACK
        LOCFRAME PSTACK, 0, STACK
        LOCFRAME XSTACK, 24, STACK
        LOCFRAME IOVERLAY, 0, STATIC
        LOCFRAME DOVERLAY, 0, STATIC
        ARGFRAME ISTACK, 0, STACK
        ARGFRAME PSTACK, 0, STACK
        ARGFRAME XSTACK, 24, STACK
        ARGFRAME IOVERLAY, 0, STATIC
        ARGFRAME DOVERLAY, 0, STATIC
        FUNCALL xferBuf, writeWord
        LOCFRAME ISTACK, 0, STACK
        LOCFRAME PSTACK, 0, STACK
        LOCFRAME XSTACK, 22, STACK
        LOCFRAME IOVERLAY, 0, STATIC
        LOCFRAME DOVERLAY, 0, STATIC
        ARGFRAME ISTACK, 0, STACK
        ARGFRAME PSTACK, 0, STACK
        ARGFRAME XSTACK, 22, STACK
        ARGFRAME IOVERLAY, 0, STATIC
        ARGFRAME DOVERLAY, 0, STATIC
        FUNCALL xferBuf, HalFlashRead
        LOCFRAME ISTACK, 0, STACK
        LOCFRAME PSTACK, 0, STACK
        LOCFRAME XSTACK, 24, STACK
        LOCFRAME IOVERLAY, 0, STATIC
        LOCFRAME DOVERLAY, 0, STATIC
        ARGFRAME ISTACK, 0, STACK
        ARGFRAME PSTACK, 0, STACK
        ARGFRAME XSTACK, 24, STACK
        ARGFRAME IOVERLAY, 0, STATIC
        ARGFRAME DOVERLAY, 0, STATIC
        FUNCALL xferBuf, writeWord
        LOCFRAME ISTACK, 0, STACK
        LOCFRAME PSTACK, 0, STACK
        LOCFRAME XSTACK, 22, STACK
        LOCFRAME IOVERLAY, 0, STATIC
        LOCFRAME DOVERLAY, 0, STATIC
        ARGFRAME ISTACK, 0, STACK
        ARGFRAME PSTACK, 0, STACK
        ARGFRAME XSTACK, 22, STACK
        ARGFRAME IOVERLAY, 0, STATIC
        ARGFRAME DOVERLAY, 0, STATIC
        FUNCALL xferBuf, HalFlashRead
        LOCFRAME ISTACK, 0, STACK
        LOCFRAME PSTACK, 0, STACK
        LOCFRAME XSTACK, 24, STACK
        LOCFRAME IOVERLAY, 0, STATIC
        LOCFRAME DOVERLAY, 0, STATIC
        ARGFRAME ISTACK, 0, STACK
        ARGFRAME PSTACK, 0, STACK
        ARGFRAME XSTACK, 24, STACK
        ARGFRAME IOVERLAY, 0, STATIC
        ARGFRAME DOVERLAY, 0, STATIC
        FUNCALL xferBuf, HalFlashRead
        LOCFRAME ISTACK, 0, STACK
        LOCFRAME PSTACK, 0, STACK
        LOCFRAME XSTACK, 24, STACK
        LOCFRAME IOVERLAY, 0, STATIC
        LOCFRAME DOVERLAY, 0, STATIC
        ARGFRAME ISTACK, 0, STACK
        ARGFRAME PSTACK, 0, STACK
        ARGFRAME XSTACK, 24, STACK
        ARGFRAME IOVERLAY, 0, STATIC
        ARGFRAME DOVERLAY, 0, STATIC
        FUNCALL xferBuf, writeWord
        LOCFRAME ISTACK, 0, STACK
        LOCFRAME PSTACK, 0, STACK
        LOCFRAME XSTACK, 22, STACK
        LOCFRAME IOVERLAY, 0, STATIC
        LOCFRAME DOVERLAY, 0, STATIC
        ARGFRAME ISTACK, 0, STACK
        ARGFRAME PSTACK, 0, STACK
        ARGFRAME XSTACK, 22, STACK
        ARGFRAME IOVERLAY, 0, STATIC
        ARGFRAME DOVERLAY, 0, STATIC
        MOV     A,#-0x12
        LCALL   ?BANKED_ENTER_XDATA
          CFI DPH0 load(1, XDATA, add(CFA_XSP16, literal(-1)))
          CFI DPL0 load(1, XDATA, add(CFA_XSP16, literal(-2)))
          CFI ?BRET_EXT load(1, XDATA, add(CFA_XSP16, literal(-3)))
          CFI ?RET_HIGH load(1, XDATA, add(CFA_XSP16, literal(-4)))
          CFI ?RET_LOW load(1, XDATA, add(CFA_XSP16, literal(-5)))
          CFI R7 load(1, XDATA, add(CFA_XSP16, literal(-6)))
          CFI V9 load(1, XDATA, add(CFA_XSP16, literal(-7)))
          CFI V8 load(1, XDATA, add(CFA_XSP16, literal(-8)))
          CFI V7 load(1, XDATA, add(CFA_XSP16, literal(-9)))
          CFI V6 load(1, XDATA, add(CFA_XSP16, literal(-10)))
          CFI V5 load(1, XDATA, add(CFA_XSP16, literal(-11)))
          CFI V4 load(1, XDATA, add(CFA_XSP16, literal(-12)))
          CFI V3 load(1, XDATA, add(CFA_XSP16, literal(-13)))
          CFI V2 load(1, XDATA, add(CFA_XSP16, literal(-14)))
          CFI V1 load(1, XDATA, add(CFA_XSP16, literal(-15)))
          CFI V0 load(1, XDATA, add(CFA_XSP16, literal(-16)))
          CFI VB load(1, XDATA, add(CFA_XSP16, literal(-17)))
          CFI R6 load(1, XDATA, add(CFA_XSP16, literal(-18)))
          CFI CFA_SP SP+0
          CFI CFA_XSP16 add(XSP16, 18)
        ; Saved register size: 18
        ; Auto size: 4
        MOV     A,#-0x4
        LCALL   ?ALLOC_XSTACK8
          CFI CFA_XSP16 add(XSP16, 22)
        MOV     ?V0 + 6,R1
        MOV     ?V0 + 4,R2
        MOV     ?V0 + 5,R3
        MOV     ?V0 + 3,R4
        MOV     A,#0x16
        LCALL   ?XSTACK_DISP0_8
        MOVX    A,@DPTR
        MOV     ?V0 + 0,A
        INC     DPTR
        MOVX    A,@DPTR
        MOV     ?V0 + 1,A
//  907   uint8 rem = dstOff % OSAL_NV_WORD_SIZE;
        MOV     A,?V0 + 0
        ANL     A,#0x3
        MOV     ?V0 + 2,A
        MOV     A,#0x18
        LCALL   ?XSTACK_DISP0_8
        MOVX    A,@DPTR
        MOV     R6,A
        INC     DPTR
        MOVX    A,@DPTR
        MOV     R7,A
//  908   uint8 tmp[OSAL_NV_WORD_SIZE];
//  909 
//  910   if ( rem )
        MOV     A,?V0 + 2
        JZ      ??CrossCallReturnLabel_41
//  911   {
//  912     dstOff -= rem;
        MOV     ?V0 + 8,A
        CLR     C
        MOV     A,?V0 + 0
        SUBB    A,?V0 + 8
        MOV     ?V0 + 0,A
        MOV     A,?V0 + 1
        SUBB    A,#0x0
        MOV     ?V0 + 1,A
//  913     HalFlashRead(dstPg, dstOff, tmp, OSAL_NV_WORD_SIZE);
        ; Setup parameters for call to function HalFlashRead
        MOV     ?V0 + 8,#0x4
        MOV     ?V0 + 9,#0x0
        MOV     R0,#?V0 + 8
        LCALL   ?PUSH_XSTACK_I_TWO
          CFI CFA_XSP16 add(XSP16, 24)
        MOV     A,#0x2
        LCALL   ?XSTACK_DISP0_8
        MOV     R4,DPL
        MOV     R5,DPH
        MOV     R2,?V0 + 0
        MOV     R3,?V0 + 1
        MOV     R1,?V0 + 3
        LCALL   ??HalFlashRead?relay
        MOV     A,#0x2
        LCALL   ?DEALLOC_XSTACK8
          CFI CFA_XSP16 add(XSP16, 22)
??xferBuf_0:
        MOV     A,R6
        ORL     A,R7
        JZ      ??xferBuf_1
//  914 
//  915     while ( (rem < OSAL_NV_WORD_SIZE) && len )
//  916     {
//  917       HalFlashRead(srcPg, srcOff, tmp+rem, 1);
        ; Setup parameters for call to function HalFlashRead
        MOV     ?V0 + 8,#0x1
        MOV     R0,#?V0 + 8
        LCALL   ?PUSH_XSTACK_I_TWO
          CFI CFA_XSP16 add(XSP16, 24)
        MOV     ?V0 + 8,?V0 + 2
        MOV     A,#0x2
        LCALL   ?XSTACK_DISP0_8
        LCALL   ?Subroutine17 & 0xFFFF
??CrossCallReturnLabel_35:
        LCALL   ??HalFlashRead?relay
        MOV     A,#0x2
        LCALL   ?DEALLOC_XSTACK8
          CFI CFA_XSP16 add(XSP16, 22)
//  918       srcOff++;
        LCALL   ?Subroutine22 & 0xFFFF
//  919       rem++;
??CrossCallReturnLabel_45:
        INC     ?V0 + 2
//  920       len--;
        MOV     A,R6
        ADD     A,#-0x1
        DEC     R6
        MOV     A,R7
        ADDC    A,#-0x1
        MOV     R7,A
//  921     }
        MOV     A,?V0 + 2
        CLR     C
        SUBB    A,#0x4
        JC      ??xferBuf_0
//  922 
//  923     writeWord( dstPg, dstOff, tmp );
??xferBuf_1:
        ; Setup parameters for call to function writeWord
        MOV     DPL,?XSP + 0
        MOV     DPH,?XSP + 1
        MOV     R4,DPL
        MOV     R5,DPH
        MOV     R2,?V0 + 0
        MOV     R3,?V0 + 1
        MOV     R1,?V0 + 3
        LCALL   ??writeWord?relay
//  924     dstOff += OSAL_NV_WORD_SIZE;
        LCALL   ?Subroutine20 & 0xFFFF
//  925   }
//  926 
//  927   rem = len % OSAL_NV_WORD_SIZE;
??CrossCallReturnLabel_41:
        MOV     A,R6
        ANL     A,#0x3
        MOV     ?V0 + 2,A
//  928   len /= OSAL_NV_WORD_SIZE;
        MOV     ?V0 + 8,R6
        MOV     ?V0 + 9,R7
        MOV     A,#0x2
        MOV     R0,#?V0 + 8
        LCALL   ?US_SHR
        MOV     R6,?V0 + 8
        MOV     R7,?V0 + 9
        SJMP    ??CrossCallReturnLabel_42
//  929 
//  930   while ( len-- )
//  931   {
//  932     HalFlashRead(srcPg, srcOff, tmp, OSAL_NV_WORD_SIZE);
??xferBuf_2:
        ; Setup parameters for call to function HalFlashRead
        MOV     ?V0 + 8,#0x4
        MOV     ?V0 + 9,#0x0
        MOV     R0,#?V0 + 8
        LCALL   ?PUSH_XSTACK_I_TWO
          CFI CFA_XSP16 add(XSP16, 24)
        MOV     A,#0x2
        LCALL   ?XSTACK_DISP0_8
        MOV     R4,DPL
        MOV     R5,DPH
        MOV     R2,?V0 + 4
        MOV     R3,?V0 + 5
        MOV     R1,?V0 + 6
        LCALL   ??HalFlashRead?relay
        MOV     A,#0x2
        LCALL   ?DEALLOC_XSTACK8
          CFI CFA_XSP16 add(XSP16, 22)
//  933     srcOff += OSAL_NV_WORD_SIZE;
        MOV     A,?V0 + 4
        ADD     A,#0x4
        MOV     ?V0 + 4,A
        MOV     A,?V0 + 5
        ADDC    A,#0x0
        MOV     ?V0 + 5,A
//  934     writeWord( dstPg, dstOff, tmp );
        ; Setup parameters for call to function writeWord
        MOV     DPL,?XSP + 0
        MOV     DPH,?XSP + 1
        MOV     R4,DPL
        MOV     R5,DPH
        MOV     R2,?V0 + 0
        MOV     R3,?V0 + 1
        MOV     R1,?V0 + 3
        LCALL   ??writeWord?relay
//  935     dstOff += OSAL_NV_WORD_SIZE;
        LCALL   ?Subroutine20 & 0xFFFF
//  936   }
??CrossCallReturnLabel_42:
        LCALL   ?Subroutine24 & 0xFFFF
??CrossCallReturnLabel_51:
        JNZ     ??xferBuf_2
//  937 
//  938   if ( rem )
        MOV     A,?V0 + 2
        JZ      ??xferBuf_3
//  939   {
//  940     uint8 idx = 0;
        MOV     R6,#0x0
//  941     HalFlashRead(dstPg, dstOff, tmp, OSAL_NV_WORD_SIZE);
        ; Setup parameters for call to function HalFlashRead
        MOV     ?V0 + 8,#0x4
        MOV     ?V0 + 9,R6
        MOV     R0,#?V0 + 8
        LCALL   ?PUSH_XSTACK_I_TWO
          CFI CFA_XSP16 add(XSP16, 24)
        MOV     A,#0x2
        LCALL   ?XSTACK_DISP0_8
        MOV     R4,DPL
        MOV     R5,DPH
        MOV     R2,?V0 + 0
        MOV     R3,?V0 + 1
        MOV     R1,?V0 + 3
        LCALL   ??HalFlashRead?relay
        MOV     A,#0x2
        LCALL   ?DEALLOC_XSTACK8
          CFI CFA_XSP16 add(XSP16, 22)
        SJMP    ??xferBuf_4
//  942     while ( rem-- )
//  943     {
//  944       HalFlashRead(srcPg, srcOff, tmp+idx, 1);
??xferBuf_5:
        ; Setup parameters for call to function HalFlashRead
        MOV     ?V0 + 8,#0x1
        MOV     R0,#?V0 + 8
        LCALL   ?PUSH_XSTACK_I_TWO
          CFI CFA_XSP16 add(XSP16, 24)
        MOV     ?V0 + 8,R6
        MOV     A,#0x2
        LCALL   ?XSTACK_DISP0_8
        LCALL   ?Subroutine17 & 0xFFFF
??CrossCallReturnLabel_36:
        LCALL   ??HalFlashRead?relay
        MOV     A,#0x2
        LCALL   ?DEALLOC_XSTACK8
          CFI CFA_XSP16 add(XSP16, 22)
//  945       srcOff++;
        LCALL   ?Subroutine22 & 0xFFFF
//  946       idx++;
??CrossCallReturnLabel_46:
        INC     R6
//  947     }
??xferBuf_4:
        MOV     R7,?V0 + 2
        MOV     A,#-0x1
        ADD     A,R7
        MOV     ?V0 + 2,A
        INC     A
        JNZ     ??xferBuf_5
//  948     writeWord( dstPg, dstOff, tmp );
        ; Setup parameters for call to function writeWord
        MOV     DPL,?XSP + 0
        MOV     DPH,?XSP + 1
        MOV     R4,DPL
        MOV     R5,DPH
        MOV     R2,?V0 + 0
        MOV     R3,?V0 + 1
        MOV     R1,?V0 + 3
        LCALL   ??writeWord?relay
//  949   }
//  950 }
??xferBuf_3:
        LJMP    ?Subroutine2 & 0xFFFF
          CFI EndBlock cfiBlock79

        RSEG BANKED_CODE:CODE:NOROOT(0)
?Subroutine24:
          CFI Block cfiCond80 Using cfiCommon0
          CFI Function calcChkF
          CFI Conditional ??CrossCallReturnLabel_50
          CFI R6 load(1, XDATA, add(CFA_XSP16, literal(-16)))
          CFI VB load(1, XDATA, add(CFA_XSP16, literal(-15)))
          CFI V0 load(1, XDATA, add(CFA_XSP16, literal(-14)))
          CFI V1 load(1, XDATA, add(CFA_XSP16, literal(-13)))
          CFI V2 load(1, XDATA, add(CFA_XSP16, literal(-12)))
          CFI V3 load(1, XDATA, add(CFA_XSP16, literal(-11)))
          CFI V4 load(1, XDATA, add(CFA_XSP16, literal(-10)))
          CFI V5 load(1, XDATA, add(CFA_XSP16, literal(-9)))
          CFI V6 load(1, XDATA, add(CFA_XSP16, literal(-8)))
          CFI V7 load(1, XDATA, add(CFA_XSP16, literal(-7)))
          CFI R7 load(1, XDATA, add(CFA_XSP16, literal(-6)))
          CFI ?RET_LOW load(1, XDATA, add(CFA_XSP16, literal(-5)))
          CFI ?RET_HIGH load(1, XDATA, add(CFA_XSP16, literal(-4)))
          CFI ?BRET_EXT load(1, XDATA, add(CFA_XSP16, literal(-3)))
          CFI DPL0 load(1, XDATA, add(CFA_XSP16, literal(-2)))
          CFI DPH0 load(1, XDATA, add(CFA_XSP16, literal(-1)))
          CFI CFA_SP SP+0
          CFI CFA_XSP16 add(XSP16, 20)
          CFI Block cfiCond81 Using cfiCommon0
          CFI (cfiCond81) Function xferBuf
          CFI (cfiCond81) Conditional ??CrossCallReturnLabel_51
          CFI (cfiCond81) R6 load(1, XDATA, add(CFA_XSP16, literal(-18)))
          CFI (cfiCond81) VB load(1, XDATA, add(CFA_XSP16, literal(-17)))
          CFI (cfiCond81) V0 load(1, XDATA, add(CFA_XSP16, literal(-16)))
          CFI (cfiCond81) V1 load(1, XDATA, add(CFA_XSP16, literal(-15)))
          CFI (cfiCond81) V2 load(1, XDATA, add(CFA_XSP16, literal(-14)))
          CFI (cfiCond81) V3 load(1, XDATA, add(CFA_XSP16, literal(-13)))
          CFI (cfiCond81) V4 load(1, XDATA, add(CFA_XSP16, literal(-12)))
          CFI (cfiCond81) V5 load(1, XDATA, add(CFA_XSP16, literal(-11)))
          CFI (cfiCond81) V6 load(1, XDATA, add(CFA_XSP16, literal(-10)))
          CFI (cfiCond81) V7 load(1, XDATA, add(CFA_XSP16, literal(-9)))
          CFI (cfiCond81) V8 load(1, XDATA, add(CFA_XSP16, literal(-8)))
          CFI (cfiCond81) V9 load(1, XDATA, add(CFA_XSP16, literal(-7)))
          CFI (cfiCond81) R7 load(1, XDATA, add(CFA_XSP16, literal(-6)))
          CFI (cfiCond81) ?RET_LOW load(1, XDATA, add(CFA_XSP16, literal(-5)))
          CFI (cfiCond81) ?RET_HIGH load(1, XDATA, add(CFA_XSP16, literal(-4)))
          CFI (cfiCond81) ?BRET_EXT load(1, XDATA, add(CFA_XSP16, literal(-3)))
          CFI (cfiCond81) DPL0 load(1, XDATA, add(CFA_XSP16, literal(-2)))
          CFI (cfiCond81) DPH0 load(1, XDATA, add(CFA_XSP16, literal(-1)))
          CFI (cfiCond81) CFA_SP SP+0
          CFI (cfiCond81) CFA_XSP16 add(XSP16, 22)
          CFI Block cfiPicker82 Using cfiCommon1
          CFI (cfiPicker82) NoFunction
          CFI (cfiPicker82) Picker
        MOV     A,R6
        MOV     R0,A
        MOV     A,R7
        MOV     R1,A
        MOV     A,R0
        ADD     A,#-0x1
        DEC     R6
        MOV     A,R1
        ADDC    A,#-0x1
        MOV     R7,A
        MOV     A,R0
        ORL     A,R1
        RET
          CFI EndBlock cfiCond80
          CFI EndBlock cfiCond81
          CFI EndBlock cfiPicker82

        RSEG BANKED_CODE:CODE:NOROOT(0)
?Subroutine20:
          CFI Block cfiCond83 Using cfiCommon0
          CFI Function xferBuf
          CFI Conditional ??CrossCallReturnLabel_41
          CFI R6 load(1, XDATA, add(CFA_XSP16, literal(-18)))
          CFI VB load(1, XDATA, add(CFA_XSP16, literal(-17)))
          CFI V0 load(1, XDATA, add(CFA_XSP16, literal(-16)))
          CFI V1 load(1, XDATA, add(CFA_XSP16, literal(-15)))
          CFI V2 load(1, XDATA, add(CFA_XSP16, literal(-14)))
          CFI V3 load(1, XDATA, add(CFA_XSP16, literal(-13)))
          CFI V4 load(1, XDATA, add(CFA_XSP16, literal(-12)))
          CFI V5 load(1, XDATA, add(CFA_XSP16, literal(-11)))
          CFI V6 load(1, XDATA, add(CFA_XSP16, literal(-10)))
          CFI V7 load(1, XDATA, add(CFA_XSP16, literal(-9)))
          CFI V8 load(1, XDATA, add(CFA_XSP16, literal(-8)))
          CFI V9 load(1, XDATA, add(CFA_XSP16, literal(-7)))
          CFI R7 load(1, XDATA, add(CFA_XSP16, literal(-6)))
          CFI ?RET_LOW load(1, XDATA, add(CFA_XSP16, literal(-5)))
          CFI ?RET_HIGH load(1, XDATA, add(CFA_XSP16, literal(-4)))
          CFI ?BRET_EXT load(1, XDATA, add(CFA_XSP16, literal(-3)))
          CFI DPL0 load(1, XDATA, add(CFA_XSP16, literal(-2)))
          CFI DPH0 load(1, XDATA, add(CFA_XSP16, literal(-1)))
          CFI CFA_SP SP+0
          CFI CFA_XSP16 add(XSP16, 22)
          CFI Block cfiCond84 Using cfiCommon0
          CFI (cfiCond84) Function xferBuf
          CFI (cfiCond84) Conditional ??CrossCallReturnLabel_42
          CFI (cfiCond84) R6 load(1, XDATA, add(CFA_XSP16, literal(-18)))
          CFI (cfiCond84) VB load(1, XDATA, add(CFA_XSP16, literal(-17)))
          CFI (cfiCond84) V0 load(1, XDATA, add(CFA_XSP16, literal(-16)))
          CFI (cfiCond84) V1 load(1, XDATA, add(CFA_XSP16, literal(-15)))
          CFI (cfiCond84) V2 load(1, XDATA, add(CFA_XSP16, literal(-14)))
          CFI (cfiCond84) V3 load(1, XDATA, add(CFA_XSP16, literal(-13)))
          CFI (cfiCond84) V4 load(1, XDATA, add(CFA_XSP16, literal(-12)))
          CFI (cfiCond84) V5 load(1, XDATA, add(CFA_XSP16, literal(-11)))
          CFI (cfiCond84) V6 load(1, XDATA, add(CFA_XSP16, literal(-10)))
          CFI (cfiCond84) V7 load(1, XDATA, add(CFA_XSP16, literal(-9)))
          CFI (cfiCond84) V8 load(1, XDATA, add(CFA_XSP16, literal(-8)))
          CFI (cfiCond84) V9 load(1, XDATA, add(CFA_XSP16, literal(-7)))
          CFI (cfiCond84) R7 load(1, XDATA, add(CFA_XSP16, literal(-6)))
          CFI (cfiCond84) ?RET_LOW load(1, XDATA, add(CFA_XSP16, literal(-5)))
          CFI (cfiCond84) ?RET_HIGH load(1, XDATA, add(CFA_XSP16, literal(-4)))
          CFI (cfiCond84) ?BRET_EXT load(1, XDATA, add(CFA_XSP16, literal(-3)))
          CFI (cfiCond84) DPL0 load(1, XDATA, add(CFA_XSP16, literal(-2)))
          CFI (cfiCond84) DPH0 load(1, XDATA, add(CFA_XSP16, literal(-1)))
          CFI (cfiCond84) CFA_SP SP+0
          CFI (cfiCond84) CFA_XSP16 add(XSP16, 22)
          CFI Block cfiPicker85 Using cfiCommon1
          CFI (cfiPicker85) NoFunction
          CFI (cfiPicker85) Picker
        MOV     A,?V0 + 0
        ADD     A,#0x4
        MOV     ?V0 + 0,A
        MOV     A,?V0 + 1
        ADDC    A,#0x0
        MOV     ?V0 + 1,A
        RET
          CFI EndBlock cfiCond83
          CFI EndBlock cfiCond84
          CFI EndBlock cfiPicker85

        RSEG BANKED_CODE:CODE:NOROOT(0)
?Subroutine17:
          CFI Block cfiCond86 Using cfiCommon0
          CFI Function xferBuf
          CFI Conditional ??CrossCallReturnLabel_35
          CFI R6 load(1, XDATA, add(CFA_XSP16, literal(-18)))
          CFI VB load(1, XDATA, add(CFA_XSP16, literal(-17)))
          CFI V0 load(1, XDATA, add(CFA_XSP16, literal(-16)))
          CFI V1 load(1, XDATA, add(CFA_XSP16, literal(-15)))
          CFI V2 load(1, XDATA, add(CFA_XSP16, literal(-14)))
          CFI V3 load(1, XDATA, add(CFA_XSP16, literal(-13)))
          CFI V4 load(1, XDATA, add(CFA_XSP16, literal(-12)))
          CFI V5 load(1, XDATA, add(CFA_XSP16, literal(-11)))
          CFI V6 load(1, XDATA, add(CFA_XSP16, literal(-10)))
          CFI V7 load(1, XDATA, add(CFA_XSP16, literal(-9)))
          CFI V8 load(1, XDATA, add(CFA_XSP16, literal(-8)))
          CFI V9 load(1, XDATA, add(CFA_XSP16, literal(-7)))
          CFI R7 load(1, XDATA, add(CFA_XSP16, literal(-6)))
          CFI ?RET_LOW load(1, XDATA, add(CFA_XSP16, literal(-5)))
          CFI ?RET_HIGH load(1, XDATA, add(CFA_XSP16, literal(-4)))
          CFI ?BRET_EXT load(1, XDATA, add(CFA_XSP16, literal(-3)))
          CFI DPL0 load(1, XDATA, add(CFA_XSP16, literal(-2)))
          CFI DPH0 load(1, XDATA, add(CFA_XSP16, literal(-1)))
          CFI CFA_SP SP+0
          CFI CFA_XSP16 add(XSP16, 24)
          CFI Block cfiCond87 Using cfiCommon0
          CFI (cfiCond87) Function xferBuf
          CFI (cfiCond87) Conditional ??CrossCallReturnLabel_36
          CFI (cfiCond87) R6 load(1, XDATA, add(CFA_XSP16, literal(-18)))
          CFI (cfiCond87) VB load(1, XDATA, add(CFA_XSP16, literal(-17)))
          CFI (cfiCond87) V0 load(1, XDATA, add(CFA_XSP16, literal(-16)))
          CFI (cfiCond87) V1 load(1, XDATA, add(CFA_XSP16, literal(-15)))
          CFI (cfiCond87) V2 load(1, XDATA, add(CFA_XSP16, literal(-14)))
          CFI (cfiCond87) V3 load(1, XDATA, add(CFA_XSP16, literal(-13)))
          CFI (cfiCond87) V4 load(1, XDATA, add(CFA_XSP16, literal(-12)))
          CFI (cfiCond87) V5 load(1, XDATA, add(CFA_XSP16, literal(-11)))
          CFI (cfiCond87) V6 load(1, XDATA, add(CFA_XSP16, literal(-10)))
          CFI (cfiCond87) V7 load(1, XDATA, add(CFA_XSP16, literal(-9)))
          CFI (cfiCond87) V8 load(1, XDATA, add(CFA_XSP16, literal(-8)))
          CFI (cfiCond87) V9 load(1, XDATA, add(CFA_XSP16, literal(-7)))
          CFI (cfiCond87) R7 load(1, XDATA, add(CFA_XSP16, literal(-6)))
          CFI (cfiCond87) ?RET_LOW load(1, XDATA, add(CFA_XSP16, literal(-5)))
          CFI (cfiCond87) ?RET_HIGH load(1, XDATA, add(CFA_XSP16, literal(-4)))
          CFI (cfiCond87) ?BRET_EXT load(1, XDATA, add(CFA_XSP16, literal(-3)))
          CFI (cfiCond87) DPL0 load(1, XDATA, add(CFA_XSP16, literal(-2)))
          CFI (cfiCond87) DPH0 load(1, XDATA, add(CFA_XSP16, literal(-1)))
          CFI (cfiCond87) CFA_SP SP+0
          CFI (cfiCond87) CFA_XSP16 add(XSP16, 24)
          CFI Block cfiPicker88 Using cfiCommon1
          CFI (cfiPicker88) NoFunction
          CFI (cfiPicker88) Picker
        MOV     A,DPL
        ADD     A,?V0 + 8
        MOV     R4,A
        MOV     A,DPH
        ADDC    A,#0x0
        MOV     R5,A
        MOV     R2,?V0 + 4
        MOV     R3,?V0 + 5
        MOV     R1,?V0 + 6
        RET
          CFI EndBlock cfiCond86
          CFI EndBlock cfiCond87
          CFI EndBlock cfiPicker88
//  951 
//  952 /*********************************************************************
//  953  * @fn      writeItem
//  954  *
//  955  * @brief   Writes an item header/data combo to the specified NV page.
//  956  *
//  957  * @param   pg - Valid NV Flash page.
//  958  * @param   id - Valid NV item Id.
//  959  * @param   len  - Byte count of the data to write.
//  960  * @param   buf  - The data to write. If NULL, no data/checksum write.
//  961  * @param   flag - TRUE if the checksum should be written, FALSE otherwise.
//  962  *
//  963  * @return  TRUE if header/data to write matches header/data read back, else FALSE.
//  964  */

        RSEG BANKED_CODE:CODE:NOROOT(0)
//  965 static uint8 writeItem( uint8 pg, uint16 id, uint16 len, void *buf, uint8 flag )
writeItem:
          CFI Block cfiBlock89 Using cfiCommon0
          CFI Function writeItem
        CODE
//  966 {
        FUNCALL writeItem, setPageUse
        LOCFRAME ISTACK, 0, STACK
        LOCFRAME PSTACK, 0, STACK
        LOCFRAME XSTACK, 30, STACK
        LOCFRAME IOVERLAY, 0, STATIC
        LOCFRAME DOVERLAY, 0, STATIC
        ARGFRAME ISTACK, 0, STACK
        ARGFRAME PSTACK, 0, STACK
        ARGFRAME XSTACK, 30, STACK
        ARGFRAME IOVERLAY, 0, STATIC
        ARGFRAME DOVERLAY, 0, STATIC
        FUNCALL writeItem, writeWord
        LOCFRAME ISTACK, 0, STACK
        LOCFRAME PSTACK, 0, STACK
        LOCFRAME XSTACK, 30, STACK
        LOCFRAME IOVERLAY, 0, STATIC
        LOCFRAME DOVERLAY, 0, STATIC
        ARGFRAME ISTACK, 0, STACK
        ARGFRAME PSTACK, 0, STACK
        ARGFRAME XSTACK, 30, STACK
        ARGFRAME IOVERLAY, 0, STATIC
        ARGFRAME DOVERLAY, 0, STATIC
        FUNCALL writeItem, HalFlashRead
        LOCFRAME ISTACK, 0, STACK
        LOCFRAME PSTACK, 0, STACK
        LOCFRAME XSTACK, 32, STACK
        LOCFRAME IOVERLAY, 0, STATIC
        LOCFRAME DOVERLAY, 0, STATIC
        ARGFRAME ISTACK, 0, STACK
        ARGFRAME PSTACK, 0, STACK
        ARGFRAME XSTACK, 32, STACK
        ARGFRAME IOVERLAY, 0, STATIC
        ARGFRAME DOVERLAY, 0, STATIC
        FUNCALL writeItem, writeBuf
        LOCFRAME ISTACK, 0, STACK
        LOCFRAME PSTACK, 0, STACK
        LOCFRAME XSTACK, 32, STACK
        LOCFRAME IOVERLAY, 0, STATIC
        LOCFRAME DOVERLAY, 0, STATIC
        ARGFRAME ISTACK, 0, STACK
        ARGFRAME PSTACK, 0, STACK
        ARGFRAME XSTACK, 32, STACK
        ARGFRAME IOVERLAY, 0, STATIC
        ARGFRAME DOVERLAY, 0, STATIC
        FUNCALL writeItem, calcChkF
        LOCFRAME ISTACK, 0, STACK
        LOCFRAME PSTACK, 0, STACK
        LOCFRAME XSTACK, 30, STACK
        LOCFRAME IOVERLAY, 0, STATIC
        LOCFRAME DOVERLAY, 0, STATIC
        ARGFRAME ISTACK, 0, STACK
        ARGFRAME PSTACK, 0, STACK
        ARGFRAME XSTACK, 30, STACK
        ARGFRAME IOVERLAY, 0, STATIC
        ARGFRAME DOVERLAY, 0, STATIC
        FUNCALL writeItem, writeWordH
        LOCFRAME ISTACK, 0, STACK
        LOCFRAME PSTACK, 0, STACK
        LOCFRAME XSTACK, 30, STACK
        LOCFRAME IOVERLAY, 0, STATIC
        LOCFRAME DOVERLAY, 0, STATIC
        ARGFRAME ISTACK, 0, STACK
        ARGFRAME PSTACK, 0, STACK
        ARGFRAME XSTACK, 30, STACK
        ARGFRAME IOVERLAY, 0, STATIC
        ARGFRAME DOVERLAY, 0, STATIC
        FUNCALL writeItem, HalFlashRead
        LOCFRAME ISTACK, 0, STACK
        LOCFRAME PSTACK, 0, STACK
        LOCFRAME XSTACK, 32, STACK
        LOCFRAME IOVERLAY, 0, STATIC
        LOCFRAME DOVERLAY, 0, STATIC
        ARGFRAME ISTACK, 0, STACK
        ARGFRAME PSTACK, 0, STACK
        ARGFRAME XSTACK, 32, STACK
        ARGFRAME IOVERLAY, 0, STATIC
        ARGFRAME DOVERLAY, 0, STATIC
        MOV     A,#-0x14
        LCALL   ?BANKED_ENTER_XDATA
          CFI DPH0 load(1, XDATA, add(CFA_XSP16, literal(-1)))
          CFI DPL0 load(1, XDATA, add(CFA_XSP16, literal(-2)))
          CFI ?BRET_EXT load(1, XDATA, add(CFA_XSP16, literal(-3)))
          CFI ?RET_HIGH load(1, XDATA, add(CFA_XSP16, literal(-4)))
          CFI ?RET_LOW load(1, XDATA, add(CFA_XSP16, literal(-5)))
          CFI R7 load(1, XDATA, add(CFA_XSP16, literal(-6)))
          CFI V11 load(1, XDATA, add(CFA_XSP16, literal(-7)))
          CFI V10 load(1, XDATA, add(CFA_XSP16, literal(-8)))
          CFI V9 load(1, XDATA, add(CFA_XSP16, literal(-9)))
          CFI V8 load(1, XDATA, add(CFA_XSP16, literal(-10)))
          CFI V7 load(1, XDATA, add(CFA_XSP16, literal(-11)))
          CFI V6 load(1, XDATA, add(CFA_XSP16, literal(-12)))
          CFI V5 load(1, XDATA, add(CFA_XSP16, literal(-13)))
          CFI V4 load(1, XDATA, add(CFA_XSP16, literal(-14)))
          CFI V3 load(1, XDATA, add(CFA_XSP16, literal(-15)))
          CFI V2 load(1, XDATA, add(CFA_XSP16, literal(-16)))
          CFI V1 load(1, XDATA, add(CFA_XSP16, literal(-17)))
          CFI V0 load(1, XDATA, add(CFA_XSP16, literal(-18)))
          CFI VB load(1, XDATA, add(CFA_XSP16, literal(-19)))
          CFI R6 load(1, XDATA, add(CFA_XSP16, literal(-20)))
          CFI CFA_SP SP+0
          CFI CFA_XSP16 add(XSP16, 20)
        ; Saved register size: 20
        ; Auto size: 10
        MOV     A,#-0xa
        LCALL   ?ALLOC_XSTACK8
          CFI CFA_XSP16 add(XSP16, 30)
        MOV     ?V0 + 0,R1
        MOV     ?V0 + 6,R2
        MOV     ?V0 + 7,R3
        MOV     ?V0 + 2,R4
        MOV     ?V0 + 3,R5
        MOV     A,#0x20
        LCALL   ?XSTACK_DISP0_8
        MOVX    A,@DPTR
        MOV     ?V0 + 4,A
//  967   uint16 offset = pgOff[pg-OSAL_NV_PAGE_BEG];
        MOV     A,R1
        CLR     C
        RLC     A
        MOV     R0,A
        CLR     A
        RLC     A
        MOV     R1,A
        MOV     A,#(pgOff + 14) & 0xff
        ADD     A,R0
        MOV     ?V0 + 8,A
        MOV     A,#((pgOff - 242) >> 8) & 0xff
        ADDC    A,R1
        MOV     ?V0 + 9,A
        MOV     DPL,?V0 + 8
        MOV     DPH,A
        MOVX    A,@DPTR
        MOV     R6,A
        INC     DPTR
        MOVX    A,@DPTR
        MOV     R7,A
//  968   uint8 rtrn = FALSE;
        MOV     ?V0 + 1,#0x0
//  969   osalNvHdr_t hdr;
//  970 
//  971   if ( pg == pgRes )
        MOV     DPTR,#pgRes
        MOVX    A,@DPTR
        XRL     A,?V0 + 0
        JNZ     ??writeItem_0
//  972   {
//  973     /* Mark reserve page as being active, in process of receiving items.
//  974      * Invoking function must effect a page compaction.
//  975      */
//  976     setPageUse( pg, FALSE );
        ; Setup parameters for call to function setPageUse
        MOV     R2,#0x0
        MOV     R1,?V0 + 0
        LCALL   ??setPageUse?relay
//  977   }
//  978 
//  979   hdr.id = id;
??writeItem_0:
        MOV     A,#0x2
        LCALL   ?XSTACK_DISP0_8
        MOV     A,?V0 + 6
        MOVX    @DPTR,A
        INC     DPTR
        MOV     A,?V0 + 7
        MOVX    @DPTR,A
//  980   hdr.len = len;
        MOV     A,#0x4
        LCALL   ?XSTACK_DISP0_8
        MOV     A,?V0 + 2
        MOVX    @DPTR,A
        INC     DPTR
        MOV     A,?V0 + 3
        MOVX    @DPTR,A
//  981 
//  982   writeWord( pg, offset, (uint8 *)&hdr );
        ; Setup parameters for call to function writeWord
        MOV     A,#0x2
        LCALL   ?XSTACK_DISP0_8
        MOV     R4,DPL
        MOV     R5,DPH
        MOV     A,R6
        MOV     R2,A
        MOV     A,R7
        MOV     R3,A
        MOV     R1,?V0 + 0
        LCALL   ??writeWord?relay
//  983   HalFlashRead(pg, offset, (uint8 *)(&hdr), OSAL_NV_HDR_SIZE);
        ; Setup parameters for call to function HalFlashRead
        MOV     ?V0 + 10,#0x8
        MOV     ?V0 + 11,#0x0
        MOV     R0,#?V0 + 10
        LCALL   ?PUSH_XSTACK_I_TWO
          CFI CFA_XSP16 add(XSP16, 32)
        MOV     A,#0x4
        LCALL   ?XSTACK_DISP0_8
        MOV     R4,DPL
        MOV     R5,DPH
        MOV     A,R6
        MOV     R2,A
        MOV     A,R7
        MOV     R3,A
        MOV     R1,?V0 + 0
        LCALL   ??HalFlashRead?relay
        MOV     A,#0x2
        LCALL   ?DEALLOC_XSTACK8
          CFI CFA_XSP16 add(XSP16, 30)
//  984 
//  985   if ( (hdr.id == id) && (hdr.len == len) )
        MOV     A,#0x2
        LCALL   ?XSTACK_DISP0_8
        MOVX    A,@DPTR
        XRL     A,?V0 + 6
        JNZ     ??writeItem_1
        INC     DPTR
        MOVX    A,@DPTR
        XRL     A,?V0 + 7
??writeItem_1:
        JZ      $+5
        LJMP    ??writeItem_2 & 0xFFFF
        MOV     A,#0x4
        LCALL   ?XSTACK_DISP0_8
        MOVX    A,@DPTR
        XRL     A,?V0 + 2
        JNZ     ??writeItem_3
        INC     DPTR
        MOVX    A,@DPTR
        XRL     A,?V0 + 3
??writeItem_3:
        JZ      $+5
        LJMP    ??writeItem_2 & 0xFFFF
//  986   {
//  987     if ( flag )
        MOV     A,?V0 + 4
        JNZ     $+5
        LJMP    ??writeItem_4 & 0xFFFF
        MOV     A,#0x1e
        LCALL   ?XSTACK_DISP0_8
        MOVX    A,@DPTR
        MOV     ?V0 + 4,A
        INC     DPTR
        MOVX    A,@DPTR
        MOV     ?V0 + 5,A
//  988     {
//  989       uint16 chk = calcChkB( len, buf );
        MOV     DPL,?V0 + 4
        MOV     DPH,A
        MOV     R0,?V0 + 2
        MOV     R1,?V0 + 3
        MOV     A,R0
        ANL     A,#0x3
        MOV     ?V0 + 6,A
        MOV     A,DPL
        ORL     A,DPH
        JNZ     ??writeItem_5
        MOV     A,R0
        MOV     B,#-0x1
        MUL     AB
        MOV     R0,A
        MOV     R2,B
        MOV     B,#-0x1
        MOV     A,R1
        MUL     AB
        ADD     A,R2
        MOV     R1,A
        MOV     A,R0
        MOV     R2,A
        MOV     A,R1
        MOV     R3,A
        SJMP    ??writeItem_6
??writeItem_5:
        MOV     R2,#0x0
        MOV     R3,#0x0
        SJMP    ??writeItem_7
??writeItem_8:
        MOVX    A,@DPTR
        MOV     R4,A
        MOV     A,R2
        ADD     A,R4
        MOV     R2,A
        MOV     A,R3
        ADDC    A,#0x0
        MOV     R3,A
        INC     DPTR
??writeItem_7:
        MOV     A,R0
        MOV     R4,A
        MOV     A,R1
        MOV     R5,A
        MOV     A,R4
        ADD     A,#-0x1
        DEC     R0
        MOV     A,R5
        ADDC    A,#-0x1
        MOV     R1,A
        MOV     A,R4
        ORL     A,R5
        JNZ     ??writeItem_8
??writeItem_6:
        MOV     A,?V0 + 6
        JZ      ??writeItem_9
        MOV     A,#0x4
        CLR     C
        SUBB    A,?V0 + 6
        MOV     R0,A
        SUBB    A,0xE0 /* A   */
        MOV     R1,A
        MOV     A,R0
        MOV     B,#-0x1
        MUL     AB
        MOV     R0,A
        MOV     R4,B
        MOV     B,#-0x1
        MOV     A,R1
        MUL     AB
        ADD     A,R4
        MOV     R1,A
        MOV     A,R2
        ADD     A,R0
        MOV     R2,A
        MOV     A,R3
        ADDC    A,R1
        MOV     R3,A
??writeItem_9:
        MOV     DPL,?XSP + 0
        MOV     DPH,?XSP + 1
        MOV     A,R2
        MOVX    @DPTR,A
        INC     DPTR
        MOV     A,R3
        MOVX    @DPTR,A
//  990 
//  991       offset += OSAL_NV_HDR_SIZE;
        MOV     A,R6
        ADD     A,#0x8
        MOV     R6,A
        MOV     A,R7
        ADDC    A,#0x0
        MOV     R7,A
//  992       if ( buf != NULL )
        MOV     A,?V0 + 4
        ORL     A,?V0 + 5
        JZ      ??writeItem_10
//  993       {
//  994         writeBuf( pg, offset, len, buf );
        ; Setup parameters for call to function writeBuf
        MOV     R0,#?V0 + 4
        LCALL   ?PUSH_XSTACK_I_TWO
          CFI CFA_XSP16 add(XSP16, 32)
        MOV     R4,?V0 + 2
        MOV     R5,?V0 + 3
        MOV     A,R6
        MOV     R2,A
        MOV     A,R7
        MOV     R3,A
        MOV     R1,?V0 + 0
        LCALL   ??writeBuf?relay
        MOV     A,#0x2
        LCALL   ?DEALLOC_XSTACK8
          CFI CFA_XSP16 add(XSP16, 30)
//  995       }
//  996 
//  997       if ( chk == calcChkF( pg, offset, len ) )
??writeItem_10:
        ; Setup parameters for call to function calcChkF
        MOV     R4,?V0 + 2
        MOV     R5,?V0 + 3
        MOV     A,R6
        MOV     R2,A
        MOV     A,R7
        MOV     R3,A
        MOV     R1,?V0 + 0
        LCALL   ??calcChkF?relay
        MOV     ?V0 + 2,R2
        MOV     ?V0 + 3,R3
        MOV     R0,?V0 + 2
        MOV     R1,?V0 + 3
        MOV     DPL,?XSP + 0
        MOV     DPH,?XSP + 1
        MOVX    A,@DPTR
        XRL     A,R0
        JNZ     ??writeItem_11
        INC     DPTR
        MOVX    A,@DPTR
        XRL     A,R1
??writeItem_11:
        JNZ     ??writeItem_2
//  998       {
//  999         writeWordH(pg, (offset-OSAL_NV_WORD_SIZE), (uint8 *)&chk);
        ; Setup parameters for call to function writeWordH
        MOV     DPL,?XSP + 0
        MOV     DPH,?XSP + 1
        MOV     R4,DPL
        MOV     R5,DPH
        MOV     A,R6
        ADD     A,#-0x4
        MOV     R2,A
        MOV     A,R7
        ADDC    A,#-0x1
        MOV     R3,A
        MOV     R1,?V0 + 0
        LCALL   ??writeWordH?relay
// 1000         HalFlashRead(pg, (offset-OSAL_NV_HDR_SIZE), (uint8 *)(&hdr), OSAL_NV_HDR_SIZE);
        ; Setup parameters for call to function HalFlashRead
        MOV     ?V0 + 2,#0x8
        MOV     ?V0 + 3,#0x0
        MOV     R0,#?V0 + 2
        LCALL   ?PUSH_XSTACK_I_TWO
          CFI CFA_XSP16 add(XSP16, 32)
        MOV     A,#0x4
        LCALL   ?XSTACK_DISP0_8
        MOV     R4,DPL
        MOV     R5,DPH
        MOV     A,R6
        ADD     A,#-0x8
        MOV     R2,A
        MOV     A,R7
        ADDC    A,#-0x1
        MOV     R3,A
        MOV     R1,?V0 + 0
        LCALL   ??HalFlashRead?relay
        MOV     A,#0x2
        LCALL   ?DEALLOC_XSTACK8
          CFI CFA_XSP16 add(XSP16, 30)
// 1001 
// 1002         if ( chk == hdr.chk )
        MOV     DPL,?XSP + 0
        MOV     DPH,?XSP + 1
        LCALL   ?Subroutine12 & 0xFFFF
// 1003         {
// 1004           rtrn = pg;
// 1005         }
// 1006       }
// 1007     }
??CrossCallReturnLabel_18:
        MOV     A,#0x6
        LCALL   ?XSTACK_DISP0_8
        MOVX    A,@DPTR
        XRL     A,R0
        JNZ     ??writeItem_12
        INC     DPTR
        MOVX    A,@DPTR
        XRL     A,R1
??writeItem_12:
        JNZ     ??writeItem_2
// 1008     else
// 1009     {
// 1010       rtrn = pg;
??writeItem_4:
        MOV     ?V0 + 1,?V0 + 0
// 1011     }
// 1012   }
// 1013 
// 1014   len = OSAL_NV_ITEM_SIZE( hdr.len );
// 1015   pgOff[pg-OSAL_NV_PAGE_BEG] += len;
??writeItem_2:
        MOV     A,#0x4
        LCALL   ?XSTACK_DISP0_8
        LCALL   ?Subroutine10 & 0xFFFF
??CrossCallReturnLabel_11:
        MOV     R0,A
        MOV     A,R1
        ADDC    A,#0x0
        MOV     R1,A
        MOV     DPL,?V0 + 8
        MOV     DPH,?V0 + 9
        MOVX    A,@DPTR
        ADD     A,R0
        MOVX    @DPTR,A
        INC     DPTR
        MOVX    A,@DPTR
        ADDC    A,R1
        MOVX    @DPTR,A
// 1016 
// 1017   return rtrn;
        MOV     R1,?V0 + 1
        MOV     A,#0xa
        LCALL   ?DEALLOC_XSTACK8
          CFI CFA_XSP16 add(XSP16, 20)
        MOV     R7,#0xc
        LJMP    ?BANKED_LEAVE_XDATA
          CFI EndBlock cfiBlock89
// 1018 }

        RSEG BANKED_CODE:CODE:NOROOT(0)
?Subroutine12:
          CFI Block cfiCond90 Using cfiCommon0
          CFI Function initPage
          CFI Conditional ??CrossCallReturnLabel_15
          CFI R6 load(1, XDATA, add(CFA_XSP16, literal(-18)))
          CFI VB load(1, XDATA, add(CFA_XSP16, literal(-17)))
          CFI V0 load(1, XDATA, add(CFA_XSP16, literal(-16)))
          CFI V1 load(1, XDATA, add(CFA_XSP16, literal(-15)))
          CFI V2 load(1, XDATA, add(CFA_XSP16, literal(-14)))
          CFI V3 load(1, XDATA, add(CFA_XSP16, literal(-13)))
          CFI V4 load(1, XDATA, add(CFA_XSP16, literal(-12)))
          CFI V5 load(1, XDATA, add(CFA_XSP16, literal(-11)))
          CFI V6 load(1, XDATA, add(CFA_XSP16, literal(-10)))
          CFI V7 load(1, XDATA, add(CFA_XSP16, literal(-9)))
          CFI V8 load(1, XDATA, add(CFA_XSP16, literal(-8)))
          CFI V9 load(1, XDATA, add(CFA_XSP16, literal(-7)))
          CFI R7 load(1, XDATA, add(CFA_XSP16, literal(-6)))
          CFI ?RET_LOW load(1, XDATA, add(CFA_XSP16, literal(-5)))
          CFI ?RET_HIGH load(1, XDATA, add(CFA_XSP16, literal(-4)))
          CFI ?BRET_EXT load(1, XDATA, add(CFA_XSP16, literal(-3)))
          CFI DPL0 load(1, XDATA, add(CFA_XSP16, literal(-2)))
          CFI DPH0 load(1, XDATA, add(CFA_XSP16, literal(-1)))
          CFI CFA_SP SP+0
          CFI CFA_XSP16 add(XSP16, 26)
          CFI Block cfiCond91 Using cfiCommon0
          CFI (cfiCond91) Function initPage
          CFI (cfiCond91) Conditional ??CrossCallReturnLabel_16
          CFI (cfiCond91) R6 load(1, XDATA, add(CFA_XSP16, literal(-18)))
          CFI (cfiCond91) VB load(1, XDATA, add(CFA_XSP16, literal(-17)))
          CFI (cfiCond91) V0 load(1, XDATA, add(CFA_XSP16, literal(-16)))
          CFI (cfiCond91) V1 load(1, XDATA, add(CFA_XSP16, literal(-15)))
          CFI (cfiCond91) V2 load(1, XDATA, add(CFA_XSP16, literal(-14)))
          CFI (cfiCond91) V3 load(1, XDATA, add(CFA_XSP16, literal(-13)))
          CFI (cfiCond91) V4 load(1, XDATA, add(CFA_XSP16, literal(-12)))
          CFI (cfiCond91) V5 load(1, XDATA, add(CFA_XSP16, literal(-11)))
          CFI (cfiCond91) V6 load(1, XDATA, add(CFA_XSP16, literal(-10)))
          CFI (cfiCond91) V7 load(1, XDATA, add(CFA_XSP16, literal(-9)))
          CFI (cfiCond91) V8 load(1, XDATA, add(CFA_XSP16, literal(-8)))
          CFI (cfiCond91) V9 load(1, XDATA, add(CFA_XSP16, literal(-7)))
          CFI (cfiCond91) R7 load(1, XDATA, add(CFA_XSP16, literal(-6)))
          CFI (cfiCond91) ?RET_LOW load(1, XDATA, add(CFA_XSP16, literal(-5)))
          CFI (cfiCond91) ?RET_HIGH load(1, XDATA, add(CFA_XSP16, literal(-4)))
          CFI (cfiCond91) ?BRET_EXT load(1, XDATA, add(CFA_XSP16, literal(-3)))
          CFI (cfiCond91) DPL0 load(1, XDATA, add(CFA_XSP16, literal(-2)))
          CFI (cfiCond91) DPH0 load(1, XDATA, add(CFA_XSP16, literal(-1)))
          CFI (cfiCond91) CFA_SP SP+0
          CFI (cfiCond91) CFA_XSP16 add(XSP16, 26)
          CFI Block cfiCond92 Using cfiCommon0
          CFI (cfiCond92) Function initItem
          CFI (cfiCond92) Conditional ??CrossCallReturnLabel_17
          CFI (cfiCond92) R6 load(1, XDATA, add(CFA_XSP16, literal(-15)))
          CFI (cfiCond92) VB load(1, XDATA, add(CFA_XSP16, literal(-14)))
          CFI (cfiCond92) V0 load(1, XDATA, add(CFA_XSP16, literal(-13)))
          CFI (cfiCond92) V1 load(1, XDATA, add(CFA_XSP16, literal(-12)))
          CFI (cfiCond92) V2 load(1, XDATA, add(CFA_XSP16, literal(-11)))
          CFI (cfiCond92) V3 load(1, XDATA, add(CFA_XSP16, literal(-10)))
          CFI (cfiCond92) V4 load(1, XDATA, add(CFA_XSP16, literal(-9)))
          CFI (cfiCond92) V5 load(1, XDATA, add(CFA_XSP16, literal(-8)))
          CFI (cfiCond92) V6 load(1, XDATA, add(CFA_XSP16, literal(-7)))
          CFI (cfiCond92) R7 load(1, XDATA, add(CFA_XSP16, literal(-6)))
          CFI (cfiCond92) ?RET_LOW load(1, XDATA, add(CFA_XSP16, literal(-5)))
          CFI (cfiCond92) ?RET_HIGH load(1, XDATA, add(CFA_XSP16, literal(-4)))
          CFI (cfiCond92) ?BRET_EXT load(1, XDATA, add(CFA_XSP16, literal(-3)))
          CFI (cfiCond92) DPL0 load(1, XDATA, add(CFA_XSP16, literal(-2)))
          CFI (cfiCond92) DPH0 load(1, XDATA, add(CFA_XSP16, literal(-1)))
          CFI (cfiCond92) CFA_SP SP+0
          CFI (cfiCond92) CFA_XSP16 add(XSP16, 15)
          CFI Block cfiCond93 Using cfiCommon0
          CFI (cfiCond93) Function writeItem
          CFI (cfiCond93) Conditional ??CrossCallReturnLabel_18
          CFI (cfiCond93) R6 load(1, XDATA, add(CFA_XSP16, literal(-20)))
          CFI (cfiCond93) VB load(1, XDATA, add(CFA_XSP16, literal(-19)))
          CFI (cfiCond93) V0 load(1, XDATA, add(CFA_XSP16, literal(-18)))
          CFI (cfiCond93) V1 load(1, XDATA, add(CFA_XSP16, literal(-17)))
          CFI (cfiCond93) V2 load(1, XDATA, add(CFA_XSP16, literal(-16)))
          CFI (cfiCond93) V3 load(1, XDATA, add(CFA_XSP16, literal(-15)))
          CFI (cfiCond93) V4 load(1, XDATA, add(CFA_XSP16, literal(-14)))
          CFI (cfiCond93) V5 load(1, XDATA, add(CFA_XSP16, literal(-13)))
          CFI (cfiCond93) V6 load(1, XDATA, add(CFA_XSP16, literal(-12)))
          CFI (cfiCond93) V7 load(1, XDATA, add(CFA_XSP16, literal(-11)))
          CFI (cfiCond93) V8 load(1, XDATA, add(CFA_XSP16, literal(-10)))
          CFI (cfiCond93) V9 load(1, XDATA, add(CFA_XSP16, literal(-9)))
          CFI (cfiCond93) V10 load(1, XDATA, add(CFA_XSP16, literal(-8)))
          CFI (cfiCond93) V11 load(1, XDATA, add(CFA_XSP16, literal(-7)))
          CFI (cfiCond93) R7 load(1, XDATA, add(CFA_XSP16, literal(-6)))
          CFI (cfiCond93) ?RET_LOW load(1, XDATA, add(CFA_XSP16, literal(-5)))
          CFI (cfiCond93) ?RET_HIGH load(1, XDATA, add(CFA_XSP16, literal(-4)))
          CFI (cfiCond93) ?BRET_EXT load(1, XDATA, add(CFA_XSP16, literal(-3)))
          CFI (cfiCond93) DPL0 load(1, XDATA, add(CFA_XSP16, literal(-2)))
          CFI (cfiCond93) DPH0 load(1, XDATA, add(CFA_XSP16, literal(-1)))
          CFI (cfiCond93) CFA_SP SP+0
          CFI (cfiCond93) CFA_XSP16 add(XSP16, 30)
          CFI Block cfiCond94 Using cfiCommon0
          CFI (cfiCond94) Function osal_nv_write
          CFI (cfiCond94) Conditional ??CrossCallReturnLabel_19
          CFI (cfiCond94) R6 load(1, XDATA, add(CFA_XSP16, literal(-24)))
          CFI (cfiCond94) VB load(1, XDATA, add(CFA_XSP16, literal(-23)))
          CFI (cfiCond94) V0 load(1, XDATA, add(CFA_XSP16, literal(-22)))
          CFI (cfiCond94) V1 load(1, XDATA, add(CFA_XSP16, literal(-21)))
          CFI (cfiCond94) V2 load(1, XDATA, add(CFA_XSP16, literal(-20)))
          CFI (cfiCond94) V3 load(1, XDATA, add(CFA_XSP16, literal(-19)))
          CFI (cfiCond94) V4 load(1, XDATA, add(CFA_XSP16, literal(-18)))
          CFI (cfiCond94) V5 load(1, XDATA, add(CFA_XSP16, literal(-17)))
          CFI (cfiCond94) V6 load(1, XDATA, add(CFA_XSP16, literal(-16)))
          CFI (cfiCond94) V7 load(1, XDATA, add(CFA_XSP16, literal(-15)))
          CFI (cfiCond94) V8 load(1, XDATA, add(CFA_XSP16, literal(-14)))
          CFI (cfiCond94) V9 load(1, XDATA, add(CFA_XSP16, literal(-13)))
          CFI (cfiCond94) V10 load(1, XDATA, add(CFA_XSP16, literal(-12)))
          CFI (cfiCond94) V11 load(1, XDATA, add(CFA_XSP16, literal(-11)))
          CFI (cfiCond94) V12 load(1, XDATA, add(CFA_XSP16, literal(-10)))
          CFI (cfiCond94) V13 load(1, XDATA, add(CFA_XSP16, literal(-9)))
          CFI (cfiCond94) V14 load(1, XDATA, add(CFA_XSP16, literal(-8)))
          CFI (cfiCond94) V15 load(1, XDATA, add(CFA_XSP16, literal(-7)))
          CFI (cfiCond94) R7 load(1, XDATA, add(CFA_XSP16, literal(-6)))
          CFI (cfiCond94) ?RET_LOW load(1, XDATA, add(CFA_XSP16, literal(-5)))
          CFI (cfiCond94) ?RET_HIGH load(1, XDATA, add(CFA_XSP16, literal(-4)))
          CFI (cfiCond94) ?BRET_EXT load(1, XDATA, add(CFA_XSP16, literal(-3)))
          CFI (cfiCond94) DPL0 load(1, XDATA, add(CFA_XSP16, literal(-2)))
          CFI (cfiCond94) DPH0 load(1, XDATA, add(CFA_XSP16, literal(-1)))
          CFI (cfiCond94) CFA_SP SP+0
          CFI (cfiCond94) CFA_XSP16 add(XSP16, 37)
          CFI Block cfiCond95 Using cfiCommon0
          CFI (cfiCond95) Function osal_nv_write
          CFI (cfiCond95) Conditional ??CrossCallReturnLabel_20
          CFI (cfiCond95) R6 load(1, XDATA, add(CFA_XSP16, literal(-24)))
          CFI (cfiCond95) VB load(1, XDATA, add(CFA_XSP16, literal(-23)))
          CFI (cfiCond95) V0 load(1, XDATA, add(CFA_XSP16, literal(-22)))
          CFI (cfiCond95) V1 load(1, XDATA, add(CFA_XSP16, literal(-21)))
          CFI (cfiCond95) V2 load(1, XDATA, add(CFA_XSP16, literal(-20)))
          CFI (cfiCond95) V3 load(1, XDATA, add(CFA_XSP16, literal(-19)))
          CFI (cfiCond95) V4 load(1, XDATA, add(CFA_XSP16, literal(-18)))
          CFI (cfiCond95) V5 load(1, XDATA, add(CFA_XSP16, literal(-17)))
          CFI (cfiCond95) V6 load(1, XDATA, add(CFA_XSP16, literal(-16)))
          CFI (cfiCond95) V7 load(1, XDATA, add(CFA_XSP16, literal(-15)))
          CFI (cfiCond95) V8 load(1, XDATA, add(CFA_XSP16, literal(-14)))
          CFI (cfiCond95) V9 load(1, XDATA, add(CFA_XSP16, literal(-13)))
          CFI (cfiCond95) V10 load(1, XDATA, add(CFA_XSP16, literal(-12)))
          CFI (cfiCond95) V11 load(1, XDATA, add(CFA_XSP16, literal(-11)))
          CFI (cfiCond95) V12 load(1, XDATA, add(CFA_XSP16, literal(-10)))
          CFI (cfiCond95) V13 load(1, XDATA, add(CFA_XSP16, literal(-9)))
          CFI (cfiCond95) V14 load(1, XDATA, add(CFA_XSP16, literal(-8)))
          CFI (cfiCond95) V15 load(1, XDATA, add(CFA_XSP16, literal(-7)))
          CFI (cfiCond95) R7 load(1, XDATA, add(CFA_XSP16, literal(-6)))
          CFI (cfiCond95) ?RET_LOW load(1, XDATA, add(CFA_XSP16, literal(-5)))
          CFI (cfiCond95) ?RET_HIGH load(1, XDATA, add(CFA_XSP16, literal(-4)))
          CFI (cfiCond95) ?BRET_EXT load(1, XDATA, add(CFA_XSP16, literal(-3)))
          CFI (cfiCond95) DPL0 load(1, XDATA, add(CFA_XSP16, literal(-2)))
          CFI (cfiCond95) DPH0 load(1, XDATA, add(CFA_XSP16, literal(-1)))
          CFI (cfiCond95) CFA_SP SP+-2
          CFI (cfiCond95) CFA_XSP16 add(XSP16, 37)
          CFI Block cfiCond96 Using cfiCommon0
          CFI (cfiCond96) Function osal_nv_write
          CFI (cfiCond96) Conditional ??CrossCallReturnLabel_21
          CFI (cfiCond96) R6 load(1, XDATA, add(CFA_XSP16, literal(-24)))
          CFI (cfiCond96) VB load(1, XDATA, add(CFA_XSP16, literal(-23)))
          CFI (cfiCond96) V0 load(1, XDATA, add(CFA_XSP16, literal(-22)))
          CFI (cfiCond96) V1 load(1, XDATA, add(CFA_XSP16, literal(-21)))
          CFI (cfiCond96) V2 load(1, XDATA, add(CFA_XSP16, literal(-20)))
          CFI (cfiCond96) V3 load(1, XDATA, add(CFA_XSP16, literal(-19)))
          CFI (cfiCond96) V4 load(1, XDATA, add(CFA_XSP16, literal(-18)))
          CFI (cfiCond96) V5 load(1, XDATA, add(CFA_XSP16, literal(-17)))
          CFI (cfiCond96) V6 load(1, XDATA, add(CFA_XSP16, literal(-16)))
          CFI (cfiCond96) V7 load(1, XDATA, add(CFA_XSP16, literal(-15)))
          CFI (cfiCond96) V8 load(1, XDATA, add(CFA_XSP16, literal(-14)))
          CFI (cfiCond96) V9 load(1, XDATA, add(CFA_XSP16, literal(-13)))
          CFI (cfiCond96) V10 load(1, XDATA, add(CFA_XSP16, literal(-12)))
          CFI (cfiCond96) V11 load(1, XDATA, add(CFA_XSP16, literal(-11)))
          CFI (cfiCond96) V12 load(1, XDATA, add(CFA_XSP16, literal(-10)))
          CFI (cfiCond96) V13 load(1, XDATA, add(CFA_XSP16, literal(-9)))
          CFI (cfiCond96) V14 load(1, XDATA, add(CFA_XSP16, literal(-8)))
          CFI (cfiCond96) V15 load(1, XDATA, add(CFA_XSP16, literal(-7)))
          CFI (cfiCond96) R7 load(1, XDATA, add(CFA_XSP16, literal(-6)))
          CFI (cfiCond96) ?RET_LOW load(1, XDATA, add(CFA_XSP16, literal(-5)))
          CFI (cfiCond96) ?RET_HIGH load(1, XDATA, add(CFA_XSP16, literal(-4)))
          CFI (cfiCond96) ?BRET_EXT load(1, XDATA, add(CFA_XSP16, literal(-3)))
          CFI (cfiCond96) DPL0 load(1, XDATA, add(CFA_XSP16, literal(-2)))
          CFI (cfiCond96) DPH0 load(1, XDATA, add(CFA_XSP16, literal(-1)))
          CFI (cfiCond96) CFA_SP SP+-2
          CFI (cfiCond96) CFA_XSP16 add(XSP16, 37)
          CFI Block cfiCond97 Using cfiCommon0
          CFI (cfiCond97) Function osal_nv_write
          CFI (cfiCond97) Conditional ??CrossCallReturnLabel_22
          CFI (cfiCond97) R6 load(1, XDATA, add(CFA_XSP16, literal(-24)))
          CFI (cfiCond97) VB load(1, XDATA, add(CFA_XSP16, literal(-23)))
          CFI (cfiCond97) V0 load(1, XDATA, add(CFA_XSP16, literal(-22)))
          CFI (cfiCond97) V1 load(1, XDATA, add(CFA_XSP16, literal(-21)))
          CFI (cfiCond97) V2 load(1, XDATA, add(CFA_XSP16, literal(-20)))
          CFI (cfiCond97) V3 load(1, XDATA, add(CFA_XSP16, literal(-19)))
          CFI (cfiCond97) V4 load(1, XDATA, add(CFA_XSP16, literal(-18)))
          CFI (cfiCond97) V5 load(1, XDATA, add(CFA_XSP16, literal(-17)))
          CFI (cfiCond97) V6 load(1, XDATA, add(CFA_XSP16, literal(-16)))
          CFI (cfiCond97) V7 load(1, XDATA, add(CFA_XSP16, literal(-15)))
          CFI (cfiCond97) V8 load(1, XDATA, add(CFA_XSP16, literal(-14)))
          CFI (cfiCond97) V9 load(1, XDATA, add(CFA_XSP16, literal(-13)))
          CFI (cfiCond97) V10 load(1, XDATA, add(CFA_XSP16, literal(-12)))
          CFI (cfiCond97) V11 load(1, XDATA, add(CFA_XSP16, literal(-11)))
          CFI (cfiCond97) V12 load(1, XDATA, add(CFA_XSP16, literal(-10)))
          CFI (cfiCond97) V13 load(1, XDATA, add(CFA_XSP16, literal(-9)))
          CFI (cfiCond97) V14 load(1, XDATA, add(CFA_XSP16, literal(-8)))
          CFI (cfiCond97) V15 load(1, XDATA, add(CFA_XSP16, literal(-7)))
          CFI (cfiCond97) R7 load(1, XDATA, add(CFA_XSP16, literal(-6)))
          CFI (cfiCond97) ?RET_LOW load(1, XDATA, add(CFA_XSP16, literal(-5)))
          CFI (cfiCond97) ?RET_HIGH load(1, XDATA, add(CFA_XSP16, literal(-4)))
          CFI (cfiCond97) ?BRET_EXT load(1, XDATA, add(CFA_XSP16, literal(-3)))
          CFI (cfiCond97) DPL0 load(1, XDATA, add(CFA_XSP16, literal(-2)))
          CFI (cfiCond97) DPH0 load(1, XDATA, add(CFA_XSP16, literal(-1)))
          CFI (cfiCond97) CFA_SP SP+0
          CFI (cfiCond97) CFA_XSP16 add(XSP16, 37)
          CFI Block cfiPicker98 Using cfiCommon1
          CFI (cfiPicker98) NoFunction
          CFI (cfiPicker98) Picker
        MOVX    A,@DPTR
        MOV     R0,A
        INC     DPTR
        MOVX    A,@DPTR
        MOV     R1,A
        RET
          CFI EndBlock cfiCond90
          CFI EndBlock cfiCond91
          CFI EndBlock cfiCond92
          CFI EndBlock cfiCond93
          CFI EndBlock cfiCond94
          CFI EndBlock cfiCond95
          CFI EndBlock cfiCond96
          CFI EndBlock cfiCond97
          CFI EndBlock cfiPicker98

        RSEG BANKED_CODE:CODE:NOROOT(0)
?Subroutine10:
          CFI Block cfiCond99 Using cfiCommon0
          CFI Function setItem
          CFI Conditional ??CrossCallReturnLabel_10
          CFI R6 load(1, XDATA, add(CFA_XSP16, literal(-14)))
          CFI VB load(1, XDATA, add(CFA_XSP16, literal(-13)))
          CFI V0 load(1, XDATA, add(CFA_XSP16, literal(-12)))
          CFI V1 load(1, XDATA, add(CFA_XSP16, literal(-11)))
          CFI V2 load(1, XDATA, add(CFA_XSP16, literal(-10)))
          CFI V3 load(1, XDATA, add(CFA_XSP16, literal(-9)))
          CFI V4 load(1, XDATA, add(CFA_XSP16, literal(-8)))
          CFI V5 load(1, XDATA, add(CFA_XSP16, literal(-7)))
          CFI R7 load(1, XDATA, add(CFA_XSP16, literal(-6)))
          CFI ?RET_LOW load(1, XDATA, add(CFA_XSP16, literal(-5)))
          CFI ?RET_HIGH load(1, XDATA, add(CFA_XSP16, literal(-4)))
          CFI ?BRET_EXT load(1, XDATA, add(CFA_XSP16, literal(-3)))
          CFI DPL0 load(1, XDATA, add(CFA_XSP16, literal(-2)))
          CFI DPH0 load(1, XDATA, add(CFA_XSP16, literal(-1)))
          CFI CFA_SP SP+0
          CFI CFA_XSP16 add(XSP16, 22)
          CFI Block cfiCond100 Using cfiCommon0
          CFI (cfiCond100) Function writeItem
          CFI (cfiCond100) Conditional ??CrossCallReturnLabel_11
          CFI (cfiCond100) R6 load(1, XDATA, add(CFA_XSP16, literal(-20)))
          CFI (cfiCond100) VB load(1, XDATA, add(CFA_XSP16, literal(-19)))
          CFI (cfiCond100) V0 load(1, XDATA, add(CFA_XSP16, literal(-18)))
          CFI (cfiCond100) V1 load(1, XDATA, add(CFA_XSP16, literal(-17)))
          CFI (cfiCond100) V2 load(1, XDATA, add(CFA_XSP16, literal(-16)))
          CFI (cfiCond100) V3 load(1, XDATA, add(CFA_XSP16, literal(-15)))
          CFI (cfiCond100) V4 load(1, XDATA, add(CFA_XSP16, literal(-14)))
          CFI (cfiCond100) V5 load(1, XDATA, add(CFA_XSP16, literal(-13)))
          CFI (cfiCond100) V6 load(1, XDATA, add(CFA_XSP16, literal(-12)))
          CFI (cfiCond100) V7 load(1, XDATA, add(CFA_XSP16, literal(-11)))
          CFI (cfiCond100) V8 load(1, XDATA, add(CFA_XSP16, literal(-10)))
          CFI (cfiCond100) V9 load(1, XDATA, add(CFA_XSP16, literal(-9)))
          CFI (cfiCond100) V10 load(1, XDATA, add(CFA_XSP16, literal(-8)))
          CFI (cfiCond100) V11 load(1, XDATA, add(CFA_XSP16, literal(-7)))
          CFI (cfiCond100) R7 load(1, XDATA, add(CFA_XSP16, literal(-6)))
          CFI (cfiCond100) ?RET_LOW load(1, XDATA, add(CFA_XSP16, literal(-5)))
          CFI (cfiCond100) ?RET_HIGH load(1, XDATA, add(CFA_XSP16, literal(-4)))
          CFI (cfiCond100) ?BRET_EXT load(1, XDATA, add(CFA_XSP16, literal(-3)))
          CFI (cfiCond100) DPL0 load(1, XDATA, add(CFA_XSP16, literal(-2)))
          CFI (cfiCond100) DPH0 load(1, XDATA, add(CFA_XSP16, literal(-1)))
          CFI (cfiCond100) CFA_SP SP+0
          CFI (cfiCond100) CFA_XSP16 add(XSP16, 30)
          CFI Block cfiPicker101 Using cfiCommon1
          CFI (cfiPicker101) NoFunction
          CFI (cfiPicker101) Picker
        LCALL   ?Subroutine25 & 0xFFFF
??CrossCallReturnLabel_53:
        ADD     A,#0x8
        RET
          CFI EndBlock cfiCond99
          CFI EndBlock cfiCond100
          CFI EndBlock cfiPicker101
// 1019 
// 1020 /*********************************************************************
// 1021  * @fn      osal_nv_init
// 1022  *
// 1023  * @brief   Initialize NV service.
// 1024  *
// 1025  * @param   p - Not used.
// 1026  *
// 1027  * @return  none
// 1028  */

        RSEG BANKED_CODE:CODE:NOROOT(0)
// 1029 void osal_nv_init( void *p )
osal_nv_init:
          CFI Block cfiBlock102 Using cfiCommon0
          CFI Function osal_nv_init
        CODE
// 1030 {
        FUNCALL osal_nv_init, initNV
        LOCFRAME ISTACK, 2, STACK
        LOCFRAME PSTACK, 0, STACK
        LOCFRAME XSTACK, 0, STACK
        LOCFRAME IOVERLAY, 0, STATIC
        LOCFRAME DOVERLAY, 0, STATIC
        ARGFRAME ISTACK, 2, STACK
        ARGFRAME PSTACK, 0, STACK
        ARGFRAME XSTACK, 0, STACK
        ARGFRAME IOVERLAY, 0, STATIC
        ARGFRAME DOVERLAY, 0, STATIC
        PUSH    DPL
          CFI DPL0 Frame(CFA_SP, 4)
          CFI CFA_SP SP+-4
        PUSH    DPH
          CFI DPH0 Frame(CFA_SP, 5)
          CFI CFA_SP SP+-5
        ; Saved register size: 2
        ; Auto size: 0
// 1031   (void)p;  // Suppress Lint warning.
// 1032   (void)initNV();  // Always returns TRUE after pages have been erased.
        ; Setup parameters for call to function initNV
        LCALL   ??initNV?relay
// 1033 }
        POP     DPH
          CFI DPH0 SameValue
          CFI CFA_SP SP+-4
        POP     DPL
          CFI DPL0 SameValue
          CFI CFA_SP SP+-3
        LJMP    ?BRET
          CFI EndBlock cfiBlock102
// 1034 
// 1035 /*********************************************************************
// 1036  * @fn      osal_nv_item_init
// 1037  *
// 1038  * @brief   If the NV item does not already exist, it is created and
// 1039  *          initialized with the data passed to the function, if any.
// 1040  *          This function must be called before calling osal_nv_read() or
// 1041  *          osal_nv_write().
// 1042  *
// 1043  * @param   id  - Valid NV item Id.
// 1044  * @param   len - Item length.
// 1045  * @param  *buf - Pointer to item initalization data. Set to NULL if none.
// 1046  *
// 1047  * @return  NV_ITEM_UNINIT - Id did not exist and was created successfully.
// 1048  *          ZSUCCESS       - Id already existed, no action taken.
// 1049  *          NV_OPER_FAILED - Failure to find or create Id.
// 1050  */

        RSEG BANKED_CODE:CODE:NOROOT(0)
// 1051 uint8 osal_nv_item_init( uint16 id, uint16 len, void *buf )
osal_nv_item_init:
          CFI Block cfiBlock103 Using cfiCommon0
          CFI Function osal_nv_item_init
        CODE
// 1052 {
        FUNCALL osal_nv_item_init, findItem
        LOCFRAME ISTACK, 0, STACK
        LOCFRAME PSTACK, 0, STACK
        LOCFRAME XSTACK, 14, STACK
        LOCFRAME IOVERLAY, 0, STATIC
        LOCFRAME DOVERLAY, 0, STATIC
        ARGFRAME ISTACK, 0, STACK
        ARGFRAME PSTACK, 0, STACK
        ARGFRAME XSTACK, 14, STACK
        ARGFRAME IOVERLAY, 0, STATIC
        ARGFRAME DOVERLAY, 0, STATIC
        FUNCALL osal_nv_item_init, initItem
        LOCFRAME ISTACK, 0, STACK
        LOCFRAME PSTACK, 0, STACK
        LOCFRAME XSTACK, 16, STACK
        LOCFRAME IOVERLAY, 0, STATIC
        LOCFRAME DOVERLAY, 0, STATIC
        ARGFRAME ISTACK, 0, STACK
        ARGFRAME PSTACK, 0, STACK
        ARGFRAME XSTACK, 16, STACK
        ARGFRAME IOVERLAY, 0, STATIC
        ARGFRAME DOVERLAY, 0, STATIC
        FUNCALL osal_nv_item_init, initNV
        LOCFRAME ISTACK, 0, STACK
        LOCFRAME PSTACK, 0, STACK
        LOCFRAME XSTACK, 14, STACK
        LOCFRAME IOVERLAY, 0, STATIC
        LOCFRAME DOVERLAY, 0, STATIC
        ARGFRAME ISTACK, 0, STACK
        ARGFRAME PSTACK, 0, STACK
        ARGFRAME XSTACK, 14, STACK
        ARGFRAME IOVERLAY, 0, STATIC
        ARGFRAME DOVERLAY, 0, STATIC
        MOV     A,#-0xe
        LCALL   ?BANKED_ENTER_XDATA
          CFI DPH0 load(1, XDATA, add(CFA_XSP16, literal(-1)))
          CFI DPL0 load(1, XDATA, add(CFA_XSP16, literal(-2)))
          CFI ?BRET_EXT load(1, XDATA, add(CFA_XSP16, literal(-3)))
          CFI ?RET_HIGH load(1, XDATA, add(CFA_XSP16, literal(-4)))
          CFI ?RET_LOW load(1, XDATA, add(CFA_XSP16, literal(-5)))
          CFI R7 load(1, XDATA, add(CFA_XSP16, literal(-6)))
          CFI V5 load(1, XDATA, add(CFA_XSP16, literal(-7)))
          CFI V4 load(1, XDATA, add(CFA_XSP16, literal(-8)))
          CFI V3 load(1, XDATA, add(CFA_XSP16, literal(-9)))
          CFI V2 load(1, XDATA, add(CFA_XSP16, literal(-10)))
          CFI V1 load(1, XDATA, add(CFA_XSP16, literal(-11)))
          CFI V0 load(1, XDATA, add(CFA_XSP16, literal(-12)))
          CFI VB load(1, XDATA, add(CFA_XSP16, literal(-13)))
          CFI R6 load(1, XDATA, add(CFA_XSP16, literal(-14)))
          CFI CFA_SP SP+0
          CFI CFA_XSP16 add(XSP16, 14)
        ; Saved register size: 14
        ; Auto size: 0
        MOV     A,R2
        MOV     R6,A
        MOV     A,R3
        MOV     R7,A
        MOV     ?V0 + 0,R4
        MOV     ?V0 + 1,R5
        MOV     A,#0xe
        LCALL   ?XSTACK_DISP0_8
        LCALL   ?Subroutine9 & 0xFFFF
// 1053   /* Global fail flag for fail due to low bus voltage has less impact on code
// 1054    * size than passing back a return value all the way from the lowest level.
// 1055    */
// 1056   failF = FALSE;
??CrossCallReturnLabel_8:
        MOV     DPTR,#failF
        CLR     A
        MOVX    @DPTR,A
// 1057 
// 1058   if ( (findItem( id ) != OSAL_NV_ITEM_NULL) )
        ; Setup parameters for call to function findItem
        LCALL   ??findItem?relay
        MOV     ?V0 + 5,R3
        MOV     A,R2
        ORL     A,?V0 + 5
        JZ      ??osal_nv_item_init_0
// 1059   {
// 1060     return ZSUCCESS;
        MOV     R1,#0x0
        SJMP    ??osal_nv_item_init_1
// 1061   }
// 1062   else if ( initItem( TRUE, id, len, buf ) )
??osal_nv_item_init_0:
        ; Setup parameters for call to function initItem
        MOV     R0,#?V0 + 2
        LCALL   ?PUSH_XSTACK_I_TWO
          CFI CFA_XSP16 add(XSP16, 16)
        MOV     R4,?V0 + 0
        MOV     R5,?V0 + 1
        MOV     A,R6
        MOV     R2,A
        MOV     A,R7
        MOV     R3,A
        MOV     R1,#0x1
        LCALL   ??initItem?relay
        MOV     A,#0x2
        LCALL   ?DEALLOC_XSTACK8
          CFI CFA_XSP16 add(XSP16, 14)
        MOV     A,R1
        JZ      ??osal_nv_item_init_2
// 1063   {
// 1064     if ( failF )
        MOV     DPTR,#failF
        MOVX    A,@DPTR
        JZ      ??osal_nv_item_init_3
// 1065     {
// 1066       (void)initNV();  // See comment at the declaration of failF.
        ; Setup parameters for call to function initNV
        LCALL   ??initNV?relay
// 1067       return NV_OPER_FAILED;
        SJMP    ??osal_nv_item_init_2
// 1068     }
// 1069     else
// 1070     {
// 1071       return NV_ITEM_UNINIT;
??osal_nv_item_init_3:
        MOV     R1,#0x9
        SJMP    ??osal_nv_item_init_1
// 1072     }
// 1073   }
// 1074   else
// 1075   {
// 1076     return NV_OPER_FAILED;
??osal_nv_item_init_2:
        MOV     R1,#0xa
// 1077   }
??osal_nv_item_init_1:
        SJMP    ??Subroutine33_0
          CFI EndBlock cfiBlock103
// 1078 }

        RSEG BANKED_CODE:CODE:NOROOT(0)
?Subroutine9:
          CFI Block cfiCond104 Using cfiCommon0
          CFI Function initItem
          CFI Conditional ??CrossCallReturnLabel_6
          CFI R6 load(1, XDATA, add(CFA_XSP16, literal(-15)))
          CFI VB load(1, XDATA, add(CFA_XSP16, literal(-14)))
          CFI V0 load(1, XDATA, add(CFA_XSP16, literal(-13)))
          CFI V1 load(1, XDATA, add(CFA_XSP16, literal(-12)))
          CFI V2 load(1, XDATA, add(CFA_XSP16, literal(-11)))
          CFI V3 load(1, XDATA, add(CFA_XSP16, literal(-10)))
          CFI V4 load(1, XDATA, add(CFA_XSP16, literal(-9)))
          CFI V5 load(1, XDATA, add(CFA_XSP16, literal(-8)))
          CFI V6 load(1, XDATA, add(CFA_XSP16, literal(-7)))
          CFI R7 load(1, XDATA, add(CFA_XSP16, literal(-6)))
          CFI ?RET_LOW load(1, XDATA, add(CFA_XSP16, literal(-5)))
          CFI ?RET_HIGH load(1, XDATA, add(CFA_XSP16, literal(-4)))
          CFI ?BRET_EXT load(1, XDATA, add(CFA_XSP16, literal(-3)))
          CFI DPL0 load(1, XDATA, add(CFA_XSP16, literal(-2)))
          CFI DPH0 load(1, XDATA, add(CFA_XSP16, literal(-1)))
          CFI CFA_SP SP+0
          CFI CFA_XSP16 add(XSP16, 15)
          CFI Block cfiCond105 Using cfiCommon0
          CFI (cfiCond105) Function writeBuf
          CFI (cfiCond105) Conditional ??CrossCallReturnLabel_7
          CFI (cfiCond105) R6 load(1, XDATA, add(CFA_XSP16, literal(-18)))
          CFI (cfiCond105) VB load(1, XDATA, add(CFA_XSP16, literal(-17)))
          CFI (cfiCond105) V0 load(1, XDATA, add(CFA_XSP16, literal(-16)))
          CFI (cfiCond105) V1 load(1, XDATA, add(CFA_XSP16, literal(-15)))
          CFI (cfiCond105) V2 load(1, XDATA, add(CFA_XSP16, literal(-14)))
          CFI (cfiCond105) V3 load(1, XDATA, add(CFA_XSP16, literal(-13)))
          CFI (cfiCond105) V4 load(1, XDATA, add(CFA_XSP16, literal(-12)))
          CFI (cfiCond105) V5 load(1, XDATA, add(CFA_XSP16, literal(-11)))
          CFI (cfiCond105) V6 load(1, XDATA, add(CFA_XSP16, literal(-10)))
          CFI (cfiCond105) V7 load(1, XDATA, add(CFA_XSP16, literal(-9)))
          CFI (cfiCond105) V8 load(1, XDATA, add(CFA_XSP16, literal(-8)))
          CFI (cfiCond105) V9 load(1, XDATA, add(CFA_XSP16, literal(-7)))
          CFI (cfiCond105) R7 load(1, XDATA, add(CFA_XSP16, literal(-6)))
          CFI (cfiCond105) ?RET_LOW load(1, XDATA, add(CFA_XSP16, literal(-5)))
          CFI (cfiCond105) ?RET_HIGH load(1, XDATA, add(CFA_XSP16, literal(-4)))
          CFI (cfiCond105) ?BRET_EXT load(1, XDATA, add(CFA_XSP16, literal(-3)))
          CFI (cfiCond105) DPL0 load(1, XDATA, add(CFA_XSP16, literal(-2)))
          CFI (cfiCond105) DPH0 load(1, XDATA, add(CFA_XSP16, literal(-1)))
          CFI (cfiCond105) CFA_SP SP+0
          CFI (cfiCond105) CFA_XSP16 add(XSP16, 22)
          CFI Block cfiCond106 Using cfiCommon0
          CFI (cfiCond106) Function osal_nv_item_init
          CFI (cfiCond106) Conditional ??CrossCallReturnLabel_8
          CFI (cfiCond106) R6 load(1, XDATA, add(CFA_XSP16, literal(-14)))
          CFI (cfiCond106) VB load(1, XDATA, add(CFA_XSP16, literal(-13)))
          CFI (cfiCond106) V0 load(1, XDATA, add(CFA_XSP16, literal(-12)))
          CFI (cfiCond106) V1 load(1, XDATA, add(CFA_XSP16, literal(-11)))
          CFI (cfiCond106) V2 load(1, XDATA, add(CFA_XSP16, literal(-10)))
          CFI (cfiCond106) V3 load(1, XDATA, add(CFA_XSP16, literal(-9)))
          CFI (cfiCond106) V4 load(1, XDATA, add(CFA_XSP16, literal(-8)))
          CFI (cfiCond106) V5 load(1, XDATA, add(CFA_XSP16, literal(-7)))
          CFI (cfiCond106) R7 load(1, XDATA, add(CFA_XSP16, literal(-6)))
          CFI (cfiCond106) ?RET_LOW load(1, XDATA, add(CFA_XSP16, literal(-5)))
          CFI (cfiCond106) ?RET_HIGH load(1, XDATA, add(CFA_XSP16, literal(-4)))
          CFI (cfiCond106) ?BRET_EXT load(1, XDATA, add(CFA_XSP16, literal(-3)))
          CFI (cfiCond106) DPL0 load(1, XDATA, add(CFA_XSP16, literal(-2)))
          CFI (cfiCond106) DPH0 load(1, XDATA, add(CFA_XSP16, literal(-1)))
          CFI (cfiCond106) CFA_SP SP+0
          CFI (cfiCond106) CFA_XSP16 add(XSP16, 14)
          CFI Block cfiCond107 Using cfiCommon0
          CFI (cfiCond107) Function osal_nv_read
          CFI (cfiCond107) Conditional ??CrossCallReturnLabel_9
          CFI (cfiCond107) R6 load(1, XDATA, add(CFA_XSP16, literal(-14)))
          CFI (cfiCond107) VB load(1, XDATA, add(CFA_XSP16, literal(-13)))
          CFI (cfiCond107) V0 load(1, XDATA, add(CFA_XSP16, literal(-12)))
          CFI (cfiCond107) V1 load(1, XDATA, add(CFA_XSP16, literal(-11)))
          CFI (cfiCond107) V2 load(1, XDATA, add(CFA_XSP16, literal(-10)))
          CFI (cfiCond107) V3 load(1, XDATA, add(CFA_XSP16, literal(-9)))
          CFI (cfiCond107) V4 load(1, XDATA, add(CFA_XSP16, literal(-8)))
          CFI (cfiCond107) V5 load(1, XDATA, add(CFA_XSP16, literal(-7)))
          CFI (cfiCond107) R7 load(1, XDATA, add(CFA_XSP16, literal(-6)))
          CFI (cfiCond107) ?RET_LOW load(1, XDATA, add(CFA_XSP16, literal(-5)))
          CFI (cfiCond107) ?RET_HIGH load(1, XDATA, add(CFA_XSP16, literal(-4)))
          CFI (cfiCond107) ?BRET_EXT load(1, XDATA, add(CFA_XSP16, literal(-3)))
          CFI (cfiCond107) DPL0 load(1, XDATA, add(CFA_XSP16, literal(-2)))
          CFI (cfiCond107) DPH0 load(1, XDATA, add(CFA_XSP16, literal(-1)))
          CFI (cfiCond107) CFA_SP SP+0
          CFI (cfiCond107) CFA_XSP16 add(XSP16, 14)
          CFI Block cfiPicker108 Using cfiCommon1
          CFI (cfiPicker108) NoFunction
          CFI (cfiPicker108) Picker
        MOVX    A,@DPTR
        MOV     ?V0 + 2,A
        INC     DPTR
        MOVX    A,@DPTR
        MOV     ?V0 + 3,A
        RET
          CFI EndBlock cfiCond104
          CFI EndBlock cfiCond105
          CFI EndBlock cfiCond106
          CFI EndBlock cfiCond107
          CFI EndBlock cfiPicker108

        RSEG BANKED_CODE:CODE:NOROOT(0)
?Subroutine3:
          CFI Block cfiBlock109 Using cfiCommon0
          CFI NoFunction
          CFI CFA_SP SP+0
          CFI CFA_XSP16 add(XSP16, 24)
          CFI VB load(1, XDATA, add(CFA_XSP16, literal(-13)))
          CFI DPL0 load(1, XDATA, add(CFA_XSP16, literal(-2)))
          CFI DPH0 load(1, XDATA, add(CFA_XSP16, literal(-1)))
          CFI R6 load(1, XDATA, add(CFA_XSP16, literal(-14)))
          CFI R7 load(1, XDATA, add(CFA_XSP16, literal(-6)))
          CFI V0 load(1, XDATA, add(CFA_XSP16, literal(-12)))
          CFI V1 load(1, XDATA, add(CFA_XSP16, literal(-11)))
          CFI V2 load(1, XDATA, add(CFA_XSP16, literal(-10)))
          CFI V3 load(1, XDATA, add(CFA_XSP16, literal(-9)))
          CFI V4 load(1, XDATA, add(CFA_XSP16, literal(-8)))
          CFI V5 load(1, XDATA, add(CFA_XSP16, literal(-7)))
          CFI ?BRET_EXT load(1, XDATA, add(CFA_XSP16, literal(-3)))
          CFI ?RET_HIGH load(1, XDATA, add(CFA_XSP16, literal(-4)))
          CFI ?RET_LOW load(1, XDATA, add(CFA_XSP16, literal(-5)))
          CFI Invalid
        LCALL   ?DEALLOC_XSTACK8
          CFI EndBlock cfiBlock109
        REQUIRE ??Subroutine33_0
        ; // Fall through to label ??Subroutine33_0

        RSEG BANKED_CODE:CODE:NOROOT(0)
??Subroutine33_0:
          CFI Block cfiBlock110 Using cfiCommon0
          CFI NoFunction
          CFI CFA_SP SP+0
          CFI CFA_XSP16 add(XSP16, 14)
          CFI VB load(1, XDATA, add(CFA_XSP16, literal(-13)))
          CFI DPL0 load(1, XDATA, add(CFA_XSP16, literal(-2)))
          CFI DPH0 load(1, XDATA, add(CFA_XSP16, literal(-1)))
          CFI R6 load(1, XDATA, add(CFA_XSP16, literal(-14)))
          CFI R7 load(1, XDATA, add(CFA_XSP16, literal(-6)))
          CFI V0 load(1, XDATA, add(CFA_XSP16, literal(-12)))
          CFI V1 load(1, XDATA, add(CFA_XSP16, literal(-11)))
          CFI V2 load(1, XDATA, add(CFA_XSP16, literal(-10)))
          CFI V3 load(1, XDATA, add(CFA_XSP16, literal(-9)))
          CFI V4 load(1, XDATA, add(CFA_XSP16, literal(-8)))
          CFI V5 load(1, XDATA, add(CFA_XSP16, literal(-7)))
          CFI ?BRET_EXT load(1, XDATA, add(CFA_XSP16, literal(-3)))
          CFI ?RET_HIGH load(1, XDATA, add(CFA_XSP16, literal(-4)))
          CFI ?RET_LOW load(1, XDATA, add(CFA_XSP16, literal(-5)))
        MOV     R7,#0x6
        LJMP    ?BANKED_LEAVE_XDATA
          CFI EndBlock cfiBlock110
// 1079 
// 1080 /*********************************************************************
// 1081  * @fn      osal_nv_item_len
// 1082  *
// 1083  * @brief   Get the data length of the item stored in NV memory.
// 1084  *
// 1085  * @param   id  - Valid NV item Id.
// 1086  *
// 1087  * @return  Item length, if found; zero otherwise.
// 1088  */

        RSEG BANKED_CODE:CODE:NOROOT(0)
// 1089 uint16 osal_nv_item_len( uint16 id )
osal_nv_item_len:
          CFI Block cfiBlock111 Using cfiCommon0
          CFI Function osal_nv_item_len
        CODE
// 1090 {
        FUNCALL osal_nv_item_len, findItem
        LOCFRAME ISTACK, 0, STACK
        LOCFRAME PSTACK, 0, STACK
        LOCFRAME XSTACK, 18, STACK
        LOCFRAME IOVERLAY, 0, STATIC
        LOCFRAME DOVERLAY, 0, STATIC
        ARGFRAME ISTACK, 0, STACK
        ARGFRAME PSTACK, 0, STACK
        ARGFRAME XSTACK, 18, STACK
        ARGFRAME IOVERLAY, 0, STATIC
        ARGFRAME DOVERLAY, 0, STATIC
        FUNCALL osal_nv_item_len, HalFlashRead
        LOCFRAME ISTACK, 0, STACK
        LOCFRAME PSTACK, 0, STACK
        LOCFRAME XSTACK, 20, STACK
        LOCFRAME IOVERLAY, 0, STATIC
        LOCFRAME DOVERLAY, 0, STATIC
        ARGFRAME ISTACK, 0, STACK
        ARGFRAME PSTACK, 0, STACK
        ARGFRAME XSTACK, 20, STACK
        ARGFRAME IOVERLAY, 0, STATIC
        ARGFRAME DOVERLAY, 0, STATIC
        MOV     A,#-0xa
        LCALL   ?BANKED_ENTER_XDATA
          CFI DPH0 load(1, XDATA, add(CFA_XSP16, literal(-1)))
          CFI DPL0 load(1, XDATA, add(CFA_XSP16, literal(-2)))
          CFI ?BRET_EXT load(1, XDATA, add(CFA_XSP16, literal(-3)))
          CFI ?RET_HIGH load(1, XDATA, add(CFA_XSP16, literal(-4)))
          CFI ?RET_LOW load(1, XDATA, add(CFA_XSP16, literal(-5)))
          CFI R7 load(1, XDATA, add(CFA_XSP16, literal(-6)))
          CFI V1 load(1, XDATA, add(CFA_XSP16, literal(-7)))
          CFI V0 load(1, XDATA, add(CFA_XSP16, literal(-8)))
          CFI VB load(1, XDATA, add(CFA_XSP16, literal(-9)))
          CFI R6 load(1, XDATA, add(CFA_XSP16, literal(-10)))
          CFI CFA_SP SP+0
          CFI CFA_XSP16 add(XSP16, 10)
        ; Saved register size: 10
        ; Auto size: 8
        MOV     A,#-0x8
        LCALL   ?ALLOC_XSTACK8
          CFI CFA_XSP16 add(XSP16, 18)
// 1091   uint16 offset = findItem( id );
        ; Setup parameters for call to function findItem
        LCALL   ??findItem?relay
// 1092 
// 1093   if ( offset == OSAL_NV_ITEM_NULL )
        MOV     A,R2
        ORL     A,R3
        JNZ     ??osal_nv_item_len_0
// 1094   {
// 1095     return 0;
        MOV     R2,#0x0
        MOV     R3,#0x0
        SJMP    ??osal_nv_item_len_1
// 1096   }
// 1097   else
// 1098   {
// 1099     osalNvHdr_t hdr;
// 1100     HalFlashRead(findPg, (offset - OSAL_NV_HDR_SIZE), (uint8 *)(&hdr), OSAL_NV_HDR_SIZE);
??osal_nv_item_len_0:
        ; Setup parameters for call to function HalFlashRead
        MOV     ?V0 + 0,#0x8
        MOV     ?V0 + 1,#0x0
        MOV     R0,#?V0 + 0
        LCALL   ?PUSH_XSTACK_I_TWO
          CFI CFA_XSP16 add(XSP16, 20)
        MOV     A,#0x2
        LCALL   ?XSTACK_DISP0_8
        MOV     R4,DPL
        MOV     R5,DPH
        MOV     A,R2
        ADD     A,#-0x8
        MOV     R2,A
        MOV     A,R3
        LCALL   ?Subroutine21 & 0xFFFF
??CrossCallReturnLabel_43:
        LCALL   ??HalFlashRead?relay
        MOV     A,#0x2
        LCALL   ?DEALLOC_XSTACK8
          CFI CFA_XSP16 add(XSP16, 18)
// 1101     return hdr.len;
        MOV     A,#0x2
        LCALL   ?XSTACK_DISP0_8
        MOVX    A,@DPTR
        MOV     R2,A
        INC     DPTR
        MOVX    A,@DPTR
        MOV     R3,A
??osal_nv_item_len_1:
        MOV     A,#0x8
        LCALL   ?DEALLOC_XSTACK8
          CFI CFA_XSP16 add(XSP16, 10)
        MOV     R7,#0x2
        LJMP    ?BANKED_LEAVE_XDATA
          CFI EndBlock cfiBlock111
// 1102   }
// 1103 }
// 1104 
// 1105 /*********************************************************************
// 1106  * @fn      osal_nv_write
// 1107  *
// 1108  * @brief   Write a data item to NV. Function can write an entire item to NV or
// 1109  *          an element of an item by indexing into the item with an offset.
// 1110  *
// 1111  * @param   id  - Valid NV item Id.
// 1112  * @param   ndx - Index offset into item
// 1113  * @param   len - Length of data to write.
// 1114  * @param  *buf - Data to write.
// 1115  *
// 1116  * @return  ZSUCCESS if successful, NV_ITEM_UNINIT if item did not
// 1117  *          exist in NV and offset is non-zero, NV_OPER_FAILED if failure.
// 1118  */

        RSEG BANKED_CODE:CODE:NOROOT(0)
// 1119 uint8 osal_nv_write( uint16 id, uint16 ndx, uint16 len, void *buf )
osal_nv_write:
          CFI Block cfiBlock112 Using cfiCommon0
          CFI Function osal_nv_write
        CODE
// 1120 {
        FUNCALL osal_nv_write, findItem
        LOCFRAME ISTACK, 0, STACK
        LOCFRAME PSTACK, 0, STACK
        LOCFRAME XSTACK, 37, STACK
        LOCFRAME IOVERLAY, 0, STATIC
        LOCFRAME DOVERLAY, 0, STATIC
        ARGFRAME ISTACK, 0, STACK
        ARGFRAME PSTACK, 0, STACK
        ARGFRAME XSTACK, 37, STACK
        ARGFRAME IOVERLAY, 0, STATIC
        ARGFRAME DOVERLAY, 0, STATIC
        FUNCALL osal_nv_write, HalFlashRead
        LOCFRAME ISTACK, 0, STACK
        LOCFRAME PSTACK, 0, STACK
        LOCFRAME XSTACK, 39, STACK
        LOCFRAME IOVERLAY, 0, STATIC
        LOCFRAME DOVERLAY, 0, STATIC
        ARGFRAME ISTACK, 0, STACK
        ARGFRAME PSTACK, 0, STACK
        ARGFRAME XSTACK, 39, STACK
        ARGFRAME IOVERLAY, 0, STATIC
        ARGFRAME DOVERLAY, 0, STATIC
        FUNCALL osal_nv_write, HalFlashRead
        LOCFRAME ISTACK, 0, STACK
        LOCFRAME PSTACK, 0, STACK
        LOCFRAME XSTACK, 39, STACK
        LOCFRAME IOVERLAY, 0, STATIC
        LOCFRAME DOVERLAY, 0, STATIC
        ARGFRAME ISTACK, 0, STACK
        ARGFRAME PSTACK, 0, STACK
        ARGFRAME XSTACK, 39, STACK
        ARGFRAME IOVERLAY, 0, STATIC
        ARGFRAME DOVERLAY, 0, STATIC
        FUNCALL osal_nv_write, initItem
        LOCFRAME ISTACK, 0, STACK
        LOCFRAME PSTACK, 0, STACK
        LOCFRAME XSTACK, 39, STACK
        LOCFRAME IOVERLAY, 0, STATIC
        LOCFRAME DOVERLAY, 0, STATIC
        ARGFRAME ISTACK, 0, STACK
        ARGFRAME PSTACK, 0, STACK
        ARGFRAME XSTACK, 39, STACK
        ARGFRAME IOVERLAY, 0, STATIC
        ARGFRAME DOVERLAY, 0, STATIC
        FUNCALL osal_nv_write, setItem
        LOCFRAME ISTACK, 0, STACK
        LOCFRAME PSTACK, 0, STACK
        LOCFRAME XSTACK, 37, STACK
        LOCFRAME IOVERLAY, 0, STATIC
        LOCFRAME DOVERLAY, 0, STATIC
        ARGFRAME ISTACK, 0, STACK
        ARGFRAME PSTACK, 0, STACK
        ARGFRAME XSTACK, 37, STACK
        ARGFRAME IOVERLAY, 0, STATIC
        ARGFRAME DOVERLAY, 0, STATIC
        FUNCALL osal_nv_write, xferBuf
        LOCFRAME ISTACK, 0, STACK
        LOCFRAME PSTACK, 0, STACK
        LOCFRAME XSTACK, 41, STACK
        LOCFRAME IOVERLAY, 0, STATIC
        LOCFRAME DOVERLAY, 0, STATIC
        ARGFRAME ISTACK, 0, STACK
        ARGFRAME PSTACK, 0, STACK
        ARGFRAME XSTACK, 41, STACK
        ARGFRAME IOVERLAY, 0, STATIC
        ARGFRAME DOVERLAY, 0, STATIC
        FUNCALL osal_nv_write, writeBuf
        LOCFRAME ISTACK, 0, STACK
        LOCFRAME PSTACK, 0, STACK
        LOCFRAME XSTACK, 39, STACK
        LOCFRAME IOVERLAY, 0, STATIC
        LOCFRAME DOVERLAY, 0, STATIC
        ARGFRAME ISTACK, 0, STACK
        ARGFRAME PSTACK, 0, STACK
        ARGFRAME XSTACK, 39, STACK
        ARGFRAME IOVERLAY, 0, STATIC
        ARGFRAME DOVERLAY, 0, STATIC
        FUNCALL osal_nv_write, xferBuf
        LOCFRAME ISTACK, 0, STACK
        LOCFRAME PSTACK, 0, STACK
        LOCFRAME XSTACK, 41, STACK
        LOCFRAME IOVERLAY, 0, STATIC
        LOCFRAME DOVERLAY, 0, STATIC
        ARGFRAME ISTACK, 0, STACK
        ARGFRAME PSTACK, 0, STACK
        ARGFRAME XSTACK, 41, STACK
        ARGFRAME IOVERLAY, 0, STATIC
        ARGFRAME DOVERLAY, 0, STATIC
        FUNCALL osal_nv_write, calcChkF
        LOCFRAME ISTACK, 0, STACK
        LOCFRAME PSTACK, 0, STACK
        LOCFRAME XSTACK, 37, STACK
        LOCFRAME IOVERLAY, 0, STATIC
        LOCFRAME DOVERLAY, 0, STATIC
        ARGFRAME ISTACK, 0, STACK
        ARGFRAME PSTACK, 0, STACK
        ARGFRAME XSTACK, 37, STACK
        ARGFRAME IOVERLAY, 0, STATIC
        ARGFRAME DOVERLAY, 0, STATIC
        FUNCALL osal_nv_write, writeWordH
        LOCFRAME ISTACK, 0, STACK
        LOCFRAME PSTACK, 0, STACK
        LOCFRAME XSTACK, 37, STACK
        LOCFRAME IOVERLAY, 0, STATIC
        LOCFRAME DOVERLAY, 0, STATIC
        ARGFRAME ISTACK, 0, STACK
        ARGFRAME PSTACK, 0, STACK
        ARGFRAME XSTACK, 37, STACK
        ARGFRAME IOVERLAY, 0, STATIC
        ARGFRAME DOVERLAY, 0, STATIC
        FUNCALL osal_nv_write, HalFlashRead
        LOCFRAME ISTACK, 0, STACK
        LOCFRAME PSTACK, 0, STACK
        LOCFRAME XSTACK, 39, STACK
        LOCFRAME IOVERLAY, 0, STATIC
        LOCFRAME DOVERLAY, 0, STATIC
        ARGFRAME ISTACK, 0, STACK
        ARGFRAME PSTACK, 0, STACK
        ARGFRAME XSTACK, 39, STACK
        ARGFRAME IOVERLAY, 0, STATIC
        ARGFRAME DOVERLAY, 0, STATIC
        FUNCALL osal_nv_write, setItem
        LOCFRAME ISTACK, 0, STACK
        LOCFRAME PSTACK, 0, STACK
        LOCFRAME XSTACK, 37, STACK
        LOCFRAME IOVERLAY, 0, STATIC
        LOCFRAME DOVERLAY, 0, STATIC
        ARGFRAME ISTACK, 0, STACK
        ARGFRAME PSTACK, 0, STACK
        ARGFRAME XSTACK, 37, STACK
        ARGFRAME IOVERLAY, 0, STATIC
        ARGFRAME DOVERLAY, 0, STATIC
        FUNCALL osal_nv_write, compactPage
        LOCFRAME ISTACK, 0, STACK
        LOCFRAME PSTACK, 0, STACK
        LOCFRAME XSTACK, 37, STACK
        LOCFRAME IOVERLAY, 0, STATIC
        LOCFRAME DOVERLAY, 0, STATIC
        ARGFRAME ISTACK, 0, STACK
        ARGFRAME PSTACK, 0, STACK
        ARGFRAME XSTACK, 37, STACK
        ARGFRAME IOVERLAY, 0, STATIC
        ARGFRAME DOVERLAY, 0, STATIC
        FUNCALL osal_nv_write, initNV
        LOCFRAME ISTACK, 0, STACK
        LOCFRAME PSTACK, 0, STACK
        LOCFRAME XSTACK, 37, STACK
        LOCFRAME IOVERLAY, 0, STATIC
        LOCFRAME DOVERLAY, 0, STATIC
        ARGFRAME ISTACK, 0, STACK
        ARGFRAME PSTACK, 0, STACK
        ARGFRAME XSTACK, 37, STACK
        ARGFRAME IOVERLAY, 0, STATIC
        ARGFRAME DOVERLAY, 0, STATIC
        MOV     A,#-0x18
        LCALL   ?BANKED_ENTER_XDATA
          CFI DPH0 load(1, XDATA, add(CFA_XSP16, literal(-1)))
          CFI DPL0 load(1, XDATA, add(CFA_XSP16, literal(-2)))
          CFI ?BRET_EXT load(1, XDATA, add(CFA_XSP16, literal(-3)))
          CFI ?RET_HIGH load(1, XDATA, add(CFA_XSP16, literal(-4)))
          CFI ?RET_LOW load(1, XDATA, add(CFA_XSP16, literal(-5)))
          CFI R7 load(1, XDATA, add(CFA_XSP16, literal(-6)))
          CFI V15 load(1, XDATA, add(CFA_XSP16, literal(-7)))
          CFI V14 load(1, XDATA, add(CFA_XSP16, literal(-8)))
          CFI V13 load(1, XDATA, add(CFA_XSP16, literal(-9)))
          CFI V12 load(1, XDATA, add(CFA_XSP16, literal(-10)))
          CFI V11 load(1, XDATA, add(CFA_XSP16, literal(-11)))
          CFI V10 load(1, XDATA, add(CFA_XSP16, literal(-12)))
          CFI V9 load(1, XDATA, add(CFA_XSP16, literal(-13)))
          CFI V8 load(1, XDATA, add(CFA_XSP16, literal(-14)))
          CFI V7 load(1, XDATA, add(CFA_XSP16, literal(-15)))
          CFI V6 load(1, XDATA, add(CFA_XSP16, literal(-16)))
          CFI V5 load(1, XDATA, add(CFA_XSP16, literal(-17)))
          CFI V4 load(1, XDATA, add(CFA_XSP16, literal(-18)))
          CFI V3 load(1, XDATA, add(CFA_XSP16, literal(-19)))
          CFI V2 load(1, XDATA, add(CFA_XSP16, literal(-20)))
          CFI V1 load(1, XDATA, add(CFA_XSP16, literal(-21)))
          CFI V0 load(1, XDATA, add(CFA_XSP16, literal(-22)))
          CFI VB load(1, XDATA, add(CFA_XSP16, literal(-23)))
          CFI R6 load(1, XDATA, add(CFA_XSP16, literal(-24)))
          CFI CFA_SP SP+0
          CFI CFA_XSP16 add(XSP16, 24)
        ; Saved register size: 24
        ; Auto size: 13
        MOV     A,#-0xd
        LCALL   ?ALLOC_XSTACK8
          CFI CFA_XSP16 add(XSP16, 37)
        MOV     ?V0 + 14,R2
        MOV     ?V0 + 15,R3
        MOV     ?V0 + 2,R4
        MOV     ?V0 + 3,R5
// 1121   uint8 rtrn = ZSUCCESS;
        MOV     ?V0 + 1,#0x0
// 1122 
// 1123   /* Global fail flag for fail due to low bus voltage has less impact on code
// 1124    * size than passing back a return value all the way from the lowest level.
// 1125    */
// 1126   failF = FALSE;
        MOV     DPTR,#failF
        CLR     A
        MOVX    @DPTR,A
        MOV     A,#0x25
        LCALL   ?XSTACK_DISP0_8
        MOVX    A,@DPTR
        MOV     ?V0 + 10,A
        INC     DPTR
        MOVX    A,@DPTR
        MOV     ?V0 + 11,A
// 1127 
// 1128   if ( len != 0 )
        MOV     A,?V0 + 10
        ORL     A,?V0 + 11
        JNZ     $+5
        LJMP    ??osal_nv_write_0 & 0xFFFF
// 1129   {
// 1130     osalNvHdr_t hdr;
// 1131     uint16 origOff, srcOff;
// 1132     uint16 cnt;
// 1133     uint8 *ptr;
// 1134 
// 1135     origOff = srcOff = findItem( id );
        ; Setup parameters for call to function findItem
        LCALL   ??findItem?relay
        MOV     A,#0x1
        LCALL   ?XSTACK_DISP0_8
        MOV     A,R2
        MOVX    @DPTR,A
        INC     DPTR
        MOV     A,R3
        MOVX    @DPTR,A
// 1136     if ( srcOff == OSAL_NV_ITEM_NULL )
        MOV     A,#0x1
        LCALL   ?XSTACK_DISP0_8
        LCALL   ?Subroutine11 & 0xFFFF
??CrossCallReturnLabel_14:
        JNZ     ??osal_nv_write_1
// 1137     {
// 1138       return NV_ITEM_UNINIT;
        MOV     R1,#0x9
        LJMP    ??osal_nv_write_2 & 0xFFFF
// 1139     }
// 1140 
// 1141     HalFlashRead(findPg, (srcOff - OSAL_NV_HDR_SIZE), (uint8 *)(&hdr), OSAL_NV_HDR_SIZE);
??osal_nv_write_1:
        ; Setup parameters for call to function HalFlashRead
        MOV     ?V0 + 4,#0x8
        MOV     ?V0 + 5,#0x0
        MOV     R0,#?V0 + 4
        LCALL   ?PUSH_XSTACK_I_TWO
          CFI CFA_XSP16 add(XSP16, 39)
        MOV     A,#0x7
        LCALL   ?XSTACK_DISP0_8
        MOV     R4,DPL
        MOV     R5,DPH
        MOV     A,#0x3
        LCALL   ?XSTACK_DISP0_8
        MOVX    A,@DPTR
        ADD     A,#-0x8
        MOV     R2,A
        INC     DPTR
        MOVX    A,@DPTR
        LCALL   ?Subroutine21 & 0xFFFF
??CrossCallReturnLabel_44:
        LCALL   ??HalFlashRead?relay
        MOV     A,#0x2
        LCALL   ?DEALLOC_XSTACK8
          CFI CFA_XSP16 add(XSP16, 37)
// 1142     if ( hdr.len < (ndx + len) )
        MOV     A,#0x7
        LCALL   ?XSTACK_DISP0_8
        MOV     A,?V0 + 2
        ADD     A,?V0 + 10
        MOV     R0,A
        MOV     A,?V0 + 3
        ADDC    A,?V0 + 11
        MOV     R1,A
        CLR     C
        MOVX    A,@DPTR
        SUBB    A,R0
        INC     DPTR
        MOVX    A,@DPTR
        SUBB    A,R1
        JNC     ??osal_nv_write_3
// 1143     {
// 1144       return NV_OPER_FAILED;
        MOV     R1,#0xa
        LJMP    ??osal_nv_write_2 & 0xFFFF
// 1145     }
// 1146 
// 1147     srcOff += ndx;
??osal_nv_write_3:
        MOV     A,#0x1
        LCALL   ?XSTACK_DISP0_8
        MOVX    A,@DPTR
        ADD     A,?V0 + 2
        MOV     R6,A
        INC     DPTR
        MOVX    A,@DPTR
        ADDC    A,?V0 + 3
        MOV     R7,A
        MOV     ?V0 + 4,R6
        MOV     ?V0 + 5,R7
        MOV     A,#0x27
        LCALL   ?XSTACK_DISP0_8
        LCALL   ?Subroutine12 & 0xFFFF
??CrossCallReturnLabel_19:
        MOV     A,#0x27
        LCALL   ?XSTACK_DISP0_8
        MOV     A,R0
        MOVX    @DPTR,A
        INC     DPTR
        MOV     A,R1
        MOVX    @DPTR,A
// 1148     ptr = buf;
        MOV     A,#0x27
        LCALL   ?XSTACK_DISP0_8
        MOVX    A,@DPTR
        MOV     ?V0 + 6,A
        INC     DPTR
        MOVX    A,@DPTR
        MOV     ?V0 + 7,A
// 1149     cnt = len;
        MOV     ?V0 + 8,?V0 + 10
        MOV     ?V0 + 9,?V0 + 11
// 1150     while ( cnt )
// 1151     {
// 1152       uint8 tmp;
// 1153       HalFlashRead(findPg, srcOff++, &tmp, 1);
??osal_nv_write_4:
        ; Setup parameters for call to function HalFlashRead
        MOV     ?V0 + 12,#0x1
        MOV     ?V0 + 13,#0x0
        MOV     R0,#?V0 + 12
        LCALL   ?PUSH_XSTACK_I_TWO
          CFI CFA_XSP16 add(XSP16, 39)
        MOV     A,#0x2
        LCALL   ?XSTACK_DISP0_8
        MOV     R4,DPL
        MOV     R5,DPH
        MOV     R2,?V0 + 4
        MOV     R3,?V0 + 5
        MOV     DPTR,#findPg
        MOVX    A,@DPTR
        MOV     R1,A
        LCALL   ??HalFlashRead?relay
        MOV     A,#0x2
        LCALL   ?DEALLOC_XSTACK8
          CFI CFA_XSP16 add(XSP16, 37)
        LCALL   ?Subroutine22 & 0xFFFF
// 1154       if ( tmp != *ptr++ )
??CrossCallReturnLabel_47:
        MOV     R0,?V0 + 6
        MOV     R1,?V0 + 7
        MOV     DPL,R0
        MOV     DPH,R1
        INC     DPTR
        MOV     ?V0 + 6,DPL
        MOV     ?V0 + 7,DPH
        MOV     DPL,?XSP + 0
        MOV     DPH,?XSP + 1
        MOVX    A,@DPTR
        MOV     R2,A
        MOV     DPL,R0
        MOV     DPH,R1
        MOVX    A,@DPTR
        XRL     A,R2
        JNZ     ??osal_nv_write_5
// 1155       {
// 1156         break;
// 1157       }
// 1158       cnt--;
// 1159     }
        MOV     A,?V0 + 8
        ADD     A,#-0x1
        MOV     ?V0 + 8,A
        MOV     A,?V0 + 9
        ADDC    A,#-0x1
        MOV     ?V0 + 9,A
        MOV     A,?V0 + 8
        ORL     A,?V0 + 9
        JNZ     $+5
        LJMP    ??osal_nv_write_6 & 0xFFFF
        SJMP    ??osal_nv_write_4
// 1160 
// 1161     if ( cnt != 0 )  // If the buffer to write is different in one or more bytes.
// 1162     {
// 1163       uint8 comPg, dstPg = initItem( FALSE, id, hdr.len, &comPg );
??osal_nv_write_5:
        ; Setup parameters for call to function initItem
        MOV     DPL,?XSP + 0
        MOV     DPH,?XSP + 1
        MOV     ?V0 + 4,DPL
        MOV     ?V0 + 5,DPH
        MOV     R0,#?V0 + 4
        LCALL   ?PUSH_XSTACK_I_TWO
          CFI CFA_XSP16 add(XSP16, 39)
        MOV     A,#0x9
        LCALL   ?XSTACK_DISP0_8
        LCALL   ?Subroutine15 & 0xFFFF
??CrossCallReturnLabel_30:
        MOV     R2,?V0 + 14
        MOV     R3,?V0 + 15
        MOV     R1,#0x0
        LCALL   ??initItem?relay
        MOV     A,#0x2
        LCALL   ?DEALLOC_XSTACK8
          CFI CFA_XSP16 add(XSP16, 37)
        MOV     A,R1
        MOV     ?V0 + 0,A
// 1164 
// 1165       if ( dstPg != OSAL_NV_PAGE_NULL )
        JNZ     $+5
        LJMP    ??osal_nv_write_7 & 0xFFFF
// 1166       {
// 1167         uint16 tmp = OSAL_NV_DATA_SIZE( hdr.len );
        MOV     A,#0x7
        LCALL   ?XSTACK_DISP0_8
        LCALL   ?Subroutine25 & 0xFFFF
??CrossCallReturnLabel_52:
        MOV     R0,A
        MOV     A,#0x3
        LCALL   ?XSTACK_DISP0_8
        MOV     A,R0
        MOVX    @DPTR,A
        INC     DPTR
        MOV     A,R1
        MOVX    @DPTR,A
// 1168         uint16 dstOff = pgOff[dstPg-OSAL_NV_PAGE_BEG] - tmp;
        MOV     A,?V0 + 0
        CLR     C
        RLC     A
        MOV     R0,A
        CLR     A
        RLC     A
        MOV     R1,A
        MOV     A,#(pgOff + 14) & 0xff
        ADD     A,R0
        MOV     ?V0 + 6,A
        MOV     A,#((pgOff - 242) >> 8) & 0xff
        ADDC    A,R1
        MOV     ?V0 + 7,A
        MOV     DPL,?V0 + 6
        MOV     DPH,A
        PUSH    DPL
          CFI CFA_SP SP+-1
        PUSH    DPH
          CFI CFA_SP SP+-2
        MOV     A,#0x3
        LCALL   ?XSTACK_DISP0_8
        LCALL   ?Subroutine12 & 0xFFFF
??CrossCallReturnLabel_20:
        POP     DPH
          CFI CFA_SP SP+-1
        POP     DPL
          CFI CFA_SP SP+0
        LCALL   ?Subroutine14 & 0xFFFF
// 1169         uint8 srcPg = findPg;
??CrossCallReturnLabel_26:
        MOV     DPTR,#findPg
        MOVX    A,@DPTR
        MOV     ?V0 + 4,A
// 1170         srcOff = origOff;
// 1171 
// 1172         setItem( srcPg, srcOff, eNvXfer );
        ; Setup parameters for call to function setItem
        MOV     R4,#0x0
        MOV     A,#0x1
        LCALL   ?XSTACK_DISP0_8
        LCALL   ?Subroutine13 & 0xFFFF
??CrossCallReturnLabel_23:
        LCALL   ??setItem?relay
// 1173 
// 1174         xferBuf( srcPg, srcOff, dstPg, dstOff, ndx );
        ; Setup parameters for call to function xferBuf
        MOV     R0,#?V0 + 2
        LCALL   ?PUSH_XSTACK_I_TWO
          CFI CFA_XSP16 add(XSP16, 39)
        MOV     R0,#?V0 + 8
        LCALL   ?PUSH_XSTACK_I_TWO
          CFI CFA_XSP16 add(XSP16, 41)
        MOV     R4,?V0 + 0
        MOV     A,#0x5
        LCALL   ?XSTACK_DISP0_8
        LCALL   ?Subroutine13 & 0xFFFF
??CrossCallReturnLabel_24:
        LCALL   ??xferBuf?relay
        MOV     A,#0x4
        LCALL   ?DEALLOC_XSTACK8
          CFI CFA_XSP16 add(XSP16, 37)
// 1175         srcOff += ndx;
// 1176         dstOff += ndx;
        MOV     A,?V0 + 8
        ADD     A,?V0 + 2
        MOV     ?V0 + 8,A
        MOV     A,?V0 + 9
        ADDC    A,?V0 + 3
        MOV     ?V0 + 9,A
// 1177 
// 1178         writeBuf( dstPg, dstOff, len, buf );
        ; Setup parameters for call to function writeBuf
        MOV     A,#0x27
        LCALL   ?XSTACK_DISP0_8
        LCALL   ?PUSH_XSTACK8_X_TWO
          CFI CFA_XSP16 add(XSP16, 39)
        MOV     R4,?V0 + 10
        MOV     R5,?V0 + 11
        MOV     R2,?V0 + 8
        MOV     R3,?V0 + 9
        MOV     R1,?V0 + 0
        LCALL   ??writeBuf?relay
        MOV     A,#0x2
        LCALL   ?DEALLOC_XSTACK8
          CFI CFA_XSP16 add(XSP16, 37)
// 1179         srcOff += len;
// 1180         dstOff += len;
// 1181 
// 1182         xferBuf( srcPg, srcOff, dstPg, dstOff, (hdr.len-ndx-len) );
        ; Setup parameters for call to function xferBuf
        MOV     A,#0x7
        LCALL   ?XSTACK_DISP0_8
        MOVX    A,@DPTR
        CLR     C
        SUBB    A,?V0 + 2
        MOV     R0,A
        INC     DPTR
        MOVX    A,@DPTR
        SUBB    A,?V0 + 3
        MOV     R1,A
        MOV     A,R0
        CLR     C
        SUBB    A,?V0 + 10
        MOV     ?V0 + 2,A
        MOV     A,R1
        SUBB    A,?V0 + 11
        MOV     ?V0 + 3,A
        MOV     R0,#?V0 + 2
        LCALL   ?PUSH_XSTACK_I_TWO
          CFI CFA_XSP16 add(XSP16, 39)
        MOV     A,?V0 + 8
        ADD     A,?V0 + 10
        MOV     ?V0 + 2,A
        MOV     A,?V0 + 9
        ADDC    A,?V0 + 11
        MOV     ?V0 + 3,A
        MOV     R0,#?V0 + 2
        LCALL   ?PUSH_XSTACK_I_TWO
          CFI CFA_XSP16 add(XSP16, 41)
        MOV     R4,?V0 + 0
        MOV     A,R6
        ADD     A,?V0 + 10
        MOV     R2,A
        MOV     A,R7
        ADDC    A,?V0 + 11
        MOV     R3,A
        MOV     R1,?V0 + 4
        LCALL   ??xferBuf?relay
        MOV     A,#0x4
        LCALL   ?DEALLOC_XSTACK8
          CFI CFA_XSP16 add(XSP16, 37)
// 1183 
// 1184         // Calculate and write the new checksum.
// 1185         dstOff = pgOff[dstPg-OSAL_NV_PAGE_BEG] - tmp;
        MOV     DPL,?V0 + 6
        MOV     DPH,?V0 + 7
        PUSH    DPL
          CFI CFA_SP SP+-1
        PUSH    DPH
          CFI CFA_SP SP+-2
        MOV     A,#0x3
        LCALL   ?XSTACK_DISP0_8
        LCALL   ?Subroutine12 & 0xFFFF
??CrossCallReturnLabel_21:
        POP     DPH
          CFI CFA_SP SP+-1
        POP     DPL
          CFI CFA_SP SP+0
        LCALL   ?Subroutine14 & 0xFFFF
// 1186         tmp = calcChkF( dstPg, dstOff, hdr.len );
??CrossCallReturnLabel_27:
        ; Setup parameters for call to function calcChkF
        MOV     A,#0x7
        LCALL   ?XSTACK_DISP0_8
        LCALL   ?Subroutine15 & 0xFFFF
??CrossCallReturnLabel_31:
        MOV     R2,?V0 + 8
        MOV     R3,?V0 + 9
        MOV     R1,?V0 + 0
        LCALL   ??calcChkF?relay
        MOV     A,#0x3
        LCALL   ?XSTACK_DISP0_8
        MOV     A,R2
        MOVX    @DPTR,A
        INC     DPTR
        MOV     A,R3
        MOVX    @DPTR,A
// 1187         dstOff -= OSAL_NV_HDR_SIZE;
        MOV     A,?V0 + 8
        ADD     A,#-0x8
        MOV     ?V0 + 8,A
        MOV     A,?V0 + 9
        ADDC    A,#-0x1
        MOV     ?V0 + 9,A
// 1188         writeWordH( dstPg, (dstOff+OSAL_NV_HDR_CHK), (uint8 *)&tmp );
        ; Setup parameters for call to function writeWordH
        MOV     A,#0x3
        LCALL   ?XSTACK_DISP0_8
        MOV     R4,DPL
        MOV     R5,DPH
        MOV     A,?V0 + 8
        ADD     A,#0x4
        MOV     R2,A
        MOV     A,?V0 + 9
        ADDC    A,#0x0
        MOV     R3,A
        MOV     R1,?V0 + 0
        LCALL   ??writeWordH?relay
// 1189         HalFlashRead(dstPg, dstOff, (uint8 *)(&hdr), OSAL_NV_HDR_SIZE);
        ; Setup parameters for call to function HalFlashRead
        MOV     ?V0 + 2,#0x8
        MOV     ?V0 + 3,#0x0
        MOV     R0,#?V0 + 2
        LCALL   ?PUSH_XSTACK_I_TWO
          CFI CFA_XSP16 add(XSP16, 39)
        MOV     A,#0x7
        LCALL   ?XSTACK_DISP0_8
        MOV     R4,DPL
        MOV     R5,DPH
        MOV     R2,?V0 + 8
        MOV     R3,?V0 + 9
        MOV     R1,?V0 + 0
        LCALL   ??HalFlashRead?relay
        MOV     A,#0x2
        LCALL   ?DEALLOC_XSTACK8
          CFI CFA_XSP16 add(XSP16, 37)
// 1190 
// 1191         if ( tmp == hdr.chk )
        MOV     A,#0x3
        LCALL   ?XSTACK_DISP0_8
        LCALL   ?Subroutine12 & 0xFFFF
??CrossCallReturnLabel_22:
        MOV     A,#0x9
        LCALL   ?XSTACK_DISP0_8
        MOVX    A,@DPTR
        XRL     A,R0
        JNZ     ??osal_nv_write_8
        INC     DPTR
        MOVX    A,@DPTR
        XRL     A,R1
??osal_nv_write_8:
        JNZ     ??osal_nv_write_9
// 1192         {
// 1193           setItem( srcPg, origOff, eNvZero );
        ; Setup parameters for call to function setItem
        MOV     R4,#0x1
        MOV     A,R4
        LCALL   ?XSTACK_DISP0_8
        LCALL   ?Subroutine13 & 0xFFFF
// 1194         }
??CrossCallReturnLabel_25:
        LCALL   ??setItem?relay
        SJMP    ??osal_nv_write_10
// 1195         else
// 1196         {
// 1197           rtrn = NV_OPER_FAILED;
??osal_nv_write_9:
        MOV     ?V0 + 1,#0xa
// 1198         }
// 1199 
// 1200         if ( dstPg == pgRes )
??osal_nv_write_10:
        MOV     DPTR,#pgRes
        MOVX    A,@DPTR
        XRL     A,?V0 + 0
        JNZ     ??osal_nv_write_6
// 1201         {
// 1202           compactPage( comPg );
        ; Setup parameters for call to function compactPage
        MOV     DPL,?XSP + 0
        MOV     DPH,?XSP + 1
        MOVX    A,@DPTR
        MOV     R1,A
        LCALL   ??compactPage?relay
        SJMP    ??osal_nv_write_6
// 1203         }
// 1204       }
// 1205       else
// 1206       {
// 1207         rtrn = NV_OPER_FAILED;
??osal_nv_write_7:
        MOV     ?V0 + 1,#0xa
// 1208       }
// 1209     }
// 1210   }
// 1211 
// 1212   if ( failF )
??osal_nv_write_6:
        MOV     DPTR,#failF
        MOVX    A,@DPTR
        JZ      ??osal_nv_write_0
// 1213   {
// 1214     (void)initNV();  // See comment at the declaration of failF.
        ; Setup parameters for call to function initNV
        LCALL   ??initNV?relay
// 1215     rtrn = NV_OPER_FAILED;
        MOV     ?V0 + 1,#0xa
// 1216   }
// 1217 
// 1218   return rtrn;
??osal_nv_write_0:
        MOV     R1,?V0 + 1
??osal_nv_write_2:
        MOV     A,#0xd
        LCALL   ?DEALLOC_XSTACK8
          CFI CFA_XSP16 add(XSP16, 24)
        MOV     R7,#0x10
        LJMP    ?BANKED_LEAVE_XDATA
          CFI EndBlock cfiBlock112
// 1219 }

        RSEG BANKED_CODE:CODE:NOROOT(0)
?Subroutine25:
          CFI Block cfiCond113 Using cfiCommon0
          CFI Function setItem
          CFI Conditional ??CrossCallReturnLabel_53, ??CrossCallReturnLabel_10
          CFI R6 load(1, XDATA, add(CFA_XSP16, literal(-14)))
          CFI VB load(1, XDATA, add(CFA_XSP16, literal(-13)))
          CFI V0 load(1, XDATA, add(CFA_XSP16, literal(-12)))
          CFI V1 load(1, XDATA, add(CFA_XSP16, literal(-11)))
          CFI V2 load(1, XDATA, add(CFA_XSP16, literal(-10)))
          CFI V3 load(1, XDATA, add(CFA_XSP16, literal(-9)))
          CFI V4 load(1, XDATA, add(CFA_XSP16, literal(-8)))
          CFI V5 load(1, XDATA, add(CFA_XSP16, literal(-7)))
          CFI R7 load(1, XDATA, add(CFA_XSP16, literal(-6)))
          CFI ?RET_LOW load(1, XDATA, add(CFA_XSP16, literal(-5)))
          CFI ?RET_HIGH load(1, XDATA, add(CFA_XSP16, literal(-4)))
          CFI ?BRET_EXT load(1, XDATA, add(CFA_XSP16, literal(-3)))
          CFI DPL0 load(1, XDATA, add(CFA_XSP16, literal(-2)))
          CFI DPH0 load(1, XDATA, add(CFA_XSP16, literal(-1)))
          CFI CFA_SP SP+0
          CFI CFA_XSP16 add(XSP16, 22)
          CFI Block cfiCond114 Using cfiCommon0
          CFI (cfiCond114) Function writeItem
          CFI (cfiCond114) Conditional ??CrossCallReturnLabel_53, ??CrossCallReturnLabel_11
          CFI (cfiCond114) R6 load(1, XDATA, add(CFA_XSP16, literal(-20)))
          CFI (cfiCond114) VB load(1, XDATA, add(CFA_XSP16, literal(-19)))
          CFI (cfiCond114) V0 load(1, XDATA, add(CFA_XSP16, literal(-18)))
          CFI (cfiCond114) V1 load(1, XDATA, add(CFA_XSP16, literal(-17)))
          CFI (cfiCond114) V2 load(1, XDATA, add(CFA_XSP16, literal(-16)))
          CFI (cfiCond114) V3 load(1, XDATA, add(CFA_XSP16, literal(-15)))
          CFI (cfiCond114) V4 load(1, XDATA, add(CFA_XSP16, literal(-14)))
          CFI (cfiCond114) V5 load(1, XDATA, add(CFA_XSP16, literal(-13)))
          CFI (cfiCond114) V6 load(1, XDATA, add(CFA_XSP16, literal(-12)))
          CFI (cfiCond114) V7 load(1, XDATA, add(CFA_XSP16, literal(-11)))
          CFI (cfiCond114) V8 load(1, XDATA, add(CFA_XSP16, literal(-10)))
          CFI (cfiCond114) V9 load(1, XDATA, add(CFA_XSP16, literal(-9)))
          CFI (cfiCond114) V10 load(1, XDATA, add(CFA_XSP16, literal(-8)))
          CFI (cfiCond114) V11 load(1, XDATA, add(CFA_XSP16, literal(-7)))
          CFI (cfiCond114) R7 load(1, XDATA, add(CFA_XSP16, literal(-6)))
          CFI (cfiCond114) ?RET_LOW load(1, XDATA, add(CFA_XSP16, literal(-5)))
          CFI (cfiCond114) ?RET_HIGH load(1, XDATA, add(CFA_XSP16, literal(-4)))
          CFI (cfiCond114) ?BRET_EXT load(1, XDATA, add(CFA_XSP16, literal(-3)))
          CFI (cfiCond114) DPL0 load(1, XDATA, add(CFA_XSP16, literal(-2)))
          CFI (cfiCond114) DPH0 load(1, XDATA, add(CFA_XSP16, literal(-1)))
          CFI (cfiCond114) CFA_SP SP+0
          CFI (cfiCond114) CFA_XSP16 add(XSP16, 30)
          CFI Block cfiCond115 Using cfiCommon0
          CFI (cfiCond115) Function osal_nv_write
          CFI (cfiCond115) Conditional ??CrossCallReturnLabel_52
          CFI (cfiCond115) R6 load(1, XDATA, add(CFA_XSP16, literal(-24)))
          CFI (cfiCond115) VB load(1, XDATA, add(CFA_XSP16, literal(-23)))
          CFI (cfiCond115) V0 load(1, XDATA, add(CFA_XSP16, literal(-22)))
          CFI (cfiCond115) V1 load(1, XDATA, add(CFA_XSP16, literal(-21)))
          CFI (cfiCond115) V2 load(1, XDATA, add(CFA_XSP16, literal(-20)))
          CFI (cfiCond115) V3 load(1, XDATA, add(CFA_XSP16, literal(-19)))
          CFI (cfiCond115) V4 load(1, XDATA, add(CFA_XSP16, literal(-18)))
          CFI (cfiCond115) V5 load(1, XDATA, add(CFA_XSP16, literal(-17)))
          CFI (cfiCond115) V6 load(1, XDATA, add(CFA_XSP16, literal(-16)))
          CFI (cfiCond115) V7 load(1, XDATA, add(CFA_XSP16, literal(-15)))
          CFI (cfiCond115) V8 load(1, XDATA, add(CFA_XSP16, literal(-14)))
          CFI (cfiCond115) V9 load(1, XDATA, add(CFA_XSP16, literal(-13)))
          CFI (cfiCond115) V10 load(1, XDATA, add(CFA_XSP16, literal(-12)))
          CFI (cfiCond115) V11 load(1, XDATA, add(CFA_XSP16, literal(-11)))
          CFI (cfiCond115) V12 load(1, XDATA, add(CFA_XSP16, literal(-10)))
          CFI (cfiCond115) V13 load(1, XDATA, add(CFA_XSP16, literal(-9)))
          CFI (cfiCond115) V14 load(1, XDATA, add(CFA_XSP16, literal(-8)))
          CFI (cfiCond115) V15 load(1, XDATA, add(CFA_XSP16, literal(-7)))
          CFI (cfiCond115) R7 load(1, XDATA, add(CFA_XSP16, literal(-6)))
          CFI (cfiCond115) ?RET_LOW load(1, XDATA, add(CFA_XSP16, literal(-5)))
          CFI (cfiCond115) ?RET_HIGH load(1, XDATA, add(CFA_XSP16, literal(-4)))
          CFI (cfiCond115) ?BRET_EXT load(1, XDATA, add(CFA_XSP16, literal(-3)))
          CFI (cfiCond115) DPL0 load(1, XDATA, add(CFA_XSP16, literal(-2)))
          CFI (cfiCond115) DPH0 load(1, XDATA, add(CFA_XSP16, literal(-1)))
          CFI (cfiCond115) CFA_SP SP+0
          CFI (cfiCond115) CFA_XSP16 add(XSP16, 37)
          CFI Block cfiPicker116 Using cfiCommon1
          CFI (cfiPicker116) NoFunction
          CFI (cfiPicker116) Picker
        MOVX    A,@DPTR
        ADD     A,#0x3
        MOV     R0,A
        INC     DPTR
        MOVX    A,@DPTR
        ADDC    A,#0x0
        MOV     R1,A
        MOV     A,R0
        ANL     A,#0xfc
        RET
          CFI EndBlock cfiCond113
          CFI EndBlock cfiCond114
          CFI EndBlock cfiCond115
          CFI EndBlock cfiPicker116

        RSEG BANKED_CODE:CODE:NOROOT(0)
?Subroutine22:
          CFI Block cfiCond117 Using cfiCommon0
          CFI Function xferBuf
          CFI Conditional ??CrossCallReturnLabel_45
          CFI R6 load(1, XDATA, add(CFA_XSP16, literal(-18)))
          CFI VB load(1, XDATA, add(CFA_XSP16, literal(-17)))
          CFI V0 load(1, XDATA, add(CFA_XSP16, literal(-16)))
          CFI V1 load(1, XDATA, add(CFA_XSP16, literal(-15)))
          CFI V2 load(1, XDATA, add(CFA_XSP16, literal(-14)))
          CFI V3 load(1, XDATA, add(CFA_XSP16, literal(-13)))
          CFI V4 load(1, XDATA, add(CFA_XSP16, literal(-12)))
          CFI V5 load(1, XDATA, add(CFA_XSP16, literal(-11)))
          CFI V6 load(1, XDATA, add(CFA_XSP16, literal(-10)))
          CFI V7 load(1, XDATA, add(CFA_XSP16, literal(-9)))
          CFI V8 load(1, XDATA, add(CFA_XSP16, literal(-8)))
          CFI V9 load(1, XDATA, add(CFA_XSP16, literal(-7)))
          CFI R7 load(1, XDATA, add(CFA_XSP16, literal(-6)))
          CFI ?RET_LOW load(1, XDATA, add(CFA_XSP16, literal(-5)))
          CFI ?RET_HIGH load(1, XDATA, add(CFA_XSP16, literal(-4)))
          CFI ?BRET_EXT load(1, XDATA, add(CFA_XSP16, literal(-3)))
          CFI DPL0 load(1, XDATA, add(CFA_XSP16, literal(-2)))
          CFI DPH0 load(1, XDATA, add(CFA_XSP16, literal(-1)))
          CFI CFA_SP SP+0
          CFI CFA_XSP16 add(XSP16, 22)
          CFI Block cfiCond118 Using cfiCommon0
          CFI (cfiCond118) Function xferBuf
          CFI (cfiCond118) Conditional ??CrossCallReturnLabel_46
          CFI (cfiCond118) R6 load(1, XDATA, add(CFA_XSP16, literal(-18)))
          CFI (cfiCond118) VB load(1, XDATA, add(CFA_XSP16, literal(-17)))
          CFI (cfiCond118) V0 load(1, XDATA, add(CFA_XSP16, literal(-16)))
          CFI (cfiCond118) V1 load(1, XDATA, add(CFA_XSP16, literal(-15)))
          CFI (cfiCond118) V2 load(1, XDATA, add(CFA_XSP16, literal(-14)))
          CFI (cfiCond118) V3 load(1, XDATA, add(CFA_XSP16, literal(-13)))
          CFI (cfiCond118) V4 load(1, XDATA, add(CFA_XSP16, literal(-12)))
          CFI (cfiCond118) V5 load(1, XDATA, add(CFA_XSP16, literal(-11)))
          CFI (cfiCond118) V6 load(1, XDATA, add(CFA_XSP16, literal(-10)))
          CFI (cfiCond118) V7 load(1, XDATA, add(CFA_XSP16, literal(-9)))
          CFI (cfiCond118) V8 load(1, XDATA, add(CFA_XSP16, literal(-8)))
          CFI (cfiCond118) V9 load(1, XDATA, add(CFA_XSP16, literal(-7)))
          CFI (cfiCond118) R7 load(1, XDATA, add(CFA_XSP16, literal(-6)))
          CFI (cfiCond118) ?RET_LOW load(1, XDATA, add(CFA_XSP16, literal(-5)))
          CFI (cfiCond118) ?RET_HIGH load(1, XDATA, add(CFA_XSP16, literal(-4)))
          CFI (cfiCond118) ?BRET_EXT load(1, XDATA, add(CFA_XSP16, literal(-3)))
          CFI (cfiCond118) DPL0 load(1, XDATA, add(CFA_XSP16, literal(-2)))
          CFI (cfiCond118) DPH0 load(1, XDATA, add(CFA_XSP16, literal(-1)))
          CFI (cfiCond118) CFA_SP SP+0
          CFI (cfiCond118) CFA_XSP16 add(XSP16, 22)
          CFI Block cfiCond119 Using cfiCommon0
          CFI (cfiCond119) Function osal_nv_write
          CFI (cfiCond119) Conditional ??CrossCallReturnLabel_47
          CFI (cfiCond119) R6 load(1, XDATA, add(CFA_XSP16, literal(-24)))
          CFI (cfiCond119) VB load(1, XDATA, add(CFA_XSP16, literal(-23)))
          CFI (cfiCond119) V0 load(1, XDATA, add(CFA_XSP16, literal(-22)))
          CFI (cfiCond119) V1 load(1, XDATA, add(CFA_XSP16, literal(-21)))
          CFI (cfiCond119) V2 load(1, XDATA, add(CFA_XSP16, literal(-20)))
          CFI (cfiCond119) V3 load(1, XDATA, add(CFA_XSP16, literal(-19)))
          CFI (cfiCond119) V4 load(1, XDATA, add(CFA_XSP16, literal(-18)))
          CFI (cfiCond119) V5 load(1, XDATA, add(CFA_XSP16, literal(-17)))
          CFI (cfiCond119) V6 load(1, XDATA, add(CFA_XSP16, literal(-16)))
          CFI (cfiCond119) V7 load(1, XDATA, add(CFA_XSP16, literal(-15)))
          CFI (cfiCond119) V8 load(1, XDATA, add(CFA_XSP16, literal(-14)))
          CFI (cfiCond119) V9 load(1, XDATA, add(CFA_XSP16, literal(-13)))
          CFI (cfiCond119) V10 load(1, XDATA, add(CFA_XSP16, literal(-12)))
          CFI (cfiCond119) V11 load(1, XDATA, add(CFA_XSP16, literal(-11)))
          CFI (cfiCond119) V12 load(1, XDATA, add(CFA_XSP16, literal(-10)))
          CFI (cfiCond119) V13 load(1, XDATA, add(CFA_XSP16, literal(-9)))
          CFI (cfiCond119) V14 load(1, XDATA, add(CFA_XSP16, literal(-8)))
          CFI (cfiCond119) V15 load(1, XDATA, add(CFA_XSP16, literal(-7)))
          CFI (cfiCond119) R7 load(1, XDATA, add(CFA_XSP16, literal(-6)))
          CFI (cfiCond119) ?RET_LOW load(1, XDATA, add(CFA_XSP16, literal(-5)))
          CFI (cfiCond119) ?RET_HIGH load(1, XDATA, add(CFA_XSP16, literal(-4)))
          CFI (cfiCond119) ?BRET_EXT load(1, XDATA, add(CFA_XSP16, literal(-3)))
          CFI (cfiCond119) DPL0 load(1, XDATA, add(CFA_XSP16, literal(-2)))
          CFI (cfiCond119) DPH0 load(1, XDATA, add(CFA_XSP16, literal(-1)))
          CFI (cfiCond119) CFA_SP SP+0
          CFI (cfiCond119) CFA_XSP16 add(XSP16, 37)
          CFI Block cfiPicker120 Using cfiCommon1
          CFI (cfiPicker120) NoFunction
          CFI (cfiPicker120) Picker
        MOV     A,?V0 + 4
        ADD     A,#0x1
        MOV     ?V0 + 4,A
        MOV     A,?V0 + 5
        ADDC    A,#0x0
        MOV     ?V0 + 5,A
        RET
          CFI EndBlock cfiCond117
          CFI EndBlock cfiCond118
          CFI EndBlock cfiCond119
          CFI EndBlock cfiPicker120

        RSEG BANKED_CODE:CODE:NOROOT(0)
?Subroutine21:
          CFI Block cfiCond121 Using cfiCommon0
          CFI Function osal_nv_item_len
          CFI Conditional ??CrossCallReturnLabel_43
          CFI R6 load(1, XDATA, add(CFA_XSP16, literal(-10)))
          CFI VB load(1, XDATA, add(CFA_XSP16, literal(-9)))
          CFI V0 load(1, XDATA, add(CFA_XSP16, literal(-8)))
          CFI V1 load(1, XDATA, add(CFA_XSP16, literal(-7)))
          CFI R7 load(1, XDATA, add(CFA_XSP16, literal(-6)))
          CFI ?RET_LOW load(1, XDATA, add(CFA_XSP16, literal(-5)))
          CFI ?RET_HIGH load(1, XDATA, add(CFA_XSP16, literal(-4)))
          CFI ?BRET_EXT load(1, XDATA, add(CFA_XSP16, literal(-3)))
          CFI DPL0 load(1, XDATA, add(CFA_XSP16, literal(-2)))
          CFI DPH0 load(1, XDATA, add(CFA_XSP16, literal(-1)))
          CFI CFA_SP SP+0
          CFI CFA_XSP16 add(XSP16, 20)
          CFI Block cfiCond122 Using cfiCommon0
          CFI (cfiCond122) Function osal_nv_write
          CFI (cfiCond122) Conditional ??CrossCallReturnLabel_44
          CFI (cfiCond122) R6 load(1, XDATA, add(CFA_XSP16, literal(-24)))
          CFI (cfiCond122) VB load(1, XDATA, add(CFA_XSP16, literal(-23)))
          CFI (cfiCond122) V0 load(1, XDATA, add(CFA_XSP16, literal(-22)))
          CFI (cfiCond122) V1 load(1, XDATA, add(CFA_XSP16, literal(-21)))
          CFI (cfiCond122) V2 load(1, XDATA, add(CFA_XSP16, literal(-20)))
          CFI (cfiCond122) V3 load(1, XDATA, add(CFA_XSP16, literal(-19)))
          CFI (cfiCond122) V4 load(1, XDATA, add(CFA_XSP16, literal(-18)))
          CFI (cfiCond122) V5 load(1, XDATA, add(CFA_XSP16, literal(-17)))
          CFI (cfiCond122) V6 load(1, XDATA, add(CFA_XSP16, literal(-16)))
          CFI (cfiCond122) V7 load(1, XDATA, add(CFA_XSP16, literal(-15)))
          CFI (cfiCond122) V8 load(1, XDATA, add(CFA_XSP16, literal(-14)))
          CFI (cfiCond122) V9 load(1, XDATA, add(CFA_XSP16, literal(-13)))
          CFI (cfiCond122) V10 load(1, XDATA, add(CFA_XSP16, literal(-12)))
          CFI (cfiCond122) V11 load(1, XDATA, add(CFA_XSP16, literal(-11)))
          CFI (cfiCond122) V12 load(1, XDATA, add(CFA_XSP16, literal(-10)))
          CFI (cfiCond122) V13 load(1, XDATA, add(CFA_XSP16, literal(-9)))
          CFI (cfiCond122) V14 load(1, XDATA, add(CFA_XSP16, literal(-8)))
          CFI (cfiCond122) V15 load(1, XDATA, add(CFA_XSP16, literal(-7)))
          CFI (cfiCond122) R7 load(1, XDATA, add(CFA_XSP16, literal(-6)))
          CFI (cfiCond122) ?RET_LOW load(1, XDATA, add(CFA_XSP16, literal(-5)))
          CFI (cfiCond122) ?RET_HIGH load(1, XDATA, add(CFA_XSP16, literal(-4)))
          CFI (cfiCond122) ?BRET_EXT load(1, XDATA, add(CFA_XSP16, literal(-3)))
          CFI (cfiCond122) DPL0 load(1, XDATA, add(CFA_XSP16, literal(-2)))
          CFI (cfiCond122) DPH0 load(1, XDATA, add(CFA_XSP16, literal(-1)))
          CFI (cfiCond122) CFA_SP SP+0
          CFI (cfiCond122) CFA_XSP16 add(XSP16, 39)
          CFI Block cfiPicker123 Using cfiCommon1
          CFI (cfiPicker123) NoFunction
          CFI (cfiPicker123) Picker
        ADDC    A,#-0x1
        MOV     R3,A
        MOV     DPTR,#findPg
        MOVX    A,@DPTR
        MOV     R1,A
        RET
          CFI EndBlock cfiCond121
          CFI EndBlock cfiCond122
          CFI EndBlock cfiPicker123

        RSEG BANKED_CODE:CODE:NOROOT(0)
?Subroutine14:
          CFI Block cfiCond124 Using cfiCommon0
          CFI Function osal_nv_write
          CFI Conditional ??CrossCallReturnLabel_26
          CFI R6 load(1, XDATA, add(CFA_XSP16, literal(-24)))
          CFI VB load(1, XDATA, add(CFA_XSP16, literal(-23)))
          CFI V0 load(1, XDATA, add(CFA_XSP16, literal(-22)))
          CFI V1 load(1, XDATA, add(CFA_XSP16, literal(-21)))
          CFI V2 load(1, XDATA, add(CFA_XSP16, literal(-20)))
          CFI V3 load(1, XDATA, add(CFA_XSP16, literal(-19)))
          CFI V4 load(1, XDATA, add(CFA_XSP16, literal(-18)))
          CFI V5 load(1, XDATA, add(CFA_XSP16, literal(-17)))
          CFI V6 load(1, XDATA, add(CFA_XSP16, literal(-16)))
          CFI V7 load(1, XDATA, add(CFA_XSP16, literal(-15)))
          CFI V8 load(1, XDATA, add(CFA_XSP16, literal(-14)))
          CFI V9 load(1, XDATA, add(CFA_XSP16, literal(-13)))
          CFI V10 load(1, XDATA, add(CFA_XSP16, literal(-12)))
          CFI V11 load(1, XDATA, add(CFA_XSP16, literal(-11)))
          CFI V12 load(1, XDATA, add(CFA_XSP16, literal(-10)))
          CFI V13 load(1, XDATA, add(CFA_XSP16, literal(-9)))
          CFI V14 load(1, XDATA, add(CFA_XSP16, literal(-8)))
          CFI V15 load(1, XDATA, add(CFA_XSP16, literal(-7)))
          CFI R7 load(1, XDATA, add(CFA_XSP16, literal(-6)))
          CFI ?RET_LOW load(1, XDATA, add(CFA_XSP16, literal(-5)))
          CFI ?RET_HIGH load(1, XDATA, add(CFA_XSP16, literal(-4)))
          CFI ?BRET_EXT load(1, XDATA, add(CFA_XSP16, literal(-3)))
          CFI DPL0 load(1, XDATA, add(CFA_XSP16, literal(-2)))
          CFI DPH0 load(1, XDATA, add(CFA_XSP16, literal(-1)))
          CFI CFA_SP SP+0
          CFI CFA_XSP16 add(XSP16, 37)
          CFI Block cfiCond125 Using cfiCommon0
          CFI (cfiCond125) Function osal_nv_write
          CFI (cfiCond125) Conditional ??CrossCallReturnLabel_27
          CFI (cfiCond125) R6 load(1, XDATA, add(CFA_XSP16, literal(-24)))
          CFI (cfiCond125) VB load(1, XDATA, add(CFA_XSP16, literal(-23)))
          CFI (cfiCond125) V0 load(1, XDATA, add(CFA_XSP16, literal(-22)))
          CFI (cfiCond125) V1 load(1, XDATA, add(CFA_XSP16, literal(-21)))
          CFI (cfiCond125) V2 load(1, XDATA, add(CFA_XSP16, literal(-20)))
          CFI (cfiCond125) V3 load(1, XDATA, add(CFA_XSP16, literal(-19)))
          CFI (cfiCond125) V4 load(1, XDATA, add(CFA_XSP16, literal(-18)))
          CFI (cfiCond125) V5 load(1, XDATA, add(CFA_XSP16, literal(-17)))
          CFI (cfiCond125) V6 load(1, XDATA, add(CFA_XSP16, literal(-16)))
          CFI (cfiCond125) V7 load(1, XDATA, add(CFA_XSP16, literal(-15)))
          CFI (cfiCond125) V8 load(1, XDATA, add(CFA_XSP16, literal(-14)))
          CFI (cfiCond125) V9 load(1, XDATA, add(CFA_XSP16, literal(-13)))
          CFI (cfiCond125) V10 load(1, XDATA, add(CFA_XSP16, literal(-12)))
          CFI (cfiCond125) V11 load(1, XDATA, add(CFA_XSP16, literal(-11)))
          CFI (cfiCond125) V12 load(1, XDATA, add(CFA_XSP16, literal(-10)))
          CFI (cfiCond125) V13 load(1, XDATA, add(CFA_XSP16, literal(-9)))
          CFI (cfiCond125) V14 load(1, XDATA, add(CFA_XSP16, literal(-8)))
          CFI (cfiCond125) V15 load(1, XDATA, add(CFA_XSP16, literal(-7)))
          CFI (cfiCond125) R7 load(1, XDATA, add(CFA_XSP16, literal(-6)))
          CFI (cfiCond125) ?RET_LOW load(1, XDATA, add(CFA_XSP16, literal(-5)))
          CFI (cfiCond125) ?RET_HIGH load(1, XDATA, add(CFA_XSP16, literal(-4)))
          CFI (cfiCond125) ?BRET_EXT load(1, XDATA, add(CFA_XSP16, literal(-3)))
          CFI (cfiCond125) DPL0 load(1, XDATA, add(CFA_XSP16, literal(-2)))
          CFI (cfiCond125) DPH0 load(1, XDATA, add(CFA_XSP16, literal(-1)))
          CFI (cfiCond125) CFA_SP SP+0
          CFI (cfiCond125) CFA_XSP16 add(XSP16, 37)
          CFI Block cfiPicker126 Using cfiCommon1
          CFI (cfiPicker126) NoFunction
          CFI (cfiPicker126) Picker
        MOVX    A,@DPTR
        CLR     C
        SUBB    A,R0
        MOV     ?V0 + 8,A
        INC     DPTR
        MOVX    A,@DPTR
        SUBB    A,R1
        MOV     ?V0 + 9,A
        RET
          CFI EndBlock cfiCond124
          CFI EndBlock cfiCond125
          CFI EndBlock cfiPicker126

        RSEG BANKED_CODE:CODE:NOROOT(0)
?Subroutine13:
          CFI Block cfiCond127 Using cfiCommon0
          CFI Function osal_nv_write
          CFI Conditional ??CrossCallReturnLabel_23
          CFI R6 load(1, XDATA, add(CFA_XSP16, literal(-24)))
          CFI VB load(1, XDATA, add(CFA_XSP16, literal(-23)))
          CFI V0 load(1, XDATA, add(CFA_XSP16, literal(-22)))
          CFI V1 load(1, XDATA, add(CFA_XSP16, literal(-21)))
          CFI V2 load(1, XDATA, add(CFA_XSP16, literal(-20)))
          CFI V3 load(1, XDATA, add(CFA_XSP16, literal(-19)))
          CFI V4 load(1, XDATA, add(CFA_XSP16, literal(-18)))
          CFI V5 load(1, XDATA, add(CFA_XSP16, literal(-17)))
          CFI V6 load(1, XDATA, add(CFA_XSP16, literal(-16)))
          CFI V7 load(1, XDATA, add(CFA_XSP16, literal(-15)))
          CFI V8 load(1, XDATA, add(CFA_XSP16, literal(-14)))
          CFI V9 load(1, XDATA, add(CFA_XSP16, literal(-13)))
          CFI V10 load(1, XDATA, add(CFA_XSP16, literal(-12)))
          CFI V11 load(1, XDATA, add(CFA_XSP16, literal(-11)))
          CFI V12 load(1, XDATA, add(CFA_XSP16, literal(-10)))
          CFI V13 load(1, XDATA, add(CFA_XSP16, literal(-9)))
          CFI V14 load(1, XDATA, add(CFA_XSP16, literal(-8)))
          CFI V15 load(1, XDATA, add(CFA_XSP16, literal(-7)))
          CFI R7 load(1, XDATA, add(CFA_XSP16, literal(-6)))
          CFI ?RET_LOW load(1, XDATA, add(CFA_XSP16, literal(-5)))
          CFI ?RET_HIGH load(1, XDATA, add(CFA_XSP16, literal(-4)))
          CFI ?BRET_EXT load(1, XDATA, add(CFA_XSP16, literal(-3)))
          CFI DPL0 load(1, XDATA, add(CFA_XSP16, literal(-2)))
          CFI DPH0 load(1, XDATA, add(CFA_XSP16, literal(-1)))
          CFI CFA_SP SP+0
          CFI CFA_XSP16 add(XSP16, 37)
          CFI Block cfiCond128 Using cfiCommon0
          CFI (cfiCond128) Function osal_nv_write
          CFI (cfiCond128) Conditional ??CrossCallReturnLabel_24
          CFI (cfiCond128) R6 load(1, XDATA, add(CFA_XSP16, literal(-24)))
          CFI (cfiCond128) VB load(1, XDATA, add(CFA_XSP16, literal(-23)))
          CFI (cfiCond128) V0 load(1, XDATA, add(CFA_XSP16, literal(-22)))
          CFI (cfiCond128) V1 load(1, XDATA, add(CFA_XSP16, literal(-21)))
          CFI (cfiCond128) V2 load(1, XDATA, add(CFA_XSP16, literal(-20)))
          CFI (cfiCond128) V3 load(1, XDATA, add(CFA_XSP16, literal(-19)))
          CFI (cfiCond128) V4 load(1, XDATA, add(CFA_XSP16, literal(-18)))
          CFI (cfiCond128) V5 load(1, XDATA, add(CFA_XSP16, literal(-17)))
          CFI (cfiCond128) V6 load(1, XDATA, add(CFA_XSP16, literal(-16)))
          CFI (cfiCond128) V7 load(1, XDATA, add(CFA_XSP16, literal(-15)))
          CFI (cfiCond128) V8 load(1, XDATA, add(CFA_XSP16, literal(-14)))
          CFI (cfiCond128) V9 load(1, XDATA, add(CFA_XSP16, literal(-13)))
          CFI (cfiCond128) V10 load(1, XDATA, add(CFA_XSP16, literal(-12)))
          CFI (cfiCond128) V11 load(1, XDATA, add(CFA_XSP16, literal(-11)))
          CFI (cfiCond128) V12 load(1, XDATA, add(CFA_XSP16, literal(-10)))
          CFI (cfiCond128) V13 load(1, XDATA, add(CFA_XSP16, literal(-9)))
          CFI (cfiCond128) V14 load(1, XDATA, add(CFA_XSP16, literal(-8)))
          CFI (cfiCond128) V15 load(1, XDATA, add(CFA_XSP16, literal(-7)))
          CFI (cfiCond128) R7 load(1, XDATA, add(CFA_XSP16, literal(-6)))
          CFI (cfiCond128) ?RET_LOW load(1, XDATA, add(CFA_XSP16, literal(-5)))
          CFI (cfiCond128) ?RET_HIGH load(1, XDATA, add(CFA_XSP16, literal(-4)))
          CFI (cfiCond128) ?BRET_EXT load(1, XDATA, add(CFA_XSP16, literal(-3)))
          CFI (cfiCond128) DPL0 load(1, XDATA, add(CFA_XSP16, literal(-2)))
          CFI (cfiCond128) DPH0 load(1, XDATA, add(CFA_XSP16, literal(-1)))
          CFI (cfiCond128) CFA_SP SP+0
          CFI (cfiCond128) CFA_XSP16 add(XSP16, 41)
          CFI Block cfiCond129 Using cfiCommon0
          CFI (cfiCond129) Function osal_nv_write
          CFI (cfiCond129) Conditional ??CrossCallReturnLabel_25
          CFI (cfiCond129) R6 load(1, XDATA, add(CFA_XSP16, literal(-24)))
          CFI (cfiCond129) VB load(1, XDATA, add(CFA_XSP16, literal(-23)))
          CFI (cfiCond129) V0 load(1, XDATA, add(CFA_XSP16, literal(-22)))
          CFI (cfiCond129) V1 load(1, XDATA, add(CFA_XSP16, literal(-21)))
          CFI (cfiCond129) V2 load(1, XDATA, add(CFA_XSP16, literal(-20)))
          CFI (cfiCond129) V3 load(1, XDATA, add(CFA_XSP16, literal(-19)))
          CFI (cfiCond129) V4 load(1, XDATA, add(CFA_XSP16, literal(-18)))
          CFI (cfiCond129) V5 load(1, XDATA, add(CFA_XSP16, literal(-17)))
          CFI (cfiCond129) V6 load(1, XDATA, add(CFA_XSP16, literal(-16)))
          CFI (cfiCond129) V7 load(1, XDATA, add(CFA_XSP16, literal(-15)))
          CFI (cfiCond129) V8 load(1, XDATA, add(CFA_XSP16, literal(-14)))
          CFI (cfiCond129) V9 load(1, XDATA, add(CFA_XSP16, literal(-13)))
          CFI (cfiCond129) V10 load(1, XDATA, add(CFA_XSP16, literal(-12)))
          CFI (cfiCond129) V11 load(1, XDATA, add(CFA_XSP16, literal(-11)))
          CFI (cfiCond129) V12 load(1, XDATA, add(CFA_XSP16, literal(-10)))
          CFI (cfiCond129) V13 load(1, XDATA, add(CFA_XSP16, literal(-9)))
          CFI (cfiCond129) V14 load(1, XDATA, add(CFA_XSP16, literal(-8)))
          CFI (cfiCond129) V15 load(1, XDATA, add(CFA_XSP16, literal(-7)))
          CFI (cfiCond129) R7 load(1, XDATA, add(CFA_XSP16, literal(-6)))
          CFI (cfiCond129) ?RET_LOW load(1, XDATA, add(CFA_XSP16, literal(-5)))
          CFI (cfiCond129) ?RET_HIGH load(1, XDATA, add(CFA_XSP16, literal(-4)))
          CFI (cfiCond129) ?BRET_EXT load(1, XDATA, add(CFA_XSP16, literal(-3)))
          CFI (cfiCond129) DPL0 load(1, XDATA, add(CFA_XSP16, literal(-2)))
          CFI (cfiCond129) DPH0 load(1, XDATA, add(CFA_XSP16, literal(-1)))
          CFI (cfiCond129) CFA_SP SP+0
          CFI (cfiCond129) CFA_XSP16 add(XSP16, 37)
          CFI Block cfiPicker130 Using cfiCommon1
          CFI (cfiPicker130) NoFunction
          CFI (cfiPicker130) Picker
        MOVX    A,@DPTR
        MOV     R2,A
        INC     DPTR
        MOVX    A,@DPTR
        MOV     R3,A
        MOV     R1,?V0 + 4
        RET
          CFI EndBlock cfiCond127
          CFI EndBlock cfiCond128
          CFI EndBlock cfiCond129
          CFI EndBlock cfiPicker130
// 1220 
// 1221 /*********************************************************************
// 1222  * @fn      osal_nv_read
// 1223  *
// 1224  * @brief   Read data from NV. This function can be used to read an entire item from NV or
// 1225  *          an element of an item by indexing into the item with an offset.
// 1226  *          Read data is copied into *buf.
// 1227  *
// 1228  * @param   id  - Valid NV item Id.
// 1229  * @param   ndx - Index offset into item
// 1230  * @param   len - Length of data to read.
// 1231  * @param  *buf - Data is read into this buffer.
// 1232  *
// 1233  * @return  ZSUCCESS if NV data was copied to the parameter 'buf'.
// 1234  *          Otherwise, NV_OPER_FAILED for failure.
// 1235  */

        RSEG BANKED_CODE:CODE:NOROOT(0)
// 1236 uint8 osal_nv_read( uint16 id, uint16 ndx, uint16 len, void *buf )
osal_nv_read:
          CFI Block cfiBlock131 Using cfiCommon0
          CFI Function osal_nv_read
        CODE
// 1237 {
        FUNCALL osal_nv_read, findItem
        LOCFRAME ISTACK, 0, STACK
        LOCFRAME PSTACK, 0, STACK
        LOCFRAME XSTACK, 14, STACK
        LOCFRAME IOVERLAY, 0, STATIC
        LOCFRAME DOVERLAY, 0, STATIC
        ARGFRAME ISTACK, 0, STACK
        ARGFRAME PSTACK, 0, STACK
        ARGFRAME XSTACK, 14, STACK
        ARGFRAME IOVERLAY, 0, STATIC
        ARGFRAME DOVERLAY, 0, STATIC
        FUNCALL osal_nv_read, HalFlashRead
        LOCFRAME ISTACK, 0, STACK
        LOCFRAME PSTACK, 0, STACK
        LOCFRAME XSTACK, 16, STACK
        LOCFRAME IOVERLAY, 0, STATIC
        LOCFRAME DOVERLAY, 0, STATIC
        ARGFRAME ISTACK, 0, STACK
        ARGFRAME PSTACK, 0, STACK
        ARGFRAME XSTACK, 16, STACK
        ARGFRAME IOVERLAY, 0, STATIC
        ARGFRAME DOVERLAY, 0, STATIC
        MOV     A,#-0xe
        LCALL   ?BANKED_ENTER_XDATA
          CFI DPH0 load(1, XDATA, add(CFA_XSP16, literal(-1)))
          CFI DPL0 load(1, XDATA, add(CFA_XSP16, literal(-2)))
          CFI ?BRET_EXT load(1, XDATA, add(CFA_XSP16, literal(-3)))
          CFI ?RET_HIGH load(1, XDATA, add(CFA_XSP16, literal(-4)))
          CFI ?RET_LOW load(1, XDATA, add(CFA_XSP16, literal(-5)))
          CFI R7 load(1, XDATA, add(CFA_XSP16, literal(-6)))
          CFI V5 load(1, XDATA, add(CFA_XSP16, literal(-7)))
          CFI V4 load(1, XDATA, add(CFA_XSP16, literal(-8)))
          CFI V3 load(1, XDATA, add(CFA_XSP16, literal(-9)))
          CFI V2 load(1, XDATA, add(CFA_XSP16, literal(-10)))
          CFI V1 load(1, XDATA, add(CFA_XSP16, literal(-11)))
          CFI V0 load(1, XDATA, add(CFA_XSP16, literal(-12)))
          CFI VB load(1, XDATA, add(CFA_XSP16, literal(-13)))
          CFI R6 load(1, XDATA, add(CFA_XSP16, literal(-14)))
          CFI CFA_SP SP+0
          CFI CFA_XSP16 add(XSP16, 14)
        ; Saved register size: 14
        ; Auto size: 0
        MOV     ?V0 + 0,R4
        MOV     ?V0 + 1,R5
        MOV     A,#0xe
        LCALL   ?XSTACK_DISP0_8
        LCALL   ?Subroutine9 & 0xFFFF
??CrossCallReturnLabel_9:
        MOV     A,#0x10
        LCALL   ?XSTACK_DISP0_8
        MOVX    A,@DPTR
        MOV     R6,A
        INC     DPTR
        MOVX    A,@DPTR
        MOV     R7,A
// 1238   uint16 offset;
// 1239 
// 1240   offset = findItem( id );
        ; Setup parameters for call to function findItem
        LCALL   ??findItem?relay
// 1241   if ( offset == OSAL_NV_ITEM_NULL )
        MOV     A,R2
        ORL     A,R3
        JNZ     ??osal_nv_read_0
// 1242   {
// 1243     return NV_OPER_FAILED;
        MOV     R1,#0xa
        SJMP    ??osal_nv_read_1
// 1244   }
// 1245 
// 1246   HalFlashRead(findPg, offset+ndx, buf, len);
??osal_nv_read_0:
        ; Setup parameters for call to function HalFlashRead
        MOV     R0,#?V0 + 2
        LCALL   ?PUSH_XSTACK_I_TWO
          CFI CFA_XSP16 add(XSP16, 16)
        MOV     A,R6
        MOV     R4,A
        MOV     A,R7
        MOV     R5,A
        MOV     A,R2
        ADD     A,?V0 + 0
        MOV     R2,A
        MOV     A,R3
        ADDC    A,?V0 + 1
        MOV     R3,A
        MOV     DPTR,#findPg
        MOVX    A,@DPTR
        MOV     R1,A
        LCALL   ??HalFlashRead?relay
        MOV     A,#0x2
        LCALL   ?DEALLOC_XSTACK8
          CFI CFA_XSP16 add(XSP16, 14)
// 1247 
// 1248   return ZSUCCESS;
        MOV     R1,#0x0
??osal_nv_read_1:
        LJMP    ??Subroutine33_0 & 0xFFFF
          CFI EndBlock cfiBlock131
// 1249 }

        RSEG BANK_RELAYS:CODE:REORDER:NOROOT(0)
??initNV?relay:
        CODE
        LCALL   ?BDISPATCH
        DATA24
        DC24    initNV

        RSEG BANK_RELAYS:CODE:REORDER:NOROOT(0)
??setPageUse?relay:
        CODE
        LCALL   ?BDISPATCH
        DATA24
        DC24    setPageUse

        RSEG BANK_RELAYS:CODE:REORDER:NOROOT(0)
??initPage?relay:
        CODE
        LCALL   ?BDISPATCH
        DATA24
        DC24    initPage

        RSEG BANK_RELAYS:CODE:REORDER:NOROOT(0)
??erasePage?relay:
        CODE
        LCALL   ?BDISPATCH
        DATA24
        DC24    erasePage

        RSEG BANK_RELAYS:CODE:REORDER:NOROOT(0)
??compactPage?relay:
        CODE
        LCALL   ?BDISPATCH
        DATA24
        DC24    compactPage

        RSEG BANK_RELAYS:CODE:REORDER:NOROOT(0)
??findItem?relay:
        CODE
        LCALL   ?BDISPATCH
        DATA24
        DC24    findItem

        RSEG BANK_RELAYS:CODE:REORDER:NOROOT(0)
??initItem?relay:
        CODE
        LCALL   ?BDISPATCH
        DATA24
        DC24    initItem

        RSEG BANK_RELAYS:CODE:REORDER:NOROOT(0)
??setItem?relay:
        CODE
        LCALL   ?BDISPATCH
        DATA24
        DC24    setItem

        RSEG BANK_RELAYS:CODE:REORDER:NOROOT(0)
??calcChkF?relay:
        CODE
        LCALL   ?BDISPATCH
        DATA24
        DC24    calcChkF

        RSEG BANK_RELAYS:CODE:REORDER:NOROOT(0)
??writeWord?relay:
        CODE
        LCALL   ?BDISPATCH
        DATA24
        DC24    writeWord

        RSEG BANK_RELAYS:CODE:REORDER:NOROOT(0)
??writeWordH?relay:
        CODE
        LCALL   ?BDISPATCH
        DATA24
        DC24    writeWordH

        RSEG BANK_RELAYS:CODE:REORDER:NOROOT(0)
??writeBuf?relay:
        CODE
        LCALL   ?BDISPATCH
        DATA24
        DC24    writeBuf

        RSEG BANK_RELAYS:CODE:REORDER:NOROOT(0)
??xferBuf?relay:
        CODE
        LCALL   ?BDISPATCH
        DATA24
        DC24    xferBuf

        RSEG BANK_RELAYS:CODE:REORDER:NOROOT(0)
??writeItem?relay:
        CODE
        LCALL   ?BDISPATCH
        DATA24
        DC24    writeItem

        RSEG BANK_RELAYS:CODE:REORDER:NOROOT(0)
??osal_nv_init?relay:
        CODE
        LCALL   ?BDISPATCH
        DATA24
        DC24    osal_nv_init

        RSEG BANK_RELAYS:CODE:REORDER:NOROOT(0)
??osal_nv_item_init?relay:
        CODE
        LCALL   ?BDISPATCH
        DATA24
        DC24    osal_nv_item_init

        RSEG BANK_RELAYS:CODE:REORDER:NOROOT(0)
??osal_nv_item_len?relay:
        CODE
        LCALL   ?BDISPATCH
        DATA24
        DC24    osal_nv_item_len

        RSEG BANK_RELAYS:CODE:REORDER:NOROOT(0)
??osal_nv_write?relay:
        CODE
        LCALL   ?BDISPATCH
        DATA24
        DC24    osal_nv_write

        RSEG BANK_RELAYS:CODE:REORDER:NOROOT(0)
??osal_nv_read?relay:
        CODE
        LCALL   ?BDISPATCH
        DATA24
        DC24    osal_nv_read

        END
// 1250 
// 1251 /*********************************************************************
// 1252 *********************************************************************/
// 
//  4 388 bytes in segment BANKED_CODE
//    114 bytes in segment BANK_RELAYS
//      8 bytes in segment IEEE_ADDRESS_SPACE
//     27 bytes in segment XDATA_Z
// 12 288 bytes in segment ZIGNV_ADDRESS_SPACE
// 
//  4 502 bytes of CODE  memory
// 12 323 bytes of XDATA memory
//
//Errors: none
//Warnings: none
