///////////////////////////////////////////////////////////////////////////////
//                                                                            /
// IAR C/C++ Compiler V8.20.2.41139 for 8051            06/Apr/2016  14:08:13 /
// Copyright 2004-2013 IAR Systems AB.                                        /
//                                                                            /
//    Core               =  plain                                             /
//    Code model         =  banked                                            /
//    Data model         =  large                                             /
//    Calling convention =  xdata reentrant                                   /
//    Constant location  =  data_rom                                          /
//    Dptr setup         =  1,16                                              /
//                                                                            /
//    Source file        =  C:\Users\ArnoldWorkStation\Desktop\ZigbeeTest\Pro /
//                          jects\zstack\Samples\SampleApp\Source\algorithman /
//                          dfilter.c                                         /
//    Command line       =  -f C:\Users\ArnoldWorkStation\Desktop\ZigbeeTest\ /
//                          Projects\zstack\Samples\SampleApp\CC2530DB\..\..\ /
//                          ..\Tools\CC2530DB\f8wEndev.cfg (-DCPU32MHZ        /
//                          -DROOT=__near_func -DBLINK_LEDS) -f               /
//                          C:\Users\ArnoldWorkStation\Desktop\ZigbeeTest\Pro /
//                          jects\zstack\Samples\SampleApp\CC2530DB\..\..\..\ /
//                          Tools\CC2530DB\f8wConfig.cfg (-DSECURE=0          /
//                          -DZG_SECURE_DYNAMIC=0 -DREFLECTOR                 /
//                          -DDEFAULT_CHANLIST=0x00000800                     /
//                          -DZDAPP_CONFIG_PAN_ID=0xFFF1                      /
//                          -DNWK_START_DELAY=100 -DEXTENDED_JOINING_RANDOM_M /
//                          ASK=0x007F -DBEACON_REQUEST_DELAY=100             /
//                          -DBEACON_REQ_DELAY_MASK=0x00FF                    /
//                          -DROUTE_EXPIRY_TIME=30 -DAPSC_ACK_WAIT_DURATION_P /
//                          OLLED=3000 -DNWK_INDIRECT_MSG_TIMEOUT=7           /
//                          -DMAX_RREQ_ENTRIES=8 -DAPSC_MAX_FRAME_RETRIES=3   /
//                          -DNWK_MAX_DATA_RETRIES=2                          /
//                          -DMAX_POLL_FAILURE_RETRIES=2 -DMAX_BCAST=9        /
//                          -DAPS_MAX_GROUPS=16 -DMAX_RTG_ENTRIES=40          /
//                          -DNWK_MAX_BINDING_ENTRIES=4                       /
//                          -DMAX_BINDING_CLUSTER_IDS=4                       /
//                          "-DDEFAULT_KEY={0x01, 0x03, 0x05, 0x07, 0x09,     /
//                          0x0B, 0x0D, 0x0F, 0x00, 0x02, 0x04, 0x06, 0x08,   /
//                          0x0A, 0x0C, 0x0D}" -DMAC_MAX_FRAME_SIZE=116       /
//                          "-DCONST=const __code" -DGENERIC=__generic        /
//                          -DRFD_RCVC_ALWAYS_ON=TRUE -DPOLL_RATE=1000        /
//                          -DQUEUED_POLL_RATE=100 -DRESPONSE_POLL_RATE=100)  /
//                          -DREJOIN_POLL_RATE=440 C:\Users\ArnoldWorkStation /
//                          \Desktop\ZigbeeTest\Projects\zstack\Samples\Sampl /
//                          eApp\Source\algorithmandfilter.c -D ZIGBEEPRO -D  /
//                          NWK_AUTO_POLL -D ZTOOL_P1 -D xMT_TASK -D          /
//                          xMT_SYS_FUNC -D xMT_ZDO_FUNC -D                   /
//                          LCD_SUPPORTED=DEBUG -lC                           /
//                          C:\Users\ArnoldWorkStation\Desktop\ZigbeeTest\Pro /
//                          jects\zstack\Samples\SampleApp\CC2530DB\QuadRotor /
//                          OnboardPro\List\ -lA C:\Users\ArnoldWorkStation\D /
//                          esktop\ZigbeeTest\Projects\zstack\Samples\SampleA /
//                          pp\CC2530DB\QuadRotorOnboardPro\List\             /
//                          --diag_suppress Pe001,Pa010 -o                    /
//                          C:\Users\ArnoldWorkStation\Desktop\ZigbeeTest\Pro /
//                          jects\zstack\Samples\SampleApp\CC2530DB\QuadRotor /
//                          OnboardPro\Obj\ -e --debug --core=plain           /
//                          --dptr=16,1 --data_model=large                    /
//                          --code_model=banked --calling_convention=xdata_re /
//                          entrant --place_constants=data_rom                /
//                          --nr_virtual_regs 16 -I                           /
//                          C:\Users\ArnoldWorkStation\Desktop\ZigbeeTest\Pro /
//                          jects\zstack\Samples\SampleApp\CC2530DB\ -I       /
//                          C:\Users\ArnoldWorkStation\Desktop\ZigbeeTest\Pro /
//                          jects\zstack\Samples\SampleApp\CC2530DB\..\SOURCE /
//                          \ -I C:\Users\ArnoldWorkStation\Desktop\ZigbeeTes /
//                          t\Projects\zstack\Samples\SampleApp\CC2530DB\..\. /
//                          .\..\ZMAIN\TI2530DB\ -I                           /
//                          C:\Users\ArnoldWorkStation\Desktop\ZigbeeTest\Pro /
//                          jects\zstack\Samples\SampleApp\CC2530DB\..\..\..\ /
//                          ..\..\COMPONENTS\MT\ -I                           /
//                          C:\Users\ArnoldWorkStation\Desktop\ZigbeeTest\Pro /
//                          jects\zstack\Samples\SampleApp\CC2530DB\..\..\..\ /
//                          ..\..\COMPONENTS\HAL\INCLUDE\ -I                  /
//                          C:\Users\ArnoldWorkStation\Desktop\ZigbeeTest\Pro /
//                          jects\zstack\Samples\SampleApp\CC2530DB\..\..\..\ /
//                          ..\..\COMPONENTS\HAL\TARGET\CC2530EB\ -I          /
//                          C:\Users\ArnoldWorkStation\Desktop\ZigbeeTest\Pro /
//                          jects\zstack\Samples\SampleApp\CC2530DB\..\..\..\ /
//                          ..\..\COMPONENTS\OSAL\MCU\CCSOC\ -I               /
//                          C:\Users\ArnoldWorkStation\Desktop\ZigbeeTest\Pro /
//                          jects\zstack\Samples\SampleApp\CC2530DB\..\..\..\ /
//                          ..\..\COMPONENTS\OSAL\INCLUDE\ -I                 /
//                          C:\Users\ArnoldWorkStation\Desktop\ZigbeeTest\Pro /
//                          jects\zstack\Samples\SampleApp\CC2530DB\..\..\..\ /
//                          ..\..\COMPONENTS\STACK\AF\ -I                     /
//                          C:\Users\ArnoldWorkStation\Desktop\ZigbeeTest\Pro /
//                          jects\zstack\Samples\SampleApp\CC2530DB\..\..\..\ /
//                          ..\..\COMPONENTS\STACK\NWK\ -I                    /
//                          C:\Users\ArnoldWorkStation\Desktop\ZigbeeTest\Pro /
//                          jects\zstack\Samples\SampleApp\CC2530DB\..\..\..\ /
//                          ..\..\COMPONENTS\STACK\SEC\ -I                    /
//                          C:\Users\ArnoldWorkStation\Desktop\ZigbeeTest\Pro /
//                          jects\zstack\Samples\SampleApp\CC2530DB\..\..\..\ /
//                          ..\..\COMPONENTS\STACK\SAPI\ -I                   /
//                          C:\Users\ArnoldWorkStation\Desktop\ZigbeeTest\Pro /
//                          jects\zstack\Samples\SampleApp\CC2530DB\..\..\..\ /
//                          ..\..\COMPONENTS\STACK\SYS\ -I                    /
//                          C:\Users\ArnoldWorkStation\Desktop\ZigbeeTest\Pro /
//                          jects\zstack\Samples\SampleApp\CC2530DB\..\..\..\ /
//                          ..\..\COMPONENTS\STACK\ZDO\ -I                    /
//                          C:\Users\ArnoldWorkStation\Desktop\ZigbeeTest\Pro /
//                          jects\zstack\Samples\SampleApp\CC2530DB\..\..\..\ /
//                          ..\..\COMPONENTS\ZMAC\F8W\ -I                     /
//                          C:\Users\ArnoldWorkStation\Desktop\ZigbeeTest\Pro /
//                          jects\zstack\Samples\SampleApp\CC2530DB\..\..\..\ /
//                          ..\..\COMPONENTS\ZMAC\ -I                         /
//                          C:\Users\ArnoldWorkStation\Desktop\ZigbeeTest\Pro /
//                          jects\zstack\Samples\SampleApp\CC2530DB\..\..\..\ /
//                          ..\..\COMPONENTS\SERVICES\SADDR\ -I               /
//                          C:\Users\ArnoldWorkStation\Desktop\ZigbeeTest\Pro /
//                          jects\zstack\Samples\SampleApp\CC2530DB\..\..\..\ /
//                          ..\..\COMPONENTS\SERVICES\SDATA\ -I               /
//                          C:\Users\ArnoldWorkStation\Desktop\ZigbeeTest\Pro /
//                          jects\zstack\Samples\SampleApp\CC2530DB\..\..\..\ /
//                          ..\..\COMPONENTS\MAC\INCLUDE\ -I                  /
//                          C:\Users\ArnoldWorkStation\Desktop\ZigbeeTest\Pro /
//                          jects\zstack\Samples\SampleApp\CC2530DB\..\..\..\ /
//                          ..\..\COMPONENTS\MAC\HIGH_LEVEL\ -I               /
//                          C:\Users\ArnoldWorkStation\Desktop\ZigbeeTest\Pro /
//                          jects\zstack\Samples\SampleApp\CC2530DB\..\..\..\ /
//                          ..\..\COMPONENTS\MAC\LOW_LEVEL\srf04\ -I          /
//                          C:\Users\ArnoldWorkStation\Desktop\ZigbeeTest\Pro /
//                          jects\zstack\Samples\SampleApp\CC2530DB\..\..\..\ /
//                          ..\..\COMPONENTS\MAC\LOW_LEVEL\srf04\SINGLE_CHIP\ /
//                           -Ohz --require_prototypes                        /
//    List file          =  C:\Users\ArnoldWorkStation\Desktop\ZigbeeTest\Pro /
//                          jects\zstack\Samples\SampleApp\CC2530DB\QuadRotor /
//                          OnboardPro\List\algorithmandfilter.s51            /
//                                                                            /
//                                                                            /
///////////////////////////////////////////////////////////////////////////////

        NAME algorithmandfilter

        RTMODEL "__SystemLibrary", "CLib"
        RTMODEL "__calling_convention", "xdata_reentrant"
        RTMODEL "__code_model", "banked"
        RTMODEL "__core", "plain"
        RTMODEL "__data_model", "large"
        RTMODEL "__dptr_size", "16"
        RTMODEL "__extended_stack", "disabled"
        RTMODEL "__location_for_constants", "data"
        RTMODEL "__number_of_dptrs", "1"
        RTMODEL "__rt_version", "1"

        RSEG DOVERLAY:DATA:NOROOT(0)
        RSEG IOVERLAY:IDATA:NOROOT(0)
        RSEG ISTACK:IDATA:NOROOT(0)
        RSEG PSTACK:XDATA:NOROOT(0)
        RSEG XSTACK:XDATA:NOROOT(0)

        EXTERN ?ALLOC_XSTACK8
        EXTERN ?BANKED_ENTER_XDATA
        EXTERN ?BANKED_LEAVE_XDATA
        EXTERN ?BDISPATCH
        EXTERN ?DEALLOC_XSTACK8
        EXTERN ?FLT_ADD
        EXTERN ?FLT_DIV
        EXTERN ?FLT_EQ
        EXTERN ?FLT_GE
        EXTERN ?FLT_LT
        EXTERN ?FLT_MUL
        EXTERN ?FLT_SUB
        EXTERN ?L_ADD
        EXTERN ?L_MOV_TO_X
        EXTERN ?L_MOV_X
        EXTERN ?L_TO_FLT
        EXTERN ?MOVE_LONG8_XDATA_XDATA
        EXTERN ?PUSH_XSTACK8_X_FOUR
        EXTERN ?PUSH_XSTACK_I_FOUR
        EXTERN ?SC_DIV_MOD
        EXTERN ?S_SHL
        EXTERN ?V0
        EXTERN ?XLOAD_R2345
        EXTERN ?XSP
        EXTERN ?XSTACK_DISP0_8
        EXTERN ?XSTORE_R2345

        PUBLIC ??SampleApp_MinMax_localization?relay
        FUNCTION ??SampleApp_MinMax_localization?relay,0203H
        PUBLIC ??SampleApp_WCL_localization?relay
        FUNCTION ??SampleApp_WCL_localization?relay,0203H
        PUBLIC ??averagefilter?relay
        FUNCTION ??averagefilter?relay,0203H
        PUBLIC ??calibrationA?relay
        FUNCTION ??calibrationA?relay,0203H
        PUBLIC ??calibrationN?relay
        FUNCTION ??calibrationN?relay,0203H
        PUBLIC ??gaussianfilter?relay
        FUNCTION ??gaussianfilter?relay,0203H
        PUBLIC ??moving_average?relay
        FUNCTION ??moving_average?relay,0203H
        PUBLIC ??moving_average_f?relay
        FUNCTION ??moving_average_f?relay,0203H
        PUBLIC ??printRSSIandLQI?relay
        FUNCTION ??printRSSIandLQI?relay,0203H
        PUBLIC SampleApp_MinMax_localization
        FUNCTION SampleApp_MinMax_localization,021203H
        ARGFRAME XSTACK, 16, STACK
        LOCFRAME ISTACK, 4, STACK
        LOCFRAME XSTACK, 66, STACK
        PUBLIC SampleApp_WCL_localization
        FUNCTION SampleApp_WCL_localization,021203H
        ARGFRAME XSTACK, 12, STACK
        LOCFRAME ISTACK, 4, STACK
        LOCFRAME XSTACK, 72, STACK
        PUBWEAK __Constant_3f000000
        PUBWEAK __Constant_3f800000
        PUBWEAK __Constant_40000000
        PUBWEAK __Constant_40800000
        PUBWEAK __Constant_41200000
        PUBWEAK __Constant_c031eb85
        PUBLIC averagefilter
        FUNCTION averagefilter,0203H
        ARGFRAME XSTACK, 0, STACK
        LOCFRAME XSTACK, 16, STACK
        PUBLIC calibrationA
        FUNCTION calibrationA,021203H
        ARGFRAME XSTACK, 12, STACK
        LOCFRAME XSTACK, 34, STACK
        PUBLIC calibrationN
        FUNCTION calibrationN,021203H
        ARGFRAME XSTACK, 12, STACK
        LOCFRAME ISTACK, 2, STACK
        LOCFRAME XSTACK, 50, STACK
        PUBLIC gaussianfilter
        FUNCTION gaussianfilter,0203H
        ARGFRAME XSTACK, 0, STACK
        LOCFRAME XSTACK, 36, STACK
        PUBLIC moving_average
        FUNCTION moving_average,0203H
        ARGFRAME XSTACK, 4, STACK
        LOCFRAME ISTACK, 1, STACK
        LOCFRAME XSTACK, 20, STACK
        PUBLIC moving_average_f
        FUNCTION moving_average_f,0203H
        ARGFRAME XSTACK, 8, STACK
        LOCFRAME XSTACK, 20, STACK
        PUBLIC printRSSIandLQI
        FUNCTION printRSSIandLQI,021203H
        ARGFRAME XSTACK, 0, STACK
        LOCFRAME ISTACK, 1, STACK
        LOCFRAME XSTACK, 24, STACK
        
          CFI Names cfiNames0
          CFI StackFrame CFA_SP SP IDATA
          CFI StackFrame CFA_PSP16 PSP16 XDATA
          CFI StackFrame CFA_XSP16 XSP16 XDATA
          CFI StaticOverlayFrame CFA_IOVERLAY IOVERLAY
          CFI StaticOverlayFrame CFA_DOVERLAY DOVERLAY
          CFI Resource `PSW.CY`:1, `B.BR0`:1, `B.BR1`:1, `B.BR2`:1, `B.BR3`:1
          CFI Resource `B.BR4`:1, `B.BR5`:1, `B.BR6`:1, `B.BR7`:1, `VB.BR8`:1
          CFI Resource `VB.BR9`:1, `VB.BR10`:1, `VB.BR11`:1, `VB.BR12`:1
          CFI Resource `VB.BR13`:1, `VB.BR14`:1, `VB.BR15`:1, VB:8, B:8, A:8
          CFI Resource PSW:8, DPL0:8, DPH0:8, R0:8, R1:8, R2:8, R3:8, R4:8, R5:8
          CFI Resource R6:8, R7:8, V0:8, V1:8, V2:8, V3:8, V4:8, V5:8, V6:8, V7:8
          CFI Resource V8:8, V9:8, V10:8, V11:8, V12:8, V13:8, V14:8, V15:8, SP:8
          CFI Resource PSPH:8, PSPL:8, PSP16:16, XSPH:8, XSPL:8, XSP16:16
          CFI VirtualResource ?RET:24
          CFI Resource ?BRET_EXT:8
          CFI VirtualResource ?RET_HIGH:8, ?RET_LOW:8
          CFI ResourceParts PSP16 PSPH, PSPL
          CFI ResourceParts XSP16 XSPH, XSPL
          CFI ResourceParts ?RET ?BRET_EXT, ?RET_HIGH, ?RET_LOW
          CFI EndNames cfiNames0
        
          CFI Common cfiCommon0 Using cfiNames0
          CFI CodeAlign 1
          CFI DataAlign -1
          CFI ReturnAddress ?RET CODE
          CFI CFA_DOVERLAY Used
          CFI CFA_IOVERLAY Used
          CFI CFA_SP SP+-3
          CFI CFA_PSP16 PSP16+0
          CFI CFA_XSP16 XSP16+0
          CFI `PSW.CY` SameValue
          CFI `B.BR0` SameValue
          CFI `B.BR1` SameValue
          CFI `B.BR2` SameValue
          CFI `B.BR3` SameValue
          CFI `B.BR4` SameValue
          CFI `B.BR5` SameValue
          CFI `B.BR6` SameValue
          CFI `B.BR7` SameValue
          CFI `VB.BR8` SameValue
          CFI `VB.BR9` SameValue
          CFI `VB.BR10` SameValue
          CFI `VB.BR11` SameValue
          CFI `VB.BR12` SameValue
          CFI `VB.BR13` SameValue
          CFI `VB.BR14` SameValue
          CFI `VB.BR15` SameValue
          CFI VB SameValue
          CFI B Undefined
          CFI A Undefined
          CFI PSW SameValue
          CFI DPL0 SameValue
          CFI DPH0 SameValue
          CFI R0 Undefined
          CFI R1 Undefined
          CFI R2 Undefined
          CFI R3 Undefined
          CFI R4 Undefined
          CFI R5 Undefined
          CFI R6 SameValue
          CFI R7 SameValue
          CFI V0 SameValue
          CFI V1 SameValue
          CFI V2 SameValue
          CFI V3 SameValue
          CFI V4 SameValue
          CFI V5 SameValue
          CFI V6 SameValue
          CFI V7 SameValue
          CFI V8 SameValue
          CFI V9 SameValue
          CFI V10 SameValue
          CFI V11 SameValue
          CFI V12 SameValue
          CFI V13 SameValue
          CFI V14 SameValue
          CFI V15 SameValue
          CFI PSPH Undefined
          CFI PSPL Undefined
          CFI XSPH Undefined
          CFI XSPL Undefined
          CFI ?RET Concat
          CFI ?BRET_EXT Frame(CFA_SP, 3)
          CFI ?RET_HIGH Frame(CFA_SP, 2)
          CFI ?RET_LOW Frame(CFA_SP, 1)
          CFI EndCommon cfiCommon0
        
        
          CFI Common cfiCommon1 Using cfiNames0
          CFI CodeAlign 1
          CFI DataAlign -1
          CFI ReturnAddress ?RET CODE
          CFI CFA_DOVERLAY Used
          CFI CFA_IOVERLAY Used
          CFI CFA_SP SP+-2
          CFI CFA_PSP16 PSP16+0
          CFI CFA_XSP16 XSP16+0
          CFI `PSW.CY` SameValue
          CFI `B.BR0` SameValue
          CFI `B.BR1` SameValue
          CFI `B.BR2` SameValue
          CFI `B.BR3` SameValue
          CFI `B.BR4` SameValue
          CFI `B.BR5` SameValue
          CFI `B.BR6` SameValue
          CFI `B.BR7` SameValue
          CFI `VB.BR8` SameValue
          CFI `VB.BR9` SameValue
          CFI `VB.BR10` SameValue
          CFI `VB.BR11` SameValue
          CFI `VB.BR12` SameValue
          CFI `VB.BR13` SameValue
          CFI `VB.BR14` SameValue
          CFI `VB.BR15` SameValue
          CFI VB SameValue
          CFI B SameValue
          CFI A SameValue
          CFI PSW SameValue
          CFI DPL0 SameValue
          CFI DPH0 SameValue
          CFI R0 SameValue
          CFI R1 SameValue
          CFI R2 SameValue
          CFI R3 SameValue
          CFI R4 SameValue
          CFI R5 SameValue
          CFI R6 SameValue
          CFI R7 SameValue
          CFI V0 SameValue
          CFI V1 SameValue
          CFI V2 SameValue
          CFI V3 SameValue
          CFI V4 SameValue
          CFI V5 SameValue
          CFI V6 SameValue
          CFI V7 SameValue
          CFI V8 SameValue
          CFI V9 SameValue
          CFI V10 SameValue
          CFI V11 SameValue
          CFI V12 SameValue
          CFI V13 SameValue
          CFI V14 SameValue
          CFI V15 SameValue
          CFI PSPH Undefined
          CFI PSPL Undefined
          CFI XSPH Undefined
          CFI XSPL Undefined
          CFI ?RET Concat
          CFI ?BRET_EXT SameValue
          CFI ?RET_HIGH Frame(CFA_SP, 2)
          CFI ?RET_LOW Frame(CFA_SP, 1)
          CFI EndCommon cfiCommon1
        
HalUARTWrite        SYMBOL "HalUARTWrite"
??HalUARTWrite?relay SYMBOL "?relay", HalUARTWrite
log10               SYMBOL "log10"
??log10?relay       SYMBOL "?relay", log10
pow                 SYMBOL "pow"
??pow?relay         SYMBOL "?relay", pow
SampleApp_MinMax_localization SYMBOL "SampleApp_MinMax_localization"
??SampleApp_MinMax_localization?relay SYMBOL "?relay", SampleApp_MinMax_localization
SampleApp_WCL_localization SYMBOL "SampleApp_WCL_localization"
??SampleApp_WCL_localization?relay SYMBOL "?relay", SampleApp_WCL_localization
averagefilter       SYMBOL "averagefilter"
??averagefilter?relay SYMBOL "?relay", averagefilter
calibrationA        SYMBOL "calibrationA"
??calibrationA?relay SYMBOL "?relay", calibrationA
calibrationN        SYMBOL "calibrationN"
??calibrationN?relay SYMBOL "?relay", calibrationN
gaussianfilter      SYMBOL "gaussianfilter"
??gaussianfilter?relay SYMBOL "?relay", gaussianfilter
moving_average      SYMBOL "moving_average"
??moving_average?relay SYMBOL "?relay", moving_average
moving_average_f    SYMBOL "moving_average_f"
??moving_average_f?relay SYMBOL "?relay", moving_average_f
printRSSIandLQI     SYMBOL "printRSSIandLQI"
??printRSSIandLQI?relay SYMBOL "?relay", printRSSIandLQI

        EXTERN ??HalUARTWrite?relay
        FUNCTION ??HalUARTWrite?relay,00H
        EXTERN ??log10?relay
        FUNCTION ??log10?relay,00H
        EXTERN ??pow?relay
        FUNCTION ??pow?relay,00H
        EXTERN HalUARTWrite
        FUNCTION HalUARTWrite,0202H
        ARGFRAME ISTACK, 0, STACK
        ARGFRAME PSTACK, 0, STACK
        ARGFRAME XSTACK, 24, STACK
        ARGFRAME IOVERLAY, 0, STATIC
        ARGFRAME DOVERLAY, 0, STATIC
        EXTERN log10
        FUNCTION log10,010202H
        ARGFRAME ISTACK, 0, STACK
        ARGFRAME PSTACK, 0, STACK
        ARGFRAME XSTACK, 46, STACK
        ARGFRAME IOVERLAY, 0, STATIC
        ARGFRAME DOVERLAY, 0, STATIC
        EXTERN pow
        FUNCTION pow,010202H
        ARGFRAME ISTACK, 0, STACK
        ARGFRAME PSTACK, 0, STACK
        ARGFRAME XSTACK, 72, STACK
        ARGFRAME IOVERLAY, 0, STATIC
        ARGFRAME DOVERLAY, 0, STATIC

// C:\Users\ArnoldWorkStation\Desktop\ZigbeeTest\Projects\zstack\Samples\SampleApp\Source\algorithmandfilter.c
//    1 /**************************************************************************************************
//    2   Filename:       algorithmandfilter.c
//    3   Revised:        $Date: 2016-01-09  $
//    4   Revision:       $Revision: 1 $
//    5 
//    6   Description:    algorithmandfilter.
//    7 
//    8 
//    9 **************************************************************************************************/
//   10 
//   11 /*********************************************************************
//   12  * INCLUDES
//   13  */
//   14 #include "algorithmandfilter.h"
//   15 

        RSEG BANKED_CODE:CODE:NOROOT(0)
//   16 void printRSSIandLQI(afIncomingMSGPacket_t *pkt, int specindex)
printRSSIandLQI:
          CFI Block cfiBlock0 Using cfiCommon0
          CFI Function printRSSIandLQI
        CODE
//   17 {
        FUNCALL printRSSIandLQI, HalUARTWrite
        LOCFRAME ISTACK, 0, STACK
        LOCFRAME PSTACK, 0, STACK
        LOCFRAME XSTACK, 24, STACK
        LOCFRAME IOVERLAY, 0, STATIC
        LOCFRAME DOVERLAY, 0, STATIC
        ARGFRAME ISTACK, 0, STACK
        ARGFRAME PSTACK, 0, STACK
        ARGFRAME XSTACK, 24, STACK
        ARGFRAME IOVERLAY, 0, STATIC
        ARGFRAME DOVERLAY, 0, STATIC
        FUNCALL printRSSIandLQI, HalUARTWrite
        LOCFRAME ISTACK, 0, STACK
        LOCFRAME PSTACK, 0, STACK
        LOCFRAME XSTACK, 24, STACK
        LOCFRAME IOVERLAY, 0, STATIC
        LOCFRAME DOVERLAY, 0, STATIC
        ARGFRAME ISTACK, 0, STACK
        ARGFRAME PSTACK, 0, STACK
        ARGFRAME XSTACK, 24, STACK
        ARGFRAME IOVERLAY, 0, STATIC
        ARGFRAME DOVERLAY, 0, STATIC
        FUNCALL printRSSIandLQI, HalUARTWrite
        LOCFRAME ISTACK, 0, STACK
        LOCFRAME PSTACK, 0, STACK
        LOCFRAME XSTACK, 24, STACK
        LOCFRAME IOVERLAY, 0, STATIC
        LOCFRAME DOVERLAY, 0, STATIC
        ARGFRAME ISTACK, 0, STACK
        ARGFRAME PSTACK, 0, STACK
        ARGFRAME XSTACK, 24, STACK
        ARGFRAME IOVERLAY, 0, STATIC
        ARGFRAME DOVERLAY, 0, STATIC
        FUNCALL printRSSIandLQI, HalUARTWrite
        LOCFRAME ISTACK, 0, STACK
        LOCFRAME PSTACK, 0, STACK
        LOCFRAME XSTACK, 24, STACK
        LOCFRAME IOVERLAY, 0, STATIC
        LOCFRAME DOVERLAY, 0, STATIC
        ARGFRAME ISTACK, 0, STACK
        ARGFRAME PSTACK, 0, STACK
        ARGFRAME XSTACK, 24, STACK
        ARGFRAME IOVERLAY, 0, STATIC
        ARGFRAME DOVERLAY, 0, STATIC
        FUNCALL printRSSIandLQI, HalUARTWrite
        LOCFRAME ISTACK, 0, STACK
        LOCFRAME PSTACK, 0, STACK
        LOCFRAME XSTACK, 24, STACK
        LOCFRAME IOVERLAY, 0, STATIC
        LOCFRAME DOVERLAY, 0, STATIC
        ARGFRAME ISTACK, 0, STACK
        ARGFRAME PSTACK, 0, STACK
        ARGFRAME XSTACK, 24, STACK
        ARGFRAME IOVERLAY, 0, STATIC
        ARGFRAME DOVERLAY, 0, STATIC
        FUNCALL printRSSIandLQI, HalUARTWrite
        LOCFRAME ISTACK, 0, STACK
        LOCFRAME PSTACK, 0, STACK
        LOCFRAME XSTACK, 24, STACK
        LOCFRAME IOVERLAY, 0, STATIC
        LOCFRAME DOVERLAY, 0, STATIC
        ARGFRAME ISTACK, 0, STACK
        ARGFRAME PSTACK, 0, STACK
        ARGFRAME XSTACK, 24, STACK
        ARGFRAME IOVERLAY, 0, STATIC
        ARGFRAME DOVERLAY, 0, STATIC
        FUNCALL printRSSIandLQI, HalUARTWrite
        LOCFRAME ISTACK, 0, STACK
        LOCFRAME PSTACK, 0, STACK
        LOCFRAME XSTACK, 24, STACK
        LOCFRAME IOVERLAY, 0, STATIC
        LOCFRAME DOVERLAY, 0, STATIC
        ARGFRAME ISTACK, 0, STACK
        ARGFRAME PSTACK, 0, STACK
        ARGFRAME XSTACK, 24, STACK
        ARGFRAME IOVERLAY, 0, STATIC
        ARGFRAME DOVERLAY, 0, STATIC
        FUNCALL printRSSIandLQI, HalUARTWrite
        LOCFRAME ISTACK, 0, STACK
        LOCFRAME PSTACK, 0, STACK
        LOCFRAME XSTACK, 24, STACK
        LOCFRAME IOVERLAY, 0, STATIC
        LOCFRAME DOVERLAY, 0, STATIC
        ARGFRAME ISTACK, 0, STACK
        ARGFRAME PSTACK, 0, STACK
        ARGFRAME XSTACK, 24, STACK
        ARGFRAME IOVERLAY, 0, STATIC
        ARGFRAME DOVERLAY, 0, STATIC
        FUNCALL printRSSIandLQI, HalUARTWrite
        LOCFRAME ISTACK, 0, STACK
        LOCFRAME PSTACK, 0, STACK
        LOCFRAME XSTACK, 24, STACK
        LOCFRAME IOVERLAY, 0, STATIC
        LOCFRAME DOVERLAY, 0, STATIC
        ARGFRAME ISTACK, 0, STACK
        ARGFRAME PSTACK, 0, STACK
        ARGFRAME XSTACK, 24, STACK
        ARGFRAME IOVERLAY, 0, STATIC
        ARGFRAME DOVERLAY, 0, STATIC
        FUNCALL printRSSIandLQI, HalUARTWrite
        LOCFRAME ISTACK, 0, STACK
        LOCFRAME PSTACK, 0, STACK
        LOCFRAME XSTACK, 24, STACK
        LOCFRAME IOVERLAY, 0, STATIC
        LOCFRAME DOVERLAY, 0, STATIC
        ARGFRAME ISTACK, 0, STACK
        ARGFRAME PSTACK, 0, STACK
        ARGFRAME XSTACK, 24, STACK
        ARGFRAME IOVERLAY, 0, STATIC
        ARGFRAME DOVERLAY, 0, STATIC
        FUNCALL printRSSIandLQI, HalUARTWrite
        LOCFRAME ISTACK, 0, STACK
        LOCFRAME PSTACK, 0, STACK
        LOCFRAME XSTACK, 24, STACK
        LOCFRAME IOVERLAY, 0, STATIC
        LOCFRAME DOVERLAY, 0, STATIC
        ARGFRAME ISTACK, 0, STACK
        ARGFRAME PSTACK, 0, STACK
        ARGFRAME XSTACK, 24, STACK
        ARGFRAME IOVERLAY, 0, STATIC
        ARGFRAME DOVERLAY, 0, STATIC
        FUNCALL printRSSIandLQI, HalUARTWrite
        LOCFRAME ISTACK, 0, STACK
        LOCFRAME PSTACK, 0, STACK
        LOCFRAME XSTACK, 24, STACK
        LOCFRAME IOVERLAY, 0, STATIC
        LOCFRAME DOVERLAY, 0, STATIC
        ARGFRAME ISTACK, 0, STACK
        ARGFRAME PSTACK, 0, STACK
        ARGFRAME XSTACK, 24, STACK
        ARGFRAME IOVERLAY, 0, STATIC
        ARGFRAME DOVERLAY, 0, STATIC
        MOV     A,#-0x12
        LCALL   ?BANKED_ENTER_XDATA
          CFI DPH0 load(1, XDATA, add(CFA_XSP16, literal(-1)))
          CFI DPL0 load(1, XDATA, add(CFA_XSP16, literal(-2)))
          CFI ?BRET_EXT load(1, XDATA, add(CFA_XSP16, literal(-3)))
          CFI ?RET_HIGH load(1, XDATA, add(CFA_XSP16, literal(-4)))
          CFI ?RET_LOW load(1, XDATA, add(CFA_XSP16, literal(-5)))
          CFI R7 load(1, XDATA, add(CFA_XSP16, literal(-6)))
          CFI V9 load(1, XDATA, add(CFA_XSP16, literal(-7)))
          CFI V8 load(1, XDATA, add(CFA_XSP16, literal(-8)))
          CFI V7 load(1, XDATA, add(CFA_XSP16, literal(-9)))
          CFI V6 load(1, XDATA, add(CFA_XSP16, literal(-10)))
          CFI V5 load(1, XDATA, add(CFA_XSP16, literal(-11)))
          CFI V4 load(1, XDATA, add(CFA_XSP16, literal(-12)))
          CFI V3 load(1, XDATA, add(CFA_XSP16, literal(-13)))
          CFI V2 load(1, XDATA, add(CFA_XSP16, literal(-14)))
          CFI V1 load(1, XDATA, add(CFA_XSP16, literal(-15)))
          CFI V0 load(1, XDATA, add(CFA_XSP16, literal(-16)))
          CFI VB load(1, XDATA, add(CFA_XSP16, literal(-17)))
          CFI R6 load(1, XDATA, add(CFA_XSP16, literal(-18)))
          CFI CFA_SP SP+0
          CFI CFA_XSP16 add(XSP16, 18)
        ; Saved register size: 18
        ; Auto size: 6
        MOV     A,#-0x6
        LCALL   ?ALLOC_XSTACK8
          CFI CFA_XSP16 add(XSP16, 24)
//   18   
//   19          if(!specindex)
        MOV     ?V0 + 4,#`?<Constant "\\n">` & 0xff
        MOV     ?V0 + 5,#(`?<Constant "\\n">` >> 8) & 0xff
        MOV     ?V0 + 2,#`?<Constant "LQI:">` & 0xff
        MOV     ?V0 + 3,#(`?<Constant "LQI:">` >> 8) & 0xff
        MOV     A,R2
        ADD     A,#0x16
        MOV     ?V0 + 0,A
        MOV     A,R3
        ADDC    A,#0x0
        MOV     ?V0 + 1,A
        MOV     A,R2
        ADD     A,#0x21
        MOV     R0,A
        MOV     A,R3
        ADDC    A,#0x0
        MOV     R1,A
        MOV     ?V0 + 6,R0
        MOV     ?V0 + 7,R1
        MOV     A,R2
        ADD     A,#0x1f
        MOV     R0,A
        MOV     A,R3
        ADDC    A,#0x0
        MOV     R1,A
        MOV     ?V0 + 8,R0
        MOV     ?V0 + 9,R1
        MOV     A,R4
        ORL     A,R5
        JZ      $+5
        LJMP    ??printRSSIandLQI_0 & 0xFFFF
//   20         { 
//   21           int8 rssivalue;
//   22         rssivalue=0xff-pkt->rssi;
        LCALL   ?Subroutine3 & 0xFFFF
//   23         unsigned char rssi_buf[3];
//   24         rssi_buf[0]='-';
??CrossCallReturnLabel_3:
        MOV     DPL,?XSP + 0
        MOV     DPH,?XSP + 1
        LCALL   ?Subroutine26 & 0xFFFF
//   25         rssi_buf[1]=rssivalue/10+0x30;
??CrossCallReturnLabel_113:
        LCALL   ?SC_DIV_MOD
        ADD     A,#0x30
        PUSH    A
          CFI CFA_SP SP+-1
        MOV     A,#0x1
        LCALL   ?XSTACK_DISP0_8
        POP     A
          CFI CFA_SP SP+0
        LCALL   ??Subroutine44_0 & 0xFFFF
//   26         rssi_buf[2]=rssivalue%10+0x30;
??CrossCallReturnLabel_115:
        LCALL   ?SC_DIV_MOD
        MOV     A,B
        ADD     A,#0x30
        PUSH    A
          CFI CFA_SP SP+-1
        MOV     A,#0x2
        LCALL   ?XSTACK_DISP0_8
        POP     A
          CFI CFA_SP SP+0
        MOVX    @DPTR,A
//   27          HalUARTWrite(0, pkt->cmd.Data, pkt->cmd.DataLength); //print out the data through uart
        ; Setup parameters for call to function HalUARTWrite
        MOV     DPL,?V0 + 8
        MOV     DPH,R1
        LCALL   ?Subroutine10 & 0xFFFF
??CrossCallReturnLabel_19:
        LCALL   ??HalUARTWrite?relay
//   28                 
//   29     //  HalUARTWrite(0, "\n", 1); 
//   30       HalUARTWrite(0, "RSSI:", 5);  
        ; Setup parameters for call to function HalUARTWrite
        MOV     R4,#0x5
        MOV     R5,#0x0
        MOV     R2,#`?<Constant "RSSI:">` & 0xff
        MOV     R3,#(`?<Constant "RSSI:">` >> 8) & 0xff
        MOV     R1,#0x0
        LCALL   ??HalUARTWrite?relay
//   31       HalUARTWrite(0,rssi_buf,3);
        ; Setup parameters for call to function HalUARTWrite
        MOV     R4,#0x3
        MOV     R5,#0x0
        MOV     DPL,?XSP + 0
        MOV     DPH,?XSP + 1
        MOV     R2,DPL
        MOV     R3,DPH
        MOV     R1,#0x0
        LCALL   ??HalUARTWrite?relay
//   32 //     HalUARTWrite(0, "\r\n", 2); 
//   33 //     
//   34      uint8 lqivalue;
//   35      lqivalue=pkt->LinkQuality;
        LCALL   ?Subroutine19 & 0xFFFF
//   36      unsigned char lqi_buf[3];
//   37       lqi_buf[0]=lqivalue/100+0x30;
??CrossCallReturnLabel_54:
        PUSH    A
          CFI CFA_SP SP+-1
        MOV     A,#0x3
        LCALL   ?XSTACK_DISP0_8
        POP     A
          CFI CFA_SP SP+0
        LCALL   ?Subroutine21 & 0xFFFF
//   38         lqi_buf[1]=(lqivalue%100)/10+0x30;
??CrossCallReturnLabel_58:
        PUSH    A
          CFI CFA_SP SP+-1
        MOV     A,#0x4
        LCALL   ?XSTACK_DISP0_8
        POP     A
          CFI CFA_SP SP+0
        LCALL   ?Subroutine25 & 0xFFFF
//   39         lqi_buf[2]=lqivalue%10+0x30;
??CrossCallReturnLabel_75:
        PUSH    A
          CFI CFA_SP SP+-1
        MOV     A,#0x5
        LCALL   ?XSTACK_DISP0_8
        POP     A
          CFI CFA_SP SP+0
        LCALL   ?Subroutine23 & 0xFFFF
//   40       HalUARTWrite(0, "LQI:", 4);  
??CrossCallReturnLabel_71:
        LCALL   ??HalUARTWrite?relay
//   41       HalUARTWrite(0,lqi_buf,3);
        ; Setup parameters for call to function HalUARTWrite
        MOV     R4,#0x3
        MOV     R5,#0x0
        MOV     A,R4
        LCALL   ?XSTACK_DISP0_8
        LJMP    ??printRSSIandLQI_1 & 0xFFFF
//   42      HalUARTWrite(0, "\n", 1);         //create a new line
//   43         }
//   44         else if (specindex==(int)*(pkt->cmd.Data+1)-48)
??printRSSIandLQI_0:
        MOV     DPL,?V0 + 6
        MOV     DPH,?V0 + 7
        LCALL   ?Subroutine13 & 0xFFFF
??CrossCallReturnLabel_37:
        INC     DPTR
        MOVX    A,@DPTR
        ADD     A,#-0x30
        MOV     R0,A
        CLR     A
        ADDC    A,#-0x1
        MOV     R1,A
        MOV     A,R0
        XRL     A,R4
        JNZ     ??printRSSIandLQI_2
        MOV     A,R1
        XRL     A,R5
??printRSSIandLQI_2:
        JZ      $+5
        LJMP    ??printRSSIandLQI_3 & 0xFFFF
//   45         {
//   46                     int8 rssivalue;
//   47         rssivalue=0xff-pkt->rssi;
        LCALL   ?Subroutine3 & 0xFFFF
//   48         unsigned char rssi_buf[3];
//   49         rssi_buf[0]='-';
??CrossCallReturnLabel_4:
        MOV     A,#0x3
        LCALL   ?XSTACK_DISP0_8
        LCALL   ?Subroutine26 & 0xFFFF
//   50         rssi_buf[1]=rssivalue/10+0x30;
??CrossCallReturnLabel_114:
        LCALL   ?SC_DIV_MOD
        ADD     A,#0x30
        PUSH    A
          CFI CFA_SP SP+-1
        MOV     A,#0x4
        LCALL   ?XSTACK_DISP0_8
        POP     A
          CFI CFA_SP SP+0
        LCALL   ??Subroutine44_0 & 0xFFFF
//   51         rssi_buf[2]=rssivalue%10+0x30;
??CrossCallReturnLabel_116:
        LCALL   ?SC_DIV_MOD
        MOV     A,B
        ADD     A,#0x30
        PUSH    A
          CFI CFA_SP SP+-1
        MOV     A,#0x5
        LCALL   ?XSTACK_DISP0_8
        POP     A
          CFI CFA_SP SP+0
        MOVX    @DPTR,A
//   52          HalUARTWrite(0, pkt->cmd.Data, pkt->cmd.DataLength); //print out the data through uart
        ; Setup parameters for call to function HalUARTWrite
        MOV     DPL,?V0 + 8
        MOV     DPH,?V0 + 9
        LCALL   ?Subroutine10 & 0xFFFF
??CrossCallReturnLabel_20:
        LCALL   ??HalUARTWrite?relay
//   53                 
//   54     //  HalUARTWrite(0, "\n", 1); 
//   55       HalUARTWrite(0, "RSSI:", 5);  
        ; Setup parameters for call to function HalUARTWrite
        MOV     R4,#0x5
        MOV     R5,#0x0
        MOV     R2,#`?<Constant "RSSI:">` & 0xff
        MOV     R3,#(`?<Constant "RSSI:">` >> 8) & 0xff
        MOV     R1,#0x0
        LCALL   ??HalUARTWrite?relay
//   56       HalUARTWrite(0,rssi_buf,3);
        ; Setup parameters for call to function HalUARTWrite
        MOV     R4,#0x3
        MOV     R5,#0x0
        MOV     A,R4
        LCALL   ?XSTACK_DISP0_8
        MOV     R2,DPL
        MOV     R3,DPH
        MOV     R1,#0x0
        LCALL   ??HalUARTWrite?relay
//   57 //     HalUARTWrite(0, "\r\n", 2); 
//   58 //     
//   59      uint8 lqivalue;
//   60      lqivalue=pkt->LinkQuality;
        LCALL   ?Subroutine19 & 0xFFFF
//   61      unsigned char lqi_buf[3];
//   62       lqi_buf[0]=lqivalue/100+0x30;
??CrossCallReturnLabel_55:
        MOV     DPL,?XSP + 0
        MOV     DPH,?XSP + 1
        LCALL   ?Subroutine21 & 0xFFFF
//   63         lqi_buf[1]=(lqivalue%100)/10+0x30;
??CrossCallReturnLabel_59:
        PUSH    A
          CFI CFA_SP SP+-1
        MOV     A,#0x1
        LCALL   ?XSTACK_DISP0_8
        POP     A
          CFI CFA_SP SP+0
        LCALL   ?Subroutine25 & 0xFFFF
//   64         lqi_buf[2]=lqivalue%10+0x30;
??CrossCallReturnLabel_76:
        PUSH    A
          CFI CFA_SP SP+-1
        MOV     A,#0x2
        LCALL   ?XSTACK_DISP0_8
        POP     A
          CFI CFA_SP SP+0
        LCALL   ?Subroutine23 & 0xFFFF
//   65       HalUARTWrite(0, "LQI:", 4);  
??CrossCallReturnLabel_72:
        LCALL   ??HalUARTWrite?relay
//   66       HalUARTWrite(0,lqi_buf,3);
        ; Setup parameters for call to function HalUARTWrite
        MOV     R4,#0x3
        MOV     R5,#0x0
        MOV     DPL,?XSP + 0
        MOV     DPH,?XSP + 1
??printRSSIandLQI_1:
        MOV     R2,DPL
        MOV     R3,DPH
        MOV     R1,#0x0
        LCALL   ??HalUARTWrite?relay
//   67      HalUARTWrite(0, "\n", 1);         //create a new line
        ; Setup parameters for call to function HalUARTWrite
        MOV     R4,#0x1
        MOV     R5,#0x0
        MOV     R2,?V0 + 4
        MOV     R3,?V0 + 5
        MOV     R1,#0x0
        LCALL   ??HalUARTWrite?relay
//   68         }
//   69       
//   70                         
//   71                   
//   72 //                   unsigned char rssi_buf[3];
//   73 //                     rssi_buf[0]='-';
//   74 //                    rssi_buf[1]=(int32)sumRssi1/10+0x30;
//   75 //                    rssi_buf[2]=(int32)sumRssi1%10+0x30;
//   76 //                   HalUARTWrite(0,rssi_buf,3);
//   77 }
??printRSSIandLQI_3:
        MOV     A,#0x6
        LCALL   ?DEALLOC_XSTACK8
          CFI CFA_XSP16 add(XSP16, 18)
        MOV     R7,#0xa
        LJMP    ?BANKED_LEAVE_XDATA
          CFI EndBlock cfiBlock0

        RSEG BANKED_CODE:CODE:NOROOT(0)
?Subroutine26:
          CFI Block cfiCond1 Using cfiCommon0
          CFI Function printRSSIandLQI
          CFI Conditional ??CrossCallReturnLabel_113
          CFI R6 load(1, XDATA, add(CFA_XSP16, literal(-18)))
          CFI VB load(1, XDATA, add(CFA_XSP16, literal(-17)))
          CFI V0 load(1, XDATA, add(CFA_XSP16, literal(-16)))
          CFI V1 load(1, XDATA, add(CFA_XSP16, literal(-15)))
          CFI V2 load(1, XDATA, add(CFA_XSP16, literal(-14)))
          CFI V3 load(1, XDATA, add(CFA_XSP16, literal(-13)))
          CFI V4 load(1, XDATA, add(CFA_XSP16, literal(-12)))
          CFI V5 load(1, XDATA, add(CFA_XSP16, literal(-11)))
          CFI V6 load(1, XDATA, add(CFA_XSP16, literal(-10)))
          CFI V7 load(1, XDATA, add(CFA_XSP16, literal(-9)))
          CFI V8 load(1, XDATA, add(CFA_XSP16, literal(-8)))
          CFI V9 load(1, XDATA, add(CFA_XSP16, literal(-7)))
          CFI R7 load(1, XDATA, add(CFA_XSP16, literal(-6)))
          CFI ?RET_LOW load(1, XDATA, add(CFA_XSP16, literal(-5)))
          CFI ?RET_HIGH load(1, XDATA, add(CFA_XSP16, literal(-4)))
          CFI ?BRET_EXT load(1, XDATA, add(CFA_XSP16, literal(-3)))
          CFI DPL0 load(1, XDATA, add(CFA_XSP16, literal(-2)))
          CFI DPH0 load(1, XDATA, add(CFA_XSP16, literal(-1)))
          CFI CFA_SP SP+0
          CFI CFA_XSP16 add(XSP16, 24)
          CFI Block cfiCond2 Using cfiCommon0
          CFI (cfiCond2) Function printRSSIandLQI
          CFI (cfiCond2) Conditional ??CrossCallReturnLabel_114
          CFI (cfiCond2) R6 load(1, XDATA, add(CFA_XSP16, literal(-18)))
          CFI (cfiCond2) VB load(1, XDATA, add(CFA_XSP16, literal(-17)))
          CFI (cfiCond2) V0 load(1, XDATA, add(CFA_XSP16, literal(-16)))
          CFI (cfiCond2) V1 load(1, XDATA, add(CFA_XSP16, literal(-15)))
          CFI (cfiCond2) V2 load(1, XDATA, add(CFA_XSP16, literal(-14)))
          CFI (cfiCond2) V3 load(1, XDATA, add(CFA_XSP16, literal(-13)))
          CFI (cfiCond2) V4 load(1, XDATA, add(CFA_XSP16, literal(-12)))
          CFI (cfiCond2) V5 load(1, XDATA, add(CFA_XSP16, literal(-11)))
          CFI (cfiCond2) V6 load(1, XDATA, add(CFA_XSP16, literal(-10)))
          CFI (cfiCond2) V7 load(1, XDATA, add(CFA_XSP16, literal(-9)))
          CFI (cfiCond2) V8 load(1, XDATA, add(CFA_XSP16, literal(-8)))
          CFI (cfiCond2) V9 load(1, XDATA, add(CFA_XSP16, literal(-7)))
          CFI (cfiCond2) R7 load(1, XDATA, add(CFA_XSP16, literal(-6)))
          CFI (cfiCond2) ?RET_LOW load(1, XDATA, add(CFA_XSP16, literal(-5)))
          CFI (cfiCond2) ?RET_HIGH load(1, XDATA, add(CFA_XSP16, literal(-4)))
          CFI (cfiCond2) ?BRET_EXT load(1, XDATA, add(CFA_XSP16, literal(-3)))
          CFI (cfiCond2) DPL0 load(1, XDATA, add(CFA_XSP16, literal(-2)))
          CFI (cfiCond2) DPH0 load(1, XDATA, add(CFA_XSP16, literal(-1)))
          CFI (cfiCond2) CFA_SP SP+0
          CFI (cfiCond2) CFA_XSP16 add(XSP16, 24)
          CFI Block cfiPicker3 Using cfiCommon1
          CFI (cfiPicker3) NoFunction
          CFI (cfiPicker3) Picker
        MOV     A,#0x2d
          CFI EndBlock cfiCond1
          CFI EndBlock cfiCond2
          CFI EndBlock cfiPicker3
        REQUIRE ??Subroutine44_0
        ; // Fall through to label ??Subroutine44_0

        RSEG BANKED_CODE:CODE:NOROOT(0)
??Subroutine44_0:
          CFI Block cfiCond4 Using cfiCommon0
          CFI Function printRSSIandLQI
          CFI Conditional ??CrossCallReturnLabel_115
          CFI R6 load(1, XDATA, add(CFA_XSP16, literal(-18)))
          CFI VB load(1, XDATA, add(CFA_XSP16, literal(-17)))
          CFI V0 load(1, XDATA, add(CFA_XSP16, literal(-16)))
          CFI V1 load(1, XDATA, add(CFA_XSP16, literal(-15)))
          CFI V2 load(1, XDATA, add(CFA_XSP16, literal(-14)))
          CFI V3 load(1, XDATA, add(CFA_XSP16, literal(-13)))
          CFI V4 load(1, XDATA, add(CFA_XSP16, literal(-12)))
          CFI V5 load(1, XDATA, add(CFA_XSP16, literal(-11)))
          CFI V6 load(1, XDATA, add(CFA_XSP16, literal(-10)))
          CFI V7 load(1, XDATA, add(CFA_XSP16, literal(-9)))
          CFI V8 load(1, XDATA, add(CFA_XSP16, literal(-8)))
          CFI V9 load(1, XDATA, add(CFA_XSP16, literal(-7)))
          CFI R7 load(1, XDATA, add(CFA_XSP16, literal(-6)))
          CFI ?RET_LOW load(1, XDATA, add(CFA_XSP16, literal(-5)))
          CFI ?RET_HIGH load(1, XDATA, add(CFA_XSP16, literal(-4)))
          CFI ?BRET_EXT load(1, XDATA, add(CFA_XSP16, literal(-3)))
          CFI DPL0 load(1, XDATA, add(CFA_XSP16, literal(-2)))
          CFI DPH0 load(1, XDATA, add(CFA_XSP16, literal(-1)))
          CFI CFA_SP SP+0
          CFI CFA_XSP16 add(XSP16, 24)
          CFI Block cfiCond5 Using cfiCommon0
          CFI (cfiCond5) Function printRSSIandLQI
          CFI (cfiCond5) Conditional ??CrossCallReturnLabel_116
          CFI (cfiCond5) R6 load(1, XDATA, add(CFA_XSP16, literal(-18)))
          CFI (cfiCond5) VB load(1, XDATA, add(CFA_XSP16, literal(-17)))
          CFI (cfiCond5) V0 load(1, XDATA, add(CFA_XSP16, literal(-16)))
          CFI (cfiCond5) V1 load(1, XDATA, add(CFA_XSP16, literal(-15)))
          CFI (cfiCond5) V2 load(1, XDATA, add(CFA_XSP16, literal(-14)))
          CFI (cfiCond5) V3 load(1, XDATA, add(CFA_XSP16, literal(-13)))
          CFI (cfiCond5) V4 load(1, XDATA, add(CFA_XSP16, literal(-12)))
          CFI (cfiCond5) V5 load(1, XDATA, add(CFA_XSP16, literal(-11)))
          CFI (cfiCond5) V6 load(1, XDATA, add(CFA_XSP16, literal(-10)))
          CFI (cfiCond5) V7 load(1, XDATA, add(CFA_XSP16, literal(-9)))
          CFI (cfiCond5) V8 load(1, XDATA, add(CFA_XSP16, literal(-8)))
          CFI (cfiCond5) V9 load(1, XDATA, add(CFA_XSP16, literal(-7)))
          CFI (cfiCond5) R7 load(1, XDATA, add(CFA_XSP16, literal(-6)))
          CFI (cfiCond5) ?RET_LOW load(1, XDATA, add(CFA_XSP16, literal(-5)))
          CFI (cfiCond5) ?RET_HIGH load(1, XDATA, add(CFA_XSP16, literal(-4)))
          CFI (cfiCond5) ?BRET_EXT load(1, XDATA, add(CFA_XSP16, literal(-3)))
          CFI (cfiCond5) DPL0 load(1, XDATA, add(CFA_XSP16, literal(-2)))
          CFI (cfiCond5) DPH0 load(1, XDATA, add(CFA_XSP16, literal(-1)))
          CFI (cfiCond5) CFA_SP SP+0
          CFI (cfiCond5) CFA_XSP16 add(XSP16, 24)
          CFI Block cfiCond6 Using cfiCommon0
          CFI (cfiCond6) Function printRSSIandLQI
          CFI (cfiCond6) Conditional ??CrossCallReturnLabel_113
          CFI (cfiCond6) R6 load(1, XDATA, add(CFA_XSP16, literal(-18)))
          CFI (cfiCond6) VB load(1, XDATA, add(CFA_XSP16, literal(-17)))
          CFI (cfiCond6) V0 load(1, XDATA, add(CFA_XSP16, literal(-16)))
          CFI (cfiCond6) V1 load(1, XDATA, add(CFA_XSP16, literal(-15)))
          CFI (cfiCond6) V2 load(1, XDATA, add(CFA_XSP16, literal(-14)))
          CFI (cfiCond6) V3 load(1, XDATA, add(CFA_XSP16, literal(-13)))
          CFI (cfiCond6) V4 load(1, XDATA, add(CFA_XSP16, literal(-12)))
          CFI (cfiCond6) V5 load(1, XDATA, add(CFA_XSP16, literal(-11)))
          CFI (cfiCond6) V6 load(1, XDATA, add(CFA_XSP16, literal(-10)))
          CFI (cfiCond6) V7 load(1, XDATA, add(CFA_XSP16, literal(-9)))
          CFI (cfiCond6) V8 load(1, XDATA, add(CFA_XSP16, literal(-8)))
          CFI (cfiCond6) V9 load(1, XDATA, add(CFA_XSP16, literal(-7)))
          CFI (cfiCond6) R7 load(1, XDATA, add(CFA_XSP16, literal(-6)))
          CFI (cfiCond6) ?RET_LOW load(1, XDATA, add(CFA_XSP16, literal(-5)))
          CFI (cfiCond6) ?RET_HIGH load(1, XDATA, add(CFA_XSP16, literal(-4)))
          CFI (cfiCond6) ?BRET_EXT load(1, XDATA, add(CFA_XSP16, literal(-3)))
          CFI (cfiCond6) DPL0 load(1, XDATA, add(CFA_XSP16, literal(-2)))
          CFI (cfiCond6) DPH0 load(1, XDATA, add(CFA_XSP16, literal(-1)))
          CFI (cfiCond6) CFA_SP SP+0
          CFI (cfiCond6) CFA_XSP16 add(XSP16, 24)
          CFI Block cfiCond7 Using cfiCommon0
          CFI (cfiCond7) Function printRSSIandLQI
          CFI (cfiCond7) Conditional ??CrossCallReturnLabel_114
          CFI (cfiCond7) R6 load(1, XDATA, add(CFA_XSP16, literal(-18)))
          CFI (cfiCond7) VB load(1, XDATA, add(CFA_XSP16, literal(-17)))
          CFI (cfiCond7) V0 load(1, XDATA, add(CFA_XSP16, literal(-16)))
          CFI (cfiCond7) V1 load(1, XDATA, add(CFA_XSP16, literal(-15)))
          CFI (cfiCond7) V2 load(1, XDATA, add(CFA_XSP16, literal(-14)))
          CFI (cfiCond7) V3 load(1, XDATA, add(CFA_XSP16, literal(-13)))
          CFI (cfiCond7) V4 load(1, XDATA, add(CFA_XSP16, literal(-12)))
          CFI (cfiCond7) V5 load(1, XDATA, add(CFA_XSP16, literal(-11)))
          CFI (cfiCond7) V6 load(1, XDATA, add(CFA_XSP16, literal(-10)))
          CFI (cfiCond7) V7 load(1, XDATA, add(CFA_XSP16, literal(-9)))
          CFI (cfiCond7) V8 load(1, XDATA, add(CFA_XSP16, literal(-8)))
          CFI (cfiCond7) V9 load(1, XDATA, add(CFA_XSP16, literal(-7)))
          CFI (cfiCond7) R7 load(1, XDATA, add(CFA_XSP16, literal(-6)))
          CFI (cfiCond7) ?RET_LOW load(1, XDATA, add(CFA_XSP16, literal(-5)))
          CFI (cfiCond7) ?RET_HIGH load(1, XDATA, add(CFA_XSP16, literal(-4)))
          CFI (cfiCond7) ?BRET_EXT load(1, XDATA, add(CFA_XSP16, literal(-3)))
          CFI (cfiCond7) DPL0 load(1, XDATA, add(CFA_XSP16, literal(-2)))
          CFI (cfiCond7) DPH0 load(1, XDATA, add(CFA_XSP16, literal(-1)))
          CFI (cfiCond7) CFA_SP SP+0
          CFI (cfiCond7) CFA_XSP16 add(XSP16, 24)
          CFI Block cfiPicker8 Using cfiCommon1
          CFI (cfiPicker8) NoFunction
          CFI (cfiPicker8) Picker
        MOVX    @DPTR,A
        MOV     A,R0
        MOV     B,#0xa
        RET
          CFI EndBlock cfiCond4
          CFI EndBlock cfiCond5
          CFI EndBlock cfiCond6
          CFI EndBlock cfiCond7
          CFI EndBlock cfiPicker8

        RSEG BANKED_CODE:CODE:NOROOT(0)
?Subroutine25:
          CFI Block cfiCond9 Using cfiCommon0
          CFI Function printRSSIandLQI
          CFI Conditional ??CrossCallReturnLabel_75
          CFI R6 load(1, XDATA, add(CFA_XSP16, literal(-18)))
          CFI VB load(1, XDATA, add(CFA_XSP16, literal(-17)))
          CFI V0 load(1, XDATA, add(CFA_XSP16, literal(-16)))
          CFI V1 load(1, XDATA, add(CFA_XSP16, literal(-15)))
          CFI V2 load(1, XDATA, add(CFA_XSP16, literal(-14)))
          CFI V3 load(1, XDATA, add(CFA_XSP16, literal(-13)))
          CFI V4 load(1, XDATA, add(CFA_XSP16, literal(-12)))
          CFI V5 load(1, XDATA, add(CFA_XSP16, literal(-11)))
          CFI V6 load(1, XDATA, add(CFA_XSP16, literal(-10)))
          CFI V7 load(1, XDATA, add(CFA_XSP16, literal(-9)))
          CFI V8 load(1, XDATA, add(CFA_XSP16, literal(-8)))
          CFI V9 load(1, XDATA, add(CFA_XSP16, literal(-7)))
          CFI R7 load(1, XDATA, add(CFA_XSP16, literal(-6)))
          CFI ?RET_LOW load(1, XDATA, add(CFA_XSP16, literal(-5)))
          CFI ?RET_HIGH load(1, XDATA, add(CFA_XSP16, literal(-4)))
          CFI ?BRET_EXT load(1, XDATA, add(CFA_XSP16, literal(-3)))
          CFI DPL0 load(1, XDATA, add(CFA_XSP16, literal(-2)))
          CFI DPH0 load(1, XDATA, add(CFA_XSP16, literal(-1)))
          CFI CFA_SP SP+0
          CFI CFA_XSP16 add(XSP16, 24)
          CFI Block cfiCond10 Using cfiCommon0
          CFI (cfiCond10) Function printRSSIandLQI
          CFI (cfiCond10) Conditional ??CrossCallReturnLabel_76
          CFI (cfiCond10) R6 load(1, XDATA, add(CFA_XSP16, literal(-18)))
          CFI (cfiCond10) VB load(1, XDATA, add(CFA_XSP16, literal(-17)))
          CFI (cfiCond10) V0 load(1, XDATA, add(CFA_XSP16, literal(-16)))
          CFI (cfiCond10) V1 load(1, XDATA, add(CFA_XSP16, literal(-15)))
          CFI (cfiCond10) V2 load(1, XDATA, add(CFA_XSP16, literal(-14)))
          CFI (cfiCond10) V3 load(1, XDATA, add(CFA_XSP16, literal(-13)))
          CFI (cfiCond10) V4 load(1, XDATA, add(CFA_XSP16, literal(-12)))
          CFI (cfiCond10) V5 load(1, XDATA, add(CFA_XSP16, literal(-11)))
          CFI (cfiCond10) V6 load(1, XDATA, add(CFA_XSP16, literal(-10)))
          CFI (cfiCond10) V7 load(1, XDATA, add(CFA_XSP16, literal(-9)))
          CFI (cfiCond10) V8 load(1, XDATA, add(CFA_XSP16, literal(-8)))
          CFI (cfiCond10) V9 load(1, XDATA, add(CFA_XSP16, literal(-7)))
          CFI (cfiCond10) R7 load(1, XDATA, add(CFA_XSP16, literal(-6)))
          CFI (cfiCond10) ?RET_LOW load(1, XDATA, add(CFA_XSP16, literal(-5)))
          CFI (cfiCond10) ?RET_HIGH load(1, XDATA, add(CFA_XSP16, literal(-4)))
          CFI (cfiCond10) ?BRET_EXT load(1, XDATA, add(CFA_XSP16, literal(-3)))
          CFI (cfiCond10) DPL0 load(1, XDATA, add(CFA_XSP16, literal(-2)))
          CFI (cfiCond10) DPH0 load(1, XDATA, add(CFA_XSP16, literal(-1)))
          CFI (cfiCond10) CFA_SP SP+0
          CFI (cfiCond10) CFA_XSP16 add(XSP16, 24)
          CFI Block cfiPicker11 Using cfiCommon1
          CFI (cfiPicker11) NoFunction
          CFI (cfiPicker11) Picker
        MOVX    @DPTR,A
        MOV     A,R0
        MOV     B,#0xa
        DIV     AB
        MOV     A,B
        ADD     A,#0x30
        RET
          CFI EndBlock cfiCond9
          CFI EndBlock cfiCond10
          CFI EndBlock cfiPicker11

        RSEG BANKED_CODE:CODE:NOROOT(0)
?Subroutine23:
          CFI Block cfiCond12 Using cfiCommon0
          CFI Function printRSSIandLQI
          CFI Conditional ??CrossCallReturnLabel_71
          CFI R6 load(1, XDATA, add(CFA_XSP16, literal(-18)))
          CFI VB load(1, XDATA, add(CFA_XSP16, literal(-17)))
          CFI V0 load(1, XDATA, add(CFA_XSP16, literal(-16)))
          CFI V1 load(1, XDATA, add(CFA_XSP16, literal(-15)))
          CFI V2 load(1, XDATA, add(CFA_XSP16, literal(-14)))
          CFI V3 load(1, XDATA, add(CFA_XSP16, literal(-13)))
          CFI V4 load(1, XDATA, add(CFA_XSP16, literal(-12)))
          CFI V5 load(1, XDATA, add(CFA_XSP16, literal(-11)))
          CFI V6 load(1, XDATA, add(CFA_XSP16, literal(-10)))
          CFI V7 load(1, XDATA, add(CFA_XSP16, literal(-9)))
          CFI V8 load(1, XDATA, add(CFA_XSP16, literal(-8)))
          CFI V9 load(1, XDATA, add(CFA_XSP16, literal(-7)))
          CFI R7 load(1, XDATA, add(CFA_XSP16, literal(-6)))
          CFI ?RET_LOW load(1, XDATA, add(CFA_XSP16, literal(-5)))
          CFI ?RET_HIGH load(1, XDATA, add(CFA_XSP16, literal(-4)))
          CFI ?BRET_EXT load(1, XDATA, add(CFA_XSP16, literal(-3)))
          CFI DPL0 load(1, XDATA, add(CFA_XSP16, literal(-2)))
          CFI DPH0 load(1, XDATA, add(CFA_XSP16, literal(-1)))
          CFI CFA_SP SP+0
          CFI CFA_XSP16 add(XSP16, 24)
          CFI Block cfiCond13 Using cfiCommon0
          CFI (cfiCond13) Function printRSSIandLQI
          CFI (cfiCond13) Conditional ??CrossCallReturnLabel_72
          CFI (cfiCond13) R6 load(1, XDATA, add(CFA_XSP16, literal(-18)))
          CFI (cfiCond13) VB load(1, XDATA, add(CFA_XSP16, literal(-17)))
          CFI (cfiCond13) V0 load(1, XDATA, add(CFA_XSP16, literal(-16)))
          CFI (cfiCond13) V1 load(1, XDATA, add(CFA_XSP16, literal(-15)))
          CFI (cfiCond13) V2 load(1, XDATA, add(CFA_XSP16, literal(-14)))
          CFI (cfiCond13) V3 load(1, XDATA, add(CFA_XSP16, literal(-13)))
          CFI (cfiCond13) V4 load(1, XDATA, add(CFA_XSP16, literal(-12)))
          CFI (cfiCond13) V5 load(1, XDATA, add(CFA_XSP16, literal(-11)))
          CFI (cfiCond13) V6 load(1, XDATA, add(CFA_XSP16, literal(-10)))
          CFI (cfiCond13) V7 load(1, XDATA, add(CFA_XSP16, literal(-9)))
          CFI (cfiCond13) V8 load(1, XDATA, add(CFA_XSP16, literal(-8)))
          CFI (cfiCond13) V9 load(1, XDATA, add(CFA_XSP16, literal(-7)))
          CFI (cfiCond13) R7 load(1, XDATA, add(CFA_XSP16, literal(-6)))
          CFI (cfiCond13) ?RET_LOW load(1, XDATA, add(CFA_XSP16, literal(-5)))
          CFI (cfiCond13) ?RET_HIGH load(1, XDATA, add(CFA_XSP16, literal(-4)))
          CFI (cfiCond13) ?BRET_EXT load(1, XDATA, add(CFA_XSP16, literal(-3)))
          CFI (cfiCond13) DPL0 load(1, XDATA, add(CFA_XSP16, literal(-2)))
          CFI (cfiCond13) DPH0 load(1, XDATA, add(CFA_XSP16, literal(-1)))
          CFI (cfiCond13) CFA_SP SP+0
          CFI (cfiCond13) CFA_XSP16 add(XSP16, 24)
          CFI Block cfiPicker14 Using cfiCommon1
          CFI (cfiPicker14) NoFunction
          CFI (cfiPicker14) Picker
        MOVX    @DPTR,A
        ; Setup parameters for call to function HalUARTWrite
        ; Setup parameters for call to function HalUARTWrite
        MOV     R4,#0x4
        MOV     R5,#0x0
        MOV     R2,?V0 + 2
        MOV     R3,?V0 + 3
        MOV     R1,#0x0
        RET
          CFI EndBlock cfiCond12
          CFI EndBlock cfiCond13
          CFI EndBlock cfiPicker14

        RSEG BANKED_CODE:CODE:NOROOT(0)
?Subroutine21:
          CFI Block cfiCond15 Using cfiCommon0
          CFI Function printRSSIandLQI
          CFI Conditional ??CrossCallReturnLabel_58
          CFI R6 load(1, XDATA, add(CFA_XSP16, literal(-18)))
          CFI VB load(1, XDATA, add(CFA_XSP16, literal(-17)))
          CFI V0 load(1, XDATA, add(CFA_XSP16, literal(-16)))
          CFI V1 load(1, XDATA, add(CFA_XSP16, literal(-15)))
          CFI V2 load(1, XDATA, add(CFA_XSP16, literal(-14)))
          CFI V3 load(1, XDATA, add(CFA_XSP16, literal(-13)))
          CFI V4 load(1, XDATA, add(CFA_XSP16, literal(-12)))
          CFI V5 load(1, XDATA, add(CFA_XSP16, literal(-11)))
          CFI V6 load(1, XDATA, add(CFA_XSP16, literal(-10)))
          CFI V7 load(1, XDATA, add(CFA_XSP16, literal(-9)))
          CFI V8 load(1, XDATA, add(CFA_XSP16, literal(-8)))
          CFI V9 load(1, XDATA, add(CFA_XSP16, literal(-7)))
          CFI R7 load(1, XDATA, add(CFA_XSP16, literal(-6)))
          CFI ?RET_LOW load(1, XDATA, add(CFA_XSP16, literal(-5)))
          CFI ?RET_HIGH load(1, XDATA, add(CFA_XSP16, literal(-4)))
          CFI ?BRET_EXT load(1, XDATA, add(CFA_XSP16, literal(-3)))
          CFI DPL0 load(1, XDATA, add(CFA_XSP16, literal(-2)))
          CFI DPH0 load(1, XDATA, add(CFA_XSP16, literal(-1)))
          CFI CFA_SP SP+0
          CFI CFA_XSP16 add(XSP16, 24)
          CFI Block cfiCond16 Using cfiCommon0
          CFI (cfiCond16) Function printRSSIandLQI
          CFI (cfiCond16) Conditional ??CrossCallReturnLabel_59
          CFI (cfiCond16) R6 load(1, XDATA, add(CFA_XSP16, literal(-18)))
          CFI (cfiCond16) VB load(1, XDATA, add(CFA_XSP16, literal(-17)))
          CFI (cfiCond16) V0 load(1, XDATA, add(CFA_XSP16, literal(-16)))
          CFI (cfiCond16) V1 load(1, XDATA, add(CFA_XSP16, literal(-15)))
          CFI (cfiCond16) V2 load(1, XDATA, add(CFA_XSP16, literal(-14)))
          CFI (cfiCond16) V3 load(1, XDATA, add(CFA_XSP16, literal(-13)))
          CFI (cfiCond16) V4 load(1, XDATA, add(CFA_XSP16, literal(-12)))
          CFI (cfiCond16) V5 load(1, XDATA, add(CFA_XSP16, literal(-11)))
          CFI (cfiCond16) V6 load(1, XDATA, add(CFA_XSP16, literal(-10)))
          CFI (cfiCond16) V7 load(1, XDATA, add(CFA_XSP16, literal(-9)))
          CFI (cfiCond16) V8 load(1, XDATA, add(CFA_XSP16, literal(-8)))
          CFI (cfiCond16) V9 load(1, XDATA, add(CFA_XSP16, literal(-7)))
          CFI (cfiCond16) R7 load(1, XDATA, add(CFA_XSP16, literal(-6)))
          CFI (cfiCond16) ?RET_LOW load(1, XDATA, add(CFA_XSP16, literal(-5)))
          CFI (cfiCond16) ?RET_HIGH load(1, XDATA, add(CFA_XSP16, literal(-4)))
          CFI (cfiCond16) ?BRET_EXT load(1, XDATA, add(CFA_XSP16, literal(-3)))
          CFI (cfiCond16) DPL0 load(1, XDATA, add(CFA_XSP16, literal(-2)))
          CFI (cfiCond16) DPH0 load(1, XDATA, add(CFA_XSP16, literal(-1)))
          CFI (cfiCond16) CFA_SP SP+0
          CFI (cfiCond16) CFA_XSP16 add(XSP16, 24)
          CFI Block cfiPicker17 Using cfiCommon1
          CFI (cfiPicker17) NoFunction
          CFI (cfiPicker17) Picker
        MOVX    @DPTR,A
        MOV     A,R0
        MOV     B,#0x64
        DIV     AB
        MOV     A,B
        MOV     B,#0xa
        DIV     AB
        ADD     A,#0x30
        RET
          CFI EndBlock cfiCond15
          CFI EndBlock cfiCond16
          CFI EndBlock cfiPicker17

        RSEG BANKED_CODE:CODE:NOROOT(0)
?Subroutine19:
          CFI Block cfiCond18 Using cfiCommon0
          CFI Function printRSSIandLQI
          CFI Conditional ??CrossCallReturnLabel_54
          CFI R6 load(1, XDATA, add(CFA_XSP16, literal(-18)))
          CFI VB load(1, XDATA, add(CFA_XSP16, literal(-17)))
          CFI V0 load(1, XDATA, add(CFA_XSP16, literal(-16)))
          CFI V1 load(1, XDATA, add(CFA_XSP16, literal(-15)))
          CFI V2 load(1, XDATA, add(CFA_XSP16, literal(-14)))
          CFI V3 load(1, XDATA, add(CFA_XSP16, literal(-13)))
          CFI V4 load(1, XDATA, add(CFA_XSP16, literal(-12)))
          CFI V5 load(1, XDATA, add(CFA_XSP16, literal(-11)))
          CFI V6 load(1, XDATA, add(CFA_XSP16, literal(-10)))
          CFI V7 load(1, XDATA, add(CFA_XSP16, literal(-9)))
          CFI V8 load(1, XDATA, add(CFA_XSP16, literal(-8)))
          CFI V9 load(1, XDATA, add(CFA_XSP16, literal(-7)))
          CFI R7 load(1, XDATA, add(CFA_XSP16, literal(-6)))
          CFI ?RET_LOW load(1, XDATA, add(CFA_XSP16, literal(-5)))
          CFI ?RET_HIGH load(1, XDATA, add(CFA_XSP16, literal(-4)))
          CFI ?BRET_EXT load(1, XDATA, add(CFA_XSP16, literal(-3)))
          CFI DPL0 load(1, XDATA, add(CFA_XSP16, literal(-2)))
          CFI DPH0 load(1, XDATA, add(CFA_XSP16, literal(-1)))
          CFI CFA_SP SP+0
          CFI CFA_XSP16 add(XSP16, 24)
          CFI Block cfiCond19 Using cfiCommon0
          CFI (cfiCond19) Function printRSSIandLQI
          CFI (cfiCond19) Conditional ??CrossCallReturnLabel_55
          CFI (cfiCond19) R6 load(1, XDATA, add(CFA_XSP16, literal(-18)))
          CFI (cfiCond19) VB load(1, XDATA, add(CFA_XSP16, literal(-17)))
          CFI (cfiCond19) V0 load(1, XDATA, add(CFA_XSP16, literal(-16)))
          CFI (cfiCond19) V1 load(1, XDATA, add(CFA_XSP16, literal(-15)))
          CFI (cfiCond19) V2 load(1, XDATA, add(CFA_XSP16, literal(-14)))
          CFI (cfiCond19) V3 load(1, XDATA, add(CFA_XSP16, literal(-13)))
          CFI (cfiCond19) V4 load(1, XDATA, add(CFA_XSP16, literal(-12)))
          CFI (cfiCond19) V5 load(1, XDATA, add(CFA_XSP16, literal(-11)))
          CFI (cfiCond19) V6 load(1, XDATA, add(CFA_XSP16, literal(-10)))
          CFI (cfiCond19) V7 load(1, XDATA, add(CFA_XSP16, literal(-9)))
          CFI (cfiCond19) V8 load(1, XDATA, add(CFA_XSP16, literal(-8)))
          CFI (cfiCond19) V9 load(1, XDATA, add(CFA_XSP16, literal(-7)))
          CFI (cfiCond19) R7 load(1, XDATA, add(CFA_XSP16, literal(-6)))
          CFI (cfiCond19) ?RET_LOW load(1, XDATA, add(CFA_XSP16, literal(-5)))
          CFI (cfiCond19) ?RET_HIGH load(1, XDATA, add(CFA_XSP16, literal(-4)))
          CFI (cfiCond19) ?BRET_EXT load(1, XDATA, add(CFA_XSP16, literal(-3)))
          CFI (cfiCond19) DPL0 load(1, XDATA, add(CFA_XSP16, literal(-2)))
          CFI (cfiCond19) DPH0 load(1, XDATA, add(CFA_XSP16, literal(-1)))
          CFI (cfiCond19) CFA_SP SP+0
          CFI (cfiCond19) CFA_XSP16 add(XSP16, 24)
          CFI Block cfiPicker20 Using cfiCommon1
          CFI (cfiPicker20) NoFunction
          CFI (cfiPicker20) Picker
        MOV     DPL,?V0 + 0
        MOV     DPH,?V0 + 1
        MOVX    A,@DPTR
        MOV     R0,A
        MOV     B,#0x64
        DIV     AB
        ADD     A,#0x30
        RET
          CFI EndBlock cfiCond18
          CFI EndBlock cfiCond19
          CFI EndBlock cfiPicker20

        RSEG BANKED_CODE:CODE:NOROOT(0)
?Subroutine10:
          CFI Block cfiCond21 Using cfiCommon0
          CFI Function printRSSIandLQI
          CFI Conditional ??CrossCallReturnLabel_19
          CFI R6 load(1, XDATA, add(CFA_XSP16, literal(-18)))
          CFI VB load(1, XDATA, add(CFA_XSP16, literal(-17)))
          CFI V0 load(1, XDATA, add(CFA_XSP16, literal(-16)))
          CFI V1 load(1, XDATA, add(CFA_XSP16, literal(-15)))
          CFI V2 load(1, XDATA, add(CFA_XSP16, literal(-14)))
          CFI V3 load(1, XDATA, add(CFA_XSP16, literal(-13)))
          CFI V4 load(1, XDATA, add(CFA_XSP16, literal(-12)))
          CFI V5 load(1, XDATA, add(CFA_XSP16, literal(-11)))
          CFI V6 load(1, XDATA, add(CFA_XSP16, literal(-10)))
          CFI V7 load(1, XDATA, add(CFA_XSP16, literal(-9)))
          CFI V8 load(1, XDATA, add(CFA_XSP16, literal(-8)))
          CFI V9 load(1, XDATA, add(CFA_XSP16, literal(-7)))
          CFI R7 load(1, XDATA, add(CFA_XSP16, literal(-6)))
          CFI ?RET_LOW load(1, XDATA, add(CFA_XSP16, literal(-5)))
          CFI ?RET_HIGH load(1, XDATA, add(CFA_XSP16, literal(-4)))
          CFI ?BRET_EXT load(1, XDATA, add(CFA_XSP16, literal(-3)))
          CFI DPL0 load(1, XDATA, add(CFA_XSP16, literal(-2)))
          CFI DPH0 load(1, XDATA, add(CFA_XSP16, literal(-1)))
          CFI CFA_SP SP+0
          CFI CFA_XSP16 add(XSP16, 24)
          CFI Block cfiCond22 Using cfiCommon0
          CFI (cfiCond22) Function printRSSIandLQI
          CFI (cfiCond22) Conditional ??CrossCallReturnLabel_20
          CFI (cfiCond22) R6 load(1, XDATA, add(CFA_XSP16, literal(-18)))
          CFI (cfiCond22) VB load(1, XDATA, add(CFA_XSP16, literal(-17)))
          CFI (cfiCond22) V0 load(1, XDATA, add(CFA_XSP16, literal(-16)))
          CFI (cfiCond22) V1 load(1, XDATA, add(CFA_XSP16, literal(-15)))
          CFI (cfiCond22) V2 load(1, XDATA, add(CFA_XSP16, literal(-14)))
          CFI (cfiCond22) V3 load(1, XDATA, add(CFA_XSP16, literal(-13)))
          CFI (cfiCond22) V4 load(1, XDATA, add(CFA_XSP16, literal(-12)))
          CFI (cfiCond22) V5 load(1, XDATA, add(CFA_XSP16, literal(-11)))
          CFI (cfiCond22) V6 load(1, XDATA, add(CFA_XSP16, literal(-10)))
          CFI (cfiCond22) V7 load(1, XDATA, add(CFA_XSP16, literal(-9)))
          CFI (cfiCond22) V8 load(1, XDATA, add(CFA_XSP16, literal(-8)))
          CFI (cfiCond22) V9 load(1, XDATA, add(CFA_XSP16, literal(-7)))
          CFI (cfiCond22) R7 load(1, XDATA, add(CFA_XSP16, literal(-6)))
          CFI (cfiCond22) ?RET_LOW load(1, XDATA, add(CFA_XSP16, literal(-5)))
          CFI (cfiCond22) ?RET_HIGH load(1, XDATA, add(CFA_XSP16, literal(-4)))
          CFI (cfiCond22) ?BRET_EXT load(1, XDATA, add(CFA_XSP16, literal(-3)))
          CFI (cfiCond22) DPL0 load(1, XDATA, add(CFA_XSP16, literal(-2)))
          CFI (cfiCond22) DPH0 load(1, XDATA, add(CFA_XSP16, literal(-1)))
          CFI (cfiCond22) CFA_SP SP+0
          CFI (cfiCond22) CFA_XSP16 add(XSP16, 24)
          CFI Block cfiPicker23 Using cfiCommon1
          CFI (cfiPicker23) NoFunction
          CFI (cfiPicker23) Picker
        MOVX    A,@DPTR
        MOV     R4,A
        INC     DPTR
        MOVX    A,@DPTR
        MOV     R5,A
        MOV     DPL,?V0 + 6
        MOV     DPH,?V0 + 7
        LCALL   ?Subroutine37 & 0xFFFF
??CrossCallReturnLabel_104:
        MOV     R1,#0x0
        RET
          CFI EndBlock cfiCond21
          CFI EndBlock cfiCond22
          CFI EndBlock cfiPicker23

        RSEG BANKED_CODE:CODE:NOROOT(0)
?Subroutine3:
          CFI Block cfiCond24 Using cfiCommon0
          CFI Function printRSSIandLQI
          CFI Conditional ??CrossCallReturnLabel_3
          CFI R6 load(1, XDATA, add(CFA_XSP16, literal(-18)))
          CFI VB load(1, XDATA, add(CFA_XSP16, literal(-17)))
          CFI V0 load(1, XDATA, add(CFA_XSP16, literal(-16)))
          CFI V1 load(1, XDATA, add(CFA_XSP16, literal(-15)))
          CFI V2 load(1, XDATA, add(CFA_XSP16, literal(-14)))
          CFI V3 load(1, XDATA, add(CFA_XSP16, literal(-13)))
          CFI V4 load(1, XDATA, add(CFA_XSP16, literal(-12)))
          CFI V5 load(1, XDATA, add(CFA_XSP16, literal(-11)))
          CFI V6 load(1, XDATA, add(CFA_XSP16, literal(-10)))
          CFI V7 load(1, XDATA, add(CFA_XSP16, literal(-9)))
          CFI V8 load(1, XDATA, add(CFA_XSP16, literal(-8)))
          CFI V9 load(1, XDATA, add(CFA_XSP16, literal(-7)))
          CFI R7 load(1, XDATA, add(CFA_XSP16, literal(-6)))
          CFI ?RET_LOW load(1, XDATA, add(CFA_XSP16, literal(-5)))
          CFI ?RET_HIGH load(1, XDATA, add(CFA_XSP16, literal(-4)))
          CFI ?BRET_EXT load(1, XDATA, add(CFA_XSP16, literal(-3)))
          CFI DPL0 load(1, XDATA, add(CFA_XSP16, literal(-2)))
          CFI DPH0 load(1, XDATA, add(CFA_XSP16, literal(-1)))
          CFI CFA_SP SP+0
          CFI CFA_XSP16 add(XSP16, 24)
          CFI Block cfiCond25 Using cfiCommon0
          CFI (cfiCond25) Function printRSSIandLQI
          CFI (cfiCond25) Conditional ??CrossCallReturnLabel_4
          CFI (cfiCond25) R6 load(1, XDATA, add(CFA_XSP16, literal(-18)))
          CFI (cfiCond25) VB load(1, XDATA, add(CFA_XSP16, literal(-17)))
          CFI (cfiCond25) V0 load(1, XDATA, add(CFA_XSP16, literal(-16)))
          CFI (cfiCond25) V1 load(1, XDATA, add(CFA_XSP16, literal(-15)))
          CFI (cfiCond25) V2 load(1, XDATA, add(CFA_XSP16, literal(-14)))
          CFI (cfiCond25) V3 load(1, XDATA, add(CFA_XSP16, literal(-13)))
          CFI (cfiCond25) V4 load(1, XDATA, add(CFA_XSP16, literal(-12)))
          CFI (cfiCond25) V5 load(1, XDATA, add(CFA_XSP16, literal(-11)))
          CFI (cfiCond25) V6 load(1, XDATA, add(CFA_XSP16, literal(-10)))
          CFI (cfiCond25) V7 load(1, XDATA, add(CFA_XSP16, literal(-9)))
          CFI (cfiCond25) V8 load(1, XDATA, add(CFA_XSP16, literal(-8)))
          CFI (cfiCond25) V9 load(1, XDATA, add(CFA_XSP16, literal(-7)))
          CFI (cfiCond25) R7 load(1, XDATA, add(CFA_XSP16, literal(-6)))
          CFI (cfiCond25) ?RET_LOW load(1, XDATA, add(CFA_XSP16, literal(-5)))
          CFI (cfiCond25) ?RET_HIGH load(1, XDATA, add(CFA_XSP16, literal(-4)))
          CFI (cfiCond25) ?BRET_EXT load(1, XDATA, add(CFA_XSP16, literal(-3)))
          CFI (cfiCond25) DPL0 load(1, XDATA, add(CFA_XSP16, literal(-2)))
          CFI (cfiCond25) DPH0 load(1, XDATA, add(CFA_XSP16, literal(-1)))
          CFI (cfiCond25) CFA_SP SP+0
          CFI (cfiCond25) CFA_XSP16 add(XSP16, 24)
          CFI Block cfiPicker26 Using cfiCommon1
          CFI (cfiPicker26) NoFunction
          CFI (cfiPicker26) Picker
        MOV     A,R2
        ADD     A,#0x18
        MOV     DPL,A
        MOV     A,R3
        ADDC    A,#0x0
        MOV     DPH,A
        MOVX    A,@DPTR
        MOV     R0,A
        MOV     A,#-0x1
        CLR     C
        SUBB    A,R0
        MOV     R0,A
        RET
          CFI EndBlock cfiCond24
          CFI EndBlock cfiCond25
          CFI EndBlock cfiPicker26
//   78 
//   79 
//   80 
//   81 /*********************************************************************
//   82  * @fn      SampleApp_MinMax_localization
//   83  *
//   84  * @brief   calculate the position of a quadrotor
//   85  *
//   86  * @param   rssi_i readings from different anchors, the result will be stored in xposition and yposition
//   87  *
//   88  * @return  none
//   89  */

        RSEG BANKED_CODE:CODE:NOROOT(0)
//   90 void SampleApp_MinMax_localization(float* xposition, float* yposition, float zposition, float nValue[4], float RssiValue[4],
SampleApp_MinMax_localization:
          CFI Block cfiBlock27 Using cfiCommon0
          CFI Function SampleApp_MinMax_localization
        CODE
//   91                                    float AValue[4], float AnchorX[4], float AnchorY[4], float OffsetA[4])
//   92 {
        FUNCALL SampleApp_MinMax_localization, pow
        LOCFRAME ISTACK, 0, STACK
        LOCFRAME PSTACK, 0, STACK
        LOCFRAME XSTACK, 66, STACK
        LOCFRAME IOVERLAY, 0, STATIC
        LOCFRAME DOVERLAY, 0, STATIC
        ARGFRAME ISTACK, 0, STACK
        ARGFRAME PSTACK, 0, STACK
        ARGFRAME XSTACK, 66, STACK
        ARGFRAME IOVERLAY, 0, STATIC
        ARGFRAME DOVERLAY, 0, STATIC
        FUNCALL SampleApp_MinMax_localization, pow
        LOCFRAME ISTACK, 0, STACK
        LOCFRAME PSTACK, 0, STACK
        LOCFRAME XSTACK, 66, STACK
        LOCFRAME IOVERLAY, 0, STATIC
        LOCFRAME DOVERLAY, 0, STATIC
        ARGFRAME ISTACK, 0, STACK
        ARGFRAME PSTACK, 0, STACK
        ARGFRAME XSTACK, 66, STACK
        ARGFRAME IOVERLAY, 0, STATIC
        ARGFRAME DOVERLAY, 0, STATIC
        MOV     A,#-0x18
        LCALL   ?BANKED_ENTER_XDATA
          CFI DPH0 load(1, XDATA, add(CFA_XSP16, literal(-1)))
          CFI DPL0 load(1, XDATA, add(CFA_XSP16, literal(-2)))
          CFI ?BRET_EXT load(1, XDATA, add(CFA_XSP16, literal(-3)))
          CFI ?RET_HIGH load(1, XDATA, add(CFA_XSP16, literal(-4)))
          CFI ?RET_LOW load(1, XDATA, add(CFA_XSP16, literal(-5)))
          CFI R7 load(1, XDATA, add(CFA_XSP16, literal(-6)))
          CFI V15 load(1, XDATA, add(CFA_XSP16, literal(-7)))
          CFI V14 load(1, XDATA, add(CFA_XSP16, literal(-8)))
          CFI V13 load(1, XDATA, add(CFA_XSP16, literal(-9)))
          CFI V12 load(1, XDATA, add(CFA_XSP16, literal(-10)))
          CFI V11 load(1, XDATA, add(CFA_XSP16, literal(-11)))
          CFI V10 load(1, XDATA, add(CFA_XSP16, literal(-12)))
          CFI V9 load(1, XDATA, add(CFA_XSP16, literal(-13)))
          CFI V8 load(1, XDATA, add(CFA_XSP16, literal(-14)))
          CFI V7 load(1, XDATA, add(CFA_XSP16, literal(-15)))
          CFI V6 load(1, XDATA, add(CFA_XSP16, literal(-16)))
          CFI V5 load(1, XDATA, add(CFA_XSP16, literal(-17)))
          CFI V4 load(1, XDATA, add(CFA_XSP16, literal(-18)))
          CFI V3 load(1, XDATA, add(CFA_XSP16, literal(-19)))
          CFI V2 load(1, XDATA, add(CFA_XSP16, literal(-20)))
          CFI V1 load(1, XDATA, add(CFA_XSP16, literal(-21)))
          CFI V0 load(1, XDATA, add(CFA_XSP16, literal(-22)))
          CFI VB load(1, XDATA, add(CFA_XSP16, literal(-23)))
          CFI R6 load(1, XDATA, add(CFA_XSP16, literal(-24)))
          CFI CFA_SP SP+0
          CFI CFA_XSP16 add(XSP16, 24)
        ; Saved register size: 24
        ; Auto size: 38
        MOV     A,#-0x26
        LCALL   ?ALLOC_XSTACK8
          CFI CFA_XSP16 add(XSP16, 62)
        MOV     A,#0x14
        LCALL   ?XSTACK_DISP0_8
        MOV     A,R2
        MOVX    @DPTR,A
        INC     DPTR
        MOV     A,R3
        MOVX    @DPTR,A
        MOV     A,#0x12
        LCALL   ?XSTACK_DISP0_8
        MOV     A,R4
        MOVX    @DPTR,A
        INC     DPTR
        MOV     A,R5
        MOVX    @DPTR,A
//   93     //initial the parameter 
//   94     float x_left=-10;
        MOV     ?V0 + 0,#0x0
        MOV     ?V0 + 1,#0x0
        MOV     ?V0 + 2,#0x20
        MOV     ?V0 + 3,#-0x3f
//   95     float x_right=10;
        MOV     A,#0xe
        LCALL   ?XSTACK_DISP0_8
        LCALL   ?Subroutine24 & 0xFFFF
//   96     float y_bottom=-10;
??CrossCallReturnLabel_73:
        MOV     ?V0 + 4,#0x0
        MOV     ?V0 + 5,#0x0
        MOV     ?V0 + 6,#0x20
        MOV     ?V0 + 7,#-0x3f
//   97     float y_top=10;
        MOV     A,#0xa
        LCALL   ?XSTACK_DISP0_8
        LCALL   ?Subroutine24 & 0xFFFF
//   98     float gainconst=1.0f;
//   99     //float naverage=0.0f;
//  100     float distance[4]={0.0f};
??CrossCallReturnLabel_74:
        MOV     A,#0x16
        LCALL   ?XSTACK_DISP0_8
        MOV     R4,DPL
        MOV     R5,DPH
        MOV     DPH,#(`?<Constant {(0.0F)}>` >> 8) & 0xff
        MOV     DPL,#`?<Constant {(0.0F)}>` & 0xff
        MOV     A,#0x10
        LCALL   ?MOVE_LONG8_XDATA_XDATA
//  101 //    for(int i=0;i<4;i++)
//  102 //    {
//  103 //      naverage+=nValue[i];
//  104 //    }
//  105 //    naverage=naverage/4.0f;
//  106     //calculate the distances based on the calibrated parameter n and A
//  107     for (int i=0; i<4; i++)
        MOV     R6,A
        MOV     R7,A
        MOV     A,#0x3e
        LCALL   ?XSTACK_DISP0_8
        LCALL   ?XLOAD_R2345
        MOV     A,#0x3e
        LCALL   ?XSTACK_DISP0_8
        LCALL   ?XSTORE_R2345
        MOV     A,#0x42
        LCALL   ?XSTACK_DISP0_8
        LCALL   ?Subroutine12 & 0xFFFF
??CrossCallReturnLabel_23:
        MOV     A,#0x42
        LCALL   ?XSTACK_DISP0_8
        LCALL   ?Subroutine22 & 0xFFFF
??CrossCallReturnLabel_60:
        MOV     A,#0x44
        LCALL   ?XSTACK_DISP0_8
        LCALL   ?Subroutine12 & 0xFFFF
??CrossCallReturnLabel_24:
        MOV     A,#0x44
        LCALL   ?XSTACK_DISP0_8
        LCALL   ?Subroutine22 & 0xFFFF
??CrossCallReturnLabel_61:
        MOV     A,#0x46
        LCALL   ?XSTACK_DISP0_8
        LCALL   ?Subroutine12 & 0xFFFF
??CrossCallReturnLabel_25:
        MOV     A,#0x46
        LCALL   ?XSTACK_DISP0_8
        LCALL   ?Subroutine22 & 0xFFFF
??CrossCallReturnLabel_62:
        MOV     A,#0x4c
        LCALL   ?XSTACK_DISP0_8
        LCALL   ?Subroutine12 & 0xFFFF
??CrossCallReturnLabel_26:
        MOV     A,#0x4c
        LCALL   ?XSTACK_DISP0_8
        LCALL   ?Subroutine22 & 0xFFFF
??CrossCallReturnLabel_63:
        ; Setup parameters for call to function pow
        MOV     ?V0 + 8,R6
        MOV     ?V0 + 9,R7
        MOV     A,#0x2
        MOV     R0,#?V0 + 8
        LCALL   ?S_SHL
        MOV     A,#0x44
        LCALL   ?XSTACK_DISP0_8
        LCALL   ?Subroutine5 & 0xFFFF
??CrossCallReturnLabel_9:
        MOV     R0,#?V0 + 8
        LCALL   ?L_MOV_X
        MOV     DPTR,#__Constant_3f800000
        MOV     R0,#?V0 + 12
        LCALL   ?L_MOV_X
        MOV     R0,#?V0 + 8
        MOV     R1,#?V0 + 12
        LCALL   ?FLT_DIV
        MOV     ?V0 + 12,R6
        MOV     ?V0 + 13,R7
        MOV     A,#0x2
        MOV     R0,#?V0 + 12
        LCALL   ?S_SHL
        MOV     A,#0x46
        LCALL   ?XSTACK_DISP0_8
        LCALL   ?Subroutine14 & 0xFFFF
??CrossCallReturnLabel_44:
        LCALL   ?L_MOV_X
        MOV     R0,#?V0 + 8
        MOV     R1,#?V0 + 12
        LCALL   ?FLT_SUB
        MOV     ?V0 + 12,R6
        MOV     ?V0 + 13,R7
        MOV     A,#0x2
        MOV     R0,#?V0 + 12
        LCALL   ?S_SHL
        MOV     A,#0x4c
        LCALL   ?XSTACK_DISP0_8
        LCALL   ?Subroutine14 & 0xFFFF
??CrossCallReturnLabel_45:
        LCALL   ?L_MOV_X
        MOV     R0,#?V0 + 8
        MOV     R1,#?V0 + 12
        LCALL   ?FLT_ADD
        PUSH    ?V0 + 8
          CFI CFA_SP SP+-1
        PUSH    ?V0 + 9
          CFI CFA_SP SP+-2
        PUSH    ?V0 + 10
          CFI CFA_SP SP+-3
        PUSH    ?V0 + 11
          CFI CFA_SP SP+-4
        MOV     ?V0 + 8,R6
        MOV     ?V0 + 9,R7
        MOV     A,#0x2
        MOV     R0,#?V0 + 8
        LCALL   ?S_SHL
        MOV     A,#0x42
        LCALL   ?XSTACK_DISP0_8
        LCALL   ?Subroutine5 & 0xFFFF
??CrossCallReturnLabel_10:
        MOV     R0,#?V0 + 12
        LCALL   ?L_MOV_X
        MOV     DPTR,#__Constant_41200000
        MOV     R0,#?V0 + 8
        LCALL   ?L_MOV_X
        MOV     R0,#?V0 + 12
        MOV     R1,#?V0 + 8
        LCALL   ?FLT_MUL
        POP     ?V0 + 11
          CFI CFA_SP SP+-3
        POP     ?V0 + 10
          CFI CFA_SP SP+-2
        POP     ?V0 + 9
          CFI CFA_SP SP+-1
        POP     ?V0 + 8
          CFI CFA_SP SP+0
        MOV     R0,#?V0 + 8
        MOV     R1,#?V0 + 12
        LCALL   ?FLT_DIV
        MOV     R0,#?V0 + 8
        LCALL   ?PUSH_XSTACK_I_FOUR
          CFI CFA_XSP16 add(XSP16, 66)
        MOV     DPTR,#__Constant_41200000
        LCALL   ?XLOAD_R2345
//  108     {
//  109       distance[i]=pow(10,((RssiValue[i]/gainconst-AValue[i]+OffsetA[i])/(10*nValue[i])));
        LCALL   ??pow?relay
        MOV     A,#0x4
        LCALL   ?DEALLOC_XSTACK8
          CFI CFA_XSP16 add(XSP16, 62)
        MOV     ?V0 + 12,R2
        MOV     ?V0 + 13,R3
        MOV     ?V0 + 14,R4
        MOV     ?V0 + 15,R5
        MOV     ?V0 + 8,R6
        MOV     ?V0 + 9,R7
        MOV     A,#0x2
        MOV     R0,#?V0 + 8
        LCALL   ?S_SHL
        MOV     A,#0x16
        LCALL   ?XSTACK_DISP0_8
        MOV     A,DPL
        ADD     A,?V0 + 8
        MOV     R0,A
        MOV     A,DPH
        ADDC    A,?V0 + 9
        MOV     R1,A
        MOV     A,#0x4
        LCALL   ?XSTACK_DISP0_8
        LCALL   ?Subroutine22 & 0xFFFF
??CrossCallReturnLabel_64:
        MOV     A,#0x4
        LCALL   ?XSTACK_DISP0_8
        LCALL   ?Subroutine13 & 0xFFFF
??CrossCallReturnLabel_38:
        MOV     R0,#?V0 + 12
        LCALL   ?L_MOV_TO_X
//  110       distance[i]=pow((distance[i]*distance[i]-zposition*zposition),0.5);
        ; Setup parameters for call to function pow
        MOV     DPTR,#__Constant_3f000000
        LCALL   ?PUSH_XSTACK8_X_FOUR
          CFI CFA_XSP16 add(XSP16, 66)
        MOV     ?V0 + 8,R2
        MOV     ?V0 + 9,R3
        MOV     ?V0 + 10,R4
        MOV     ?V0 + 11,R5
        MOV     R0,#?V0 + 8
        MOV     R1,#?V0 + 12
        LCALL   ?FLT_MUL
        PUSH    ?V0 + 8
          CFI CFA_SP SP+-1
        PUSH    ?V0 + 9
          CFI CFA_SP SP+-2
        PUSH    ?V0 + 10
          CFI CFA_SP SP+-3
        PUSH    ?V0 + 11
          CFI CFA_SP SP+-4
        MOV     A,#0x42
        LCALL   ?XSTACK_DISP0_8
        MOV     R0,#?V0 + 12
        LCALL   ?L_MOV_X
        MOV     A,#0x42
        LCALL   ?XSTACK_DISP0_8
        MOV     R0,#?V0 + 8
        LCALL   ?L_MOV_X
        MOV     R0,#?V0 + 12
        MOV     R1,#?V0 + 8
        LCALL   ?FLT_MUL
        POP     ?V0 + 11
          CFI CFA_SP SP+-3
        POP     ?V0 + 10
          CFI CFA_SP SP+-2
        POP     ?V0 + 9
          CFI CFA_SP SP+-1
        POP     ?V0 + 8
          CFI CFA_SP SP+0
        MOV     R0,#?V0 + 8
        MOV     R1,#?V0 + 12
        LCALL   ?FLT_SUB
        MOV     R2,?V0 + 8
        MOV     R3,?V0 + 9
        MOV     R4,?V0 + 10
        MOV     R5,?V0 + 11
        LCALL   ??pow?relay
        MOV     A,#0x4
        LCALL   ?DEALLOC_XSTACK8
          CFI CFA_XSP16 add(XSP16, 62)
        MOV     A,#0x4
        LCALL   ?XSTACK_DISP0_8
        LCALL   ?Subroutine13 & 0xFFFF
//  111     }
??CrossCallReturnLabel_39:
        LCALL   ?XSTORE_R2345
        LCALL   ?Subroutine2 & 0xFFFF
??CrossCallReturnLabel_0:
        JNC     $+5
        LJMP    ??CrossCallReturnLabel_63 & 0xFFFF
//  112     
//  113     
//  114     for(int i=0; i<4; i++)
        MOV     R6,#0x0
        MOV     R7,#0x0
        MOV     A,#0x48
        LCALL   ?XSTACK_DISP0_8
        LCALL   ?Subroutine12 & 0xFFFF
??CrossCallReturnLabel_27:
        MOV     A,#0x48
        LCALL   ?XSTACK_DISP0_8
        LCALL   ?Subroutine22 & 0xFFFF
??CrossCallReturnLabel_65:
        MOV     A,#0x4a
        LCALL   ?XSTACK_DISP0_8
        LCALL   ?Subroutine12 & 0xFFFF
??CrossCallReturnLabel_28:
        MOV     A,#0x4a
        LCALL   ?XSTACK_DISP0_8
        LCALL   ?Subroutine22 & 0xFFFF
??CrossCallReturnLabel_66:
        MOV     ?V0 + 8,R6
        MOV     ?V0 + 9,R7
        MOV     A,#0x2
        MOV     R0,#?V0 + 8
        LCALL   ?S_SHL
        MOV     A,#0x16
        LCALL   ?XSTACK_DISP0_8
        MOV     A,DPL
        ADD     A,?V0 + 8
        MOV     DPL,A
        MOV     A,DPH
        ADDC    A,?V0 + 9
        MOV     DPH,A
        LCALL   ?XLOAD_R2345
        MOV     A,#0x6
        LCALL   ?XSTACK_DISP0_8
        LCALL   ?XSTORE_R2345
        MOV     ?V0 + 8,R6
        MOV     ?V0 + 9,R7
        MOV     A,#0x2
        MOV     R0,#?V0 + 8
        LCALL   ?S_SHL
        MOV     A,#0x48
        LCALL   ?XSTACK_DISP0_8
        LCALL   ?Subroutine5 & 0xFFFF
??CrossCallReturnLabel_11:
        LCALL   ?XLOAD_R2345
        MOV     DPL,?XSP + 0
        MOV     DPH,?XSP + 1
        LCALL   ?XSTORE_R2345
        MOV     DPL,?XSP + 0
        MOV     DPH,?XSP + 1
        MOV     R0,#?V0 + 12
        LCALL   ?L_MOV_X
        MOV     A,#0x6
        LCALL   ?XSTACK_DISP0_8
        MOV     R0,#?V0 + 8
        LCALL   ?L_MOV_X
        MOV     R0,#?V0 + 12
        MOV     R1,#?V0 + 8
        LCALL   ?FLT_SUB
        MOV     R0,#?V0 + 0
        MOV     R1,#?V0 + 12
        LCALL   ?FLT_LT
        JNC     ??SampleApp_MinMax_localization_0
//  115     {
//  116       
//  117         //max of  
//  118        if((AnchorX[i]-distance[i])>x_left)
//  119        {x_left=(AnchorX[i]-distance[i]);}
        MOV     ?V0 + 0,?V0 + 12
        MOV     ?V0 + 1,?V0 + 13
        MOV     ?V0 + 2,?V0 + 14
        MOV     ?V0 + 3,?V0 + 15
//  120        
//  121        if((AnchorX[i]+distance[i])<x_right)
??SampleApp_MinMax_localization_0:
        MOV     DPL,?XSP + 0
        MOV     DPH,?XSP + 1
        MOV     R0,#?V0 + 8
        LCALL   ?L_MOV_X
        MOV     A,#0x6
        LCALL   ?XSTACK_DISP0_8
        MOV     R0,#?V0 + 12
        LCALL   ?L_MOV_X
        MOV     R0,#?V0 + 8
        MOV     R1,#?V0 + 12
        LCALL   ?FLT_ADD
        MOV     A,#0xe
        LCALL   ?XSTACK_DISP0_8
        MOV     R0,#?V0 + 12
        LCALL   ?L_MOV_X
        MOV     R0,#?V0 + 8
        MOV     R1,#?V0 + 12
        LCALL   ?FLT_LT
        JNC     ??SampleApp_MinMax_localization_1
//  122        {x_right=(AnchorX[i]+distance[i]);}
        MOV     A,#0xe
        LCALL   ?XSTACK_DISP0_8
        MOV     R0,#?V0 + 8
        LCALL   ?L_MOV_TO_X
//  123        
//  124        if((AnchorY[i]-distance[i])>y_bottom)
??SampleApp_MinMax_localization_1:
        MOV     ?V0 + 8,R6
        MOV     ?V0 + 9,R7
        MOV     A,#0x2
        MOV     R0,#?V0 + 8
        LCALL   ?S_SHL
        MOV     A,#0x4a
        LCALL   ?XSTACK_DISP0_8
        LCALL   ?Subroutine5 & 0xFFFF
??CrossCallReturnLabel_12:
        LCALL   ?XLOAD_R2345
        MOV     DPL,?XSP + 0
        MOV     DPH,?XSP + 1
        LCALL   ?XSTORE_R2345
        MOV     DPL,?XSP + 0
        MOV     DPH,?XSP + 1
        MOV     R0,#?V0 + 12
        LCALL   ?L_MOV_X
        MOV     A,#0x6
        LCALL   ?XSTACK_DISP0_8
        MOV     R0,#?V0 + 8
        LCALL   ?L_MOV_X
        MOV     R0,#?V0 + 12
        MOV     R1,#?V0 + 8
        LCALL   ?FLT_SUB
        MOV     R0,#?V0 + 4
        MOV     R1,#?V0 + 12
        LCALL   ?FLT_LT
        JNC     ??SampleApp_MinMax_localization_2
//  125        {y_bottom=(AnchorY[i]-distance[i]);}
        MOV     ?V0 + 4,?V0 + 12
        MOV     ?V0 + 5,?V0 + 13
        MOV     ?V0 + 6,?V0 + 14
        MOV     ?V0 + 7,?V0 + 15
//  126        
//  127        if((AnchorY[i]+distance[i])<y_top)
??SampleApp_MinMax_localization_2:
        MOV     DPL,?XSP + 0
        MOV     DPH,?XSP + 1
        MOV     R0,#?V0 + 8
        LCALL   ?L_MOV_X
        MOV     A,#0x6
        LCALL   ?XSTACK_DISP0_8
        MOV     R0,#?V0 + 12
        LCALL   ?L_MOV_X
        MOV     R0,#?V0 + 8
        MOV     R1,#?V0 + 12
        LCALL   ?FLT_ADD
        MOV     A,#0xa
        LCALL   ?XSTACK_DISP0_8
        MOV     R0,#?V0 + 12
        LCALL   ?L_MOV_X
        MOV     R0,#?V0 + 8
        MOV     R1,#?V0 + 12
        LCALL   ?FLT_LT
        JNC     ??SampleApp_MinMax_localization_3
//  128        {y_top=(AnchorY[i]+distance[i]);}
        MOV     A,#0xa
        LCALL   ?XSTACK_DISP0_8
        MOV     R0,#?V0 + 8
        LCALL   ?L_MOV_TO_X
//  129     }
??SampleApp_MinMax_localization_3:
        LCALL   ?Subroutine2 & 0xFFFF
??CrossCallReturnLabel_1:
        JNC     $+5
        LJMP    ??CrossCallReturnLabel_66 & 0xFFFF
//  130     *xposition=(x_left+x_right)/2;
        MOV     A,#0xe
        LCALL   ?XSTACK_DISP0_8
        MOV     R0,#?V0 + 8
        LCALL   ?L_MOV_X
        MOV     R0,#?V0 + 0
        MOV     R1,#?V0 + 8
        LCALL   ?FLT_ADD
        MOV     DPTR,#__Constant_3f000000
        MOV     R0,#?V0 + 8
        LCALL   ?L_MOV_X
        MOV     R0,#?V0 + 0
        MOV     R1,#?V0 + 8
        LCALL   ?FLT_MUL
        MOV     A,#0x14
        LCALL   ?XSTACK_DISP0_8
        LCALL   ?Subroutine13 & 0xFFFF
??CrossCallReturnLabel_40:
        MOV     R0,#?V0 + 0
        LCALL   ?L_MOV_TO_X
//  131     *yposition=(y_bottom+y_top)/2;
        MOV     A,#0xa
        LCALL   ?XSTACK_DISP0_8
        MOV     R0,#?V0 + 0
        LCALL   ?L_MOV_X
        MOV     R0,#?V0 + 4
        MOV     R1,#?V0 + 0
        LCALL   ?FLT_ADD
        MOV     DPTR,#__Constant_3f000000
        MOV     R0,#?V0 + 0
        LCALL   ?L_MOV_X
        MOV     R0,#?V0 + 4
        MOV     R1,#?V0 + 0
        LCALL   ?FLT_MUL
        MOV     A,#0x12
        LCALL   ?XSTACK_DISP0_8
        LCALL   ?Subroutine13 & 0xFFFF
??CrossCallReturnLabel_41:
        MOV     R0,#?V0 + 4
        LCALL   ?L_MOV_TO_X
//  132     
//  133 }
        MOV     A,#0x26
        LJMP    ?Subroutine0 & 0xFFFF
          CFI EndBlock cfiBlock27

        RSEG BANKED_CODE:CODE:NOROOT(0)
?Subroutine24:
          CFI Block cfiCond28 Using cfiCommon0
          CFI Function SampleApp_MinMax_localization
          CFI Conditional ??CrossCallReturnLabel_73
          CFI R6 load(1, XDATA, add(CFA_XSP16, literal(-24)))
          CFI VB load(1, XDATA, add(CFA_XSP16, literal(-23)))
          CFI V0 load(1, XDATA, add(CFA_XSP16, literal(-22)))
          CFI V1 load(1, XDATA, add(CFA_XSP16, literal(-21)))
          CFI V2 load(1, XDATA, add(CFA_XSP16, literal(-20)))
          CFI V3 load(1, XDATA, add(CFA_XSP16, literal(-19)))
          CFI V4 load(1, XDATA, add(CFA_XSP16, literal(-18)))
          CFI V5 load(1, XDATA, add(CFA_XSP16, literal(-17)))
          CFI V6 load(1, XDATA, add(CFA_XSP16, literal(-16)))
          CFI V7 load(1, XDATA, add(CFA_XSP16, literal(-15)))
          CFI V8 load(1, XDATA, add(CFA_XSP16, literal(-14)))
          CFI V9 load(1, XDATA, add(CFA_XSP16, literal(-13)))
          CFI V10 load(1, XDATA, add(CFA_XSP16, literal(-12)))
          CFI V11 load(1, XDATA, add(CFA_XSP16, literal(-11)))
          CFI V12 load(1, XDATA, add(CFA_XSP16, literal(-10)))
          CFI V13 load(1, XDATA, add(CFA_XSP16, literal(-9)))
          CFI V14 load(1, XDATA, add(CFA_XSP16, literal(-8)))
          CFI V15 load(1, XDATA, add(CFA_XSP16, literal(-7)))
          CFI R7 load(1, XDATA, add(CFA_XSP16, literal(-6)))
          CFI ?RET_LOW load(1, XDATA, add(CFA_XSP16, literal(-5)))
          CFI ?RET_HIGH load(1, XDATA, add(CFA_XSP16, literal(-4)))
          CFI ?BRET_EXT load(1, XDATA, add(CFA_XSP16, literal(-3)))
          CFI DPL0 load(1, XDATA, add(CFA_XSP16, literal(-2)))
          CFI DPH0 load(1, XDATA, add(CFA_XSP16, literal(-1)))
          CFI CFA_SP SP+0
          CFI CFA_XSP16 add(XSP16, 62)
          CFI Block cfiCond29 Using cfiCommon0
          CFI (cfiCond29) Function SampleApp_MinMax_localization
          CFI (cfiCond29) Conditional ??CrossCallReturnLabel_74
          CFI (cfiCond29) R6 load(1, XDATA, add(CFA_XSP16, literal(-24)))
          CFI (cfiCond29) VB load(1, XDATA, add(CFA_XSP16, literal(-23)))
          CFI (cfiCond29) V0 load(1, XDATA, add(CFA_XSP16, literal(-22)))
          CFI (cfiCond29) V1 load(1, XDATA, add(CFA_XSP16, literal(-21)))
          CFI (cfiCond29) V2 load(1, XDATA, add(CFA_XSP16, literal(-20)))
          CFI (cfiCond29) V3 load(1, XDATA, add(CFA_XSP16, literal(-19)))
          CFI (cfiCond29) V4 load(1, XDATA, add(CFA_XSP16, literal(-18)))
          CFI (cfiCond29) V5 load(1, XDATA, add(CFA_XSP16, literal(-17)))
          CFI (cfiCond29) V6 load(1, XDATA, add(CFA_XSP16, literal(-16)))
          CFI (cfiCond29) V7 load(1, XDATA, add(CFA_XSP16, literal(-15)))
          CFI (cfiCond29) V8 load(1, XDATA, add(CFA_XSP16, literal(-14)))
          CFI (cfiCond29) V9 load(1, XDATA, add(CFA_XSP16, literal(-13)))
          CFI (cfiCond29) V10 load(1, XDATA, add(CFA_XSP16, literal(-12)))
          CFI (cfiCond29) V11 load(1, XDATA, add(CFA_XSP16, literal(-11)))
          CFI (cfiCond29) V12 load(1, XDATA, add(CFA_XSP16, literal(-10)))
          CFI (cfiCond29) V13 load(1, XDATA, add(CFA_XSP16, literal(-9)))
          CFI (cfiCond29) V14 load(1, XDATA, add(CFA_XSP16, literal(-8)))
          CFI (cfiCond29) V15 load(1, XDATA, add(CFA_XSP16, literal(-7)))
          CFI (cfiCond29) R7 load(1, XDATA, add(CFA_XSP16, literal(-6)))
          CFI (cfiCond29) ?RET_LOW load(1, XDATA, add(CFA_XSP16, literal(-5)))
          CFI (cfiCond29) ?RET_HIGH load(1, XDATA, add(CFA_XSP16, literal(-4)))
          CFI (cfiCond29) ?BRET_EXT load(1, XDATA, add(CFA_XSP16, literal(-3)))
          CFI (cfiCond29) DPL0 load(1, XDATA, add(CFA_XSP16, literal(-2)))
          CFI (cfiCond29) DPH0 load(1, XDATA, add(CFA_XSP16, literal(-1)))
          CFI (cfiCond29) CFA_SP SP+0
          CFI (cfiCond29) CFA_XSP16 add(XSP16, 62)
          CFI Block cfiPicker30 Using cfiCommon1
          CFI (cfiPicker30) NoFunction
          CFI (cfiPicker30) Picker
        CLR     A
        MOVX    @DPTR,A
        INC     DPTR
        MOVX    @DPTR,A
        INC     DPTR
        MOV     A,#0x20
        MOVX    @DPTR,A
        INC     DPTR
        MOV     A,#0x41
        MOVX    @DPTR,A
        RET
          CFI EndBlock cfiCond28
          CFI EndBlock cfiCond29
          CFI EndBlock cfiPicker30

        RSEG BANKED_CODE:CODE:NOROOT(0)
?Subroutine14:
          CFI Block cfiCond31 Using cfiCommon0
          CFI Function SampleApp_MinMax_localization
          CFI Conditional ??CrossCallReturnLabel_44
          CFI R6 load(1, XDATA, add(CFA_XSP16, literal(-24)))
          CFI VB load(1, XDATA, add(CFA_XSP16, literal(-23)))
          CFI V0 load(1, XDATA, add(CFA_XSP16, literal(-22)))
          CFI V1 load(1, XDATA, add(CFA_XSP16, literal(-21)))
          CFI V2 load(1, XDATA, add(CFA_XSP16, literal(-20)))
          CFI V3 load(1, XDATA, add(CFA_XSP16, literal(-19)))
          CFI V4 load(1, XDATA, add(CFA_XSP16, literal(-18)))
          CFI V5 load(1, XDATA, add(CFA_XSP16, literal(-17)))
          CFI V6 load(1, XDATA, add(CFA_XSP16, literal(-16)))
          CFI V7 load(1, XDATA, add(CFA_XSP16, literal(-15)))
          CFI V8 load(1, XDATA, add(CFA_XSP16, literal(-14)))
          CFI V9 load(1, XDATA, add(CFA_XSP16, literal(-13)))
          CFI V10 load(1, XDATA, add(CFA_XSP16, literal(-12)))
          CFI V11 load(1, XDATA, add(CFA_XSP16, literal(-11)))
          CFI V12 load(1, XDATA, add(CFA_XSP16, literal(-10)))
          CFI V13 load(1, XDATA, add(CFA_XSP16, literal(-9)))
          CFI V14 load(1, XDATA, add(CFA_XSP16, literal(-8)))
          CFI V15 load(1, XDATA, add(CFA_XSP16, literal(-7)))
          CFI R7 load(1, XDATA, add(CFA_XSP16, literal(-6)))
          CFI ?RET_LOW load(1, XDATA, add(CFA_XSP16, literal(-5)))
          CFI ?RET_HIGH load(1, XDATA, add(CFA_XSP16, literal(-4)))
          CFI ?BRET_EXT load(1, XDATA, add(CFA_XSP16, literal(-3)))
          CFI DPL0 load(1, XDATA, add(CFA_XSP16, literal(-2)))
          CFI DPH0 load(1, XDATA, add(CFA_XSP16, literal(-1)))
          CFI CFA_SP SP+0
          CFI CFA_XSP16 add(XSP16, 62)
          CFI Block cfiCond32 Using cfiCommon0
          CFI (cfiCond32) Function SampleApp_MinMax_localization
          CFI (cfiCond32) Conditional ??CrossCallReturnLabel_45
          CFI (cfiCond32) R6 load(1, XDATA, add(CFA_XSP16, literal(-24)))
          CFI (cfiCond32) VB load(1, XDATA, add(CFA_XSP16, literal(-23)))
          CFI (cfiCond32) V0 load(1, XDATA, add(CFA_XSP16, literal(-22)))
          CFI (cfiCond32) V1 load(1, XDATA, add(CFA_XSP16, literal(-21)))
          CFI (cfiCond32) V2 load(1, XDATA, add(CFA_XSP16, literal(-20)))
          CFI (cfiCond32) V3 load(1, XDATA, add(CFA_XSP16, literal(-19)))
          CFI (cfiCond32) V4 load(1, XDATA, add(CFA_XSP16, literal(-18)))
          CFI (cfiCond32) V5 load(1, XDATA, add(CFA_XSP16, literal(-17)))
          CFI (cfiCond32) V6 load(1, XDATA, add(CFA_XSP16, literal(-16)))
          CFI (cfiCond32) V7 load(1, XDATA, add(CFA_XSP16, literal(-15)))
          CFI (cfiCond32) V8 load(1, XDATA, add(CFA_XSP16, literal(-14)))
          CFI (cfiCond32) V9 load(1, XDATA, add(CFA_XSP16, literal(-13)))
          CFI (cfiCond32) V10 load(1, XDATA, add(CFA_XSP16, literal(-12)))
          CFI (cfiCond32) V11 load(1, XDATA, add(CFA_XSP16, literal(-11)))
          CFI (cfiCond32) V12 load(1, XDATA, add(CFA_XSP16, literal(-10)))
          CFI (cfiCond32) V13 load(1, XDATA, add(CFA_XSP16, literal(-9)))
          CFI (cfiCond32) V14 load(1, XDATA, add(CFA_XSP16, literal(-8)))
          CFI (cfiCond32) V15 load(1, XDATA, add(CFA_XSP16, literal(-7)))
          CFI (cfiCond32) R7 load(1, XDATA, add(CFA_XSP16, literal(-6)))
          CFI (cfiCond32) ?RET_LOW load(1, XDATA, add(CFA_XSP16, literal(-5)))
          CFI (cfiCond32) ?RET_HIGH load(1, XDATA, add(CFA_XSP16, literal(-4)))
          CFI (cfiCond32) ?BRET_EXT load(1, XDATA, add(CFA_XSP16, literal(-3)))
          CFI (cfiCond32) DPL0 load(1, XDATA, add(CFA_XSP16, literal(-2)))
          CFI (cfiCond32) DPH0 load(1, XDATA, add(CFA_XSP16, literal(-1)))
          CFI (cfiCond32) CFA_SP SP+0
          CFI (cfiCond32) CFA_XSP16 add(XSP16, 62)
          CFI Block cfiPicker33 Using cfiCommon1
          CFI (cfiPicker33) NoFunction
          CFI (cfiPicker33) Picker
        MOVX    A,@DPTR
        ADD     A,?V0 + 12
        MOV     R0,A
        INC     DPTR
        MOVX    A,@DPTR
        ADDC    A,?V0 + 13
        MOV     DPL,R0
        MOV     DPH,A
        MOV     R0,#?V0 + 12
        RET
          CFI EndBlock cfiCond31
          CFI EndBlock cfiCond32
          CFI EndBlock cfiPicker33

        RSEG BANKED_CODE:CODE:NOROOT(0)
?Subroutine13:
          CFI Block cfiCond34 Using cfiCommon0
          CFI Function printRSSIandLQI
          CFI Conditional ??CrossCallReturnLabel_37
          CFI R6 load(1, XDATA, add(CFA_XSP16, literal(-18)))
          CFI VB load(1, XDATA, add(CFA_XSP16, literal(-17)))
          CFI V0 load(1, XDATA, add(CFA_XSP16, literal(-16)))
          CFI V1 load(1, XDATA, add(CFA_XSP16, literal(-15)))
          CFI V2 load(1, XDATA, add(CFA_XSP16, literal(-14)))
          CFI V3 load(1, XDATA, add(CFA_XSP16, literal(-13)))
          CFI V4 load(1, XDATA, add(CFA_XSP16, literal(-12)))
          CFI V5 load(1, XDATA, add(CFA_XSP16, literal(-11)))
          CFI V6 load(1, XDATA, add(CFA_XSP16, literal(-10)))
          CFI V7 load(1, XDATA, add(CFA_XSP16, literal(-9)))
          CFI V8 load(1, XDATA, add(CFA_XSP16, literal(-8)))
          CFI V9 load(1, XDATA, add(CFA_XSP16, literal(-7)))
          CFI R7 load(1, XDATA, add(CFA_XSP16, literal(-6)))
          CFI ?RET_LOW load(1, XDATA, add(CFA_XSP16, literal(-5)))
          CFI ?RET_HIGH load(1, XDATA, add(CFA_XSP16, literal(-4)))
          CFI ?BRET_EXT load(1, XDATA, add(CFA_XSP16, literal(-3)))
          CFI DPL0 load(1, XDATA, add(CFA_XSP16, literal(-2)))
          CFI DPH0 load(1, XDATA, add(CFA_XSP16, literal(-1)))
          CFI CFA_SP SP+0
          CFI CFA_XSP16 add(XSP16, 24)
          CFI Block cfiCond35 Using cfiCommon0
          CFI (cfiCond35) Function SampleApp_MinMax_localization
          CFI (cfiCond35) Conditional ??CrossCallReturnLabel_38
          CFI (cfiCond35) R6 load(1, XDATA, add(CFA_XSP16, literal(-24)))
          CFI (cfiCond35) VB load(1, XDATA, add(CFA_XSP16, literal(-23)))
          CFI (cfiCond35) V0 load(1, XDATA, add(CFA_XSP16, literal(-22)))
          CFI (cfiCond35) V1 load(1, XDATA, add(CFA_XSP16, literal(-21)))
          CFI (cfiCond35) V2 load(1, XDATA, add(CFA_XSP16, literal(-20)))
          CFI (cfiCond35) V3 load(1, XDATA, add(CFA_XSP16, literal(-19)))
          CFI (cfiCond35) V4 load(1, XDATA, add(CFA_XSP16, literal(-18)))
          CFI (cfiCond35) V5 load(1, XDATA, add(CFA_XSP16, literal(-17)))
          CFI (cfiCond35) V6 load(1, XDATA, add(CFA_XSP16, literal(-16)))
          CFI (cfiCond35) V7 load(1, XDATA, add(CFA_XSP16, literal(-15)))
          CFI (cfiCond35) V8 load(1, XDATA, add(CFA_XSP16, literal(-14)))
          CFI (cfiCond35) V9 load(1, XDATA, add(CFA_XSP16, literal(-13)))
          CFI (cfiCond35) V10 load(1, XDATA, add(CFA_XSP16, literal(-12)))
          CFI (cfiCond35) V11 load(1, XDATA, add(CFA_XSP16, literal(-11)))
          CFI (cfiCond35) V12 load(1, XDATA, add(CFA_XSP16, literal(-10)))
          CFI (cfiCond35) V13 load(1, XDATA, add(CFA_XSP16, literal(-9)))
          CFI (cfiCond35) V14 load(1, XDATA, add(CFA_XSP16, literal(-8)))
          CFI (cfiCond35) V15 load(1, XDATA, add(CFA_XSP16, literal(-7)))
          CFI (cfiCond35) R7 load(1, XDATA, add(CFA_XSP16, literal(-6)))
          CFI (cfiCond35) ?RET_LOW load(1, XDATA, add(CFA_XSP16, literal(-5)))
          CFI (cfiCond35) ?RET_HIGH load(1, XDATA, add(CFA_XSP16, literal(-4)))
          CFI (cfiCond35) ?BRET_EXT load(1, XDATA, add(CFA_XSP16, literal(-3)))
          CFI (cfiCond35) DPL0 load(1, XDATA, add(CFA_XSP16, literal(-2)))
          CFI (cfiCond35) DPH0 load(1, XDATA, add(CFA_XSP16, literal(-1)))
          CFI (cfiCond35) CFA_SP SP+0
          CFI (cfiCond35) CFA_XSP16 add(XSP16, 62)
          CFI Block cfiCond36 Using cfiCommon0
          CFI (cfiCond36) Function SampleApp_MinMax_localization
          CFI (cfiCond36) Conditional ??CrossCallReturnLabel_39
          CFI (cfiCond36) R6 load(1, XDATA, add(CFA_XSP16, literal(-24)))
          CFI (cfiCond36) VB load(1, XDATA, add(CFA_XSP16, literal(-23)))
          CFI (cfiCond36) V0 load(1, XDATA, add(CFA_XSP16, literal(-22)))
          CFI (cfiCond36) V1 load(1, XDATA, add(CFA_XSP16, literal(-21)))
          CFI (cfiCond36) V2 load(1, XDATA, add(CFA_XSP16, literal(-20)))
          CFI (cfiCond36) V3 load(1, XDATA, add(CFA_XSP16, literal(-19)))
          CFI (cfiCond36) V4 load(1, XDATA, add(CFA_XSP16, literal(-18)))
          CFI (cfiCond36) V5 load(1, XDATA, add(CFA_XSP16, literal(-17)))
          CFI (cfiCond36) V6 load(1, XDATA, add(CFA_XSP16, literal(-16)))
          CFI (cfiCond36) V7 load(1, XDATA, add(CFA_XSP16, literal(-15)))
          CFI (cfiCond36) V8 load(1, XDATA, add(CFA_XSP16, literal(-14)))
          CFI (cfiCond36) V9 load(1, XDATA, add(CFA_XSP16, literal(-13)))
          CFI (cfiCond36) V10 load(1, XDATA, add(CFA_XSP16, literal(-12)))
          CFI (cfiCond36) V11 load(1, XDATA, add(CFA_XSP16, literal(-11)))
          CFI (cfiCond36) V12 load(1, XDATA, add(CFA_XSP16, literal(-10)))
          CFI (cfiCond36) V13 load(1, XDATA, add(CFA_XSP16, literal(-9)))
          CFI (cfiCond36) V14 load(1, XDATA, add(CFA_XSP16, literal(-8)))
          CFI (cfiCond36) V15 load(1, XDATA, add(CFA_XSP16, literal(-7)))
          CFI (cfiCond36) R7 load(1, XDATA, add(CFA_XSP16, literal(-6)))
          CFI (cfiCond36) ?RET_LOW load(1, XDATA, add(CFA_XSP16, literal(-5)))
          CFI (cfiCond36) ?RET_HIGH load(1, XDATA, add(CFA_XSP16, literal(-4)))
          CFI (cfiCond36) ?BRET_EXT load(1, XDATA, add(CFA_XSP16, literal(-3)))
          CFI (cfiCond36) DPL0 load(1, XDATA, add(CFA_XSP16, literal(-2)))
          CFI (cfiCond36) DPH0 load(1, XDATA, add(CFA_XSP16, literal(-1)))
          CFI (cfiCond36) CFA_SP SP+0
          CFI (cfiCond36) CFA_XSP16 add(XSP16, 62)
          CFI Block cfiCond37 Using cfiCommon0
          CFI (cfiCond37) Function SampleApp_MinMax_localization
          CFI (cfiCond37) Conditional ??CrossCallReturnLabel_40
          CFI (cfiCond37) R6 load(1, XDATA, add(CFA_XSP16, literal(-24)))
          CFI (cfiCond37) VB load(1, XDATA, add(CFA_XSP16, literal(-23)))
          CFI (cfiCond37) V0 load(1, XDATA, add(CFA_XSP16, literal(-22)))
          CFI (cfiCond37) V1 load(1, XDATA, add(CFA_XSP16, literal(-21)))
          CFI (cfiCond37) V2 load(1, XDATA, add(CFA_XSP16, literal(-20)))
          CFI (cfiCond37) V3 load(1, XDATA, add(CFA_XSP16, literal(-19)))
          CFI (cfiCond37) V4 load(1, XDATA, add(CFA_XSP16, literal(-18)))
          CFI (cfiCond37) V5 load(1, XDATA, add(CFA_XSP16, literal(-17)))
          CFI (cfiCond37) V6 load(1, XDATA, add(CFA_XSP16, literal(-16)))
          CFI (cfiCond37) V7 load(1, XDATA, add(CFA_XSP16, literal(-15)))
          CFI (cfiCond37) V8 load(1, XDATA, add(CFA_XSP16, literal(-14)))
          CFI (cfiCond37) V9 load(1, XDATA, add(CFA_XSP16, literal(-13)))
          CFI (cfiCond37) V10 load(1, XDATA, add(CFA_XSP16, literal(-12)))
          CFI (cfiCond37) V11 load(1, XDATA, add(CFA_XSP16, literal(-11)))
          CFI (cfiCond37) V12 load(1, XDATA, add(CFA_XSP16, literal(-10)))
          CFI (cfiCond37) V13 load(1, XDATA, add(CFA_XSP16, literal(-9)))
          CFI (cfiCond37) V14 load(1, XDATA, add(CFA_XSP16, literal(-8)))
          CFI (cfiCond37) V15 load(1, XDATA, add(CFA_XSP16, literal(-7)))
          CFI (cfiCond37) R7 load(1, XDATA, add(CFA_XSP16, literal(-6)))
          CFI (cfiCond37) ?RET_LOW load(1, XDATA, add(CFA_XSP16, literal(-5)))
          CFI (cfiCond37) ?RET_HIGH load(1, XDATA, add(CFA_XSP16, literal(-4)))
          CFI (cfiCond37) ?BRET_EXT load(1, XDATA, add(CFA_XSP16, literal(-3)))
          CFI (cfiCond37) DPL0 load(1, XDATA, add(CFA_XSP16, literal(-2)))
          CFI (cfiCond37) DPH0 load(1, XDATA, add(CFA_XSP16, literal(-1)))
          CFI (cfiCond37) CFA_SP SP+0
          CFI (cfiCond37) CFA_XSP16 add(XSP16, 62)
          CFI Block cfiCond38 Using cfiCommon0
          CFI (cfiCond38) Function SampleApp_MinMax_localization
          CFI (cfiCond38) Conditional ??CrossCallReturnLabel_41
          CFI (cfiCond38) R6 load(1, XDATA, add(CFA_XSP16, literal(-24)))
          CFI (cfiCond38) VB load(1, XDATA, add(CFA_XSP16, literal(-23)))
          CFI (cfiCond38) V0 load(1, XDATA, add(CFA_XSP16, literal(-22)))
          CFI (cfiCond38) V1 load(1, XDATA, add(CFA_XSP16, literal(-21)))
          CFI (cfiCond38) V2 load(1, XDATA, add(CFA_XSP16, literal(-20)))
          CFI (cfiCond38) V3 load(1, XDATA, add(CFA_XSP16, literal(-19)))
          CFI (cfiCond38) V4 load(1, XDATA, add(CFA_XSP16, literal(-18)))
          CFI (cfiCond38) V5 load(1, XDATA, add(CFA_XSP16, literal(-17)))
          CFI (cfiCond38) V6 load(1, XDATA, add(CFA_XSP16, literal(-16)))
          CFI (cfiCond38) V7 load(1, XDATA, add(CFA_XSP16, literal(-15)))
          CFI (cfiCond38) V8 load(1, XDATA, add(CFA_XSP16, literal(-14)))
          CFI (cfiCond38) V9 load(1, XDATA, add(CFA_XSP16, literal(-13)))
          CFI (cfiCond38) V10 load(1, XDATA, add(CFA_XSP16, literal(-12)))
          CFI (cfiCond38) V11 load(1, XDATA, add(CFA_XSP16, literal(-11)))
          CFI (cfiCond38) V12 load(1, XDATA, add(CFA_XSP16, literal(-10)))
          CFI (cfiCond38) V13 load(1, XDATA, add(CFA_XSP16, literal(-9)))
          CFI (cfiCond38) V14 load(1, XDATA, add(CFA_XSP16, literal(-8)))
          CFI (cfiCond38) V15 load(1, XDATA, add(CFA_XSP16, literal(-7)))
          CFI (cfiCond38) R7 load(1, XDATA, add(CFA_XSP16, literal(-6)))
          CFI (cfiCond38) ?RET_LOW load(1, XDATA, add(CFA_XSP16, literal(-5)))
          CFI (cfiCond38) ?RET_HIGH load(1, XDATA, add(CFA_XSP16, literal(-4)))
          CFI (cfiCond38) ?BRET_EXT load(1, XDATA, add(CFA_XSP16, literal(-3)))
          CFI (cfiCond38) DPL0 load(1, XDATA, add(CFA_XSP16, literal(-2)))
          CFI (cfiCond38) DPH0 load(1, XDATA, add(CFA_XSP16, literal(-1)))
          CFI (cfiCond38) CFA_SP SP+0
          CFI (cfiCond38) CFA_XSP16 add(XSP16, 62)
          CFI Block cfiCond39 Using cfiCommon0
          CFI (cfiCond39) Function SampleApp_WCL_localization
          CFI (cfiCond39) Conditional ??CrossCallReturnLabel_42
          CFI (cfiCond39) R6 load(1, XDATA, add(CFA_XSP16, literal(-24)))
          CFI (cfiCond39) VB load(1, XDATA, add(CFA_XSP16, literal(-23)))
          CFI (cfiCond39) V0 load(1, XDATA, add(CFA_XSP16, literal(-22)))
          CFI (cfiCond39) V1 load(1, XDATA, add(CFA_XSP16, literal(-21)))
          CFI (cfiCond39) V2 load(1, XDATA, add(CFA_XSP16, literal(-20)))
          CFI (cfiCond39) V3 load(1, XDATA, add(CFA_XSP16, literal(-19)))
          CFI (cfiCond39) V4 load(1, XDATA, add(CFA_XSP16, literal(-18)))
          CFI (cfiCond39) V5 load(1, XDATA, add(CFA_XSP16, literal(-17)))
          CFI (cfiCond39) V6 load(1, XDATA, add(CFA_XSP16, literal(-16)))
          CFI (cfiCond39) V7 load(1, XDATA, add(CFA_XSP16, literal(-15)))
          CFI (cfiCond39) V8 load(1, XDATA, add(CFA_XSP16, literal(-14)))
          CFI (cfiCond39) V9 load(1, XDATA, add(CFA_XSP16, literal(-13)))
          CFI (cfiCond39) V10 load(1, XDATA, add(CFA_XSP16, literal(-12)))
          CFI (cfiCond39) V11 load(1, XDATA, add(CFA_XSP16, literal(-11)))
          CFI (cfiCond39) V12 load(1, XDATA, add(CFA_XSP16, literal(-10)))
          CFI (cfiCond39) V13 load(1, XDATA, add(CFA_XSP16, literal(-9)))
          CFI (cfiCond39) V14 load(1, XDATA, add(CFA_XSP16, literal(-8)))
          CFI (cfiCond39) V15 load(1, XDATA, add(CFA_XSP16, literal(-7)))
          CFI (cfiCond39) R7 load(1, XDATA, add(CFA_XSP16, literal(-6)))
          CFI (cfiCond39) ?RET_LOW load(1, XDATA, add(CFA_XSP16, literal(-5)))
          CFI (cfiCond39) ?RET_HIGH load(1, XDATA, add(CFA_XSP16, literal(-4)))
          CFI (cfiCond39) ?BRET_EXT load(1, XDATA, add(CFA_XSP16, literal(-3)))
          CFI (cfiCond39) DPL0 load(1, XDATA, add(CFA_XSP16, literal(-2)))
          CFI (cfiCond39) DPH0 load(1, XDATA, add(CFA_XSP16, literal(-1)))
          CFI (cfiCond39) CFA_SP SP+0
          CFI (cfiCond39) CFA_XSP16 add(XSP16, 68)
          CFI Block cfiCond40 Using cfiCommon0
          CFI (cfiCond40) Function SampleApp_WCL_localization
          CFI (cfiCond40) Conditional ??CrossCallReturnLabel_43
          CFI (cfiCond40) R6 load(1, XDATA, add(CFA_XSP16, literal(-24)))
          CFI (cfiCond40) VB load(1, XDATA, add(CFA_XSP16, literal(-23)))
          CFI (cfiCond40) V0 load(1, XDATA, add(CFA_XSP16, literal(-22)))
          CFI (cfiCond40) V1 load(1, XDATA, add(CFA_XSP16, literal(-21)))
          CFI (cfiCond40) V2 load(1, XDATA, add(CFA_XSP16, literal(-20)))
          CFI (cfiCond40) V3 load(1, XDATA, add(CFA_XSP16, literal(-19)))
          CFI (cfiCond40) V4 load(1, XDATA, add(CFA_XSP16, literal(-18)))
          CFI (cfiCond40) V5 load(1, XDATA, add(CFA_XSP16, literal(-17)))
          CFI (cfiCond40) V6 load(1, XDATA, add(CFA_XSP16, literal(-16)))
          CFI (cfiCond40) V7 load(1, XDATA, add(CFA_XSP16, literal(-15)))
          CFI (cfiCond40) V8 load(1, XDATA, add(CFA_XSP16, literal(-14)))
          CFI (cfiCond40) V9 load(1, XDATA, add(CFA_XSP16, literal(-13)))
          CFI (cfiCond40) V10 load(1, XDATA, add(CFA_XSP16, literal(-12)))
          CFI (cfiCond40) V11 load(1, XDATA, add(CFA_XSP16, literal(-11)))
          CFI (cfiCond40) V12 load(1, XDATA, add(CFA_XSP16, literal(-10)))
          CFI (cfiCond40) V13 load(1, XDATA, add(CFA_XSP16, literal(-9)))
          CFI (cfiCond40) V14 load(1, XDATA, add(CFA_XSP16, literal(-8)))
          CFI (cfiCond40) V15 load(1, XDATA, add(CFA_XSP16, literal(-7)))
          CFI (cfiCond40) R7 load(1, XDATA, add(CFA_XSP16, literal(-6)))
          CFI (cfiCond40) ?RET_LOW load(1, XDATA, add(CFA_XSP16, literal(-5)))
          CFI (cfiCond40) ?RET_HIGH load(1, XDATA, add(CFA_XSP16, literal(-4)))
          CFI (cfiCond40) ?BRET_EXT load(1, XDATA, add(CFA_XSP16, literal(-3)))
          CFI (cfiCond40) DPL0 load(1, XDATA, add(CFA_XSP16, literal(-2)))
          CFI (cfiCond40) DPH0 load(1, XDATA, add(CFA_XSP16, literal(-1)))
          CFI (cfiCond40) CFA_SP SP+0
          CFI (cfiCond40) CFA_XSP16 add(XSP16, 68)
          CFI Block cfiPicker41 Using cfiCommon1
          CFI (cfiPicker41) NoFunction
          CFI (cfiPicker41) Picker
        MOVX    A,@DPTR
        MOV     R0,A
        INC     DPTR
        MOVX    A,@DPTR
        MOV     DPH,A
        MOV     DPL,R0
        RET
          CFI EndBlock cfiCond34
          CFI EndBlock cfiCond35
          CFI EndBlock cfiCond36
          CFI EndBlock cfiCond37
          CFI EndBlock cfiCond38
          CFI EndBlock cfiCond39
          CFI EndBlock cfiCond40
          CFI EndBlock cfiPicker41

        RSEG BANKED_CODE:CODE:NOROOT(0)
?Subroutine5:
          CFI Block cfiCond42 Using cfiCommon0
          CFI Function SampleApp_MinMax_localization
          CFI Conditional ??CrossCallReturnLabel_9
          CFI R6 load(1, XDATA, add(CFA_XSP16, literal(-24)))
          CFI VB load(1, XDATA, add(CFA_XSP16, literal(-23)))
          CFI V0 load(1, XDATA, add(CFA_XSP16, literal(-22)))
          CFI V1 load(1, XDATA, add(CFA_XSP16, literal(-21)))
          CFI V2 load(1, XDATA, add(CFA_XSP16, literal(-20)))
          CFI V3 load(1, XDATA, add(CFA_XSP16, literal(-19)))
          CFI V4 load(1, XDATA, add(CFA_XSP16, literal(-18)))
          CFI V5 load(1, XDATA, add(CFA_XSP16, literal(-17)))
          CFI V6 load(1, XDATA, add(CFA_XSP16, literal(-16)))
          CFI V7 load(1, XDATA, add(CFA_XSP16, literal(-15)))
          CFI V8 load(1, XDATA, add(CFA_XSP16, literal(-14)))
          CFI V9 load(1, XDATA, add(CFA_XSP16, literal(-13)))
          CFI V10 load(1, XDATA, add(CFA_XSP16, literal(-12)))
          CFI V11 load(1, XDATA, add(CFA_XSP16, literal(-11)))
          CFI V12 load(1, XDATA, add(CFA_XSP16, literal(-10)))
          CFI V13 load(1, XDATA, add(CFA_XSP16, literal(-9)))
          CFI V14 load(1, XDATA, add(CFA_XSP16, literal(-8)))
          CFI V15 load(1, XDATA, add(CFA_XSP16, literal(-7)))
          CFI R7 load(1, XDATA, add(CFA_XSP16, literal(-6)))
          CFI ?RET_LOW load(1, XDATA, add(CFA_XSP16, literal(-5)))
          CFI ?RET_HIGH load(1, XDATA, add(CFA_XSP16, literal(-4)))
          CFI ?BRET_EXT load(1, XDATA, add(CFA_XSP16, literal(-3)))
          CFI DPL0 load(1, XDATA, add(CFA_XSP16, literal(-2)))
          CFI DPH0 load(1, XDATA, add(CFA_XSP16, literal(-1)))
          CFI CFA_SP SP+0
          CFI CFA_XSP16 add(XSP16, 62)
          CFI Block cfiCond43 Using cfiCommon0
          CFI (cfiCond43) Function SampleApp_MinMax_localization
          CFI (cfiCond43) Conditional ??CrossCallReturnLabel_10
          CFI (cfiCond43) R6 load(1, XDATA, add(CFA_XSP16, literal(-24)))
          CFI (cfiCond43) VB load(1, XDATA, add(CFA_XSP16, literal(-23)))
          CFI (cfiCond43) V0 load(1, XDATA, add(CFA_XSP16, literal(-22)))
          CFI (cfiCond43) V1 load(1, XDATA, add(CFA_XSP16, literal(-21)))
          CFI (cfiCond43) V2 load(1, XDATA, add(CFA_XSP16, literal(-20)))
          CFI (cfiCond43) V3 load(1, XDATA, add(CFA_XSP16, literal(-19)))
          CFI (cfiCond43) V4 load(1, XDATA, add(CFA_XSP16, literal(-18)))
          CFI (cfiCond43) V5 load(1, XDATA, add(CFA_XSP16, literal(-17)))
          CFI (cfiCond43) V6 load(1, XDATA, add(CFA_XSP16, literal(-16)))
          CFI (cfiCond43) V7 load(1, XDATA, add(CFA_XSP16, literal(-15)))
          CFI (cfiCond43) V8 load(1, XDATA, add(CFA_XSP16, literal(-14)))
          CFI (cfiCond43) V9 load(1, XDATA, add(CFA_XSP16, literal(-13)))
          CFI (cfiCond43) V10 load(1, XDATA, add(CFA_XSP16, literal(-12)))
          CFI (cfiCond43) V11 load(1, XDATA, add(CFA_XSP16, literal(-11)))
          CFI (cfiCond43) V12 load(1, XDATA, add(CFA_XSP16, literal(-10)))
          CFI (cfiCond43) V13 load(1, XDATA, add(CFA_XSP16, literal(-9)))
          CFI (cfiCond43) V14 load(1, XDATA, add(CFA_XSP16, literal(-8)))
          CFI (cfiCond43) V15 load(1, XDATA, add(CFA_XSP16, literal(-7)))
          CFI (cfiCond43) R7 load(1, XDATA, add(CFA_XSP16, literal(-6)))
          CFI (cfiCond43) ?RET_LOW load(1, XDATA, add(CFA_XSP16, literal(-5)))
          CFI (cfiCond43) ?RET_HIGH load(1, XDATA, add(CFA_XSP16, literal(-4)))
          CFI (cfiCond43) ?BRET_EXT load(1, XDATA, add(CFA_XSP16, literal(-3)))
          CFI (cfiCond43) DPL0 load(1, XDATA, add(CFA_XSP16, literal(-2)))
          CFI (cfiCond43) DPH0 load(1, XDATA, add(CFA_XSP16, literal(-1)))
          CFI (cfiCond43) CFA_SP SP+-4
          CFI (cfiCond43) CFA_XSP16 add(XSP16, 62)
          CFI Block cfiCond44 Using cfiCommon0
          CFI (cfiCond44) Function SampleApp_MinMax_localization
          CFI (cfiCond44) Conditional ??CrossCallReturnLabel_11
          CFI (cfiCond44) R6 load(1, XDATA, add(CFA_XSP16, literal(-24)))
          CFI (cfiCond44) VB load(1, XDATA, add(CFA_XSP16, literal(-23)))
          CFI (cfiCond44) V0 load(1, XDATA, add(CFA_XSP16, literal(-22)))
          CFI (cfiCond44) V1 load(1, XDATA, add(CFA_XSP16, literal(-21)))
          CFI (cfiCond44) V2 load(1, XDATA, add(CFA_XSP16, literal(-20)))
          CFI (cfiCond44) V3 load(1, XDATA, add(CFA_XSP16, literal(-19)))
          CFI (cfiCond44) V4 load(1, XDATA, add(CFA_XSP16, literal(-18)))
          CFI (cfiCond44) V5 load(1, XDATA, add(CFA_XSP16, literal(-17)))
          CFI (cfiCond44) V6 load(1, XDATA, add(CFA_XSP16, literal(-16)))
          CFI (cfiCond44) V7 load(1, XDATA, add(CFA_XSP16, literal(-15)))
          CFI (cfiCond44) V8 load(1, XDATA, add(CFA_XSP16, literal(-14)))
          CFI (cfiCond44) V9 load(1, XDATA, add(CFA_XSP16, literal(-13)))
          CFI (cfiCond44) V10 load(1, XDATA, add(CFA_XSP16, literal(-12)))
          CFI (cfiCond44) V11 load(1, XDATA, add(CFA_XSP16, literal(-11)))
          CFI (cfiCond44) V12 load(1, XDATA, add(CFA_XSP16, literal(-10)))
          CFI (cfiCond44) V13 load(1, XDATA, add(CFA_XSP16, literal(-9)))
          CFI (cfiCond44) V14 load(1, XDATA, add(CFA_XSP16, literal(-8)))
          CFI (cfiCond44) V15 load(1, XDATA, add(CFA_XSP16, literal(-7)))
          CFI (cfiCond44) R7 load(1, XDATA, add(CFA_XSP16, literal(-6)))
          CFI (cfiCond44) ?RET_LOW load(1, XDATA, add(CFA_XSP16, literal(-5)))
          CFI (cfiCond44) ?RET_HIGH load(1, XDATA, add(CFA_XSP16, literal(-4)))
          CFI (cfiCond44) ?BRET_EXT load(1, XDATA, add(CFA_XSP16, literal(-3)))
          CFI (cfiCond44) DPL0 load(1, XDATA, add(CFA_XSP16, literal(-2)))
          CFI (cfiCond44) DPH0 load(1, XDATA, add(CFA_XSP16, literal(-1)))
          CFI (cfiCond44) CFA_SP SP+0
          CFI (cfiCond44) CFA_XSP16 add(XSP16, 62)
          CFI Block cfiCond45 Using cfiCommon0
          CFI (cfiCond45) Function SampleApp_MinMax_localization
          CFI (cfiCond45) Conditional ??CrossCallReturnLabel_12
          CFI (cfiCond45) R6 load(1, XDATA, add(CFA_XSP16, literal(-24)))
          CFI (cfiCond45) VB load(1, XDATA, add(CFA_XSP16, literal(-23)))
          CFI (cfiCond45) V0 load(1, XDATA, add(CFA_XSP16, literal(-22)))
          CFI (cfiCond45) V1 load(1, XDATA, add(CFA_XSP16, literal(-21)))
          CFI (cfiCond45) V2 load(1, XDATA, add(CFA_XSP16, literal(-20)))
          CFI (cfiCond45) V3 load(1, XDATA, add(CFA_XSP16, literal(-19)))
          CFI (cfiCond45) V4 load(1, XDATA, add(CFA_XSP16, literal(-18)))
          CFI (cfiCond45) V5 load(1, XDATA, add(CFA_XSP16, literal(-17)))
          CFI (cfiCond45) V6 load(1, XDATA, add(CFA_XSP16, literal(-16)))
          CFI (cfiCond45) V7 load(1, XDATA, add(CFA_XSP16, literal(-15)))
          CFI (cfiCond45) V8 load(1, XDATA, add(CFA_XSP16, literal(-14)))
          CFI (cfiCond45) V9 load(1, XDATA, add(CFA_XSP16, literal(-13)))
          CFI (cfiCond45) V10 load(1, XDATA, add(CFA_XSP16, literal(-12)))
          CFI (cfiCond45) V11 load(1, XDATA, add(CFA_XSP16, literal(-11)))
          CFI (cfiCond45) V12 load(1, XDATA, add(CFA_XSP16, literal(-10)))
          CFI (cfiCond45) V13 load(1, XDATA, add(CFA_XSP16, literal(-9)))
          CFI (cfiCond45) V14 load(1, XDATA, add(CFA_XSP16, literal(-8)))
          CFI (cfiCond45) V15 load(1, XDATA, add(CFA_XSP16, literal(-7)))
          CFI (cfiCond45) R7 load(1, XDATA, add(CFA_XSP16, literal(-6)))
          CFI (cfiCond45) ?RET_LOW load(1, XDATA, add(CFA_XSP16, literal(-5)))
          CFI (cfiCond45) ?RET_HIGH load(1, XDATA, add(CFA_XSP16, literal(-4)))
          CFI (cfiCond45) ?BRET_EXT load(1, XDATA, add(CFA_XSP16, literal(-3)))
          CFI (cfiCond45) DPL0 load(1, XDATA, add(CFA_XSP16, literal(-2)))
          CFI (cfiCond45) DPH0 load(1, XDATA, add(CFA_XSP16, literal(-1)))
          CFI (cfiCond45) CFA_SP SP+0
          CFI (cfiCond45) CFA_XSP16 add(XSP16, 62)
          CFI Block cfiPicker46 Using cfiCommon1
          CFI (cfiPicker46) NoFunction
          CFI (cfiPicker46) Picker
        MOVX    A,@DPTR
        ADD     A,?V0 + 8
        MOV     R0,A
        INC     DPTR
        MOVX    A,@DPTR
        ADDC    A,?V0 + 9
        MOV     DPL,R0
        MOV     DPH,A
        RET
          CFI EndBlock cfiCond42
          CFI EndBlock cfiCond43
          CFI EndBlock cfiCond44
          CFI EndBlock cfiCond45
          CFI EndBlock cfiPicker46
//  134 
//  135 
//  136 /*********************************************************************
//  137  * @fn      SampleApp_WCL_localization
//  138  *
//  139  * @brief   calculate the position of a quadrotor
//  140  *
//  141  * @param   rssi_i readings from different anchors, the result will be stored in xposition and yposition
//  142  *
//  143  * @return  none
//  144  */

        RSEG BANKED_CODE:CODE:NOROOT(0)
//  145 void SampleApp_WCL_localization(float* xposition, float* yposition, float nValue[4], float RssiValue[4],
SampleApp_WCL_localization:
          CFI Block cfiBlock47 Using cfiCommon0
          CFI Function SampleApp_WCL_localization
        CODE
//  146                                    float AValue[4], float AnchorX[4], float AnchorY[4], float OffsetA[4])
//  147 {
        FUNCALL SampleApp_WCL_localization, pow
        LOCFRAME ISTACK, 0, STACK
        LOCFRAME PSTACK, 0, STACK
        LOCFRAME XSTACK, 72, STACK
        LOCFRAME IOVERLAY, 0, STATIC
        LOCFRAME DOVERLAY, 0, STATIC
        ARGFRAME ISTACK, 0, STACK
        ARGFRAME PSTACK, 0, STACK
        ARGFRAME XSTACK, 72, STACK
        ARGFRAME IOVERLAY, 0, STATIC
        ARGFRAME DOVERLAY, 0, STATIC
        FUNCALL SampleApp_WCL_localization, pow
        LOCFRAME ISTACK, 0, STACK
        LOCFRAME PSTACK, 0, STACK
        LOCFRAME XSTACK, 72, STACK
        LOCFRAME IOVERLAY, 0, STATIC
        LOCFRAME DOVERLAY, 0, STATIC
        ARGFRAME ISTACK, 0, STACK
        ARGFRAME PSTACK, 0, STACK
        ARGFRAME XSTACK, 72, STACK
        ARGFRAME IOVERLAY, 0, STATIC
        ARGFRAME DOVERLAY, 0, STATIC
        MOV     A,#-0x18
        LCALL   ?BANKED_ENTER_XDATA
          CFI DPH0 load(1, XDATA, add(CFA_XSP16, literal(-1)))
          CFI DPL0 load(1, XDATA, add(CFA_XSP16, literal(-2)))
          CFI ?BRET_EXT load(1, XDATA, add(CFA_XSP16, literal(-3)))
          CFI ?RET_HIGH load(1, XDATA, add(CFA_XSP16, literal(-4)))
          CFI ?RET_LOW load(1, XDATA, add(CFA_XSP16, literal(-5)))
          CFI R7 load(1, XDATA, add(CFA_XSP16, literal(-6)))
          CFI V15 load(1, XDATA, add(CFA_XSP16, literal(-7)))
          CFI V14 load(1, XDATA, add(CFA_XSP16, literal(-8)))
          CFI V13 load(1, XDATA, add(CFA_XSP16, literal(-9)))
          CFI V12 load(1, XDATA, add(CFA_XSP16, literal(-10)))
          CFI V11 load(1, XDATA, add(CFA_XSP16, literal(-11)))
          CFI V10 load(1, XDATA, add(CFA_XSP16, literal(-12)))
          CFI V9 load(1, XDATA, add(CFA_XSP16, literal(-13)))
          CFI V8 load(1, XDATA, add(CFA_XSP16, literal(-14)))
          CFI V7 load(1, XDATA, add(CFA_XSP16, literal(-15)))
          CFI V6 load(1, XDATA, add(CFA_XSP16, literal(-16)))
          CFI V5 load(1, XDATA, add(CFA_XSP16, literal(-17)))
          CFI V4 load(1, XDATA, add(CFA_XSP16, literal(-18)))
          CFI V3 load(1, XDATA, add(CFA_XSP16, literal(-19)))
          CFI V2 load(1, XDATA, add(CFA_XSP16, literal(-20)))
          CFI V1 load(1, XDATA, add(CFA_XSP16, literal(-21)))
          CFI V0 load(1, XDATA, add(CFA_XSP16, literal(-22)))
          CFI VB load(1, XDATA, add(CFA_XSP16, literal(-23)))
          CFI R6 load(1, XDATA, add(CFA_XSP16, literal(-24)))
          CFI CFA_SP SP+0
          CFI CFA_XSP16 add(XSP16, 24)
        ; Saved register size: 24
        ; Auto size: 44
        MOV     A,#-0x2c
        LCALL   ?ALLOC_XSTACK8
          CFI CFA_XSP16 add(XSP16, 68)
        MOV     A,#0x2
        LCALL   ?XSTACK_DISP0_8
        LCALL   ?Subroutine20 & 0xFFFF
//  148     //initial the parameter 
//  149     float g=2.78;   // const. parameter for WCL  2.78
//  150     float w[4]; //weight
//  151     float sumw=0.0f; // sum of weights
??CrossCallReturnLabel_56:
        MOV     ?V0 + 0,#0x0
        MOV     ?V0 + 1,#0x0
        MOV     ?V0 + 2,#0x0
        MOV     ?V0 + 3,#0x0
//  152     float naverage=0.0f;
//  153     float distance[4]={0.0f, 0.0f, 0.0f, 0.0f};
        MOV     A,#0x1c
        LCALL   ?XSTACK_DISP0_8
        MOV     R4,DPL
        MOV     R5,DPH
        MOV     DPH,#(`?<Constant {(0.0F), (0.0F), (0.0F), (0.0F)}>` >> 8) & 0xff
        MOV     DPL,#`?<Constant {(0.0F), (0.0F), (0.0F), (0.0F)}>` & 0xff
        MOV     A,#0x10
        LCALL   ?MOVE_LONG8_XDATA_XDATA
//  154     float rssigain=1.0f;
//  155     
//  156       //average n from 4 nodes
//  157 //    for(int i=0;i<4;i++)
//  158 //    {
//  159 //      naverage+=nValue[i];
//  160 //    }
//  161 //    
//  162 //  
//  163 //    naverage=naverage/4.0f;
//  164     
//  165     
//  166     //calculate the distances based on the calibrated parameter n and A
//  167     for (int i=0; i<4; i++)
        MOV     R6,A
        MOV     R7,A
        MOV     A,#0x44
        LCALL   ?XSTACK_DISP0_8
        LCALL   ?Subroutine12 & 0xFFFF
??CrossCallReturnLabel_29:
        MOV     A,#0x44
        LCALL   ?XSTACK_DISP0_8
        LCALL   ?Subroutine22 & 0xFFFF
??CrossCallReturnLabel_67:
        MOV     A,#0x46
        LCALL   ?XSTACK_DISP0_8
        LCALL   ?Subroutine12 & 0xFFFF
??CrossCallReturnLabel_30:
        MOV     A,#0x46
        LCALL   ?XSTACK_DISP0_8
        LCALL   ?Subroutine22 & 0xFFFF
??CrossCallReturnLabel_68:
        MOV     A,#0x48
        LCALL   ?XSTACK_DISP0_8
        LCALL   ?Subroutine12 & 0xFFFF
??CrossCallReturnLabel_31:
        MOV     A,#0x48
        LCALL   ?XSTACK_DISP0_8
        LCALL   ?Subroutine22 & 0xFFFF
??CrossCallReturnLabel_69:
        MOV     A,#0x4e
        LCALL   ?XSTACK_DISP0_8
        LCALL   ?Subroutine12 & 0xFFFF
??CrossCallReturnLabel_32:
        MOV     A,#0x4e
        LCALL   ?XSTACK_DISP0_8
        LCALL   ?Subroutine22 & 0xFFFF
??CrossCallReturnLabel_70:
        ; Setup parameters for call to function pow
        MOV     ?V0 + 4,R6
        MOV     ?V0 + 5,R7
        MOV     A,#0x2
        MOV     R0,#?V0 + 4
        LCALL   ?S_SHL
        MOV     A,#0x46
        LCALL   ?XSTACK_DISP0_8
        LCALL   ?Subroutine17 & 0xFFFF
??CrossCallReturnLabel_50:
        MOV     R0,#?V0 + 12
        LCALL   ?L_MOV_X
        MOV     DPTR,#__Constant_3f800000
        MOV     R0,#?V0 + 4
        LCALL   ?L_MOV_X
        MOV     R0,#?V0 + 12
        MOV     R1,#?V0 + 4
        LCALL   ?FLT_DIV
        MOV     ?V0 + 4,R6
        MOV     ?V0 + 5,R7
        MOV     A,#0x2
        MOV     R0,#?V0 + 4
        LCALL   ?S_SHL
        MOV     A,#0x48
        LCALL   ?XSTACK_DISP0_8
        LCALL   ?Subroutine15 & 0xFFFF
??CrossCallReturnLabel_46:
        LCALL   ?L_MOV_X
        MOV     R0,#?V0 + 12
        MOV     R1,#?V0 + 4
        LCALL   ?FLT_SUB
        MOV     ?V0 + 4,R6
        MOV     ?V0 + 5,R7
        MOV     A,#0x2
        MOV     R0,#?V0 + 4
        LCALL   ?S_SHL
        MOV     A,#0x4e
        LCALL   ?XSTACK_DISP0_8
        LCALL   ?Subroutine15 & 0xFFFF
??CrossCallReturnLabel_47:
        LCALL   ?L_MOV_X
        MOV     R0,#?V0 + 12
        MOV     R1,#?V0 + 4
        LCALL   ?FLT_ADD
        MOV     ?V0 + 4,R6
        MOV     ?V0 + 5,R7
        MOV     A,#0x2
        MOV     R0,#?V0 + 4
        LCALL   ?S_SHL
        MOV     A,#0x44
        LCALL   ?XSTACK_DISP0_8
        LCALL   ?Subroutine17 & 0xFFFF
??CrossCallReturnLabel_51:
        MOV     R0,#?V0 + 8
        LCALL   ?L_MOV_X
        MOV     DPTR,#__Constant_41200000
        MOV     R0,#?V0 + 4
        LCALL   ?L_MOV_X
        MOV     R0,#?V0 + 8
        MOV     R1,#?V0 + 4
        LCALL   ?FLT_MUL
        MOV     R0,#?V0 + 12
        MOV     R1,#?V0 + 8
        LCALL   ?FLT_DIV
        MOV     R0,#?V0 + 12
        LCALL   ?PUSH_XSTACK_I_FOUR
          CFI CFA_XSP16 add(XSP16, 72)
        MOV     DPTR,#__Constant_41200000
        LCALL   ?XLOAD_R2345
//  168     {
//  169       distance[i]=pow(10,((RssiValue[i]/rssigain-AValue[i]+OffsetA[i])/(10*nValue[i])));
        LCALL   ??pow?relay
        MOV     A,#0x4
        LCALL   ?DEALLOC_XSTACK8
          CFI CFA_XSP16 add(XSP16, 68)
        MOV     ?V0 + 8,R2
        MOV     ?V0 + 9,R3
        MOV     ?V0 + 10,R4
        MOV     ?V0 + 11,R5
        MOV     ?V0 + 4,R6
        MOV     ?V0 + 5,R7
        MOV     A,#0x2
        MOV     R0,#?V0 + 4
        LCALL   ?S_SHL
        MOV     A,#0x1c
        LCALL   ?XSTACK_DISP0_8
        LCALL   ?Subroutine30 & 0xFFFF
??CrossCallReturnLabel_85:
        LCALL   ?L_MOV_TO_X
//  170       w[i]=pow(distance[i],-g);
        ; Setup parameters for call to function pow
        MOV     DPTR,#__Constant_c031eb85
        LCALL   ?PUSH_XSTACK8_X_FOUR
          CFI CFA_XSP16 add(XSP16, 72)
        LCALL   ??pow?relay
        MOV     A,#0x4
        LCALL   ?DEALLOC_XSTACK8
          CFI CFA_XSP16 add(XSP16, 68)
        MOV     ?V0 + 8,R2
        MOV     ?V0 + 9,R3
        MOV     ?V0 + 10,R4
        MOV     ?V0 + 11,R5
        MOV     ?V0 + 4,R6
        MOV     ?V0 + 5,R7
        MOV     A,#0x2
        MOV     R0,#?V0 + 4
        LCALL   ?S_SHL
        MOV     A,#0xc
        LCALL   ?XSTACK_DISP0_8
        LCALL   ?Subroutine30 & 0xFFFF
??CrossCallReturnLabel_86:
        LCALL   ?L_MOV_TO_X
//  171       sumw+=w[i];
        MOV     R0,#?V0 + 0
        MOV     R1,#?V0 + 8
        LCALL   ?FLT_ADD
//  172     }
        LCALL   ?Subroutine2 & 0xFFFF
??CrossCallReturnLabel_2:
        JNC     $+5
        LJMP    ??CrossCallReturnLabel_70 & 0xFFFF
//  173 
//  174     
//  175      
//  176     *xposition=AnchorX[0]*w[0]/sumw+AnchorX[1]*w[1]/sumw+AnchorX[2]*w[2]/sumw+AnchorX[3]*w[3]/sumw;
        MOV     A,#0x18
        LCALL   ?XSTACK_DISP0_8
        LCALL   ?XLOAD_R2345
        MOV     A,#0x8
        LCALL   ?XSTACK_DISP0_8
        LCALL   ?XSTORE_R2345
        MOV     A,#0x14
        LCALL   ?XSTACK_DISP0_8
        LCALL   ?XLOAD_R2345
        MOV     A,#0x4
        LCALL   ?XSTACK_DISP0_8
        LCALL   ?XSTORE_R2345
        MOV     A,#0x10
        LCALL   ?XSTACK_DISP0_8
        MOV     R0,#?V0 + 4
        LCALL   ?L_MOV_X
        MOV     A,#0x4a
        LCALL   ?XSTACK_DISP0_8
        LCALL   ?Subroutine18 & 0xFFFF
??CrossCallReturnLabel_53:
        LCALL   ?L_MOV_X
        MOV     A,#0xc
        LCALL   ?XSTACK_DISP0_8
        MOV     R0,#?V0 + 12
        LCALL   ?L_MOV_X
        MOV     R0,#?V0 + 8
        MOV     R1,#?V0 + 12
        LCALL   ?FLT_MUL
        MOV     R0,#?V0 + 8
        MOV     R1,#?V0 + 0
        LCALL   ?FLT_DIV
        MOV     DPL,R2
        MOV     DPH,R3
        INC     DPTR
        INC     DPTR
        INC     DPTR
        INC     DPTR
        MOV     R0,#?V0 + 12
        LCALL   ?L_MOV_X
        MOV     R0,#?V0 + 12
        MOV     R1,#?V0 + 4
        LCALL   ?FLT_MUL
        MOV     R0,#?V0 + 12
        MOV     R1,#?V0 + 0
        LCALL   ?FLT_DIV
        MOV     R0,#?V0 + 8
        MOV     R1,#?V0 + 12
        LCALL   ?FLT_ADD
        PUSH    ?V0 + 8
          CFI CFA_SP SP+-1
        PUSH    ?V0 + 9
          CFI CFA_SP SP+-2
        PUSH    ?V0 + 10
          CFI CFA_SP SP+-3
        PUSH    ?V0 + 11
          CFI CFA_SP SP+-4
        MOV     DPL,R2
        MOV     DPH,R3
        INC     DPTR
        INC     DPTR
        INC     DPTR
        INC     DPTR
        INC     DPTR
        INC     DPTR
        INC     DPTR
        INC     DPTR
        MOV     R0,#?V0 + 12
        LCALL   ?L_MOV_X
        MOV     A,#0x4
        LCALL   ?XSTACK_DISP0_8
        MOV     R0,#?V0 + 8
        LCALL   ?L_MOV_X
        MOV     R0,#?V0 + 12
        MOV     R1,#?V0 + 8
        LCALL   ?FLT_MUL
        MOV     R0,#?V0 + 12
        MOV     R1,#?V0 + 0
        LCALL   ?FLT_DIV
        POP     ?V0 + 11
          CFI CFA_SP SP+-3
        POP     ?V0 + 10
          CFI CFA_SP SP+-2
        POP     ?V0 + 9
          CFI CFA_SP SP+-1
        POP     ?V0 + 8
          CFI CFA_SP SP+0
        MOV     R0,#?V0 + 8
        MOV     R1,#?V0 + 12
        LCALL   ?FLT_ADD
        PUSH    ?V0 + 8
          CFI CFA_SP SP+-1
        PUSH    ?V0 + 9
          CFI CFA_SP SP+-2
        PUSH    ?V0 + 10
          CFI CFA_SP SP+-3
        PUSH    ?V0 + 11
          CFI CFA_SP SP+-4
        LCALL   ?Subroutine33 & 0xFFFF
??CrossCallReturnLabel_92:
        MOV     R0,#?V0 + 12
        LCALL   ?L_MOV_X
        MOV     A,#0x8
        LCALL   ?XSTACK_DISP0_8
        MOV     R0,#?V0 + 8
        LCALL   ?L_MOV_X
        MOV     R0,#?V0 + 12
        MOV     R1,#?V0 + 8
        LCALL   ?FLT_MUL
        MOV     R0,#?V0 + 12
        MOV     R1,#?V0 + 0
        LCALL   ?FLT_DIV
        POP     ?V0 + 11
          CFI CFA_SP SP+-3
        POP     ?V0 + 10
          CFI CFA_SP SP+-2
        POP     ?V0 + 9
          CFI CFA_SP SP+-1
        POP     ?V0 + 8
          CFI CFA_SP SP+0
        MOV     R0,#?V0 + 8
        MOV     R1,#?V0 + 12
        LCALL   ?FLT_ADD
        MOV     A,#0x2
        LCALL   ?XSTACK_DISP0_8
        LCALL   ?Subroutine13 & 0xFFFF
??CrossCallReturnLabel_42:
        MOV     R0,#?V0 + 8
        LCALL   ?L_MOV_TO_X
        MOV     A,#0x4c
        LCALL   ?XSTACK_DISP0_8
        LCALL   ?Subroutine18 & 0xFFFF
//  177     *yposition=AnchorY[0]*w[0]/sumw+AnchorY[1]*w[1]/sumw+AnchorY[2]*w[2]/sumw+AnchorY[3]*w[3]/sumw;
??CrossCallReturnLabel_52:
        LCALL   ?L_MOV_X
        MOV     A,#0xc
        LCALL   ?XSTACK_DISP0_8
        MOV     R0,#?V0 + 12
        LCALL   ?L_MOV_X
        MOV     R0,#?V0 + 8
        MOV     R1,#?V0 + 12
        LCALL   ?FLT_MUL
        MOV     R0,#?V0 + 8
        MOV     R1,#?V0 + 0
        LCALL   ?FLT_DIV
        MOV     DPL,R2
        MOV     DPH,R3
        INC     DPTR
        INC     DPTR
        INC     DPTR
        INC     DPTR
        MOV     R0,#?V0 + 12
        LCALL   ?L_MOV_X
        MOV     R0,#?V0 + 12
        MOV     R1,#?V0 + 4
        LCALL   ?FLT_MUL
        MOV     R0,#?V0 + 12
        MOV     R1,#?V0 + 0
        LCALL   ?FLT_DIV
        MOV     ?V0 + 4,?V0 + 8
        MOV     ?V0 + 5,?V0 + 9
        MOV     ?V0 + 6,?V0 + 10
        MOV     ?V0 + 7,?V0 + 11
        MOV     R0,#?V0 + 4
        MOV     R1,#?V0 + 12
        LCALL   ?FLT_ADD
        MOV     DPL,R2
        MOV     DPH,R3
        INC     DPTR
        INC     DPTR
        INC     DPTR
        INC     DPTR
        INC     DPTR
        INC     DPTR
        INC     DPTR
        INC     DPTR
        MOV     R0,#?V0 + 12
        LCALL   ?L_MOV_X
        MOV     A,#0x4
        LCALL   ?XSTACK_DISP0_8
        MOV     R0,#?V0 + 8
        LCALL   ?L_MOV_X
        MOV     R0,#?V0 + 12
        MOV     R1,#?V0 + 8
        LCALL   ?FLT_MUL
        MOV     R0,#?V0 + 12
        MOV     R1,#?V0 + 0
        LCALL   ?FLT_DIV
        MOV     R0,#?V0 + 4
        MOV     R1,#?V0 + 12
        LCALL   ?FLT_ADD
        LCALL   ?Subroutine33 & 0xFFFF
??CrossCallReturnLabel_93:
        MOV     R0,#?V0 + 8
        LCALL   ?L_MOV_X
        MOV     A,#0x8
        LCALL   ?XSTACK_DISP0_8
        MOV     R0,#?V0 + 12
        LCALL   ?L_MOV_X
        MOV     R0,#?V0 + 8
        MOV     R1,#?V0 + 12
        LCALL   ?FLT_MUL
        MOV     R0,#?V0 + 8
        MOV     R1,#?V0 + 0
        LCALL   ?FLT_DIV
        MOV     R0,#?V0 + 4
        MOV     R1,#?V0 + 8
        LCALL   ?FLT_ADD
        MOV     DPL,?XSP + 0
        MOV     DPH,?XSP + 1
        LCALL   ?Subroutine13 & 0xFFFF
??CrossCallReturnLabel_43:
        MOV     R0,#?V0 + 4
        LCALL   ?L_MOV_TO_X
//  178     
//  179 }
        MOV     A,#0x2c
        LJMP    ?Subroutine0 & 0xFFFF
          CFI EndBlock cfiBlock47

        RSEG BANKED_CODE:CODE:NOROOT(0)
?Subroutine33:
          CFI Block cfiCond48 Using cfiCommon0
          CFI Function SampleApp_WCL_localization
          CFI Conditional ??CrossCallReturnLabel_92
          CFI R6 load(1, XDATA, add(CFA_XSP16, literal(-24)))
          CFI VB load(1, XDATA, add(CFA_XSP16, literal(-23)))
          CFI V0 load(1, XDATA, add(CFA_XSP16, literal(-22)))
          CFI V1 load(1, XDATA, add(CFA_XSP16, literal(-21)))
          CFI V2 load(1, XDATA, add(CFA_XSP16, literal(-20)))
          CFI V3 load(1, XDATA, add(CFA_XSP16, literal(-19)))
          CFI V4 load(1, XDATA, add(CFA_XSP16, literal(-18)))
          CFI V5 load(1, XDATA, add(CFA_XSP16, literal(-17)))
          CFI V6 load(1, XDATA, add(CFA_XSP16, literal(-16)))
          CFI V7 load(1, XDATA, add(CFA_XSP16, literal(-15)))
          CFI V8 load(1, XDATA, add(CFA_XSP16, literal(-14)))
          CFI V9 load(1, XDATA, add(CFA_XSP16, literal(-13)))
          CFI V10 load(1, XDATA, add(CFA_XSP16, literal(-12)))
          CFI V11 load(1, XDATA, add(CFA_XSP16, literal(-11)))
          CFI V12 load(1, XDATA, add(CFA_XSP16, literal(-10)))
          CFI V13 load(1, XDATA, add(CFA_XSP16, literal(-9)))
          CFI V14 load(1, XDATA, add(CFA_XSP16, literal(-8)))
          CFI V15 load(1, XDATA, add(CFA_XSP16, literal(-7)))
          CFI R7 load(1, XDATA, add(CFA_XSP16, literal(-6)))
          CFI ?RET_LOW load(1, XDATA, add(CFA_XSP16, literal(-5)))
          CFI ?RET_HIGH load(1, XDATA, add(CFA_XSP16, literal(-4)))
          CFI ?BRET_EXT load(1, XDATA, add(CFA_XSP16, literal(-3)))
          CFI DPL0 load(1, XDATA, add(CFA_XSP16, literal(-2)))
          CFI DPH0 load(1, XDATA, add(CFA_XSP16, literal(-1)))
          CFI CFA_SP SP+-4
          CFI CFA_XSP16 add(XSP16, 68)
          CFI Block cfiCond49 Using cfiCommon0
          CFI (cfiCond49) Function SampleApp_WCL_localization
          CFI (cfiCond49) Conditional ??CrossCallReturnLabel_93
          CFI (cfiCond49) R6 load(1, XDATA, add(CFA_XSP16, literal(-24)))
          CFI (cfiCond49) VB load(1, XDATA, add(CFA_XSP16, literal(-23)))
          CFI (cfiCond49) V0 load(1, XDATA, add(CFA_XSP16, literal(-22)))
          CFI (cfiCond49) V1 load(1, XDATA, add(CFA_XSP16, literal(-21)))
          CFI (cfiCond49) V2 load(1, XDATA, add(CFA_XSP16, literal(-20)))
          CFI (cfiCond49) V3 load(1, XDATA, add(CFA_XSP16, literal(-19)))
          CFI (cfiCond49) V4 load(1, XDATA, add(CFA_XSP16, literal(-18)))
          CFI (cfiCond49) V5 load(1, XDATA, add(CFA_XSP16, literal(-17)))
          CFI (cfiCond49) V6 load(1, XDATA, add(CFA_XSP16, literal(-16)))
          CFI (cfiCond49) V7 load(1, XDATA, add(CFA_XSP16, literal(-15)))
          CFI (cfiCond49) V8 load(1, XDATA, add(CFA_XSP16, literal(-14)))
          CFI (cfiCond49) V9 load(1, XDATA, add(CFA_XSP16, literal(-13)))
          CFI (cfiCond49) V10 load(1, XDATA, add(CFA_XSP16, literal(-12)))
          CFI (cfiCond49) V11 load(1, XDATA, add(CFA_XSP16, literal(-11)))
          CFI (cfiCond49) V12 load(1, XDATA, add(CFA_XSP16, literal(-10)))
          CFI (cfiCond49) V13 load(1, XDATA, add(CFA_XSP16, literal(-9)))
          CFI (cfiCond49) V14 load(1, XDATA, add(CFA_XSP16, literal(-8)))
          CFI (cfiCond49) V15 load(1, XDATA, add(CFA_XSP16, literal(-7)))
          CFI (cfiCond49) R7 load(1, XDATA, add(CFA_XSP16, literal(-6)))
          CFI (cfiCond49) ?RET_LOW load(1, XDATA, add(CFA_XSP16, literal(-5)))
          CFI (cfiCond49) ?RET_HIGH load(1, XDATA, add(CFA_XSP16, literal(-4)))
          CFI (cfiCond49) ?BRET_EXT load(1, XDATA, add(CFA_XSP16, literal(-3)))
          CFI (cfiCond49) DPL0 load(1, XDATA, add(CFA_XSP16, literal(-2)))
          CFI (cfiCond49) DPH0 load(1, XDATA, add(CFA_XSP16, literal(-1)))
          CFI (cfiCond49) CFA_SP SP+0
          CFI (cfiCond49) CFA_XSP16 add(XSP16, 68)
          CFI Block cfiPicker50 Using cfiCommon1
          CFI (cfiPicker50) NoFunction
          CFI (cfiPicker50) Picker
        MOV     A,R2
        ADD     A,#0xc
        MOV     DPL,A
        MOV     A,R3
        ADDC    A,#0x0
        MOV     DPH,A
        RET
          CFI EndBlock cfiCond48
          CFI EndBlock cfiCond49
          CFI EndBlock cfiPicker50

        RSEG BANKED_CODE:CODE:NOROOT(0)
?Subroutine30:
          CFI Block cfiCond51 Using cfiCommon0
          CFI Function SampleApp_WCL_localization
          CFI Conditional ??CrossCallReturnLabel_85
          CFI R6 load(1, XDATA, add(CFA_XSP16, literal(-24)))
          CFI VB load(1, XDATA, add(CFA_XSP16, literal(-23)))
          CFI V0 load(1, XDATA, add(CFA_XSP16, literal(-22)))
          CFI V1 load(1, XDATA, add(CFA_XSP16, literal(-21)))
          CFI V2 load(1, XDATA, add(CFA_XSP16, literal(-20)))
          CFI V3 load(1, XDATA, add(CFA_XSP16, literal(-19)))
          CFI V4 load(1, XDATA, add(CFA_XSP16, literal(-18)))
          CFI V5 load(1, XDATA, add(CFA_XSP16, literal(-17)))
          CFI V6 load(1, XDATA, add(CFA_XSP16, literal(-16)))
          CFI V7 load(1, XDATA, add(CFA_XSP16, literal(-15)))
          CFI V8 load(1, XDATA, add(CFA_XSP16, literal(-14)))
          CFI V9 load(1, XDATA, add(CFA_XSP16, literal(-13)))
          CFI V10 load(1, XDATA, add(CFA_XSP16, literal(-12)))
          CFI V11 load(1, XDATA, add(CFA_XSP16, literal(-11)))
          CFI V12 load(1, XDATA, add(CFA_XSP16, literal(-10)))
          CFI V13 load(1, XDATA, add(CFA_XSP16, literal(-9)))
          CFI V14 load(1, XDATA, add(CFA_XSP16, literal(-8)))
          CFI V15 load(1, XDATA, add(CFA_XSP16, literal(-7)))
          CFI R7 load(1, XDATA, add(CFA_XSP16, literal(-6)))
          CFI ?RET_LOW load(1, XDATA, add(CFA_XSP16, literal(-5)))
          CFI ?RET_HIGH load(1, XDATA, add(CFA_XSP16, literal(-4)))
          CFI ?BRET_EXT load(1, XDATA, add(CFA_XSP16, literal(-3)))
          CFI DPL0 load(1, XDATA, add(CFA_XSP16, literal(-2)))
          CFI DPH0 load(1, XDATA, add(CFA_XSP16, literal(-1)))
          CFI CFA_SP SP+0
          CFI CFA_XSP16 add(XSP16, 68)
          CFI Block cfiCond52 Using cfiCommon0
          CFI (cfiCond52) Function SampleApp_WCL_localization
          CFI (cfiCond52) Conditional ??CrossCallReturnLabel_86
          CFI (cfiCond52) R6 load(1, XDATA, add(CFA_XSP16, literal(-24)))
          CFI (cfiCond52) VB load(1, XDATA, add(CFA_XSP16, literal(-23)))
          CFI (cfiCond52) V0 load(1, XDATA, add(CFA_XSP16, literal(-22)))
          CFI (cfiCond52) V1 load(1, XDATA, add(CFA_XSP16, literal(-21)))
          CFI (cfiCond52) V2 load(1, XDATA, add(CFA_XSP16, literal(-20)))
          CFI (cfiCond52) V3 load(1, XDATA, add(CFA_XSP16, literal(-19)))
          CFI (cfiCond52) V4 load(1, XDATA, add(CFA_XSP16, literal(-18)))
          CFI (cfiCond52) V5 load(1, XDATA, add(CFA_XSP16, literal(-17)))
          CFI (cfiCond52) V6 load(1, XDATA, add(CFA_XSP16, literal(-16)))
          CFI (cfiCond52) V7 load(1, XDATA, add(CFA_XSP16, literal(-15)))
          CFI (cfiCond52) V8 load(1, XDATA, add(CFA_XSP16, literal(-14)))
          CFI (cfiCond52) V9 load(1, XDATA, add(CFA_XSP16, literal(-13)))
          CFI (cfiCond52) V10 load(1, XDATA, add(CFA_XSP16, literal(-12)))
          CFI (cfiCond52) V11 load(1, XDATA, add(CFA_XSP16, literal(-11)))
          CFI (cfiCond52) V12 load(1, XDATA, add(CFA_XSP16, literal(-10)))
          CFI (cfiCond52) V13 load(1, XDATA, add(CFA_XSP16, literal(-9)))
          CFI (cfiCond52) V14 load(1, XDATA, add(CFA_XSP16, literal(-8)))
          CFI (cfiCond52) V15 load(1, XDATA, add(CFA_XSP16, literal(-7)))
          CFI (cfiCond52) R7 load(1, XDATA, add(CFA_XSP16, literal(-6)))
          CFI (cfiCond52) ?RET_LOW load(1, XDATA, add(CFA_XSP16, literal(-5)))
          CFI (cfiCond52) ?RET_HIGH load(1, XDATA, add(CFA_XSP16, literal(-4)))
          CFI (cfiCond52) ?BRET_EXT load(1, XDATA, add(CFA_XSP16, literal(-3)))
          CFI (cfiCond52) DPL0 load(1, XDATA, add(CFA_XSP16, literal(-2)))
          CFI (cfiCond52) DPH0 load(1, XDATA, add(CFA_XSP16, literal(-1)))
          CFI (cfiCond52) CFA_SP SP+0
          CFI (cfiCond52) CFA_XSP16 add(XSP16, 68)
          CFI Block cfiPicker53 Using cfiCommon1
          CFI (cfiPicker53) NoFunction
          CFI (cfiPicker53) Picker
        MOV     A,DPL
        ADD     A,?V0 + 4
        MOV     DPL,A
        MOV     A,DPH
        ADDC    A,?V0 + 5
        MOV     DPH,A
        MOV     R0,#?V0 + 8
        RET
          CFI EndBlock cfiCond51
          CFI EndBlock cfiCond52
          CFI EndBlock cfiPicker53

        RSEG BANKED_CODE:CODE:NOROOT(0)
?Subroutine22:
          CFI Block cfiCond54 Using cfiCommon0
          CFI Function SampleApp_MinMax_localization
          CFI Conditional ??CrossCallReturnLabel_60
          CFI R6 load(1, XDATA, add(CFA_XSP16, literal(-24)))
          CFI VB load(1, XDATA, add(CFA_XSP16, literal(-23)))
          CFI V0 load(1, XDATA, add(CFA_XSP16, literal(-22)))
          CFI V1 load(1, XDATA, add(CFA_XSP16, literal(-21)))
          CFI V2 load(1, XDATA, add(CFA_XSP16, literal(-20)))
          CFI V3 load(1, XDATA, add(CFA_XSP16, literal(-19)))
          CFI V4 load(1, XDATA, add(CFA_XSP16, literal(-18)))
          CFI V5 load(1, XDATA, add(CFA_XSP16, literal(-17)))
          CFI V6 load(1, XDATA, add(CFA_XSP16, literal(-16)))
          CFI V7 load(1, XDATA, add(CFA_XSP16, literal(-15)))
          CFI V8 load(1, XDATA, add(CFA_XSP16, literal(-14)))
          CFI V9 load(1, XDATA, add(CFA_XSP16, literal(-13)))
          CFI V10 load(1, XDATA, add(CFA_XSP16, literal(-12)))
          CFI V11 load(1, XDATA, add(CFA_XSP16, literal(-11)))
          CFI V12 load(1, XDATA, add(CFA_XSP16, literal(-10)))
          CFI V13 load(1, XDATA, add(CFA_XSP16, literal(-9)))
          CFI V14 load(1, XDATA, add(CFA_XSP16, literal(-8)))
          CFI V15 load(1, XDATA, add(CFA_XSP16, literal(-7)))
          CFI R7 load(1, XDATA, add(CFA_XSP16, literal(-6)))
          CFI ?RET_LOW load(1, XDATA, add(CFA_XSP16, literal(-5)))
          CFI ?RET_HIGH load(1, XDATA, add(CFA_XSP16, literal(-4)))
          CFI ?BRET_EXT load(1, XDATA, add(CFA_XSP16, literal(-3)))
          CFI DPL0 load(1, XDATA, add(CFA_XSP16, literal(-2)))
          CFI DPH0 load(1, XDATA, add(CFA_XSP16, literal(-1)))
          CFI CFA_SP SP+0
          CFI CFA_XSP16 add(XSP16, 62)
          CFI Block cfiCond55 Using cfiCommon0
          CFI (cfiCond55) Function SampleApp_MinMax_localization
          CFI (cfiCond55) Conditional ??CrossCallReturnLabel_61
          CFI (cfiCond55) R6 load(1, XDATA, add(CFA_XSP16, literal(-24)))
          CFI (cfiCond55) VB load(1, XDATA, add(CFA_XSP16, literal(-23)))
          CFI (cfiCond55) V0 load(1, XDATA, add(CFA_XSP16, literal(-22)))
          CFI (cfiCond55) V1 load(1, XDATA, add(CFA_XSP16, literal(-21)))
          CFI (cfiCond55) V2 load(1, XDATA, add(CFA_XSP16, literal(-20)))
          CFI (cfiCond55) V3 load(1, XDATA, add(CFA_XSP16, literal(-19)))
          CFI (cfiCond55) V4 load(1, XDATA, add(CFA_XSP16, literal(-18)))
          CFI (cfiCond55) V5 load(1, XDATA, add(CFA_XSP16, literal(-17)))
          CFI (cfiCond55) V6 load(1, XDATA, add(CFA_XSP16, literal(-16)))
          CFI (cfiCond55) V7 load(1, XDATA, add(CFA_XSP16, literal(-15)))
          CFI (cfiCond55) V8 load(1, XDATA, add(CFA_XSP16, literal(-14)))
          CFI (cfiCond55) V9 load(1, XDATA, add(CFA_XSP16, literal(-13)))
          CFI (cfiCond55) V10 load(1, XDATA, add(CFA_XSP16, literal(-12)))
          CFI (cfiCond55) V11 load(1, XDATA, add(CFA_XSP16, literal(-11)))
          CFI (cfiCond55) V12 load(1, XDATA, add(CFA_XSP16, literal(-10)))
          CFI (cfiCond55) V13 load(1, XDATA, add(CFA_XSP16, literal(-9)))
          CFI (cfiCond55) V14 load(1, XDATA, add(CFA_XSP16, literal(-8)))
          CFI (cfiCond55) V15 load(1, XDATA, add(CFA_XSP16, literal(-7)))
          CFI (cfiCond55) R7 load(1, XDATA, add(CFA_XSP16, literal(-6)))
          CFI (cfiCond55) ?RET_LOW load(1, XDATA, add(CFA_XSP16, literal(-5)))
          CFI (cfiCond55) ?RET_HIGH load(1, XDATA, add(CFA_XSP16, literal(-4)))
          CFI (cfiCond55) ?BRET_EXT load(1, XDATA, add(CFA_XSP16, literal(-3)))
          CFI (cfiCond55) DPL0 load(1, XDATA, add(CFA_XSP16, literal(-2)))
          CFI (cfiCond55) DPH0 load(1, XDATA, add(CFA_XSP16, literal(-1)))
          CFI (cfiCond55) CFA_SP SP+0
          CFI (cfiCond55) CFA_XSP16 add(XSP16, 62)
          CFI Block cfiCond56 Using cfiCommon0
          CFI (cfiCond56) Function SampleApp_MinMax_localization
          CFI (cfiCond56) Conditional ??CrossCallReturnLabel_62
          CFI (cfiCond56) R6 load(1, XDATA, add(CFA_XSP16, literal(-24)))
          CFI (cfiCond56) VB load(1, XDATA, add(CFA_XSP16, literal(-23)))
          CFI (cfiCond56) V0 load(1, XDATA, add(CFA_XSP16, literal(-22)))
          CFI (cfiCond56) V1 load(1, XDATA, add(CFA_XSP16, literal(-21)))
          CFI (cfiCond56) V2 load(1, XDATA, add(CFA_XSP16, literal(-20)))
          CFI (cfiCond56) V3 load(1, XDATA, add(CFA_XSP16, literal(-19)))
          CFI (cfiCond56) V4 load(1, XDATA, add(CFA_XSP16, literal(-18)))
          CFI (cfiCond56) V5 load(1, XDATA, add(CFA_XSP16, literal(-17)))
          CFI (cfiCond56) V6 load(1, XDATA, add(CFA_XSP16, literal(-16)))
          CFI (cfiCond56) V7 load(1, XDATA, add(CFA_XSP16, literal(-15)))
          CFI (cfiCond56) V8 load(1, XDATA, add(CFA_XSP16, literal(-14)))
          CFI (cfiCond56) V9 load(1, XDATA, add(CFA_XSP16, literal(-13)))
          CFI (cfiCond56) V10 load(1, XDATA, add(CFA_XSP16, literal(-12)))
          CFI (cfiCond56) V11 load(1, XDATA, add(CFA_XSP16, literal(-11)))
          CFI (cfiCond56) V12 load(1, XDATA, add(CFA_XSP16, literal(-10)))
          CFI (cfiCond56) V13 load(1, XDATA, add(CFA_XSP16, literal(-9)))
          CFI (cfiCond56) V14 load(1, XDATA, add(CFA_XSP16, literal(-8)))
          CFI (cfiCond56) V15 load(1, XDATA, add(CFA_XSP16, literal(-7)))
          CFI (cfiCond56) R7 load(1, XDATA, add(CFA_XSP16, literal(-6)))
          CFI (cfiCond56) ?RET_LOW load(1, XDATA, add(CFA_XSP16, literal(-5)))
          CFI (cfiCond56) ?RET_HIGH load(1, XDATA, add(CFA_XSP16, literal(-4)))
          CFI (cfiCond56) ?BRET_EXT load(1, XDATA, add(CFA_XSP16, literal(-3)))
          CFI (cfiCond56) DPL0 load(1, XDATA, add(CFA_XSP16, literal(-2)))
          CFI (cfiCond56) DPH0 load(1, XDATA, add(CFA_XSP16, literal(-1)))
          CFI (cfiCond56) CFA_SP SP+0
          CFI (cfiCond56) CFA_XSP16 add(XSP16, 62)
          CFI Block cfiCond57 Using cfiCommon0
          CFI (cfiCond57) Function SampleApp_MinMax_localization
          CFI (cfiCond57) Conditional ??CrossCallReturnLabel_63
          CFI (cfiCond57) R6 load(1, XDATA, add(CFA_XSP16, literal(-24)))
          CFI (cfiCond57) VB load(1, XDATA, add(CFA_XSP16, literal(-23)))
          CFI (cfiCond57) V0 load(1, XDATA, add(CFA_XSP16, literal(-22)))
          CFI (cfiCond57) V1 load(1, XDATA, add(CFA_XSP16, literal(-21)))
          CFI (cfiCond57) V2 load(1, XDATA, add(CFA_XSP16, literal(-20)))
          CFI (cfiCond57) V3 load(1, XDATA, add(CFA_XSP16, literal(-19)))
          CFI (cfiCond57) V4 load(1, XDATA, add(CFA_XSP16, literal(-18)))
          CFI (cfiCond57) V5 load(1, XDATA, add(CFA_XSP16, literal(-17)))
          CFI (cfiCond57) V6 load(1, XDATA, add(CFA_XSP16, literal(-16)))
          CFI (cfiCond57) V7 load(1, XDATA, add(CFA_XSP16, literal(-15)))
          CFI (cfiCond57) V8 load(1, XDATA, add(CFA_XSP16, literal(-14)))
          CFI (cfiCond57) V9 load(1, XDATA, add(CFA_XSP16, literal(-13)))
          CFI (cfiCond57) V10 load(1, XDATA, add(CFA_XSP16, literal(-12)))
          CFI (cfiCond57) V11 load(1, XDATA, add(CFA_XSP16, literal(-11)))
          CFI (cfiCond57) V12 load(1, XDATA, add(CFA_XSP16, literal(-10)))
          CFI (cfiCond57) V13 load(1, XDATA, add(CFA_XSP16, literal(-9)))
          CFI (cfiCond57) V14 load(1, XDATA, add(CFA_XSP16, literal(-8)))
          CFI (cfiCond57) V15 load(1, XDATA, add(CFA_XSP16, literal(-7)))
          CFI (cfiCond57) R7 load(1, XDATA, add(CFA_XSP16, literal(-6)))
          CFI (cfiCond57) ?RET_LOW load(1, XDATA, add(CFA_XSP16, literal(-5)))
          CFI (cfiCond57) ?RET_HIGH load(1, XDATA, add(CFA_XSP16, literal(-4)))
          CFI (cfiCond57) ?BRET_EXT load(1, XDATA, add(CFA_XSP16, literal(-3)))
          CFI (cfiCond57) DPL0 load(1, XDATA, add(CFA_XSP16, literal(-2)))
          CFI (cfiCond57) DPH0 load(1, XDATA, add(CFA_XSP16, literal(-1)))
          CFI (cfiCond57) CFA_SP SP+0
          CFI (cfiCond57) CFA_XSP16 add(XSP16, 62)
          CFI Block cfiCond58 Using cfiCommon0
          CFI (cfiCond58) Function SampleApp_MinMax_localization
          CFI (cfiCond58) Conditional ??CrossCallReturnLabel_64
          CFI (cfiCond58) R6 load(1, XDATA, add(CFA_XSP16, literal(-24)))
          CFI (cfiCond58) VB load(1, XDATA, add(CFA_XSP16, literal(-23)))
          CFI (cfiCond58) V0 load(1, XDATA, add(CFA_XSP16, literal(-22)))
          CFI (cfiCond58) V1 load(1, XDATA, add(CFA_XSP16, literal(-21)))
          CFI (cfiCond58) V2 load(1, XDATA, add(CFA_XSP16, literal(-20)))
          CFI (cfiCond58) V3 load(1, XDATA, add(CFA_XSP16, literal(-19)))
          CFI (cfiCond58) V4 load(1, XDATA, add(CFA_XSP16, literal(-18)))
          CFI (cfiCond58) V5 load(1, XDATA, add(CFA_XSP16, literal(-17)))
          CFI (cfiCond58) V6 load(1, XDATA, add(CFA_XSP16, literal(-16)))
          CFI (cfiCond58) V7 load(1, XDATA, add(CFA_XSP16, literal(-15)))
          CFI (cfiCond58) V8 load(1, XDATA, add(CFA_XSP16, literal(-14)))
          CFI (cfiCond58) V9 load(1, XDATA, add(CFA_XSP16, literal(-13)))
          CFI (cfiCond58) V10 load(1, XDATA, add(CFA_XSP16, literal(-12)))
          CFI (cfiCond58) V11 load(1, XDATA, add(CFA_XSP16, literal(-11)))
          CFI (cfiCond58) V12 load(1, XDATA, add(CFA_XSP16, literal(-10)))
          CFI (cfiCond58) V13 load(1, XDATA, add(CFA_XSP16, literal(-9)))
          CFI (cfiCond58) V14 load(1, XDATA, add(CFA_XSP16, literal(-8)))
          CFI (cfiCond58) V15 load(1, XDATA, add(CFA_XSP16, literal(-7)))
          CFI (cfiCond58) R7 load(1, XDATA, add(CFA_XSP16, literal(-6)))
          CFI (cfiCond58) ?RET_LOW load(1, XDATA, add(CFA_XSP16, literal(-5)))
          CFI (cfiCond58) ?RET_HIGH load(1, XDATA, add(CFA_XSP16, literal(-4)))
          CFI (cfiCond58) ?BRET_EXT load(1, XDATA, add(CFA_XSP16, literal(-3)))
          CFI (cfiCond58) DPL0 load(1, XDATA, add(CFA_XSP16, literal(-2)))
          CFI (cfiCond58) DPH0 load(1, XDATA, add(CFA_XSP16, literal(-1)))
          CFI (cfiCond58) CFA_SP SP+0
          CFI (cfiCond58) CFA_XSP16 add(XSP16, 62)
          CFI Block cfiCond59 Using cfiCommon0
          CFI (cfiCond59) Function SampleApp_MinMax_localization
          CFI (cfiCond59) Conditional ??CrossCallReturnLabel_65
          CFI (cfiCond59) R6 load(1, XDATA, add(CFA_XSP16, literal(-24)))
          CFI (cfiCond59) VB load(1, XDATA, add(CFA_XSP16, literal(-23)))
          CFI (cfiCond59) V0 load(1, XDATA, add(CFA_XSP16, literal(-22)))
          CFI (cfiCond59) V1 load(1, XDATA, add(CFA_XSP16, literal(-21)))
          CFI (cfiCond59) V2 load(1, XDATA, add(CFA_XSP16, literal(-20)))
          CFI (cfiCond59) V3 load(1, XDATA, add(CFA_XSP16, literal(-19)))
          CFI (cfiCond59) V4 load(1, XDATA, add(CFA_XSP16, literal(-18)))
          CFI (cfiCond59) V5 load(1, XDATA, add(CFA_XSP16, literal(-17)))
          CFI (cfiCond59) V6 load(1, XDATA, add(CFA_XSP16, literal(-16)))
          CFI (cfiCond59) V7 load(1, XDATA, add(CFA_XSP16, literal(-15)))
          CFI (cfiCond59) V8 load(1, XDATA, add(CFA_XSP16, literal(-14)))
          CFI (cfiCond59) V9 load(1, XDATA, add(CFA_XSP16, literal(-13)))
          CFI (cfiCond59) V10 load(1, XDATA, add(CFA_XSP16, literal(-12)))
          CFI (cfiCond59) V11 load(1, XDATA, add(CFA_XSP16, literal(-11)))
          CFI (cfiCond59) V12 load(1, XDATA, add(CFA_XSP16, literal(-10)))
          CFI (cfiCond59) V13 load(1, XDATA, add(CFA_XSP16, literal(-9)))
          CFI (cfiCond59) V14 load(1, XDATA, add(CFA_XSP16, literal(-8)))
          CFI (cfiCond59) V15 load(1, XDATA, add(CFA_XSP16, literal(-7)))
          CFI (cfiCond59) R7 load(1, XDATA, add(CFA_XSP16, literal(-6)))
          CFI (cfiCond59) ?RET_LOW load(1, XDATA, add(CFA_XSP16, literal(-5)))
          CFI (cfiCond59) ?RET_HIGH load(1, XDATA, add(CFA_XSP16, literal(-4)))
          CFI (cfiCond59) ?BRET_EXT load(1, XDATA, add(CFA_XSP16, literal(-3)))
          CFI (cfiCond59) DPL0 load(1, XDATA, add(CFA_XSP16, literal(-2)))
          CFI (cfiCond59) DPH0 load(1, XDATA, add(CFA_XSP16, literal(-1)))
          CFI (cfiCond59) CFA_SP SP+0
          CFI (cfiCond59) CFA_XSP16 add(XSP16, 62)
          CFI Block cfiCond60 Using cfiCommon0
          CFI (cfiCond60) Function SampleApp_MinMax_localization
          CFI (cfiCond60) Conditional ??CrossCallReturnLabel_66
          CFI (cfiCond60) R6 load(1, XDATA, add(CFA_XSP16, literal(-24)))
          CFI (cfiCond60) VB load(1, XDATA, add(CFA_XSP16, literal(-23)))
          CFI (cfiCond60) V0 load(1, XDATA, add(CFA_XSP16, literal(-22)))
          CFI (cfiCond60) V1 load(1, XDATA, add(CFA_XSP16, literal(-21)))
          CFI (cfiCond60) V2 load(1, XDATA, add(CFA_XSP16, literal(-20)))
          CFI (cfiCond60) V3 load(1, XDATA, add(CFA_XSP16, literal(-19)))
          CFI (cfiCond60) V4 load(1, XDATA, add(CFA_XSP16, literal(-18)))
          CFI (cfiCond60) V5 load(1, XDATA, add(CFA_XSP16, literal(-17)))
          CFI (cfiCond60) V6 load(1, XDATA, add(CFA_XSP16, literal(-16)))
          CFI (cfiCond60) V7 load(1, XDATA, add(CFA_XSP16, literal(-15)))
          CFI (cfiCond60) V8 load(1, XDATA, add(CFA_XSP16, literal(-14)))
          CFI (cfiCond60) V9 load(1, XDATA, add(CFA_XSP16, literal(-13)))
          CFI (cfiCond60) V10 load(1, XDATA, add(CFA_XSP16, literal(-12)))
          CFI (cfiCond60) V11 load(1, XDATA, add(CFA_XSP16, literal(-11)))
          CFI (cfiCond60) V12 load(1, XDATA, add(CFA_XSP16, literal(-10)))
          CFI (cfiCond60) V13 load(1, XDATA, add(CFA_XSP16, literal(-9)))
          CFI (cfiCond60) V14 load(1, XDATA, add(CFA_XSP16, literal(-8)))
          CFI (cfiCond60) V15 load(1, XDATA, add(CFA_XSP16, literal(-7)))
          CFI (cfiCond60) R7 load(1, XDATA, add(CFA_XSP16, literal(-6)))
          CFI (cfiCond60) ?RET_LOW load(1, XDATA, add(CFA_XSP16, literal(-5)))
          CFI (cfiCond60) ?RET_HIGH load(1, XDATA, add(CFA_XSP16, literal(-4)))
          CFI (cfiCond60) ?BRET_EXT load(1, XDATA, add(CFA_XSP16, literal(-3)))
          CFI (cfiCond60) DPL0 load(1, XDATA, add(CFA_XSP16, literal(-2)))
          CFI (cfiCond60) DPH0 load(1, XDATA, add(CFA_XSP16, literal(-1)))
          CFI (cfiCond60) CFA_SP SP+0
          CFI (cfiCond60) CFA_XSP16 add(XSP16, 62)
          CFI Block cfiCond61 Using cfiCommon0
          CFI (cfiCond61) Function SampleApp_WCL_localization
          CFI (cfiCond61) Conditional ??CrossCallReturnLabel_67
          CFI (cfiCond61) R6 load(1, XDATA, add(CFA_XSP16, literal(-24)))
          CFI (cfiCond61) VB load(1, XDATA, add(CFA_XSP16, literal(-23)))
          CFI (cfiCond61) V0 load(1, XDATA, add(CFA_XSP16, literal(-22)))
          CFI (cfiCond61) V1 load(1, XDATA, add(CFA_XSP16, literal(-21)))
          CFI (cfiCond61) V2 load(1, XDATA, add(CFA_XSP16, literal(-20)))
          CFI (cfiCond61) V3 load(1, XDATA, add(CFA_XSP16, literal(-19)))
          CFI (cfiCond61) V4 load(1, XDATA, add(CFA_XSP16, literal(-18)))
          CFI (cfiCond61) V5 load(1, XDATA, add(CFA_XSP16, literal(-17)))
          CFI (cfiCond61) V6 load(1, XDATA, add(CFA_XSP16, literal(-16)))
          CFI (cfiCond61) V7 load(1, XDATA, add(CFA_XSP16, literal(-15)))
          CFI (cfiCond61) V8 load(1, XDATA, add(CFA_XSP16, literal(-14)))
          CFI (cfiCond61) V9 load(1, XDATA, add(CFA_XSP16, literal(-13)))
          CFI (cfiCond61) V10 load(1, XDATA, add(CFA_XSP16, literal(-12)))
          CFI (cfiCond61) V11 load(1, XDATA, add(CFA_XSP16, literal(-11)))
          CFI (cfiCond61) V12 load(1, XDATA, add(CFA_XSP16, literal(-10)))
          CFI (cfiCond61) V13 load(1, XDATA, add(CFA_XSP16, literal(-9)))
          CFI (cfiCond61) V14 load(1, XDATA, add(CFA_XSP16, literal(-8)))
          CFI (cfiCond61) V15 load(1, XDATA, add(CFA_XSP16, literal(-7)))
          CFI (cfiCond61) R7 load(1, XDATA, add(CFA_XSP16, literal(-6)))
          CFI (cfiCond61) ?RET_LOW load(1, XDATA, add(CFA_XSP16, literal(-5)))
          CFI (cfiCond61) ?RET_HIGH load(1, XDATA, add(CFA_XSP16, literal(-4)))
          CFI (cfiCond61) ?BRET_EXT load(1, XDATA, add(CFA_XSP16, literal(-3)))
          CFI (cfiCond61) DPL0 load(1, XDATA, add(CFA_XSP16, literal(-2)))
          CFI (cfiCond61) DPH0 load(1, XDATA, add(CFA_XSP16, literal(-1)))
          CFI (cfiCond61) CFA_SP SP+0
          CFI (cfiCond61) CFA_XSP16 add(XSP16, 68)
          CFI Block cfiCond62 Using cfiCommon0
          CFI (cfiCond62) Function SampleApp_WCL_localization
          CFI (cfiCond62) Conditional ??CrossCallReturnLabel_68
          CFI (cfiCond62) R6 load(1, XDATA, add(CFA_XSP16, literal(-24)))
          CFI (cfiCond62) VB load(1, XDATA, add(CFA_XSP16, literal(-23)))
          CFI (cfiCond62) V0 load(1, XDATA, add(CFA_XSP16, literal(-22)))
          CFI (cfiCond62) V1 load(1, XDATA, add(CFA_XSP16, literal(-21)))
          CFI (cfiCond62) V2 load(1, XDATA, add(CFA_XSP16, literal(-20)))
          CFI (cfiCond62) V3 load(1, XDATA, add(CFA_XSP16, literal(-19)))
          CFI (cfiCond62) V4 load(1, XDATA, add(CFA_XSP16, literal(-18)))
          CFI (cfiCond62) V5 load(1, XDATA, add(CFA_XSP16, literal(-17)))
          CFI (cfiCond62) V6 load(1, XDATA, add(CFA_XSP16, literal(-16)))
          CFI (cfiCond62) V7 load(1, XDATA, add(CFA_XSP16, literal(-15)))
          CFI (cfiCond62) V8 load(1, XDATA, add(CFA_XSP16, literal(-14)))
          CFI (cfiCond62) V9 load(1, XDATA, add(CFA_XSP16, literal(-13)))
          CFI (cfiCond62) V10 load(1, XDATA, add(CFA_XSP16, literal(-12)))
          CFI (cfiCond62) V11 load(1, XDATA, add(CFA_XSP16, literal(-11)))
          CFI (cfiCond62) V12 load(1, XDATA, add(CFA_XSP16, literal(-10)))
          CFI (cfiCond62) V13 load(1, XDATA, add(CFA_XSP16, literal(-9)))
          CFI (cfiCond62) V14 load(1, XDATA, add(CFA_XSP16, literal(-8)))
          CFI (cfiCond62) V15 load(1, XDATA, add(CFA_XSP16, literal(-7)))
          CFI (cfiCond62) R7 load(1, XDATA, add(CFA_XSP16, literal(-6)))
          CFI (cfiCond62) ?RET_LOW load(1, XDATA, add(CFA_XSP16, literal(-5)))
          CFI (cfiCond62) ?RET_HIGH load(1, XDATA, add(CFA_XSP16, literal(-4)))
          CFI (cfiCond62) ?BRET_EXT load(1, XDATA, add(CFA_XSP16, literal(-3)))
          CFI (cfiCond62) DPL0 load(1, XDATA, add(CFA_XSP16, literal(-2)))
          CFI (cfiCond62) DPH0 load(1, XDATA, add(CFA_XSP16, literal(-1)))
          CFI (cfiCond62) CFA_SP SP+0
          CFI (cfiCond62) CFA_XSP16 add(XSP16, 68)
          CFI Block cfiCond63 Using cfiCommon0
          CFI (cfiCond63) Function SampleApp_WCL_localization
          CFI (cfiCond63) Conditional ??CrossCallReturnLabel_69
          CFI (cfiCond63) R6 load(1, XDATA, add(CFA_XSP16, literal(-24)))
          CFI (cfiCond63) VB load(1, XDATA, add(CFA_XSP16, literal(-23)))
          CFI (cfiCond63) V0 load(1, XDATA, add(CFA_XSP16, literal(-22)))
          CFI (cfiCond63) V1 load(1, XDATA, add(CFA_XSP16, literal(-21)))
          CFI (cfiCond63) V2 load(1, XDATA, add(CFA_XSP16, literal(-20)))
          CFI (cfiCond63) V3 load(1, XDATA, add(CFA_XSP16, literal(-19)))
          CFI (cfiCond63) V4 load(1, XDATA, add(CFA_XSP16, literal(-18)))
          CFI (cfiCond63) V5 load(1, XDATA, add(CFA_XSP16, literal(-17)))
          CFI (cfiCond63) V6 load(1, XDATA, add(CFA_XSP16, literal(-16)))
          CFI (cfiCond63) V7 load(1, XDATA, add(CFA_XSP16, literal(-15)))
          CFI (cfiCond63) V8 load(1, XDATA, add(CFA_XSP16, literal(-14)))
          CFI (cfiCond63) V9 load(1, XDATA, add(CFA_XSP16, literal(-13)))
          CFI (cfiCond63) V10 load(1, XDATA, add(CFA_XSP16, literal(-12)))
          CFI (cfiCond63) V11 load(1, XDATA, add(CFA_XSP16, literal(-11)))
          CFI (cfiCond63) V12 load(1, XDATA, add(CFA_XSP16, literal(-10)))
          CFI (cfiCond63) V13 load(1, XDATA, add(CFA_XSP16, literal(-9)))
          CFI (cfiCond63) V14 load(1, XDATA, add(CFA_XSP16, literal(-8)))
          CFI (cfiCond63) V15 load(1, XDATA, add(CFA_XSP16, literal(-7)))
          CFI (cfiCond63) R7 load(1, XDATA, add(CFA_XSP16, literal(-6)))
          CFI (cfiCond63) ?RET_LOW load(1, XDATA, add(CFA_XSP16, literal(-5)))
          CFI (cfiCond63) ?RET_HIGH load(1, XDATA, add(CFA_XSP16, literal(-4)))
          CFI (cfiCond63) ?BRET_EXT load(1, XDATA, add(CFA_XSP16, literal(-3)))
          CFI (cfiCond63) DPL0 load(1, XDATA, add(CFA_XSP16, literal(-2)))
          CFI (cfiCond63) DPH0 load(1, XDATA, add(CFA_XSP16, literal(-1)))
          CFI (cfiCond63) CFA_SP SP+0
          CFI (cfiCond63) CFA_XSP16 add(XSP16, 68)
          CFI Block cfiCond64 Using cfiCommon0
          CFI (cfiCond64) Function SampleApp_WCL_localization
          CFI (cfiCond64) Conditional ??CrossCallReturnLabel_70
          CFI (cfiCond64) R6 load(1, XDATA, add(CFA_XSP16, literal(-24)))
          CFI (cfiCond64) VB load(1, XDATA, add(CFA_XSP16, literal(-23)))
          CFI (cfiCond64) V0 load(1, XDATA, add(CFA_XSP16, literal(-22)))
          CFI (cfiCond64) V1 load(1, XDATA, add(CFA_XSP16, literal(-21)))
          CFI (cfiCond64) V2 load(1, XDATA, add(CFA_XSP16, literal(-20)))
          CFI (cfiCond64) V3 load(1, XDATA, add(CFA_XSP16, literal(-19)))
          CFI (cfiCond64) V4 load(1, XDATA, add(CFA_XSP16, literal(-18)))
          CFI (cfiCond64) V5 load(1, XDATA, add(CFA_XSP16, literal(-17)))
          CFI (cfiCond64) V6 load(1, XDATA, add(CFA_XSP16, literal(-16)))
          CFI (cfiCond64) V7 load(1, XDATA, add(CFA_XSP16, literal(-15)))
          CFI (cfiCond64) V8 load(1, XDATA, add(CFA_XSP16, literal(-14)))
          CFI (cfiCond64) V9 load(1, XDATA, add(CFA_XSP16, literal(-13)))
          CFI (cfiCond64) V10 load(1, XDATA, add(CFA_XSP16, literal(-12)))
          CFI (cfiCond64) V11 load(1, XDATA, add(CFA_XSP16, literal(-11)))
          CFI (cfiCond64) V12 load(1, XDATA, add(CFA_XSP16, literal(-10)))
          CFI (cfiCond64) V13 load(1, XDATA, add(CFA_XSP16, literal(-9)))
          CFI (cfiCond64) V14 load(1, XDATA, add(CFA_XSP16, literal(-8)))
          CFI (cfiCond64) V15 load(1, XDATA, add(CFA_XSP16, literal(-7)))
          CFI (cfiCond64) R7 load(1, XDATA, add(CFA_XSP16, literal(-6)))
          CFI (cfiCond64) ?RET_LOW load(1, XDATA, add(CFA_XSP16, literal(-5)))
          CFI (cfiCond64) ?RET_HIGH load(1, XDATA, add(CFA_XSP16, literal(-4)))
          CFI (cfiCond64) ?BRET_EXT load(1, XDATA, add(CFA_XSP16, literal(-3)))
          CFI (cfiCond64) DPL0 load(1, XDATA, add(CFA_XSP16, literal(-2)))
          CFI (cfiCond64) DPH0 load(1, XDATA, add(CFA_XSP16, literal(-1)))
          CFI (cfiCond64) CFA_SP SP+0
          CFI (cfiCond64) CFA_XSP16 add(XSP16, 68)
          CFI Block cfiPicker65 Using cfiCommon1
          CFI (cfiPicker65) NoFunction
          CFI (cfiPicker65) Picker
        MOV     A,R0
        MOVX    @DPTR,A
        INC     DPTR
        MOV     A,R1
        MOVX    @DPTR,A
        RET
          CFI EndBlock cfiCond54
          CFI EndBlock cfiCond55
          CFI EndBlock cfiCond56
          CFI EndBlock cfiCond57
          CFI EndBlock cfiCond58
          CFI EndBlock cfiCond59
          CFI EndBlock cfiCond60
          CFI EndBlock cfiCond61
          CFI EndBlock cfiCond62
          CFI EndBlock cfiCond63
          CFI EndBlock cfiCond64
          CFI EndBlock cfiPicker65

        RSEG BANKED_CODE:CODE:NOROOT(0)
?Subroutine18:
          CFI Block cfiCond66 Using cfiCommon0
          CFI Function SampleApp_WCL_localization
          CFI Conditional ??CrossCallReturnLabel_53
          CFI R6 load(1, XDATA, add(CFA_XSP16, literal(-24)))
          CFI VB load(1, XDATA, add(CFA_XSP16, literal(-23)))
          CFI V0 load(1, XDATA, add(CFA_XSP16, literal(-22)))
          CFI V1 load(1, XDATA, add(CFA_XSP16, literal(-21)))
          CFI V2 load(1, XDATA, add(CFA_XSP16, literal(-20)))
          CFI V3 load(1, XDATA, add(CFA_XSP16, literal(-19)))
          CFI V4 load(1, XDATA, add(CFA_XSP16, literal(-18)))
          CFI V5 load(1, XDATA, add(CFA_XSP16, literal(-17)))
          CFI V6 load(1, XDATA, add(CFA_XSP16, literal(-16)))
          CFI V7 load(1, XDATA, add(CFA_XSP16, literal(-15)))
          CFI V8 load(1, XDATA, add(CFA_XSP16, literal(-14)))
          CFI V9 load(1, XDATA, add(CFA_XSP16, literal(-13)))
          CFI V10 load(1, XDATA, add(CFA_XSP16, literal(-12)))
          CFI V11 load(1, XDATA, add(CFA_XSP16, literal(-11)))
          CFI V12 load(1, XDATA, add(CFA_XSP16, literal(-10)))
          CFI V13 load(1, XDATA, add(CFA_XSP16, literal(-9)))
          CFI V14 load(1, XDATA, add(CFA_XSP16, literal(-8)))
          CFI V15 load(1, XDATA, add(CFA_XSP16, literal(-7)))
          CFI R7 load(1, XDATA, add(CFA_XSP16, literal(-6)))
          CFI ?RET_LOW load(1, XDATA, add(CFA_XSP16, literal(-5)))
          CFI ?RET_HIGH load(1, XDATA, add(CFA_XSP16, literal(-4)))
          CFI ?BRET_EXT load(1, XDATA, add(CFA_XSP16, literal(-3)))
          CFI DPL0 load(1, XDATA, add(CFA_XSP16, literal(-2)))
          CFI DPH0 load(1, XDATA, add(CFA_XSP16, literal(-1)))
          CFI CFA_SP SP+0
          CFI CFA_XSP16 add(XSP16, 68)
          CFI Block cfiCond67 Using cfiCommon0
          CFI (cfiCond67) Function SampleApp_WCL_localization
          CFI (cfiCond67) Conditional ??CrossCallReturnLabel_52
          CFI (cfiCond67) R6 load(1, XDATA, add(CFA_XSP16, literal(-24)))
          CFI (cfiCond67) VB load(1, XDATA, add(CFA_XSP16, literal(-23)))
          CFI (cfiCond67) V0 load(1, XDATA, add(CFA_XSP16, literal(-22)))
          CFI (cfiCond67) V1 load(1, XDATA, add(CFA_XSP16, literal(-21)))
          CFI (cfiCond67) V2 load(1, XDATA, add(CFA_XSP16, literal(-20)))
          CFI (cfiCond67) V3 load(1, XDATA, add(CFA_XSP16, literal(-19)))
          CFI (cfiCond67) V4 load(1, XDATA, add(CFA_XSP16, literal(-18)))
          CFI (cfiCond67) V5 load(1, XDATA, add(CFA_XSP16, literal(-17)))
          CFI (cfiCond67) V6 load(1, XDATA, add(CFA_XSP16, literal(-16)))
          CFI (cfiCond67) V7 load(1, XDATA, add(CFA_XSP16, literal(-15)))
          CFI (cfiCond67) V8 load(1, XDATA, add(CFA_XSP16, literal(-14)))
          CFI (cfiCond67) V9 load(1, XDATA, add(CFA_XSP16, literal(-13)))
          CFI (cfiCond67) V10 load(1, XDATA, add(CFA_XSP16, literal(-12)))
          CFI (cfiCond67) V11 load(1, XDATA, add(CFA_XSP16, literal(-11)))
          CFI (cfiCond67) V12 load(1, XDATA, add(CFA_XSP16, literal(-10)))
          CFI (cfiCond67) V13 load(1, XDATA, add(CFA_XSP16, literal(-9)))
          CFI (cfiCond67) V14 load(1, XDATA, add(CFA_XSP16, literal(-8)))
          CFI (cfiCond67) V15 load(1, XDATA, add(CFA_XSP16, literal(-7)))
          CFI (cfiCond67) R7 load(1, XDATA, add(CFA_XSP16, literal(-6)))
          CFI (cfiCond67) ?RET_LOW load(1, XDATA, add(CFA_XSP16, literal(-5)))
          CFI (cfiCond67) ?RET_HIGH load(1, XDATA, add(CFA_XSP16, literal(-4)))
          CFI (cfiCond67) ?BRET_EXT load(1, XDATA, add(CFA_XSP16, literal(-3)))
          CFI (cfiCond67) DPL0 load(1, XDATA, add(CFA_XSP16, literal(-2)))
          CFI (cfiCond67) DPH0 load(1, XDATA, add(CFA_XSP16, literal(-1)))
          CFI (cfiCond67) CFA_SP SP+0
          CFI (cfiCond67) CFA_XSP16 add(XSP16, 68)
          CFI Block cfiPicker68 Using cfiCommon1
          CFI (cfiPicker68) NoFunction
          CFI (cfiPicker68) Picker
        LCALL   ?Subroutine37 & 0xFFFF
??CrossCallReturnLabel_105:
        MOV     DPL,R2
        MOV     DPH,R3
        MOV     R0,#?V0 + 8
        RET
          CFI EndBlock cfiCond66
          CFI EndBlock cfiCond67
          CFI EndBlock cfiPicker68

        RSEG BANKED_CODE:CODE:NOROOT(0)
?Subroutine17:
          CFI Block cfiCond69 Using cfiCommon0
          CFI Function SampleApp_WCL_localization
          CFI Conditional ??CrossCallReturnLabel_50
          CFI R6 load(1, XDATA, add(CFA_XSP16, literal(-24)))
          CFI VB load(1, XDATA, add(CFA_XSP16, literal(-23)))
          CFI V0 load(1, XDATA, add(CFA_XSP16, literal(-22)))
          CFI V1 load(1, XDATA, add(CFA_XSP16, literal(-21)))
          CFI V2 load(1, XDATA, add(CFA_XSP16, literal(-20)))
          CFI V3 load(1, XDATA, add(CFA_XSP16, literal(-19)))
          CFI V4 load(1, XDATA, add(CFA_XSP16, literal(-18)))
          CFI V5 load(1, XDATA, add(CFA_XSP16, literal(-17)))
          CFI V6 load(1, XDATA, add(CFA_XSP16, literal(-16)))
          CFI V7 load(1, XDATA, add(CFA_XSP16, literal(-15)))
          CFI V8 load(1, XDATA, add(CFA_XSP16, literal(-14)))
          CFI V9 load(1, XDATA, add(CFA_XSP16, literal(-13)))
          CFI V10 load(1, XDATA, add(CFA_XSP16, literal(-12)))
          CFI V11 load(1, XDATA, add(CFA_XSP16, literal(-11)))
          CFI V12 load(1, XDATA, add(CFA_XSP16, literal(-10)))
          CFI V13 load(1, XDATA, add(CFA_XSP16, literal(-9)))
          CFI V14 load(1, XDATA, add(CFA_XSP16, literal(-8)))
          CFI V15 load(1, XDATA, add(CFA_XSP16, literal(-7)))
          CFI R7 load(1, XDATA, add(CFA_XSP16, literal(-6)))
          CFI ?RET_LOW load(1, XDATA, add(CFA_XSP16, literal(-5)))
          CFI ?RET_HIGH load(1, XDATA, add(CFA_XSP16, literal(-4)))
          CFI ?BRET_EXT load(1, XDATA, add(CFA_XSP16, literal(-3)))
          CFI DPL0 load(1, XDATA, add(CFA_XSP16, literal(-2)))
          CFI DPH0 load(1, XDATA, add(CFA_XSP16, literal(-1)))
          CFI CFA_SP SP+0
          CFI CFA_XSP16 add(XSP16, 68)
          CFI Block cfiCond70 Using cfiCommon0
          CFI (cfiCond70) Function SampleApp_WCL_localization
          CFI (cfiCond70) Conditional ??CrossCallReturnLabel_51
          CFI (cfiCond70) R6 load(1, XDATA, add(CFA_XSP16, literal(-24)))
          CFI (cfiCond70) VB load(1, XDATA, add(CFA_XSP16, literal(-23)))
          CFI (cfiCond70) V0 load(1, XDATA, add(CFA_XSP16, literal(-22)))
          CFI (cfiCond70) V1 load(1, XDATA, add(CFA_XSP16, literal(-21)))
          CFI (cfiCond70) V2 load(1, XDATA, add(CFA_XSP16, literal(-20)))
          CFI (cfiCond70) V3 load(1, XDATA, add(CFA_XSP16, literal(-19)))
          CFI (cfiCond70) V4 load(1, XDATA, add(CFA_XSP16, literal(-18)))
          CFI (cfiCond70) V5 load(1, XDATA, add(CFA_XSP16, literal(-17)))
          CFI (cfiCond70) V6 load(1, XDATA, add(CFA_XSP16, literal(-16)))
          CFI (cfiCond70) V7 load(1, XDATA, add(CFA_XSP16, literal(-15)))
          CFI (cfiCond70) V8 load(1, XDATA, add(CFA_XSP16, literal(-14)))
          CFI (cfiCond70) V9 load(1, XDATA, add(CFA_XSP16, literal(-13)))
          CFI (cfiCond70) V10 load(1, XDATA, add(CFA_XSP16, literal(-12)))
          CFI (cfiCond70) V11 load(1, XDATA, add(CFA_XSP16, literal(-11)))
          CFI (cfiCond70) V12 load(1, XDATA, add(CFA_XSP16, literal(-10)))
          CFI (cfiCond70) V13 load(1, XDATA, add(CFA_XSP16, literal(-9)))
          CFI (cfiCond70) V14 load(1, XDATA, add(CFA_XSP16, literal(-8)))
          CFI (cfiCond70) V15 load(1, XDATA, add(CFA_XSP16, literal(-7)))
          CFI (cfiCond70) R7 load(1, XDATA, add(CFA_XSP16, literal(-6)))
          CFI (cfiCond70) ?RET_LOW load(1, XDATA, add(CFA_XSP16, literal(-5)))
          CFI (cfiCond70) ?RET_HIGH load(1, XDATA, add(CFA_XSP16, literal(-4)))
          CFI (cfiCond70) ?BRET_EXT load(1, XDATA, add(CFA_XSP16, literal(-3)))
          CFI (cfiCond70) DPL0 load(1, XDATA, add(CFA_XSP16, literal(-2)))
          CFI (cfiCond70) DPH0 load(1, XDATA, add(CFA_XSP16, literal(-1)))
          CFI (cfiCond70) CFA_SP SP+0
          CFI (cfiCond70) CFA_XSP16 add(XSP16, 68)
          CFI Block cfiPicker71 Using cfiCommon1
          CFI (cfiPicker71) NoFunction
          CFI (cfiPicker71) Picker
        LCALL   ?Subroutine38 & 0xFFFF
??CrossCallReturnLabel_107:
        RET
          CFI EndBlock cfiCond69
          CFI EndBlock cfiCond70
          CFI EndBlock cfiPicker71

        RSEG BANKED_CODE:CODE:NOROOT(0)
?Subroutine38:
          CFI Block cfiCond72 Using cfiCommon0
          CFI Function SampleApp_WCL_localization
          CFI Conditional ??CrossCallReturnLabel_107, ??CrossCallReturnLabel_50
          CFI R6 load(1, XDATA, add(CFA_XSP16, literal(-24)))
          CFI VB load(1, XDATA, add(CFA_XSP16, literal(-23)))
          CFI V0 load(1, XDATA, add(CFA_XSP16, literal(-22)))
          CFI V1 load(1, XDATA, add(CFA_XSP16, literal(-21)))
          CFI V2 load(1, XDATA, add(CFA_XSP16, literal(-20)))
          CFI V3 load(1, XDATA, add(CFA_XSP16, literal(-19)))
          CFI V4 load(1, XDATA, add(CFA_XSP16, literal(-18)))
          CFI V5 load(1, XDATA, add(CFA_XSP16, literal(-17)))
          CFI V6 load(1, XDATA, add(CFA_XSP16, literal(-16)))
          CFI V7 load(1, XDATA, add(CFA_XSP16, literal(-15)))
          CFI V8 load(1, XDATA, add(CFA_XSP16, literal(-14)))
          CFI V9 load(1, XDATA, add(CFA_XSP16, literal(-13)))
          CFI V10 load(1, XDATA, add(CFA_XSP16, literal(-12)))
          CFI V11 load(1, XDATA, add(CFA_XSP16, literal(-11)))
          CFI V12 load(1, XDATA, add(CFA_XSP16, literal(-10)))
          CFI V13 load(1, XDATA, add(CFA_XSP16, literal(-9)))
          CFI V14 load(1, XDATA, add(CFA_XSP16, literal(-8)))
          CFI V15 load(1, XDATA, add(CFA_XSP16, literal(-7)))
          CFI R7 load(1, XDATA, add(CFA_XSP16, literal(-6)))
          CFI ?RET_LOW load(1, XDATA, add(CFA_XSP16, literal(-5)))
          CFI ?RET_HIGH load(1, XDATA, add(CFA_XSP16, literal(-4)))
          CFI ?BRET_EXT load(1, XDATA, add(CFA_XSP16, literal(-3)))
          CFI DPL0 load(1, XDATA, add(CFA_XSP16, literal(-2)))
          CFI DPH0 load(1, XDATA, add(CFA_XSP16, literal(-1)))
          CFI CFA_SP SP+0
          CFI CFA_XSP16 add(XSP16, 68)
          CFI Block cfiCond73 Using cfiCommon0
          CFI (cfiCond73) Function SampleApp_WCL_localization
          CFI (cfiCond73) Conditional ??CrossCallReturnLabel_107, ??CrossCallReturnLabel_51
          CFI (cfiCond73) R6 load(1, XDATA, add(CFA_XSP16, literal(-24)))
          CFI (cfiCond73) VB load(1, XDATA, add(CFA_XSP16, literal(-23)))
          CFI (cfiCond73) V0 load(1, XDATA, add(CFA_XSP16, literal(-22)))
          CFI (cfiCond73) V1 load(1, XDATA, add(CFA_XSP16, literal(-21)))
          CFI (cfiCond73) V2 load(1, XDATA, add(CFA_XSP16, literal(-20)))
          CFI (cfiCond73) V3 load(1, XDATA, add(CFA_XSP16, literal(-19)))
          CFI (cfiCond73) V4 load(1, XDATA, add(CFA_XSP16, literal(-18)))
          CFI (cfiCond73) V5 load(1, XDATA, add(CFA_XSP16, literal(-17)))
          CFI (cfiCond73) V6 load(1, XDATA, add(CFA_XSP16, literal(-16)))
          CFI (cfiCond73) V7 load(1, XDATA, add(CFA_XSP16, literal(-15)))
          CFI (cfiCond73) V8 load(1, XDATA, add(CFA_XSP16, literal(-14)))
          CFI (cfiCond73) V9 load(1, XDATA, add(CFA_XSP16, literal(-13)))
          CFI (cfiCond73) V10 load(1, XDATA, add(CFA_XSP16, literal(-12)))
          CFI (cfiCond73) V11 load(1, XDATA, add(CFA_XSP16, literal(-11)))
          CFI (cfiCond73) V12 load(1, XDATA, add(CFA_XSP16, literal(-10)))
          CFI (cfiCond73) V13 load(1, XDATA, add(CFA_XSP16, literal(-9)))
          CFI (cfiCond73) V14 load(1, XDATA, add(CFA_XSP16, literal(-8)))
          CFI (cfiCond73) V15 load(1, XDATA, add(CFA_XSP16, literal(-7)))
          CFI (cfiCond73) R7 load(1, XDATA, add(CFA_XSP16, literal(-6)))
          CFI (cfiCond73) ?RET_LOW load(1, XDATA, add(CFA_XSP16, literal(-5)))
          CFI (cfiCond73) ?RET_HIGH load(1, XDATA, add(CFA_XSP16, literal(-4)))
          CFI (cfiCond73) ?BRET_EXT load(1, XDATA, add(CFA_XSP16, literal(-3)))
          CFI (cfiCond73) DPL0 load(1, XDATA, add(CFA_XSP16, literal(-2)))
          CFI (cfiCond73) DPH0 load(1, XDATA, add(CFA_XSP16, literal(-1)))
          CFI (cfiCond73) CFA_SP SP+0
          CFI (cfiCond73) CFA_XSP16 add(XSP16, 68)
          CFI Block cfiCond74 Using cfiCommon0
          CFI (cfiCond74) Function SampleApp_WCL_localization
          CFI (cfiCond74) Conditional ??CrossCallReturnLabel_106, ??CrossCallReturnLabel_46
          CFI (cfiCond74) R6 load(1, XDATA, add(CFA_XSP16, literal(-24)))
          CFI (cfiCond74) VB load(1, XDATA, add(CFA_XSP16, literal(-23)))
          CFI (cfiCond74) V0 load(1, XDATA, add(CFA_XSP16, literal(-22)))
          CFI (cfiCond74) V1 load(1, XDATA, add(CFA_XSP16, literal(-21)))
          CFI (cfiCond74) V2 load(1, XDATA, add(CFA_XSP16, literal(-20)))
          CFI (cfiCond74) V3 load(1, XDATA, add(CFA_XSP16, literal(-19)))
          CFI (cfiCond74) V4 load(1, XDATA, add(CFA_XSP16, literal(-18)))
          CFI (cfiCond74) V5 load(1, XDATA, add(CFA_XSP16, literal(-17)))
          CFI (cfiCond74) V6 load(1, XDATA, add(CFA_XSP16, literal(-16)))
          CFI (cfiCond74) V7 load(1, XDATA, add(CFA_XSP16, literal(-15)))
          CFI (cfiCond74) V8 load(1, XDATA, add(CFA_XSP16, literal(-14)))
          CFI (cfiCond74) V9 load(1, XDATA, add(CFA_XSP16, literal(-13)))
          CFI (cfiCond74) V10 load(1, XDATA, add(CFA_XSP16, literal(-12)))
          CFI (cfiCond74) V11 load(1, XDATA, add(CFA_XSP16, literal(-11)))
          CFI (cfiCond74) V12 load(1, XDATA, add(CFA_XSP16, literal(-10)))
          CFI (cfiCond74) V13 load(1, XDATA, add(CFA_XSP16, literal(-9)))
          CFI (cfiCond74) V14 load(1, XDATA, add(CFA_XSP16, literal(-8)))
          CFI (cfiCond74) V15 load(1, XDATA, add(CFA_XSP16, literal(-7)))
          CFI (cfiCond74) R7 load(1, XDATA, add(CFA_XSP16, literal(-6)))
          CFI (cfiCond74) ?RET_LOW load(1, XDATA, add(CFA_XSP16, literal(-5)))
          CFI (cfiCond74) ?RET_HIGH load(1, XDATA, add(CFA_XSP16, literal(-4)))
          CFI (cfiCond74) ?BRET_EXT load(1, XDATA, add(CFA_XSP16, literal(-3)))
          CFI (cfiCond74) DPL0 load(1, XDATA, add(CFA_XSP16, literal(-2)))
          CFI (cfiCond74) DPH0 load(1, XDATA, add(CFA_XSP16, literal(-1)))
          CFI (cfiCond74) CFA_SP SP+0
          CFI (cfiCond74) CFA_XSP16 add(XSP16, 68)
          CFI Block cfiCond75 Using cfiCommon0
          CFI (cfiCond75) Function SampleApp_WCL_localization
          CFI (cfiCond75) Conditional ??CrossCallReturnLabel_106, ??CrossCallReturnLabel_47
          CFI (cfiCond75) R6 load(1, XDATA, add(CFA_XSP16, literal(-24)))
          CFI (cfiCond75) VB load(1, XDATA, add(CFA_XSP16, literal(-23)))
          CFI (cfiCond75) V0 load(1, XDATA, add(CFA_XSP16, literal(-22)))
          CFI (cfiCond75) V1 load(1, XDATA, add(CFA_XSP16, literal(-21)))
          CFI (cfiCond75) V2 load(1, XDATA, add(CFA_XSP16, literal(-20)))
          CFI (cfiCond75) V3 load(1, XDATA, add(CFA_XSP16, literal(-19)))
          CFI (cfiCond75) V4 load(1, XDATA, add(CFA_XSP16, literal(-18)))
          CFI (cfiCond75) V5 load(1, XDATA, add(CFA_XSP16, literal(-17)))
          CFI (cfiCond75) V6 load(1, XDATA, add(CFA_XSP16, literal(-16)))
          CFI (cfiCond75) V7 load(1, XDATA, add(CFA_XSP16, literal(-15)))
          CFI (cfiCond75) V8 load(1, XDATA, add(CFA_XSP16, literal(-14)))
          CFI (cfiCond75) V9 load(1, XDATA, add(CFA_XSP16, literal(-13)))
          CFI (cfiCond75) V10 load(1, XDATA, add(CFA_XSP16, literal(-12)))
          CFI (cfiCond75) V11 load(1, XDATA, add(CFA_XSP16, literal(-11)))
          CFI (cfiCond75) V12 load(1, XDATA, add(CFA_XSP16, literal(-10)))
          CFI (cfiCond75) V13 load(1, XDATA, add(CFA_XSP16, literal(-9)))
          CFI (cfiCond75) V14 load(1, XDATA, add(CFA_XSP16, literal(-8)))
          CFI (cfiCond75) V15 load(1, XDATA, add(CFA_XSP16, literal(-7)))
          CFI (cfiCond75) R7 load(1, XDATA, add(CFA_XSP16, literal(-6)))
          CFI (cfiCond75) ?RET_LOW load(1, XDATA, add(CFA_XSP16, literal(-5)))
          CFI (cfiCond75) ?RET_HIGH load(1, XDATA, add(CFA_XSP16, literal(-4)))
          CFI (cfiCond75) ?BRET_EXT load(1, XDATA, add(CFA_XSP16, literal(-3)))
          CFI (cfiCond75) DPL0 load(1, XDATA, add(CFA_XSP16, literal(-2)))
          CFI (cfiCond75) DPH0 load(1, XDATA, add(CFA_XSP16, literal(-1)))
          CFI (cfiCond75) CFA_SP SP+0
          CFI (cfiCond75) CFA_XSP16 add(XSP16, 68)
          CFI Block cfiPicker76 Using cfiCommon1
          CFI (cfiPicker76) NoFunction
          CFI (cfiPicker76) Picker
        MOVX    A,@DPTR
        ADD     A,?V0 + 4
        MOV     R0,A
        INC     DPTR
        MOVX    A,@DPTR
        ADDC    A,?V0 + 5
        MOV     DPL,R0
        MOV     DPH,A
        RET
          CFI EndBlock cfiCond72
          CFI EndBlock cfiCond73
          CFI EndBlock cfiCond74
          CFI EndBlock cfiCond75
          CFI EndBlock cfiPicker76

        RSEG BANKED_CODE:CODE:NOROOT(0)
?Subroutine15:
          CFI Block cfiCond77 Using cfiCommon0
          CFI Function SampleApp_WCL_localization
          CFI Conditional ??CrossCallReturnLabel_46
          CFI R6 load(1, XDATA, add(CFA_XSP16, literal(-24)))
          CFI VB load(1, XDATA, add(CFA_XSP16, literal(-23)))
          CFI V0 load(1, XDATA, add(CFA_XSP16, literal(-22)))
          CFI V1 load(1, XDATA, add(CFA_XSP16, literal(-21)))
          CFI V2 load(1, XDATA, add(CFA_XSP16, literal(-20)))
          CFI V3 load(1, XDATA, add(CFA_XSP16, literal(-19)))
          CFI V4 load(1, XDATA, add(CFA_XSP16, literal(-18)))
          CFI V5 load(1, XDATA, add(CFA_XSP16, literal(-17)))
          CFI V6 load(1, XDATA, add(CFA_XSP16, literal(-16)))
          CFI V7 load(1, XDATA, add(CFA_XSP16, literal(-15)))
          CFI V8 load(1, XDATA, add(CFA_XSP16, literal(-14)))
          CFI V9 load(1, XDATA, add(CFA_XSP16, literal(-13)))
          CFI V10 load(1, XDATA, add(CFA_XSP16, literal(-12)))
          CFI V11 load(1, XDATA, add(CFA_XSP16, literal(-11)))
          CFI V12 load(1, XDATA, add(CFA_XSP16, literal(-10)))
          CFI V13 load(1, XDATA, add(CFA_XSP16, literal(-9)))
          CFI V14 load(1, XDATA, add(CFA_XSP16, literal(-8)))
          CFI V15 load(1, XDATA, add(CFA_XSP16, literal(-7)))
          CFI R7 load(1, XDATA, add(CFA_XSP16, literal(-6)))
          CFI ?RET_LOW load(1, XDATA, add(CFA_XSP16, literal(-5)))
          CFI ?RET_HIGH load(1, XDATA, add(CFA_XSP16, literal(-4)))
          CFI ?BRET_EXT load(1, XDATA, add(CFA_XSP16, literal(-3)))
          CFI DPL0 load(1, XDATA, add(CFA_XSP16, literal(-2)))
          CFI DPH0 load(1, XDATA, add(CFA_XSP16, literal(-1)))
          CFI CFA_SP SP+0
          CFI CFA_XSP16 add(XSP16, 68)
          CFI Block cfiCond78 Using cfiCommon0
          CFI (cfiCond78) Function SampleApp_WCL_localization
          CFI (cfiCond78) Conditional ??CrossCallReturnLabel_47
          CFI (cfiCond78) R6 load(1, XDATA, add(CFA_XSP16, literal(-24)))
          CFI (cfiCond78) VB load(1, XDATA, add(CFA_XSP16, literal(-23)))
          CFI (cfiCond78) V0 load(1, XDATA, add(CFA_XSP16, literal(-22)))
          CFI (cfiCond78) V1 load(1, XDATA, add(CFA_XSP16, literal(-21)))
          CFI (cfiCond78) V2 load(1, XDATA, add(CFA_XSP16, literal(-20)))
          CFI (cfiCond78) V3 load(1, XDATA, add(CFA_XSP16, literal(-19)))
          CFI (cfiCond78) V4 load(1, XDATA, add(CFA_XSP16, literal(-18)))
          CFI (cfiCond78) V5 load(1, XDATA, add(CFA_XSP16, literal(-17)))
          CFI (cfiCond78) V6 load(1, XDATA, add(CFA_XSP16, literal(-16)))
          CFI (cfiCond78) V7 load(1, XDATA, add(CFA_XSP16, literal(-15)))
          CFI (cfiCond78) V8 load(1, XDATA, add(CFA_XSP16, literal(-14)))
          CFI (cfiCond78) V9 load(1, XDATA, add(CFA_XSP16, literal(-13)))
          CFI (cfiCond78) V10 load(1, XDATA, add(CFA_XSP16, literal(-12)))
          CFI (cfiCond78) V11 load(1, XDATA, add(CFA_XSP16, literal(-11)))
          CFI (cfiCond78) V12 load(1, XDATA, add(CFA_XSP16, literal(-10)))
          CFI (cfiCond78) V13 load(1, XDATA, add(CFA_XSP16, literal(-9)))
          CFI (cfiCond78) V14 load(1, XDATA, add(CFA_XSP16, literal(-8)))
          CFI (cfiCond78) V15 load(1, XDATA, add(CFA_XSP16, literal(-7)))
          CFI (cfiCond78) R7 load(1, XDATA, add(CFA_XSP16, literal(-6)))
          CFI (cfiCond78) ?RET_LOW load(1, XDATA, add(CFA_XSP16, literal(-5)))
          CFI (cfiCond78) ?RET_HIGH load(1, XDATA, add(CFA_XSP16, literal(-4)))
          CFI (cfiCond78) ?BRET_EXT load(1, XDATA, add(CFA_XSP16, literal(-3)))
          CFI (cfiCond78) DPL0 load(1, XDATA, add(CFA_XSP16, literal(-2)))
          CFI (cfiCond78) DPH0 load(1, XDATA, add(CFA_XSP16, literal(-1)))
          CFI (cfiCond78) CFA_SP SP+0
          CFI (cfiCond78) CFA_XSP16 add(XSP16, 68)
          CFI Block cfiPicker79 Using cfiCommon1
          CFI (cfiPicker79) NoFunction
          CFI (cfiPicker79) Picker
        LCALL   ?Subroutine38 & 0xFFFF
??CrossCallReturnLabel_106:
        MOV     R0,#?V0 + 4
        RET
          CFI EndBlock cfiCond77
          CFI EndBlock cfiCond78
          CFI EndBlock cfiPicker79

        RSEG BANKED_CODE:CODE:NOROOT(0)
?Subroutine2:
          CFI Block cfiCond80 Using cfiCommon0
          CFI Function SampleApp_MinMax_localization
          CFI Conditional ??CrossCallReturnLabel_0
          CFI R6 load(1, XDATA, add(CFA_XSP16, literal(-24)))
          CFI VB load(1, XDATA, add(CFA_XSP16, literal(-23)))
          CFI V0 load(1, XDATA, add(CFA_XSP16, literal(-22)))
          CFI V1 load(1, XDATA, add(CFA_XSP16, literal(-21)))
          CFI V2 load(1, XDATA, add(CFA_XSP16, literal(-20)))
          CFI V3 load(1, XDATA, add(CFA_XSP16, literal(-19)))
          CFI V4 load(1, XDATA, add(CFA_XSP16, literal(-18)))
          CFI V5 load(1, XDATA, add(CFA_XSP16, literal(-17)))
          CFI V6 load(1, XDATA, add(CFA_XSP16, literal(-16)))
          CFI V7 load(1, XDATA, add(CFA_XSP16, literal(-15)))
          CFI V8 load(1, XDATA, add(CFA_XSP16, literal(-14)))
          CFI V9 load(1, XDATA, add(CFA_XSP16, literal(-13)))
          CFI V10 load(1, XDATA, add(CFA_XSP16, literal(-12)))
          CFI V11 load(1, XDATA, add(CFA_XSP16, literal(-11)))
          CFI V12 load(1, XDATA, add(CFA_XSP16, literal(-10)))
          CFI V13 load(1, XDATA, add(CFA_XSP16, literal(-9)))
          CFI V14 load(1, XDATA, add(CFA_XSP16, literal(-8)))
          CFI V15 load(1, XDATA, add(CFA_XSP16, literal(-7)))
          CFI R7 load(1, XDATA, add(CFA_XSP16, literal(-6)))
          CFI ?RET_LOW load(1, XDATA, add(CFA_XSP16, literal(-5)))
          CFI ?RET_HIGH load(1, XDATA, add(CFA_XSP16, literal(-4)))
          CFI ?BRET_EXT load(1, XDATA, add(CFA_XSP16, literal(-3)))
          CFI DPL0 load(1, XDATA, add(CFA_XSP16, literal(-2)))
          CFI DPH0 load(1, XDATA, add(CFA_XSP16, literal(-1)))
          CFI CFA_SP SP+0
          CFI CFA_XSP16 add(XSP16, 62)
          CFI Block cfiCond81 Using cfiCommon0
          CFI (cfiCond81) Function SampleApp_MinMax_localization
          CFI (cfiCond81) Conditional ??CrossCallReturnLabel_1
          CFI (cfiCond81) R6 load(1, XDATA, add(CFA_XSP16, literal(-24)))
          CFI (cfiCond81) VB load(1, XDATA, add(CFA_XSP16, literal(-23)))
          CFI (cfiCond81) V0 load(1, XDATA, add(CFA_XSP16, literal(-22)))
          CFI (cfiCond81) V1 load(1, XDATA, add(CFA_XSP16, literal(-21)))
          CFI (cfiCond81) V2 load(1, XDATA, add(CFA_XSP16, literal(-20)))
          CFI (cfiCond81) V3 load(1, XDATA, add(CFA_XSP16, literal(-19)))
          CFI (cfiCond81) V4 load(1, XDATA, add(CFA_XSP16, literal(-18)))
          CFI (cfiCond81) V5 load(1, XDATA, add(CFA_XSP16, literal(-17)))
          CFI (cfiCond81) V6 load(1, XDATA, add(CFA_XSP16, literal(-16)))
          CFI (cfiCond81) V7 load(1, XDATA, add(CFA_XSP16, literal(-15)))
          CFI (cfiCond81) V8 load(1, XDATA, add(CFA_XSP16, literal(-14)))
          CFI (cfiCond81) V9 load(1, XDATA, add(CFA_XSP16, literal(-13)))
          CFI (cfiCond81) V10 load(1, XDATA, add(CFA_XSP16, literal(-12)))
          CFI (cfiCond81) V11 load(1, XDATA, add(CFA_XSP16, literal(-11)))
          CFI (cfiCond81) V12 load(1, XDATA, add(CFA_XSP16, literal(-10)))
          CFI (cfiCond81) V13 load(1, XDATA, add(CFA_XSP16, literal(-9)))
          CFI (cfiCond81) V14 load(1, XDATA, add(CFA_XSP16, literal(-8)))
          CFI (cfiCond81) V15 load(1, XDATA, add(CFA_XSP16, literal(-7)))
          CFI (cfiCond81) R7 load(1, XDATA, add(CFA_XSP16, literal(-6)))
          CFI (cfiCond81) ?RET_LOW load(1, XDATA, add(CFA_XSP16, literal(-5)))
          CFI (cfiCond81) ?RET_HIGH load(1, XDATA, add(CFA_XSP16, literal(-4)))
          CFI (cfiCond81) ?BRET_EXT load(1, XDATA, add(CFA_XSP16, literal(-3)))
          CFI (cfiCond81) DPL0 load(1, XDATA, add(CFA_XSP16, literal(-2)))
          CFI (cfiCond81) DPH0 load(1, XDATA, add(CFA_XSP16, literal(-1)))
          CFI (cfiCond81) CFA_SP SP+0
          CFI (cfiCond81) CFA_XSP16 add(XSP16, 62)
          CFI Block cfiCond82 Using cfiCommon0
          CFI (cfiCond82) Function SampleApp_WCL_localization
          CFI (cfiCond82) Conditional ??CrossCallReturnLabel_2
          CFI (cfiCond82) R6 load(1, XDATA, add(CFA_XSP16, literal(-24)))
          CFI (cfiCond82) VB load(1, XDATA, add(CFA_XSP16, literal(-23)))
          CFI (cfiCond82) V0 load(1, XDATA, add(CFA_XSP16, literal(-22)))
          CFI (cfiCond82) V1 load(1, XDATA, add(CFA_XSP16, literal(-21)))
          CFI (cfiCond82) V2 load(1, XDATA, add(CFA_XSP16, literal(-20)))
          CFI (cfiCond82) V3 load(1, XDATA, add(CFA_XSP16, literal(-19)))
          CFI (cfiCond82) V4 load(1, XDATA, add(CFA_XSP16, literal(-18)))
          CFI (cfiCond82) V5 load(1, XDATA, add(CFA_XSP16, literal(-17)))
          CFI (cfiCond82) V6 load(1, XDATA, add(CFA_XSP16, literal(-16)))
          CFI (cfiCond82) V7 load(1, XDATA, add(CFA_XSP16, literal(-15)))
          CFI (cfiCond82) V8 load(1, XDATA, add(CFA_XSP16, literal(-14)))
          CFI (cfiCond82) V9 load(1, XDATA, add(CFA_XSP16, literal(-13)))
          CFI (cfiCond82) V10 load(1, XDATA, add(CFA_XSP16, literal(-12)))
          CFI (cfiCond82) V11 load(1, XDATA, add(CFA_XSP16, literal(-11)))
          CFI (cfiCond82) V12 load(1, XDATA, add(CFA_XSP16, literal(-10)))
          CFI (cfiCond82) V13 load(1, XDATA, add(CFA_XSP16, literal(-9)))
          CFI (cfiCond82) V14 load(1, XDATA, add(CFA_XSP16, literal(-8)))
          CFI (cfiCond82) V15 load(1, XDATA, add(CFA_XSP16, literal(-7)))
          CFI (cfiCond82) R7 load(1, XDATA, add(CFA_XSP16, literal(-6)))
          CFI (cfiCond82) ?RET_LOW load(1, XDATA, add(CFA_XSP16, literal(-5)))
          CFI (cfiCond82) ?RET_HIGH load(1, XDATA, add(CFA_XSP16, literal(-4)))
          CFI (cfiCond82) ?BRET_EXT load(1, XDATA, add(CFA_XSP16, literal(-3)))
          CFI (cfiCond82) DPL0 load(1, XDATA, add(CFA_XSP16, literal(-2)))
          CFI (cfiCond82) DPH0 load(1, XDATA, add(CFA_XSP16, literal(-1)))
          CFI (cfiCond82) CFA_SP SP+0
          CFI (cfiCond82) CFA_XSP16 add(XSP16, 68)
          CFI Block cfiPicker83 Using cfiCommon1
          CFI (cfiPicker83) NoFunction
          CFI (cfiPicker83) Picker
        LCALL   ?Subroutine41 & 0xFFFF
??CrossCallReturnLabel_112:
        CLR     C
        MOV     A,R6
        SUBB    A,#0x4
        MOV     A,R7
        SUBB    A,#0x0
        MOV     C,0xD0 /* PSW */.2
        XRL     A,PSW
        RLC     A
        RET
          CFI EndBlock cfiCond80
          CFI EndBlock cfiCond81
          CFI EndBlock cfiCond82
          CFI EndBlock cfiPicker83
//  180 
//  181 /*********************************************************************
//  182  * @fn      moving_average
//  183  *
//  184  * @brief   filter for moving average
//  185  *
//  186  * @param   
//  187  *
//  188  * @return  none
//  189  */

        RSEG BANKED_CODE:CODE:NOROOT(0)
//  190 void moving_average(int8 in, int8 moavarray[], int length, int fil_cnt[2], float *out)
moving_average:
          CFI Block cfiBlock84 Using cfiCommon0
          CFI Function moving_average
        CODE
//  191 {
        MOV     A,#-0x14
        LCALL   ?BANKED_ENTER_XDATA
          CFI DPH0 load(1, XDATA, add(CFA_XSP16, literal(-1)))
          CFI DPL0 load(1, XDATA, add(CFA_XSP16, literal(-2)))
          CFI ?BRET_EXT load(1, XDATA, add(CFA_XSP16, literal(-3)))
          CFI ?RET_HIGH load(1, XDATA, add(CFA_XSP16, literal(-4)))
          CFI ?RET_LOW load(1, XDATA, add(CFA_XSP16, literal(-5)))
          CFI R7 load(1, XDATA, add(CFA_XSP16, literal(-6)))
          CFI V11 load(1, XDATA, add(CFA_XSP16, literal(-7)))
          CFI V10 load(1, XDATA, add(CFA_XSP16, literal(-8)))
          CFI V9 load(1, XDATA, add(CFA_XSP16, literal(-9)))
          CFI V8 load(1, XDATA, add(CFA_XSP16, literal(-10)))
          CFI V7 load(1, XDATA, add(CFA_XSP16, literal(-11)))
          CFI V6 load(1, XDATA, add(CFA_XSP16, literal(-12)))
          CFI V5 load(1, XDATA, add(CFA_XSP16, literal(-13)))
          CFI V4 load(1, XDATA, add(CFA_XSP16, literal(-14)))
          CFI V3 load(1, XDATA, add(CFA_XSP16, literal(-15)))
          CFI V2 load(1, XDATA, add(CFA_XSP16, literal(-16)))
          CFI V1 load(1, XDATA, add(CFA_XSP16, literal(-17)))
          CFI V0 load(1, XDATA, add(CFA_XSP16, literal(-18)))
          CFI VB load(1, XDATA, add(CFA_XSP16, literal(-19)))
          CFI R6 load(1, XDATA, add(CFA_XSP16, literal(-20)))
          CFI CFA_SP SP+0
          CFI CFA_XSP16 add(XSP16, 20)
        ; Saved register size: 20
        ; Auto size: 0
        MOV     ?V0 + 0,R1
        MOV     A,#0x14
        LCALL   ?XSTACK_DISP0_8
        LCALL   ?Subroutine7 & 0xFFFF
//  192   if(++fil_cnt[0]>length)
??CrossCallReturnLabel_13:
        MOV     R6,A
        MOV     A,R1
        ADDC    A,#0x0
        MOV     R7,A
        MOV     ?V0 + 2,R6
        MOV     ?V0 + 3,R7
        MOV     DPL,R0
        MOV     DPH,R1
        MOVX    A,@DPTR
        MOV     R6,A
        INC     DPTR
        MOVX    A,@DPTR
        MOV     R7,A
        CLR     C
        MOV     A,R4
        SUBB    A,R6
        MOV     A,R5
        SUBB    A,R7
        MOV     C,0xD0 /* PSW */.2
        XRL     A,PSW
        RLC     A
        JNC     ??moving_average_0
//  193   {
//  194     fil_cnt[0]=0;
        MOV     DPL,R0
        MOV     DPH,R1
        CLR     A
        MOVX    @DPTR,A
        INC     DPTR
        MOVX    @DPTR,A
//  195     fil_cnt[1]=1;
        MOV     DPL,?V0 + 2
        MOV     DPH,?V0 + 3
        INC     A
        MOVX    @DPTR,A
        INC     DPTR
        CLR     A
        SJMP    ??moving_average_1
//  196   }
//  197   else  
//  198   {
//  199     fil_cnt[1]=(fil_cnt[0]==length)?0:(fil_cnt[0]+1);
??moving_average_0:
        MOV     A,R4
        XRL     A,R6
        JNZ     ??moving_average_2
        MOV     A,R5
        XRL     A,R7
??moving_average_2:
        JNZ     ??moving_average_3
        MOV     R6,#0x0
        MOV     R7,#0x0
        SJMP    ??CrossCallReturnLabel_110
??moving_average_3:
        LCALL   ?Subroutine41 & 0xFFFF
//  200   }
??CrossCallReturnLabel_110:
        MOV     DPL,?V0 + 2
        MOV     DPH,?V0 + 3
        MOV     A,R6
        MOVX    @DPTR,A
        INC     DPTR
        MOV     A,R7
??moving_average_1:
        MOVX    @DPTR,A
//  201   moavarray[fil_cnt[0]]=in;
        MOV     DPL,R0
        MOV     DPH,R1
        LCALL   ?Subroutine12 & 0xFFFF
??CrossCallReturnLabel_33:
        MOV     A,R2
        ADD     A,R0
        MOV     DPL,A
        MOV     A,R3
        ADDC    A,R1
        MOV     DPH,A
        MOV     A,?V0 + 0
        MOVX    @DPTR,A
        MOV     A,#0x16
        LCALL   ?XSTACK_DISP0_8
        LCALL   ?Subroutine12 & 0xFFFF
??CrossCallReturnLabel_34:
        MOV     A,R0
        MOV     R6,A
        MOV     A,R1
        MOV     R7,A
//  202   *out+=(in-(moavarray[fil_cnt[1]]))/(float)(length);
        MOV     A,?V0 + 0
        MOV     R0,A
        RLC     A
        SUBB    A,0xE0 /* A   */
        MOV     R1,A
        MOV     DPL,?V0 + 2
        MOV     DPH,?V0 + 3
        MOVX    A,@DPTR
        MOV     ?V0 + 2,A
        INC     DPTR
        MOVX    A,@DPTR
        MOV     ?V0 + 3,A
        MOV     A,R2
        ADD     A,?V0 + 2
        MOV     DPL,A
        MOV     A,R3
        ADDC    A,?V0 + 3
        MOV     DPH,A
        MOVX    A,@DPTR
        MOV     R2,A
        RLC     A
        SUBB    A,0xE0 /* A   */
        MOV     R3,A
        MOV     A,R0
        CLR     C
        SUBB    A,R2
        MOV     ?V0 + 4,A
        MOV     A,R1
        SUBB    A,R3
        LCALL   ?Subroutine34 & 0xFFFF
??CrossCallReturnLabel_94:
        LCALL   ?L_TO_FLT
        LCALL   ?Subroutine35 & 0xFFFF
??CrossCallReturnLabel_96:
        LCALL   ?L_TO_FLT
        MOV     R0,#?V0 + 4
        MOV     R1,#?V0 + 8
        LCALL   ?FLT_DIV
        MOV     DPL,R6
        MOV     DPH,R7
        MOV     R0,#?V0 + 8
        LCALL   ?L_MOV_X
        MOV     R0,#?V0 + 4
        MOV     R1,#?V0 + 8
        LCALL   ?FLT_ADD
        MOV     DPL,R6
        MOV     DPH,R7
        MOV     R0,#?V0 + 4
        LCALL   ?L_MOV_TO_X
          CFI EndBlock cfiBlock84
//  203   
//  204   
//  205 }
        REQUIRE ?Subroutine1
        ; // Fall through to label ?Subroutine1

        RSEG BANKED_CODE:CODE:NOROOT(0)
?Subroutine1:
          CFI Block cfiBlock85 Using cfiCommon0
          CFI NoFunction
          CFI CFA_SP SP+0
          CFI CFA_XSP16 add(XSP16, 20)
          CFI VB load(1, XDATA, add(CFA_XSP16, literal(-19)))
          CFI DPL0 load(1, XDATA, add(CFA_XSP16, literal(-2)))
          CFI DPH0 load(1, XDATA, add(CFA_XSP16, literal(-1)))
          CFI R6 load(1, XDATA, add(CFA_XSP16, literal(-20)))
          CFI R7 load(1, XDATA, add(CFA_XSP16, literal(-6)))
          CFI V0 load(1, XDATA, add(CFA_XSP16, literal(-18)))
          CFI V1 load(1, XDATA, add(CFA_XSP16, literal(-17)))
          CFI V2 load(1, XDATA, add(CFA_XSP16, literal(-16)))
          CFI V3 load(1, XDATA, add(CFA_XSP16, literal(-15)))
          CFI V4 load(1, XDATA, add(CFA_XSP16, literal(-14)))
          CFI V5 load(1, XDATA, add(CFA_XSP16, literal(-13)))
          CFI V6 load(1, XDATA, add(CFA_XSP16, literal(-12)))
          CFI V7 load(1, XDATA, add(CFA_XSP16, literal(-11)))
          CFI V8 load(1, XDATA, add(CFA_XSP16, literal(-10)))
          CFI V9 load(1, XDATA, add(CFA_XSP16, literal(-9)))
          CFI V10 load(1, XDATA, add(CFA_XSP16, literal(-8)))
          CFI V11 load(1, XDATA, add(CFA_XSP16, literal(-7)))
          CFI ?BRET_EXT load(1, XDATA, add(CFA_XSP16, literal(-3)))
          CFI ?RET_HIGH load(1, XDATA, add(CFA_XSP16, literal(-4)))
          CFI ?RET_LOW load(1, XDATA, add(CFA_XSP16, literal(-5)))
        MOV     R7,#0xc
        LJMP    ?BANKED_LEAVE_XDATA
          CFI EndBlock cfiBlock85

        RSEG BANKED_CODE:CODE:NOROOT(0)
?Subroutine41:
          CFI Block cfiCond86 Using cfiCommon0
          CFI Function SampleApp_MinMax_localization
          CFI Conditional ??CrossCallReturnLabel_112, ??CrossCallReturnLabel_0
          CFI R6 load(1, XDATA, add(CFA_XSP16, literal(-24)))
          CFI VB load(1, XDATA, add(CFA_XSP16, literal(-23)))
          CFI V0 load(1, XDATA, add(CFA_XSP16, literal(-22)))
          CFI V1 load(1, XDATA, add(CFA_XSP16, literal(-21)))
          CFI V2 load(1, XDATA, add(CFA_XSP16, literal(-20)))
          CFI V3 load(1, XDATA, add(CFA_XSP16, literal(-19)))
          CFI V4 load(1, XDATA, add(CFA_XSP16, literal(-18)))
          CFI V5 load(1, XDATA, add(CFA_XSP16, literal(-17)))
          CFI V6 load(1, XDATA, add(CFA_XSP16, literal(-16)))
          CFI V7 load(1, XDATA, add(CFA_XSP16, literal(-15)))
          CFI V8 load(1, XDATA, add(CFA_XSP16, literal(-14)))
          CFI V9 load(1, XDATA, add(CFA_XSP16, literal(-13)))
          CFI V10 load(1, XDATA, add(CFA_XSP16, literal(-12)))
          CFI V11 load(1, XDATA, add(CFA_XSP16, literal(-11)))
          CFI V12 load(1, XDATA, add(CFA_XSP16, literal(-10)))
          CFI V13 load(1, XDATA, add(CFA_XSP16, literal(-9)))
          CFI V14 load(1, XDATA, add(CFA_XSP16, literal(-8)))
          CFI V15 load(1, XDATA, add(CFA_XSP16, literal(-7)))
          CFI R7 load(1, XDATA, add(CFA_XSP16, literal(-6)))
          CFI ?RET_LOW load(1, XDATA, add(CFA_XSP16, literal(-5)))
          CFI ?RET_HIGH load(1, XDATA, add(CFA_XSP16, literal(-4)))
          CFI ?BRET_EXT load(1, XDATA, add(CFA_XSP16, literal(-3)))
          CFI DPL0 load(1, XDATA, add(CFA_XSP16, literal(-2)))
          CFI DPH0 load(1, XDATA, add(CFA_XSP16, literal(-1)))
          CFI CFA_SP SP+0
          CFI CFA_XSP16 add(XSP16, 62)
          CFI Block cfiCond87 Using cfiCommon0
          CFI (cfiCond87) Function SampleApp_MinMax_localization
          CFI (cfiCond87) Conditional ??CrossCallReturnLabel_112, ??CrossCallReturnLabel_1
          CFI (cfiCond87) R6 load(1, XDATA, add(CFA_XSP16, literal(-24)))
          CFI (cfiCond87) VB load(1, XDATA, add(CFA_XSP16, literal(-23)))
          CFI (cfiCond87) V0 load(1, XDATA, add(CFA_XSP16, literal(-22)))
          CFI (cfiCond87) V1 load(1, XDATA, add(CFA_XSP16, literal(-21)))
          CFI (cfiCond87) V2 load(1, XDATA, add(CFA_XSP16, literal(-20)))
          CFI (cfiCond87) V3 load(1, XDATA, add(CFA_XSP16, literal(-19)))
          CFI (cfiCond87) V4 load(1, XDATA, add(CFA_XSP16, literal(-18)))
          CFI (cfiCond87) V5 load(1, XDATA, add(CFA_XSP16, literal(-17)))
          CFI (cfiCond87) V6 load(1, XDATA, add(CFA_XSP16, literal(-16)))
          CFI (cfiCond87) V7 load(1, XDATA, add(CFA_XSP16, literal(-15)))
          CFI (cfiCond87) V8 load(1, XDATA, add(CFA_XSP16, literal(-14)))
          CFI (cfiCond87) V9 load(1, XDATA, add(CFA_XSP16, literal(-13)))
          CFI (cfiCond87) V10 load(1, XDATA, add(CFA_XSP16, literal(-12)))
          CFI (cfiCond87) V11 load(1, XDATA, add(CFA_XSP16, literal(-11)))
          CFI (cfiCond87) V12 load(1, XDATA, add(CFA_XSP16, literal(-10)))
          CFI (cfiCond87) V13 load(1, XDATA, add(CFA_XSP16, literal(-9)))
          CFI (cfiCond87) V14 load(1, XDATA, add(CFA_XSP16, literal(-8)))
          CFI (cfiCond87) V15 load(1, XDATA, add(CFA_XSP16, literal(-7)))
          CFI (cfiCond87) R7 load(1, XDATA, add(CFA_XSP16, literal(-6)))
          CFI (cfiCond87) ?RET_LOW load(1, XDATA, add(CFA_XSP16, literal(-5)))
          CFI (cfiCond87) ?RET_HIGH load(1, XDATA, add(CFA_XSP16, literal(-4)))
          CFI (cfiCond87) ?BRET_EXT load(1, XDATA, add(CFA_XSP16, literal(-3)))
          CFI (cfiCond87) DPL0 load(1, XDATA, add(CFA_XSP16, literal(-2)))
          CFI (cfiCond87) DPH0 load(1, XDATA, add(CFA_XSP16, literal(-1)))
          CFI (cfiCond87) CFA_SP SP+0
          CFI (cfiCond87) CFA_XSP16 add(XSP16, 62)
          CFI Block cfiCond88 Using cfiCommon0
          CFI (cfiCond88) Function SampleApp_WCL_localization
          CFI (cfiCond88) Conditional ??CrossCallReturnLabel_112, ??CrossCallReturnLabel_2
          CFI (cfiCond88) R6 load(1, XDATA, add(CFA_XSP16, literal(-24)))
          CFI (cfiCond88) VB load(1, XDATA, add(CFA_XSP16, literal(-23)))
          CFI (cfiCond88) V0 load(1, XDATA, add(CFA_XSP16, literal(-22)))
          CFI (cfiCond88) V1 load(1, XDATA, add(CFA_XSP16, literal(-21)))
          CFI (cfiCond88) V2 load(1, XDATA, add(CFA_XSP16, literal(-20)))
          CFI (cfiCond88) V3 load(1, XDATA, add(CFA_XSP16, literal(-19)))
          CFI (cfiCond88) V4 load(1, XDATA, add(CFA_XSP16, literal(-18)))
          CFI (cfiCond88) V5 load(1, XDATA, add(CFA_XSP16, literal(-17)))
          CFI (cfiCond88) V6 load(1, XDATA, add(CFA_XSP16, literal(-16)))
          CFI (cfiCond88) V7 load(1, XDATA, add(CFA_XSP16, literal(-15)))
          CFI (cfiCond88) V8 load(1, XDATA, add(CFA_XSP16, literal(-14)))
          CFI (cfiCond88) V9 load(1, XDATA, add(CFA_XSP16, literal(-13)))
          CFI (cfiCond88) V10 load(1, XDATA, add(CFA_XSP16, literal(-12)))
          CFI (cfiCond88) V11 load(1, XDATA, add(CFA_XSP16, literal(-11)))
          CFI (cfiCond88) V12 load(1, XDATA, add(CFA_XSP16, literal(-10)))
          CFI (cfiCond88) V13 load(1, XDATA, add(CFA_XSP16, literal(-9)))
          CFI (cfiCond88) V14 load(1, XDATA, add(CFA_XSP16, literal(-8)))
          CFI (cfiCond88) V15 load(1, XDATA, add(CFA_XSP16, literal(-7)))
          CFI (cfiCond88) R7 load(1, XDATA, add(CFA_XSP16, literal(-6)))
          CFI (cfiCond88) ?RET_LOW load(1, XDATA, add(CFA_XSP16, literal(-5)))
          CFI (cfiCond88) ?RET_HIGH load(1, XDATA, add(CFA_XSP16, literal(-4)))
          CFI (cfiCond88) ?BRET_EXT load(1, XDATA, add(CFA_XSP16, literal(-3)))
          CFI (cfiCond88) DPL0 load(1, XDATA, add(CFA_XSP16, literal(-2)))
          CFI (cfiCond88) DPH0 load(1, XDATA, add(CFA_XSP16, literal(-1)))
          CFI (cfiCond88) CFA_SP SP+0
          CFI (cfiCond88) CFA_XSP16 add(XSP16, 68)
          CFI Block cfiCond89 Using cfiCommon0
          CFI (cfiCond89) Function moving_average
          CFI (cfiCond89) Conditional ??CrossCallReturnLabel_110
          CFI (cfiCond89) R6 load(1, XDATA, add(CFA_XSP16, literal(-20)))
          CFI (cfiCond89) VB load(1, XDATA, add(CFA_XSP16, literal(-19)))
          CFI (cfiCond89) V0 load(1, XDATA, add(CFA_XSP16, literal(-18)))
          CFI (cfiCond89) V1 load(1, XDATA, add(CFA_XSP16, literal(-17)))
          CFI (cfiCond89) V2 load(1, XDATA, add(CFA_XSP16, literal(-16)))
          CFI (cfiCond89) V3 load(1, XDATA, add(CFA_XSP16, literal(-15)))
          CFI (cfiCond89) V4 load(1, XDATA, add(CFA_XSP16, literal(-14)))
          CFI (cfiCond89) V5 load(1, XDATA, add(CFA_XSP16, literal(-13)))
          CFI (cfiCond89) V6 load(1, XDATA, add(CFA_XSP16, literal(-12)))
          CFI (cfiCond89) V7 load(1, XDATA, add(CFA_XSP16, literal(-11)))
          CFI (cfiCond89) V8 load(1, XDATA, add(CFA_XSP16, literal(-10)))
          CFI (cfiCond89) V9 load(1, XDATA, add(CFA_XSP16, literal(-9)))
          CFI (cfiCond89) V10 load(1, XDATA, add(CFA_XSP16, literal(-8)))
          CFI (cfiCond89) V11 load(1, XDATA, add(CFA_XSP16, literal(-7)))
          CFI (cfiCond89) R7 load(1, XDATA, add(CFA_XSP16, literal(-6)))
          CFI (cfiCond89) ?RET_LOW load(1, XDATA, add(CFA_XSP16, literal(-5)))
          CFI (cfiCond89) ?RET_HIGH load(1, XDATA, add(CFA_XSP16, literal(-4)))
          CFI (cfiCond89) ?BRET_EXT load(1, XDATA, add(CFA_XSP16, literal(-3)))
          CFI (cfiCond89) DPL0 load(1, XDATA, add(CFA_XSP16, literal(-2)))
          CFI (cfiCond89) DPH0 load(1, XDATA, add(CFA_XSP16, literal(-1)))
          CFI (cfiCond89) CFA_SP SP+0
          CFI (cfiCond89) CFA_XSP16 add(XSP16, 20)
          CFI Block cfiCond90 Using cfiCommon0
          CFI (cfiCond90) Function averagefilter
          CFI (cfiCond90) Conditional ??CrossCallReturnLabel_111
          CFI (cfiCond90) R6 load(1, XDATA, add(CFA_XSP16, literal(-16)))
          CFI (cfiCond90) VB load(1, XDATA, add(CFA_XSP16, literal(-15)))
          CFI (cfiCond90) V0 load(1, XDATA, add(CFA_XSP16, literal(-14)))
          CFI (cfiCond90) V1 load(1, XDATA, add(CFA_XSP16, literal(-13)))
          CFI (cfiCond90) V2 load(1, XDATA, add(CFA_XSP16, literal(-12)))
          CFI (cfiCond90) V3 load(1, XDATA, add(CFA_XSP16, literal(-11)))
          CFI (cfiCond90) V4 load(1, XDATA, add(CFA_XSP16, literal(-10)))
          CFI (cfiCond90) V5 load(1, XDATA, add(CFA_XSP16, literal(-9)))
          CFI (cfiCond90) V6 load(1, XDATA, add(CFA_XSP16, literal(-8)))
          CFI (cfiCond90) V7 load(1, XDATA, add(CFA_XSP16, literal(-7)))
          CFI (cfiCond90) R7 load(1, XDATA, add(CFA_XSP16, literal(-6)))
          CFI (cfiCond90) ?RET_LOW load(1, XDATA, add(CFA_XSP16, literal(-5)))
          CFI (cfiCond90) ?RET_HIGH load(1, XDATA, add(CFA_XSP16, literal(-4)))
          CFI (cfiCond90) ?BRET_EXT load(1, XDATA, add(CFA_XSP16, literal(-3)))
          CFI (cfiCond90) DPL0 load(1, XDATA, add(CFA_XSP16, literal(-2)))
          CFI (cfiCond90) DPH0 load(1, XDATA, add(CFA_XSP16, literal(-1)))
          CFI (cfiCond90) CFA_SP SP+0
          CFI (cfiCond90) CFA_XSP16 add(XSP16, 16)
          CFI Block cfiPicker91 Using cfiCommon1
          CFI (cfiPicker91) NoFunction
          CFI (cfiPicker91) Picker
        MOV     A,R6
        ADD     A,#0x1
        INC     R6
        MOV     A,R7
        ADDC    A,#0x0
        MOV     R7,A
        RET
          CFI EndBlock cfiCond86
          CFI EndBlock cfiCond87
          CFI EndBlock cfiCond88
          CFI EndBlock cfiCond89
          CFI EndBlock cfiCond90
          CFI EndBlock cfiPicker91

        RSEG BANKED_CODE:CODE:NOROOT(0)
?Subroutine12:
          CFI Block cfiCond92 Using cfiCommon0
          CFI Function SampleApp_MinMax_localization
          CFI Conditional ??CrossCallReturnLabel_23
          CFI R6 load(1, XDATA, add(CFA_XSP16, literal(-24)))
          CFI VB load(1, XDATA, add(CFA_XSP16, literal(-23)))
          CFI V0 load(1, XDATA, add(CFA_XSP16, literal(-22)))
          CFI V1 load(1, XDATA, add(CFA_XSP16, literal(-21)))
          CFI V2 load(1, XDATA, add(CFA_XSP16, literal(-20)))
          CFI V3 load(1, XDATA, add(CFA_XSP16, literal(-19)))
          CFI V4 load(1, XDATA, add(CFA_XSP16, literal(-18)))
          CFI V5 load(1, XDATA, add(CFA_XSP16, literal(-17)))
          CFI V6 load(1, XDATA, add(CFA_XSP16, literal(-16)))
          CFI V7 load(1, XDATA, add(CFA_XSP16, literal(-15)))
          CFI V8 load(1, XDATA, add(CFA_XSP16, literal(-14)))
          CFI V9 load(1, XDATA, add(CFA_XSP16, literal(-13)))
          CFI V10 load(1, XDATA, add(CFA_XSP16, literal(-12)))
          CFI V11 load(1, XDATA, add(CFA_XSP16, literal(-11)))
          CFI V12 load(1, XDATA, add(CFA_XSP16, literal(-10)))
          CFI V13 load(1, XDATA, add(CFA_XSP16, literal(-9)))
          CFI V14 load(1, XDATA, add(CFA_XSP16, literal(-8)))
          CFI V15 load(1, XDATA, add(CFA_XSP16, literal(-7)))
          CFI R7 load(1, XDATA, add(CFA_XSP16, literal(-6)))
          CFI ?RET_LOW load(1, XDATA, add(CFA_XSP16, literal(-5)))
          CFI ?RET_HIGH load(1, XDATA, add(CFA_XSP16, literal(-4)))
          CFI ?BRET_EXT load(1, XDATA, add(CFA_XSP16, literal(-3)))
          CFI DPL0 load(1, XDATA, add(CFA_XSP16, literal(-2)))
          CFI DPH0 load(1, XDATA, add(CFA_XSP16, literal(-1)))
          CFI CFA_SP SP+0
          CFI CFA_XSP16 add(XSP16, 62)
          CFI Block cfiCond93 Using cfiCommon0
          CFI (cfiCond93) Function SampleApp_MinMax_localization
          CFI (cfiCond93) Conditional ??CrossCallReturnLabel_24
          CFI (cfiCond93) R6 load(1, XDATA, add(CFA_XSP16, literal(-24)))
          CFI (cfiCond93) VB load(1, XDATA, add(CFA_XSP16, literal(-23)))
          CFI (cfiCond93) V0 load(1, XDATA, add(CFA_XSP16, literal(-22)))
          CFI (cfiCond93) V1 load(1, XDATA, add(CFA_XSP16, literal(-21)))
          CFI (cfiCond93) V2 load(1, XDATA, add(CFA_XSP16, literal(-20)))
          CFI (cfiCond93) V3 load(1, XDATA, add(CFA_XSP16, literal(-19)))
          CFI (cfiCond93) V4 load(1, XDATA, add(CFA_XSP16, literal(-18)))
          CFI (cfiCond93) V5 load(1, XDATA, add(CFA_XSP16, literal(-17)))
          CFI (cfiCond93) V6 load(1, XDATA, add(CFA_XSP16, literal(-16)))
          CFI (cfiCond93) V7 load(1, XDATA, add(CFA_XSP16, literal(-15)))
          CFI (cfiCond93) V8 load(1, XDATA, add(CFA_XSP16, literal(-14)))
          CFI (cfiCond93) V9 load(1, XDATA, add(CFA_XSP16, literal(-13)))
          CFI (cfiCond93) V10 load(1, XDATA, add(CFA_XSP16, literal(-12)))
          CFI (cfiCond93) V11 load(1, XDATA, add(CFA_XSP16, literal(-11)))
          CFI (cfiCond93) V12 load(1, XDATA, add(CFA_XSP16, literal(-10)))
          CFI (cfiCond93) V13 load(1, XDATA, add(CFA_XSP16, literal(-9)))
          CFI (cfiCond93) V14 load(1, XDATA, add(CFA_XSP16, literal(-8)))
          CFI (cfiCond93) V15 load(1, XDATA, add(CFA_XSP16, literal(-7)))
          CFI (cfiCond93) R7 load(1, XDATA, add(CFA_XSP16, literal(-6)))
          CFI (cfiCond93) ?RET_LOW load(1, XDATA, add(CFA_XSP16, literal(-5)))
          CFI (cfiCond93) ?RET_HIGH load(1, XDATA, add(CFA_XSP16, literal(-4)))
          CFI (cfiCond93) ?BRET_EXT load(1, XDATA, add(CFA_XSP16, literal(-3)))
          CFI (cfiCond93) DPL0 load(1, XDATA, add(CFA_XSP16, literal(-2)))
          CFI (cfiCond93) DPH0 load(1, XDATA, add(CFA_XSP16, literal(-1)))
          CFI (cfiCond93) CFA_SP SP+0
          CFI (cfiCond93) CFA_XSP16 add(XSP16, 62)
          CFI Block cfiCond94 Using cfiCommon0
          CFI (cfiCond94) Function SampleApp_MinMax_localization
          CFI (cfiCond94) Conditional ??CrossCallReturnLabel_25
          CFI (cfiCond94) R6 load(1, XDATA, add(CFA_XSP16, literal(-24)))
          CFI (cfiCond94) VB load(1, XDATA, add(CFA_XSP16, literal(-23)))
          CFI (cfiCond94) V0 load(1, XDATA, add(CFA_XSP16, literal(-22)))
          CFI (cfiCond94) V1 load(1, XDATA, add(CFA_XSP16, literal(-21)))
          CFI (cfiCond94) V2 load(1, XDATA, add(CFA_XSP16, literal(-20)))
          CFI (cfiCond94) V3 load(1, XDATA, add(CFA_XSP16, literal(-19)))
          CFI (cfiCond94) V4 load(1, XDATA, add(CFA_XSP16, literal(-18)))
          CFI (cfiCond94) V5 load(1, XDATA, add(CFA_XSP16, literal(-17)))
          CFI (cfiCond94) V6 load(1, XDATA, add(CFA_XSP16, literal(-16)))
          CFI (cfiCond94) V7 load(1, XDATA, add(CFA_XSP16, literal(-15)))
          CFI (cfiCond94) V8 load(1, XDATA, add(CFA_XSP16, literal(-14)))
          CFI (cfiCond94) V9 load(1, XDATA, add(CFA_XSP16, literal(-13)))
          CFI (cfiCond94) V10 load(1, XDATA, add(CFA_XSP16, literal(-12)))
          CFI (cfiCond94) V11 load(1, XDATA, add(CFA_XSP16, literal(-11)))
          CFI (cfiCond94) V12 load(1, XDATA, add(CFA_XSP16, literal(-10)))
          CFI (cfiCond94) V13 load(1, XDATA, add(CFA_XSP16, literal(-9)))
          CFI (cfiCond94) V14 load(1, XDATA, add(CFA_XSP16, literal(-8)))
          CFI (cfiCond94) V15 load(1, XDATA, add(CFA_XSP16, literal(-7)))
          CFI (cfiCond94) R7 load(1, XDATA, add(CFA_XSP16, literal(-6)))
          CFI (cfiCond94) ?RET_LOW load(1, XDATA, add(CFA_XSP16, literal(-5)))
          CFI (cfiCond94) ?RET_HIGH load(1, XDATA, add(CFA_XSP16, literal(-4)))
          CFI (cfiCond94) ?BRET_EXT load(1, XDATA, add(CFA_XSP16, literal(-3)))
          CFI (cfiCond94) DPL0 load(1, XDATA, add(CFA_XSP16, literal(-2)))
          CFI (cfiCond94) DPH0 load(1, XDATA, add(CFA_XSP16, literal(-1)))
          CFI (cfiCond94) CFA_SP SP+0
          CFI (cfiCond94) CFA_XSP16 add(XSP16, 62)
          CFI Block cfiCond95 Using cfiCommon0
          CFI (cfiCond95) Function SampleApp_MinMax_localization
          CFI (cfiCond95) Conditional ??CrossCallReturnLabel_26
          CFI (cfiCond95) R6 load(1, XDATA, add(CFA_XSP16, literal(-24)))
          CFI (cfiCond95) VB load(1, XDATA, add(CFA_XSP16, literal(-23)))
          CFI (cfiCond95) V0 load(1, XDATA, add(CFA_XSP16, literal(-22)))
          CFI (cfiCond95) V1 load(1, XDATA, add(CFA_XSP16, literal(-21)))
          CFI (cfiCond95) V2 load(1, XDATA, add(CFA_XSP16, literal(-20)))
          CFI (cfiCond95) V3 load(1, XDATA, add(CFA_XSP16, literal(-19)))
          CFI (cfiCond95) V4 load(1, XDATA, add(CFA_XSP16, literal(-18)))
          CFI (cfiCond95) V5 load(1, XDATA, add(CFA_XSP16, literal(-17)))
          CFI (cfiCond95) V6 load(1, XDATA, add(CFA_XSP16, literal(-16)))
          CFI (cfiCond95) V7 load(1, XDATA, add(CFA_XSP16, literal(-15)))
          CFI (cfiCond95) V8 load(1, XDATA, add(CFA_XSP16, literal(-14)))
          CFI (cfiCond95) V9 load(1, XDATA, add(CFA_XSP16, literal(-13)))
          CFI (cfiCond95) V10 load(1, XDATA, add(CFA_XSP16, literal(-12)))
          CFI (cfiCond95) V11 load(1, XDATA, add(CFA_XSP16, literal(-11)))
          CFI (cfiCond95) V12 load(1, XDATA, add(CFA_XSP16, literal(-10)))
          CFI (cfiCond95) V13 load(1, XDATA, add(CFA_XSP16, literal(-9)))
          CFI (cfiCond95) V14 load(1, XDATA, add(CFA_XSP16, literal(-8)))
          CFI (cfiCond95) V15 load(1, XDATA, add(CFA_XSP16, literal(-7)))
          CFI (cfiCond95) R7 load(1, XDATA, add(CFA_XSP16, literal(-6)))
          CFI (cfiCond95) ?RET_LOW load(1, XDATA, add(CFA_XSP16, literal(-5)))
          CFI (cfiCond95) ?RET_HIGH load(1, XDATA, add(CFA_XSP16, literal(-4)))
          CFI (cfiCond95) ?BRET_EXT load(1, XDATA, add(CFA_XSP16, literal(-3)))
          CFI (cfiCond95) DPL0 load(1, XDATA, add(CFA_XSP16, literal(-2)))
          CFI (cfiCond95) DPH0 load(1, XDATA, add(CFA_XSP16, literal(-1)))
          CFI (cfiCond95) CFA_SP SP+0
          CFI (cfiCond95) CFA_XSP16 add(XSP16, 62)
          CFI Block cfiCond96 Using cfiCommon0
          CFI (cfiCond96) Function SampleApp_MinMax_localization
          CFI (cfiCond96) Conditional ??CrossCallReturnLabel_27
          CFI (cfiCond96) R6 load(1, XDATA, add(CFA_XSP16, literal(-24)))
          CFI (cfiCond96) VB load(1, XDATA, add(CFA_XSP16, literal(-23)))
          CFI (cfiCond96) V0 load(1, XDATA, add(CFA_XSP16, literal(-22)))
          CFI (cfiCond96) V1 load(1, XDATA, add(CFA_XSP16, literal(-21)))
          CFI (cfiCond96) V2 load(1, XDATA, add(CFA_XSP16, literal(-20)))
          CFI (cfiCond96) V3 load(1, XDATA, add(CFA_XSP16, literal(-19)))
          CFI (cfiCond96) V4 load(1, XDATA, add(CFA_XSP16, literal(-18)))
          CFI (cfiCond96) V5 load(1, XDATA, add(CFA_XSP16, literal(-17)))
          CFI (cfiCond96) V6 load(1, XDATA, add(CFA_XSP16, literal(-16)))
          CFI (cfiCond96) V7 load(1, XDATA, add(CFA_XSP16, literal(-15)))
          CFI (cfiCond96) V8 load(1, XDATA, add(CFA_XSP16, literal(-14)))
          CFI (cfiCond96) V9 load(1, XDATA, add(CFA_XSP16, literal(-13)))
          CFI (cfiCond96) V10 load(1, XDATA, add(CFA_XSP16, literal(-12)))
          CFI (cfiCond96) V11 load(1, XDATA, add(CFA_XSP16, literal(-11)))
          CFI (cfiCond96) V12 load(1, XDATA, add(CFA_XSP16, literal(-10)))
          CFI (cfiCond96) V13 load(1, XDATA, add(CFA_XSP16, literal(-9)))
          CFI (cfiCond96) V14 load(1, XDATA, add(CFA_XSP16, literal(-8)))
          CFI (cfiCond96) V15 load(1, XDATA, add(CFA_XSP16, literal(-7)))
          CFI (cfiCond96) R7 load(1, XDATA, add(CFA_XSP16, literal(-6)))
          CFI (cfiCond96) ?RET_LOW load(1, XDATA, add(CFA_XSP16, literal(-5)))
          CFI (cfiCond96) ?RET_HIGH load(1, XDATA, add(CFA_XSP16, literal(-4)))
          CFI (cfiCond96) ?BRET_EXT load(1, XDATA, add(CFA_XSP16, literal(-3)))
          CFI (cfiCond96) DPL0 load(1, XDATA, add(CFA_XSP16, literal(-2)))
          CFI (cfiCond96) DPH0 load(1, XDATA, add(CFA_XSP16, literal(-1)))
          CFI (cfiCond96) CFA_SP SP+0
          CFI (cfiCond96) CFA_XSP16 add(XSP16, 62)
          CFI Block cfiCond97 Using cfiCommon0
          CFI (cfiCond97) Function SampleApp_MinMax_localization
          CFI (cfiCond97) Conditional ??CrossCallReturnLabel_28
          CFI (cfiCond97) R6 load(1, XDATA, add(CFA_XSP16, literal(-24)))
          CFI (cfiCond97) VB load(1, XDATA, add(CFA_XSP16, literal(-23)))
          CFI (cfiCond97) V0 load(1, XDATA, add(CFA_XSP16, literal(-22)))
          CFI (cfiCond97) V1 load(1, XDATA, add(CFA_XSP16, literal(-21)))
          CFI (cfiCond97) V2 load(1, XDATA, add(CFA_XSP16, literal(-20)))
          CFI (cfiCond97) V3 load(1, XDATA, add(CFA_XSP16, literal(-19)))
          CFI (cfiCond97) V4 load(1, XDATA, add(CFA_XSP16, literal(-18)))
          CFI (cfiCond97) V5 load(1, XDATA, add(CFA_XSP16, literal(-17)))
          CFI (cfiCond97) V6 load(1, XDATA, add(CFA_XSP16, literal(-16)))
          CFI (cfiCond97) V7 load(1, XDATA, add(CFA_XSP16, literal(-15)))
          CFI (cfiCond97) V8 load(1, XDATA, add(CFA_XSP16, literal(-14)))
          CFI (cfiCond97) V9 load(1, XDATA, add(CFA_XSP16, literal(-13)))
          CFI (cfiCond97) V10 load(1, XDATA, add(CFA_XSP16, literal(-12)))
          CFI (cfiCond97) V11 load(1, XDATA, add(CFA_XSP16, literal(-11)))
          CFI (cfiCond97) V12 load(1, XDATA, add(CFA_XSP16, literal(-10)))
          CFI (cfiCond97) V13 load(1, XDATA, add(CFA_XSP16, literal(-9)))
          CFI (cfiCond97) V14 load(1, XDATA, add(CFA_XSP16, literal(-8)))
          CFI (cfiCond97) V15 load(1, XDATA, add(CFA_XSP16, literal(-7)))
          CFI (cfiCond97) R7 load(1, XDATA, add(CFA_XSP16, literal(-6)))
          CFI (cfiCond97) ?RET_LOW load(1, XDATA, add(CFA_XSP16, literal(-5)))
          CFI (cfiCond97) ?RET_HIGH load(1, XDATA, add(CFA_XSP16, literal(-4)))
          CFI (cfiCond97) ?BRET_EXT load(1, XDATA, add(CFA_XSP16, literal(-3)))
          CFI (cfiCond97) DPL0 load(1, XDATA, add(CFA_XSP16, literal(-2)))
          CFI (cfiCond97) DPH0 load(1, XDATA, add(CFA_XSP16, literal(-1)))
          CFI (cfiCond97) CFA_SP SP+0
          CFI (cfiCond97) CFA_XSP16 add(XSP16, 62)
          CFI Block cfiCond98 Using cfiCommon0
          CFI (cfiCond98) Function SampleApp_WCL_localization
          CFI (cfiCond98) Conditional ??CrossCallReturnLabel_29
          CFI (cfiCond98) R6 load(1, XDATA, add(CFA_XSP16, literal(-24)))
          CFI (cfiCond98) VB load(1, XDATA, add(CFA_XSP16, literal(-23)))
          CFI (cfiCond98) V0 load(1, XDATA, add(CFA_XSP16, literal(-22)))
          CFI (cfiCond98) V1 load(1, XDATA, add(CFA_XSP16, literal(-21)))
          CFI (cfiCond98) V2 load(1, XDATA, add(CFA_XSP16, literal(-20)))
          CFI (cfiCond98) V3 load(1, XDATA, add(CFA_XSP16, literal(-19)))
          CFI (cfiCond98) V4 load(1, XDATA, add(CFA_XSP16, literal(-18)))
          CFI (cfiCond98) V5 load(1, XDATA, add(CFA_XSP16, literal(-17)))
          CFI (cfiCond98) V6 load(1, XDATA, add(CFA_XSP16, literal(-16)))
          CFI (cfiCond98) V7 load(1, XDATA, add(CFA_XSP16, literal(-15)))
          CFI (cfiCond98) V8 load(1, XDATA, add(CFA_XSP16, literal(-14)))
          CFI (cfiCond98) V9 load(1, XDATA, add(CFA_XSP16, literal(-13)))
          CFI (cfiCond98) V10 load(1, XDATA, add(CFA_XSP16, literal(-12)))
          CFI (cfiCond98) V11 load(1, XDATA, add(CFA_XSP16, literal(-11)))
          CFI (cfiCond98) V12 load(1, XDATA, add(CFA_XSP16, literal(-10)))
          CFI (cfiCond98) V13 load(1, XDATA, add(CFA_XSP16, literal(-9)))
          CFI (cfiCond98) V14 load(1, XDATA, add(CFA_XSP16, literal(-8)))
          CFI (cfiCond98) V15 load(1, XDATA, add(CFA_XSP16, literal(-7)))
          CFI (cfiCond98) R7 load(1, XDATA, add(CFA_XSP16, literal(-6)))
          CFI (cfiCond98) ?RET_LOW load(1, XDATA, add(CFA_XSP16, literal(-5)))
          CFI (cfiCond98) ?RET_HIGH load(1, XDATA, add(CFA_XSP16, literal(-4)))
          CFI (cfiCond98) ?BRET_EXT load(1, XDATA, add(CFA_XSP16, literal(-3)))
          CFI (cfiCond98) DPL0 load(1, XDATA, add(CFA_XSP16, literal(-2)))
          CFI (cfiCond98) DPH0 load(1, XDATA, add(CFA_XSP16, literal(-1)))
          CFI (cfiCond98) CFA_SP SP+0
          CFI (cfiCond98) CFA_XSP16 add(XSP16, 68)
          CFI Block cfiCond99 Using cfiCommon0
          CFI (cfiCond99) Function SampleApp_WCL_localization
          CFI (cfiCond99) Conditional ??CrossCallReturnLabel_30
          CFI (cfiCond99) R6 load(1, XDATA, add(CFA_XSP16, literal(-24)))
          CFI (cfiCond99) VB load(1, XDATA, add(CFA_XSP16, literal(-23)))
          CFI (cfiCond99) V0 load(1, XDATA, add(CFA_XSP16, literal(-22)))
          CFI (cfiCond99) V1 load(1, XDATA, add(CFA_XSP16, literal(-21)))
          CFI (cfiCond99) V2 load(1, XDATA, add(CFA_XSP16, literal(-20)))
          CFI (cfiCond99) V3 load(1, XDATA, add(CFA_XSP16, literal(-19)))
          CFI (cfiCond99) V4 load(1, XDATA, add(CFA_XSP16, literal(-18)))
          CFI (cfiCond99) V5 load(1, XDATA, add(CFA_XSP16, literal(-17)))
          CFI (cfiCond99) V6 load(1, XDATA, add(CFA_XSP16, literal(-16)))
          CFI (cfiCond99) V7 load(1, XDATA, add(CFA_XSP16, literal(-15)))
          CFI (cfiCond99) V8 load(1, XDATA, add(CFA_XSP16, literal(-14)))
          CFI (cfiCond99) V9 load(1, XDATA, add(CFA_XSP16, literal(-13)))
          CFI (cfiCond99) V10 load(1, XDATA, add(CFA_XSP16, literal(-12)))
          CFI (cfiCond99) V11 load(1, XDATA, add(CFA_XSP16, literal(-11)))
          CFI (cfiCond99) V12 load(1, XDATA, add(CFA_XSP16, literal(-10)))
          CFI (cfiCond99) V13 load(1, XDATA, add(CFA_XSP16, literal(-9)))
          CFI (cfiCond99) V14 load(1, XDATA, add(CFA_XSP16, literal(-8)))
          CFI (cfiCond99) V15 load(1, XDATA, add(CFA_XSP16, literal(-7)))
          CFI (cfiCond99) R7 load(1, XDATA, add(CFA_XSP16, literal(-6)))
          CFI (cfiCond99) ?RET_LOW load(1, XDATA, add(CFA_XSP16, literal(-5)))
          CFI (cfiCond99) ?RET_HIGH load(1, XDATA, add(CFA_XSP16, literal(-4)))
          CFI (cfiCond99) ?BRET_EXT load(1, XDATA, add(CFA_XSP16, literal(-3)))
          CFI (cfiCond99) DPL0 load(1, XDATA, add(CFA_XSP16, literal(-2)))
          CFI (cfiCond99) DPH0 load(1, XDATA, add(CFA_XSP16, literal(-1)))
          CFI (cfiCond99) CFA_SP SP+0
          CFI (cfiCond99) CFA_XSP16 add(XSP16, 68)
          CFI Block cfiCond100 Using cfiCommon0
          CFI (cfiCond100) Function SampleApp_WCL_localization
          CFI (cfiCond100) Conditional ??CrossCallReturnLabel_31
          CFI (cfiCond100) R6 load(1, XDATA, add(CFA_XSP16, literal(-24)))
          CFI (cfiCond100) VB load(1, XDATA, add(CFA_XSP16, literal(-23)))
          CFI (cfiCond100) V0 load(1, XDATA, add(CFA_XSP16, literal(-22)))
          CFI (cfiCond100) V1 load(1, XDATA, add(CFA_XSP16, literal(-21)))
          CFI (cfiCond100) V2 load(1, XDATA, add(CFA_XSP16, literal(-20)))
          CFI (cfiCond100) V3 load(1, XDATA, add(CFA_XSP16, literal(-19)))
          CFI (cfiCond100) V4 load(1, XDATA, add(CFA_XSP16, literal(-18)))
          CFI (cfiCond100) V5 load(1, XDATA, add(CFA_XSP16, literal(-17)))
          CFI (cfiCond100) V6 load(1, XDATA, add(CFA_XSP16, literal(-16)))
          CFI (cfiCond100) V7 load(1, XDATA, add(CFA_XSP16, literal(-15)))
          CFI (cfiCond100) V8 load(1, XDATA, add(CFA_XSP16, literal(-14)))
          CFI (cfiCond100) V9 load(1, XDATA, add(CFA_XSP16, literal(-13)))
          CFI (cfiCond100) V10 load(1, XDATA, add(CFA_XSP16, literal(-12)))
          CFI (cfiCond100) V11 load(1, XDATA, add(CFA_XSP16, literal(-11)))
          CFI (cfiCond100) V12 load(1, XDATA, add(CFA_XSP16, literal(-10)))
          CFI (cfiCond100) V13 load(1, XDATA, add(CFA_XSP16, literal(-9)))
          CFI (cfiCond100) V14 load(1, XDATA, add(CFA_XSP16, literal(-8)))
          CFI (cfiCond100) V15 load(1, XDATA, add(CFA_XSP16, literal(-7)))
          CFI (cfiCond100) R7 load(1, XDATA, add(CFA_XSP16, literal(-6)))
          CFI (cfiCond100) ?RET_LOW load(1, XDATA, add(CFA_XSP16, literal(-5)))
          CFI (cfiCond100) ?RET_HIGH load(1, XDATA, add(CFA_XSP16, literal(-4)))
          CFI (cfiCond100) ?BRET_EXT load(1, XDATA, add(CFA_XSP16, literal(-3)))
          CFI (cfiCond100) DPL0 load(1, XDATA, add(CFA_XSP16, literal(-2)))
          CFI (cfiCond100) DPH0 load(1, XDATA, add(CFA_XSP16, literal(-1)))
          CFI (cfiCond100) CFA_SP SP+0
          CFI (cfiCond100) CFA_XSP16 add(XSP16, 68)
          CFI Block cfiCond101 Using cfiCommon0
          CFI (cfiCond101) Function SampleApp_WCL_localization
          CFI (cfiCond101) Conditional ??CrossCallReturnLabel_32
          CFI (cfiCond101) R6 load(1, XDATA, add(CFA_XSP16, literal(-24)))
          CFI (cfiCond101) VB load(1, XDATA, add(CFA_XSP16, literal(-23)))
          CFI (cfiCond101) V0 load(1, XDATA, add(CFA_XSP16, literal(-22)))
          CFI (cfiCond101) V1 load(1, XDATA, add(CFA_XSP16, literal(-21)))
          CFI (cfiCond101) V2 load(1, XDATA, add(CFA_XSP16, literal(-20)))
          CFI (cfiCond101) V3 load(1, XDATA, add(CFA_XSP16, literal(-19)))
          CFI (cfiCond101) V4 load(1, XDATA, add(CFA_XSP16, literal(-18)))
          CFI (cfiCond101) V5 load(1, XDATA, add(CFA_XSP16, literal(-17)))
          CFI (cfiCond101) V6 load(1, XDATA, add(CFA_XSP16, literal(-16)))
          CFI (cfiCond101) V7 load(1, XDATA, add(CFA_XSP16, literal(-15)))
          CFI (cfiCond101) V8 load(1, XDATA, add(CFA_XSP16, literal(-14)))
          CFI (cfiCond101) V9 load(1, XDATA, add(CFA_XSP16, literal(-13)))
          CFI (cfiCond101) V10 load(1, XDATA, add(CFA_XSP16, literal(-12)))
          CFI (cfiCond101) V11 load(1, XDATA, add(CFA_XSP16, literal(-11)))
          CFI (cfiCond101) V12 load(1, XDATA, add(CFA_XSP16, literal(-10)))
          CFI (cfiCond101) V13 load(1, XDATA, add(CFA_XSP16, literal(-9)))
          CFI (cfiCond101) V14 load(1, XDATA, add(CFA_XSP16, literal(-8)))
          CFI (cfiCond101) V15 load(1, XDATA, add(CFA_XSP16, literal(-7)))
          CFI (cfiCond101) R7 load(1, XDATA, add(CFA_XSP16, literal(-6)))
          CFI (cfiCond101) ?RET_LOW load(1, XDATA, add(CFA_XSP16, literal(-5)))
          CFI (cfiCond101) ?RET_HIGH load(1, XDATA, add(CFA_XSP16, literal(-4)))
          CFI (cfiCond101) ?BRET_EXT load(1, XDATA, add(CFA_XSP16, literal(-3)))
          CFI (cfiCond101) DPL0 load(1, XDATA, add(CFA_XSP16, literal(-2)))
          CFI (cfiCond101) DPH0 load(1, XDATA, add(CFA_XSP16, literal(-1)))
          CFI (cfiCond101) CFA_SP SP+0
          CFI (cfiCond101) CFA_XSP16 add(XSP16, 68)
          CFI Block cfiCond102 Using cfiCommon0
          CFI (cfiCond102) Function moving_average
          CFI (cfiCond102) Conditional ??CrossCallReturnLabel_33
          CFI (cfiCond102) R6 load(1, XDATA, add(CFA_XSP16, literal(-20)))
          CFI (cfiCond102) VB load(1, XDATA, add(CFA_XSP16, literal(-19)))
          CFI (cfiCond102) V0 load(1, XDATA, add(CFA_XSP16, literal(-18)))
          CFI (cfiCond102) V1 load(1, XDATA, add(CFA_XSP16, literal(-17)))
          CFI (cfiCond102) V2 load(1, XDATA, add(CFA_XSP16, literal(-16)))
          CFI (cfiCond102) V3 load(1, XDATA, add(CFA_XSP16, literal(-15)))
          CFI (cfiCond102) V4 load(1, XDATA, add(CFA_XSP16, literal(-14)))
          CFI (cfiCond102) V5 load(1, XDATA, add(CFA_XSP16, literal(-13)))
          CFI (cfiCond102) V6 load(1, XDATA, add(CFA_XSP16, literal(-12)))
          CFI (cfiCond102) V7 load(1, XDATA, add(CFA_XSP16, literal(-11)))
          CFI (cfiCond102) V8 load(1, XDATA, add(CFA_XSP16, literal(-10)))
          CFI (cfiCond102) V9 load(1, XDATA, add(CFA_XSP16, literal(-9)))
          CFI (cfiCond102) V10 load(1, XDATA, add(CFA_XSP16, literal(-8)))
          CFI (cfiCond102) V11 load(1, XDATA, add(CFA_XSP16, literal(-7)))
          CFI (cfiCond102) R7 load(1, XDATA, add(CFA_XSP16, literal(-6)))
          CFI (cfiCond102) ?RET_LOW load(1, XDATA, add(CFA_XSP16, literal(-5)))
          CFI (cfiCond102) ?RET_HIGH load(1, XDATA, add(CFA_XSP16, literal(-4)))
          CFI (cfiCond102) ?BRET_EXT load(1, XDATA, add(CFA_XSP16, literal(-3)))
          CFI (cfiCond102) DPL0 load(1, XDATA, add(CFA_XSP16, literal(-2)))
          CFI (cfiCond102) DPH0 load(1, XDATA, add(CFA_XSP16, literal(-1)))
          CFI (cfiCond102) CFA_SP SP+0
          CFI (cfiCond102) CFA_XSP16 add(XSP16, 20)
          CFI Block cfiCond103 Using cfiCommon0
          CFI (cfiCond103) Function moving_average
          CFI (cfiCond103) Conditional ??CrossCallReturnLabel_34
          CFI (cfiCond103) R6 load(1, XDATA, add(CFA_XSP16, literal(-20)))
          CFI (cfiCond103) VB load(1, XDATA, add(CFA_XSP16, literal(-19)))
          CFI (cfiCond103) V0 load(1, XDATA, add(CFA_XSP16, literal(-18)))
          CFI (cfiCond103) V1 load(1, XDATA, add(CFA_XSP16, literal(-17)))
          CFI (cfiCond103) V2 load(1, XDATA, add(CFA_XSP16, literal(-16)))
          CFI (cfiCond103) V3 load(1, XDATA, add(CFA_XSP16, literal(-15)))
          CFI (cfiCond103) V4 load(1, XDATA, add(CFA_XSP16, literal(-14)))
          CFI (cfiCond103) V5 load(1, XDATA, add(CFA_XSP16, literal(-13)))
          CFI (cfiCond103) V6 load(1, XDATA, add(CFA_XSP16, literal(-12)))
          CFI (cfiCond103) V7 load(1, XDATA, add(CFA_XSP16, literal(-11)))
          CFI (cfiCond103) V8 load(1, XDATA, add(CFA_XSP16, literal(-10)))
          CFI (cfiCond103) V9 load(1, XDATA, add(CFA_XSP16, literal(-9)))
          CFI (cfiCond103) V10 load(1, XDATA, add(CFA_XSP16, literal(-8)))
          CFI (cfiCond103) V11 load(1, XDATA, add(CFA_XSP16, literal(-7)))
          CFI (cfiCond103) R7 load(1, XDATA, add(CFA_XSP16, literal(-6)))
          CFI (cfiCond103) ?RET_LOW load(1, XDATA, add(CFA_XSP16, literal(-5)))
          CFI (cfiCond103) ?RET_HIGH load(1, XDATA, add(CFA_XSP16, literal(-4)))
          CFI (cfiCond103) ?BRET_EXT load(1, XDATA, add(CFA_XSP16, literal(-3)))
          CFI (cfiCond103) DPL0 load(1, XDATA, add(CFA_XSP16, literal(-2)))
          CFI (cfiCond103) DPH0 load(1, XDATA, add(CFA_XSP16, literal(-1)))
          CFI (cfiCond103) CFA_SP SP+0
          CFI (cfiCond103) CFA_XSP16 add(XSP16, 20)
          CFI Block cfiCond104 Using cfiCommon0
          CFI (cfiCond104) Function moving_average_f
          CFI (cfiCond104) Conditional ??CrossCallReturnLabel_35
          CFI (cfiCond104) R6 load(1, XDATA, add(CFA_XSP16, literal(-20)))
          CFI (cfiCond104) VB load(1, XDATA, add(CFA_XSP16, literal(-19)))
          CFI (cfiCond104) V0 load(1, XDATA, add(CFA_XSP16, literal(-18)))
          CFI (cfiCond104) V1 load(1, XDATA, add(CFA_XSP16, literal(-17)))
          CFI (cfiCond104) V2 load(1, XDATA, add(CFA_XSP16, literal(-16)))
          CFI (cfiCond104) V3 load(1, XDATA, add(CFA_XSP16, literal(-15)))
          CFI (cfiCond104) V4 load(1, XDATA, add(CFA_XSP16, literal(-14)))
          CFI (cfiCond104) V5 load(1, XDATA, add(CFA_XSP16, literal(-13)))
          CFI (cfiCond104) V6 load(1, XDATA, add(CFA_XSP16, literal(-12)))
          CFI (cfiCond104) V7 load(1, XDATA, add(CFA_XSP16, literal(-11)))
          CFI (cfiCond104) V8 load(1, XDATA, add(CFA_XSP16, literal(-10)))
          CFI (cfiCond104) V9 load(1, XDATA, add(CFA_XSP16, literal(-9)))
          CFI (cfiCond104) V10 load(1, XDATA, add(CFA_XSP16, literal(-8)))
          CFI (cfiCond104) V11 load(1, XDATA, add(CFA_XSP16, literal(-7)))
          CFI (cfiCond104) R7 load(1, XDATA, add(CFA_XSP16, literal(-6)))
          CFI (cfiCond104) ?RET_LOW load(1, XDATA, add(CFA_XSP16, literal(-5)))
          CFI (cfiCond104) ?RET_HIGH load(1, XDATA, add(CFA_XSP16, literal(-4)))
          CFI (cfiCond104) ?BRET_EXT load(1, XDATA, add(CFA_XSP16, literal(-3)))
          CFI (cfiCond104) DPL0 load(1, XDATA, add(CFA_XSP16, literal(-2)))
          CFI (cfiCond104) DPH0 load(1, XDATA, add(CFA_XSP16, literal(-1)))
          CFI (cfiCond104) CFA_SP SP+0
          CFI (cfiCond104) CFA_XSP16 add(XSP16, 20)
          CFI Block cfiCond105 Using cfiCommon0
          CFI (cfiCond105) Function gaussianfilter
          CFI (cfiCond105) Conditional ??CrossCallReturnLabel_36
          CFI (cfiCond105) R6 load(1, XDATA, add(CFA_XSP16, literal(-24)))
          CFI (cfiCond105) VB load(1, XDATA, add(CFA_XSP16, literal(-23)))
          CFI (cfiCond105) V0 load(1, XDATA, add(CFA_XSP16, literal(-22)))
          CFI (cfiCond105) V1 load(1, XDATA, add(CFA_XSP16, literal(-21)))
          CFI (cfiCond105) V2 load(1, XDATA, add(CFA_XSP16, literal(-20)))
          CFI (cfiCond105) V3 load(1, XDATA, add(CFA_XSP16, literal(-19)))
          CFI (cfiCond105) V4 load(1, XDATA, add(CFA_XSP16, literal(-18)))
          CFI (cfiCond105) V5 load(1, XDATA, add(CFA_XSP16, literal(-17)))
          CFI (cfiCond105) V6 load(1, XDATA, add(CFA_XSP16, literal(-16)))
          CFI (cfiCond105) V7 load(1, XDATA, add(CFA_XSP16, literal(-15)))
          CFI (cfiCond105) V8 load(1, XDATA, add(CFA_XSP16, literal(-14)))
          CFI (cfiCond105) V9 load(1, XDATA, add(CFA_XSP16, literal(-13)))
          CFI (cfiCond105) V10 load(1, XDATA, add(CFA_XSP16, literal(-12)))
          CFI (cfiCond105) V11 load(1, XDATA, add(CFA_XSP16, literal(-11)))
          CFI (cfiCond105) V12 load(1, XDATA, add(CFA_XSP16, literal(-10)))
          CFI (cfiCond105) V13 load(1, XDATA, add(CFA_XSP16, literal(-9)))
          CFI (cfiCond105) V14 load(1, XDATA, add(CFA_XSP16, literal(-8)))
          CFI (cfiCond105) V15 load(1, XDATA, add(CFA_XSP16, literal(-7)))
          CFI (cfiCond105) R7 load(1, XDATA, add(CFA_XSP16, literal(-6)))
          CFI (cfiCond105) ?RET_LOW load(1, XDATA, add(CFA_XSP16, literal(-5)))
          CFI (cfiCond105) ?RET_HIGH load(1, XDATA, add(CFA_XSP16, literal(-4)))
          CFI (cfiCond105) ?BRET_EXT load(1, XDATA, add(CFA_XSP16, literal(-3)))
          CFI (cfiCond105) DPL0 load(1, XDATA, add(CFA_XSP16, literal(-2)))
          CFI (cfiCond105) DPH0 load(1, XDATA, add(CFA_XSP16, literal(-1)))
          CFI (cfiCond105) CFA_SP SP+0
          CFI (cfiCond105) CFA_XSP16 add(XSP16, 36)
          CFI Block cfiPicker106 Using cfiCommon1
          CFI (cfiPicker106) NoFunction
          CFI (cfiPicker106) Picker
        MOVX    A,@DPTR
        MOV     R0,A
        INC     DPTR
        MOVX    A,@DPTR
        MOV     R1,A
        RET
          CFI EndBlock cfiCond92
          CFI EndBlock cfiCond93
          CFI EndBlock cfiCond94
          CFI EndBlock cfiCond95
          CFI EndBlock cfiCond96
          CFI EndBlock cfiCond97
          CFI EndBlock cfiCond98
          CFI EndBlock cfiCond99
          CFI EndBlock cfiCond100
          CFI EndBlock cfiCond101
          CFI EndBlock cfiCond102
          CFI EndBlock cfiCond103
          CFI EndBlock cfiCond104
          CFI EndBlock cfiCond105
          CFI EndBlock cfiPicker106
//  206 
//  207 
//  208 /*********************************************************************
//  209  * @fn      moving_average
//  210  *
//  211  * @brief   filter for moving average
//  212  *
//  213  * @param   
//  214  *
//  215  * @return  none
//  216  */

        RSEG BANKED_CODE:CODE:NOROOT(0)
//  217 void moving_average_f(float in, float moavarray[], int length, int fil_cnt[2], float *out)
moving_average_f:
          CFI Block cfiBlock107 Using cfiCommon0
          CFI Function moving_average_f
        CODE
//  218 {
        MOV     A,#-0x14
        LCALL   ?BANKED_ENTER_XDATA
          CFI DPH0 load(1, XDATA, add(CFA_XSP16, literal(-1)))
          CFI DPL0 load(1, XDATA, add(CFA_XSP16, literal(-2)))
          CFI ?BRET_EXT load(1, XDATA, add(CFA_XSP16, literal(-3)))
          CFI ?RET_HIGH load(1, XDATA, add(CFA_XSP16, literal(-4)))
          CFI ?RET_LOW load(1, XDATA, add(CFA_XSP16, literal(-5)))
          CFI R7 load(1, XDATA, add(CFA_XSP16, literal(-6)))
          CFI V11 load(1, XDATA, add(CFA_XSP16, literal(-7)))
          CFI V10 load(1, XDATA, add(CFA_XSP16, literal(-8)))
          CFI V9 load(1, XDATA, add(CFA_XSP16, literal(-9)))
          CFI V8 load(1, XDATA, add(CFA_XSP16, literal(-10)))
          CFI V7 load(1, XDATA, add(CFA_XSP16, literal(-11)))
          CFI V6 load(1, XDATA, add(CFA_XSP16, literal(-12)))
          CFI V5 load(1, XDATA, add(CFA_XSP16, literal(-13)))
          CFI V4 load(1, XDATA, add(CFA_XSP16, literal(-14)))
          CFI V3 load(1, XDATA, add(CFA_XSP16, literal(-15)))
          CFI V2 load(1, XDATA, add(CFA_XSP16, literal(-16)))
          CFI V1 load(1, XDATA, add(CFA_XSP16, literal(-17)))
          CFI V0 load(1, XDATA, add(CFA_XSP16, literal(-18)))
          CFI VB load(1, XDATA, add(CFA_XSP16, literal(-19)))
          CFI R6 load(1, XDATA, add(CFA_XSP16, literal(-20)))
          CFI CFA_SP SP+0
          CFI CFA_XSP16 add(XSP16, 20)
        ; Saved register size: 20
        ; Auto size: 0
        MOV     ?V0 + 0,R2
        MOV     ?V0 + 1,R3
        MOV     ?V0 + 2,R4
        MOV     ?V0 + 3,R5
        MOV     A,#0x18
        LCALL   ?XSTACK_DISP0_8
        LCALL   ?Subroutine7 & 0xFFFF
//  219   if(++fil_cnt[0]>length)
??CrossCallReturnLabel_14:
        MOV     R2,A
        MOV     A,R1
        ADDC    A,#0x0
        MOV     R3,A
        MOV     A,R2
        MOV     R6,A
        MOV     A,R3
        MOV     R7,A
        MOV     DPL,R0
        MOV     DPH,R1
        LCALL   ?Subroutine37 & 0xFFFF
??CrossCallReturnLabel_100:
        MOV     A,#0x16
        LCALL   ?XSTACK_DISP0_8
        MOVX    A,@DPTR
        MOV     R4,A
        INC     DPTR
        MOVX    A,@DPTR
        MOV     R5,A
        CLR     C
        MOV     A,R4
        SUBB    A,R2
        MOV     A,R5
        SUBB    A,R3
        MOV     C,0xD0 /* PSW */.2
        XRL     A,PSW
        RLC     A
        JNC     ??moving_average_f_0
//  220   {
//  221     fil_cnt[0]=0;
        MOV     DPL,R0
        MOV     DPH,R1
        CLR     A
        MOVX    @DPTR,A
        INC     DPTR
        MOVX    @DPTR,A
//  222     fil_cnt[1]=1;
        MOV     DPL,R6
        MOV     DPH,R7
        INC     A
        MOVX    @DPTR,A
        INC     DPTR
        CLR     A
        SJMP    ??moving_average_f_1
//  223   }
//  224   else  
//  225   {
//  226     fil_cnt[1]=(fil_cnt[0]==length)?0:(fil_cnt[0]+1);
??moving_average_f_0:
        MOV     A,R4
        XRL     A,R2
        JNZ     ??moving_average_f_2
        MOV     A,R5
        XRL     A,R3
??moving_average_f_2:
        JNZ     ??moving_average_f_3
        MOV     R2,#0x0
        MOV     R3,#0x0
        SJMP    ??CrossCallReturnLabel_87
??moving_average_f_3:
        LCALL   ?Subroutine31 & 0xFFFF
//  227   }
??CrossCallReturnLabel_87:
        MOV     DPL,R6
        MOV     DPH,R7
        MOV     A,R2
        MOVX    @DPTR,A
        INC     DPTR
        MOV     A,R3
??moving_average_f_1:
        MOVX    @DPTR,A
        MOV     A,#0x14
        LCALL   ?XSTACK_DISP0_8
        LCALL   ?Subroutine37 & 0xFFFF
//  228   moavarray[fil_cnt[0]]=in;
??CrossCallReturnLabel_101:
        MOV     DPL,R0
        MOV     DPH,R1
        LCALL   ?Subroutine39 & 0xFFFF
??CrossCallReturnLabel_108:
        LCALL   ?S_SHL
        MOV     A,R2
        ADD     A,?V0 + 4
        MOV     DPL,A
        MOV     A,R3
        ADDC    A,?V0 + 5
        MOV     DPH,A
        MOV     R0,#?V0 + 0
        LCALL   ?L_MOV_TO_X
        MOV     A,#0x1a
        LCALL   ?XSTACK_DISP0_8
        LCALL   ?Subroutine12 & 0xFFFF
??CrossCallReturnLabel_35:
        MOV     ?V0 + 4,R0
        MOV     ?V0 + 5,R1
//  229   *out+=(in-(moavarray[fil_cnt[1]]))/(float)(length);
        MOV     DPL,R6
        MOV     DPH,R7
        MOVX    A,@DPTR
        MOV     ?V0 + 6,A
        INC     DPTR
        MOVX    A,@DPTR
        MOV     ?V0 + 7,A
        MOV     A,#0x2
        MOV     R0,#?V0 + 6
        LCALL   ?S_SHL
        MOV     A,R2
        ADD     A,?V0 + 6
        MOV     DPL,A
        MOV     A,R3
        ADDC    A,?V0 + 7
        MOV     DPH,A
        MOV     R0,#?V0 + 8
        LCALL   ?L_MOV_X
        MOV     R0,#?V0 + 0
        MOV     R1,#?V0 + 8
        LCALL   ?FLT_SUB
        LCALL   ?Subroutine35 & 0xFFFF
??CrossCallReturnLabel_97:
        LCALL   ?L_TO_FLT
        MOV     R0,#?V0 + 0
        MOV     R1,#?V0 + 8
        LCALL   ?FLT_DIV
        MOV     DPL,?V0 + 4
        MOV     DPH,?V0 + 5
        MOV     R0,#?V0 + 8
        LCALL   ?L_MOV_X
        MOV     R0,#?V0 + 0
        MOV     R1,#?V0 + 8
        LCALL   ?FLT_ADD
        MOV     DPL,?V0 + 4
        MOV     DPH,?V0 + 5
        MOV     R0,#?V0 + 0
        LCALL   ?L_MOV_TO_X
//  230   
//  231   
//  232 }
        LJMP    ?Subroutine1 & 0xFFFF
          CFI EndBlock cfiBlock107

        RSEG BANKED_CODE:CODE:NOROOT(0)
?Subroutine37:
          CFI Block cfiCond108 Using cfiCommon0
          CFI Function printRSSIandLQI
          CFI Conditional ??CrossCallReturnLabel_104, ??CrossCallReturnLabel_19
          CFI R6 load(1, XDATA, add(CFA_XSP16, literal(-18)))
          CFI VB load(1, XDATA, add(CFA_XSP16, literal(-17)))
          CFI V0 load(1, XDATA, add(CFA_XSP16, literal(-16)))
          CFI V1 load(1, XDATA, add(CFA_XSP16, literal(-15)))
          CFI V2 load(1, XDATA, add(CFA_XSP16, literal(-14)))
          CFI V3 load(1, XDATA, add(CFA_XSP16, literal(-13)))
          CFI V4 load(1, XDATA, add(CFA_XSP16, literal(-12)))
          CFI V5 load(1, XDATA, add(CFA_XSP16, literal(-11)))
          CFI V6 load(1, XDATA, add(CFA_XSP16, literal(-10)))
          CFI V7 load(1, XDATA, add(CFA_XSP16, literal(-9)))
          CFI V8 load(1, XDATA, add(CFA_XSP16, literal(-8)))
          CFI V9 load(1, XDATA, add(CFA_XSP16, literal(-7)))
          CFI R7 load(1, XDATA, add(CFA_XSP16, literal(-6)))
          CFI ?RET_LOW load(1, XDATA, add(CFA_XSP16, literal(-5)))
          CFI ?RET_HIGH load(1, XDATA, add(CFA_XSP16, literal(-4)))
          CFI ?BRET_EXT load(1, XDATA, add(CFA_XSP16, literal(-3)))
          CFI DPL0 load(1, XDATA, add(CFA_XSP16, literal(-2)))
          CFI DPH0 load(1, XDATA, add(CFA_XSP16, literal(-1)))
          CFI CFA_SP SP+0
          CFI CFA_XSP16 add(XSP16, 24)
          CFI Block cfiCond109 Using cfiCommon0
          CFI (cfiCond109) Function printRSSIandLQI
          CFI (cfiCond109) Conditional ??CrossCallReturnLabel_104, ??CrossCallReturnLabel_20
          CFI (cfiCond109) R6 load(1, XDATA, add(CFA_XSP16, literal(-18)))
          CFI (cfiCond109) VB load(1, XDATA, add(CFA_XSP16, literal(-17)))
          CFI (cfiCond109) V0 load(1, XDATA, add(CFA_XSP16, literal(-16)))
          CFI (cfiCond109) V1 load(1, XDATA, add(CFA_XSP16, literal(-15)))
          CFI (cfiCond109) V2 load(1, XDATA, add(CFA_XSP16, literal(-14)))
          CFI (cfiCond109) V3 load(1, XDATA, add(CFA_XSP16, literal(-13)))
          CFI (cfiCond109) V4 load(1, XDATA, add(CFA_XSP16, literal(-12)))
          CFI (cfiCond109) V5 load(1, XDATA, add(CFA_XSP16, literal(-11)))
          CFI (cfiCond109) V6 load(1, XDATA, add(CFA_XSP16, literal(-10)))
          CFI (cfiCond109) V7 load(1, XDATA, add(CFA_XSP16, literal(-9)))
          CFI (cfiCond109) V8 load(1, XDATA, add(CFA_XSP16, literal(-8)))
          CFI (cfiCond109) V9 load(1, XDATA, add(CFA_XSP16, literal(-7)))
          CFI (cfiCond109) R7 load(1, XDATA, add(CFA_XSP16, literal(-6)))
          CFI (cfiCond109) ?RET_LOW load(1, XDATA, add(CFA_XSP16, literal(-5)))
          CFI (cfiCond109) ?RET_HIGH load(1, XDATA, add(CFA_XSP16, literal(-4)))
          CFI (cfiCond109) ?BRET_EXT load(1, XDATA, add(CFA_XSP16, literal(-3)))
          CFI (cfiCond109) DPL0 load(1, XDATA, add(CFA_XSP16, literal(-2)))
          CFI (cfiCond109) DPH0 load(1, XDATA, add(CFA_XSP16, literal(-1)))
          CFI (cfiCond109) CFA_SP SP+0
          CFI (cfiCond109) CFA_XSP16 add(XSP16, 24)
          CFI Block cfiCond110 Using cfiCommon0
          CFI (cfiCond110) Function SampleApp_WCL_localization
          CFI (cfiCond110) Conditional ??CrossCallReturnLabel_105, ??CrossCallReturnLabel_53
          CFI (cfiCond110) R6 load(1, XDATA, add(CFA_XSP16, literal(-24)))
          CFI (cfiCond110) VB load(1, XDATA, add(CFA_XSP16, literal(-23)))
          CFI (cfiCond110) V0 load(1, XDATA, add(CFA_XSP16, literal(-22)))
          CFI (cfiCond110) V1 load(1, XDATA, add(CFA_XSP16, literal(-21)))
          CFI (cfiCond110) V2 load(1, XDATA, add(CFA_XSP16, literal(-20)))
          CFI (cfiCond110) V3 load(1, XDATA, add(CFA_XSP16, literal(-19)))
          CFI (cfiCond110) V4 load(1, XDATA, add(CFA_XSP16, literal(-18)))
          CFI (cfiCond110) V5 load(1, XDATA, add(CFA_XSP16, literal(-17)))
          CFI (cfiCond110) V6 load(1, XDATA, add(CFA_XSP16, literal(-16)))
          CFI (cfiCond110) V7 load(1, XDATA, add(CFA_XSP16, literal(-15)))
          CFI (cfiCond110) V8 load(1, XDATA, add(CFA_XSP16, literal(-14)))
          CFI (cfiCond110) V9 load(1, XDATA, add(CFA_XSP16, literal(-13)))
          CFI (cfiCond110) V10 load(1, XDATA, add(CFA_XSP16, literal(-12)))
          CFI (cfiCond110) V11 load(1, XDATA, add(CFA_XSP16, literal(-11)))
          CFI (cfiCond110) V12 load(1, XDATA, add(CFA_XSP16, literal(-10)))
          CFI (cfiCond110) V13 load(1, XDATA, add(CFA_XSP16, literal(-9)))
          CFI (cfiCond110) V14 load(1, XDATA, add(CFA_XSP16, literal(-8)))
          CFI (cfiCond110) V15 load(1, XDATA, add(CFA_XSP16, literal(-7)))
          CFI (cfiCond110) R7 load(1, XDATA, add(CFA_XSP16, literal(-6)))
          CFI (cfiCond110) ?RET_LOW load(1, XDATA, add(CFA_XSP16, literal(-5)))
          CFI (cfiCond110) ?RET_HIGH load(1, XDATA, add(CFA_XSP16, literal(-4)))
          CFI (cfiCond110) ?BRET_EXT load(1, XDATA, add(CFA_XSP16, literal(-3)))
          CFI (cfiCond110) DPL0 load(1, XDATA, add(CFA_XSP16, literal(-2)))
          CFI (cfiCond110) DPH0 load(1, XDATA, add(CFA_XSP16, literal(-1)))
          CFI (cfiCond110) CFA_SP SP+0
          CFI (cfiCond110) CFA_XSP16 add(XSP16, 68)
          CFI Block cfiCond111 Using cfiCommon0
          CFI (cfiCond111) Function SampleApp_WCL_localization
          CFI (cfiCond111) Conditional ??CrossCallReturnLabel_105, ??CrossCallReturnLabel_52
          CFI (cfiCond111) R6 load(1, XDATA, add(CFA_XSP16, literal(-24)))
          CFI (cfiCond111) VB load(1, XDATA, add(CFA_XSP16, literal(-23)))
          CFI (cfiCond111) V0 load(1, XDATA, add(CFA_XSP16, literal(-22)))
          CFI (cfiCond111) V1 load(1, XDATA, add(CFA_XSP16, literal(-21)))
          CFI (cfiCond111) V2 load(1, XDATA, add(CFA_XSP16, literal(-20)))
          CFI (cfiCond111) V3 load(1, XDATA, add(CFA_XSP16, literal(-19)))
          CFI (cfiCond111) V4 load(1, XDATA, add(CFA_XSP16, literal(-18)))
          CFI (cfiCond111) V5 load(1, XDATA, add(CFA_XSP16, literal(-17)))
          CFI (cfiCond111) V6 load(1, XDATA, add(CFA_XSP16, literal(-16)))
          CFI (cfiCond111) V7 load(1, XDATA, add(CFA_XSP16, literal(-15)))
          CFI (cfiCond111) V8 load(1, XDATA, add(CFA_XSP16, literal(-14)))
          CFI (cfiCond111) V9 load(1, XDATA, add(CFA_XSP16, literal(-13)))
          CFI (cfiCond111) V10 load(1, XDATA, add(CFA_XSP16, literal(-12)))
          CFI (cfiCond111) V11 load(1, XDATA, add(CFA_XSP16, literal(-11)))
          CFI (cfiCond111) V12 load(1, XDATA, add(CFA_XSP16, literal(-10)))
          CFI (cfiCond111) V13 load(1, XDATA, add(CFA_XSP16, literal(-9)))
          CFI (cfiCond111) V14 load(1, XDATA, add(CFA_XSP16, literal(-8)))
          CFI (cfiCond111) V15 load(1, XDATA, add(CFA_XSP16, literal(-7)))
          CFI (cfiCond111) R7 load(1, XDATA, add(CFA_XSP16, literal(-6)))
          CFI (cfiCond111) ?RET_LOW load(1, XDATA, add(CFA_XSP16, literal(-5)))
          CFI (cfiCond111) ?RET_HIGH load(1, XDATA, add(CFA_XSP16, literal(-4)))
          CFI (cfiCond111) ?BRET_EXT load(1, XDATA, add(CFA_XSP16, literal(-3)))
          CFI (cfiCond111) DPL0 load(1, XDATA, add(CFA_XSP16, literal(-2)))
          CFI (cfiCond111) DPH0 load(1, XDATA, add(CFA_XSP16, literal(-1)))
          CFI (cfiCond111) CFA_SP SP+0
          CFI (cfiCond111) CFA_XSP16 add(XSP16, 68)
          CFI Block cfiCond112 Using cfiCommon0
          CFI (cfiCond112) Function moving_average_f
          CFI (cfiCond112) Conditional ??CrossCallReturnLabel_100
          CFI (cfiCond112) R6 load(1, XDATA, add(CFA_XSP16, literal(-20)))
          CFI (cfiCond112) VB load(1, XDATA, add(CFA_XSP16, literal(-19)))
          CFI (cfiCond112) V0 load(1, XDATA, add(CFA_XSP16, literal(-18)))
          CFI (cfiCond112) V1 load(1, XDATA, add(CFA_XSP16, literal(-17)))
          CFI (cfiCond112) V2 load(1, XDATA, add(CFA_XSP16, literal(-16)))
          CFI (cfiCond112) V3 load(1, XDATA, add(CFA_XSP16, literal(-15)))
          CFI (cfiCond112) V4 load(1, XDATA, add(CFA_XSP16, literal(-14)))
          CFI (cfiCond112) V5 load(1, XDATA, add(CFA_XSP16, literal(-13)))
          CFI (cfiCond112) V6 load(1, XDATA, add(CFA_XSP16, literal(-12)))
          CFI (cfiCond112) V7 load(1, XDATA, add(CFA_XSP16, literal(-11)))
          CFI (cfiCond112) V8 load(1, XDATA, add(CFA_XSP16, literal(-10)))
          CFI (cfiCond112) V9 load(1, XDATA, add(CFA_XSP16, literal(-9)))
          CFI (cfiCond112) V10 load(1, XDATA, add(CFA_XSP16, literal(-8)))
          CFI (cfiCond112) V11 load(1, XDATA, add(CFA_XSP16, literal(-7)))
          CFI (cfiCond112) R7 load(1, XDATA, add(CFA_XSP16, literal(-6)))
          CFI (cfiCond112) ?RET_LOW load(1, XDATA, add(CFA_XSP16, literal(-5)))
          CFI (cfiCond112) ?RET_HIGH load(1, XDATA, add(CFA_XSP16, literal(-4)))
          CFI (cfiCond112) ?BRET_EXT load(1, XDATA, add(CFA_XSP16, literal(-3)))
          CFI (cfiCond112) DPL0 load(1, XDATA, add(CFA_XSP16, literal(-2)))
          CFI (cfiCond112) DPH0 load(1, XDATA, add(CFA_XSP16, literal(-1)))
          CFI (cfiCond112) CFA_SP SP+0
          CFI (cfiCond112) CFA_XSP16 add(XSP16, 20)
          CFI Block cfiCond113 Using cfiCommon0
          CFI (cfiCond113) Function moving_average_f
          CFI (cfiCond113) Conditional ??CrossCallReturnLabel_101
          CFI (cfiCond113) R6 load(1, XDATA, add(CFA_XSP16, literal(-20)))
          CFI (cfiCond113) VB load(1, XDATA, add(CFA_XSP16, literal(-19)))
          CFI (cfiCond113) V0 load(1, XDATA, add(CFA_XSP16, literal(-18)))
          CFI (cfiCond113) V1 load(1, XDATA, add(CFA_XSP16, literal(-17)))
          CFI (cfiCond113) V2 load(1, XDATA, add(CFA_XSP16, literal(-16)))
          CFI (cfiCond113) V3 load(1, XDATA, add(CFA_XSP16, literal(-15)))
          CFI (cfiCond113) V4 load(1, XDATA, add(CFA_XSP16, literal(-14)))
          CFI (cfiCond113) V5 load(1, XDATA, add(CFA_XSP16, literal(-13)))
          CFI (cfiCond113) V6 load(1, XDATA, add(CFA_XSP16, literal(-12)))
          CFI (cfiCond113) V7 load(1, XDATA, add(CFA_XSP16, literal(-11)))
          CFI (cfiCond113) V8 load(1, XDATA, add(CFA_XSP16, literal(-10)))
          CFI (cfiCond113) V9 load(1, XDATA, add(CFA_XSP16, literal(-9)))
          CFI (cfiCond113) V10 load(1, XDATA, add(CFA_XSP16, literal(-8)))
          CFI (cfiCond113) V11 load(1, XDATA, add(CFA_XSP16, literal(-7)))
          CFI (cfiCond113) R7 load(1, XDATA, add(CFA_XSP16, literal(-6)))
          CFI (cfiCond113) ?RET_LOW load(1, XDATA, add(CFA_XSP16, literal(-5)))
          CFI (cfiCond113) ?RET_HIGH load(1, XDATA, add(CFA_XSP16, literal(-4)))
          CFI (cfiCond113) ?BRET_EXT load(1, XDATA, add(CFA_XSP16, literal(-3)))
          CFI (cfiCond113) DPL0 load(1, XDATA, add(CFA_XSP16, literal(-2)))
          CFI (cfiCond113) DPH0 load(1, XDATA, add(CFA_XSP16, literal(-1)))
          CFI (cfiCond113) CFA_SP SP+0
          CFI (cfiCond113) CFA_XSP16 add(XSP16, 20)
          CFI Block cfiCond114 Using cfiCommon0
          CFI (cfiCond114) Function calibrationN
          CFI (cfiCond114) Conditional ??CrossCallReturnLabel_103, ??CrossCallReturnLabel_132
          CFI (cfiCond114) R6 load(1, XDATA, add(CFA_XSP16, literal(-24)))
          CFI (cfiCond114) VB load(1, XDATA, add(CFA_XSP16, literal(-23)))
          CFI (cfiCond114) V0 load(1, XDATA, add(CFA_XSP16, literal(-22)))
          CFI (cfiCond114) V1 load(1, XDATA, add(CFA_XSP16, literal(-21)))
          CFI (cfiCond114) V2 load(1, XDATA, add(CFA_XSP16, literal(-20)))
          CFI (cfiCond114) V3 load(1, XDATA, add(CFA_XSP16, literal(-19)))
          CFI (cfiCond114) V4 load(1, XDATA, add(CFA_XSP16, literal(-18)))
          CFI (cfiCond114) V5 load(1, XDATA, add(CFA_XSP16, literal(-17)))
          CFI (cfiCond114) V6 load(1, XDATA, add(CFA_XSP16, literal(-16)))
          CFI (cfiCond114) V7 load(1, XDATA, add(CFA_XSP16, literal(-15)))
          CFI (cfiCond114) V8 load(1, XDATA, add(CFA_XSP16, literal(-14)))
          CFI (cfiCond114) V9 load(1, XDATA, add(CFA_XSP16, literal(-13)))
          CFI (cfiCond114) V10 load(1, XDATA, add(CFA_XSP16, literal(-12)))
          CFI (cfiCond114) V11 load(1, XDATA, add(CFA_XSP16, literal(-11)))
          CFI (cfiCond114) V12 load(1, XDATA, add(CFA_XSP16, literal(-10)))
          CFI (cfiCond114) V13 load(1, XDATA, add(CFA_XSP16, literal(-9)))
          CFI (cfiCond114) V14 load(1, XDATA, add(CFA_XSP16, literal(-8)))
          CFI (cfiCond114) V15 load(1, XDATA, add(CFA_XSP16, literal(-7)))
          CFI (cfiCond114) R7 load(1, XDATA, add(CFA_XSP16, literal(-6)))
          CFI (cfiCond114) ?RET_LOW load(1, XDATA, add(CFA_XSP16, literal(-5)))
          CFI (cfiCond114) ?RET_HIGH load(1, XDATA, add(CFA_XSP16, literal(-4)))
          CFI (cfiCond114) ?BRET_EXT load(1, XDATA, add(CFA_XSP16, literal(-3)))
          CFI (cfiCond114) DPL0 load(1, XDATA, add(CFA_XSP16, literal(-2)))
          CFI (cfiCond114) DPH0 load(1, XDATA, add(CFA_XSP16, literal(-1)))
          CFI (cfiCond114) CFA_SP SP+0
          CFI (cfiCond114) CFA_XSP16 add(XSP16, 46)
          CFI Block cfiCond115 Using cfiCommon0
          CFI (cfiCond115) Function calibrationA
          CFI (cfiCond115) Conditional ??CrossCallReturnLabel_103, ??CrossCallReturnLabel_133
          CFI (cfiCond115) R6 load(1, XDATA, add(CFA_XSP16, literal(-24)))
          CFI (cfiCond115) VB load(1, XDATA, add(CFA_XSP16, literal(-23)))
          CFI (cfiCond115) V0 load(1, XDATA, add(CFA_XSP16, literal(-22)))
          CFI (cfiCond115) V1 load(1, XDATA, add(CFA_XSP16, literal(-21)))
          CFI (cfiCond115) V2 load(1, XDATA, add(CFA_XSP16, literal(-20)))
          CFI (cfiCond115) V3 load(1, XDATA, add(CFA_XSP16, literal(-19)))
          CFI (cfiCond115) V4 load(1, XDATA, add(CFA_XSP16, literal(-18)))
          CFI (cfiCond115) V5 load(1, XDATA, add(CFA_XSP16, literal(-17)))
          CFI (cfiCond115) V6 load(1, XDATA, add(CFA_XSP16, literal(-16)))
          CFI (cfiCond115) V7 load(1, XDATA, add(CFA_XSP16, literal(-15)))
          CFI (cfiCond115) V8 load(1, XDATA, add(CFA_XSP16, literal(-14)))
          CFI (cfiCond115) V9 load(1, XDATA, add(CFA_XSP16, literal(-13)))
          CFI (cfiCond115) V10 load(1, XDATA, add(CFA_XSP16, literal(-12)))
          CFI (cfiCond115) V11 load(1, XDATA, add(CFA_XSP16, literal(-11)))
          CFI (cfiCond115) V12 load(1, XDATA, add(CFA_XSP16, literal(-10)))
          CFI (cfiCond115) V13 load(1, XDATA, add(CFA_XSP16, literal(-9)))
          CFI (cfiCond115) V14 load(1, XDATA, add(CFA_XSP16, literal(-8)))
          CFI (cfiCond115) V15 load(1, XDATA, add(CFA_XSP16, literal(-7)))
          CFI (cfiCond115) R7 load(1, XDATA, add(CFA_XSP16, literal(-6)))
          CFI (cfiCond115) ?RET_LOW load(1, XDATA, add(CFA_XSP16, literal(-5)))
          CFI (cfiCond115) ?RET_HIGH load(1, XDATA, add(CFA_XSP16, literal(-4)))
          CFI (cfiCond115) ?BRET_EXT load(1, XDATA, add(CFA_XSP16, literal(-3)))
          CFI (cfiCond115) DPL0 load(1, XDATA, add(CFA_XSP16, literal(-2)))
          CFI (cfiCond115) DPH0 load(1, XDATA, add(CFA_XSP16, literal(-1)))
          CFI (cfiCond115) CFA_SP SP+0
          CFI (cfiCond115) CFA_XSP16 add(XSP16, 30)
          CFI Block cfiCond116 Using cfiCommon0
          CFI (cfiCond116) Function calibrationN
          CFI (cfiCond116) Conditional ??CrossCallReturnLabel_102, ??CrossCallReturnLabel_5
          CFI (cfiCond116) R6 load(1, XDATA, add(CFA_XSP16, literal(-24)))
          CFI (cfiCond116) VB load(1, XDATA, add(CFA_XSP16, literal(-23)))
          CFI (cfiCond116) V0 load(1, XDATA, add(CFA_XSP16, literal(-22)))
          CFI (cfiCond116) V1 load(1, XDATA, add(CFA_XSP16, literal(-21)))
          CFI (cfiCond116) V2 load(1, XDATA, add(CFA_XSP16, literal(-20)))
          CFI (cfiCond116) V3 load(1, XDATA, add(CFA_XSP16, literal(-19)))
          CFI (cfiCond116) V4 load(1, XDATA, add(CFA_XSP16, literal(-18)))
          CFI (cfiCond116) V5 load(1, XDATA, add(CFA_XSP16, literal(-17)))
          CFI (cfiCond116) V6 load(1, XDATA, add(CFA_XSP16, literal(-16)))
          CFI (cfiCond116) V7 load(1, XDATA, add(CFA_XSP16, literal(-15)))
          CFI (cfiCond116) V8 load(1, XDATA, add(CFA_XSP16, literal(-14)))
          CFI (cfiCond116) V9 load(1, XDATA, add(CFA_XSP16, literal(-13)))
          CFI (cfiCond116) V10 load(1, XDATA, add(CFA_XSP16, literal(-12)))
          CFI (cfiCond116) V11 load(1, XDATA, add(CFA_XSP16, literal(-11)))
          CFI (cfiCond116) V12 load(1, XDATA, add(CFA_XSP16, literal(-10)))
          CFI (cfiCond116) V13 load(1, XDATA, add(CFA_XSP16, literal(-9)))
          CFI (cfiCond116) V14 load(1, XDATA, add(CFA_XSP16, literal(-8)))
          CFI (cfiCond116) V15 load(1, XDATA, add(CFA_XSP16, literal(-7)))
          CFI (cfiCond116) R7 load(1, XDATA, add(CFA_XSP16, literal(-6)))
          CFI (cfiCond116) ?RET_LOW load(1, XDATA, add(CFA_XSP16, literal(-5)))
          CFI (cfiCond116) ?RET_HIGH load(1, XDATA, add(CFA_XSP16, literal(-4)))
          CFI (cfiCond116) ?BRET_EXT load(1, XDATA, add(CFA_XSP16, literal(-3)))
          CFI (cfiCond116) DPL0 load(1, XDATA, add(CFA_XSP16, literal(-2)))
          CFI (cfiCond116) DPH0 load(1, XDATA, add(CFA_XSP16, literal(-1)))
          CFI (cfiCond116) CFA_SP SP+0
          CFI (cfiCond116) CFA_XSP16 add(XSP16, 46)
          CFI Block cfiCond117 Using cfiCommon0
          CFI (cfiCond117) Function calibrationN
          CFI (cfiCond117) Conditional ??CrossCallReturnLabel_102, ??CrossCallReturnLabel_6
          CFI (cfiCond117) R6 load(1, XDATA, add(CFA_XSP16, literal(-24)))
          CFI (cfiCond117) VB load(1, XDATA, add(CFA_XSP16, literal(-23)))
          CFI (cfiCond117) V0 load(1, XDATA, add(CFA_XSP16, literal(-22)))
          CFI (cfiCond117) V1 load(1, XDATA, add(CFA_XSP16, literal(-21)))
          CFI (cfiCond117) V2 load(1, XDATA, add(CFA_XSP16, literal(-20)))
          CFI (cfiCond117) V3 load(1, XDATA, add(CFA_XSP16, literal(-19)))
          CFI (cfiCond117) V4 load(1, XDATA, add(CFA_XSP16, literal(-18)))
          CFI (cfiCond117) V5 load(1, XDATA, add(CFA_XSP16, literal(-17)))
          CFI (cfiCond117) V6 load(1, XDATA, add(CFA_XSP16, literal(-16)))
          CFI (cfiCond117) V7 load(1, XDATA, add(CFA_XSP16, literal(-15)))
          CFI (cfiCond117) V8 load(1, XDATA, add(CFA_XSP16, literal(-14)))
          CFI (cfiCond117) V9 load(1, XDATA, add(CFA_XSP16, literal(-13)))
          CFI (cfiCond117) V10 load(1, XDATA, add(CFA_XSP16, literal(-12)))
          CFI (cfiCond117) V11 load(1, XDATA, add(CFA_XSP16, literal(-11)))
          CFI (cfiCond117) V12 load(1, XDATA, add(CFA_XSP16, literal(-10)))
          CFI (cfiCond117) V13 load(1, XDATA, add(CFA_XSP16, literal(-9)))
          CFI (cfiCond117) V14 load(1, XDATA, add(CFA_XSP16, literal(-8)))
          CFI (cfiCond117) V15 load(1, XDATA, add(CFA_XSP16, literal(-7)))
          CFI (cfiCond117) R7 load(1, XDATA, add(CFA_XSP16, literal(-6)))
          CFI (cfiCond117) ?RET_LOW load(1, XDATA, add(CFA_XSP16, literal(-5)))
          CFI (cfiCond117) ?RET_HIGH load(1, XDATA, add(CFA_XSP16, literal(-4)))
          CFI (cfiCond117) ?BRET_EXT load(1, XDATA, add(CFA_XSP16, literal(-3)))
          CFI (cfiCond117) DPL0 load(1, XDATA, add(CFA_XSP16, literal(-2)))
          CFI (cfiCond117) DPH0 load(1, XDATA, add(CFA_XSP16, literal(-1)))
          CFI (cfiCond117) CFA_SP SP+0
          CFI (cfiCond117) CFA_XSP16 add(XSP16, 46)
          CFI Block cfiCond118 Using cfiCommon0
          CFI (cfiCond118) Function calibrationA
          CFI (cfiCond118) Conditional ??CrossCallReturnLabel_102, ??CrossCallReturnLabel_7
          CFI (cfiCond118) R6 load(1, XDATA, add(CFA_XSP16, literal(-24)))
          CFI (cfiCond118) VB load(1, XDATA, add(CFA_XSP16, literal(-23)))
          CFI (cfiCond118) V0 load(1, XDATA, add(CFA_XSP16, literal(-22)))
          CFI (cfiCond118) V1 load(1, XDATA, add(CFA_XSP16, literal(-21)))
          CFI (cfiCond118) V2 load(1, XDATA, add(CFA_XSP16, literal(-20)))
          CFI (cfiCond118) V3 load(1, XDATA, add(CFA_XSP16, literal(-19)))
          CFI (cfiCond118) V4 load(1, XDATA, add(CFA_XSP16, literal(-18)))
          CFI (cfiCond118) V5 load(1, XDATA, add(CFA_XSP16, literal(-17)))
          CFI (cfiCond118) V6 load(1, XDATA, add(CFA_XSP16, literal(-16)))
          CFI (cfiCond118) V7 load(1, XDATA, add(CFA_XSP16, literal(-15)))
          CFI (cfiCond118) V8 load(1, XDATA, add(CFA_XSP16, literal(-14)))
          CFI (cfiCond118) V9 load(1, XDATA, add(CFA_XSP16, literal(-13)))
          CFI (cfiCond118) V10 load(1, XDATA, add(CFA_XSP16, literal(-12)))
          CFI (cfiCond118) V11 load(1, XDATA, add(CFA_XSP16, literal(-11)))
          CFI (cfiCond118) V12 load(1, XDATA, add(CFA_XSP16, literal(-10)))
          CFI (cfiCond118) V13 load(1, XDATA, add(CFA_XSP16, literal(-9)))
          CFI (cfiCond118) V14 load(1, XDATA, add(CFA_XSP16, literal(-8)))
          CFI (cfiCond118) V15 load(1, XDATA, add(CFA_XSP16, literal(-7)))
          CFI (cfiCond118) R7 load(1, XDATA, add(CFA_XSP16, literal(-6)))
          CFI (cfiCond118) ?RET_LOW load(1, XDATA, add(CFA_XSP16, literal(-5)))
          CFI (cfiCond118) ?RET_HIGH load(1, XDATA, add(CFA_XSP16, literal(-4)))
          CFI (cfiCond118) ?BRET_EXT load(1, XDATA, add(CFA_XSP16, literal(-3)))
          CFI (cfiCond118) DPL0 load(1, XDATA, add(CFA_XSP16, literal(-2)))
          CFI (cfiCond118) DPH0 load(1, XDATA, add(CFA_XSP16, literal(-1)))
          CFI (cfiCond118) CFA_SP SP+0
          CFI (cfiCond118) CFA_XSP16 add(XSP16, 30)
          CFI Block cfiCond119 Using cfiCommon0
          CFI (cfiCond119) Function calibrationA
          CFI (cfiCond119) Conditional ??CrossCallReturnLabel_102, ??CrossCallReturnLabel_8
          CFI (cfiCond119) R6 load(1, XDATA, add(CFA_XSP16, literal(-24)))
          CFI (cfiCond119) VB load(1, XDATA, add(CFA_XSP16, literal(-23)))
          CFI (cfiCond119) V0 load(1, XDATA, add(CFA_XSP16, literal(-22)))
          CFI (cfiCond119) V1 load(1, XDATA, add(CFA_XSP16, literal(-21)))
          CFI (cfiCond119) V2 load(1, XDATA, add(CFA_XSP16, literal(-20)))
          CFI (cfiCond119) V3 load(1, XDATA, add(CFA_XSP16, literal(-19)))
          CFI (cfiCond119) V4 load(1, XDATA, add(CFA_XSP16, literal(-18)))
          CFI (cfiCond119) V5 load(1, XDATA, add(CFA_XSP16, literal(-17)))
          CFI (cfiCond119) V6 load(1, XDATA, add(CFA_XSP16, literal(-16)))
          CFI (cfiCond119) V7 load(1, XDATA, add(CFA_XSP16, literal(-15)))
          CFI (cfiCond119) V8 load(1, XDATA, add(CFA_XSP16, literal(-14)))
          CFI (cfiCond119) V9 load(1, XDATA, add(CFA_XSP16, literal(-13)))
          CFI (cfiCond119) V10 load(1, XDATA, add(CFA_XSP16, literal(-12)))
          CFI (cfiCond119) V11 load(1, XDATA, add(CFA_XSP16, literal(-11)))
          CFI (cfiCond119) V12 load(1, XDATA, add(CFA_XSP16, literal(-10)))
          CFI (cfiCond119) V13 load(1, XDATA, add(CFA_XSP16, literal(-9)))
          CFI (cfiCond119) V14 load(1, XDATA, add(CFA_XSP16, literal(-8)))
          CFI (cfiCond119) V15 load(1, XDATA, add(CFA_XSP16, literal(-7)))
          CFI (cfiCond119) R7 load(1, XDATA, add(CFA_XSP16, literal(-6)))
          CFI (cfiCond119) ?RET_LOW load(1, XDATA, add(CFA_XSP16, literal(-5)))
          CFI (cfiCond119) ?RET_HIGH load(1, XDATA, add(CFA_XSP16, literal(-4)))
          CFI (cfiCond119) ?BRET_EXT load(1, XDATA, add(CFA_XSP16, literal(-3)))
          CFI (cfiCond119) DPL0 load(1, XDATA, add(CFA_XSP16, literal(-2)))
          CFI (cfiCond119) DPH0 load(1, XDATA, add(CFA_XSP16, literal(-1)))
          CFI (cfiCond119) CFA_SP SP+0
          CFI (cfiCond119) CFA_XSP16 add(XSP16, 30)
          CFI Block cfiPicker120 Using cfiCommon1
          CFI (cfiPicker120) NoFunction
          CFI (cfiPicker120) Picker
        MOVX    A,@DPTR
        MOV     R2,A
        INC     DPTR
        MOVX    A,@DPTR
        MOV     R3,A
        RET
          CFI EndBlock cfiCond108
          CFI EndBlock cfiCond109
          CFI EndBlock cfiCond110
          CFI EndBlock cfiCond111
          CFI EndBlock cfiCond112
          CFI EndBlock cfiCond113
          CFI EndBlock cfiCond114
          CFI EndBlock cfiCond115
          CFI EndBlock cfiCond116
          CFI EndBlock cfiCond117
          CFI EndBlock cfiCond118
          CFI EndBlock cfiCond119
          CFI EndBlock cfiPicker120

        RSEG BANKED_CODE:CODE:NOROOT(0)
?Subroutine35:
          CFI Block cfiCond121 Using cfiCommon0
          CFI Function moving_average
          CFI Conditional ??CrossCallReturnLabel_96
          CFI R6 load(1, XDATA, add(CFA_XSP16, literal(-20)))
          CFI VB load(1, XDATA, add(CFA_XSP16, literal(-19)))
          CFI V0 load(1, XDATA, add(CFA_XSP16, literal(-18)))
          CFI V1 load(1, XDATA, add(CFA_XSP16, literal(-17)))
          CFI V2 load(1, XDATA, add(CFA_XSP16, literal(-16)))
          CFI V3 load(1, XDATA, add(CFA_XSP16, literal(-15)))
          CFI V4 load(1, XDATA, add(CFA_XSP16, literal(-14)))
          CFI V5 load(1, XDATA, add(CFA_XSP16, literal(-13)))
          CFI V6 load(1, XDATA, add(CFA_XSP16, literal(-12)))
          CFI V7 load(1, XDATA, add(CFA_XSP16, literal(-11)))
          CFI V8 load(1, XDATA, add(CFA_XSP16, literal(-10)))
          CFI V9 load(1, XDATA, add(CFA_XSP16, literal(-9)))
          CFI V10 load(1, XDATA, add(CFA_XSP16, literal(-8)))
          CFI V11 load(1, XDATA, add(CFA_XSP16, literal(-7)))
          CFI R7 load(1, XDATA, add(CFA_XSP16, literal(-6)))
          CFI ?RET_LOW load(1, XDATA, add(CFA_XSP16, literal(-5)))
          CFI ?RET_HIGH load(1, XDATA, add(CFA_XSP16, literal(-4)))
          CFI ?BRET_EXT load(1, XDATA, add(CFA_XSP16, literal(-3)))
          CFI DPL0 load(1, XDATA, add(CFA_XSP16, literal(-2)))
          CFI DPH0 load(1, XDATA, add(CFA_XSP16, literal(-1)))
          CFI CFA_SP SP+0
          CFI CFA_XSP16 add(XSP16, 20)
          CFI Block cfiCond122 Using cfiCommon0
          CFI (cfiCond122) Function moving_average_f
          CFI (cfiCond122) Conditional ??CrossCallReturnLabel_97
          CFI (cfiCond122) R6 load(1, XDATA, add(CFA_XSP16, literal(-20)))
          CFI (cfiCond122) VB load(1, XDATA, add(CFA_XSP16, literal(-19)))
          CFI (cfiCond122) V0 load(1, XDATA, add(CFA_XSP16, literal(-18)))
          CFI (cfiCond122) V1 load(1, XDATA, add(CFA_XSP16, literal(-17)))
          CFI (cfiCond122) V2 load(1, XDATA, add(CFA_XSP16, literal(-16)))
          CFI (cfiCond122) V3 load(1, XDATA, add(CFA_XSP16, literal(-15)))
          CFI (cfiCond122) V4 load(1, XDATA, add(CFA_XSP16, literal(-14)))
          CFI (cfiCond122) V5 load(1, XDATA, add(CFA_XSP16, literal(-13)))
          CFI (cfiCond122) V6 load(1, XDATA, add(CFA_XSP16, literal(-12)))
          CFI (cfiCond122) V7 load(1, XDATA, add(CFA_XSP16, literal(-11)))
          CFI (cfiCond122) V8 load(1, XDATA, add(CFA_XSP16, literal(-10)))
          CFI (cfiCond122) V9 load(1, XDATA, add(CFA_XSP16, literal(-9)))
          CFI (cfiCond122) V10 load(1, XDATA, add(CFA_XSP16, literal(-8)))
          CFI (cfiCond122) V11 load(1, XDATA, add(CFA_XSP16, literal(-7)))
          CFI (cfiCond122) R7 load(1, XDATA, add(CFA_XSP16, literal(-6)))
          CFI (cfiCond122) ?RET_LOW load(1, XDATA, add(CFA_XSP16, literal(-5)))
          CFI (cfiCond122) ?RET_HIGH load(1, XDATA, add(CFA_XSP16, literal(-4)))
          CFI (cfiCond122) ?BRET_EXT load(1, XDATA, add(CFA_XSP16, literal(-3)))
          CFI (cfiCond122) DPL0 load(1, XDATA, add(CFA_XSP16, literal(-2)))
          CFI (cfiCond122) DPH0 load(1, XDATA, add(CFA_XSP16, literal(-1)))
          CFI (cfiCond122) CFA_SP SP+0
          CFI (cfiCond122) CFA_XSP16 add(XSP16, 20)
          CFI Block cfiPicker123 Using cfiCommon1
          CFI (cfiPicker123) NoFunction
          CFI (cfiPicker123) Picker
        MOV     ?V0 + 8,R4
        MOV     A,R5
        MOV     ?V0 + 9,A
        RLC     A
        SUBB    A,0xE0 /* A   */
        MOV     ?V0 + 10,A
        MOV     ?V0 + 11,A
        MOV     R0,#?V0 + 8
        RET
          CFI EndBlock cfiCond121
          CFI EndBlock cfiCond122
          CFI EndBlock cfiPicker123

        RSEG BANKED_CODE:CODE:NOROOT(0)
?Subroutine7:
          CFI Block cfiCond124 Using cfiCommon0
          CFI Function moving_average
          CFI Conditional ??CrossCallReturnLabel_13
          CFI R6 load(1, XDATA, add(CFA_XSP16, literal(-20)))
          CFI VB load(1, XDATA, add(CFA_XSP16, literal(-19)))
          CFI V0 load(1, XDATA, add(CFA_XSP16, literal(-18)))
          CFI V1 load(1, XDATA, add(CFA_XSP16, literal(-17)))
          CFI V2 load(1, XDATA, add(CFA_XSP16, literal(-16)))
          CFI V3 load(1, XDATA, add(CFA_XSP16, literal(-15)))
          CFI V4 load(1, XDATA, add(CFA_XSP16, literal(-14)))
          CFI V5 load(1, XDATA, add(CFA_XSP16, literal(-13)))
          CFI V6 load(1, XDATA, add(CFA_XSP16, literal(-12)))
          CFI V7 load(1, XDATA, add(CFA_XSP16, literal(-11)))
          CFI V8 load(1, XDATA, add(CFA_XSP16, literal(-10)))
          CFI V9 load(1, XDATA, add(CFA_XSP16, literal(-9)))
          CFI V10 load(1, XDATA, add(CFA_XSP16, literal(-8)))
          CFI V11 load(1, XDATA, add(CFA_XSP16, literal(-7)))
          CFI R7 load(1, XDATA, add(CFA_XSP16, literal(-6)))
          CFI ?RET_LOW load(1, XDATA, add(CFA_XSP16, literal(-5)))
          CFI ?RET_HIGH load(1, XDATA, add(CFA_XSP16, literal(-4)))
          CFI ?BRET_EXT load(1, XDATA, add(CFA_XSP16, literal(-3)))
          CFI DPL0 load(1, XDATA, add(CFA_XSP16, literal(-2)))
          CFI DPH0 load(1, XDATA, add(CFA_XSP16, literal(-1)))
          CFI CFA_SP SP+0
          CFI CFA_XSP16 add(XSP16, 20)
          CFI Block cfiCond125 Using cfiCommon0
          CFI (cfiCond125) Function moving_average_f
          CFI (cfiCond125) Conditional ??CrossCallReturnLabel_14
          CFI (cfiCond125) R6 load(1, XDATA, add(CFA_XSP16, literal(-20)))
          CFI (cfiCond125) VB load(1, XDATA, add(CFA_XSP16, literal(-19)))
          CFI (cfiCond125) V0 load(1, XDATA, add(CFA_XSP16, literal(-18)))
          CFI (cfiCond125) V1 load(1, XDATA, add(CFA_XSP16, literal(-17)))
          CFI (cfiCond125) V2 load(1, XDATA, add(CFA_XSP16, literal(-16)))
          CFI (cfiCond125) V3 load(1, XDATA, add(CFA_XSP16, literal(-15)))
          CFI (cfiCond125) V4 load(1, XDATA, add(CFA_XSP16, literal(-14)))
          CFI (cfiCond125) V5 load(1, XDATA, add(CFA_XSP16, literal(-13)))
          CFI (cfiCond125) V6 load(1, XDATA, add(CFA_XSP16, literal(-12)))
          CFI (cfiCond125) V7 load(1, XDATA, add(CFA_XSP16, literal(-11)))
          CFI (cfiCond125) V8 load(1, XDATA, add(CFA_XSP16, literal(-10)))
          CFI (cfiCond125) V9 load(1, XDATA, add(CFA_XSP16, literal(-9)))
          CFI (cfiCond125) V10 load(1, XDATA, add(CFA_XSP16, literal(-8)))
          CFI (cfiCond125) V11 load(1, XDATA, add(CFA_XSP16, literal(-7)))
          CFI (cfiCond125) R7 load(1, XDATA, add(CFA_XSP16, literal(-6)))
          CFI (cfiCond125) ?RET_LOW load(1, XDATA, add(CFA_XSP16, literal(-5)))
          CFI (cfiCond125) ?RET_HIGH load(1, XDATA, add(CFA_XSP16, literal(-4)))
          CFI (cfiCond125) ?BRET_EXT load(1, XDATA, add(CFA_XSP16, literal(-3)))
          CFI (cfiCond125) DPL0 load(1, XDATA, add(CFA_XSP16, literal(-2)))
          CFI (cfiCond125) DPH0 load(1, XDATA, add(CFA_XSP16, literal(-1)))
          CFI (cfiCond125) CFA_SP SP+0
          CFI (cfiCond125) CFA_XSP16 add(XSP16, 20)
          CFI Block cfiPicker126 Using cfiCommon1
          CFI (cfiPicker126) NoFunction
          CFI (cfiPicker126) Picker
        MOVX    A,@DPTR
        MOV     R0,A
        INC     DPTR
        MOVX    A,@DPTR
        MOV     R1,A
        MOV     DPL,R0
        MOV     DPH,R1
        MOVX    A,@DPTR
        ADD     A,#0x1
        MOVX    @DPTR,A
        INC     DPTR
        MOVX    A,@DPTR
        ADDC    A,#0x0
        MOVX    @DPTR,A
        MOV     A,R0
        ADD     A,#0x2
        RET
          CFI EndBlock cfiCond124
          CFI EndBlock cfiCond125
          CFI EndBlock cfiPicker126
//  233 
//  234 
//  235 
//  236 /*********************************************************************
//  237  * @fn      gaussianfilter
//  238  *
//  239  * @brief   filter for received rssi data
//  240  *
//  241  * @param   rssi rssi array, the result will be stored in xposition and yposition
//  242  *
//  243  * @return  none
//  244  */

        RSEG BANKED_CODE:CODE:NOROOT(0)
//  245 float gaussianfilter(int8* rssi, int length)
gaussianfilter:
          CFI Block cfiBlock127 Using cfiCommon0
          CFI Function gaussianfilter
        CODE
//  246 {
        MOV     A,#-0x18
        LCALL   ?BANKED_ENTER_XDATA
          CFI DPH0 load(1, XDATA, add(CFA_XSP16, literal(-1)))
          CFI DPL0 load(1, XDATA, add(CFA_XSP16, literal(-2)))
          CFI ?BRET_EXT load(1, XDATA, add(CFA_XSP16, literal(-3)))
          CFI ?RET_HIGH load(1, XDATA, add(CFA_XSP16, literal(-4)))
          CFI ?RET_LOW load(1, XDATA, add(CFA_XSP16, literal(-5)))
          CFI R7 load(1, XDATA, add(CFA_XSP16, literal(-6)))
          CFI V15 load(1, XDATA, add(CFA_XSP16, literal(-7)))
          CFI V14 load(1, XDATA, add(CFA_XSP16, literal(-8)))
          CFI V13 load(1, XDATA, add(CFA_XSP16, literal(-9)))
          CFI V12 load(1, XDATA, add(CFA_XSP16, literal(-10)))
          CFI V11 load(1, XDATA, add(CFA_XSP16, literal(-11)))
          CFI V10 load(1, XDATA, add(CFA_XSP16, literal(-12)))
          CFI V9 load(1, XDATA, add(CFA_XSP16, literal(-13)))
          CFI V8 load(1, XDATA, add(CFA_XSP16, literal(-14)))
          CFI V7 load(1, XDATA, add(CFA_XSP16, literal(-15)))
          CFI V6 load(1, XDATA, add(CFA_XSP16, literal(-16)))
          CFI V5 load(1, XDATA, add(CFA_XSP16, literal(-17)))
          CFI V4 load(1, XDATA, add(CFA_XSP16, literal(-18)))
          CFI V3 load(1, XDATA, add(CFA_XSP16, literal(-19)))
          CFI V2 load(1, XDATA, add(CFA_XSP16, literal(-20)))
          CFI V1 load(1, XDATA, add(CFA_XSP16, literal(-21)))
          CFI V0 load(1, XDATA, add(CFA_XSP16, literal(-22)))
          CFI VB load(1, XDATA, add(CFA_XSP16, literal(-23)))
          CFI R6 load(1, XDATA, add(CFA_XSP16, literal(-24)))
          CFI CFA_SP SP+0
          CFI CFA_XSP16 add(XSP16, 24)
        ; Saved register size: 24
        ; Auto size: 12
        MOV     A,#-0xc
        LCALL   ?ALLOC_XSTACK8
          CFI CFA_XSP16 add(XSP16, 36)
        MOV     A,#0x2
        LCALL   ?XSTACK_DISP0_8
        LCALL   ?Subroutine20 & 0xFFFF
//  247   float mu=0.0;
??CrossCallReturnLabel_57:
        MOV     ?V0 + 12,#0x0
        MOV     ?V0 + 13,#0x0
        MOV     ?V0 + 14,#0x0
        MOV     ?V0 + 15,#0x0
//  248   float variance=0.0;
        MOV     A,#0x4
        LCALL   ?XSTACK_DISP0_8
        CLR     A
        MOVX    @DPTR,A
        INC     DPTR
        MOVX    @DPTR,A
        INC     DPTR
        MOVX    @DPTR,A
        INC     DPTR
        MOVX    @DPTR,A
//  249   float newmean=0.0;
        MOV     ?V0 + 4,A
        MOV     ?V0 + 5,A
        MOV     ?V0 + 6,A
        MOV     ?V0 + 7,A
//  250   
//  251   for (int i=0; i<length; i++)
        MOV     R2,A
        SJMP    ??gaussianfilter_0
//  252   {
//  253     mu+=*(rssi+i);
??gaussianfilter_1:
        MOV     A,#0x2
        LCALL   ?XSTACK_DISP0_8
        MOVX    A,@DPTR
        ADD     A,R2
        MOV     R0,A
        INC     DPTR
        MOVX    A,@DPTR
        ADDC    A,R3
        LCALL   ?Subroutine16 & 0xFFFF
//  254   }
??CrossCallReturnLabel_48:
        LCALL   ?L_TO_FLT
        MOV     R0,#?V0 + 0
        MOV     R1,#?V0 + 12
        LCALL   ?FLT_ADD
        MOV     ?V0 + 12,?V0 + 0
        MOV     ?V0 + 13,?V0 + 1
        MOV     ?V0 + 14,?V0 + 2
        MOV     ?V0 + 15,?V0 + 3
        MOV     A,R2
        ADD     A,#0x1
        INC     R2
        MOV     A,R3
        ADDC    A,#0x0
??gaussianfilter_0:
        MOV     R3,A
        LCALL   ?Subroutine11 & 0xFFFF
??CrossCallReturnLabel_21:
        JC      ??gaussianfilter_1
//  255   mu=mu/length;
        MOV     DPL,?XSP + 0
        MOV     DPH,?XSP + 1
        MOVX    A,@DPTR
        MOV     ?V0 + 0,A
        INC     DPTR
        MOVX    A,@DPTR
        LCALL   ?Subroutine36 & 0xFFFF
??CrossCallReturnLabel_98:
        LCALL   ?L_TO_FLT
        MOV     A,#0x8
        LCALL   ?XSTACK_DISP0_8
        MOV     R0,#?V0 + 0
        LCALL   ?L_MOV_TO_X
        MOV     A,#0x8
        LCALL   ?XSTACK_DISP0_8
        MOV     R0,#?V0 + 0
        LCALL   ?L_MOV_X
        MOV     R0,#?V0 + 12
        MOV     R1,#?V0 + 0
        LCALL   ?FLT_DIV
//  256   
//  257   for (int i=0; i<length; i++)
        MOV     R2,#0x0
        MOV     R3,#0x0
        SJMP    ??CrossCallReturnLabel_88
//  258   {
//  259     float temp=*(rssi+i);
//  260     variance+=(float)pow((mu-temp),2);
??gaussianfilter_2:
        MOV     ?V0 + 0,?V0 + 12
        MOV     ?V0 + 1,?V0 + 13
        MOV     ?V0 + 2,?V0 + 14
        MOV     ?V0 + 3,?V0 + 15
        MOV     A,#0x2
        LCALL   ?XSTACK_DISP0_8
        MOVX    A,@DPTR
        ADD     A,R2
        MOV     R0,A
        INC     DPTR
        MOVX    A,@DPTR
        ADDC    A,R3
        MOV     DPL,R0
        MOV     DPH,A
        MOVX    A,@DPTR
        MOV     ?V0 + 8,A
        RLC     A
        SUBB    A,0xE0 /* A   */
        MOV     ?V0 + 9,A
        MOV     ?V0 + 10,A
        MOV     ?V0 + 11,A
        MOV     R0,#?V0 + 8
        LCALL   ?L_TO_FLT
        MOV     R0,#?V0 + 0
        MOV     R1,#?V0 + 8
        LCALL   ?FLT_SUB
        MOV     ?V0 + 8,?V0 + 0
        MOV     ?V0 + 9,?V0 + 1
        MOV     ?V0 + 10,?V0 + 2
        MOV     ?V0 + 11,?V0 + 3
        MOV     R0,#?V0 + 0
        MOV     R1,#?V0 + 8
        LCALL   ?FLT_MUL
        MOV     A,#0x4
        LCALL   ?XSTACK_DISP0_8
        MOV     R0,#?V0 + 8
        LCALL   ?L_MOV_X
        MOV     R0,#?V0 + 0
        MOV     R1,#?V0 + 8
        LCALL   ?FLT_ADD
        MOV     A,#0x4
        LCALL   ?XSTACK_DISP0_8
        MOV     R0,#?V0 + 0
        LCALL   ?L_MOV_TO_X
//  261   }
        LCALL   ?Subroutine31 & 0xFFFF
??CrossCallReturnLabel_88:
        LCALL   ?Subroutine11 & 0xFFFF
??CrossCallReturnLabel_22:
        JC      ??gaussianfilter_2
//  262   variance=(float)(variance/length);
        MOV     A,#0x4
        LCALL   ?XSTACK_DISP0_8
        MOV     R0,#?V0 + 0
        LCALL   ?L_MOV_X
        MOV     A,#0x8
        LCALL   ?XSTACK_DISP0_8
        MOV     R0,#?V0 + 8
        LCALL   ?L_MOV_X
        MOV     R0,#?V0 + 0
        MOV     R1,#?V0 + 8
        LCALL   ?FLT_DIV
        MOV     A,#0x4
        LCALL   ?XSTACK_DISP0_8
        MOV     R0,#?V0 + 0
        LCALL   ?L_MOV_TO_X
//  263   
//  264   float intervalmin=mu-variance;
        MOV     ?V0 + 8,?V0 + 12
        MOV     ?V0 + 9,?V0 + 13
        MOV     ?V0 + 10,?V0 + 14
        MOV     ?V0 + 11,?V0 + 15
        MOV     A,#0x4
        LCALL   ?XSTACK_DISP0_8
        MOV     R0,#?V0 + 0
        LCALL   ?L_MOV_X
        MOV     R0,#?V0 + 8
        MOV     R1,#?V0 + 0
        LCALL   ?FLT_SUB
//  265   float intervalmax=mu+variance;
        MOV     A,#0x4
        LCALL   ?XSTACK_DISP0_8
        MOV     R0,#?V0 + 0
        LCALL   ?L_MOV_X
        MOV     R0,#?V0 + 12
        MOV     R1,#?V0 + 0
        LCALL   ?FLT_ADD
//  266   
//  267   int index=0;
        MOV     R2,#0x0
        MOV     R3,#0x0
//  268   for (int i=0; i<length; i++)
        MOV     R4,#0x0
        MOV     R5,#0x0
        SJMP    ??gaussianfilter_3
//  269   {
//  270     float temp=*(rssi+i);
??gaussianfilter_4:
        MOV     A,#0x2
        LCALL   ?XSTACK_DISP0_8
        MOVX    A,@DPTR
        ADD     A,R4
        MOV     R0,A
        INC     DPTR
        MOVX    A,@DPTR
        ADDC    A,R5
        LCALL   ?Subroutine16 & 0xFFFF
??CrossCallReturnLabel_49:
        LCALL   ?L_TO_FLT
//  271     if(temp<=intervalmax&&temp>=intervalmin)
        MOV     R0,#?V0 + 12
        MOV     R1,#?V0 + 0
        LCALL   ?FLT_GE
        JNC     ??gaussianfilter_5
        MOV     R0,#?V0 + 0
        MOV     R1,#?V0 + 8
        LCALL   ?FLT_GE
        JNC     ??gaussianfilter_5
//  272        {
//  273          index++;
        LCALL   ?Subroutine31 & 0xFFFF
//  274          newmean+=temp;
??CrossCallReturnLabel_89:
        MOV     R0,#?V0 + 4
        MOV     R1,#?V0 + 0
        LCALL   ?FLT_ADD
//  275        }
//  276   }
??gaussianfilter_5:
        MOV     A,R4
        ADD     A,#0x1
        INC     R4
        MOV     A,R5
        ADDC    A,#0x0
        MOV     R5,A
??gaussianfilter_3:
        MOV     DPL,?XSP + 0
        MOV     DPH,?XSP + 1
        LCALL   ?Subroutine12 & 0xFFFF
??CrossCallReturnLabel_36:
        CLR     C
        MOV     A,R4
        SUBB    A,R0
        MOV     A,R5
        SUBB    A,R1
        MOV     C,0xD0 /* PSW */.2
        XRL     A,PSW
        RLC     A
        JC      ??gaussianfilter_4
//  277   
//  278        if(index!=0)
        MOV     A,R2
        ORL     A,R3
        JZ      ??gaussianfilter_6
//  279        {
//  280          newmean=newmean/index;
        MOV     ?V0 + 0,R2
        MOV     A,R3
        LCALL   ?Subroutine36 & 0xFFFF
//  281        }
??CrossCallReturnLabel_99:
        LCALL   ?L_TO_FLT
        MOV     R0,#?V0 + 4
        MOV     R1,#?V0 + 0
        LCALL   ?FLT_DIV
//  282        
//  283   return newmean;
??gaussianfilter_6:
        MOV     R2,?V0 + 4
        MOV     R3,?V0 + 5
        MOV     R4,?V0 + 6
        MOV     R5,?V0 + 7
        MOV     A,#0xc
          CFI EndBlock cfiBlock127
        REQUIRE ?Subroutine0
        ; // Fall through to label ?Subroutine0
//  284 }

        RSEG BANKED_CODE:CODE:NOROOT(0)
?Subroutine0:
          CFI Block cfiBlock128 Using cfiCommon0
          CFI NoFunction
          CFI CFA_SP SP+0
          CFI CFA_XSP16 add(XSP16, 62)
          CFI VB load(1, XDATA, add(CFA_XSP16, literal(-23)))
          CFI DPL0 load(1, XDATA, add(CFA_XSP16, literal(-2)))
          CFI DPH0 load(1, XDATA, add(CFA_XSP16, literal(-1)))
          CFI R6 load(1, XDATA, add(CFA_XSP16, literal(-24)))
          CFI R7 load(1, XDATA, add(CFA_XSP16, literal(-6)))
          CFI V0 load(1, XDATA, add(CFA_XSP16, literal(-22)))
          CFI V1 load(1, XDATA, add(CFA_XSP16, literal(-21)))
          CFI V2 load(1, XDATA, add(CFA_XSP16, literal(-20)))
          CFI V3 load(1, XDATA, add(CFA_XSP16, literal(-19)))
          CFI V4 load(1, XDATA, add(CFA_XSP16, literal(-18)))
          CFI V5 load(1, XDATA, add(CFA_XSP16, literal(-17)))
          CFI V6 load(1, XDATA, add(CFA_XSP16, literal(-16)))
          CFI V7 load(1, XDATA, add(CFA_XSP16, literal(-15)))
          CFI V8 load(1, XDATA, add(CFA_XSP16, literal(-14)))
          CFI V9 load(1, XDATA, add(CFA_XSP16, literal(-13)))
          CFI V10 load(1, XDATA, add(CFA_XSP16, literal(-12)))
          CFI V11 load(1, XDATA, add(CFA_XSP16, literal(-11)))
          CFI V12 load(1, XDATA, add(CFA_XSP16, literal(-10)))
          CFI V13 load(1, XDATA, add(CFA_XSP16, literal(-9)))
          CFI V14 load(1, XDATA, add(CFA_XSP16, literal(-8)))
          CFI V15 load(1, XDATA, add(CFA_XSP16, literal(-7)))
          CFI ?BRET_EXT load(1, XDATA, add(CFA_XSP16, literal(-3)))
          CFI ?RET_HIGH load(1, XDATA, add(CFA_XSP16, literal(-4)))
          CFI ?RET_LOW load(1, XDATA, add(CFA_XSP16, literal(-5)))
          CFI Invalid
        LCALL   ?DEALLOC_XSTACK8
          CFI CFA_XSP16 add(XSP16, 24)
          CFI Valid
        MOV     R7,#0x10
        LJMP    ?BANKED_LEAVE_XDATA
          CFI EndBlock cfiBlock128

        RSEG BANKED_CODE:CODE:NOROOT(0)
?Subroutine36:
          CFI Block cfiCond129 Using cfiCommon0
          CFI Function gaussianfilter
          CFI Conditional ??CrossCallReturnLabel_98
          CFI R6 load(1, XDATA, add(CFA_XSP16, literal(-24)))
          CFI VB load(1, XDATA, add(CFA_XSP16, literal(-23)))
          CFI V0 load(1, XDATA, add(CFA_XSP16, literal(-22)))
          CFI V1 load(1, XDATA, add(CFA_XSP16, literal(-21)))
          CFI V2 load(1, XDATA, add(CFA_XSP16, literal(-20)))
          CFI V3 load(1, XDATA, add(CFA_XSP16, literal(-19)))
          CFI V4 load(1, XDATA, add(CFA_XSP16, literal(-18)))
          CFI V5 load(1, XDATA, add(CFA_XSP16, literal(-17)))
          CFI V6 load(1, XDATA, add(CFA_XSP16, literal(-16)))
          CFI V7 load(1, XDATA, add(CFA_XSP16, literal(-15)))
          CFI V8 load(1, XDATA, add(CFA_XSP16, literal(-14)))
          CFI V9 load(1, XDATA, add(CFA_XSP16, literal(-13)))
          CFI V10 load(1, XDATA, add(CFA_XSP16, literal(-12)))
          CFI V11 load(1, XDATA, add(CFA_XSP16, literal(-11)))
          CFI V12 load(1, XDATA, add(CFA_XSP16, literal(-10)))
          CFI V13 load(1, XDATA, add(CFA_XSP16, literal(-9)))
          CFI V14 load(1, XDATA, add(CFA_XSP16, literal(-8)))
          CFI V15 load(1, XDATA, add(CFA_XSP16, literal(-7)))
          CFI R7 load(1, XDATA, add(CFA_XSP16, literal(-6)))
          CFI ?RET_LOW load(1, XDATA, add(CFA_XSP16, literal(-5)))
          CFI ?RET_HIGH load(1, XDATA, add(CFA_XSP16, literal(-4)))
          CFI ?BRET_EXT load(1, XDATA, add(CFA_XSP16, literal(-3)))
          CFI DPL0 load(1, XDATA, add(CFA_XSP16, literal(-2)))
          CFI DPH0 load(1, XDATA, add(CFA_XSP16, literal(-1)))
          CFI CFA_SP SP+0
          CFI CFA_XSP16 add(XSP16, 36)
          CFI Block cfiCond130 Using cfiCommon0
          CFI (cfiCond130) Function gaussianfilter
          CFI (cfiCond130) Conditional ??CrossCallReturnLabel_99
          CFI (cfiCond130) R6 load(1, XDATA, add(CFA_XSP16, literal(-24)))
          CFI (cfiCond130) VB load(1, XDATA, add(CFA_XSP16, literal(-23)))
          CFI (cfiCond130) V0 load(1, XDATA, add(CFA_XSP16, literal(-22)))
          CFI (cfiCond130) V1 load(1, XDATA, add(CFA_XSP16, literal(-21)))
          CFI (cfiCond130) V2 load(1, XDATA, add(CFA_XSP16, literal(-20)))
          CFI (cfiCond130) V3 load(1, XDATA, add(CFA_XSP16, literal(-19)))
          CFI (cfiCond130) V4 load(1, XDATA, add(CFA_XSP16, literal(-18)))
          CFI (cfiCond130) V5 load(1, XDATA, add(CFA_XSP16, literal(-17)))
          CFI (cfiCond130) V6 load(1, XDATA, add(CFA_XSP16, literal(-16)))
          CFI (cfiCond130) V7 load(1, XDATA, add(CFA_XSP16, literal(-15)))
          CFI (cfiCond130) V8 load(1, XDATA, add(CFA_XSP16, literal(-14)))
          CFI (cfiCond130) V9 load(1, XDATA, add(CFA_XSP16, literal(-13)))
          CFI (cfiCond130) V10 load(1, XDATA, add(CFA_XSP16, literal(-12)))
          CFI (cfiCond130) V11 load(1, XDATA, add(CFA_XSP16, literal(-11)))
          CFI (cfiCond130) V12 load(1, XDATA, add(CFA_XSP16, literal(-10)))
          CFI (cfiCond130) V13 load(1, XDATA, add(CFA_XSP16, literal(-9)))
          CFI (cfiCond130) V14 load(1, XDATA, add(CFA_XSP16, literal(-8)))
          CFI (cfiCond130) V15 load(1, XDATA, add(CFA_XSP16, literal(-7)))
          CFI (cfiCond130) R7 load(1, XDATA, add(CFA_XSP16, literal(-6)))
          CFI (cfiCond130) ?RET_LOW load(1, XDATA, add(CFA_XSP16, literal(-5)))
          CFI (cfiCond130) ?RET_HIGH load(1, XDATA, add(CFA_XSP16, literal(-4)))
          CFI (cfiCond130) ?BRET_EXT load(1, XDATA, add(CFA_XSP16, literal(-3)))
          CFI (cfiCond130) DPL0 load(1, XDATA, add(CFA_XSP16, literal(-2)))
          CFI (cfiCond130) DPH0 load(1, XDATA, add(CFA_XSP16, literal(-1)))
          CFI (cfiCond130) CFA_SP SP+0
          CFI (cfiCond130) CFA_XSP16 add(XSP16, 36)
          CFI Block cfiPicker131 Using cfiCommon1
          CFI (cfiPicker131) NoFunction
          CFI (cfiPicker131) Picker
        MOV     ?V0 + 1,A
        RLC     A
        SUBB    A,0xE0 /* A   */
        MOV     ?V0 + 2,A
        MOV     ?V0 + 3,A
        MOV     R0,#?V0 + 0
        RET
          CFI EndBlock cfiCond129
          CFI EndBlock cfiCond130
          CFI EndBlock cfiPicker131

        RSEG BANKED_CODE:CODE:NOROOT(0)
?Subroutine31:
          CFI Block cfiCond132 Using cfiCommon0
          CFI Function moving_average_f
          CFI Conditional ??CrossCallReturnLabel_87
          CFI R6 load(1, XDATA, add(CFA_XSP16, literal(-20)))
          CFI VB load(1, XDATA, add(CFA_XSP16, literal(-19)))
          CFI V0 load(1, XDATA, add(CFA_XSP16, literal(-18)))
          CFI V1 load(1, XDATA, add(CFA_XSP16, literal(-17)))
          CFI V2 load(1, XDATA, add(CFA_XSP16, literal(-16)))
          CFI V3 load(1, XDATA, add(CFA_XSP16, literal(-15)))
          CFI V4 load(1, XDATA, add(CFA_XSP16, literal(-14)))
          CFI V5 load(1, XDATA, add(CFA_XSP16, literal(-13)))
          CFI V6 load(1, XDATA, add(CFA_XSP16, literal(-12)))
          CFI V7 load(1, XDATA, add(CFA_XSP16, literal(-11)))
          CFI V8 load(1, XDATA, add(CFA_XSP16, literal(-10)))
          CFI V9 load(1, XDATA, add(CFA_XSP16, literal(-9)))
          CFI V10 load(1, XDATA, add(CFA_XSP16, literal(-8)))
          CFI V11 load(1, XDATA, add(CFA_XSP16, literal(-7)))
          CFI R7 load(1, XDATA, add(CFA_XSP16, literal(-6)))
          CFI ?RET_LOW load(1, XDATA, add(CFA_XSP16, literal(-5)))
          CFI ?RET_HIGH load(1, XDATA, add(CFA_XSP16, literal(-4)))
          CFI ?BRET_EXT load(1, XDATA, add(CFA_XSP16, literal(-3)))
          CFI DPL0 load(1, XDATA, add(CFA_XSP16, literal(-2)))
          CFI DPH0 load(1, XDATA, add(CFA_XSP16, literal(-1)))
          CFI CFA_SP SP+0
          CFI CFA_XSP16 add(XSP16, 20)
          CFI Block cfiCond133 Using cfiCommon0
          CFI (cfiCond133) Function gaussianfilter
          CFI (cfiCond133) Conditional ??CrossCallReturnLabel_88
          CFI (cfiCond133) R6 load(1, XDATA, add(CFA_XSP16, literal(-24)))
          CFI (cfiCond133) VB load(1, XDATA, add(CFA_XSP16, literal(-23)))
          CFI (cfiCond133) V0 load(1, XDATA, add(CFA_XSP16, literal(-22)))
          CFI (cfiCond133) V1 load(1, XDATA, add(CFA_XSP16, literal(-21)))
          CFI (cfiCond133) V2 load(1, XDATA, add(CFA_XSP16, literal(-20)))
          CFI (cfiCond133) V3 load(1, XDATA, add(CFA_XSP16, literal(-19)))
          CFI (cfiCond133) V4 load(1, XDATA, add(CFA_XSP16, literal(-18)))
          CFI (cfiCond133) V5 load(1, XDATA, add(CFA_XSP16, literal(-17)))
          CFI (cfiCond133) V6 load(1, XDATA, add(CFA_XSP16, literal(-16)))
          CFI (cfiCond133) V7 load(1, XDATA, add(CFA_XSP16, literal(-15)))
          CFI (cfiCond133) V8 load(1, XDATA, add(CFA_XSP16, literal(-14)))
          CFI (cfiCond133) V9 load(1, XDATA, add(CFA_XSP16, literal(-13)))
          CFI (cfiCond133) V10 load(1, XDATA, add(CFA_XSP16, literal(-12)))
          CFI (cfiCond133) V11 load(1, XDATA, add(CFA_XSP16, literal(-11)))
          CFI (cfiCond133) V12 load(1, XDATA, add(CFA_XSP16, literal(-10)))
          CFI (cfiCond133) V13 load(1, XDATA, add(CFA_XSP16, literal(-9)))
          CFI (cfiCond133) V14 load(1, XDATA, add(CFA_XSP16, literal(-8)))
          CFI (cfiCond133) V15 load(1, XDATA, add(CFA_XSP16, literal(-7)))
          CFI (cfiCond133) R7 load(1, XDATA, add(CFA_XSP16, literal(-6)))
          CFI (cfiCond133) ?RET_LOW load(1, XDATA, add(CFA_XSP16, literal(-5)))
          CFI (cfiCond133) ?RET_HIGH load(1, XDATA, add(CFA_XSP16, literal(-4)))
          CFI (cfiCond133) ?BRET_EXT load(1, XDATA, add(CFA_XSP16, literal(-3)))
          CFI (cfiCond133) DPL0 load(1, XDATA, add(CFA_XSP16, literal(-2)))
          CFI (cfiCond133) DPH0 load(1, XDATA, add(CFA_XSP16, literal(-1)))
          CFI (cfiCond133) CFA_SP SP+0
          CFI (cfiCond133) CFA_XSP16 add(XSP16, 36)
          CFI Block cfiCond134 Using cfiCommon0
          CFI (cfiCond134) Function gaussianfilter
          CFI (cfiCond134) Conditional ??CrossCallReturnLabel_89
          CFI (cfiCond134) R6 load(1, XDATA, add(CFA_XSP16, literal(-24)))
          CFI (cfiCond134) VB load(1, XDATA, add(CFA_XSP16, literal(-23)))
          CFI (cfiCond134) V0 load(1, XDATA, add(CFA_XSP16, literal(-22)))
          CFI (cfiCond134) V1 load(1, XDATA, add(CFA_XSP16, literal(-21)))
          CFI (cfiCond134) V2 load(1, XDATA, add(CFA_XSP16, literal(-20)))
          CFI (cfiCond134) V3 load(1, XDATA, add(CFA_XSP16, literal(-19)))
          CFI (cfiCond134) V4 load(1, XDATA, add(CFA_XSP16, literal(-18)))
          CFI (cfiCond134) V5 load(1, XDATA, add(CFA_XSP16, literal(-17)))
          CFI (cfiCond134) V6 load(1, XDATA, add(CFA_XSP16, literal(-16)))
          CFI (cfiCond134) V7 load(1, XDATA, add(CFA_XSP16, literal(-15)))
          CFI (cfiCond134) V8 load(1, XDATA, add(CFA_XSP16, literal(-14)))
          CFI (cfiCond134) V9 load(1, XDATA, add(CFA_XSP16, literal(-13)))
          CFI (cfiCond134) V10 load(1, XDATA, add(CFA_XSP16, literal(-12)))
          CFI (cfiCond134) V11 load(1, XDATA, add(CFA_XSP16, literal(-11)))
          CFI (cfiCond134) V12 load(1, XDATA, add(CFA_XSP16, literal(-10)))
          CFI (cfiCond134) V13 load(1, XDATA, add(CFA_XSP16, literal(-9)))
          CFI (cfiCond134) V14 load(1, XDATA, add(CFA_XSP16, literal(-8)))
          CFI (cfiCond134) V15 load(1, XDATA, add(CFA_XSP16, literal(-7)))
          CFI (cfiCond134) R7 load(1, XDATA, add(CFA_XSP16, literal(-6)))
          CFI (cfiCond134) ?RET_LOW load(1, XDATA, add(CFA_XSP16, literal(-5)))
          CFI (cfiCond134) ?RET_HIGH load(1, XDATA, add(CFA_XSP16, literal(-4)))
          CFI (cfiCond134) ?BRET_EXT load(1, XDATA, add(CFA_XSP16, literal(-3)))
          CFI (cfiCond134) DPL0 load(1, XDATA, add(CFA_XSP16, literal(-2)))
          CFI (cfiCond134) DPH0 load(1, XDATA, add(CFA_XSP16, literal(-1)))
          CFI (cfiCond134) CFA_SP SP+0
          CFI (cfiCond134) CFA_XSP16 add(XSP16, 36)
          CFI Block cfiPicker135 Using cfiCommon1
          CFI (cfiPicker135) NoFunction
          CFI (cfiPicker135) Picker
        MOV     A,R2
        ADD     A,#0x1
        INC     R2
        MOV     A,R3
        ADDC    A,#0x0
        MOV     R3,A
        RET
          CFI EndBlock cfiCond132
          CFI EndBlock cfiCond133
          CFI EndBlock cfiCond134
          CFI EndBlock cfiPicker135

        RSEG BANKED_CODE:CODE:NOROOT(0)
?Subroutine20:
          CFI Block cfiCond136 Using cfiCommon0
          CFI Function SampleApp_WCL_localization
          CFI Conditional ??CrossCallReturnLabel_56
          CFI R6 load(1, XDATA, add(CFA_XSP16, literal(-24)))
          CFI VB load(1, XDATA, add(CFA_XSP16, literal(-23)))
          CFI V0 load(1, XDATA, add(CFA_XSP16, literal(-22)))
          CFI V1 load(1, XDATA, add(CFA_XSP16, literal(-21)))
          CFI V2 load(1, XDATA, add(CFA_XSP16, literal(-20)))
          CFI V3 load(1, XDATA, add(CFA_XSP16, literal(-19)))
          CFI V4 load(1, XDATA, add(CFA_XSP16, literal(-18)))
          CFI V5 load(1, XDATA, add(CFA_XSP16, literal(-17)))
          CFI V6 load(1, XDATA, add(CFA_XSP16, literal(-16)))
          CFI V7 load(1, XDATA, add(CFA_XSP16, literal(-15)))
          CFI V8 load(1, XDATA, add(CFA_XSP16, literal(-14)))
          CFI V9 load(1, XDATA, add(CFA_XSP16, literal(-13)))
          CFI V10 load(1, XDATA, add(CFA_XSP16, literal(-12)))
          CFI V11 load(1, XDATA, add(CFA_XSP16, literal(-11)))
          CFI V12 load(1, XDATA, add(CFA_XSP16, literal(-10)))
          CFI V13 load(1, XDATA, add(CFA_XSP16, literal(-9)))
          CFI V14 load(1, XDATA, add(CFA_XSP16, literal(-8)))
          CFI V15 load(1, XDATA, add(CFA_XSP16, literal(-7)))
          CFI R7 load(1, XDATA, add(CFA_XSP16, literal(-6)))
          CFI ?RET_LOW load(1, XDATA, add(CFA_XSP16, literal(-5)))
          CFI ?RET_HIGH load(1, XDATA, add(CFA_XSP16, literal(-4)))
          CFI ?BRET_EXT load(1, XDATA, add(CFA_XSP16, literal(-3)))
          CFI DPL0 load(1, XDATA, add(CFA_XSP16, literal(-2)))
          CFI DPH0 load(1, XDATA, add(CFA_XSP16, literal(-1)))
          CFI CFA_SP SP+0
          CFI CFA_XSP16 add(XSP16, 68)
          CFI Block cfiCond137 Using cfiCommon0
          CFI (cfiCond137) Function gaussianfilter
          CFI (cfiCond137) Conditional ??CrossCallReturnLabel_57
          CFI (cfiCond137) R6 load(1, XDATA, add(CFA_XSP16, literal(-24)))
          CFI (cfiCond137) VB load(1, XDATA, add(CFA_XSP16, literal(-23)))
          CFI (cfiCond137) V0 load(1, XDATA, add(CFA_XSP16, literal(-22)))
          CFI (cfiCond137) V1 load(1, XDATA, add(CFA_XSP16, literal(-21)))
          CFI (cfiCond137) V2 load(1, XDATA, add(CFA_XSP16, literal(-20)))
          CFI (cfiCond137) V3 load(1, XDATA, add(CFA_XSP16, literal(-19)))
          CFI (cfiCond137) V4 load(1, XDATA, add(CFA_XSP16, literal(-18)))
          CFI (cfiCond137) V5 load(1, XDATA, add(CFA_XSP16, literal(-17)))
          CFI (cfiCond137) V6 load(1, XDATA, add(CFA_XSP16, literal(-16)))
          CFI (cfiCond137) V7 load(1, XDATA, add(CFA_XSP16, literal(-15)))
          CFI (cfiCond137) V8 load(1, XDATA, add(CFA_XSP16, literal(-14)))
          CFI (cfiCond137) V9 load(1, XDATA, add(CFA_XSP16, literal(-13)))
          CFI (cfiCond137) V10 load(1, XDATA, add(CFA_XSP16, literal(-12)))
          CFI (cfiCond137) V11 load(1, XDATA, add(CFA_XSP16, literal(-11)))
          CFI (cfiCond137) V12 load(1, XDATA, add(CFA_XSP16, literal(-10)))
          CFI (cfiCond137) V13 load(1, XDATA, add(CFA_XSP16, literal(-9)))
          CFI (cfiCond137) V14 load(1, XDATA, add(CFA_XSP16, literal(-8)))
          CFI (cfiCond137) V15 load(1, XDATA, add(CFA_XSP16, literal(-7)))
          CFI (cfiCond137) R7 load(1, XDATA, add(CFA_XSP16, literal(-6)))
          CFI (cfiCond137) ?RET_LOW load(1, XDATA, add(CFA_XSP16, literal(-5)))
          CFI (cfiCond137) ?RET_HIGH load(1, XDATA, add(CFA_XSP16, literal(-4)))
          CFI (cfiCond137) ?BRET_EXT load(1, XDATA, add(CFA_XSP16, literal(-3)))
          CFI (cfiCond137) DPL0 load(1, XDATA, add(CFA_XSP16, literal(-2)))
          CFI (cfiCond137) DPH0 load(1, XDATA, add(CFA_XSP16, literal(-1)))
          CFI (cfiCond137) CFA_SP SP+0
          CFI (cfiCond137) CFA_XSP16 add(XSP16, 36)
          CFI Block cfiPicker138 Using cfiCommon1
          CFI (cfiPicker138) NoFunction
          CFI (cfiPicker138) Picker
        MOV     A,R2
        MOVX    @DPTR,A
        INC     DPTR
        MOV     A,R3
        MOVX    @DPTR,A
        MOV     DPL,?XSP + 0
        MOV     DPH,?XSP + 1
        MOV     A,R4
        MOVX    @DPTR,A
        INC     DPTR
        MOV     A,R5
        MOVX    @DPTR,A
        RET
          CFI EndBlock cfiCond136
          CFI EndBlock cfiCond137
          CFI EndBlock cfiPicker138

        RSEG BANKED_CODE:CODE:NOROOT(0)
?Subroutine16:
          CFI Block cfiCond139 Using cfiCommon0
          CFI Function gaussianfilter
          CFI Conditional ??CrossCallReturnLabel_48
          CFI R6 load(1, XDATA, add(CFA_XSP16, literal(-24)))
          CFI VB load(1, XDATA, add(CFA_XSP16, literal(-23)))
          CFI V0 load(1, XDATA, add(CFA_XSP16, literal(-22)))
          CFI V1 load(1, XDATA, add(CFA_XSP16, literal(-21)))
          CFI V2 load(1, XDATA, add(CFA_XSP16, literal(-20)))
          CFI V3 load(1, XDATA, add(CFA_XSP16, literal(-19)))
          CFI V4 load(1, XDATA, add(CFA_XSP16, literal(-18)))
          CFI V5 load(1, XDATA, add(CFA_XSP16, literal(-17)))
          CFI V6 load(1, XDATA, add(CFA_XSP16, literal(-16)))
          CFI V7 load(1, XDATA, add(CFA_XSP16, literal(-15)))
          CFI V8 load(1, XDATA, add(CFA_XSP16, literal(-14)))
          CFI V9 load(1, XDATA, add(CFA_XSP16, literal(-13)))
          CFI V10 load(1, XDATA, add(CFA_XSP16, literal(-12)))
          CFI V11 load(1, XDATA, add(CFA_XSP16, literal(-11)))
          CFI V12 load(1, XDATA, add(CFA_XSP16, literal(-10)))
          CFI V13 load(1, XDATA, add(CFA_XSP16, literal(-9)))
          CFI V14 load(1, XDATA, add(CFA_XSP16, literal(-8)))
          CFI V15 load(1, XDATA, add(CFA_XSP16, literal(-7)))
          CFI R7 load(1, XDATA, add(CFA_XSP16, literal(-6)))
          CFI ?RET_LOW load(1, XDATA, add(CFA_XSP16, literal(-5)))
          CFI ?RET_HIGH load(1, XDATA, add(CFA_XSP16, literal(-4)))
          CFI ?BRET_EXT load(1, XDATA, add(CFA_XSP16, literal(-3)))
          CFI DPL0 load(1, XDATA, add(CFA_XSP16, literal(-2)))
          CFI DPH0 load(1, XDATA, add(CFA_XSP16, literal(-1)))
          CFI CFA_SP SP+0
          CFI CFA_XSP16 add(XSP16, 36)
          CFI Block cfiCond140 Using cfiCommon0
          CFI (cfiCond140) Function gaussianfilter
          CFI (cfiCond140) Conditional ??CrossCallReturnLabel_49
          CFI (cfiCond140) R6 load(1, XDATA, add(CFA_XSP16, literal(-24)))
          CFI (cfiCond140) VB load(1, XDATA, add(CFA_XSP16, literal(-23)))
          CFI (cfiCond140) V0 load(1, XDATA, add(CFA_XSP16, literal(-22)))
          CFI (cfiCond140) V1 load(1, XDATA, add(CFA_XSP16, literal(-21)))
          CFI (cfiCond140) V2 load(1, XDATA, add(CFA_XSP16, literal(-20)))
          CFI (cfiCond140) V3 load(1, XDATA, add(CFA_XSP16, literal(-19)))
          CFI (cfiCond140) V4 load(1, XDATA, add(CFA_XSP16, literal(-18)))
          CFI (cfiCond140) V5 load(1, XDATA, add(CFA_XSP16, literal(-17)))
          CFI (cfiCond140) V6 load(1, XDATA, add(CFA_XSP16, literal(-16)))
          CFI (cfiCond140) V7 load(1, XDATA, add(CFA_XSP16, literal(-15)))
          CFI (cfiCond140) V8 load(1, XDATA, add(CFA_XSP16, literal(-14)))
          CFI (cfiCond140) V9 load(1, XDATA, add(CFA_XSP16, literal(-13)))
          CFI (cfiCond140) V10 load(1, XDATA, add(CFA_XSP16, literal(-12)))
          CFI (cfiCond140) V11 load(1, XDATA, add(CFA_XSP16, literal(-11)))
          CFI (cfiCond140) V12 load(1, XDATA, add(CFA_XSP16, literal(-10)))
          CFI (cfiCond140) V13 load(1, XDATA, add(CFA_XSP16, literal(-9)))
          CFI (cfiCond140) V14 load(1, XDATA, add(CFA_XSP16, literal(-8)))
          CFI (cfiCond140) V15 load(1, XDATA, add(CFA_XSP16, literal(-7)))
          CFI (cfiCond140) R7 load(1, XDATA, add(CFA_XSP16, literal(-6)))
          CFI (cfiCond140) ?RET_LOW load(1, XDATA, add(CFA_XSP16, literal(-5)))
          CFI (cfiCond140) ?RET_HIGH load(1, XDATA, add(CFA_XSP16, literal(-4)))
          CFI (cfiCond140) ?BRET_EXT load(1, XDATA, add(CFA_XSP16, literal(-3)))
          CFI (cfiCond140) DPL0 load(1, XDATA, add(CFA_XSP16, literal(-2)))
          CFI (cfiCond140) DPH0 load(1, XDATA, add(CFA_XSP16, literal(-1)))
          CFI (cfiCond140) CFA_SP SP+0
          CFI (cfiCond140) CFA_XSP16 add(XSP16, 36)
          CFI Block cfiPicker141 Using cfiCommon1
          CFI (cfiPicker141) NoFunction
          CFI (cfiPicker141) Picker
        MOV     DPL,R0
        MOV     DPH,A
        MOVX    A,@DPTR
        MOV     ?V0 + 0,A
        RLC     A
        SUBB    A,0xE0 /* A   */
        MOV     ?V0 + 1,A
        MOV     ?V0 + 2,A
        MOV     ?V0 + 3,A
        MOV     R0,#?V0 + 0
        RET
          CFI EndBlock cfiCond139
          CFI EndBlock cfiCond140
          CFI EndBlock cfiPicker141

        RSEG BANKED_CODE:CODE:NOROOT(0)
?Subroutine11:
          CFI Block cfiCond142 Using cfiCommon0
          CFI Function gaussianfilter
          CFI Conditional ??CrossCallReturnLabel_21
          CFI R6 load(1, XDATA, add(CFA_XSP16, literal(-24)))
          CFI VB load(1, XDATA, add(CFA_XSP16, literal(-23)))
          CFI V0 load(1, XDATA, add(CFA_XSP16, literal(-22)))
          CFI V1 load(1, XDATA, add(CFA_XSP16, literal(-21)))
          CFI V2 load(1, XDATA, add(CFA_XSP16, literal(-20)))
          CFI V3 load(1, XDATA, add(CFA_XSP16, literal(-19)))
          CFI V4 load(1, XDATA, add(CFA_XSP16, literal(-18)))
          CFI V5 load(1, XDATA, add(CFA_XSP16, literal(-17)))
          CFI V6 load(1, XDATA, add(CFA_XSP16, literal(-16)))
          CFI V7 load(1, XDATA, add(CFA_XSP16, literal(-15)))
          CFI V8 load(1, XDATA, add(CFA_XSP16, literal(-14)))
          CFI V9 load(1, XDATA, add(CFA_XSP16, literal(-13)))
          CFI V10 load(1, XDATA, add(CFA_XSP16, literal(-12)))
          CFI V11 load(1, XDATA, add(CFA_XSP16, literal(-11)))
          CFI V12 load(1, XDATA, add(CFA_XSP16, literal(-10)))
          CFI V13 load(1, XDATA, add(CFA_XSP16, literal(-9)))
          CFI V14 load(1, XDATA, add(CFA_XSP16, literal(-8)))
          CFI V15 load(1, XDATA, add(CFA_XSP16, literal(-7)))
          CFI R7 load(1, XDATA, add(CFA_XSP16, literal(-6)))
          CFI ?RET_LOW load(1, XDATA, add(CFA_XSP16, literal(-5)))
          CFI ?RET_HIGH load(1, XDATA, add(CFA_XSP16, literal(-4)))
          CFI ?BRET_EXT load(1, XDATA, add(CFA_XSP16, literal(-3)))
          CFI DPL0 load(1, XDATA, add(CFA_XSP16, literal(-2)))
          CFI DPH0 load(1, XDATA, add(CFA_XSP16, literal(-1)))
          CFI CFA_SP SP+0
          CFI CFA_XSP16 add(XSP16, 36)
          CFI Block cfiCond143 Using cfiCommon0
          CFI (cfiCond143) Function gaussianfilter
          CFI (cfiCond143) Conditional ??CrossCallReturnLabel_22
          CFI (cfiCond143) R6 load(1, XDATA, add(CFA_XSP16, literal(-24)))
          CFI (cfiCond143) VB load(1, XDATA, add(CFA_XSP16, literal(-23)))
          CFI (cfiCond143) V0 load(1, XDATA, add(CFA_XSP16, literal(-22)))
          CFI (cfiCond143) V1 load(1, XDATA, add(CFA_XSP16, literal(-21)))
          CFI (cfiCond143) V2 load(1, XDATA, add(CFA_XSP16, literal(-20)))
          CFI (cfiCond143) V3 load(1, XDATA, add(CFA_XSP16, literal(-19)))
          CFI (cfiCond143) V4 load(1, XDATA, add(CFA_XSP16, literal(-18)))
          CFI (cfiCond143) V5 load(1, XDATA, add(CFA_XSP16, literal(-17)))
          CFI (cfiCond143) V6 load(1, XDATA, add(CFA_XSP16, literal(-16)))
          CFI (cfiCond143) V7 load(1, XDATA, add(CFA_XSP16, literal(-15)))
          CFI (cfiCond143) V8 load(1, XDATA, add(CFA_XSP16, literal(-14)))
          CFI (cfiCond143) V9 load(1, XDATA, add(CFA_XSP16, literal(-13)))
          CFI (cfiCond143) V10 load(1, XDATA, add(CFA_XSP16, literal(-12)))
          CFI (cfiCond143) V11 load(1, XDATA, add(CFA_XSP16, literal(-11)))
          CFI (cfiCond143) V12 load(1, XDATA, add(CFA_XSP16, literal(-10)))
          CFI (cfiCond143) V13 load(1, XDATA, add(CFA_XSP16, literal(-9)))
          CFI (cfiCond143) V14 load(1, XDATA, add(CFA_XSP16, literal(-8)))
          CFI (cfiCond143) V15 load(1, XDATA, add(CFA_XSP16, literal(-7)))
          CFI (cfiCond143) R7 load(1, XDATA, add(CFA_XSP16, literal(-6)))
          CFI (cfiCond143) ?RET_LOW load(1, XDATA, add(CFA_XSP16, literal(-5)))
          CFI (cfiCond143) ?RET_HIGH load(1, XDATA, add(CFA_XSP16, literal(-4)))
          CFI (cfiCond143) ?BRET_EXT load(1, XDATA, add(CFA_XSP16, literal(-3)))
          CFI (cfiCond143) DPL0 load(1, XDATA, add(CFA_XSP16, literal(-2)))
          CFI (cfiCond143) DPH0 load(1, XDATA, add(CFA_XSP16, literal(-1)))
          CFI (cfiCond143) CFA_SP SP+0
          CFI (cfiCond143) CFA_XSP16 add(XSP16, 36)
          CFI Block cfiPicker144 Using cfiCommon1
          CFI (cfiPicker144) NoFunction
          CFI (cfiPicker144) Picker
        MOV     DPL,?XSP + 0
        MOV     DPH,?XSP + 1
        MOVX    A,@DPTR
        MOV     R0,A
        INC     DPTR
        MOVX    A,@DPTR
        MOV     R1,A
        CLR     C
        MOV     A,R2
        SUBB    A,R0
        MOV     A,R3
        SUBB    A,R1
        MOV     C,0xD0 /* PSW */.2
        XRL     A,PSW
        RLC     A
        RET
          CFI EndBlock cfiCond142
          CFI EndBlock cfiCond143
          CFI EndBlock cfiPicker144
//  285 
//  286 /*********************************************************************
//  287  * @fn      averagefilter
//  288  *
//  289  * @brief   filter for received rssi data
//  290  *
//  291  * @param   rssi rssi array
//  292  *
//  293  * @return  none
//  294  */

        RSEG BANKED_CODE:CODE:NOROOT(0)
//  295 float averagefilter(int8* rssi, int length)
averagefilter:
          CFI Block cfiBlock145 Using cfiCommon0
          CFI Function averagefilter
        CODE
//  296 {
        MOV     A,#-0x10
        LCALL   ?BANKED_ENTER_XDATA
          CFI DPH0 load(1, XDATA, add(CFA_XSP16, literal(-1)))
          CFI DPL0 load(1, XDATA, add(CFA_XSP16, literal(-2)))
          CFI ?BRET_EXT load(1, XDATA, add(CFA_XSP16, literal(-3)))
          CFI ?RET_HIGH load(1, XDATA, add(CFA_XSP16, literal(-4)))
          CFI ?RET_LOW load(1, XDATA, add(CFA_XSP16, literal(-5)))
          CFI R7 load(1, XDATA, add(CFA_XSP16, literal(-6)))
          CFI V7 load(1, XDATA, add(CFA_XSP16, literal(-7)))
          CFI V6 load(1, XDATA, add(CFA_XSP16, literal(-8)))
          CFI V5 load(1, XDATA, add(CFA_XSP16, literal(-9)))
          CFI V4 load(1, XDATA, add(CFA_XSP16, literal(-10)))
          CFI V3 load(1, XDATA, add(CFA_XSP16, literal(-11)))
          CFI V2 load(1, XDATA, add(CFA_XSP16, literal(-12)))
          CFI V1 load(1, XDATA, add(CFA_XSP16, literal(-13)))
          CFI V0 load(1, XDATA, add(CFA_XSP16, literal(-14)))
          CFI VB load(1, XDATA, add(CFA_XSP16, literal(-15)))
          CFI R6 load(1, XDATA, add(CFA_XSP16, literal(-16)))
          CFI CFA_SP SP+0
          CFI CFA_XSP16 add(XSP16, 16)
        ; Saved register size: 16
        ; Auto size: 0
//  297   int32 mu=0;
        MOV     ?V0 + 0,#0x0
        MOV     ?V0 + 1,#0x0
        MOV     ?V0 + 2,#0x0
        MOV     ?V0 + 3,#0x0
//  298  
//  299   float newmean=0.0;
//  300   
//  301   for(int i=0; i<length; i++)
        MOV     R6,#0x0
        MOV     R7,#0x0
        SJMP    ??CrossCallReturnLabel_111
//  302    {
//  303                   mu+=(int32)*(rssi+i);
??averagefilter_0:
        MOV     A,R2
        ADD     A,R6
        MOV     DPL,A
        MOV     A,R3
        ADDC    A,R7
        MOV     DPH,A
        MOVX    A,@DPTR
        MOV     ?V0 + 4,A
        RLC     A
        SUBB    A,0xE0 /* A   */
        MOV     ?V0 + 5,A
        MOV     ?V0 + 6,A
        MOV     ?V0 + 7,A
        MOV     R0,#?V0 + 0
        MOV     R1,#?V0 + 4
        LCALL   ?L_ADD
//  304    }
        LCALL   ?Subroutine41 & 0xFFFF
??CrossCallReturnLabel_111:
        CLR     C
        MOV     A,R6
        SUBB    A,R4
        MOV     A,R7
        SUBB    A,R5
        MOV     C,0xD0 /* PSW */.2
        XRL     A,PSW
        RLC     A
        JC      ??averagefilter_0
//  305                  newmean=((float)mu)/((float)length);
//  306              
//  307        
//  308   return newmean;
        MOV     R0,#?V0 + 0
        LCALL   ?L_TO_FLT
        MOV     ?V0 + 4,R4
        MOV     A,R5
        LCALL   ?Subroutine34 & 0xFFFF
??CrossCallReturnLabel_95:
        LCALL   ?L_TO_FLT
        MOV     R0,#?V0 + 0
        MOV     R1,#?V0 + 4
        LCALL   ?FLT_DIV
        MOV     R2,?V0 + 0
        MOV     R3,?V0 + 1
        MOV     R4,?V0 + 2
        MOV     R5,?V0 + 3
        MOV     R7,#0x8
        LJMP    ?BANKED_LEAVE_XDATA
          CFI EndBlock cfiBlock145
//  309 }

        RSEG BANKED_CODE:CODE:NOROOT(0)
?Subroutine34:
          CFI Block cfiCond146 Using cfiCommon0
          CFI Function moving_average
          CFI Conditional ??CrossCallReturnLabel_94
          CFI R6 load(1, XDATA, add(CFA_XSP16, literal(-20)))
          CFI VB load(1, XDATA, add(CFA_XSP16, literal(-19)))
          CFI V0 load(1, XDATA, add(CFA_XSP16, literal(-18)))
          CFI V1 load(1, XDATA, add(CFA_XSP16, literal(-17)))
          CFI V2 load(1, XDATA, add(CFA_XSP16, literal(-16)))
          CFI V3 load(1, XDATA, add(CFA_XSP16, literal(-15)))
          CFI V4 load(1, XDATA, add(CFA_XSP16, literal(-14)))
          CFI V5 load(1, XDATA, add(CFA_XSP16, literal(-13)))
          CFI V6 load(1, XDATA, add(CFA_XSP16, literal(-12)))
          CFI V7 load(1, XDATA, add(CFA_XSP16, literal(-11)))
          CFI V8 load(1, XDATA, add(CFA_XSP16, literal(-10)))
          CFI V9 load(1, XDATA, add(CFA_XSP16, literal(-9)))
          CFI V10 load(1, XDATA, add(CFA_XSP16, literal(-8)))
          CFI V11 load(1, XDATA, add(CFA_XSP16, literal(-7)))
          CFI R7 load(1, XDATA, add(CFA_XSP16, literal(-6)))
          CFI ?RET_LOW load(1, XDATA, add(CFA_XSP16, literal(-5)))
          CFI ?RET_HIGH load(1, XDATA, add(CFA_XSP16, literal(-4)))
          CFI ?BRET_EXT load(1, XDATA, add(CFA_XSP16, literal(-3)))
          CFI DPL0 load(1, XDATA, add(CFA_XSP16, literal(-2)))
          CFI DPH0 load(1, XDATA, add(CFA_XSP16, literal(-1)))
          CFI CFA_SP SP+0
          CFI CFA_XSP16 add(XSP16, 20)
          CFI Block cfiCond147 Using cfiCommon0
          CFI (cfiCond147) Function averagefilter
          CFI (cfiCond147) Conditional ??CrossCallReturnLabel_95
          CFI (cfiCond147) R6 load(1, XDATA, add(CFA_XSP16, literal(-16)))
          CFI (cfiCond147) VB load(1, XDATA, add(CFA_XSP16, literal(-15)))
          CFI (cfiCond147) V0 load(1, XDATA, add(CFA_XSP16, literal(-14)))
          CFI (cfiCond147) V1 load(1, XDATA, add(CFA_XSP16, literal(-13)))
          CFI (cfiCond147) V2 load(1, XDATA, add(CFA_XSP16, literal(-12)))
          CFI (cfiCond147) V3 load(1, XDATA, add(CFA_XSP16, literal(-11)))
          CFI (cfiCond147) V4 load(1, XDATA, add(CFA_XSP16, literal(-10)))
          CFI (cfiCond147) V5 load(1, XDATA, add(CFA_XSP16, literal(-9)))
          CFI (cfiCond147) V6 load(1, XDATA, add(CFA_XSP16, literal(-8)))
          CFI (cfiCond147) V7 load(1, XDATA, add(CFA_XSP16, literal(-7)))
          CFI (cfiCond147) R7 load(1, XDATA, add(CFA_XSP16, literal(-6)))
          CFI (cfiCond147) ?RET_LOW load(1, XDATA, add(CFA_XSP16, literal(-5)))
          CFI (cfiCond147) ?RET_HIGH load(1, XDATA, add(CFA_XSP16, literal(-4)))
          CFI (cfiCond147) ?BRET_EXT load(1, XDATA, add(CFA_XSP16, literal(-3)))
          CFI (cfiCond147) DPL0 load(1, XDATA, add(CFA_XSP16, literal(-2)))
          CFI (cfiCond147) DPH0 load(1, XDATA, add(CFA_XSP16, literal(-1)))
          CFI (cfiCond147) CFA_SP SP+0
          CFI (cfiCond147) CFA_XSP16 add(XSP16, 16)
          CFI Block cfiPicker148 Using cfiCommon1
          CFI (cfiPicker148) NoFunction
          CFI (cfiPicker148) Picker
        MOV     ?V0 + 5,A
        RLC     A
        SUBB    A,0xE0 /* A   */
        MOV     ?V0 + 6,A
        MOV     ?V0 + 7,A
        MOV     R0,#?V0 + 4
        RET
          CFI EndBlock cfiCond146
          CFI EndBlock cfiCond147
          CFI EndBlock cfiPicker148
//  310 
//  311 /*********************************************************************
//  312  * @fn      calibrationN
//  313  *
//  314  * @brief   calibration of n
//  315  *
//  316  * @param   rssi rssi array
//  317  *
//  318  * @return  none
//  319  */

        RSEG BANKED_CODE:CODE:NOROOT(0)
//  320 float calibrationN(int localID, int index, float rssivalue_f[4], float nValue[4], 
calibrationN:
          CFI Block cfiBlock149 Using cfiCommon0
          CFI Function calibrationN
        CODE
//  321                    float AnchorX[4], float AnchorY[4], float AnchorZ[4], float A[4])
//  322 {
        FUNCALL calibrationN, pow
        LOCFRAME ISTACK, 0, STACK
        LOCFRAME PSTACK, 0, STACK
        LOCFRAME XSTACK, 50, STACK
        LOCFRAME IOVERLAY, 0, STATIC
        LOCFRAME DOVERLAY, 0, STATIC
        ARGFRAME ISTACK, 0, STACK
        ARGFRAME PSTACK, 0, STACK
        ARGFRAME XSTACK, 50, STACK
        ARGFRAME IOVERLAY, 0, STATIC
        ARGFRAME DOVERLAY, 0, STATIC
        FUNCALL calibrationN, log10
        LOCFRAME ISTACK, 0, STACK
        LOCFRAME PSTACK, 0, STACK
        LOCFRAME XSTACK, 46, STACK
        LOCFRAME IOVERLAY, 0, STATIC
        LOCFRAME DOVERLAY, 0, STATIC
        ARGFRAME ISTACK, 0, STACK
        ARGFRAME PSTACK, 0, STACK
        ARGFRAME XSTACK, 46, STACK
        ARGFRAME IOVERLAY, 0, STATIC
        ARGFRAME DOVERLAY, 0, STATIC
        MOV     A,#-0x18
        LCALL   ?BANKED_ENTER_XDATA
          CFI DPH0 load(1, XDATA, add(CFA_XSP16, literal(-1)))
          CFI DPL0 load(1, XDATA, add(CFA_XSP16, literal(-2)))
          CFI ?BRET_EXT load(1, XDATA, add(CFA_XSP16, literal(-3)))
          CFI ?RET_HIGH load(1, XDATA, add(CFA_XSP16, literal(-4)))
          CFI ?RET_LOW load(1, XDATA, add(CFA_XSP16, literal(-5)))
          CFI R7 load(1, XDATA, add(CFA_XSP16, literal(-6)))
          CFI V15 load(1, XDATA, add(CFA_XSP16, literal(-7)))
          CFI V14 load(1, XDATA, add(CFA_XSP16, literal(-8)))
          CFI V13 load(1, XDATA, add(CFA_XSP16, literal(-9)))
          CFI V12 load(1, XDATA, add(CFA_XSP16, literal(-10)))
          CFI V11 load(1, XDATA, add(CFA_XSP16, literal(-11)))
          CFI V10 load(1, XDATA, add(CFA_XSP16, literal(-12)))
          CFI V9 load(1, XDATA, add(CFA_XSP16, literal(-13)))
          CFI V8 load(1, XDATA, add(CFA_XSP16, literal(-14)))
          CFI V7 load(1, XDATA, add(CFA_XSP16, literal(-15)))
          CFI V6 load(1, XDATA, add(CFA_XSP16, literal(-16)))
          CFI V5 load(1, XDATA, add(CFA_XSP16, literal(-17)))
          CFI V4 load(1, XDATA, add(CFA_XSP16, literal(-18)))
          CFI V3 load(1, XDATA, add(CFA_XSP16, literal(-19)))
          CFI V2 load(1, XDATA, add(CFA_XSP16, literal(-20)))
          CFI V1 load(1, XDATA, add(CFA_XSP16, literal(-21)))
          CFI V0 load(1, XDATA, add(CFA_XSP16, literal(-22)))
          CFI VB load(1, XDATA, add(CFA_XSP16, literal(-23)))
          CFI R6 load(1, XDATA, add(CFA_XSP16, literal(-24)))
          CFI CFA_SP SP+0
          CFI CFA_XSP16 add(XSP16, 24)
        ; Saved register size: 24
        ; Auto size: 22
        MOV     A,#-0x16
        LCALL   ?ALLOC_XSTACK8
          CFI CFA_XSP16 add(XSP16, 46)
        LCALL   ?Subroutine27 & 0xFFFF
//  323   float n;
//  324   float offset=4.0f;
//  325   float tempA[4]={48.0f, 48.0f, 55.0f, 56.0f} ;
??CrossCallReturnLabel_77:
        MOV     A,#0x6
        LCALL   ?XSTACK_DISP0_8
        MOV     R4,DPL
        MOV     R5,DPH
        MOV     DPH,#(`?<Constant {(48.0F), (48.0F), (55.0F), (56.0F)` >> 8) & 0xff
        MOV     DPL,#`?<Constant {(48.0F), (48.0F), (55.0F), (56.0F)` & 0xff
        MOV     A,#0x10
        LCALL   ?MOVE_LONG8_XDATA_XDATA
        MOV     DPL,?XSP + 0
        MOV     DPH,?XSP + 1
        MOVX    A,@DPTR
        XRL     A,R6
        JNZ     ??calibrationN_0
        INC     DPTR
        MOVX    A,@DPTR
        XRL     A,R7
??calibrationN_0:
        JNZ     $+5
        LJMP    ??calibrationN_1 & 0xFFFF
        MOV     A,#0x36
        LCALL   ?XSTACK_DISP0_8
        LCALL   ?Subroutine6 & 0xFFFF
??CrossCallReturnLabel_132:
        LCALL   ?S_SHL
        LCALL   ?Subroutine32 & 0xFFFF
??CrossCallReturnLabel_90:
        LCALL   ?L_MOV_X
        MOV     ?V0 + 4,R6
        MOV     ?V0 + 5,R7
        MOV     A,#0x2
        MOV     R0,#?V0 + 4
        LCALL   ?S_SHL
        LCALL   ?Subroutine28 & 0xFFFF
??CrossCallReturnLabel_79:
        LCALL   ?L_MOV_X
        MOV     R0,#?V0 + 0
        MOV     R1,#?V0 + 4
        LCALL   ?FLT_SUB
        MOV     A,#0x34
        LCALL   ?XSTACK_DISP0_8
        LCALL   ?Subroutine4 & 0xFFFF
??CrossCallReturnLabel_5:
        LCALL   ?S_SHL
        LCALL   ?Subroutine28 & 0xFFFF
??CrossCallReturnLabel_80:
        LCALL   ?L_MOV_X
        MOV     ?V0 + 8,R6
        MOV     ?V0 + 9,R7
        MOV     A,#0x2
        MOV     R0,#?V0 + 8
        LCALL   ?S_SHL
        LCALL   ?Subroutine29 & 0xFFFF
??CrossCallReturnLabel_119:
        LCALL   ?L_MOV_X
        MOV     R0,#?V0 + 4
        MOV     R1,#?V0 + 8
        LCALL   ?FLT_SUB
        MOV     A,#0x2
        LCALL   ?XSTACK_DISP0_8
        MOV     R0,#?V0 + 4
        LCALL   ?L_MOV_TO_X
        MOV     A,#0x32
        LCALL   ?XSTACK_DISP0_8
        LCALL   ?Subroutine4 & 0xFFFF
??CrossCallReturnLabel_6:
        LCALL   ?S_SHL
        LCALL   ?Subroutine28 & 0xFFFF
??CrossCallReturnLabel_81:
        LCALL   ?L_MOV_X
        MOV     ?V0 + 8,R6
        MOV     ?V0 + 9,R7
        MOV     A,#0x2
        MOV     R0,#?V0 + 8
        LCALL   ?S_SHL
        LCALL   ?Subroutine29 & 0xFFFF
??CrossCallReturnLabel_120:
        LCALL   ?L_MOV_X
        MOV     R0,#?V0 + 4
        MOV     R1,#?V0 + 8
        LCALL   ?FLT_SUB
        ; Setup parameters for call to function pow
        MOV     DPTR,#__Constant_3f000000
        LCALL   ?PUSH_XSTACK8_X_FOUR
          CFI CFA_XSP16 add(XSP16, 50)
        MOV     ?V0 + 12,?V0 + 4
        MOV     ?V0 + 13,?V0 + 5
        MOV     ?V0 + 14,?V0 + 6
        MOV     ?V0 + 15,?V0 + 7
        MOV     R0,#?V0 + 12
        MOV     R1,#?V0 + 4
        LCALL   ?FLT_MUL
        MOV     A,#0x6
        LCALL   ?XSTACK_DISP0_8
        MOV     R0,#?V0 + 8
        LCALL   ?L_MOV_X
        MOV     A,#0x6
        LCALL   ?XSTACK_DISP0_8
        MOV     R0,#?V0 + 4
        LCALL   ?L_MOV_X
        MOV     R0,#?V0 + 8
        MOV     R1,#?V0 + 4
        LCALL   ?FLT_MUL
        MOV     R0,#?V0 + 12
        MOV     R1,#?V0 + 8
        LCALL   ?FLT_ADD
        MOV     ?V0 + 4,?V0 + 0
        MOV     ?V0 + 5,?V0 + 1
        MOV     ?V0 + 6,?V0 + 2
        MOV     ?V0 + 7,?V0 + 3
        MOV     R0,#?V0 + 4
        MOV     R1,#?V0 + 0
        LCALL   ?FLT_MUL
        MOV     R0,#?V0 + 12
        MOV     R1,#?V0 + 4
        LCALL   ?FLT_ADD
        MOV     R2,?V0 + 12
        MOV     R3,?V0 + 13
        MOV     R4,?V0 + 14
        MOV     R5,?V0 + 15
//  326   if(localID!=index)
//  327   {
//  328       
//  329       float d=0.0f;
//  330       d=(AnchorX[localID-1]-AnchorX[index-1])*(AnchorX[localID-1]-AnchorX[index-1])+
//  331         (AnchorY[localID-1]-AnchorY[index-1])*(AnchorY[localID-1]-AnchorY[index-1])+
//  332           (AnchorZ[localID-1]-AnchorZ[index-1])*(AnchorZ[localID-1]-AnchorZ[index-1]);
//  333      // d+=pow((AnchorY[localID-1]-AnchorY[index-1]),2);
//  334      // d+=pow((AnchorZ[localID-1]-AnchorZ[index-1]),2);
//  335       d=pow(d,0.5);   // distance between two anchors 
        LCALL   ??pow?relay
        MOV     A,#0x4
        LCALL   ?DEALLOC_XSTACK8
          CFI CFA_XSP16 add(XSP16, 46)
        MOV     ?V0 + 0,R2
        MOV     ?V0 + 1,R3
        MOV     ?V0 + 2,R4
        MOV     ?V0 + 3,R5
//  336      
//  337       if(d!=1)
        MOV     DPTR,#__Constant_3f800000
        MOV     R0,#?V0 + 4
        LCALL   ?L_MOV_X
        MOV     R0,#?V0 + 0
        MOV     R1,#?V0 + 4
        LCALL   ?FLT_EQ
        JZ      ??calibrationN_1
//  338       //  n=(rssivalue_f[index-1]-A[index-1]+offset)/10.0f/(log10(d));
//  339          n=(rssivalue_f[index-1]-tempA[index-1]+offset)/10.0f/(log10(d));
        MOV     ?V0 + 4,R6
        MOV     ?V0 + 5,R7
        MOV     A,#0x2
        MOV     R0,#?V0 + 4
        LCALL   ?S_SHL
        MOV     A,#0x2e
        LCALL   ?XSTACK_DISP0_8
        LCALL   ?Subroutine8 & 0xFFFF
//  340       else
//  341         n=nValue[localID-1];
//  342   }
??CrossCallReturnLabel_15:
        LCALL   ?L_MOV_X
        MOV     ?V0 + 8,R6
        MOV     ?V0 + 9,R7
        MOV     A,#0x2
        MOV     R0,#?V0 + 8
        LCALL   ?S_SHL
        MOV     A,#0x6
        LCALL   ?XSTACK_DISP0_8
        MOV     A,DPL
        ADD     A,?V0 + 8
        MOV     R0,A
        MOV     A,DPH
        LCALL   ??Subroutine45_0 & 0xFFFF
??CrossCallReturnLabel_117:
        LCALL   ?L_MOV_X
        MOV     R0,#?V0 + 4
        MOV     R1,#?V0 + 8
        LCALL   ?FLT_SUB
        MOV     DPTR,#__Constant_40800000
        MOV     R0,#?V0 + 8
        LCALL   ?L_MOV_X
        MOV     R0,#?V0 + 4
        MOV     R1,#?V0 + 8
        LCALL   ?FLT_ADD
        MOV     DPTR,#__Constant_41200000
        MOV     R0,#?V0 + 8
        LCALL   ?L_MOV_X
        MOV     R0,#?V0 + 4
        MOV     R1,#?V0 + 8
        LCALL   ?FLT_DIV
        ; Setup parameters for call to function log10
        LCALL   ??log10?relay
        MOV     ?V0 + 0,R2
        MOV     ?V0 + 1,R3
        MOV     ?V0 + 2,R4
        MOV     ?V0 + 3,R5
        MOV     R0,#?V0 + 4
        MOV     R1,#?V0 + 0
        LCALL   ?FLT_DIV
        SJMP    ??calibrationN_2
//  343   else
//  344   {
//  345     n=nValue[localID-1];
??calibrationN_1:
        LCALL   ??Subroutine47_0 & 0xFFFF
//  346   }
??CrossCallReturnLabel_130:
        LCALL   ?S_SHL
        MOV     A,#0x30
        LCALL   ?XSTACK_DISP0_8
        LCALL   ?Subroutine9 & 0xFFFF
??CrossCallReturnLabel_17:
        LCALL   ?L_MOV_X
//  347   return n;
??calibrationN_2:
        MOV     R2,?V0 + 4
        MOV     R3,?V0 + 5
        MOV     R4,?V0 + 6
        MOV     R5,?V0 + 7
        MOV     A,#0x16
        LJMP    ?Subroutine0 & 0xFFFF
          CFI EndBlock cfiBlock149
//  348 }
//  349 
//  350 /*********************************************************************
//  351  * @fn      calibrationA
//  352  *
//  353  * @brief   calibration of A from anchors
//  354  *
//  355  * @param   rssi rssi array
//  356  *
//  357  * @return  none
//  358  */

        RSEG BANKED_CODE:CODE:NOROOT(0)
//  359 float calibrationA(int localID, int index, float rssivalue_f[4], float nValue[4], 
calibrationA:
          CFI Block cfiBlock150 Using cfiCommon0
          CFI Function calibrationA
        CODE
//  360                    float AnchorX[4], float AnchorY[4], float AnchorZ[4], float AValue[4])
//  361 {
        FUNCALL calibrationA, pow
        LOCFRAME ISTACK, 0, STACK
        LOCFRAME PSTACK, 0, STACK
        LOCFRAME XSTACK, 34, STACK
        LOCFRAME IOVERLAY, 0, STATIC
        LOCFRAME DOVERLAY, 0, STATIC
        ARGFRAME ISTACK, 0, STACK
        ARGFRAME PSTACK, 0, STACK
        ARGFRAME XSTACK, 34, STACK
        ARGFRAME IOVERLAY, 0, STATIC
        ARGFRAME DOVERLAY, 0, STATIC
        FUNCALL calibrationA, log10
        LOCFRAME ISTACK, 0, STACK
        LOCFRAME PSTACK, 0, STACK
        LOCFRAME XSTACK, 30, STACK
        LOCFRAME IOVERLAY, 0, STATIC
        LOCFRAME DOVERLAY, 0, STATIC
        ARGFRAME ISTACK, 0, STACK
        ARGFRAME PSTACK, 0, STACK
        ARGFRAME XSTACK, 30, STACK
        ARGFRAME IOVERLAY, 0, STATIC
        ARGFRAME DOVERLAY, 0, STATIC
        MOV     A,#-0x18
        LCALL   ?BANKED_ENTER_XDATA
          CFI DPH0 load(1, XDATA, add(CFA_XSP16, literal(-1)))
          CFI DPL0 load(1, XDATA, add(CFA_XSP16, literal(-2)))
          CFI ?BRET_EXT load(1, XDATA, add(CFA_XSP16, literal(-3)))
          CFI ?RET_HIGH load(1, XDATA, add(CFA_XSP16, literal(-4)))
          CFI ?RET_LOW load(1, XDATA, add(CFA_XSP16, literal(-5)))
          CFI R7 load(1, XDATA, add(CFA_XSP16, literal(-6)))
          CFI V15 load(1, XDATA, add(CFA_XSP16, literal(-7)))
          CFI V14 load(1, XDATA, add(CFA_XSP16, literal(-8)))
          CFI V13 load(1, XDATA, add(CFA_XSP16, literal(-9)))
          CFI V12 load(1, XDATA, add(CFA_XSP16, literal(-10)))
          CFI V11 load(1, XDATA, add(CFA_XSP16, literal(-11)))
          CFI V10 load(1, XDATA, add(CFA_XSP16, literal(-12)))
          CFI V9 load(1, XDATA, add(CFA_XSP16, literal(-13)))
          CFI V8 load(1, XDATA, add(CFA_XSP16, literal(-14)))
          CFI V7 load(1, XDATA, add(CFA_XSP16, literal(-15)))
          CFI V6 load(1, XDATA, add(CFA_XSP16, literal(-16)))
          CFI V5 load(1, XDATA, add(CFA_XSP16, literal(-17)))
          CFI V4 load(1, XDATA, add(CFA_XSP16, literal(-18)))
          CFI V3 load(1, XDATA, add(CFA_XSP16, literal(-19)))
          CFI V2 load(1, XDATA, add(CFA_XSP16, literal(-20)))
          CFI V1 load(1, XDATA, add(CFA_XSP16, literal(-21)))
          CFI V0 load(1, XDATA, add(CFA_XSP16, literal(-22)))
          CFI VB load(1, XDATA, add(CFA_XSP16, literal(-23)))
          CFI R6 load(1, XDATA, add(CFA_XSP16, literal(-24)))
          CFI CFA_SP SP+0
          CFI CFA_XSP16 add(XSP16, 24)
        ; Saved register size: 24
        ; Auto size: 6
        MOV     A,#-0x6
        LCALL   ?ALLOC_XSTACK8
          CFI CFA_XSP16 add(XSP16, 30)
        LCALL   ?Subroutine27 & 0xFFFF
??CrossCallReturnLabel_78:
        MOV     DPL,?XSP + 0
        MOV     DPH,?XSP + 1
        MOVX    A,@DPTR
        XRL     A,R6
        JNZ     ??calibrationA_0
        INC     DPTR
        MOVX    A,@DPTR
        XRL     A,R7
??calibrationA_0:
        JNZ     $+5
        LJMP    ??calibrationA_1 & 0xFFFF
        MOV     A,#0x26
        LCALL   ?XSTACK_DISP0_8
        LCALL   ?Subroutine6 & 0xFFFF
??CrossCallReturnLabel_133:
        LCALL   ?S_SHL
        LCALL   ?Subroutine32 & 0xFFFF
??CrossCallReturnLabel_91:
        LCALL   ?L_MOV_X
        MOV     ?V0 + 4,R6
        MOV     ?V0 + 5,R7
        MOV     A,#0x2
        MOV     R0,#?V0 + 4
        LCALL   ?S_SHL
        LCALL   ?Subroutine28 & 0xFFFF
??CrossCallReturnLabel_82:
        LCALL   ?L_MOV_X
        MOV     R0,#?V0 + 0
        MOV     R1,#?V0 + 4
        LCALL   ?FLT_SUB
        MOV     A,#0x24
        LCALL   ?XSTACK_DISP0_8
        LCALL   ?Subroutine4 & 0xFFFF
??CrossCallReturnLabel_7:
        LCALL   ?S_SHL
        LCALL   ?Subroutine28 & 0xFFFF
??CrossCallReturnLabel_83:
        LCALL   ?L_MOV_X
        MOV     ?V0 + 8,R6
        MOV     ?V0 + 9,R7
        MOV     A,#0x2
        MOV     R0,#?V0 + 8
        LCALL   ?S_SHL
        LCALL   ?Subroutine29 & 0xFFFF
??CrossCallReturnLabel_121:
        LCALL   ?L_MOV_X
        MOV     R0,#?V0 + 4
        MOV     R1,#?V0 + 8
        LCALL   ?FLT_SUB
        MOV     A,#0x2
        LCALL   ?XSTACK_DISP0_8
        MOV     R0,#?V0 + 4
        LCALL   ?L_MOV_TO_X
        MOV     A,#0x22
        LCALL   ?XSTACK_DISP0_8
        LCALL   ?Subroutine4 & 0xFFFF
??CrossCallReturnLabel_8:
        LCALL   ?S_SHL
        LCALL   ?Subroutine28 & 0xFFFF
??CrossCallReturnLabel_84:
        LCALL   ?L_MOV_X
        MOV     ?V0 + 8,R6
        MOV     ?V0 + 9,R7
        MOV     A,#0x2
        MOV     R0,#?V0 + 8
        LCALL   ?S_SHL
        LCALL   ?Subroutine29 & 0xFFFF
??CrossCallReturnLabel_122:
        LCALL   ?L_MOV_X
        MOV     R0,#?V0 + 4
        MOV     R1,#?V0 + 8
        LCALL   ?FLT_SUB
        ; Setup parameters for call to function pow
        MOV     DPTR,#__Constant_3f000000
        LCALL   ?PUSH_XSTACK8_X_FOUR
          CFI CFA_XSP16 add(XSP16, 34)
        MOV     ?V0 + 12,?V0 + 4
        MOV     ?V0 + 13,?V0 + 5
        MOV     ?V0 + 14,?V0 + 6
        MOV     ?V0 + 15,?V0 + 7
        MOV     R0,#?V0 + 12
        MOV     R1,#?V0 + 4
        LCALL   ?FLT_MUL
        MOV     A,#0x6
        LCALL   ?XSTACK_DISP0_8
        MOV     R0,#?V0 + 8
        LCALL   ?L_MOV_X
        MOV     A,#0x6
        LCALL   ?XSTACK_DISP0_8
        MOV     R0,#?V0 + 4
        LCALL   ?L_MOV_X
        MOV     R0,#?V0 + 8
        MOV     R1,#?V0 + 4
        LCALL   ?FLT_MUL
        MOV     R0,#?V0 + 12
        MOV     R1,#?V0 + 8
        LCALL   ?FLT_ADD
        MOV     ?V0 + 4,?V0 + 0
        MOV     ?V0 + 5,?V0 + 1
        MOV     ?V0 + 6,?V0 + 2
        MOV     ?V0 + 7,?V0 + 3
        MOV     R0,#?V0 + 4
        MOV     R1,#?V0 + 0
        LCALL   ?FLT_MUL
        MOV     R0,#?V0 + 12
        MOV     R1,#?V0 + 4
        LCALL   ?FLT_ADD
        MOV     R2,?V0 + 12
        MOV     R3,?V0 + 13
        MOV     R4,?V0 + 14
        MOV     R5,?V0 + 15
//  362   float Aresult;
//  363   float offset=2.0f;
//  364   if(localID!=index)
//  365   {
//  366       
//  367       float d=0.0f;
//  368       d=(AnchorX[localID-1]-AnchorX[index-1])*(AnchorX[localID-1]-AnchorX[index-1])+
//  369         (AnchorY[localID-1]-AnchorY[index-1])*(AnchorY[localID-1]-AnchorY[index-1])+
//  370           (AnchorZ[localID-1]-AnchorZ[index-1])*(AnchorZ[localID-1]-AnchorZ[index-1]);
//  371      
//  372      
//  373       d=pow(d,0.5);   // distance between two anchors 
        LCALL   ??pow?relay
        MOV     A,#0x4
        LCALL   ?DEALLOC_XSTACK8
          CFI CFA_XSP16 add(XSP16, 30)
        MOV     ?V0 + 0,R2
        MOV     ?V0 + 1,R3
        MOV     ?V0 + 2,R4
        MOV     ?V0 + 3,R5
//  374      
//  375       if(d!=1)
        MOV     DPTR,#__Constant_3f800000
        MOV     R0,#?V0 + 4
        LCALL   ?L_MOV_X
        MOV     R0,#?V0 + 0
        MOV     R1,#?V0 + 4
        LCALL   ?FLT_EQ
        JZ      ??calibrationA_1
//  376         Aresult=rssivalue_f[index-1]-10*nValue[index-1]*log10(d)+offset;
        MOV     ?V0 + 4,R6
        MOV     ?V0 + 5,R7
        MOV     A,#0x2
        MOV     R0,#?V0 + 4
        LCALL   ?S_SHL
        MOV     A,#0x1e
        LCALL   ?XSTACK_DISP0_8
        LCALL   ?Subroutine8 & 0xFFFF
//  377       else
//  378         Aresult=AValue[localID-1];
//  379   }
??CrossCallReturnLabel_16:
        LCALL   ?L_MOV_X
        MOV     ?V0 + 8,R6
        MOV     ?V0 + 9,R7
        MOV     A,#0x2
        MOV     R0,#?V0 + 8
        LCALL   ?S_SHL
        MOV     A,#0x20
        LCALL   ?XSTACK_DISP0_8
        MOVX    A,@DPTR
        ADD     A,?V0 + 8
        MOV     R0,A
        INC     DPTR
        MOVX    A,@DPTR
        LCALL   ??Subroutine45_0 & 0xFFFF
??CrossCallReturnLabel_118:
        LCALL   ?L_MOV_X
        MOV     DPTR,#__Constant_41200000
        MOV     R0,#?V0 + 12
        LCALL   ?L_MOV_X
        MOV     R0,#?V0 + 8
        MOV     R1,#?V0 + 12
        LCALL   ?FLT_MUL
        ; Setup parameters for call to function log10
        LCALL   ??log10?relay
        MOV     ?V0 + 0,R2
        MOV     ?V0 + 1,R3
        MOV     ?V0 + 2,R4
        MOV     ?V0 + 3,R5
        MOV     R0,#?V0 + 8
        MOV     R1,#?V0 + 0
        LCALL   ?FLT_MUL
        MOV     R0,#?V0 + 4
        MOV     R1,#?V0 + 8
        LCALL   ?FLT_SUB
        MOV     DPTR,#__Constant_40000000
        MOV     R0,#?V0 + 0
        LCALL   ?L_MOV_X
        MOV     R0,#?V0 + 4
        MOV     R1,#?V0 + 0
        LCALL   ?FLT_ADD
        SJMP    ??calibrationA_2
//  380   else
//  381   {
//  382     Aresult=AValue[localID-1];
??calibrationA_1:
        LCALL   ??Subroutine47_0 & 0xFFFF
//  383   }
??CrossCallReturnLabel_131:
        LCALL   ?S_SHL
        MOV     A,#0x28
        LCALL   ?XSTACK_DISP0_8
        LCALL   ?Subroutine9 & 0xFFFF
??CrossCallReturnLabel_18:
        LCALL   ?L_MOV_X
//  384   return Aresult;
??calibrationA_2:
        MOV     R2,?V0 + 4
        MOV     R3,?V0 + 5
        MOV     R4,?V0 + 6
        MOV     R5,?V0 + 7
        MOV     A,#0x6
        LJMP    ?Subroutine0 & 0xFFFF
          CFI EndBlock cfiBlock150
//  385 }

        RSEG BANKED_CODE:CODE:NOROOT(0)
?Subroutine32:
          CFI Block cfiCond151 Using cfiCommon0
          CFI Function calibrationN
          CFI Conditional ??CrossCallReturnLabel_90
          CFI R6 load(1, XDATA, add(CFA_XSP16, literal(-24)))
          CFI VB load(1, XDATA, add(CFA_XSP16, literal(-23)))
          CFI V0 load(1, XDATA, add(CFA_XSP16, literal(-22)))
          CFI V1 load(1, XDATA, add(CFA_XSP16, literal(-21)))
          CFI V2 load(1, XDATA, add(CFA_XSP16, literal(-20)))
          CFI V3 load(1, XDATA, add(CFA_XSP16, literal(-19)))
          CFI V4 load(1, XDATA, add(CFA_XSP16, literal(-18)))
          CFI V5 load(1, XDATA, add(CFA_XSP16, literal(-17)))
          CFI V6 load(1, XDATA, add(CFA_XSP16, literal(-16)))
          CFI V7 load(1, XDATA, add(CFA_XSP16, literal(-15)))
          CFI V8 load(1, XDATA, add(CFA_XSP16, literal(-14)))
          CFI V9 load(1, XDATA, add(CFA_XSP16, literal(-13)))
          CFI V10 load(1, XDATA, add(CFA_XSP16, literal(-12)))
          CFI V11 load(1, XDATA, add(CFA_XSP16, literal(-11)))
          CFI V12 load(1, XDATA, add(CFA_XSP16, literal(-10)))
          CFI V13 load(1, XDATA, add(CFA_XSP16, literal(-9)))
          CFI V14 load(1, XDATA, add(CFA_XSP16, literal(-8)))
          CFI V15 load(1, XDATA, add(CFA_XSP16, literal(-7)))
          CFI R7 load(1, XDATA, add(CFA_XSP16, literal(-6)))
          CFI ?RET_LOW load(1, XDATA, add(CFA_XSP16, literal(-5)))
          CFI ?RET_HIGH load(1, XDATA, add(CFA_XSP16, literal(-4)))
          CFI ?BRET_EXT load(1, XDATA, add(CFA_XSP16, literal(-3)))
          CFI DPL0 load(1, XDATA, add(CFA_XSP16, literal(-2)))
          CFI DPH0 load(1, XDATA, add(CFA_XSP16, literal(-1)))
          CFI CFA_SP SP+0
          CFI CFA_XSP16 add(XSP16, 46)
          CFI Block cfiCond152 Using cfiCommon0
          CFI (cfiCond152) Function calibrationA
          CFI (cfiCond152) Conditional ??CrossCallReturnLabel_91
          CFI (cfiCond152) R6 load(1, XDATA, add(CFA_XSP16, literal(-24)))
          CFI (cfiCond152) VB load(1, XDATA, add(CFA_XSP16, literal(-23)))
          CFI (cfiCond152) V0 load(1, XDATA, add(CFA_XSP16, literal(-22)))
          CFI (cfiCond152) V1 load(1, XDATA, add(CFA_XSP16, literal(-21)))
          CFI (cfiCond152) V2 load(1, XDATA, add(CFA_XSP16, literal(-20)))
          CFI (cfiCond152) V3 load(1, XDATA, add(CFA_XSP16, literal(-19)))
          CFI (cfiCond152) V4 load(1, XDATA, add(CFA_XSP16, literal(-18)))
          CFI (cfiCond152) V5 load(1, XDATA, add(CFA_XSP16, literal(-17)))
          CFI (cfiCond152) V6 load(1, XDATA, add(CFA_XSP16, literal(-16)))
          CFI (cfiCond152) V7 load(1, XDATA, add(CFA_XSP16, literal(-15)))
          CFI (cfiCond152) V8 load(1, XDATA, add(CFA_XSP16, literal(-14)))
          CFI (cfiCond152) V9 load(1, XDATA, add(CFA_XSP16, literal(-13)))
          CFI (cfiCond152) V10 load(1, XDATA, add(CFA_XSP16, literal(-12)))
          CFI (cfiCond152) V11 load(1, XDATA, add(CFA_XSP16, literal(-11)))
          CFI (cfiCond152) V12 load(1, XDATA, add(CFA_XSP16, literal(-10)))
          CFI (cfiCond152) V13 load(1, XDATA, add(CFA_XSP16, literal(-9)))
          CFI (cfiCond152) V14 load(1, XDATA, add(CFA_XSP16, literal(-8)))
          CFI (cfiCond152) V15 load(1, XDATA, add(CFA_XSP16, literal(-7)))
          CFI (cfiCond152) R7 load(1, XDATA, add(CFA_XSP16, literal(-6)))
          CFI (cfiCond152) ?RET_LOW load(1, XDATA, add(CFA_XSP16, literal(-5)))
          CFI (cfiCond152) ?RET_HIGH load(1, XDATA, add(CFA_XSP16, literal(-4)))
          CFI (cfiCond152) ?BRET_EXT load(1, XDATA, add(CFA_XSP16, literal(-3)))
          CFI (cfiCond152) DPL0 load(1, XDATA, add(CFA_XSP16, literal(-2)))
          CFI (cfiCond152) DPH0 load(1, XDATA, add(CFA_XSP16, literal(-1)))
          CFI (cfiCond152) CFA_SP SP+0
          CFI (cfiCond152) CFA_XSP16 add(XSP16, 30)
          CFI Block cfiPicker153 Using cfiCommon1
          CFI (cfiPicker153) NoFunction
          CFI (cfiPicker153) Picker
        MOV     A,R2
        ADD     A,?V0 + 0
        MOV     R0,A
        MOV     A,R3
        ADDC    A,?V0 + 1
        LCALL   ?Subroutine42 & 0xFFFF
??CrossCallReturnLabel_123:
        MOV     R0,#?V0 + 0
        RET
          CFI EndBlock cfiCond151
          CFI EndBlock cfiCond152
          CFI EndBlock cfiPicker153

        RSEG BANKED_CODE:CODE:NOROOT(0)
?Subroutine29:
          CFI Block cfiCond154 Using cfiCommon0
          CFI Function calibrationN
          CFI Conditional ??CrossCallReturnLabel_119
          CFI R6 load(1, XDATA, add(CFA_XSP16, literal(-24)))
          CFI VB load(1, XDATA, add(CFA_XSP16, literal(-23)))
          CFI V0 load(1, XDATA, add(CFA_XSP16, literal(-22)))
          CFI V1 load(1, XDATA, add(CFA_XSP16, literal(-21)))
          CFI V2 load(1, XDATA, add(CFA_XSP16, literal(-20)))
          CFI V3 load(1, XDATA, add(CFA_XSP16, literal(-19)))
          CFI V4 load(1, XDATA, add(CFA_XSP16, literal(-18)))
          CFI V5 load(1, XDATA, add(CFA_XSP16, literal(-17)))
          CFI V6 load(1, XDATA, add(CFA_XSP16, literal(-16)))
          CFI V7 load(1, XDATA, add(CFA_XSP16, literal(-15)))
          CFI V8 load(1, XDATA, add(CFA_XSP16, literal(-14)))
          CFI V9 load(1, XDATA, add(CFA_XSP16, literal(-13)))
          CFI V10 load(1, XDATA, add(CFA_XSP16, literal(-12)))
          CFI V11 load(1, XDATA, add(CFA_XSP16, literal(-11)))
          CFI V12 load(1, XDATA, add(CFA_XSP16, literal(-10)))
          CFI V13 load(1, XDATA, add(CFA_XSP16, literal(-9)))
          CFI V14 load(1, XDATA, add(CFA_XSP16, literal(-8)))
          CFI V15 load(1, XDATA, add(CFA_XSP16, literal(-7)))
          CFI R7 load(1, XDATA, add(CFA_XSP16, literal(-6)))
          CFI ?RET_LOW load(1, XDATA, add(CFA_XSP16, literal(-5)))
          CFI ?RET_HIGH load(1, XDATA, add(CFA_XSP16, literal(-4)))
          CFI ?BRET_EXT load(1, XDATA, add(CFA_XSP16, literal(-3)))
          CFI DPL0 load(1, XDATA, add(CFA_XSP16, literal(-2)))
          CFI DPH0 load(1, XDATA, add(CFA_XSP16, literal(-1)))
          CFI CFA_SP SP+0
          CFI CFA_XSP16 add(XSP16, 46)
          CFI Block cfiCond155 Using cfiCommon0
          CFI (cfiCond155) Function calibrationN
          CFI (cfiCond155) Conditional ??CrossCallReturnLabel_120
          CFI (cfiCond155) R6 load(1, XDATA, add(CFA_XSP16, literal(-24)))
          CFI (cfiCond155) VB load(1, XDATA, add(CFA_XSP16, literal(-23)))
          CFI (cfiCond155) V0 load(1, XDATA, add(CFA_XSP16, literal(-22)))
          CFI (cfiCond155) V1 load(1, XDATA, add(CFA_XSP16, literal(-21)))
          CFI (cfiCond155) V2 load(1, XDATA, add(CFA_XSP16, literal(-20)))
          CFI (cfiCond155) V3 load(1, XDATA, add(CFA_XSP16, literal(-19)))
          CFI (cfiCond155) V4 load(1, XDATA, add(CFA_XSP16, literal(-18)))
          CFI (cfiCond155) V5 load(1, XDATA, add(CFA_XSP16, literal(-17)))
          CFI (cfiCond155) V6 load(1, XDATA, add(CFA_XSP16, literal(-16)))
          CFI (cfiCond155) V7 load(1, XDATA, add(CFA_XSP16, literal(-15)))
          CFI (cfiCond155) V8 load(1, XDATA, add(CFA_XSP16, literal(-14)))
          CFI (cfiCond155) V9 load(1, XDATA, add(CFA_XSP16, literal(-13)))
          CFI (cfiCond155) V10 load(1, XDATA, add(CFA_XSP16, literal(-12)))
          CFI (cfiCond155) V11 load(1, XDATA, add(CFA_XSP16, literal(-11)))
          CFI (cfiCond155) V12 load(1, XDATA, add(CFA_XSP16, literal(-10)))
          CFI (cfiCond155) V13 load(1, XDATA, add(CFA_XSP16, literal(-9)))
          CFI (cfiCond155) V14 load(1, XDATA, add(CFA_XSP16, literal(-8)))
          CFI (cfiCond155) V15 load(1, XDATA, add(CFA_XSP16, literal(-7)))
          CFI (cfiCond155) R7 load(1, XDATA, add(CFA_XSP16, literal(-6)))
          CFI (cfiCond155) ?RET_LOW load(1, XDATA, add(CFA_XSP16, literal(-5)))
          CFI (cfiCond155) ?RET_HIGH load(1, XDATA, add(CFA_XSP16, literal(-4)))
          CFI (cfiCond155) ?BRET_EXT load(1, XDATA, add(CFA_XSP16, literal(-3)))
          CFI (cfiCond155) DPL0 load(1, XDATA, add(CFA_XSP16, literal(-2)))
          CFI (cfiCond155) DPH0 load(1, XDATA, add(CFA_XSP16, literal(-1)))
          CFI (cfiCond155) CFA_SP SP+0
          CFI (cfiCond155) CFA_XSP16 add(XSP16, 46)
          CFI Block cfiCond156 Using cfiCommon0
          CFI (cfiCond156) Function calibrationA
          CFI (cfiCond156) Conditional ??CrossCallReturnLabel_121
          CFI (cfiCond156) R6 load(1, XDATA, add(CFA_XSP16, literal(-24)))
          CFI (cfiCond156) VB load(1, XDATA, add(CFA_XSP16, literal(-23)))
          CFI (cfiCond156) V0 load(1, XDATA, add(CFA_XSP16, literal(-22)))
          CFI (cfiCond156) V1 load(1, XDATA, add(CFA_XSP16, literal(-21)))
          CFI (cfiCond156) V2 load(1, XDATA, add(CFA_XSP16, literal(-20)))
          CFI (cfiCond156) V3 load(1, XDATA, add(CFA_XSP16, literal(-19)))
          CFI (cfiCond156) V4 load(1, XDATA, add(CFA_XSP16, literal(-18)))
          CFI (cfiCond156) V5 load(1, XDATA, add(CFA_XSP16, literal(-17)))
          CFI (cfiCond156) V6 load(1, XDATA, add(CFA_XSP16, literal(-16)))
          CFI (cfiCond156) V7 load(1, XDATA, add(CFA_XSP16, literal(-15)))
          CFI (cfiCond156) V8 load(1, XDATA, add(CFA_XSP16, literal(-14)))
          CFI (cfiCond156) V9 load(1, XDATA, add(CFA_XSP16, literal(-13)))
          CFI (cfiCond156) V10 load(1, XDATA, add(CFA_XSP16, literal(-12)))
          CFI (cfiCond156) V11 load(1, XDATA, add(CFA_XSP16, literal(-11)))
          CFI (cfiCond156) V12 load(1, XDATA, add(CFA_XSP16, literal(-10)))
          CFI (cfiCond156) V13 load(1, XDATA, add(CFA_XSP16, literal(-9)))
          CFI (cfiCond156) V14 load(1, XDATA, add(CFA_XSP16, literal(-8)))
          CFI (cfiCond156) V15 load(1, XDATA, add(CFA_XSP16, literal(-7)))
          CFI (cfiCond156) R7 load(1, XDATA, add(CFA_XSP16, literal(-6)))
          CFI (cfiCond156) ?RET_LOW load(1, XDATA, add(CFA_XSP16, literal(-5)))
          CFI (cfiCond156) ?RET_HIGH load(1, XDATA, add(CFA_XSP16, literal(-4)))
          CFI (cfiCond156) ?BRET_EXT load(1, XDATA, add(CFA_XSP16, literal(-3)))
          CFI (cfiCond156) DPL0 load(1, XDATA, add(CFA_XSP16, literal(-2)))
          CFI (cfiCond156) DPH0 load(1, XDATA, add(CFA_XSP16, literal(-1)))
          CFI (cfiCond156) CFA_SP SP+0
          CFI (cfiCond156) CFA_XSP16 add(XSP16, 30)
          CFI Block cfiCond157 Using cfiCommon0
          CFI (cfiCond157) Function calibrationA
          CFI (cfiCond157) Conditional ??CrossCallReturnLabel_122
          CFI (cfiCond157) R6 load(1, XDATA, add(CFA_XSP16, literal(-24)))
          CFI (cfiCond157) VB load(1, XDATA, add(CFA_XSP16, literal(-23)))
          CFI (cfiCond157) V0 load(1, XDATA, add(CFA_XSP16, literal(-22)))
          CFI (cfiCond157) V1 load(1, XDATA, add(CFA_XSP16, literal(-21)))
          CFI (cfiCond157) V2 load(1, XDATA, add(CFA_XSP16, literal(-20)))
          CFI (cfiCond157) V3 load(1, XDATA, add(CFA_XSP16, literal(-19)))
          CFI (cfiCond157) V4 load(1, XDATA, add(CFA_XSP16, literal(-18)))
          CFI (cfiCond157) V5 load(1, XDATA, add(CFA_XSP16, literal(-17)))
          CFI (cfiCond157) V6 load(1, XDATA, add(CFA_XSP16, literal(-16)))
          CFI (cfiCond157) V7 load(1, XDATA, add(CFA_XSP16, literal(-15)))
          CFI (cfiCond157) V8 load(1, XDATA, add(CFA_XSP16, literal(-14)))
          CFI (cfiCond157) V9 load(1, XDATA, add(CFA_XSP16, literal(-13)))
          CFI (cfiCond157) V10 load(1, XDATA, add(CFA_XSP16, literal(-12)))
          CFI (cfiCond157) V11 load(1, XDATA, add(CFA_XSP16, literal(-11)))
          CFI (cfiCond157) V12 load(1, XDATA, add(CFA_XSP16, literal(-10)))
          CFI (cfiCond157) V13 load(1, XDATA, add(CFA_XSP16, literal(-9)))
          CFI (cfiCond157) V14 load(1, XDATA, add(CFA_XSP16, literal(-8)))
          CFI (cfiCond157) V15 load(1, XDATA, add(CFA_XSP16, literal(-7)))
          CFI (cfiCond157) R7 load(1, XDATA, add(CFA_XSP16, literal(-6)))
          CFI (cfiCond157) ?RET_LOW load(1, XDATA, add(CFA_XSP16, literal(-5)))
          CFI (cfiCond157) ?RET_HIGH load(1, XDATA, add(CFA_XSP16, literal(-4)))
          CFI (cfiCond157) ?BRET_EXT load(1, XDATA, add(CFA_XSP16, literal(-3)))
          CFI (cfiCond157) DPL0 load(1, XDATA, add(CFA_XSP16, literal(-2)))
          CFI (cfiCond157) DPH0 load(1, XDATA, add(CFA_XSP16, literal(-1)))
          CFI (cfiCond157) CFA_SP SP+0
          CFI (cfiCond157) CFA_XSP16 add(XSP16, 30)
          CFI Block cfiPicker158 Using cfiCommon1
          CFI (cfiPicker158) NoFunction
          CFI (cfiPicker158) Picker
        MOV     A,R2
        ADD     A,?V0 + 8
        MOV     R0,A
        MOV     A,R3
          CFI EndBlock cfiCond154
          CFI EndBlock cfiCond155
          CFI EndBlock cfiCond156
          CFI EndBlock cfiCond157
          CFI EndBlock cfiPicker158
        REQUIRE ??Subroutine45_0
        ; // Fall through to label ??Subroutine45_0

        RSEG BANKED_CODE:CODE:NOROOT(0)
??Subroutine45_0:
          CFI Block cfiCond159 Using cfiCommon0
          CFI Function calibrationN
          CFI Conditional ??CrossCallReturnLabel_117
          CFI R6 load(1, XDATA, add(CFA_XSP16, literal(-24)))
          CFI VB load(1, XDATA, add(CFA_XSP16, literal(-23)))
          CFI V0 load(1, XDATA, add(CFA_XSP16, literal(-22)))
          CFI V1 load(1, XDATA, add(CFA_XSP16, literal(-21)))
          CFI V2 load(1, XDATA, add(CFA_XSP16, literal(-20)))
          CFI V3 load(1, XDATA, add(CFA_XSP16, literal(-19)))
          CFI V4 load(1, XDATA, add(CFA_XSP16, literal(-18)))
          CFI V5 load(1, XDATA, add(CFA_XSP16, literal(-17)))
          CFI V6 load(1, XDATA, add(CFA_XSP16, literal(-16)))
          CFI V7 load(1, XDATA, add(CFA_XSP16, literal(-15)))
          CFI V8 load(1, XDATA, add(CFA_XSP16, literal(-14)))
          CFI V9 load(1, XDATA, add(CFA_XSP16, literal(-13)))
          CFI V10 load(1, XDATA, add(CFA_XSP16, literal(-12)))
          CFI V11 load(1, XDATA, add(CFA_XSP16, literal(-11)))
          CFI V12 load(1, XDATA, add(CFA_XSP16, literal(-10)))
          CFI V13 load(1, XDATA, add(CFA_XSP16, literal(-9)))
          CFI V14 load(1, XDATA, add(CFA_XSP16, literal(-8)))
          CFI V15 load(1, XDATA, add(CFA_XSP16, literal(-7)))
          CFI R7 load(1, XDATA, add(CFA_XSP16, literal(-6)))
          CFI ?RET_LOW load(1, XDATA, add(CFA_XSP16, literal(-5)))
          CFI ?RET_HIGH load(1, XDATA, add(CFA_XSP16, literal(-4)))
          CFI ?BRET_EXT load(1, XDATA, add(CFA_XSP16, literal(-3)))
          CFI DPL0 load(1, XDATA, add(CFA_XSP16, literal(-2)))
          CFI DPH0 load(1, XDATA, add(CFA_XSP16, literal(-1)))
          CFI CFA_SP SP+0
          CFI CFA_XSP16 add(XSP16, 46)
          CFI Block cfiCond160 Using cfiCommon0
          CFI (cfiCond160) Function calibrationA
          CFI (cfiCond160) Conditional ??CrossCallReturnLabel_118
          CFI (cfiCond160) R6 load(1, XDATA, add(CFA_XSP16, literal(-24)))
          CFI (cfiCond160) VB load(1, XDATA, add(CFA_XSP16, literal(-23)))
          CFI (cfiCond160) V0 load(1, XDATA, add(CFA_XSP16, literal(-22)))
          CFI (cfiCond160) V1 load(1, XDATA, add(CFA_XSP16, literal(-21)))
          CFI (cfiCond160) V2 load(1, XDATA, add(CFA_XSP16, literal(-20)))
          CFI (cfiCond160) V3 load(1, XDATA, add(CFA_XSP16, literal(-19)))
          CFI (cfiCond160) V4 load(1, XDATA, add(CFA_XSP16, literal(-18)))
          CFI (cfiCond160) V5 load(1, XDATA, add(CFA_XSP16, literal(-17)))
          CFI (cfiCond160) V6 load(1, XDATA, add(CFA_XSP16, literal(-16)))
          CFI (cfiCond160) V7 load(1, XDATA, add(CFA_XSP16, literal(-15)))
          CFI (cfiCond160) V8 load(1, XDATA, add(CFA_XSP16, literal(-14)))
          CFI (cfiCond160) V9 load(1, XDATA, add(CFA_XSP16, literal(-13)))
          CFI (cfiCond160) V10 load(1, XDATA, add(CFA_XSP16, literal(-12)))
          CFI (cfiCond160) V11 load(1, XDATA, add(CFA_XSP16, literal(-11)))
          CFI (cfiCond160) V12 load(1, XDATA, add(CFA_XSP16, literal(-10)))
          CFI (cfiCond160) V13 load(1, XDATA, add(CFA_XSP16, literal(-9)))
          CFI (cfiCond160) V14 load(1, XDATA, add(CFA_XSP16, literal(-8)))
          CFI (cfiCond160) V15 load(1, XDATA, add(CFA_XSP16, literal(-7)))
          CFI (cfiCond160) R7 load(1, XDATA, add(CFA_XSP16, literal(-6)))
          CFI (cfiCond160) ?RET_LOW load(1, XDATA, add(CFA_XSP16, literal(-5)))
          CFI (cfiCond160) ?RET_HIGH load(1, XDATA, add(CFA_XSP16, literal(-4)))
          CFI (cfiCond160) ?BRET_EXT load(1, XDATA, add(CFA_XSP16, literal(-3)))
          CFI (cfiCond160) DPL0 load(1, XDATA, add(CFA_XSP16, literal(-2)))
          CFI (cfiCond160) DPH0 load(1, XDATA, add(CFA_XSP16, literal(-1)))
          CFI (cfiCond160) CFA_SP SP+0
          CFI (cfiCond160) CFA_XSP16 add(XSP16, 30)
          CFI Block cfiCond161 Using cfiCommon0
          CFI (cfiCond161) Function calibrationN
          CFI (cfiCond161) Conditional ??CrossCallReturnLabel_119
          CFI (cfiCond161) R6 load(1, XDATA, add(CFA_XSP16, literal(-24)))
          CFI (cfiCond161) VB load(1, XDATA, add(CFA_XSP16, literal(-23)))
          CFI (cfiCond161) V0 load(1, XDATA, add(CFA_XSP16, literal(-22)))
          CFI (cfiCond161) V1 load(1, XDATA, add(CFA_XSP16, literal(-21)))
          CFI (cfiCond161) V2 load(1, XDATA, add(CFA_XSP16, literal(-20)))
          CFI (cfiCond161) V3 load(1, XDATA, add(CFA_XSP16, literal(-19)))
          CFI (cfiCond161) V4 load(1, XDATA, add(CFA_XSP16, literal(-18)))
          CFI (cfiCond161) V5 load(1, XDATA, add(CFA_XSP16, literal(-17)))
          CFI (cfiCond161) V6 load(1, XDATA, add(CFA_XSP16, literal(-16)))
          CFI (cfiCond161) V7 load(1, XDATA, add(CFA_XSP16, literal(-15)))
          CFI (cfiCond161) V8 load(1, XDATA, add(CFA_XSP16, literal(-14)))
          CFI (cfiCond161) V9 load(1, XDATA, add(CFA_XSP16, literal(-13)))
          CFI (cfiCond161) V10 load(1, XDATA, add(CFA_XSP16, literal(-12)))
          CFI (cfiCond161) V11 load(1, XDATA, add(CFA_XSP16, literal(-11)))
          CFI (cfiCond161) V12 load(1, XDATA, add(CFA_XSP16, literal(-10)))
          CFI (cfiCond161) V13 load(1, XDATA, add(CFA_XSP16, literal(-9)))
          CFI (cfiCond161) V14 load(1, XDATA, add(CFA_XSP16, literal(-8)))
          CFI (cfiCond161) V15 load(1, XDATA, add(CFA_XSP16, literal(-7)))
          CFI (cfiCond161) R7 load(1, XDATA, add(CFA_XSP16, literal(-6)))
          CFI (cfiCond161) ?RET_LOW load(1, XDATA, add(CFA_XSP16, literal(-5)))
          CFI (cfiCond161) ?RET_HIGH load(1, XDATA, add(CFA_XSP16, literal(-4)))
          CFI (cfiCond161) ?BRET_EXT load(1, XDATA, add(CFA_XSP16, literal(-3)))
          CFI (cfiCond161) DPL0 load(1, XDATA, add(CFA_XSP16, literal(-2)))
          CFI (cfiCond161) DPH0 load(1, XDATA, add(CFA_XSP16, literal(-1)))
          CFI (cfiCond161) CFA_SP SP+0
          CFI (cfiCond161) CFA_XSP16 add(XSP16, 46)
          CFI Block cfiCond162 Using cfiCommon0
          CFI (cfiCond162) Function calibrationN
          CFI (cfiCond162) Conditional ??CrossCallReturnLabel_120
          CFI (cfiCond162) R6 load(1, XDATA, add(CFA_XSP16, literal(-24)))
          CFI (cfiCond162) VB load(1, XDATA, add(CFA_XSP16, literal(-23)))
          CFI (cfiCond162) V0 load(1, XDATA, add(CFA_XSP16, literal(-22)))
          CFI (cfiCond162) V1 load(1, XDATA, add(CFA_XSP16, literal(-21)))
          CFI (cfiCond162) V2 load(1, XDATA, add(CFA_XSP16, literal(-20)))
          CFI (cfiCond162) V3 load(1, XDATA, add(CFA_XSP16, literal(-19)))
          CFI (cfiCond162) V4 load(1, XDATA, add(CFA_XSP16, literal(-18)))
          CFI (cfiCond162) V5 load(1, XDATA, add(CFA_XSP16, literal(-17)))
          CFI (cfiCond162) V6 load(1, XDATA, add(CFA_XSP16, literal(-16)))
          CFI (cfiCond162) V7 load(1, XDATA, add(CFA_XSP16, literal(-15)))
          CFI (cfiCond162) V8 load(1, XDATA, add(CFA_XSP16, literal(-14)))
          CFI (cfiCond162) V9 load(1, XDATA, add(CFA_XSP16, literal(-13)))
          CFI (cfiCond162) V10 load(1, XDATA, add(CFA_XSP16, literal(-12)))
          CFI (cfiCond162) V11 load(1, XDATA, add(CFA_XSP16, literal(-11)))
          CFI (cfiCond162) V12 load(1, XDATA, add(CFA_XSP16, literal(-10)))
          CFI (cfiCond162) V13 load(1, XDATA, add(CFA_XSP16, literal(-9)))
          CFI (cfiCond162) V14 load(1, XDATA, add(CFA_XSP16, literal(-8)))
          CFI (cfiCond162) V15 load(1, XDATA, add(CFA_XSP16, literal(-7)))
          CFI (cfiCond162) R7 load(1, XDATA, add(CFA_XSP16, literal(-6)))
          CFI (cfiCond162) ?RET_LOW load(1, XDATA, add(CFA_XSP16, literal(-5)))
          CFI (cfiCond162) ?RET_HIGH load(1, XDATA, add(CFA_XSP16, literal(-4)))
          CFI (cfiCond162) ?BRET_EXT load(1, XDATA, add(CFA_XSP16, literal(-3)))
          CFI (cfiCond162) DPL0 load(1, XDATA, add(CFA_XSP16, literal(-2)))
          CFI (cfiCond162) DPH0 load(1, XDATA, add(CFA_XSP16, literal(-1)))
          CFI (cfiCond162) CFA_SP SP+0
          CFI (cfiCond162) CFA_XSP16 add(XSP16, 46)
          CFI Block cfiCond163 Using cfiCommon0
          CFI (cfiCond163) Function calibrationA
          CFI (cfiCond163) Conditional ??CrossCallReturnLabel_121
          CFI (cfiCond163) R6 load(1, XDATA, add(CFA_XSP16, literal(-24)))
          CFI (cfiCond163) VB load(1, XDATA, add(CFA_XSP16, literal(-23)))
          CFI (cfiCond163) V0 load(1, XDATA, add(CFA_XSP16, literal(-22)))
          CFI (cfiCond163) V1 load(1, XDATA, add(CFA_XSP16, literal(-21)))
          CFI (cfiCond163) V2 load(1, XDATA, add(CFA_XSP16, literal(-20)))
          CFI (cfiCond163) V3 load(1, XDATA, add(CFA_XSP16, literal(-19)))
          CFI (cfiCond163) V4 load(1, XDATA, add(CFA_XSP16, literal(-18)))
          CFI (cfiCond163) V5 load(1, XDATA, add(CFA_XSP16, literal(-17)))
          CFI (cfiCond163) V6 load(1, XDATA, add(CFA_XSP16, literal(-16)))
          CFI (cfiCond163) V7 load(1, XDATA, add(CFA_XSP16, literal(-15)))
          CFI (cfiCond163) V8 load(1, XDATA, add(CFA_XSP16, literal(-14)))
          CFI (cfiCond163) V9 load(1, XDATA, add(CFA_XSP16, literal(-13)))
          CFI (cfiCond163) V10 load(1, XDATA, add(CFA_XSP16, literal(-12)))
          CFI (cfiCond163) V11 load(1, XDATA, add(CFA_XSP16, literal(-11)))
          CFI (cfiCond163) V12 load(1, XDATA, add(CFA_XSP16, literal(-10)))
          CFI (cfiCond163) V13 load(1, XDATA, add(CFA_XSP16, literal(-9)))
          CFI (cfiCond163) V14 load(1, XDATA, add(CFA_XSP16, literal(-8)))
          CFI (cfiCond163) V15 load(1, XDATA, add(CFA_XSP16, literal(-7)))
          CFI (cfiCond163) R7 load(1, XDATA, add(CFA_XSP16, literal(-6)))
          CFI (cfiCond163) ?RET_LOW load(1, XDATA, add(CFA_XSP16, literal(-5)))
          CFI (cfiCond163) ?RET_HIGH load(1, XDATA, add(CFA_XSP16, literal(-4)))
          CFI (cfiCond163) ?BRET_EXT load(1, XDATA, add(CFA_XSP16, literal(-3)))
          CFI (cfiCond163) DPL0 load(1, XDATA, add(CFA_XSP16, literal(-2)))
          CFI (cfiCond163) DPH0 load(1, XDATA, add(CFA_XSP16, literal(-1)))
          CFI (cfiCond163) CFA_SP SP+0
          CFI (cfiCond163) CFA_XSP16 add(XSP16, 30)
          CFI Block cfiCond164 Using cfiCommon0
          CFI (cfiCond164) Function calibrationA
          CFI (cfiCond164) Conditional ??CrossCallReturnLabel_122
          CFI (cfiCond164) R6 load(1, XDATA, add(CFA_XSP16, literal(-24)))
          CFI (cfiCond164) VB load(1, XDATA, add(CFA_XSP16, literal(-23)))
          CFI (cfiCond164) V0 load(1, XDATA, add(CFA_XSP16, literal(-22)))
          CFI (cfiCond164) V1 load(1, XDATA, add(CFA_XSP16, literal(-21)))
          CFI (cfiCond164) V2 load(1, XDATA, add(CFA_XSP16, literal(-20)))
          CFI (cfiCond164) V3 load(1, XDATA, add(CFA_XSP16, literal(-19)))
          CFI (cfiCond164) V4 load(1, XDATA, add(CFA_XSP16, literal(-18)))
          CFI (cfiCond164) V5 load(1, XDATA, add(CFA_XSP16, literal(-17)))
          CFI (cfiCond164) V6 load(1, XDATA, add(CFA_XSP16, literal(-16)))
          CFI (cfiCond164) V7 load(1, XDATA, add(CFA_XSP16, literal(-15)))
          CFI (cfiCond164) V8 load(1, XDATA, add(CFA_XSP16, literal(-14)))
          CFI (cfiCond164) V9 load(1, XDATA, add(CFA_XSP16, literal(-13)))
          CFI (cfiCond164) V10 load(1, XDATA, add(CFA_XSP16, literal(-12)))
          CFI (cfiCond164) V11 load(1, XDATA, add(CFA_XSP16, literal(-11)))
          CFI (cfiCond164) V12 load(1, XDATA, add(CFA_XSP16, literal(-10)))
          CFI (cfiCond164) V13 load(1, XDATA, add(CFA_XSP16, literal(-9)))
          CFI (cfiCond164) V14 load(1, XDATA, add(CFA_XSP16, literal(-8)))
          CFI (cfiCond164) V15 load(1, XDATA, add(CFA_XSP16, literal(-7)))
          CFI (cfiCond164) R7 load(1, XDATA, add(CFA_XSP16, literal(-6)))
          CFI (cfiCond164) ?RET_LOW load(1, XDATA, add(CFA_XSP16, literal(-5)))
          CFI (cfiCond164) ?RET_HIGH load(1, XDATA, add(CFA_XSP16, literal(-4)))
          CFI (cfiCond164) ?BRET_EXT load(1, XDATA, add(CFA_XSP16, literal(-3)))
          CFI (cfiCond164) DPL0 load(1, XDATA, add(CFA_XSP16, literal(-2)))
          CFI (cfiCond164) DPH0 load(1, XDATA, add(CFA_XSP16, literal(-1)))
          CFI (cfiCond164) CFA_SP SP+0
          CFI (cfiCond164) CFA_XSP16 add(XSP16, 30)
          CFI Block cfiPicker165 Using cfiCommon1
          CFI (cfiPicker165) NoFunction
          CFI (cfiPicker165) Picker
        ADDC    A,?V0 + 9
        LCALL   ?Subroutine42 & 0xFFFF
??CrossCallReturnLabel_124:
        MOV     R0,#?V0 + 8
        RET
          CFI EndBlock cfiCond159
          CFI EndBlock cfiCond160
          CFI EndBlock cfiCond161
          CFI EndBlock cfiCond162
          CFI EndBlock cfiCond163
          CFI EndBlock cfiCond164
          CFI EndBlock cfiPicker165

        RSEG BANKED_CODE:CODE:NOROOT(0)
?Subroutine42:
          CFI Block cfiCond166 Using cfiCommon0
          CFI Function calibrationN
          CFI Conditional ??CrossCallReturnLabel_123, ??CrossCallReturnLabel_90
          CFI R6 load(1, XDATA, add(CFA_XSP16, literal(-24)))
          CFI VB load(1, XDATA, add(CFA_XSP16, literal(-23)))
          CFI V0 load(1, XDATA, add(CFA_XSP16, literal(-22)))
          CFI V1 load(1, XDATA, add(CFA_XSP16, literal(-21)))
          CFI V2 load(1, XDATA, add(CFA_XSP16, literal(-20)))
          CFI V3 load(1, XDATA, add(CFA_XSP16, literal(-19)))
          CFI V4 load(1, XDATA, add(CFA_XSP16, literal(-18)))
          CFI V5 load(1, XDATA, add(CFA_XSP16, literal(-17)))
          CFI V6 load(1, XDATA, add(CFA_XSP16, literal(-16)))
          CFI V7 load(1, XDATA, add(CFA_XSP16, literal(-15)))
          CFI V8 load(1, XDATA, add(CFA_XSP16, literal(-14)))
          CFI V9 load(1, XDATA, add(CFA_XSP16, literal(-13)))
          CFI V10 load(1, XDATA, add(CFA_XSP16, literal(-12)))
          CFI V11 load(1, XDATA, add(CFA_XSP16, literal(-11)))
          CFI V12 load(1, XDATA, add(CFA_XSP16, literal(-10)))
          CFI V13 load(1, XDATA, add(CFA_XSP16, literal(-9)))
          CFI V14 load(1, XDATA, add(CFA_XSP16, literal(-8)))
          CFI V15 load(1, XDATA, add(CFA_XSP16, literal(-7)))
          CFI R7 load(1, XDATA, add(CFA_XSP16, literal(-6)))
          CFI ?RET_LOW load(1, XDATA, add(CFA_XSP16, literal(-5)))
          CFI ?RET_HIGH load(1, XDATA, add(CFA_XSP16, literal(-4)))
          CFI ?BRET_EXT load(1, XDATA, add(CFA_XSP16, literal(-3)))
          CFI DPL0 load(1, XDATA, add(CFA_XSP16, literal(-2)))
          CFI DPH0 load(1, XDATA, add(CFA_XSP16, literal(-1)))
          CFI CFA_SP SP+0
          CFI CFA_XSP16 add(XSP16, 46)
          CFI Block cfiCond167 Using cfiCommon0
          CFI (cfiCond167) Function calibrationA
          CFI (cfiCond167) Conditional ??CrossCallReturnLabel_123, ??CrossCallReturnLabel_91
          CFI (cfiCond167) R6 load(1, XDATA, add(CFA_XSP16, literal(-24)))
          CFI (cfiCond167) VB load(1, XDATA, add(CFA_XSP16, literal(-23)))
          CFI (cfiCond167) V0 load(1, XDATA, add(CFA_XSP16, literal(-22)))
          CFI (cfiCond167) V1 load(1, XDATA, add(CFA_XSP16, literal(-21)))
          CFI (cfiCond167) V2 load(1, XDATA, add(CFA_XSP16, literal(-20)))
          CFI (cfiCond167) V3 load(1, XDATA, add(CFA_XSP16, literal(-19)))
          CFI (cfiCond167) V4 load(1, XDATA, add(CFA_XSP16, literal(-18)))
          CFI (cfiCond167) V5 load(1, XDATA, add(CFA_XSP16, literal(-17)))
          CFI (cfiCond167) V6 load(1, XDATA, add(CFA_XSP16, literal(-16)))
          CFI (cfiCond167) V7 load(1, XDATA, add(CFA_XSP16, literal(-15)))
          CFI (cfiCond167) V8 load(1, XDATA, add(CFA_XSP16, literal(-14)))
          CFI (cfiCond167) V9 load(1, XDATA, add(CFA_XSP16, literal(-13)))
          CFI (cfiCond167) V10 load(1, XDATA, add(CFA_XSP16, literal(-12)))
          CFI (cfiCond167) V11 load(1, XDATA, add(CFA_XSP16, literal(-11)))
          CFI (cfiCond167) V12 load(1, XDATA, add(CFA_XSP16, literal(-10)))
          CFI (cfiCond167) V13 load(1, XDATA, add(CFA_XSP16, literal(-9)))
          CFI (cfiCond167) V14 load(1, XDATA, add(CFA_XSP16, literal(-8)))
          CFI (cfiCond167) V15 load(1, XDATA, add(CFA_XSP16, literal(-7)))
          CFI (cfiCond167) R7 load(1, XDATA, add(CFA_XSP16, literal(-6)))
          CFI (cfiCond167) ?RET_LOW load(1, XDATA, add(CFA_XSP16, literal(-5)))
          CFI (cfiCond167) ?RET_HIGH load(1, XDATA, add(CFA_XSP16, literal(-4)))
          CFI (cfiCond167) ?BRET_EXT load(1, XDATA, add(CFA_XSP16, literal(-3)))
          CFI (cfiCond167) DPL0 load(1, XDATA, add(CFA_XSP16, literal(-2)))
          CFI (cfiCond167) DPH0 load(1, XDATA, add(CFA_XSP16, literal(-1)))
          CFI (cfiCond167) CFA_SP SP+0
          CFI (cfiCond167) CFA_XSP16 add(XSP16, 30)
          CFI Block cfiCond168 Using cfiCommon0
          CFI (cfiCond168) Function calibrationN
          CFI (cfiCond168) Conditional ??CrossCallReturnLabel_124, ??CrossCallReturnLabel_119
          CFI (cfiCond168) R6 load(1, XDATA, add(CFA_XSP16, literal(-24)))
          CFI (cfiCond168) VB load(1, XDATA, add(CFA_XSP16, literal(-23)))
          CFI (cfiCond168) V0 load(1, XDATA, add(CFA_XSP16, literal(-22)))
          CFI (cfiCond168) V1 load(1, XDATA, add(CFA_XSP16, literal(-21)))
          CFI (cfiCond168) V2 load(1, XDATA, add(CFA_XSP16, literal(-20)))
          CFI (cfiCond168) V3 load(1, XDATA, add(CFA_XSP16, literal(-19)))
          CFI (cfiCond168) V4 load(1, XDATA, add(CFA_XSP16, literal(-18)))
          CFI (cfiCond168) V5 load(1, XDATA, add(CFA_XSP16, literal(-17)))
          CFI (cfiCond168) V6 load(1, XDATA, add(CFA_XSP16, literal(-16)))
          CFI (cfiCond168) V7 load(1, XDATA, add(CFA_XSP16, literal(-15)))
          CFI (cfiCond168) V8 load(1, XDATA, add(CFA_XSP16, literal(-14)))
          CFI (cfiCond168) V9 load(1, XDATA, add(CFA_XSP16, literal(-13)))
          CFI (cfiCond168) V10 load(1, XDATA, add(CFA_XSP16, literal(-12)))
          CFI (cfiCond168) V11 load(1, XDATA, add(CFA_XSP16, literal(-11)))
          CFI (cfiCond168) V12 load(1, XDATA, add(CFA_XSP16, literal(-10)))
          CFI (cfiCond168) V13 load(1, XDATA, add(CFA_XSP16, literal(-9)))
          CFI (cfiCond168) V14 load(1, XDATA, add(CFA_XSP16, literal(-8)))
          CFI (cfiCond168) V15 load(1, XDATA, add(CFA_XSP16, literal(-7)))
          CFI (cfiCond168) R7 load(1, XDATA, add(CFA_XSP16, literal(-6)))
          CFI (cfiCond168) ?RET_LOW load(1, XDATA, add(CFA_XSP16, literal(-5)))
          CFI (cfiCond168) ?RET_HIGH load(1, XDATA, add(CFA_XSP16, literal(-4)))
          CFI (cfiCond168) ?BRET_EXT load(1, XDATA, add(CFA_XSP16, literal(-3)))
          CFI (cfiCond168) DPL0 load(1, XDATA, add(CFA_XSP16, literal(-2)))
          CFI (cfiCond168) DPH0 load(1, XDATA, add(CFA_XSP16, literal(-1)))
          CFI (cfiCond168) CFA_SP SP+0
          CFI (cfiCond168) CFA_XSP16 add(XSP16, 46)
          CFI Block cfiCond169 Using cfiCommon0
          CFI (cfiCond169) Function calibrationN
          CFI (cfiCond169) Conditional ??CrossCallReturnLabel_124, ??CrossCallReturnLabel_120
          CFI (cfiCond169) R6 load(1, XDATA, add(CFA_XSP16, literal(-24)))
          CFI (cfiCond169) VB load(1, XDATA, add(CFA_XSP16, literal(-23)))
          CFI (cfiCond169) V0 load(1, XDATA, add(CFA_XSP16, literal(-22)))
          CFI (cfiCond169) V1 load(1, XDATA, add(CFA_XSP16, literal(-21)))
          CFI (cfiCond169) V2 load(1, XDATA, add(CFA_XSP16, literal(-20)))
          CFI (cfiCond169) V3 load(1, XDATA, add(CFA_XSP16, literal(-19)))
          CFI (cfiCond169) V4 load(1, XDATA, add(CFA_XSP16, literal(-18)))
          CFI (cfiCond169) V5 load(1, XDATA, add(CFA_XSP16, literal(-17)))
          CFI (cfiCond169) V6 load(1, XDATA, add(CFA_XSP16, literal(-16)))
          CFI (cfiCond169) V7 load(1, XDATA, add(CFA_XSP16, literal(-15)))
          CFI (cfiCond169) V8 load(1, XDATA, add(CFA_XSP16, literal(-14)))
          CFI (cfiCond169) V9 load(1, XDATA, add(CFA_XSP16, literal(-13)))
          CFI (cfiCond169) V10 load(1, XDATA, add(CFA_XSP16, literal(-12)))
          CFI (cfiCond169) V11 load(1, XDATA, add(CFA_XSP16, literal(-11)))
          CFI (cfiCond169) V12 load(1, XDATA, add(CFA_XSP16, literal(-10)))
          CFI (cfiCond169) V13 load(1, XDATA, add(CFA_XSP16, literal(-9)))
          CFI (cfiCond169) V14 load(1, XDATA, add(CFA_XSP16, literal(-8)))
          CFI (cfiCond169) V15 load(1, XDATA, add(CFA_XSP16, literal(-7)))
          CFI (cfiCond169) R7 load(1, XDATA, add(CFA_XSP16, literal(-6)))
          CFI (cfiCond169) ?RET_LOW load(1, XDATA, add(CFA_XSP16, literal(-5)))
          CFI (cfiCond169) ?RET_HIGH load(1, XDATA, add(CFA_XSP16, literal(-4)))
          CFI (cfiCond169) ?BRET_EXT load(1, XDATA, add(CFA_XSP16, literal(-3)))
          CFI (cfiCond169) DPL0 load(1, XDATA, add(CFA_XSP16, literal(-2)))
          CFI (cfiCond169) DPH0 load(1, XDATA, add(CFA_XSP16, literal(-1)))
          CFI (cfiCond169) CFA_SP SP+0
          CFI (cfiCond169) CFA_XSP16 add(XSP16, 46)
          CFI Block cfiCond170 Using cfiCommon0
          CFI (cfiCond170) Function calibrationA
          CFI (cfiCond170) Conditional ??CrossCallReturnLabel_124, ??CrossCallReturnLabel_121
          CFI (cfiCond170) R6 load(1, XDATA, add(CFA_XSP16, literal(-24)))
          CFI (cfiCond170) VB load(1, XDATA, add(CFA_XSP16, literal(-23)))
          CFI (cfiCond170) V0 load(1, XDATA, add(CFA_XSP16, literal(-22)))
          CFI (cfiCond170) V1 load(1, XDATA, add(CFA_XSP16, literal(-21)))
          CFI (cfiCond170) V2 load(1, XDATA, add(CFA_XSP16, literal(-20)))
          CFI (cfiCond170) V3 load(1, XDATA, add(CFA_XSP16, literal(-19)))
          CFI (cfiCond170) V4 load(1, XDATA, add(CFA_XSP16, literal(-18)))
          CFI (cfiCond170) V5 load(1, XDATA, add(CFA_XSP16, literal(-17)))
          CFI (cfiCond170) V6 load(1, XDATA, add(CFA_XSP16, literal(-16)))
          CFI (cfiCond170) V7 load(1, XDATA, add(CFA_XSP16, literal(-15)))
          CFI (cfiCond170) V8 load(1, XDATA, add(CFA_XSP16, literal(-14)))
          CFI (cfiCond170) V9 load(1, XDATA, add(CFA_XSP16, literal(-13)))
          CFI (cfiCond170) V10 load(1, XDATA, add(CFA_XSP16, literal(-12)))
          CFI (cfiCond170) V11 load(1, XDATA, add(CFA_XSP16, literal(-11)))
          CFI (cfiCond170) V12 load(1, XDATA, add(CFA_XSP16, literal(-10)))
          CFI (cfiCond170) V13 load(1, XDATA, add(CFA_XSP16, literal(-9)))
          CFI (cfiCond170) V14 load(1, XDATA, add(CFA_XSP16, literal(-8)))
          CFI (cfiCond170) V15 load(1, XDATA, add(CFA_XSP16, literal(-7)))
          CFI (cfiCond170) R7 load(1, XDATA, add(CFA_XSP16, literal(-6)))
          CFI (cfiCond170) ?RET_LOW load(1, XDATA, add(CFA_XSP16, literal(-5)))
          CFI (cfiCond170) ?RET_HIGH load(1, XDATA, add(CFA_XSP16, literal(-4)))
          CFI (cfiCond170) ?BRET_EXT load(1, XDATA, add(CFA_XSP16, literal(-3)))
          CFI (cfiCond170) DPL0 load(1, XDATA, add(CFA_XSP16, literal(-2)))
          CFI (cfiCond170) DPH0 load(1, XDATA, add(CFA_XSP16, literal(-1)))
          CFI (cfiCond170) CFA_SP SP+0
          CFI (cfiCond170) CFA_XSP16 add(XSP16, 30)
          CFI Block cfiCond171 Using cfiCommon0
          CFI (cfiCond171) Function calibrationA
          CFI (cfiCond171) Conditional ??CrossCallReturnLabel_124, ??CrossCallReturnLabel_122
          CFI (cfiCond171) R6 load(1, XDATA, add(CFA_XSP16, literal(-24)))
          CFI (cfiCond171) VB load(1, XDATA, add(CFA_XSP16, literal(-23)))
          CFI (cfiCond171) V0 load(1, XDATA, add(CFA_XSP16, literal(-22)))
          CFI (cfiCond171) V1 load(1, XDATA, add(CFA_XSP16, literal(-21)))
          CFI (cfiCond171) V2 load(1, XDATA, add(CFA_XSP16, literal(-20)))
          CFI (cfiCond171) V3 load(1, XDATA, add(CFA_XSP16, literal(-19)))
          CFI (cfiCond171) V4 load(1, XDATA, add(CFA_XSP16, literal(-18)))
          CFI (cfiCond171) V5 load(1, XDATA, add(CFA_XSP16, literal(-17)))
          CFI (cfiCond171) V6 load(1, XDATA, add(CFA_XSP16, literal(-16)))
          CFI (cfiCond171) V7 load(1, XDATA, add(CFA_XSP16, literal(-15)))
          CFI (cfiCond171) V8 load(1, XDATA, add(CFA_XSP16, literal(-14)))
          CFI (cfiCond171) V9 load(1, XDATA, add(CFA_XSP16, literal(-13)))
          CFI (cfiCond171) V10 load(1, XDATA, add(CFA_XSP16, literal(-12)))
          CFI (cfiCond171) V11 load(1, XDATA, add(CFA_XSP16, literal(-11)))
          CFI (cfiCond171) V12 load(1, XDATA, add(CFA_XSP16, literal(-10)))
          CFI (cfiCond171) V13 load(1, XDATA, add(CFA_XSP16, literal(-9)))
          CFI (cfiCond171) V14 load(1, XDATA, add(CFA_XSP16, literal(-8)))
          CFI (cfiCond171) V15 load(1, XDATA, add(CFA_XSP16, literal(-7)))
          CFI (cfiCond171) R7 load(1, XDATA, add(CFA_XSP16, literal(-6)))
          CFI (cfiCond171) ?RET_LOW load(1, XDATA, add(CFA_XSP16, literal(-5)))
          CFI (cfiCond171) ?RET_HIGH load(1, XDATA, add(CFA_XSP16, literal(-4)))
          CFI (cfiCond171) ?BRET_EXT load(1, XDATA, add(CFA_XSP16, literal(-3)))
          CFI (cfiCond171) DPL0 load(1, XDATA, add(CFA_XSP16, literal(-2)))
          CFI (cfiCond171) DPH0 load(1, XDATA, add(CFA_XSP16, literal(-1)))
          CFI (cfiCond171) CFA_SP SP+0
          CFI (cfiCond171) CFA_XSP16 add(XSP16, 30)
          CFI Block cfiCond172 Using cfiCommon0
          CFI (cfiCond172) Function calibrationN
          CFI (cfiCond172) Conditional ??CrossCallReturnLabel_124, ??CrossCallReturnLabel_117
          CFI (cfiCond172) R6 load(1, XDATA, add(CFA_XSP16, literal(-24)))
          CFI (cfiCond172) VB load(1, XDATA, add(CFA_XSP16, literal(-23)))
          CFI (cfiCond172) V0 load(1, XDATA, add(CFA_XSP16, literal(-22)))
          CFI (cfiCond172) V1 load(1, XDATA, add(CFA_XSP16, literal(-21)))
          CFI (cfiCond172) V2 load(1, XDATA, add(CFA_XSP16, literal(-20)))
          CFI (cfiCond172) V3 load(1, XDATA, add(CFA_XSP16, literal(-19)))
          CFI (cfiCond172) V4 load(1, XDATA, add(CFA_XSP16, literal(-18)))
          CFI (cfiCond172) V5 load(1, XDATA, add(CFA_XSP16, literal(-17)))
          CFI (cfiCond172) V6 load(1, XDATA, add(CFA_XSP16, literal(-16)))
          CFI (cfiCond172) V7 load(1, XDATA, add(CFA_XSP16, literal(-15)))
          CFI (cfiCond172) V8 load(1, XDATA, add(CFA_XSP16, literal(-14)))
          CFI (cfiCond172) V9 load(1, XDATA, add(CFA_XSP16, literal(-13)))
          CFI (cfiCond172) V10 load(1, XDATA, add(CFA_XSP16, literal(-12)))
          CFI (cfiCond172) V11 load(1, XDATA, add(CFA_XSP16, literal(-11)))
          CFI (cfiCond172) V12 load(1, XDATA, add(CFA_XSP16, literal(-10)))
          CFI (cfiCond172) V13 load(1, XDATA, add(CFA_XSP16, literal(-9)))
          CFI (cfiCond172) V14 load(1, XDATA, add(CFA_XSP16, literal(-8)))
          CFI (cfiCond172) V15 load(1, XDATA, add(CFA_XSP16, literal(-7)))
          CFI (cfiCond172) R7 load(1, XDATA, add(CFA_XSP16, literal(-6)))
          CFI (cfiCond172) ?RET_LOW load(1, XDATA, add(CFA_XSP16, literal(-5)))
          CFI (cfiCond172) ?RET_HIGH load(1, XDATA, add(CFA_XSP16, literal(-4)))
          CFI (cfiCond172) ?BRET_EXT load(1, XDATA, add(CFA_XSP16, literal(-3)))
          CFI (cfiCond172) DPL0 load(1, XDATA, add(CFA_XSP16, literal(-2)))
          CFI (cfiCond172) DPH0 load(1, XDATA, add(CFA_XSP16, literal(-1)))
          CFI (cfiCond172) CFA_SP SP+0
          CFI (cfiCond172) CFA_XSP16 add(XSP16, 46)
          CFI Block cfiCond173 Using cfiCommon0
          CFI (cfiCond173) Function calibrationA
          CFI (cfiCond173) Conditional ??CrossCallReturnLabel_124, ??CrossCallReturnLabel_118
          CFI (cfiCond173) R6 load(1, XDATA, add(CFA_XSP16, literal(-24)))
          CFI (cfiCond173) VB load(1, XDATA, add(CFA_XSP16, literal(-23)))
          CFI (cfiCond173) V0 load(1, XDATA, add(CFA_XSP16, literal(-22)))
          CFI (cfiCond173) V1 load(1, XDATA, add(CFA_XSP16, literal(-21)))
          CFI (cfiCond173) V2 load(1, XDATA, add(CFA_XSP16, literal(-20)))
          CFI (cfiCond173) V3 load(1, XDATA, add(CFA_XSP16, literal(-19)))
          CFI (cfiCond173) V4 load(1, XDATA, add(CFA_XSP16, literal(-18)))
          CFI (cfiCond173) V5 load(1, XDATA, add(CFA_XSP16, literal(-17)))
          CFI (cfiCond173) V6 load(1, XDATA, add(CFA_XSP16, literal(-16)))
          CFI (cfiCond173) V7 load(1, XDATA, add(CFA_XSP16, literal(-15)))
          CFI (cfiCond173) V8 load(1, XDATA, add(CFA_XSP16, literal(-14)))
          CFI (cfiCond173) V9 load(1, XDATA, add(CFA_XSP16, literal(-13)))
          CFI (cfiCond173) V10 load(1, XDATA, add(CFA_XSP16, literal(-12)))
          CFI (cfiCond173) V11 load(1, XDATA, add(CFA_XSP16, literal(-11)))
          CFI (cfiCond173) V12 load(1, XDATA, add(CFA_XSP16, literal(-10)))
          CFI (cfiCond173) V13 load(1, XDATA, add(CFA_XSP16, literal(-9)))
          CFI (cfiCond173) V14 load(1, XDATA, add(CFA_XSP16, literal(-8)))
          CFI (cfiCond173) V15 load(1, XDATA, add(CFA_XSP16, literal(-7)))
          CFI (cfiCond173) R7 load(1, XDATA, add(CFA_XSP16, literal(-6)))
          CFI (cfiCond173) ?RET_LOW load(1, XDATA, add(CFA_XSP16, literal(-5)))
          CFI (cfiCond173) ?RET_HIGH load(1, XDATA, add(CFA_XSP16, literal(-4)))
          CFI (cfiCond173) ?BRET_EXT load(1, XDATA, add(CFA_XSP16, literal(-3)))
          CFI (cfiCond173) DPL0 load(1, XDATA, add(CFA_XSP16, literal(-2)))
          CFI (cfiCond173) DPH0 load(1, XDATA, add(CFA_XSP16, literal(-1)))
          CFI (cfiCond173) CFA_SP SP+0
          CFI (cfiCond173) CFA_XSP16 add(XSP16, 30)
          CFI Block cfiPicker174 Using cfiCommon1
          CFI (cfiPicker174) NoFunction
          CFI (cfiPicker174) Picker
        LCALL   ?Subroutine43 & 0xFFFF
??CrossCallReturnLabel_128:
        RET
          CFI EndBlock cfiCond166
          CFI EndBlock cfiCond167
          CFI EndBlock cfiCond168
          CFI EndBlock cfiCond169
          CFI EndBlock cfiCond170
          CFI EndBlock cfiCond171
          CFI EndBlock cfiCond172
          CFI EndBlock cfiCond173
          CFI EndBlock cfiPicker174

        RSEG BANKED_CODE:CODE:NOROOT(0)
?Subroutine43:
          CFI Block cfiCond175 Using cfiCommon0
          CFI Function calibrationN
          CFI Conditional ??CrossCallReturnLabel_128, ??CrossCallReturnLabel_123, ??CrossCallReturnLabel_90
          CFI R6 load(1, XDATA, add(CFA_XSP16, literal(-24)))
          CFI VB load(1, XDATA, add(CFA_XSP16, literal(-23)))
          CFI V0 load(1, XDATA, add(CFA_XSP16, literal(-22)))
          CFI V1 load(1, XDATA, add(CFA_XSP16, literal(-21)))
          CFI V2 load(1, XDATA, add(CFA_XSP16, literal(-20)))
          CFI V3 load(1, XDATA, add(CFA_XSP16, literal(-19)))
          CFI V4 load(1, XDATA, add(CFA_XSP16, literal(-18)))
          CFI V5 load(1, XDATA, add(CFA_XSP16, literal(-17)))
          CFI V6 load(1, XDATA, add(CFA_XSP16, literal(-16)))
          CFI V7 load(1, XDATA, add(CFA_XSP16, literal(-15)))
          CFI V8 load(1, XDATA, add(CFA_XSP16, literal(-14)))
          CFI V9 load(1, XDATA, add(CFA_XSP16, literal(-13)))
          CFI V10 load(1, XDATA, add(CFA_XSP16, literal(-12)))
          CFI V11 load(1, XDATA, add(CFA_XSP16, literal(-11)))
          CFI V12 load(1, XDATA, add(CFA_XSP16, literal(-10)))
          CFI V13 load(1, XDATA, add(CFA_XSP16, literal(-9)))
          CFI V14 load(1, XDATA, add(CFA_XSP16, literal(-8)))
          CFI V15 load(1, XDATA, add(CFA_XSP16, literal(-7)))
          CFI R7 load(1, XDATA, add(CFA_XSP16, literal(-6)))
          CFI ?RET_LOW load(1, XDATA, add(CFA_XSP16, literal(-5)))
          CFI ?RET_HIGH load(1, XDATA, add(CFA_XSP16, literal(-4)))
          CFI ?BRET_EXT load(1, XDATA, add(CFA_XSP16, literal(-3)))
          CFI DPL0 load(1, XDATA, add(CFA_XSP16, literal(-2)))
          CFI DPH0 load(1, XDATA, add(CFA_XSP16, literal(-1)))
          CFI CFA_SP SP+0
          CFI CFA_XSP16 add(XSP16, 46)
          CFI Block cfiCond176 Using cfiCommon0
          CFI (cfiCond176) Function calibrationA
          CFI (cfiCond176) Conditional ??CrossCallReturnLabel_128, ??CrossCallReturnLabel_123, ??CrossCallReturnLabel_91
          CFI (cfiCond176) R6 load(1, XDATA, add(CFA_XSP16, literal(-24)))
          CFI (cfiCond176) VB load(1, XDATA, add(CFA_XSP16, literal(-23)))
          CFI (cfiCond176) V0 load(1, XDATA, add(CFA_XSP16, literal(-22)))
          CFI (cfiCond176) V1 load(1, XDATA, add(CFA_XSP16, literal(-21)))
          CFI (cfiCond176) V2 load(1, XDATA, add(CFA_XSP16, literal(-20)))
          CFI (cfiCond176) V3 load(1, XDATA, add(CFA_XSP16, literal(-19)))
          CFI (cfiCond176) V4 load(1, XDATA, add(CFA_XSP16, literal(-18)))
          CFI (cfiCond176) V5 load(1, XDATA, add(CFA_XSP16, literal(-17)))
          CFI (cfiCond176) V6 load(1, XDATA, add(CFA_XSP16, literal(-16)))
          CFI (cfiCond176) V7 load(1, XDATA, add(CFA_XSP16, literal(-15)))
          CFI (cfiCond176) V8 load(1, XDATA, add(CFA_XSP16, literal(-14)))
          CFI (cfiCond176) V9 load(1, XDATA, add(CFA_XSP16, literal(-13)))
          CFI (cfiCond176) V10 load(1, XDATA, add(CFA_XSP16, literal(-12)))
          CFI (cfiCond176) V11 load(1, XDATA, add(CFA_XSP16, literal(-11)))
          CFI (cfiCond176) V12 load(1, XDATA, add(CFA_XSP16, literal(-10)))
          CFI (cfiCond176) V13 load(1, XDATA, add(CFA_XSP16, literal(-9)))
          CFI (cfiCond176) V14 load(1, XDATA, add(CFA_XSP16, literal(-8)))
          CFI (cfiCond176) V15 load(1, XDATA, add(CFA_XSP16, literal(-7)))
          CFI (cfiCond176) R7 load(1, XDATA, add(CFA_XSP16, literal(-6)))
          CFI (cfiCond176) ?RET_LOW load(1, XDATA, add(CFA_XSP16, literal(-5)))
          CFI (cfiCond176) ?RET_HIGH load(1, XDATA, add(CFA_XSP16, literal(-4)))
          CFI (cfiCond176) ?BRET_EXT load(1, XDATA, add(CFA_XSP16, literal(-3)))
          CFI (cfiCond176) DPL0 load(1, XDATA, add(CFA_XSP16, literal(-2)))
          CFI (cfiCond176) DPH0 load(1, XDATA, add(CFA_XSP16, literal(-1)))
          CFI (cfiCond176) CFA_SP SP+0
          CFI (cfiCond176) CFA_XSP16 add(XSP16, 30)
          CFI Block cfiCond177 Using cfiCommon0
          CFI (cfiCond177) Function calibrationN
          CFI (cfiCond177) Conditional ??CrossCallReturnLabel_128, ??CrossCallReturnLabel_124, ??CrossCallReturnLabel_119
          CFI (cfiCond177) R6 load(1, XDATA, add(CFA_XSP16, literal(-24)))
          CFI (cfiCond177) VB load(1, XDATA, add(CFA_XSP16, literal(-23)))
          CFI (cfiCond177) V0 load(1, XDATA, add(CFA_XSP16, literal(-22)))
          CFI (cfiCond177) V1 load(1, XDATA, add(CFA_XSP16, literal(-21)))
          CFI (cfiCond177) V2 load(1, XDATA, add(CFA_XSP16, literal(-20)))
          CFI (cfiCond177) V3 load(1, XDATA, add(CFA_XSP16, literal(-19)))
          CFI (cfiCond177) V4 load(1, XDATA, add(CFA_XSP16, literal(-18)))
          CFI (cfiCond177) V5 load(1, XDATA, add(CFA_XSP16, literal(-17)))
          CFI (cfiCond177) V6 load(1, XDATA, add(CFA_XSP16, literal(-16)))
          CFI (cfiCond177) V7 load(1, XDATA, add(CFA_XSP16, literal(-15)))
          CFI (cfiCond177) V8 load(1, XDATA, add(CFA_XSP16, literal(-14)))
          CFI (cfiCond177) V9 load(1, XDATA, add(CFA_XSP16, literal(-13)))
          CFI (cfiCond177) V10 load(1, XDATA, add(CFA_XSP16, literal(-12)))
          CFI (cfiCond177) V11 load(1, XDATA, add(CFA_XSP16, literal(-11)))
          CFI (cfiCond177) V12 load(1, XDATA, add(CFA_XSP16, literal(-10)))
          CFI (cfiCond177) V13 load(1, XDATA, add(CFA_XSP16, literal(-9)))
          CFI (cfiCond177) V14 load(1, XDATA, add(CFA_XSP16, literal(-8)))
          CFI (cfiCond177) V15 load(1, XDATA, add(CFA_XSP16, literal(-7)))
          CFI (cfiCond177) R7 load(1, XDATA, add(CFA_XSP16, literal(-6)))
          CFI (cfiCond177) ?RET_LOW load(1, XDATA, add(CFA_XSP16, literal(-5)))
          CFI (cfiCond177) ?RET_HIGH load(1, XDATA, add(CFA_XSP16, literal(-4)))
          CFI (cfiCond177) ?BRET_EXT load(1, XDATA, add(CFA_XSP16, literal(-3)))
          CFI (cfiCond177) DPL0 load(1, XDATA, add(CFA_XSP16, literal(-2)))
          CFI (cfiCond177) DPH0 load(1, XDATA, add(CFA_XSP16, literal(-1)))
          CFI (cfiCond177) CFA_SP SP+0
          CFI (cfiCond177) CFA_XSP16 add(XSP16, 46)
          CFI Block cfiCond178 Using cfiCommon0
          CFI (cfiCond178) Function calibrationN
          CFI (cfiCond178) Conditional ??CrossCallReturnLabel_128, ??CrossCallReturnLabel_124, ??CrossCallReturnLabel_120
          CFI (cfiCond178) R6 load(1, XDATA, add(CFA_XSP16, literal(-24)))
          CFI (cfiCond178) VB load(1, XDATA, add(CFA_XSP16, literal(-23)))
          CFI (cfiCond178) V0 load(1, XDATA, add(CFA_XSP16, literal(-22)))
          CFI (cfiCond178) V1 load(1, XDATA, add(CFA_XSP16, literal(-21)))
          CFI (cfiCond178) V2 load(1, XDATA, add(CFA_XSP16, literal(-20)))
          CFI (cfiCond178) V3 load(1, XDATA, add(CFA_XSP16, literal(-19)))
          CFI (cfiCond178) V4 load(1, XDATA, add(CFA_XSP16, literal(-18)))
          CFI (cfiCond178) V5 load(1, XDATA, add(CFA_XSP16, literal(-17)))
          CFI (cfiCond178) V6 load(1, XDATA, add(CFA_XSP16, literal(-16)))
          CFI (cfiCond178) V7 load(1, XDATA, add(CFA_XSP16, literal(-15)))
          CFI (cfiCond178) V8 load(1, XDATA, add(CFA_XSP16, literal(-14)))
          CFI (cfiCond178) V9 load(1, XDATA, add(CFA_XSP16, literal(-13)))
          CFI (cfiCond178) V10 load(1, XDATA, add(CFA_XSP16, literal(-12)))
          CFI (cfiCond178) V11 load(1, XDATA, add(CFA_XSP16, literal(-11)))
          CFI (cfiCond178) V12 load(1, XDATA, add(CFA_XSP16, literal(-10)))
          CFI (cfiCond178) V13 load(1, XDATA, add(CFA_XSP16, literal(-9)))
          CFI (cfiCond178) V14 load(1, XDATA, add(CFA_XSP16, literal(-8)))
          CFI (cfiCond178) V15 load(1, XDATA, add(CFA_XSP16, literal(-7)))
          CFI (cfiCond178) R7 load(1, XDATA, add(CFA_XSP16, literal(-6)))
          CFI (cfiCond178) ?RET_LOW load(1, XDATA, add(CFA_XSP16, literal(-5)))
          CFI (cfiCond178) ?RET_HIGH load(1, XDATA, add(CFA_XSP16, literal(-4)))
          CFI (cfiCond178) ?BRET_EXT load(1, XDATA, add(CFA_XSP16, literal(-3)))
          CFI (cfiCond178) DPL0 load(1, XDATA, add(CFA_XSP16, literal(-2)))
          CFI (cfiCond178) DPH0 load(1, XDATA, add(CFA_XSP16, literal(-1)))
          CFI (cfiCond178) CFA_SP SP+0
          CFI (cfiCond178) CFA_XSP16 add(XSP16, 46)
          CFI Block cfiCond179 Using cfiCommon0
          CFI (cfiCond179) Function calibrationA
          CFI (cfiCond179) Conditional ??CrossCallReturnLabel_128, ??CrossCallReturnLabel_124, ??CrossCallReturnLabel_121
          CFI (cfiCond179) R6 load(1, XDATA, add(CFA_XSP16, literal(-24)))
          CFI (cfiCond179) VB load(1, XDATA, add(CFA_XSP16, literal(-23)))
          CFI (cfiCond179) V0 load(1, XDATA, add(CFA_XSP16, literal(-22)))
          CFI (cfiCond179) V1 load(1, XDATA, add(CFA_XSP16, literal(-21)))
          CFI (cfiCond179) V2 load(1, XDATA, add(CFA_XSP16, literal(-20)))
          CFI (cfiCond179) V3 load(1, XDATA, add(CFA_XSP16, literal(-19)))
          CFI (cfiCond179) V4 load(1, XDATA, add(CFA_XSP16, literal(-18)))
          CFI (cfiCond179) V5 load(1, XDATA, add(CFA_XSP16, literal(-17)))
          CFI (cfiCond179) V6 load(1, XDATA, add(CFA_XSP16, literal(-16)))
          CFI (cfiCond179) V7 load(1, XDATA, add(CFA_XSP16, literal(-15)))
          CFI (cfiCond179) V8 load(1, XDATA, add(CFA_XSP16, literal(-14)))
          CFI (cfiCond179) V9 load(1, XDATA, add(CFA_XSP16, literal(-13)))
          CFI (cfiCond179) V10 load(1, XDATA, add(CFA_XSP16, literal(-12)))
          CFI (cfiCond179) V11 load(1, XDATA, add(CFA_XSP16, literal(-11)))
          CFI (cfiCond179) V12 load(1, XDATA, add(CFA_XSP16, literal(-10)))
          CFI (cfiCond179) V13 load(1, XDATA, add(CFA_XSP16, literal(-9)))
          CFI (cfiCond179) V14 load(1, XDATA, add(CFA_XSP16, literal(-8)))
          CFI (cfiCond179) V15 load(1, XDATA, add(CFA_XSP16, literal(-7)))
          CFI (cfiCond179) R7 load(1, XDATA, add(CFA_XSP16, literal(-6)))
          CFI (cfiCond179) ?RET_LOW load(1, XDATA, add(CFA_XSP16, literal(-5)))
          CFI (cfiCond179) ?RET_HIGH load(1, XDATA, add(CFA_XSP16, literal(-4)))
          CFI (cfiCond179) ?BRET_EXT load(1, XDATA, add(CFA_XSP16, literal(-3)))
          CFI (cfiCond179) DPL0 load(1, XDATA, add(CFA_XSP16, literal(-2)))
          CFI (cfiCond179) DPH0 load(1, XDATA, add(CFA_XSP16, literal(-1)))
          CFI (cfiCond179) CFA_SP SP+0
          CFI (cfiCond179) CFA_XSP16 add(XSP16, 30)
          CFI Block cfiCond180 Using cfiCommon0
          CFI (cfiCond180) Function calibrationA
          CFI (cfiCond180) Conditional ??CrossCallReturnLabel_128, ??CrossCallReturnLabel_124, ??CrossCallReturnLabel_122
          CFI (cfiCond180) R6 load(1, XDATA, add(CFA_XSP16, literal(-24)))
          CFI (cfiCond180) VB load(1, XDATA, add(CFA_XSP16, literal(-23)))
          CFI (cfiCond180) V0 load(1, XDATA, add(CFA_XSP16, literal(-22)))
          CFI (cfiCond180) V1 load(1, XDATA, add(CFA_XSP16, literal(-21)))
          CFI (cfiCond180) V2 load(1, XDATA, add(CFA_XSP16, literal(-20)))
          CFI (cfiCond180) V3 load(1, XDATA, add(CFA_XSP16, literal(-19)))
          CFI (cfiCond180) V4 load(1, XDATA, add(CFA_XSP16, literal(-18)))
          CFI (cfiCond180) V5 load(1, XDATA, add(CFA_XSP16, literal(-17)))
          CFI (cfiCond180) V6 load(1, XDATA, add(CFA_XSP16, literal(-16)))
          CFI (cfiCond180) V7 load(1, XDATA, add(CFA_XSP16, literal(-15)))
          CFI (cfiCond180) V8 load(1, XDATA, add(CFA_XSP16, literal(-14)))
          CFI (cfiCond180) V9 load(1, XDATA, add(CFA_XSP16, literal(-13)))
          CFI (cfiCond180) V10 load(1, XDATA, add(CFA_XSP16, literal(-12)))
          CFI (cfiCond180) V11 load(1, XDATA, add(CFA_XSP16, literal(-11)))
          CFI (cfiCond180) V12 load(1, XDATA, add(CFA_XSP16, literal(-10)))
          CFI (cfiCond180) V13 load(1, XDATA, add(CFA_XSP16, literal(-9)))
          CFI (cfiCond180) V14 load(1, XDATA, add(CFA_XSP16, literal(-8)))
          CFI (cfiCond180) V15 load(1, XDATA, add(CFA_XSP16, literal(-7)))
          CFI (cfiCond180) R7 load(1, XDATA, add(CFA_XSP16, literal(-6)))
          CFI (cfiCond180) ?RET_LOW load(1, XDATA, add(CFA_XSP16, literal(-5)))
          CFI (cfiCond180) ?RET_HIGH load(1, XDATA, add(CFA_XSP16, literal(-4)))
          CFI (cfiCond180) ?BRET_EXT load(1, XDATA, add(CFA_XSP16, literal(-3)))
          CFI (cfiCond180) DPL0 load(1, XDATA, add(CFA_XSP16, literal(-2)))
          CFI (cfiCond180) DPH0 load(1, XDATA, add(CFA_XSP16, literal(-1)))
          CFI (cfiCond180) CFA_SP SP+0
          CFI (cfiCond180) CFA_XSP16 add(XSP16, 30)
          CFI Block cfiCond181 Using cfiCommon0
          CFI (cfiCond181) Function calibrationN
          CFI (cfiCond181) Conditional ??CrossCallReturnLabel_128, ??CrossCallReturnLabel_124, ??CrossCallReturnLabel_117
          CFI (cfiCond181) R6 load(1, XDATA, add(CFA_XSP16, literal(-24)))
          CFI (cfiCond181) VB load(1, XDATA, add(CFA_XSP16, literal(-23)))
          CFI (cfiCond181) V0 load(1, XDATA, add(CFA_XSP16, literal(-22)))
          CFI (cfiCond181) V1 load(1, XDATA, add(CFA_XSP16, literal(-21)))
          CFI (cfiCond181) V2 load(1, XDATA, add(CFA_XSP16, literal(-20)))
          CFI (cfiCond181) V3 load(1, XDATA, add(CFA_XSP16, literal(-19)))
          CFI (cfiCond181) V4 load(1, XDATA, add(CFA_XSP16, literal(-18)))
          CFI (cfiCond181) V5 load(1, XDATA, add(CFA_XSP16, literal(-17)))
          CFI (cfiCond181) V6 load(1, XDATA, add(CFA_XSP16, literal(-16)))
          CFI (cfiCond181) V7 load(1, XDATA, add(CFA_XSP16, literal(-15)))
          CFI (cfiCond181) V8 load(1, XDATA, add(CFA_XSP16, literal(-14)))
          CFI (cfiCond181) V9 load(1, XDATA, add(CFA_XSP16, literal(-13)))
          CFI (cfiCond181) V10 load(1, XDATA, add(CFA_XSP16, literal(-12)))
          CFI (cfiCond181) V11 load(1, XDATA, add(CFA_XSP16, literal(-11)))
          CFI (cfiCond181) V12 load(1, XDATA, add(CFA_XSP16, literal(-10)))
          CFI (cfiCond181) V13 load(1, XDATA, add(CFA_XSP16, literal(-9)))
          CFI (cfiCond181) V14 load(1, XDATA, add(CFA_XSP16, literal(-8)))
          CFI (cfiCond181) V15 load(1, XDATA, add(CFA_XSP16, literal(-7)))
          CFI (cfiCond181) R7 load(1, XDATA, add(CFA_XSP16, literal(-6)))
          CFI (cfiCond181) ?RET_LOW load(1, XDATA, add(CFA_XSP16, literal(-5)))
          CFI (cfiCond181) ?RET_HIGH load(1, XDATA, add(CFA_XSP16, literal(-4)))
          CFI (cfiCond181) ?BRET_EXT load(1, XDATA, add(CFA_XSP16, literal(-3)))
          CFI (cfiCond181) DPL0 load(1, XDATA, add(CFA_XSP16, literal(-2)))
          CFI (cfiCond181) DPH0 load(1, XDATA, add(CFA_XSP16, literal(-1)))
          CFI (cfiCond181) CFA_SP SP+0
          CFI (cfiCond181) CFA_XSP16 add(XSP16, 46)
          CFI Block cfiCond182 Using cfiCommon0
          CFI (cfiCond182) Function calibrationA
          CFI (cfiCond182) Conditional ??CrossCallReturnLabel_128, ??CrossCallReturnLabel_124, ??CrossCallReturnLabel_118
          CFI (cfiCond182) R6 load(1, XDATA, add(CFA_XSP16, literal(-24)))
          CFI (cfiCond182) VB load(1, XDATA, add(CFA_XSP16, literal(-23)))
          CFI (cfiCond182) V0 load(1, XDATA, add(CFA_XSP16, literal(-22)))
          CFI (cfiCond182) V1 load(1, XDATA, add(CFA_XSP16, literal(-21)))
          CFI (cfiCond182) V2 load(1, XDATA, add(CFA_XSP16, literal(-20)))
          CFI (cfiCond182) V3 load(1, XDATA, add(CFA_XSP16, literal(-19)))
          CFI (cfiCond182) V4 load(1, XDATA, add(CFA_XSP16, literal(-18)))
          CFI (cfiCond182) V5 load(1, XDATA, add(CFA_XSP16, literal(-17)))
          CFI (cfiCond182) V6 load(1, XDATA, add(CFA_XSP16, literal(-16)))
          CFI (cfiCond182) V7 load(1, XDATA, add(CFA_XSP16, literal(-15)))
          CFI (cfiCond182) V8 load(1, XDATA, add(CFA_XSP16, literal(-14)))
          CFI (cfiCond182) V9 load(1, XDATA, add(CFA_XSP16, literal(-13)))
          CFI (cfiCond182) V10 load(1, XDATA, add(CFA_XSP16, literal(-12)))
          CFI (cfiCond182) V11 load(1, XDATA, add(CFA_XSP16, literal(-11)))
          CFI (cfiCond182) V12 load(1, XDATA, add(CFA_XSP16, literal(-10)))
          CFI (cfiCond182) V13 load(1, XDATA, add(CFA_XSP16, literal(-9)))
          CFI (cfiCond182) V14 load(1, XDATA, add(CFA_XSP16, literal(-8)))
          CFI (cfiCond182) V15 load(1, XDATA, add(CFA_XSP16, literal(-7)))
          CFI (cfiCond182) R7 load(1, XDATA, add(CFA_XSP16, literal(-6)))
          CFI (cfiCond182) ?RET_LOW load(1, XDATA, add(CFA_XSP16, literal(-5)))
          CFI (cfiCond182) ?RET_HIGH load(1, XDATA, add(CFA_XSP16, literal(-4)))
          CFI (cfiCond182) ?BRET_EXT load(1, XDATA, add(CFA_XSP16, literal(-3)))
          CFI (cfiCond182) DPL0 load(1, XDATA, add(CFA_XSP16, literal(-2)))
          CFI (cfiCond182) DPH0 load(1, XDATA, add(CFA_XSP16, literal(-1)))
          CFI (cfiCond182) CFA_SP SP+0
          CFI (cfiCond182) CFA_XSP16 add(XSP16, 30)
          CFI Block cfiCond183 Using cfiCommon0
          CFI (cfiCond183) Function calibrationN
          CFI (cfiCond183) Conditional ??CrossCallReturnLabel_129, ??CrossCallReturnLabel_127, ??CrossCallReturnLabel_79
          CFI (cfiCond183) R6 load(1, XDATA, add(CFA_XSP16, literal(-24)))
          CFI (cfiCond183) VB load(1, XDATA, add(CFA_XSP16, literal(-23)))
          CFI (cfiCond183) V0 load(1, XDATA, add(CFA_XSP16, literal(-22)))
          CFI (cfiCond183) V1 load(1, XDATA, add(CFA_XSP16, literal(-21)))
          CFI (cfiCond183) V2 load(1, XDATA, add(CFA_XSP16, literal(-20)))
          CFI (cfiCond183) V3 load(1, XDATA, add(CFA_XSP16, literal(-19)))
          CFI (cfiCond183) V4 load(1, XDATA, add(CFA_XSP16, literal(-18)))
          CFI (cfiCond183) V5 load(1, XDATA, add(CFA_XSP16, literal(-17)))
          CFI (cfiCond183) V6 load(1, XDATA, add(CFA_XSP16, literal(-16)))
          CFI (cfiCond183) V7 load(1, XDATA, add(CFA_XSP16, literal(-15)))
          CFI (cfiCond183) V8 load(1, XDATA, add(CFA_XSP16, literal(-14)))
          CFI (cfiCond183) V9 load(1, XDATA, add(CFA_XSP16, literal(-13)))
          CFI (cfiCond183) V10 load(1, XDATA, add(CFA_XSP16, literal(-12)))
          CFI (cfiCond183) V11 load(1, XDATA, add(CFA_XSP16, literal(-11)))
          CFI (cfiCond183) V12 load(1, XDATA, add(CFA_XSP16, literal(-10)))
          CFI (cfiCond183) V13 load(1, XDATA, add(CFA_XSP16, literal(-9)))
          CFI (cfiCond183) V14 load(1, XDATA, add(CFA_XSP16, literal(-8)))
          CFI (cfiCond183) V15 load(1, XDATA, add(CFA_XSP16, literal(-7)))
          CFI (cfiCond183) R7 load(1, XDATA, add(CFA_XSP16, literal(-6)))
          CFI (cfiCond183) ?RET_LOW load(1, XDATA, add(CFA_XSP16, literal(-5)))
          CFI (cfiCond183) ?RET_HIGH load(1, XDATA, add(CFA_XSP16, literal(-4)))
          CFI (cfiCond183) ?BRET_EXT load(1, XDATA, add(CFA_XSP16, literal(-3)))
          CFI (cfiCond183) DPL0 load(1, XDATA, add(CFA_XSP16, literal(-2)))
          CFI (cfiCond183) DPH0 load(1, XDATA, add(CFA_XSP16, literal(-1)))
          CFI (cfiCond183) CFA_SP SP+0
          CFI (cfiCond183) CFA_XSP16 add(XSP16, 46)
          CFI Block cfiCond184 Using cfiCommon0
          CFI (cfiCond184) Function calibrationN
          CFI (cfiCond184) Conditional ??CrossCallReturnLabel_129, ??CrossCallReturnLabel_127, ??CrossCallReturnLabel_80
          CFI (cfiCond184) R6 load(1, XDATA, add(CFA_XSP16, literal(-24)))
          CFI (cfiCond184) VB load(1, XDATA, add(CFA_XSP16, literal(-23)))
          CFI (cfiCond184) V0 load(1, XDATA, add(CFA_XSP16, literal(-22)))
          CFI (cfiCond184) V1 load(1, XDATA, add(CFA_XSP16, literal(-21)))
          CFI (cfiCond184) V2 load(1, XDATA, add(CFA_XSP16, literal(-20)))
          CFI (cfiCond184) V3 load(1, XDATA, add(CFA_XSP16, literal(-19)))
          CFI (cfiCond184) V4 load(1, XDATA, add(CFA_XSP16, literal(-18)))
          CFI (cfiCond184) V5 load(1, XDATA, add(CFA_XSP16, literal(-17)))
          CFI (cfiCond184) V6 load(1, XDATA, add(CFA_XSP16, literal(-16)))
          CFI (cfiCond184) V7 load(1, XDATA, add(CFA_XSP16, literal(-15)))
          CFI (cfiCond184) V8 load(1, XDATA, add(CFA_XSP16, literal(-14)))
          CFI (cfiCond184) V9 load(1, XDATA, add(CFA_XSP16, literal(-13)))
          CFI (cfiCond184) V10 load(1, XDATA, add(CFA_XSP16, literal(-12)))
          CFI (cfiCond184) V11 load(1, XDATA, add(CFA_XSP16, literal(-11)))
          CFI (cfiCond184) V12 load(1, XDATA, add(CFA_XSP16, literal(-10)))
          CFI (cfiCond184) V13 load(1, XDATA, add(CFA_XSP16, literal(-9)))
          CFI (cfiCond184) V14 load(1, XDATA, add(CFA_XSP16, literal(-8)))
          CFI (cfiCond184) V15 load(1, XDATA, add(CFA_XSP16, literal(-7)))
          CFI (cfiCond184) R7 load(1, XDATA, add(CFA_XSP16, literal(-6)))
          CFI (cfiCond184) ?RET_LOW load(1, XDATA, add(CFA_XSP16, literal(-5)))
          CFI (cfiCond184) ?RET_HIGH load(1, XDATA, add(CFA_XSP16, literal(-4)))
          CFI (cfiCond184) ?BRET_EXT load(1, XDATA, add(CFA_XSP16, literal(-3)))
          CFI (cfiCond184) DPL0 load(1, XDATA, add(CFA_XSP16, literal(-2)))
          CFI (cfiCond184) DPH0 load(1, XDATA, add(CFA_XSP16, literal(-1)))
          CFI (cfiCond184) CFA_SP SP+0
          CFI (cfiCond184) CFA_XSP16 add(XSP16, 46)
          CFI Block cfiCond185 Using cfiCommon0
          CFI (cfiCond185) Function calibrationN
          CFI (cfiCond185) Conditional ??CrossCallReturnLabel_129, ??CrossCallReturnLabel_127, ??CrossCallReturnLabel_81
          CFI (cfiCond185) R6 load(1, XDATA, add(CFA_XSP16, literal(-24)))
          CFI (cfiCond185) VB load(1, XDATA, add(CFA_XSP16, literal(-23)))
          CFI (cfiCond185) V0 load(1, XDATA, add(CFA_XSP16, literal(-22)))
          CFI (cfiCond185) V1 load(1, XDATA, add(CFA_XSP16, literal(-21)))
          CFI (cfiCond185) V2 load(1, XDATA, add(CFA_XSP16, literal(-20)))
          CFI (cfiCond185) V3 load(1, XDATA, add(CFA_XSP16, literal(-19)))
          CFI (cfiCond185) V4 load(1, XDATA, add(CFA_XSP16, literal(-18)))
          CFI (cfiCond185) V5 load(1, XDATA, add(CFA_XSP16, literal(-17)))
          CFI (cfiCond185) V6 load(1, XDATA, add(CFA_XSP16, literal(-16)))
          CFI (cfiCond185) V7 load(1, XDATA, add(CFA_XSP16, literal(-15)))
          CFI (cfiCond185) V8 load(1, XDATA, add(CFA_XSP16, literal(-14)))
          CFI (cfiCond185) V9 load(1, XDATA, add(CFA_XSP16, literal(-13)))
          CFI (cfiCond185) V10 load(1, XDATA, add(CFA_XSP16, literal(-12)))
          CFI (cfiCond185) V11 load(1, XDATA, add(CFA_XSP16, literal(-11)))
          CFI (cfiCond185) V12 load(1, XDATA, add(CFA_XSP16, literal(-10)))
          CFI (cfiCond185) V13 load(1, XDATA, add(CFA_XSP16, literal(-9)))
          CFI (cfiCond185) V14 load(1, XDATA, add(CFA_XSP16, literal(-8)))
          CFI (cfiCond185) V15 load(1, XDATA, add(CFA_XSP16, literal(-7)))
          CFI (cfiCond185) R7 load(1, XDATA, add(CFA_XSP16, literal(-6)))
          CFI (cfiCond185) ?RET_LOW load(1, XDATA, add(CFA_XSP16, literal(-5)))
          CFI (cfiCond185) ?RET_HIGH load(1, XDATA, add(CFA_XSP16, literal(-4)))
          CFI (cfiCond185) ?BRET_EXT load(1, XDATA, add(CFA_XSP16, literal(-3)))
          CFI (cfiCond185) DPL0 load(1, XDATA, add(CFA_XSP16, literal(-2)))
          CFI (cfiCond185) DPH0 load(1, XDATA, add(CFA_XSP16, literal(-1)))
          CFI (cfiCond185) CFA_SP SP+0
          CFI (cfiCond185) CFA_XSP16 add(XSP16, 46)
          CFI Block cfiCond186 Using cfiCommon0
          CFI (cfiCond186) Function calibrationA
          CFI (cfiCond186) Conditional ??CrossCallReturnLabel_129, ??CrossCallReturnLabel_127, ??CrossCallReturnLabel_82
          CFI (cfiCond186) R6 load(1, XDATA, add(CFA_XSP16, literal(-24)))
          CFI (cfiCond186) VB load(1, XDATA, add(CFA_XSP16, literal(-23)))
          CFI (cfiCond186) V0 load(1, XDATA, add(CFA_XSP16, literal(-22)))
          CFI (cfiCond186) V1 load(1, XDATA, add(CFA_XSP16, literal(-21)))
          CFI (cfiCond186) V2 load(1, XDATA, add(CFA_XSP16, literal(-20)))
          CFI (cfiCond186) V3 load(1, XDATA, add(CFA_XSP16, literal(-19)))
          CFI (cfiCond186) V4 load(1, XDATA, add(CFA_XSP16, literal(-18)))
          CFI (cfiCond186) V5 load(1, XDATA, add(CFA_XSP16, literal(-17)))
          CFI (cfiCond186) V6 load(1, XDATA, add(CFA_XSP16, literal(-16)))
          CFI (cfiCond186) V7 load(1, XDATA, add(CFA_XSP16, literal(-15)))
          CFI (cfiCond186) V8 load(1, XDATA, add(CFA_XSP16, literal(-14)))
          CFI (cfiCond186) V9 load(1, XDATA, add(CFA_XSP16, literal(-13)))
          CFI (cfiCond186) V10 load(1, XDATA, add(CFA_XSP16, literal(-12)))
          CFI (cfiCond186) V11 load(1, XDATA, add(CFA_XSP16, literal(-11)))
          CFI (cfiCond186) V12 load(1, XDATA, add(CFA_XSP16, literal(-10)))
          CFI (cfiCond186) V13 load(1, XDATA, add(CFA_XSP16, literal(-9)))
          CFI (cfiCond186) V14 load(1, XDATA, add(CFA_XSP16, literal(-8)))
          CFI (cfiCond186) V15 load(1, XDATA, add(CFA_XSP16, literal(-7)))
          CFI (cfiCond186) R7 load(1, XDATA, add(CFA_XSP16, literal(-6)))
          CFI (cfiCond186) ?RET_LOW load(1, XDATA, add(CFA_XSP16, literal(-5)))
          CFI (cfiCond186) ?RET_HIGH load(1, XDATA, add(CFA_XSP16, literal(-4)))
          CFI (cfiCond186) ?BRET_EXT load(1, XDATA, add(CFA_XSP16, literal(-3)))
          CFI (cfiCond186) DPL0 load(1, XDATA, add(CFA_XSP16, literal(-2)))
          CFI (cfiCond186) DPH0 load(1, XDATA, add(CFA_XSP16, literal(-1)))
          CFI (cfiCond186) CFA_SP SP+0
          CFI (cfiCond186) CFA_XSP16 add(XSP16, 30)
          CFI Block cfiCond187 Using cfiCommon0
          CFI (cfiCond187) Function calibrationA
          CFI (cfiCond187) Conditional ??CrossCallReturnLabel_129, ??CrossCallReturnLabel_127, ??CrossCallReturnLabel_83
          CFI (cfiCond187) R6 load(1, XDATA, add(CFA_XSP16, literal(-24)))
          CFI (cfiCond187) VB load(1, XDATA, add(CFA_XSP16, literal(-23)))
          CFI (cfiCond187) V0 load(1, XDATA, add(CFA_XSP16, literal(-22)))
          CFI (cfiCond187) V1 load(1, XDATA, add(CFA_XSP16, literal(-21)))
          CFI (cfiCond187) V2 load(1, XDATA, add(CFA_XSP16, literal(-20)))
          CFI (cfiCond187) V3 load(1, XDATA, add(CFA_XSP16, literal(-19)))
          CFI (cfiCond187) V4 load(1, XDATA, add(CFA_XSP16, literal(-18)))
          CFI (cfiCond187) V5 load(1, XDATA, add(CFA_XSP16, literal(-17)))
          CFI (cfiCond187) V6 load(1, XDATA, add(CFA_XSP16, literal(-16)))
          CFI (cfiCond187) V7 load(1, XDATA, add(CFA_XSP16, literal(-15)))
          CFI (cfiCond187) V8 load(1, XDATA, add(CFA_XSP16, literal(-14)))
          CFI (cfiCond187) V9 load(1, XDATA, add(CFA_XSP16, literal(-13)))
          CFI (cfiCond187) V10 load(1, XDATA, add(CFA_XSP16, literal(-12)))
          CFI (cfiCond187) V11 load(1, XDATA, add(CFA_XSP16, literal(-11)))
          CFI (cfiCond187) V12 load(1, XDATA, add(CFA_XSP16, literal(-10)))
          CFI (cfiCond187) V13 load(1, XDATA, add(CFA_XSP16, literal(-9)))
          CFI (cfiCond187) V14 load(1, XDATA, add(CFA_XSP16, literal(-8)))
          CFI (cfiCond187) V15 load(1, XDATA, add(CFA_XSP16, literal(-7)))
          CFI (cfiCond187) R7 load(1, XDATA, add(CFA_XSP16, literal(-6)))
          CFI (cfiCond187) ?RET_LOW load(1, XDATA, add(CFA_XSP16, literal(-5)))
          CFI (cfiCond187) ?RET_HIGH load(1, XDATA, add(CFA_XSP16, literal(-4)))
          CFI (cfiCond187) ?BRET_EXT load(1, XDATA, add(CFA_XSP16, literal(-3)))
          CFI (cfiCond187) DPL0 load(1, XDATA, add(CFA_XSP16, literal(-2)))
          CFI (cfiCond187) DPH0 load(1, XDATA, add(CFA_XSP16, literal(-1)))
          CFI (cfiCond187) CFA_SP SP+0
          CFI (cfiCond187) CFA_XSP16 add(XSP16, 30)
          CFI Block cfiCond188 Using cfiCommon0
          CFI (cfiCond188) Function calibrationA
          CFI (cfiCond188) Conditional ??CrossCallReturnLabel_129, ??CrossCallReturnLabel_127, ??CrossCallReturnLabel_84
          CFI (cfiCond188) R6 load(1, XDATA, add(CFA_XSP16, literal(-24)))
          CFI (cfiCond188) VB load(1, XDATA, add(CFA_XSP16, literal(-23)))
          CFI (cfiCond188) V0 load(1, XDATA, add(CFA_XSP16, literal(-22)))
          CFI (cfiCond188) V1 load(1, XDATA, add(CFA_XSP16, literal(-21)))
          CFI (cfiCond188) V2 load(1, XDATA, add(CFA_XSP16, literal(-20)))
          CFI (cfiCond188) V3 load(1, XDATA, add(CFA_XSP16, literal(-19)))
          CFI (cfiCond188) V4 load(1, XDATA, add(CFA_XSP16, literal(-18)))
          CFI (cfiCond188) V5 load(1, XDATA, add(CFA_XSP16, literal(-17)))
          CFI (cfiCond188) V6 load(1, XDATA, add(CFA_XSP16, literal(-16)))
          CFI (cfiCond188) V7 load(1, XDATA, add(CFA_XSP16, literal(-15)))
          CFI (cfiCond188) V8 load(1, XDATA, add(CFA_XSP16, literal(-14)))
          CFI (cfiCond188) V9 load(1, XDATA, add(CFA_XSP16, literal(-13)))
          CFI (cfiCond188) V10 load(1, XDATA, add(CFA_XSP16, literal(-12)))
          CFI (cfiCond188) V11 load(1, XDATA, add(CFA_XSP16, literal(-11)))
          CFI (cfiCond188) V12 load(1, XDATA, add(CFA_XSP16, literal(-10)))
          CFI (cfiCond188) V13 load(1, XDATA, add(CFA_XSP16, literal(-9)))
          CFI (cfiCond188) V14 load(1, XDATA, add(CFA_XSP16, literal(-8)))
          CFI (cfiCond188) V15 load(1, XDATA, add(CFA_XSP16, literal(-7)))
          CFI (cfiCond188) R7 load(1, XDATA, add(CFA_XSP16, literal(-6)))
          CFI (cfiCond188) ?RET_LOW load(1, XDATA, add(CFA_XSP16, literal(-5)))
          CFI (cfiCond188) ?RET_HIGH load(1, XDATA, add(CFA_XSP16, literal(-4)))
          CFI (cfiCond188) ?BRET_EXT load(1, XDATA, add(CFA_XSP16, literal(-3)))
          CFI (cfiCond188) DPL0 load(1, XDATA, add(CFA_XSP16, literal(-2)))
          CFI (cfiCond188) DPH0 load(1, XDATA, add(CFA_XSP16, literal(-1)))
          CFI (cfiCond188) CFA_SP SP+0
          CFI (cfiCond188) CFA_XSP16 add(XSP16, 30)
          CFI Block cfiCond189 Using cfiCommon0
          CFI (cfiCond189) Function calibrationN
          CFI (cfiCond189) Conditional ??CrossCallReturnLabel_129, ??CrossCallReturnLabel_126, ??CrossCallReturnLabel_15
          CFI (cfiCond189) R6 load(1, XDATA, add(CFA_XSP16, literal(-24)))
          CFI (cfiCond189) VB load(1, XDATA, add(CFA_XSP16, literal(-23)))
          CFI (cfiCond189) V0 load(1, XDATA, add(CFA_XSP16, literal(-22)))
          CFI (cfiCond189) V1 load(1, XDATA, add(CFA_XSP16, literal(-21)))
          CFI (cfiCond189) V2 load(1, XDATA, add(CFA_XSP16, literal(-20)))
          CFI (cfiCond189) V3 load(1, XDATA, add(CFA_XSP16, literal(-19)))
          CFI (cfiCond189) V4 load(1, XDATA, add(CFA_XSP16, literal(-18)))
          CFI (cfiCond189) V5 load(1, XDATA, add(CFA_XSP16, literal(-17)))
          CFI (cfiCond189) V6 load(1, XDATA, add(CFA_XSP16, literal(-16)))
          CFI (cfiCond189) V7 load(1, XDATA, add(CFA_XSP16, literal(-15)))
          CFI (cfiCond189) V8 load(1, XDATA, add(CFA_XSP16, literal(-14)))
          CFI (cfiCond189) V9 load(1, XDATA, add(CFA_XSP16, literal(-13)))
          CFI (cfiCond189) V10 load(1, XDATA, add(CFA_XSP16, literal(-12)))
          CFI (cfiCond189) V11 load(1, XDATA, add(CFA_XSP16, literal(-11)))
          CFI (cfiCond189) V12 load(1, XDATA, add(CFA_XSP16, literal(-10)))
          CFI (cfiCond189) V13 load(1, XDATA, add(CFA_XSP16, literal(-9)))
          CFI (cfiCond189) V14 load(1, XDATA, add(CFA_XSP16, literal(-8)))
          CFI (cfiCond189) V15 load(1, XDATA, add(CFA_XSP16, literal(-7)))
          CFI (cfiCond189) R7 load(1, XDATA, add(CFA_XSP16, literal(-6)))
          CFI (cfiCond189) ?RET_LOW load(1, XDATA, add(CFA_XSP16, literal(-5)))
          CFI (cfiCond189) ?RET_HIGH load(1, XDATA, add(CFA_XSP16, literal(-4)))
          CFI (cfiCond189) ?BRET_EXT load(1, XDATA, add(CFA_XSP16, literal(-3)))
          CFI (cfiCond189) DPL0 load(1, XDATA, add(CFA_XSP16, literal(-2)))
          CFI (cfiCond189) DPH0 load(1, XDATA, add(CFA_XSP16, literal(-1)))
          CFI (cfiCond189) CFA_SP SP+0
          CFI (cfiCond189) CFA_XSP16 add(XSP16, 46)
          CFI Block cfiCond190 Using cfiCommon0
          CFI (cfiCond190) Function calibrationA
          CFI (cfiCond190) Conditional ??CrossCallReturnLabel_129, ??CrossCallReturnLabel_126, ??CrossCallReturnLabel_16
          CFI (cfiCond190) R6 load(1, XDATA, add(CFA_XSP16, literal(-24)))
          CFI (cfiCond190) VB load(1, XDATA, add(CFA_XSP16, literal(-23)))
          CFI (cfiCond190) V0 load(1, XDATA, add(CFA_XSP16, literal(-22)))
          CFI (cfiCond190) V1 load(1, XDATA, add(CFA_XSP16, literal(-21)))
          CFI (cfiCond190) V2 load(1, XDATA, add(CFA_XSP16, literal(-20)))
          CFI (cfiCond190) V3 load(1, XDATA, add(CFA_XSP16, literal(-19)))
          CFI (cfiCond190) V4 load(1, XDATA, add(CFA_XSP16, literal(-18)))
          CFI (cfiCond190) V5 load(1, XDATA, add(CFA_XSP16, literal(-17)))
          CFI (cfiCond190) V6 load(1, XDATA, add(CFA_XSP16, literal(-16)))
          CFI (cfiCond190) V7 load(1, XDATA, add(CFA_XSP16, literal(-15)))
          CFI (cfiCond190) V8 load(1, XDATA, add(CFA_XSP16, literal(-14)))
          CFI (cfiCond190) V9 load(1, XDATA, add(CFA_XSP16, literal(-13)))
          CFI (cfiCond190) V10 load(1, XDATA, add(CFA_XSP16, literal(-12)))
          CFI (cfiCond190) V11 load(1, XDATA, add(CFA_XSP16, literal(-11)))
          CFI (cfiCond190) V12 load(1, XDATA, add(CFA_XSP16, literal(-10)))
          CFI (cfiCond190) V13 load(1, XDATA, add(CFA_XSP16, literal(-9)))
          CFI (cfiCond190) V14 load(1, XDATA, add(CFA_XSP16, literal(-8)))
          CFI (cfiCond190) V15 load(1, XDATA, add(CFA_XSP16, literal(-7)))
          CFI (cfiCond190) R7 load(1, XDATA, add(CFA_XSP16, literal(-6)))
          CFI (cfiCond190) ?RET_LOW load(1, XDATA, add(CFA_XSP16, literal(-5)))
          CFI (cfiCond190) ?RET_HIGH load(1, XDATA, add(CFA_XSP16, literal(-4)))
          CFI (cfiCond190) ?BRET_EXT load(1, XDATA, add(CFA_XSP16, literal(-3)))
          CFI (cfiCond190) DPL0 load(1, XDATA, add(CFA_XSP16, literal(-2)))
          CFI (cfiCond190) DPH0 load(1, XDATA, add(CFA_XSP16, literal(-1)))
          CFI (cfiCond190) CFA_SP SP+0
          CFI (cfiCond190) CFA_XSP16 add(XSP16, 30)
          CFI Block cfiCond191 Using cfiCommon0
          CFI (cfiCond191) Function calibrationN
          CFI (cfiCond191) Conditional ??CrossCallReturnLabel_129, ??CrossCallReturnLabel_125, ??CrossCallReturnLabel_17
          CFI (cfiCond191) R6 load(1, XDATA, add(CFA_XSP16, literal(-24)))
          CFI (cfiCond191) VB load(1, XDATA, add(CFA_XSP16, literal(-23)))
          CFI (cfiCond191) V0 load(1, XDATA, add(CFA_XSP16, literal(-22)))
          CFI (cfiCond191) V1 load(1, XDATA, add(CFA_XSP16, literal(-21)))
          CFI (cfiCond191) V2 load(1, XDATA, add(CFA_XSP16, literal(-20)))
          CFI (cfiCond191) V3 load(1, XDATA, add(CFA_XSP16, literal(-19)))
          CFI (cfiCond191) V4 load(1, XDATA, add(CFA_XSP16, literal(-18)))
          CFI (cfiCond191) V5 load(1, XDATA, add(CFA_XSP16, literal(-17)))
          CFI (cfiCond191) V6 load(1, XDATA, add(CFA_XSP16, literal(-16)))
          CFI (cfiCond191) V7 load(1, XDATA, add(CFA_XSP16, literal(-15)))
          CFI (cfiCond191) V8 load(1, XDATA, add(CFA_XSP16, literal(-14)))
          CFI (cfiCond191) V9 load(1, XDATA, add(CFA_XSP16, literal(-13)))
          CFI (cfiCond191) V10 load(1, XDATA, add(CFA_XSP16, literal(-12)))
          CFI (cfiCond191) V11 load(1, XDATA, add(CFA_XSP16, literal(-11)))
          CFI (cfiCond191) V12 load(1, XDATA, add(CFA_XSP16, literal(-10)))
          CFI (cfiCond191) V13 load(1, XDATA, add(CFA_XSP16, literal(-9)))
          CFI (cfiCond191) V14 load(1, XDATA, add(CFA_XSP16, literal(-8)))
          CFI (cfiCond191) V15 load(1, XDATA, add(CFA_XSP16, literal(-7)))
          CFI (cfiCond191) R7 load(1, XDATA, add(CFA_XSP16, literal(-6)))
          CFI (cfiCond191) ?RET_LOW load(1, XDATA, add(CFA_XSP16, literal(-5)))
          CFI (cfiCond191) ?RET_HIGH load(1, XDATA, add(CFA_XSP16, literal(-4)))
          CFI (cfiCond191) ?BRET_EXT load(1, XDATA, add(CFA_XSP16, literal(-3)))
          CFI (cfiCond191) DPL0 load(1, XDATA, add(CFA_XSP16, literal(-2)))
          CFI (cfiCond191) DPH0 load(1, XDATA, add(CFA_XSP16, literal(-1)))
          CFI (cfiCond191) CFA_SP SP+0
          CFI (cfiCond191) CFA_XSP16 add(XSP16, 46)
          CFI Block cfiCond192 Using cfiCommon0
          CFI (cfiCond192) Function calibrationA
          CFI (cfiCond192) Conditional ??CrossCallReturnLabel_129, ??CrossCallReturnLabel_125, ??CrossCallReturnLabel_18
          CFI (cfiCond192) R6 load(1, XDATA, add(CFA_XSP16, literal(-24)))
          CFI (cfiCond192) VB load(1, XDATA, add(CFA_XSP16, literal(-23)))
          CFI (cfiCond192) V0 load(1, XDATA, add(CFA_XSP16, literal(-22)))
          CFI (cfiCond192) V1 load(1, XDATA, add(CFA_XSP16, literal(-21)))
          CFI (cfiCond192) V2 load(1, XDATA, add(CFA_XSP16, literal(-20)))
          CFI (cfiCond192) V3 load(1, XDATA, add(CFA_XSP16, literal(-19)))
          CFI (cfiCond192) V4 load(1, XDATA, add(CFA_XSP16, literal(-18)))
          CFI (cfiCond192) V5 load(1, XDATA, add(CFA_XSP16, literal(-17)))
          CFI (cfiCond192) V6 load(1, XDATA, add(CFA_XSP16, literal(-16)))
          CFI (cfiCond192) V7 load(1, XDATA, add(CFA_XSP16, literal(-15)))
          CFI (cfiCond192) V8 load(1, XDATA, add(CFA_XSP16, literal(-14)))
          CFI (cfiCond192) V9 load(1, XDATA, add(CFA_XSP16, literal(-13)))
          CFI (cfiCond192) V10 load(1, XDATA, add(CFA_XSP16, literal(-12)))
          CFI (cfiCond192) V11 load(1, XDATA, add(CFA_XSP16, literal(-11)))
          CFI (cfiCond192) V12 load(1, XDATA, add(CFA_XSP16, literal(-10)))
          CFI (cfiCond192) V13 load(1, XDATA, add(CFA_XSP16, literal(-9)))
          CFI (cfiCond192) V14 load(1, XDATA, add(CFA_XSP16, literal(-8)))
          CFI (cfiCond192) V15 load(1, XDATA, add(CFA_XSP16, literal(-7)))
          CFI (cfiCond192) R7 load(1, XDATA, add(CFA_XSP16, literal(-6)))
          CFI (cfiCond192) ?RET_LOW load(1, XDATA, add(CFA_XSP16, literal(-5)))
          CFI (cfiCond192) ?RET_HIGH load(1, XDATA, add(CFA_XSP16, literal(-4)))
          CFI (cfiCond192) ?BRET_EXT load(1, XDATA, add(CFA_XSP16, literal(-3)))
          CFI (cfiCond192) DPL0 load(1, XDATA, add(CFA_XSP16, literal(-2)))
          CFI (cfiCond192) DPH0 load(1, XDATA, add(CFA_XSP16, literal(-1)))
          CFI (cfiCond192) CFA_SP SP+0
          CFI (cfiCond192) CFA_XSP16 add(XSP16, 30)
          CFI Block cfiPicker193 Using cfiCommon1
          CFI (cfiPicker193) NoFunction
          CFI (cfiPicker193) Picker
        MOV     R1,A
        MOV     A,R0
        ADD     A,#-0x4
        MOV     DPL,A
        MOV     A,R1
        ADDC    A,#-0x1
        MOV     DPH,A
        RET
          CFI EndBlock cfiCond175
          CFI EndBlock cfiCond176
          CFI EndBlock cfiCond177
          CFI EndBlock cfiCond178
          CFI EndBlock cfiCond179
          CFI EndBlock cfiCond180
          CFI EndBlock cfiCond181
          CFI EndBlock cfiCond182
          CFI EndBlock cfiCond183
          CFI EndBlock cfiCond184
          CFI EndBlock cfiCond185
          CFI EndBlock cfiCond186
          CFI EndBlock cfiCond187
          CFI EndBlock cfiCond188
          CFI EndBlock cfiCond189
          CFI EndBlock cfiCond190
          CFI EndBlock cfiCond191
          CFI EndBlock cfiCond192
          CFI EndBlock cfiPicker193

        RSEG BANKED_CODE:CODE:NOROOT(0)
?Subroutine28:
          CFI Block cfiCond194 Using cfiCommon0
          CFI Function calibrationN
          CFI Conditional ??CrossCallReturnLabel_79
          CFI R6 load(1, XDATA, add(CFA_XSP16, literal(-24)))
          CFI VB load(1, XDATA, add(CFA_XSP16, literal(-23)))
          CFI V0 load(1, XDATA, add(CFA_XSP16, literal(-22)))
          CFI V1 load(1, XDATA, add(CFA_XSP16, literal(-21)))
          CFI V2 load(1, XDATA, add(CFA_XSP16, literal(-20)))
          CFI V3 load(1, XDATA, add(CFA_XSP16, literal(-19)))
          CFI V4 load(1, XDATA, add(CFA_XSP16, literal(-18)))
          CFI V5 load(1, XDATA, add(CFA_XSP16, literal(-17)))
          CFI V6 load(1, XDATA, add(CFA_XSP16, literal(-16)))
          CFI V7 load(1, XDATA, add(CFA_XSP16, literal(-15)))
          CFI V8 load(1, XDATA, add(CFA_XSP16, literal(-14)))
          CFI V9 load(1, XDATA, add(CFA_XSP16, literal(-13)))
          CFI V10 load(1, XDATA, add(CFA_XSP16, literal(-12)))
          CFI V11 load(1, XDATA, add(CFA_XSP16, literal(-11)))
          CFI V12 load(1, XDATA, add(CFA_XSP16, literal(-10)))
          CFI V13 load(1, XDATA, add(CFA_XSP16, literal(-9)))
          CFI V14 load(1, XDATA, add(CFA_XSP16, literal(-8)))
          CFI V15 load(1, XDATA, add(CFA_XSP16, literal(-7)))
          CFI R7 load(1, XDATA, add(CFA_XSP16, literal(-6)))
          CFI ?RET_LOW load(1, XDATA, add(CFA_XSP16, literal(-5)))
          CFI ?RET_HIGH load(1, XDATA, add(CFA_XSP16, literal(-4)))
          CFI ?BRET_EXT load(1, XDATA, add(CFA_XSP16, literal(-3)))
          CFI DPL0 load(1, XDATA, add(CFA_XSP16, literal(-2)))
          CFI DPH0 load(1, XDATA, add(CFA_XSP16, literal(-1)))
          CFI CFA_SP SP+0
          CFI CFA_XSP16 add(XSP16, 46)
          CFI Block cfiCond195 Using cfiCommon0
          CFI (cfiCond195) Function calibrationN
          CFI (cfiCond195) Conditional ??CrossCallReturnLabel_80
          CFI (cfiCond195) R6 load(1, XDATA, add(CFA_XSP16, literal(-24)))
          CFI (cfiCond195) VB load(1, XDATA, add(CFA_XSP16, literal(-23)))
          CFI (cfiCond195) V0 load(1, XDATA, add(CFA_XSP16, literal(-22)))
          CFI (cfiCond195) V1 load(1, XDATA, add(CFA_XSP16, literal(-21)))
          CFI (cfiCond195) V2 load(1, XDATA, add(CFA_XSP16, literal(-20)))
          CFI (cfiCond195) V3 load(1, XDATA, add(CFA_XSP16, literal(-19)))
          CFI (cfiCond195) V4 load(1, XDATA, add(CFA_XSP16, literal(-18)))
          CFI (cfiCond195) V5 load(1, XDATA, add(CFA_XSP16, literal(-17)))
          CFI (cfiCond195) V6 load(1, XDATA, add(CFA_XSP16, literal(-16)))
          CFI (cfiCond195) V7 load(1, XDATA, add(CFA_XSP16, literal(-15)))
          CFI (cfiCond195) V8 load(1, XDATA, add(CFA_XSP16, literal(-14)))
          CFI (cfiCond195) V9 load(1, XDATA, add(CFA_XSP16, literal(-13)))
          CFI (cfiCond195) V10 load(1, XDATA, add(CFA_XSP16, literal(-12)))
          CFI (cfiCond195) V11 load(1, XDATA, add(CFA_XSP16, literal(-11)))
          CFI (cfiCond195) V12 load(1, XDATA, add(CFA_XSP16, literal(-10)))
          CFI (cfiCond195) V13 load(1, XDATA, add(CFA_XSP16, literal(-9)))
          CFI (cfiCond195) V14 load(1, XDATA, add(CFA_XSP16, literal(-8)))
          CFI (cfiCond195) V15 load(1, XDATA, add(CFA_XSP16, literal(-7)))
          CFI (cfiCond195) R7 load(1, XDATA, add(CFA_XSP16, literal(-6)))
          CFI (cfiCond195) ?RET_LOW load(1, XDATA, add(CFA_XSP16, literal(-5)))
          CFI (cfiCond195) ?RET_HIGH load(1, XDATA, add(CFA_XSP16, literal(-4)))
          CFI (cfiCond195) ?BRET_EXT load(1, XDATA, add(CFA_XSP16, literal(-3)))
          CFI (cfiCond195) DPL0 load(1, XDATA, add(CFA_XSP16, literal(-2)))
          CFI (cfiCond195) DPH0 load(1, XDATA, add(CFA_XSP16, literal(-1)))
          CFI (cfiCond195) CFA_SP SP+0
          CFI (cfiCond195) CFA_XSP16 add(XSP16, 46)
          CFI Block cfiCond196 Using cfiCommon0
          CFI (cfiCond196) Function calibrationN
          CFI (cfiCond196) Conditional ??CrossCallReturnLabel_81
          CFI (cfiCond196) R6 load(1, XDATA, add(CFA_XSP16, literal(-24)))
          CFI (cfiCond196) VB load(1, XDATA, add(CFA_XSP16, literal(-23)))
          CFI (cfiCond196) V0 load(1, XDATA, add(CFA_XSP16, literal(-22)))
          CFI (cfiCond196) V1 load(1, XDATA, add(CFA_XSP16, literal(-21)))
          CFI (cfiCond196) V2 load(1, XDATA, add(CFA_XSP16, literal(-20)))
          CFI (cfiCond196) V3 load(1, XDATA, add(CFA_XSP16, literal(-19)))
          CFI (cfiCond196) V4 load(1, XDATA, add(CFA_XSP16, literal(-18)))
          CFI (cfiCond196) V5 load(1, XDATA, add(CFA_XSP16, literal(-17)))
          CFI (cfiCond196) V6 load(1, XDATA, add(CFA_XSP16, literal(-16)))
          CFI (cfiCond196) V7 load(1, XDATA, add(CFA_XSP16, literal(-15)))
          CFI (cfiCond196) V8 load(1, XDATA, add(CFA_XSP16, literal(-14)))
          CFI (cfiCond196) V9 load(1, XDATA, add(CFA_XSP16, literal(-13)))
          CFI (cfiCond196) V10 load(1, XDATA, add(CFA_XSP16, literal(-12)))
          CFI (cfiCond196) V11 load(1, XDATA, add(CFA_XSP16, literal(-11)))
          CFI (cfiCond196) V12 load(1, XDATA, add(CFA_XSP16, literal(-10)))
          CFI (cfiCond196) V13 load(1, XDATA, add(CFA_XSP16, literal(-9)))
          CFI (cfiCond196) V14 load(1, XDATA, add(CFA_XSP16, literal(-8)))
          CFI (cfiCond196) V15 load(1, XDATA, add(CFA_XSP16, literal(-7)))
          CFI (cfiCond196) R7 load(1, XDATA, add(CFA_XSP16, literal(-6)))
          CFI (cfiCond196) ?RET_LOW load(1, XDATA, add(CFA_XSP16, literal(-5)))
          CFI (cfiCond196) ?RET_HIGH load(1, XDATA, add(CFA_XSP16, literal(-4)))
          CFI (cfiCond196) ?BRET_EXT load(1, XDATA, add(CFA_XSP16, literal(-3)))
          CFI (cfiCond196) DPL0 load(1, XDATA, add(CFA_XSP16, literal(-2)))
          CFI (cfiCond196) DPH0 load(1, XDATA, add(CFA_XSP16, literal(-1)))
          CFI (cfiCond196) CFA_SP SP+0
          CFI (cfiCond196) CFA_XSP16 add(XSP16, 46)
          CFI Block cfiCond197 Using cfiCommon0
          CFI (cfiCond197) Function calibrationA
          CFI (cfiCond197) Conditional ??CrossCallReturnLabel_82
          CFI (cfiCond197) R6 load(1, XDATA, add(CFA_XSP16, literal(-24)))
          CFI (cfiCond197) VB load(1, XDATA, add(CFA_XSP16, literal(-23)))
          CFI (cfiCond197) V0 load(1, XDATA, add(CFA_XSP16, literal(-22)))
          CFI (cfiCond197) V1 load(1, XDATA, add(CFA_XSP16, literal(-21)))
          CFI (cfiCond197) V2 load(1, XDATA, add(CFA_XSP16, literal(-20)))
          CFI (cfiCond197) V3 load(1, XDATA, add(CFA_XSP16, literal(-19)))
          CFI (cfiCond197) V4 load(1, XDATA, add(CFA_XSP16, literal(-18)))
          CFI (cfiCond197) V5 load(1, XDATA, add(CFA_XSP16, literal(-17)))
          CFI (cfiCond197) V6 load(1, XDATA, add(CFA_XSP16, literal(-16)))
          CFI (cfiCond197) V7 load(1, XDATA, add(CFA_XSP16, literal(-15)))
          CFI (cfiCond197) V8 load(1, XDATA, add(CFA_XSP16, literal(-14)))
          CFI (cfiCond197) V9 load(1, XDATA, add(CFA_XSP16, literal(-13)))
          CFI (cfiCond197) V10 load(1, XDATA, add(CFA_XSP16, literal(-12)))
          CFI (cfiCond197) V11 load(1, XDATA, add(CFA_XSP16, literal(-11)))
          CFI (cfiCond197) V12 load(1, XDATA, add(CFA_XSP16, literal(-10)))
          CFI (cfiCond197) V13 load(1, XDATA, add(CFA_XSP16, literal(-9)))
          CFI (cfiCond197) V14 load(1, XDATA, add(CFA_XSP16, literal(-8)))
          CFI (cfiCond197) V15 load(1, XDATA, add(CFA_XSP16, literal(-7)))
          CFI (cfiCond197) R7 load(1, XDATA, add(CFA_XSP16, literal(-6)))
          CFI (cfiCond197) ?RET_LOW load(1, XDATA, add(CFA_XSP16, literal(-5)))
          CFI (cfiCond197) ?RET_HIGH load(1, XDATA, add(CFA_XSP16, literal(-4)))
          CFI (cfiCond197) ?BRET_EXT load(1, XDATA, add(CFA_XSP16, literal(-3)))
          CFI (cfiCond197) DPL0 load(1, XDATA, add(CFA_XSP16, literal(-2)))
          CFI (cfiCond197) DPH0 load(1, XDATA, add(CFA_XSP16, literal(-1)))
          CFI (cfiCond197) CFA_SP SP+0
          CFI (cfiCond197) CFA_XSP16 add(XSP16, 30)
          CFI Block cfiCond198 Using cfiCommon0
          CFI (cfiCond198) Function calibrationA
          CFI (cfiCond198) Conditional ??CrossCallReturnLabel_83
          CFI (cfiCond198) R6 load(1, XDATA, add(CFA_XSP16, literal(-24)))
          CFI (cfiCond198) VB load(1, XDATA, add(CFA_XSP16, literal(-23)))
          CFI (cfiCond198) V0 load(1, XDATA, add(CFA_XSP16, literal(-22)))
          CFI (cfiCond198) V1 load(1, XDATA, add(CFA_XSP16, literal(-21)))
          CFI (cfiCond198) V2 load(1, XDATA, add(CFA_XSP16, literal(-20)))
          CFI (cfiCond198) V3 load(1, XDATA, add(CFA_XSP16, literal(-19)))
          CFI (cfiCond198) V4 load(1, XDATA, add(CFA_XSP16, literal(-18)))
          CFI (cfiCond198) V5 load(1, XDATA, add(CFA_XSP16, literal(-17)))
          CFI (cfiCond198) V6 load(1, XDATA, add(CFA_XSP16, literal(-16)))
          CFI (cfiCond198) V7 load(1, XDATA, add(CFA_XSP16, literal(-15)))
          CFI (cfiCond198) V8 load(1, XDATA, add(CFA_XSP16, literal(-14)))
          CFI (cfiCond198) V9 load(1, XDATA, add(CFA_XSP16, literal(-13)))
          CFI (cfiCond198) V10 load(1, XDATA, add(CFA_XSP16, literal(-12)))
          CFI (cfiCond198) V11 load(1, XDATA, add(CFA_XSP16, literal(-11)))
          CFI (cfiCond198) V12 load(1, XDATA, add(CFA_XSP16, literal(-10)))
          CFI (cfiCond198) V13 load(1, XDATA, add(CFA_XSP16, literal(-9)))
          CFI (cfiCond198) V14 load(1, XDATA, add(CFA_XSP16, literal(-8)))
          CFI (cfiCond198) V15 load(1, XDATA, add(CFA_XSP16, literal(-7)))
          CFI (cfiCond198) R7 load(1, XDATA, add(CFA_XSP16, literal(-6)))
          CFI (cfiCond198) ?RET_LOW load(1, XDATA, add(CFA_XSP16, literal(-5)))
          CFI (cfiCond198) ?RET_HIGH load(1, XDATA, add(CFA_XSP16, literal(-4)))
          CFI (cfiCond198) ?BRET_EXT load(1, XDATA, add(CFA_XSP16, literal(-3)))
          CFI (cfiCond198) DPL0 load(1, XDATA, add(CFA_XSP16, literal(-2)))
          CFI (cfiCond198) DPH0 load(1, XDATA, add(CFA_XSP16, literal(-1)))
          CFI (cfiCond198) CFA_SP SP+0
          CFI (cfiCond198) CFA_XSP16 add(XSP16, 30)
          CFI Block cfiCond199 Using cfiCommon0
          CFI (cfiCond199) Function calibrationA
          CFI (cfiCond199) Conditional ??CrossCallReturnLabel_84
          CFI (cfiCond199) R6 load(1, XDATA, add(CFA_XSP16, literal(-24)))
          CFI (cfiCond199) VB load(1, XDATA, add(CFA_XSP16, literal(-23)))
          CFI (cfiCond199) V0 load(1, XDATA, add(CFA_XSP16, literal(-22)))
          CFI (cfiCond199) V1 load(1, XDATA, add(CFA_XSP16, literal(-21)))
          CFI (cfiCond199) V2 load(1, XDATA, add(CFA_XSP16, literal(-20)))
          CFI (cfiCond199) V3 load(1, XDATA, add(CFA_XSP16, literal(-19)))
          CFI (cfiCond199) V4 load(1, XDATA, add(CFA_XSP16, literal(-18)))
          CFI (cfiCond199) V5 load(1, XDATA, add(CFA_XSP16, literal(-17)))
          CFI (cfiCond199) V6 load(1, XDATA, add(CFA_XSP16, literal(-16)))
          CFI (cfiCond199) V7 load(1, XDATA, add(CFA_XSP16, literal(-15)))
          CFI (cfiCond199) V8 load(1, XDATA, add(CFA_XSP16, literal(-14)))
          CFI (cfiCond199) V9 load(1, XDATA, add(CFA_XSP16, literal(-13)))
          CFI (cfiCond199) V10 load(1, XDATA, add(CFA_XSP16, literal(-12)))
          CFI (cfiCond199) V11 load(1, XDATA, add(CFA_XSP16, literal(-11)))
          CFI (cfiCond199) V12 load(1, XDATA, add(CFA_XSP16, literal(-10)))
          CFI (cfiCond199) V13 load(1, XDATA, add(CFA_XSP16, literal(-9)))
          CFI (cfiCond199) V14 load(1, XDATA, add(CFA_XSP16, literal(-8)))
          CFI (cfiCond199) V15 load(1, XDATA, add(CFA_XSP16, literal(-7)))
          CFI (cfiCond199) R7 load(1, XDATA, add(CFA_XSP16, literal(-6)))
          CFI (cfiCond199) ?RET_LOW load(1, XDATA, add(CFA_XSP16, literal(-5)))
          CFI (cfiCond199) ?RET_HIGH load(1, XDATA, add(CFA_XSP16, literal(-4)))
          CFI (cfiCond199) ?BRET_EXT load(1, XDATA, add(CFA_XSP16, literal(-3)))
          CFI (cfiCond199) DPL0 load(1, XDATA, add(CFA_XSP16, literal(-2)))
          CFI (cfiCond199) DPH0 load(1, XDATA, add(CFA_XSP16, literal(-1)))
          CFI (cfiCond199) CFA_SP SP+0
          CFI (cfiCond199) CFA_XSP16 add(XSP16, 30)
          CFI Block cfiPicker200 Using cfiCommon1
          CFI (cfiPicker200) NoFunction
          CFI (cfiPicker200) Picker
        MOV     A,R2
        ADD     A,?V0 + 4
        MOV     R0,A
        MOV     A,R3
        LCALL   ?Subroutine40 & 0xFFFF
??CrossCallReturnLabel_127:
        RET
          CFI EndBlock cfiCond194
          CFI EndBlock cfiCond195
          CFI EndBlock cfiCond196
          CFI EndBlock cfiCond197
          CFI EndBlock cfiCond198
          CFI EndBlock cfiCond199
          CFI EndBlock cfiPicker200

        RSEG BANKED_CODE:CODE:NOROOT(0)
?Subroutine27:
          CFI Block cfiCond201 Using cfiCommon0
          CFI Function calibrationN
          CFI Conditional ??CrossCallReturnLabel_77
          CFI R6 load(1, XDATA, add(CFA_XSP16, literal(-24)))
          CFI VB load(1, XDATA, add(CFA_XSP16, literal(-23)))
          CFI V0 load(1, XDATA, add(CFA_XSP16, literal(-22)))
          CFI V1 load(1, XDATA, add(CFA_XSP16, literal(-21)))
          CFI V2 load(1, XDATA, add(CFA_XSP16, literal(-20)))
          CFI V3 load(1, XDATA, add(CFA_XSP16, literal(-19)))
          CFI V4 load(1, XDATA, add(CFA_XSP16, literal(-18)))
          CFI V5 load(1, XDATA, add(CFA_XSP16, literal(-17)))
          CFI V6 load(1, XDATA, add(CFA_XSP16, literal(-16)))
          CFI V7 load(1, XDATA, add(CFA_XSP16, literal(-15)))
          CFI V8 load(1, XDATA, add(CFA_XSP16, literal(-14)))
          CFI V9 load(1, XDATA, add(CFA_XSP16, literal(-13)))
          CFI V10 load(1, XDATA, add(CFA_XSP16, literal(-12)))
          CFI V11 load(1, XDATA, add(CFA_XSP16, literal(-11)))
          CFI V12 load(1, XDATA, add(CFA_XSP16, literal(-10)))
          CFI V13 load(1, XDATA, add(CFA_XSP16, literal(-9)))
          CFI V14 load(1, XDATA, add(CFA_XSP16, literal(-8)))
          CFI V15 load(1, XDATA, add(CFA_XSP16, literal(-7)))
          CFI R7 load(1, XDATA, add(CFA_XSP16, literal(-6)))
          CFI ?RET_LOW load(1, XDATA, add(CFA_XSP16, literal(-5)))
          CFI ?RET_HIGH load(1, XDATA, add(CFA_XSP16, literal(-4)))
          CFI ?BRET_EXT load(1, XDATA, add(CFA_XSP16, literal(-3)))
          CFI DPL0 load(1, XDATA, add(CFA_XSP16, literal(-2)))
          CFI DPH0 load(1, XDATA, add(CFA_XSP16, literal(-1)))
          CFI CFA_SP SP+0
          CFI CFA_XSP16 add(XSP16, 46)
          CFI Block cfiCond202 Using cfiCommon0
          CFI (cfiCond202) Function calibrationA
          CFI (cfiCond202) Conditional ??CrossCallReturnLabel_78
          CFI (cfiCond202) R6 load(1, XDATA, add(CFA_XSP16, literal(-24)))
          CFI (cfiCond202) VB load(1, XDATA, add(CFA_XSP16, literal(-23)))
          CFI (cfiCond202) V0 load(1, XDATA, add(CFA_XSP16, literal(-22)))
          CFI (cfiCond202) V1 load(1, XDATA, add(CFA_XSP16, literal(-21)))
          CFI (cfiCond202) V2 load(1, XDATA, add(CFA_XSP16, literal(-20)))
          CFI (cfiCond202) V3 load(1, XDATA, add(CFA_XSP16, literal(-19)))
          CFI (cfiCond202) V4 load(1, XDATA, add(CFA_XSP16, literal(-18)))
          CFI (cfiCond202) V5 load(1, XDATA, add(CFA_XSP16, literal(-17)))
          CFI (cfiCond202) V6 load(1, XDATA, add(CFA_XSP16, literal(-16)))
          CFI (cfiCond202) V7 load(1, XDATA, add(CFA_XSP16, literal(-15)))
          CFI (cfiCond202) V8 load(1, XDATA, add(CFA_XSP16, literal(-14)))
          CFI (cfiCond202) V9 load(1, XDATA, add(CFA_XSP16, literal(-13)))
          CFI (cfiCond202) V10 load(1, XDATA, add(CFA_XSP16, literal(-12)))
          CFI (cfiCond202) V11 load(1, XDATA, add(CFA_XSP16, literal(-11)))
          CFI (cfiCond202) V12 load(1, XDATA, add(CFA_XSP16, literal(-10)))
          CFI (cfiCond202) V13 load(1, XDATA, add(CFA_XSP16, literal(-9)))
          CFI (cfiCond202) V14 load(1, XDATA, add(CFA_XSP16, literal(-8)))
          CFI (cfiCond202) V15 load(1, XDATA, add(CFA_XSP16, literal(-7)))
          CFI (cfiCond202) R7 load(1, XDATA, add(CFA_XSP16, literal(-6)))
          CFI (cfiCond202) ?RET_LOW load(1, XDATA, add(CFA_XSP16, literal(-5)))
          CFI (cfiCond202) ?RET_HIGH load(1, XDATA, add(CFA_XSP16, literal(-4)))
          CFI (cfiCond202) ?BRET_EXT load(1, XDATA, add(CFA_XSP16, literal(-3)))
          CFI (cfiCond202) DPL0 load(1, XDATA, add(CFA_XSP16, literal(-2)))
          CFI (cfiCond202) DPH0 load(1, XDATA, add(CFA_XSP16, literal(-1)))
          CFI (cfiCond202) CFA_SP SP+0
          CFI (cfiCond202) CFA_XSP16 add(XSP16, 30)
          CFI Block cfiPicker203 Using cfiCommon1
          CFI (cfiPicker203) NoFunction
          CFI (cfiPicker203) Picker
        MOV     DPL,?XSP + 0
        MOV     DPH,?XSP + 1
        MOV     A,R2
        MOVX    @DPTR,A
        INC     DPTR
        MOV     A,R3
        MOVX    @DPTR,A
        MOV     A,R4
        MOV     R6,A
        MOV     A,R5
        MOV     R7,A
        RET
          CFI EndBlock cfiCond201
          CFI EndBlock cfiCond202
          CFI EndBlock cfiPicker203

        RSEG BANKED_CODE:CODE:NOROOT(0)
?Subroutine9:
          CFI Block cfiCond204 Using cfiCommon0
          CFI Function calibrationN
          CFI Conditional ??CrossCallReturnLabel_17
          CFI R6 load(1, XDATA, add(CFA_XSP16, literal(-24)))
          CFI VB load(1, XDATA, add(CFA_XSP16, literal(-23)))
          CFI V0 load(1, XDATA, add(CFA_XSP16, literal(-22)))
          CFI V1 load(1, XDATA, add(CFA_XSP16, literal(-21)))
          CFI V2 load(1, XDATA, add(CFA_XSP16, literal(-20)))
          CFI V3 load(1, XDATA, add(CFA_XSP16, literal(-19)))
          CFI V4 load(1, XDATA, add(CFA_XSP16, literal(-18)))
          CFI V5 load(1, XDATA, add(CFA_XSP16, literal(-17)))
          CFI V6 load(1, XDATA, add(CFA_XSP16, literal(-16)))
          CFI V7 load(1, XDATA, add(CFA_XSP16, literal(-15)))
          CFI V8 load(1, XDATA, add(CFA_XSP16, literal(-14)))
          CFI V9 load(1, XDATA, add(CFA_XSP16, literal(-13)))
          CFI V10 load(1, XDATA, add(CFA_XSP16, literal(-12)))
          CFI V11 load(1, XDATA, add(CFA_XSP16, literal(-11)))
          CFI V12 load(1, XDATA, add(CFA_XSP16, literal(-10)))
          CFI V13 load(1, XDATA, add(CFA_XSP16, literal(-9)))
          CFI V14 load(1, XDATA, add(CFA_XSP16, literal(-8)))
          CFI V15 load(1, XDATA, add(CFA_XSP16, literal(-7)))
          CFI R7 load(1, XDATA, add(CFA_XSP16, literal(-6)))
          CFI ?RET_LOW load(1, XDATA, add(CFA_XSP16, literal(-5)))
          CFI ?RET_HIGH load(1, XDATA, add(CFA_XSP16, literal(-4)))
          CFI ?BRET_EXT load(1, XDATA, add(CFA_XSP16, literal(-3)))
          CFI DPL0 load(1, XDATA, add(CFA_XSP16, literal(-2)))
          CFI DPH0 load(1, XDATA, add(CFA_XSP16, literal(-1)))
          CFI CFA_SP SP+0
          CFI CFA_XSP16 add(XSP16, 46)
          CFI Block cfiCond205 Using cfiCommon0
          CFI (cfiCond205) Function calibrationA
          CFI (cfiCond205) Conditional ??CrossCallReturnLabel_18
          CFI (cfiCond205) R6 load(1, XDATA, add(CFA_XSP16, literal(-24)))
          CFI (cfiCond205) VB load(1, XDATA, add(CFA_XSP16, literal(-23)))
          CFI (cfiCond205) V0 load(1, XDATA, add(CFA_XSP16, literal(-22)))
          CFI (cfiCond205) V1 load(1, XDATA, add(CFA_XSP16, literal(-21)))
          CFI (cfiCond205) V2 load(1, XDATA, add(CFA_XSP16, literal(-20)))
          CFI (cfiCond205) V3 load(1, XDATA, add(CFA_XSP16, literal(-19)))
          CFI (cfiCond205) V4 load(1, XDATA, add(CFA_XSP16, literal(-18)))
          CFI (cfiCond205) V5 load(1, XDATA, add(CFA_XSP16, literal(-17)))
          CFI (cfiCond205) V6 load(1, XDATA, add(CFA_XSP16, literal(-16)))
          CFI (cfiCond205) V7 load(1, XDATA, add(CFA_XSP16, literal(-15)))
          CFI (cfiCond205) V8 load(1, XDATA, add(CFA_XSP16, literal(-14)))
          CFI (cfiCond205) V9 load(1, XDATA, add(CFA_XSP16, literal(-13)))
          CFI (cfiCond205) V10 load(1, XDATA, add(CFA_XSP16, literal(-12)))
          CFI (cfiCond205) V11 load(1, XDATA, add(CFA_XSP16, literal(-11)))
          CFI (cfiCond205) V12 load(1, XDATA, add(CFA_XSP16, literal(-10)))
          CFI (cfiCond205) V13 load(1, XDATA, add(CFA_XSP16, literal(-9)))
          CFI (cfiCond205) V14 load(1, XDATA, add(CFA_XSP16, literal(-8)))
          CFI (cfiCond205) V15 load(1, XDATA, add(CFA_XSP16, literal(-7)))
          CFI (cfiCond205) R7 load(1, XDATA, add(CFA_XSP16, literal(-6)))
          CFI (cfiCond205) ?RET_LOW load(1, XDATA, add(CFA_XSP16, literal(-5)))
          CFI (cfiCond205) ?RET_HIGH load(1, XDATA, add(CFA_XSP16, literal(-4)))
          CFI (cfiCond205) ?BRET_EXT load(1, XDATA, add(CFA_XSP16, literal(-3)))
          CFI (cfiCond205) DPL0 load(1, XDATA, add(CFA_XSP16, literal(-2)))
          CFI (cfiCond205) DPH0 load(1, XDATA, add(CFA_XSP16, literal(-1)))
          CFI (cfiCond205) CFA_SP SP+0
          CFI (cfiCond205) CFA_XSP16 add(XSP16, 30)
          CFI Block cfiPicker206 Using cfiCommon1
          CFI (cfiPicker206) NoFunction
          CFI (cfiPicker206) Picker
        MOVX    A,@DPTR
        ADD     A,?V0 + 0
        MOV     R0,A
        INC     DPTR
        MOVX    A,@DPTR
        ADDC    A,?V0 + 1
        LCALL   ??Subroutine46_0 & 0xFFFF
??CrossCallReturnLabel_125:
        RET
          CFI EndBlock cfiCond204
          CFI EndBlock cfiCond205
          CFI EndBlock cfiPicker206

        RSEG BANKED_CODE:CODE:NOROOT(0)
?Subroutine8:
          CFI Block cfiCond207 Using cfiCommon0
          CFI Function calibrationN
          CFI Conditional ??CrossCallReturnLabel_15
          CFI R6 load(1, XDATA, add(CFA_XSP16, literal(-24)))
          CFI VB load(1, XDATA, add(CFA_XSP16, literal(-23)))
          CFI V0 load(1, XDATA, add(CFA_XSP16, literal(-22)))
          CFI V1 load(1, XDATA, add(CFA_XSP16, literal(-21)))
          CFI V2 load(1, XDATA, add(CFA_XSP16, literal(-20)))
          CFI V3 load(1, XDATA, add(CFA_XSP16, literal(-19)))
          CFI V4 load(1, XDATA, add(CFA_XSP16, literal(-18)))
          CFI V5 load(1, XDATA, add(CFA_XSP16, literal(-17)))
          CFI V6 load(1, XDATA, add(CFA_XSP16, literal(-16)))
          CFI V7 load(1, XDATA, add(CFA_XSP16, literal(-15)))
          CFI V8 load(1, XDATA, add(CFA_XSP16, literal(-14)))
          CFI V9 load(1, XDATA, add(CFA_XSP16, literal(-13)))
          CFI V10 load(1, XDATA, add(CFA_XSP16, literal(-12)))
          CFI V11 load(1, XDATA, add(CFA_XSP16, literal(-11)))
          CFI V12 load(1, XDATA, add(CFA_XSP16, literal(-10)))
          CFI V13 load(1, XDATA, add(CFA_XSP16, literal(-9)))
          CFI V14 load(1, XDATA, add(CFA_XSP16, literal(-8)))
          CFI V15 load(1, XDATA, add(CFA_XSP16, literal(-7)))
          CFI R7 load(1, XDATA, add(CFA_XSP16, literal(-6)))
          CFI ?RET_LOW load(1, XDATA, add(CFA_XSP16, literal(-5)))
          CFI ?RET_HIGH load(1, XDATA, add(CFA_XSP16, literal(-4)))
          CFI ?BRET_EXT load(1, XDATA, add(CFA_XSP16, literal(-3)))
          CFI DPL0 load(1, XDATA, add(CFA_XSP16, literal(-2)))
          CFI DPH0 load(1, XDATA, add(CFA_XSP16, literal(-1)))
          CFI CFA_SP SP+0
          CFI CFA_XSP16 add(XSP16, 46)
          CFI Block cfiCond208 Using cfiCommon0
          CFI (cfiCond208) Function calibrationA
          CFI (cfiCond208) Conditional ??CrossCallReturnLabel_16
          CFI (cfiCond208) R6 load(1, XDATA, add(CFA_XSP16, literal(-24)))
          CFI (cfiCond208) VB load(1, XDATA, add(CFA_XSP16, literal(-23)))
          CFI (cfiCond208) V0 load(1, XDATA, add(CFA_XSP16, literal(-22)))
          CFI (cfiCond208) V1 load(1, XDATA, add(CFA_XSP16, literal(-21)))
          CFI (cfiCond208) V2 load(1, XDATA, add(CFA_XSP16, literal(-20)))
          CFI (cfiCond208) V3 load(1, XDATA, add(CFA_XSP16, literal(-19)))
          CFI (cfiCond208) V4 load(1, XDATA, add(CFA_XSP16, literal(-18)))
          CFI (cfiCond208) V5 load(1, XDATA, add(CFA_XSP16, literal(-17)))
          CFI (cfiCond208) V6 load(1, XDATA, add(CFA_XSP16, literal(-16)))
          CFI (cfiCond208) V7 load(1, XDATA, add(CFA_XSP16, literal(-15)))
          CFI (cfiCond208) V8 load(1, XDATA, add(CFA_XSP16, literal(-14)))
          CFI (cfiCond208) V9 load(1, XDATA, add(CFA_XSP16, literal(-13)))
          CFI (cfiCond208) V10 load(1, XDATA, add(CFA_XSP16, literal(-12)))
          CFI (cfiCond208) V11 load(1, XDATA, add(CFA_XSP16, literal(-11)))
          CFI (cfiCond208) V12 load(1, XDATA, add(CFA_XSP16, literal(-10)))
          CFI (cfiCond208) V13 load(1, XDATA, add(CFA_XSP16, literal(-9)))
          CFI (cfiCond208) V14 load(1, XDATA, add(CFA_XSP16, literal(-8)))
          CFI (cfiCond208) V15 load(1, XDATA, add(CFA_XSP16, literal(-7)))
          CFI (cfiCond208) R7 load(1, XDATA, add(CFA_XSP16, literal(-6)))
          CFI (cfiCond208) ?RET_LOW load(1, XDATA, add(CFA_XSP16, literal(-5)))
          CFI (cfiCond208) ?RET_HIGH load(1, XDATA, add(CFA_XSP16, literal(-4)))
          CFI (cfiCond208) ?BRET_EXT load(1, XDATA, add(CFA_XSP16, literal(-3)))
          CFI (cfiCond208) DPL0 load(1, XDATA, add(CFA_XSP16, literal(-2)))
          CFI (cfiCond208) DPH0 load(1, XDATA, add(CFA_XSP16, literal(-1)))
          CFI (cfiCond208) CFA_SP SP+0
          CFI (cfiCond208) CFA_XSP16 add(XSP16, 30)
          CFI Block cfiPicker209 Using cfiCommon1
          CFI (cfiPicker209) NoFunction
          CFI (cfiPicker209) Picker
        MOVX    A,@DPTR
        ADD     A,?V0 + 4
        MOV     R0,A
        INC     DPTR
        MOVX    A,@DPTR
        LCALL   ?Subroutine40 & 0xFFFF
??CrossCallReturnLabel_126:
        RET
          CFI EndBlock cfiCond207
          CFI EndBlock cfiCond208
          CFI EndBlock cfiPicker209

        RSEG BANKED_CODE:CODE:NOROOT(0)
?Subroutine40:
          CFI Block cfiCond210 Using cfiCommon0
          CFI Function calibrationN
          CFI Conditional ??CrossCallReturnLabel_127, ??CrossCallReturnLabel_79
          CFI R6 load(1, XDATA, add(CFA_XSP16, literal(-24)))
          CFI VB load(1, XDATA, add(CFA_XSP16, literal(-23)))
          CFI V0 load(1, XDATA, add(CFA_XSP16, literal(-22)))
          CFI V1 load(1, XDATA, add(CFA_XSP16, literal(-21)))
          CFI V2 load(1, XDATA, add(CFA_XSP16, literal(-20)))
          CFI V3 load(1, XDATA, add(CFA_XSP16, literal(-19)))
          CFI V4 load(1, XDATA, add(CFA_XSP16, literal(-18)))
          CFI V5 load(1, XDATA, add(CFA_XSP16, literal(-17)))
          CFI V6 load(1, XDATA, add(CFA_XSP16, literal(-16)))
          CFI V7 load(1, XDATA, add(CFA_XSP16, literal(-15)))
          CFI V8 load(1, XDATA, add(CFA_XSP16, literal(-14)))
          CFI V9 load(1, XDATA, add(CFA_XSP16, literal(-13)))
          CFI V10 load(1, XDATA, add(CFA_XSP16, literal(-12)))
          CFI V11 load(1, XDATA, add(CFA_XSP16, literal(-11)))
          CFI V12 load(1, XDATA, add(CFA_XSP16, literal(-10)))
          CFI V13 load(1, XDATA, add(CFA_XSP16, literal(-9)))
          CFI V14 load(1, XDATA, add(CFA_XSP16, literal(-8)))
          CFI V15 load(1, XDATA, add(CFA_XSP16, literal(-7)))
          CFI R7 load(1, XDATA, add(CFA_XSP16, literal(-6)))
          CFI ?RET_LOW load(1, XDATA, add(CFA_XSP16, literal(-5)))
          CFI ?RET_HIGH load(1, XDATA, add(CFA_XSP16, literal(-4)))
          CFI ?BRET_EXT load(1, XDATA, add(CFA_XSP16, literal(-3)))
          CFI DPL0 load(1, XDATA, add(CFA_XSP16, literal(-2)))
          CFI DPH0 load(1, XDATA, add(CFA_XSP16, literal(-1)))
          CFI CFA_SP SP+0
          CFI CFA_XSP16 add(XSP16, 46)
          CFI Block cfiCond211 Using cfiCommon0
          CFI (cfiCond211) Function calibrationN
          CFI (cfiCond211) Conditional ??CrossCallReturnLabel_127, ??CrossCallReturnLabel_80
          CFI (cfiCond211) R6 load(1, XDATA, add(CFA_XSP16, literal(-24)))
          CFI (cfiCond211) VB load(1, XDATA, add(CFA_XSP16, literal(-23)))
          CFI (cfiCond211) V0 load(1, XDATA, add(CFA_XSP16, literal(-22)))
          CFI (cfiCond211) V1 load(1, XDATA, add(CFA_XSP16, literal(-21)))
          CFI (cfiCond211) V2 load(1, XDATA, add(CFA_XSP16, literal(-20)))
          CFI (cfiCond211) V3 load(1, XDATA, add(CFA_XSP16, literal(-19)))
          CFI (cfiCond211) V4 load(1, XDATA, add(CFA_XSP16, literal(-18)))
          CFI (cfiCond211) V5 load(1, XDATA, add(CFA_XSP16, literal(-17)))
          CFI (cfiCond211) V6 load(1, XDATA, add(CFA_XSP16, literal(-16)))
          CFI (cfiCond211) V7 load(1, XDATA, add(CFA_XSP16, literal(-15)))
          CFI (cfiCond211) V8 load(1, XDATA, add(CFA_XSP16, literal(-14)))
          CFI (cfiCond211) V9 load(1, XDATA, add(CFA_XSP16, literal(-13)))
          CFI (cfiCond211) V10 load(1, XDATA, add(CFA_XSP16, literal(-12)))
          CFI (cfiCond211) V11 load(1, XDATA, add(CFA_XSP16, literal(-11)))
          CFI (cfiCond211) V12 load(1, XDATA, add(CFA_XSP16, literal(-10)))
          CFI (cfiCond211) V13 load(1, XDATA, add(CFA_XSP16, literal(-9)))
          CFI (cfiCond211) V14 load(1, XDATA, add(CFA_XSP16, literal(-8)))
          CFI (cfiCond211) V15 load(1, XDATA, add(CFA_XSP16, literal(-7)))
          CFI (cfiCond211) R7 load(1, XDATA, add(CFA_XSP16, literal(-6)))
          CFI (cfiCond211) ?RET_LOW load(1, XDATA, add(CFA_XSP16, literal(-5)))
          CFI (cfiCond211) ?RET_HIGH load(1, XDATA, add(CFA_XSP16, literal(-4)))
          CFI (cfiCond211) ?BRET_EXT load(1, XDATA, add(CFA_XSP16, literal(-3)))
          CFI (cfiCond211) DPL0 load(1, XDATA, add(CFA_XSP16, literal(-2)))
          CFI (cfiCond211) DPH0 load(1, XDATA, add(CFA_XSP16, literal(-1)))
          CFI (cfiCond211) CFA_SP SP+0
          CFI (cfiCond211) CFA_XSP16 add(XSP16, 46)
          CFI Block cfiCond212 Using cfiCommon0
          CFI (cfiCond212) Function calibrationN
          CFI (cfiCond212) Conditional ??CrossCallReturnLabel_127, ??CrossCallReturnLabel_81
          CFI (cfiCond212) R6 load(1, XDATA, add(CFA_XSP16, literal(-24)))
          CFI (cfiCond212) VB load(1, XDATA, add(CFA_XSP16, literal(-23)))
          CFI (cfiCond212) V0 load(1, XDATA, add(CFA_XSP16, literal(-22)))
          CFI (cfiCond212) V1 load(1, XDATA, add(CFA_XSP16, literal(-21)))
          CFI (cfiCond212) V2 load(1, XDATA, add(CFA_XSP16, literal(-20)))
          CFI (cfiCond212) V3 load(1, XDATA, add(CFA_XSP16, literal(-19)))
          CFI (cfiCond212) V4 load(1, XDATA, add(CFA_XSP16, literal(-18)))
          CFI (cfiCond212) V5 load(1, XDATA, add(CFA_XSP16, literal(-17)))
          CFI (cfiCond212) V6 load(1, XDATA, add(CFA_XSP16, literal(-16)))
          CFI (cfiCond212) V7 load(1, XDATA, add(CFA_XSP16, literal(-15)))
          CFI (cfiCond212) V8 load(1, XDATA, add(CFA_XSP16, literal(-14)))
          CFI (cfiCond212) V9 load(1, XDATA, add(CFA_XSP16, literal(-13)))
          CFI (cfiCond212) V10 load(1, XDATA, add(CFA_XSP16, literal(-12)))
          CFI (cfiCond212) V11 load(1, XDATA, add(CFA_XSP16, literal(-11)))
          CFI (cfiCond212) V12 load(1, XDATA, add(CFA_XSP16, literal(-10)))
          CFI (cfiCond212) V13 load(1, XDATA, add(CFA_XSP16, literal(-9)))
          CFI (cfiCond212) V14 load(1, XDATA, add(CFA_XSP16, literal(-8)))
          CFI (cfiCond212) V15 load(1, XDATA, add(CFA_XSP16, literal(-7)))
          CFI (cfiCond212) R7 load(1, XDATA, add(CFA_XSP16, literal(-6)))
          CFI (cfiCond212) ?RET_LOW load(1, XDATA, add(CFA_XSP16, literal(-5)))
          CFI (cfiCond212) ?RET_HIGH load(1, XDATA, add(CFA_XSP16, literal(-4)))
          CFI (cfiCond212) ?BRET_EXT load(1, XDATA, add(CFA_XSP16, literal(-3)))
          CFI (cfiCond212) DPL0 load(1, XDATA, add(CFA_XSP16, literal(-2)))
          CFI (cfiCond212) DPH0 load(1, XDATA, add(CFA_XSP16, literal(-1)))
          CFI (cfiCond212) CFA_SP SP+0
          CFI (cfiCond212) CFA_XSP16 add(XSP16, 46)
          CFI Block cfiCond213 Using cfiCommon0
          CFI (cfiCond213) Function calibrationA
          CFI (cfiCond213) Conditional ??CrossCallReturnLabel_127, ??CrossCallReturnLabel_82
          CFI (cfiCond213) R6 load(1, XDATA, add(CFA_XSP16, literal(-24)))
          CFI (cfiCond213) VB load(1, XDATA, add(CFA_XSP16, literal(-23)))
          CFI (cfiCond213) V0 load(1, XDATA, add(CFA_XSP16, literal(-22)))
          CFI (cfiCond213) V1 load(1, XDATA, add(CFA_XSP16, literal(-21)))
          CFI (cfiCond213) V2 load(1, XDATA, add(CFA_XSP16, literal(-20)))
          CFI (cfiCond213) V3 load(1, XDATA, add(CFA_XSP16, literal(-19)))
          CFI (cfiCond213) V4 load(1, XDATA, add(CFA_XSP16, literal(-18)))
          CFI (cfiCond213) V5 load(1, XDATA, add(CFA_XSP16, literal(-17)))
          CFI (cfiCond213) V6 load(1, XDATA, add(CFA_XSP16, literal(-16)))
          CFI (cfiCond213) V7 load(1, XDATA, add(CFA_XSP16, literal(-15)))
          CFI (cfiCond213) V8 load(1, XDATA, add(CFA_XSP16, literal(-14)))
          CFI (cfiCond213) V9 load(1, XDATA, add(CFA_XSP16, literal(-13)))
          CFI (cfiCond213) V10 load(1, XDATA, add(CFA_XSP16, literal(-12)))
          CFI (cfiCond213) V11 load(1, XDATA, add(CFA_XSP16, literal(-11)))
          CFI (cfiCond213) V12 load(1, XDATA, add(CFA_XSP16, literal(-10)))
          CFI (cfiCond213) V13 load(1, XDATA, add(CFA_XSP16, literal(-9)))
          CFI (cfiCond213) V14 load(1, XDATA, add(CFA_XSP16, literal(-8)))
          CFI (cfiCond213) V15 load(1, XDATA, add(CFA_XSP16, literal(-7)))
          CFI (cfiCond213) R7 load(1, XDATA, add(CFA_XSP16, literal(-6)))
          CFI (cfiCond213) ?RET_LOW load(1, XDATA, add(CFA_XSP16, literal(-5)))
          CFI (cfiCond213) ?RET_HIGH load(1, XDATA, add(CFA_XSP16, literal(-4)))
          CFI (cfiCond213) ?BRET_EXT load(1, XDATA, add(CFA_XSP16, literal(-3)))
          CFI (cfiCond213) DPL0 load(1, XDATA, add(CFA_XSP16, literal(-2)))
          CFI (cfiCond213) DPH0 load(1, XDATA, add(CFA_XSP16, literal(-1)))
          CFI (cfiCond213) CFA_SP SP+0
          CFI (cfiCond213) CFA_XSP16 add(XSP16, 30)
          CFI Block cfiCond214 Using cfiCommon0
          CFI (cfiCond214) Function calibrationA
          CFI (cfiCond214) Conditional ??CrossCallReturnLabel_127, ??CrossCallReturnLabel_83
          CFI (cfiCond214) R6 load(1, XDATA, add(CFA_XSP16, literal(-24)))
          CFI (cfiCond214) VB load(1, XDATA, add(CFA_XSP16, literal(-23)))
          CFI (cfiCond214) V0 load(1, XDATA, add(CFA_XSP16, literal(-22)))
          CFI (cfiCond214) V1 load(1, XDATA, add(CFA_XSP16, literal(-21)))
          CFI (cfiCond214) V2 load(1, XDATA, add(CFA_XSP16, literal(-20)))
          CFI (cfiCond214) V3 load(1, XDATA, add(CFA_XSP16, literal(-19)))
          CFI (cfiCond214) V4 load(1, XDATA, add(CFA_XSP16, literal(-18)))
          CFI (cfiCond214) V5 load(1, XDATA, add(CFA_XSP16, literal(-17)))
          CFI (cfiCond214) V6 load(1, XDATA, add(CFA_XSP16, literal(-16)))
          CFI (cfiCond214) V7 load(1, XDATA, add(CFA_XSP16, literal(-15)))
          CFI (cfiCond214) V8 load(1, XDATA, add(CFA_XSP16, literal(-14)))
          CFI (cfiCond214) V9 load(1, XDATA, add(CFA_XSP16, literal(-13)))
          CFI (cfiCond214) V10 load(1, XDATA, add(CFA_XSP16, literal(-12)))
          CFI (cfiCond214) V11 load(1, XDATA, add(CFA_XSP16, literal(-11)))
          CFI (cfiCond214) V12 load(1, XDATA, add(CFA_XSP16, literal(-10)))
          CFI (cfiCond214) V13 load(1, XDATA, add(CFA_XSP16, literal(-9)))
          CFI (cfiCond214) V14 load(1, XDATA, add(CFA_XSP16, literal(-8)))
          CFI (cfiCond214) V15 load(1, XDATA, add(CFA_XSP16, literal(-7)))
          CFI (cfiCond214) R7 load(1, XDATA, add(CFA_XSP16, literal(-6)))
          CFI (cfiCond214) ?RET_LOW load(1, XDATA, add(CFA_XSP16, literal(-5)))
          CFI (cfiCond214) ?RET_HIGH load(1, XDATA, add(CFA_XSP16, literal(-4)))
          CFI (cfiCond214) ?BRET_EXT load(1, XDATA, add(CFA_XSP16, literal(-3)))
          CFI (cfiCond214) DPL0 load(1, XDATA, add(CFA_XSP16, literal(-2)))
          CFI (cfiCond214) DPH0 load(1, XDATA, add(CFA_XSP16, literal(-1)))
          CFI (cfiCond214) CFA_SP SP+0
          CFI (cfiCond214) CFA_XSP16 add(XSP16, 30)
          CFI Block cfiCond215 Using cfiCommon0
          CFI (cfiCond215) Function calibrationA
          CFI (cfiCond215) Conditional ??CrossCallReturnLabel_127, ??CrossCallReturnLabel_84
          CFI (cfiCond215) R6 load(1, XDATA, add(CFA_XSP16, literal(-24)))
          CFI (cfiCond215) VB load(1, XDATA, add(CFA_XSP16, literal(-23)))
          CFI (cfiCond215) V0 load(1, XDATA, add(CFA_XSP16, literal(-22)))
          CFI (cfiCond215) V1 load(1, XDATA, add(CFA_XSP16, literal(-21)))
          CFI (cfiCond215) V2 load(1, XDATA, add(CFA_XSP16, literal(-20)))
          CFI (cfiCond215) V3 load(1, XDATA, add(CFA_XSP16, literal(-19)))
          CFI (cfiCond215) V4 load(1, XDATA, add(CFA_XSP16, literal(-18)))
          CFI (cfiCond215) V5 load(1, XDATA, add(CFA_XSP16, literal(-17)))
          CFI (cfiCond215) V6 load(1, XDATA, add(CFA_XSP16, literal(-16)))
          CFI (cfiCond215) V7 load(1, XDATA, add(CFA_XSP16, literal(-15)))
          CFI (cfiCond215) V8 load(1, XDATA, add(CFA_XSP16, literal(-14)))
          CFI (cfiCond215) V9 load(1, XDATA, add(CFA_XSP16, literal(-13)))
          CFI (cfiCond215) V10 load(1, XDATA, add(CFA_XSP16, literal(-12)))
          CFI (cfiCond215) V11 load(1, XDATA, add(CFA_XSP16, literal(-11)))
          CFI (cfiCond215) V12 load(1, XDATA, add(CFA_XSP16, literal(-10)))
          CFI (cfiCond215) V13 load(1, XDATA, add(CFA_XSP16, literal(-9)))
          CFI (cfiCond215) V14 load(1, XDATA, add(CFA_XSP16, literal(-8)))
          CFI (cfiCond215) V15 load(1, XDATA, add(CFA_XSP16, literal(-7)))
          CFI (cfiCond215) R7 load(1, XDATA, add(CFA_XSP16, literal(-6)))
          CFI (cfiCond215) ?RET_LOW load(1, XDATA, add(CFA_XSP16, literal(-5)))
          CFI (cfiCond215) ?RET_HIGH load(1, XDATA, add(CFA_XSP16, literal(-4)))
          CFI (cfiCond215) ?BRET_EXT load(1, XDATA, add(CFA_XSP16, literal(-3)))
          CFI (cfiCond215) DPL0 load(1, XDATA, add(CFA_XSP16, literal(-2)))
          CFI (cfiCond215) DPH0 load(1, XDATA, add(CFA_XSP16, literal(-1)))
          CFI (cfiCond215) CFA_SP SP+0
          CFI (cfiCond215) CFA_XSP16 add(XSP16, 30)
          CFI Block cfiCond216 Using cfiCommon0
          CFI (cfiCond216) Function calibrationN
          CFI (cfiCond216) Conditional ??CrossCallReturnLabel_126, ??CrossCallReturnLabel_15
          CFI (cfiCond216) R6 load(1, XDATA, add(CFA_XSP16, literal(-24)))
          CFI (cfiCond216) VB load(1, XDATA, add(CFA_XSP16, literal(-23)))
          CFI (cfiCond216) V0 load(1, XDATA, add(CFA_XSP16, literal(-22)))
          CFI (cfiCond216) V1 load(1, XDATA, add(CFA_XSP16, literal(-21)))
          CFI (cfiCond216) V2 load(1, XDATA, add(CFA_XSP16, literal(-20)))
          CFI (cfiCond216) V3 load(1, XDATA, add(CFA_XSP16, literal(-19)))
          CFI (cfiCond216) V4 load(1, XDATA, add(CFA_XSP16, literal(-18)))
          CFI (cfiCond216) V5 load(1, XDATA, add(CFA_XSP16, literal(-17)))
          CFI (cfiCond216) V6 load(1, XDATA, add(CFA_XSP16, literal(-16)))
          CFI (cfiCond216) V7 load(1, XDATA, add(CFA_XSP16, literal(-15)))
          CFI (cfiCond216) V8 load(1, XDATA, add(CFA_XSP16, literal(-14)))
          CFI (cfiCond216) V9 load(1, XDATA, add(CFA_XSP16, literal(-13)))
          CFI (cfiCond216) V10 load(1, XDATA, add(CFA_XSP16, literal(-12)))
          CFI (cfiCond216) V11 load(1, XDATA, add(CFA_XSP16, literal(-11)))
          CFI (cfiCond216) V12 load(1, XDATA, add(CFA_XSP16, literal(-10)))
          CFI (cfiCond216) V13 load(1, XDATA, add(CFA_XSP16, literal(-9)))
          CFI (cfiCond216) V14 load(1, XDATA, add(CFA_XSP16, literal(-8)))
          CFI (cfiCond216) V15 load(1, XDATA, add(CFA_XSP16, literal(-7)))
          CFI (cfiCond216) R7 load(1, XDATA, add(CFA_XSP16, literal(-6)))
          CFI (cfiCond216) ?RET_LOW load(1, XDATA, add(CFA_XSP16, literal(-5)))
          CFI (cfiCond216) ?RET_HIGH load(1, XDATA, add(CFA_XSP16, literal(-4)))
          CFI (cfiCond216) ?BRET_EXT load(1, XDATA, add(CFA_XSP16, literal(-3)))
          CFI (cfiCond216) DPL0 load(1, XDATA, add(CFA_XSP16, literal(-2)))
          CFI (cfiCond216) DPH0 load(1, XDATA, add(CFA_XSP16, literal(-1)))
          CFI (cfiCond216) CFA_SP SP+0
          CFI (cfiCond216) CFA_XSP16 add(XSP16, 46)
          CFI Block cfiCond217 Using cfiCommon0
          CFI (cfiCond217) Function calibrationA
          CFI (cfiCond217) Conditional ??CrossCallReturnLabel_126, ??CrossCallReturnLabel_16
          CFI (cfiCond217) R6 load(1, XDATA, add(CFA_XSP16, literal(-24)))
          CFI (cfiCond217) VB load(1, XDATA, add(CFA_XSP16, literal(-23)))
          CFI (cfiCond217) V0 load(1, XDATA, add(CFA_XSP16, literal(-22)))
          CFI (cfiCond217) V1 load(1, XDATA, add(CFA_XSP16, literal(-21)))
          CFI (cfiCond217) V2 load(1, XDATA, add(CFA_XSP16, literal(-20)))
          CFI (cfiCond217) V3 load(1, XDATA, add(CFA_XSP16, literal(-19)))
          CFI (cfiCond217) V4 load(1, XDATA, add(CFA_XSP16, literal(-18)))
          CFI (cfiCond217) V5 load(1, XDATA, add(CFA_XSP16, literal(-17)))
          CFI (cfiCond217) V6 load(1, XDATA, add(CFA_XSP16, literal(-16)))
          CFI (cfiCond217) V7 load(1, XDATA, add(CFA_XSP16, literal(-15)))
          CFI (cfiCond217) V8 load(1, XDATA, add(CFA_XSP16, literal(-14)))
          CFI (cfiCond217) V9 load(1, XDATA, add(CFA_XSP16, literal(-13)))
          CFI (cfiCond217) V10 load(1, XDATA, add(CFA_XSP16, literal(-12)))
          CFI (cfiCond217) V11 load(1, XDATA, add(CFA_XSP16, literal(-11)))
          CFI (cfiCond217) V12 load(1, XDATA, add(CFA_XSP16, literal(-10)))
          CFI (cfiCond217) V13 load(1, XDATA, add(CFA_XSP16, literal(-9)))
          CFI (cfiCond217) V14 load(1, XDATA, add(CFA_XSP16, literal(-8)))
          CFI (cfiCond217) V15 load(1, XDATA, add(CFA_XSP16, literal(-7)))
          CFI (cfiCond217) R7 load(1, XDATA, add(CFA_XSP16, literal(-6)))
          CFI (cfiCond217) ?RET_LOW load(1, XDATA, add(CFA_XSP16, literal(-5)))
          CFI (cfiCond217) ?RET_HIGH load(1, XDATA, add(CFA_XSP16, literal(-4)))
          CFI (cfiCond217) ?BRET_EXT load(1, XDATA, add(CFA_XSP16, literal(-3)))
          CFI (cfiCond217) DPL0 load(1, XDATA, add(CFA_XSP16, literal(-2)))
          CFI (cfiCond217) DPH0 load(1, XDATA, add(CFA_XSP16, literal(-1)))
          CFI (cfiCond217) CFA_SP SP+0
          CFI (cfiCond217) CFA_XSP16 add(XSP16, 30)
          CFI Block cfiPicker218 Using cfiCommon1
          CFI (cfiPicker218) NoFunction
          CFI (cfiPicker218) Picker
        ADDC    A,?V0 + 5
          CFI EndBlock cfiCond210
          CFI EndBlock cfiCond211
          CFI EndBlock cfiCond212
          CFI EndBlock cfiCond213
          CFI EndBlock cfiCond214
          CFI EndBlock cfiCond215
          CFI EndBlock cfiCond216
          CFI EndBlock cfiCond217
          CFI EndBlock cfiPicker218
        REQUIRE ??Subroutine46_0
        ; // Fall through to label ??Subroutine46_0

        RSEG BANKED_CODE:CODE:NOROOT(0)
??Subroutine46_0:
          CFI Block cfiCond219 Using cfiCommon0
          CFI Function calibrationN
          CFI Conditional ??CrossCallReturnLabel_125, ??CrossCallReturnLabel_17
          CFI R6 load(1, XDATA, add(CFA_XSP16, literal(-24)))
          CFI VB load(1, XDATA, add(CFA_XSP16, literal(-23)))
          CFI V0 load(1, XDATA, add(CFA_XSP16, literal(-22)))
          CFI V1 load(1, XDATA, add(CFA_XSP16, literal(-21)))
          CFI V2 load(1, XDATA, add(CFA_XSP16, literal(-20)))
          CFI V3 load(1, XDATA, add(CFA_XSP16, literal(-19)))
          CFI V4 load(1, XDATA, add(CFA_XSP16, literal(-18)))
          CFI V5 load(1, XDATA, add(CFA_XSP16, literal(-17)))
          CFI V6 load(1, XDATA, add(CFA_XSP16, literal(-16)))
          CFI V7 load(1, XDATA, add(CFA_XSP16, literal(-15)))
          CFI V8 load(1, XDATA, add(CFA_XSP16, literal(-14)))
          CFI V9 load(1, XDATA, add(CFA_XSP16, literal(-13)))
          CFI V10 load(1, XDATA, add(CFA_XSP16, literal(-12)))
          CFI V11 load(1, XDATA, add(CFA_XSP16, literal(-11)))
          CFI V12 load(1, XDATA, add(CFA_XSP16, literal(-10)))
          CFI V13 load(1, XDATA, add(CFA_XSP16, literal(-9)))
          CFI V14 load(1, XDATA, add(CFA_XSP16, literal(-8)))
          CFI V15 load(1, XDATA, add(CFA_XSP16, literal(-7)))
          CFI R7 load(1, XDATA, add(CFA_XSP16, literal(-6)))
          CFI ?RET_LOW load(1, XDATA, add(CFA_XSP16, literal(-5)))
          CFI ?RET_HIGH load(1, XDATA, add(CFA_XSP16, literal(-4)))
          CFI ?BRET_EXT load(1, XDATA, add(CFA_XSP16, literal(-3)))
          CFI DPL0 load(1, XDATA, add(CFA_XSP16, literal(-2)))
          CFI DPH0 load(1, XDATA, add(CFA_XSP16, literal(-1)))
          CFI CFA_SP SP+0
          CFI CFA_XSP16 add(XSP16, 46)
          CFI Block cfiCond220 Using cfiCommon0
          CFI (cfiCond220) Function calibrationA
          CFI (cfiCond220) Conditional ??CrossCallReturnLabel_125, ??CrossCallReturnLabel_18
          CFI (cfiCond220) R6 load(1, XDATA, add(CFA_XSP16, literal(-24)))
          CFI (cfiCond220) VB load(1, XDATA, add(CFA_XSP16, literal(-23)))
          CFI (cfiCond220) V0 load(1, XDATA, add(CFA_XSP16, literal(-22)))
          CFI (cfiCond220) V1 load(1, XDATA, add(CFA_XSP16, literal(-21)))
          CFI (cfiCond220) V2 load(1, XDATA, add(CFA_XSP16, literal(-20)))
          CFI (cfiCond220) V3 load(1, XDATA, add(CFA_XSP16, literal(-19)))
          CFI (cfiCond220) V4 load(1, XDATA, add(CFA_XSP16, literal(-18)))
          CFI (cfiCond220) V5 load(1, XDATA, add(CFA_XSP16, literal(-17)))
          CFI (cfiCond220) V6 load(1, XDATA, add(CFA_XSP16, literal(-16)))
          CFI (cfiCond220) V7 load(1, XDATA, add(CFA_XSP16, literal(-15)))
          CFI (cfiCond220) V8 load(1, XDATA, add(CFA_XSP16, literal(-14)))
          CFI (cfiCond220) V9 load(1, XDATA, add(CFA_XSP16, literal(-13)))
          CFI (cfiCond220) V10 load(1, XDATA, add(CFA_XSP16, literal(-12)))
          CFI (cfiCond220) V11 load(1, XDATA, add(CFA_XSP16, literal(-11)))
          CFI (cfiCond220) V12 load(1, XDATA, add(CFA_XSP16, literal(-10)))
          CFI (cfiCond220) V13 load(1, XDATA, add(CFA_XSP16, literal(-9)))
          CFI (cfiCond220) V14 load(1, XDATA, add(CFA_XSP16, literal(-8)))
          CFI (cfiCond220) V15 load(1, XDATA, add(CFA_XSP16, literal(-7)))
          CFI (cfiCond220) R7 load(1, XDATA, add(CFA_XSP16, literal(-6)))
          CFI (cfiCond220) ?RET_LOW load(1, XDATA, add(CFA_XSP16, literal(-5)))
          CFI (cfiCond220) ?RET_HIGH load(1, XDATA, add(CFA_XSP16, literal(-4)))
          CFI (cfiCond220) ?BRET_EXT load(1, XDATA, add(CFA_XSP16, literal(-3)))
          CFI (cfiCond220) DPL0 load(1, XDATA, add(CFA_XSP16, literal(-2)))
          CFI (cfiCond220) DPH0 load(1, XDATA, add(CFA_XSP16, literal(-1)))
          CFI (cfiCond220) CFA_SP SP+0
          CFI (cfiCond220) CFA_XSP16 add(XSP16, 30)
          CFI Block cfiCond221 Using cfiCommon0
          CFI (cfiCond221) Function calibrationN
          CFI (cfiCond221) Conditional ??CrossCallReturnLabel_127, ??CrossCallReturnLabel_79
          CFI (cfiCond221) R6 load(1, XDATA, add(CFA_XSP16, literal(-24)))
          CFI (cfiCond221) VB load(1, XDATA, add(CFA_XSP16, literal(-23)))
          CFI (cfiCond221) V0 load(1, XDATA, add(CFA_XSP16, literal(-22)))
          CFI (cfiCond221) V1 load(1, XDATA, add(CFA_XSP16, literal(-21)))
          CFI (cfiCond221) V2 load(1, XDATA, add(CFA_XSP16, literal(-20)))
          CFI (cfiCond221) V3 load(1, XDATA, add(CFA_XSP16, literal(-19)))
          CFI (cfiCond221) V4 load(1, XDATA, add(CFA_XSP16, literal(-18)))
          CFI (cfiCond221) V5 load(1, XDATA, add(CFA_XSP16, literal(-17)))
          CFI (cfiCond221) V6 load(1, XDATA, add(CFA_XSP16, literal(-16)))
          CFI (cfiCond221) V7 load(1, XDATA, add(CFA_XSP16, literal(-15)))
          CFI (cfiCond221) V8 load(1, XDATA, add(CFA_XSP16, literal(-14)))
          CFI (cfiCond221) V9 load(1, XDATA, add(CFA_XSP16, literal(-13)))
          CFI (cfiCond221) V10 load(1, XDATA, add(CFA_XSP16, literal(-12)))
          CFI (cfiCond221) V11 load(1, XDATA, add(CFA_XSP16, literal(-11)))
          CFI (cfiCond221) V12 load(1, XDATA, add(CFA_XSP16, literal(-10)))
          CFI (cfiCond221) V13 load(1, XDATA, add(CFA_XSP16, literal(-9)))
          CFI (cfiCond221) V14 load(1, XDATA, add(CFA_XSP16, literal(-8)))
          CFI (cfiCond221) V15 load(1, XDATA, add(CFA_XSP16, literal(-7)))
          CFI (cfiCond221) R7 load(1, XDATA, add(CFA_XSP16, literal(-6)))
          CFI (cfiCond221) ?RET_LOW load(1, XDATA, add(CFA_XSP16, literal(-5)))
          CFI (cfiCond221) ?RET_HIGH load(1, XDATA, add(CFA_XSP16, literal(-4)))
          CFI (cfiCond221) ?BRET_EXT load(1, XDATA, add(CFA_XSP16, literal(-3)))
          CFI (cfiCond221) DPL0 load(1, XDATA, add(CFA_XSP16, literal(-2)))
          CFI (cfiCond221) DPH0 load(1, XDATA, add(CFA_XSP16, literal(-1)))
          CFI (cfiCond221) CFA_SP SP+0
          CFI (cfiCond221) CFA_XSP16 add(XSP16, 46)
          CFI Block cfiCond222 Using cfiCommon0
          CFI (cfiCond222) Function calibrationN
          CFI (cfiCond222) Conditional ??CrossCallReturnLabel_127, ??CrossCallReturnLabel_80
          CFI (cfiCond222) R6 load(1, XDATA, add(CFA_XSP16, literal(-24)))
          CFI (cfiCond222) VB load(1, XDATA, add(CFA_XSP16, literal(-23)))
          CFI (cfiCond222) V0 load(1, XDATA, add(CFA_XSP16, literal(-22)))
          CFI (cfiCond222) V1 load(1, XDATA, add(CFA_XSP16, literal(-21)))
          CFI (cfiCond222) V2 load(1, XDATA, add(CFA_XSP16, literal(-20)))
          CFI (cfiCond222) V3 load(1, XDATA, add(CFA_XSP16, literal(-19)))
          CFI (cfiCond222) V4 load(1, XDATA, add(CFA_XSP16, literal(-18)))
          CFI (cfiCond222) V5 load(1, XDATA, add(CFA_XSP16, literal(-17)))
          CFI (cfiCond222) V6 load(1, XDATA, add(CFA_XSP16, literal(-16)))
          CFI (cfiCond222) V7 load(1, XDATA, add(CFA_XSP16, literal(-15)))
          CFI (cfiCond222) V8 load(1, XDATA, add(CFA_XSP16, literal(-14)))
          CFI (cfiCond222) V9 load(1, XDATA, add(CFA_XSP16, literal(-13)))
          CFI (cfiCond222) V10 load(1, XDATA, add(CFA_XSP16, literal(-12)))
          CFI (cfiCond222) V11 load(1, XDATA, add(CFA_XSP16, literal(-11)))
          CFI (cfiCond222) V12 load(1, XDATA, add(CFA_XSP16, literal(-10)))
          CFI (cfiCond222) V13 load(1, XDATA, add(CFA_XSP16, literal(-9)))
          CFI (cfiCond222) V14 load(1, XDATA, add(CFA_XSP16, literal(-8)))
          CFI (cfiCond222) V15 load(1, XDATA, add(CFA_XSP16, literal(-7)))
          CFI (cfiCond222) R7 load(1, XDATA, add(CFA_XSP16, literal(-6)))
          CFI (cfiCond222) ?RET_LOW load(1, XDATA, add(CFA_XSP16, literal(-5)))
          CFI (cfiCond222) ?RET_HIGH load(1, XDATA, add(CFA_XSP16, literal(-4)))
          CFI (cfiCond222) ?BRET_EXT load(1, XDATA, add(CFA_XSP16, literal(-3)))
          CFI (cfiCond222) DPL0 load(1, XDATA, add(CFA_XSP16, literal(-2)))
          CFI (cfiCond222) DPH0 load(1, XDATA, add(CFA_XSP16, literal(-1)))
          CFI (cfiCond222) CFA_SP SP+0
          CFI (cfiCond222) CFA_XSP16 add(XSP16, 46)
          CFI Block cfiCond223 Using cfiCommon0
          CFI (cfiCond223) Function calibrationN
          CFI (cfiCond223) Conditional ??CrossCallReturnLabel_127, ??CrossCallReturnLabel_81
          CFI (cfiCond223) R6 load(1, XDATA, add(CFA_XSP16, literal(-24)))
          CFI (cfiCond223) VB load(1, XDATA, add(CFA_XSP16, literal(-23)))
          CFI (cfiCond223) V0 load(1, XDATA, add(CFA_XSP16, literal(-22)))
          CFI (cfiCond223) V1 load(1, XDATA, add(CFA_XSP16, literal(-21)))
          CFI (cfiCond223) V2 load(1, XDATA, add(CFA_XSP16, literal(-20)))
          CFI (cfiCond223) V3 load(1, XDATA, add(CFA_XSP16, literal(-19)))
          CFI (cfiCond223) V4 load(1, XDATA, add(CFA_XSP16, literal(-18)))
          CFI (cfiCond223) V5 load(1, XDATA, add(CFA_XSP16, literal(-17)))
          CFI (cfiCond223) V6 load(1, XDATA, add(CFA_XSP16, literal(-16)))
          CFI (cfiCond223) V7 load(1, XDATA, add(CFA_XSP16, literal(-15)))
          CFI (cfiCond223) V8 load(1, XDATA, add(CFA_XSP16, literal(-14)))
          CFI (cfiCond223) V9 load(1, XDATA, add(CFA_XSP16, literal(-13)))
          CFI (cfiCond223) V10 load(1, XDATA, add(CFA_XSP16, literal(-12)))
          CFI (cfiCond223) V11 load(1, XDATA, add(CFA_XSP16, literal(-11)))
          CFI (cfiCond223) V12 load(1, XDATA, add(CFA_XSP16, literal(-10)))
          CFI (cfiCond223) V13 load(1, XDATA, add(CFA_XSP16, literal(-9)))
          CFI (cfiCond223) V14 load(1, XDATA, add(CFA_XSP16, literal(-8)))
          CFI (cfiCond223) V15 load(1, XDATA, add(CFA_XSP16, literal(-7)))
          CFI (cfiCond223) R7 load(1, XDATA, add(CFA_XSP16, literal(-6)))
          CFI (cfiCond223) ?RET_LOW load(1, XDATA, add(CFA_XSP16, literal(-5)))
          CFI (cfiCond223) ?RET_HIGH load(1, XDATA, add(CFA_XSP16, literal(-4)))
          CFI (cfiCond223) ?BRET_EXT load(1, XDATA, add(CFA_XSP16, literal(-3)))
          CFI (cfiCond223) DPL0 load(1, XDATA, add(CFA_XSP16, literal(-2)))
          CFI (cfiCond223) DPH0 load(1, XDATA, add(CFA_XSP16, literal(-1)))
          CFI (cfiCond223) CFA_SP SP+0
          CFI (cfiCond223) CFA_XSP16 add(XSP16, 46)
          CFI Block cfiCond224 Using cfiCommon0
          CFI (cfiCond224) Function calibrationA
          CFI (cfiCond224) Conditional ??CrossCallReturnLabel_127, ??CrossCallReturnLabel_82
          CFI (cfiCond224) R6 load(1, XDATA, add(CFA_XSP16, literal(-24)))
          CFI (cfiCond224) VB load(1, XDATA, add(CFA_XSP16, literal(-23)))
          CFI (cfiCond224) V0 load(1, XDATA, add(CFA_XSP16, literal(-22)))
          CFI (cfiCond224) V1 load(1, XDATA, add(CFA_XSP16, literal(-21)))
          CFI (cfiCond224) V2 load(1, XDATA, add(CFA_XSP16, literal(-20)))
          CFI (cfiCond224) V3 load(1, XDATA, add(CFA_XSP16, literal(-19)))
          CFI (cfiCond224) V4 load(1, XDATA, add(CFA_XSP16, literal(-18)))
          CFI (cfiCond224) V5 load(1, XDATA, add(CFA_XSP16, literal(-17)))
          CFI (cfiCond224) V6 load(1, XDATA, add(CFA_XSP16, literal(-16)))
          CFI (cfiCond224) V7 load(1, XDATA, add(CFA_XSP16, literal(-15)))
          CFI (cfiCond224) V8 load(1, XDATA, add(CFA_XSP16, literal(-14)))
          CFI (cfiCond224) V9 load(1, XDATA, add(CFA_XSP16, literal(-13)))
          CFI (cfiCond224) V10 load(1, XDATA, add(CFA_XSP16, literal(-12)))
          CFI (cfiCond224) V11 load(1, XDATA, add(CFA_XSP16, literal(-11)))
          CFI (cfiCond224) V12 load(1, XDATA, add(CFA_XSP16, literal(-10)))
          CFI (cfiCond224) V13 load(1, XDATA, add(CFA_XSP16, literal(-9)))
          CFI (cfiCond224) V14 load(1, XDATA, add(CFA_XSP16, literal(-8)))
          CFI (cfiCond224) V15 load(1, XDATA, add(CFA_XSP16, literal(-7)))
          CFI (cfiCond224) R7 load(1, XDATA, add(CFA_XSP16, literal(-6)))
          CFI (cfiCond224) ?RET_LOW load(1, XDATA, add(CFA_XSP16, literal(-5)))
          CFI (cfiCond224) ?RET_HIGH load(1, XDATA, add(CFA_XSP16, literal(-4)))
          CFI (cfiCond224) ?BRET_EXT load(1, XDATA, add(CFA_XSP16, literal(-3)))
          CFI (cfiCond224) DPL0 load(1, XDATA, add(CFA_XSP16, literal(-2)))
          CFI (cfiCond224) DPH0 load(1, XDATA, add(CFA_XSP16, literal(-1)))
          CFI (cfiCond224) CFA_SP SP+0
          CFI (cfiCond224) CFA_XSP16 add(XSP16, 30)
          CFI Block cfiCond225 Using cfiCommon0
          CFI (cfiCond225) Function calibrationA
          CFI (cfiCond225) Conditional ??CrossCallReturnLabel_127, ??CrossCallReturnLabel_83
          CFI (cfiCond225) R6 load(1, XDATA, add(CFA_XSP16, literal(-24)))
          CFI (cfiCond225) VB load(1, XDATA, add(CFA_XSP16, literal(-23)))
          CFI (cfiCond225) V0 load(1, XDATA, add(CFA_XSP16, literal(-22)))
          CFI (cfiCond225) V1 load(1, XDATA, add(CFA_XSP16, literal(-21)))
          CFI (cfiCond225) V2 load(1, XDATA, add(CFA_XSP16, literal(-20)))
          CFI (cfiCond225) V3 load(1, XDATA, add(CFA_XSP16, literal(-19)))
          CFI (cfiCond225) V4 load(1, XDATA, add(CFA_XSP16, literal(-18)))
          CFI (cfiCond225) V5 load(1, XDATA, add(CFA_XSP16, literal(-17)))
          CFI (cfiCond225) V6 load(1, XDATA, add(CFA_XSP16, literal(-16)))
          CFI (cfiCond225) V7 load(1, XDATA, add(CFA_XSP16, literal(-15)))
          CFI (cfiCond225) V8 load(1, XDATA, add(CFA_XSP16, literal(-14)))
          CFI (cfiCond225) V9 load(1, XDATA, add(CFA_XSP16, literal(-13)))
          CFI (cfiCond225) V10 load(1, XDATA, add(CFA_XSP16, literal(-12)))
          CFI (cfiCond225) V11 load(1, XDATA, add(CFA_XSP16, literal(-11)))
          CFI (cfiCond225) V12 load(1, XDATA, add(CFA_XSP16, literal(-10)))
          CFI (cfiCond225) V13 load(1, XDATA, add(CFA_XSP16, literal(-9)))
          CFI (cfiCond225) V14 load(1, XDATA, add(CFA_XSP16, literal(-8)))
          CFI (cfiCond225) V15 load(1, XDATA, add(CFA_XSP16, literal(-7)))
          CFI (cfiCond225) R7 load(1, XDATA, add(CFA_XSP16, literal(-6)))
          CFI (cfiCond225) ?RET_LOW load(1, XDATA, add(CFA_XSP16, literal(-5)))
          CFI (cfiCond225) ?RET_HIGH load(1, XDATA, add(CFA_XSP16, literal(-4)))
          CFI (cfiCond225) ?BRET_EXT load(1, XDATA, add(CFA_XSP16, literal(-3)))
          CFI (cfiCond225) DPL0 load(1, XDATA, add(CFA_XSP16, literal(-2)))
          CFI (cfiCond225) DPH0 load(1, XDATA, add(CFA_XSP16, literal(-1)))
          CFI (cfiCond225) CFA_SP SP+0
          CFI (cfiCond225) CFA_XSP16 add(XSP16, 30)
          CFI Block cfiCond226 Using cfiCommon0
          CFI (cfiCond226) Function calibrationA
          CFI (cfiCond226) Conditional ??CrossCallReturnLabel_127, ??CrossCallReturnLabel_84
          CFI (cfiCond226) R6 load(1, XDATA, add(CFA_XSP16, literal(-24)))
          CFI (cfiCond226) VB load(1, XDATA, add(CFA_XSP16, literal(-23)))
          CFI (cfiCond226) V0 load(1, XDATA, add(CFA_XSP16, literal(-22)))
          CFI (cfiCond226) V1 load(1, XDATA, add(CFA_XSP16, literal(-21)))
          CFI (cfiCond226) V2 load(1, XDATA, add(CFA_XSP16, literal(-20)))
          CFI (cfiCond226) V3 load(1, XDATA, add(CFA_XSP16, literal(-19)))
          CFI (cfiCond226) V4 load(1, XDATA, add(CFA_XSP16, literal(-18)))
          CFI (cfiCond226) V5 load(1, XDATA, add(CFA_XSP16, literal(-17)))
          CFI (cfiCond226) V6 load(1, XDATA, add(CFA_XSP16, literal(-16)))
          CFI (cfiCond226) V7 load(1, XDATA, add(CFA_XSP16, literal(-15)))
          CFI (cfiCond226) V8 load(1, XDATA, add(CFA_XSP16, literal(-14)))
          CFI (cfiCond226) V9 load(1, XDATA, add(CFA_XSP16, literal(-13)))
          CFI (cfiCond226) V10 load(1, XDATA, add(CFA_XSP16, literal(-12)))
          CFI (cfiCond226) V11 load(1, XDATA, add(CFA_XSP16, literal(-11)))
          CFI (cfiCond226) V12 load(1, XDATA, add(CFA_XSP16, literal(-10)))
          CFI (cfiCond226) V13 load(1, XDATA, add(CFA_XSP16, literal(-9)))
          CFI (cfiCond226) V14 load(1, XDATA, add(CFA_XSP16, literal(-8)))
          CFI (cfiCond226) V15 load(1, XDATA, add(CFA_XSP16, literal(-7)))
          CFI (cfiCond226) R7 load(1, XDATA, add(CFA_XSP16, literal(-6)))
          CFI (cfiCond226) ?RET_LOW load(1, XDATA, add(CFA_XSP16, literal(-5)))
          CFI (cfiCond226) ?RET_HIGH load(1, XDATA, add(CFA_XSP16, literal(-4)))
          CFI (cfiCond226) ?BRET_EXT load(1, XDATA, add(CFA_XSP16, literal(-3)))
          CFI (cfiCond226) DPL0 load(1, XDATA, add(CFA_XSP16, literal(-2)))
          CFI (cfiCond226) DPH0 load(1, XDATA, add(CFA_XSP16, literal(-1)))
          CFI (cfiCond226) CFA_SP SP+0
          CFI (cfiCond226) CFA_XSP16 add(XSP16, 30)
          CFI Block cfiCond227 Using cfiCommon0
          CFI (cfiCond227) Function calibrationN
          CFI (cfiCond227) Conditional ??CrossCallReturnLabel_126, ??CrossCallReturnLabel_15
          CFI (cfiCond227) R6 load(1, XDATA, add(CFA_XSP16, literal(-24)))
          CFI (cfiCond227) VB load(1, XDATA, add(CFA_XSP16, literal(-23)))
          CFI (cfiCond227) V0 load(1, XDATA, add(CFA_XSP16, literal(-22)))
          CFI (cfiCond227) V1 load(1, XDATA, add(CFA_XSP16, literal(-21)))
          CFI (cfiCond227) V2 load(1, XDATA, add(CFA_XSP16, literal(-20)))
          CFI (cfiCond227) V3 load(1, XDATA, add(CFA_XSP16, literal(-19)))
          CFI (cfiCond227) V4 load(1, XDATA, add(CFA_XSP16, literal(-18)))
          CFI (cfiCond227) V5 load(1, XDATA, add(CFA_XSP16, literal(-17)))
          CFI (cfiCond227) V6 load(1, XDATA, add(CFA_XSP16, literal(-16)))
          CFI (cfiCond227) V7 load(1, XDATA, add(CFA_XSP16, literal(-15)))
          CFI (cfiCond227) V8 load(1, XDATA, add(CFA_XSP16, literal(-14)))
          CFI (cfiCond227) V9 load(1, XDATA, add(CFA_XSP16, literal(-13)))
          CFI (cfiCond227) V10 load(1, XDATA, add(CFA_XSP16, literal(-12)))
          CFI (cfiCond227) V11 load(1, XDATA, add(CFA_XSP16, literal(-11)))
          CFI (cfiCond227) V12 load(1, XDATA, add(CFA_XSP16, literal(-10)))
          CFI (cfiCond227) V13 load(1, XDATA, add(CFA_XSP16, literal(-9)))
          CFI (cfiCond227) V14 load(1, XDATA, add(CFA_XSP16, literal(-8)))
          CFI (cfiCond227) V15 load(1, XDATA, add(CFA_XSP16, literal(-7)))
          CFI (cfiCond227) R7 load(1, XDATA, add(CFA_XSP16, literal(-6)))
          CFI (cfiCond227) ?RET_LOW load(1, XDATA, add(CFA_XSP16, literal(-5)))
          CFI (cfiCond227) ?RET_HIGH load(1, XDATA, add(CFA_XSP16, literal(-4)))
          CFI (cfiCond227) ?BRET_EXT load(1, XDATA, add(CFA_XSP16, literal(-3)))
          CFI (cfiCond227) DPL0 load(1, XDATA, add(CFA_XSP16, literal(-2)))
          CFI (cfiCond227) DPH0 load(1, XDATA, add(CFA_XSP16, literal(-1)))
          CFI (cfiCond227) CFA_SP SP+0
          CFI (cfiCond227) CFA_XSP16 add(XSP16, 46)
          CFI Block cfiCond228 Using cfiCommon0
          CFI (cfiCond228) Function calibrationA
          CFI (cfiCond228) Conditional ??CrossCallReturnLabel_126, ??CrossCallReturnLabel_16
          CFI (cfiCond228) R6 load(1, XDATA, add(CFA_XSP16, literal(-24)))
          CFI (cfiCond228) VB load(1, XDATA, add(CFA_XSP16, literal(-23)))
          CFI (cfiCond228) V0 load(1, XDATA, add(CFA_XSP16, literal(-22)))
          CFI (cfiCond228) V1 load(1, XDATA, add(CFA_XSP16, literal(-21)))
          CFI (cfiCond228) V2 load(1, XDATA, add(CFA_XSP16, literal(-20)))
          CFI (cfiCond228) V3 load(1, XDATA, add(CFA_XSP16, literal(-19)))
          CFI (cfiCond228) V4 load(1, XDATA, add(CFA_XSP16, literal(-18)))
          CFI (cfiCond228) V5 load(1, XDATA, add(CFA_XSP16, literal(-17)))
          CFI (cfiCond228) V6 load(1, XDATA, add(CFA_XSP16, literal(-16)))
          CFI (cfiCond228) V7 load(1, XDATA, add(CFA_XSP16, literal(-15)))
          CFI (cfiCond228) V8 load(1, XDATA, add(CFA_XSP16, literal(-14)))
          CFI (cfiCond228) V9 load(1, XDATA, add(CFA_XSP16, literal(-13)))
          CFI (cfiCond228) V10 load(1, XDATA, add(CFA_XSP16, literal(-12)))
          CFI (cfiCond228) V11 load(1, XDATA, add(CFA_XSP16, literal(-11)))
          CFI (cfiCond228) V12 load(1, XDATA, add(CFA_XSP16, literal(-10)))
          CFI (cfiCond228) V13 load(1, XDATA, add(CFA_XSP16, literal(-9)))
          CFI (cfiCond228) V14 load(1, XDATA, add(CFA_XSP16, literal(-8)))
          CFI (cfiCond228) V15 load(1, XDATA, add(CFA_XSP16, literal(-7)))
          CFI (cfiCond228) R7 load(1, XDATA, add(CFA_XSP16, literal(-6)))
          CFI (cfiCond228) ?RET_LOW load(1, XDATA, add(CFA_XSP16, literal(-5)))
          CFI (cfiCond228) ?RET_HIGH load(1, XDATA, add(CFA_XSP16, literal(-4)))
          CFI (cfiCond228) ?BRET_EXT load(1, XDATA, add(CFA_XSP16, literal(-3)))
          CFI (cfiCond228) DPL0 load(1, XDATA, add(CFA_XSP16, literal(-2)))
          CFI (cfiCond228) DPH0 load(1, XDATA, add(CFA_XSP16, literal(-1)))
          CFI (cfiCond228) CFA_SP SP+0
          CFI (cfiCond228) CFA_XSP16 add(XSP16, 30)
          CFI Block cfiPicker229 Using cfiCommon1
          CFI (cfiPicker229) NoFunction
          CFI (cfiPicker229) Picker
        LCALL   ?Subroutine43 & 0xFFFF
??CrossCallReturnLabel_129:
        MOV     R0,#?V0 + 4
        RET
          CFI EndBlock cfiCond219
          CFI EndBlock cfiCond220
          CFI EndBlock cfiCond221
          CFI EndBlock cfiCond222
          CFI EndBlock cfiCond223
          CFI EndBlock cfiCond224
          CFI EndBlock cfiCond225
          CFI EndBlock cfiCond226
          CFI EndBlock cfiCond227
          CFI EndBlock cfiCond228
          CFI EndBlock cfiPicker229

        RSEG BANKED_CODE:CODE:NOROOT(0)
?Subroutine6:
          CFI Block cfiCond230 Using cfiCommon0
          CFI Function calibrationN
          CFI Conditional ??CrossCallReturnLabel_132
          CFI R6 load(1, XDATA, add(CFA_XSP16, literal(-24)))
          CFI VB load(1, XDATA, add(CFA_XSP16, literal(-23)))
          CFI V0 load(1, XDATA, add(CFA_XSP16, literal(-22)))
          CFI V1 load(1, XDATA, add(CFA_XSP16, literal(-21)))
          CFI V2 load(1, XDATA, add(CFA_XSP16, literal(-20)))
          CFI V3 load(1, XDATA, add(CFA_XSP16, literal(-19)))
          CFI V4 load(1, XDATA, add(CFA_XSP16, literal(-18)))
          CFI V5 load(1, XDATA, add(CFA_XSP16, literal(-17)))
          CFI V6 load(1, XDATA, add(CFA_XSP16, literal(-16)))
          CFI V7 load(1, XDATA, add(CFA_XSP16, literal(-15)))
          CFI V8 load(1, XDATA, add(CFA_XSP16, literal(-14)))
          CFI V9 load(1, XDATA, add(CFA_XSP16, literal(-13)))
          CFI V10 load(1, XDATA, add(CFA_XSP16, literal(-12)))
          CFI V11 load(1, XDATA, add(CFA_XSP16, literal(-11)))
          CFI V12 load(1, XDATA, add(CFA_XSP16, literal(-10)))
          CFI V13 load(1, XDATA, add(CFA_XSP16, literal(-9)))
          CFI V14 load(1, XDATA, add(CFA_XSP16, literal(-8)))
          CFI V15 load(1, XDATA, add(CFA_XSP16, literal(-7)))
          CFI R7 load(1, XDATA, add(CFA_XSP16, literal(-6)))
          CFI ?RET_LOW load(1, XDATA, add(CFA_XSP16, literal(-5)))
          CFI ?RET_HIGH load(1, XDATA, add(CFA_XSP16, literal(-4)))
          CFI ?BRET_EXT load(1, XDATA, add(CFA_XSP16, literal(-3)))
          CFI DPL0 load(1, XDATA, add(CFA_XSP16, literal(-2)))
          CFI DPH0 load(1, XDATA, add(CFA_XSP16, literal(-1)))
          CFI CFA_SP SP+0
          CFI CFA_XSP16 add(XSP16, 46)
          CFI Block cfiCond231 Using cfiCommon0
          CFI (cfiCond231) Function calibrationA
          CFI (cfiCond231) Conditional ??CrossCallReturnLabel_133
          CFI (cfiCond231) R6 load(1, XDATA, add(CFA_XSP16, literal(-24)))
          CFI (cfiCond231) VB load(1, XDATA, add(CFA_XSP16, literal(-23)))
          CFI (cfiCond231) V0 load(1, XDATA, add(CFA_XSP16, literal(-22)))
          CFI (cfiCond231) V1 load(1, XDATA, add(CFA_XSP16, literal(-21)))
          CFI (cfiCond231) V2 load(1, XDATA, add(CFA_XSP16, literal(-20)))
          CFI (cfiCond231) V3 load(1, XDATA, add(CFA_XSP16, literal(-19)))
          CFI (cfiCond231) V4 load(1, XDATA, add(CFA_XSP16, literal(-18)))
          CFI (cfiCond231) V5 load(1, XDATA, add(CFA_XSP16, literal(-17)))
          CFI (cfiCond231) V6 load(1, XDATA, add(CFA_XSP16, literal(-16)))
          CFI (cfiCond231) V7 load(1, XDATA, add(CFA_XSP16, literal(-15)))
          CFI (cfiCond231) V8 load(1, XDATA, add(CFA_XSP16, literal(-14)))
          CFI (cfiCond231) V9 load(1, XDATA, add(CFA_XSP16, literal(-13)))
          CFI (cfiCond231) V10 load(1, XDATA, add(CFA_XSP16, literal(-12)))
          CFI (cfiCond231) V11 load(1, XDATA, add(CFA_XSP16, literal(-11)))
          CFI (cfiCond231) V12 load(1, XDATA, add(CFA_XSP16, literal(-10)))
          CFI (cfiCond231) V13 load(1, XDATA, add(CFA_XSP16, literal(-9)))
          CFI (cfiCond231) V14 load(1, XDATA, add(CFA_XSP16, literal(-8)))
          CFI (cfiCond231) V15 load(1, XDATA, add(CFA_XSP16, literal(-7)))
          CFI (cfiCond231) R7 load(1, XDATA, add(CFA_XSP16, literal(-6)))
          CFI (cfiCond231) ?RET_LOW load(1, XDATA, add(CFA_XSP16, literal(-5)))
          CFI (cfiCond231) ?RET_HIGH load(1, XDATA, add(CFA_XSP16, literal(-4)))
          CFI (cfiCond231) ?BRET_EXT load(1, XDATA, add(CFA_XSP16, literal(-3)))
          CFI (cfiCond231) DPL0 load(1, XDATA, add(CFA_XSP16, literal(-2)))
          CFI (cfiCond231) DPH0 load(1, XDATA, add(CFA_XSP16, literal(-1)))
          CFI (cfiCond231) CFA_SP SP+0
          CFI (cfiCond231) CFA_XSP16 add(XSP16, 30)
          CFI Block cfiPicker232 Using cfiCommon1
          CFI (cfiPicker232) NoFunction
          CFI (cfiPicker232) Picker
        LCALL   ?Subroutine37 & 0xFFFF
          CFI EndBlock cfiCond230
          CFI EndBlock cfiCond231
          CFI EndBlock cfiPicker232
??CrossCallReturnLabel_103:
        REQUIRE ??Subroutine47_0
        ; // Fall through to label ??Subroutine47_0

        RSEG BANKED_CODE:CODE:NOROOT(0)
??Subroutine47_0:
          CFI Block cfiCond233 Using cfiCommon0
          CFI Function calibrationN
          CFI Conditional ??CrossCallReturnLabel_130
          CFI R6 load(1, XDATA, add(CFA_XSP16, literal(-24)))
          CFI VB load(1, XDATA, add(CFA_XSP16, literal(-23)))
          CFI V0 load(1, XDATA, add(CFA_XSP16, literal(-22)))
          CFI V1 load(1, XDATA, add(CFA_XSP16, literal(-21)))
          CFI V2 load(1, XDATA, add(CFA_XSP16, literal(-20)))
          CFI V3 load(1, XDATA, add(CFA_XSP16, literal(-19)))
          CFI V4 load(1, XDATA, add(CFA_XSP16, literal(-18)))
          CFI V5 load(1, XDATA, add(CFA_XSP16, literal(-17)))
          CFI V6 load(1, XDATA, add(CFA_XSP16, literal(-16)))
          CFI V7 load(1, XDATA, add(CFA_XSP16, literal(-15)))
          CFI V8 load(1, XDATA, add(CFA_XSP16, literal(-14)))
          CFI V9 load(1, XDATA, add(CFA_XSP16, literal(-13)))
          CFI V10 load(1, XDATA, add(CFA_XSP16, literal(-12)))
          CFI V11 load(1, XDATA, add(CFA_XSP16, literal(-11)))
          CFI V12 load(1, XDATA, add(CFA_XSP16, literal(-10)))
          CFI V13 load(1, XDATA, add(CFA_XSP16, literal(-9)))
          CFI V14 load(1, XDATA, add(CFA_XSP16, literal(-8)))
          CFI V15 load(1, XDATA, add(CFA_XSP16, literal(-7)))
          CFI R7 load(1, XDATA, add(CFA_XSP16, literal(-6)))
          CFI ?RET_LOW load(1, XDATA, add(CFA_XSP16, literal(-5)))
          CFI ?RET_HIGH load(1, XDATA, add(CFA_XSP16, literal(-4)))
          CFI ?BRET_EXT load(1, XDATA, add(CFA_XSP16, literal(-3)))
          CFI DPL0 load(1, XDATA, add(CFA_XSP16, literal(-2)))
          CFI DPH0 load(1, XDATA, add(CFA_XSP16, literal(-1)))
          CFI CFA_SP SP+0
          CFI CFA_XSP16 add(XSP16, 46)
          CFI Block cfiCond234 Using cfiCommon0
          CFI (cfiCond234) Function calibrationA
          CFI (cfiCond234) Conditional ??CrossCallReturnLabel_131
          CFI (cfiCond234) R6 load(1, XDATA, add(CFA_XSP16, literal(-24)))
          CFI (cfiCond234) VB load(1, XDATA, add(CFA_XSP16, literal(-23)))
          CFI (cfiCond234) V0 load(1, XDATA, add(CFA_XSP16, literal(-22)))
          CFI (cfiCond234) V1 load(1, XDATA, add(CFA_XSP16, literal(-21)))
          CFI (cfiCond234) V2 load(1, XDATA, add(CFA_XSP16, literal(-20)))
          CFI (cfiCond234) V3 load(1, XDATA, add(CFA_XSP16, literal(-19)))
          CFI (cfiCond234) V4 load(1, XDATA, add(CFA_XSP16, literal(-18)))
          CFI (cfiCond234) V5 load(1, XDATA, add(CFA_XSP16, literal(-17)))
          CFI (cfiCond234) V6 load(1, XDATA, add(CFA_XSP16, literal(-16)))
          CFI (cfiCond234) V7 load(1, XDATA, add(CFA_XSP16, literal(-15)))
          CFI (cfiCond234) V8 load(1, XDATA, add(CFA_XSP16, literal(-14)))
          CFI (cfiCond234) V9 load(1, XDATA, add(CFA_XSP16, literal(-13)))
          CFI (cfiCond234) V10 load(1, XDATA, add(CFA_XSP16, literal(-12)))
          CFI (cfiCond234) V11 load(1, XDATA, add(CFA_XSP16, literal(-11)))
          CFI (cfiCond234) V12 load(1, XDATA, add(CFA_XSP16, literal(-10)))
          CFI (cfiCond234) V13 load(1, XDATA, add(CFA_XSP16, literal(-9)))
          CFI (cfiCond234) V14 load(1, XDATA, add(CFA_XSP16, literal(-8)))
          CFI (cfiCond234) V15 load(1, XDATA, add(CFA_XSP16, literal(-7)))
          CFI (cfiCond234) R7 load(1, XDATA, add(CFA_XSP16, literal(-6)))
          CFI (cfiCond234) ?RET_LOW load(1, XDATA, add(CFA_XSP16, literal(-5)))
          CFI (cfiCond234) ?RET_HIGH load(1, XDATA, add(CFA_XSP16, literal(-4)))
          CFI (cfiCond234) ?BRET_EXT load(1, XDATA, add(CFA_XSP16, literal(-3)))
          CFI (cfiCond234) DPL0 load(1, XDATA, add(CFA_XSP16, literal(-2)))
          CFI (cfiCond234) DPH0 load(1, XDATA, add(CFA_XSP16, literal(-1)))
          CFI (cfiCond234) CFA_SP SP+0
          CFI (cfiCond234) CFA_XSP16 add(XSP16, 30)
          CFI Block cfiCond235 Using cfiCommon0
          CFI (cfiCond235) Function calibrationN
          CFI (cfiCond235) Conditional ??CrossCallReturnLabel_132
          CFI (cfiCond235) R6 load(1, XDATA, add(CFA_XSP16, literal(-24)))
          CFI (cfiCond235) VB load(1, XDATA, add(CFA_XSP16, literal(-23)))
          CFI (cfiCond235) V0 load(1, XDATA, add(CFA_XSP16, literal(-22)))
          CFI (cfiCond235) V1 load(1, XDATA, add(CFA_XSP16, literal(-21)))
          CFI (cfiCond235) V2 load(1, XDATA, add(CFA_XSP16, literal(-20)))
          CFI (cfiCond235) V3 load(1, XDATA, add(CFA_XSP16, literal(-19)))
          CFI (cfiCond235) V4 load(1, XDATA, add(CFA_XSP16, literal(-18)))
          CFI (cfiCond235) V5 load(1, XDATA, add(CFA_XSP16, literal(-17)))
          CFI (cfiCond235) V6 load(1, XDATA, add(CFA_XSP16, literal(-16)))
          CFI (cfiCond235) V7 load(1, XDATA, add(CFA_XSP16, literal(-15)))
          CFI (cfiCond235) V8 load(1, XDATA, add(CFA_XSP16, literal(-14)))
          CFI (cfiCond235) V9 load(1, XDATA, add(CFA_XSP16, literal(-13)))
          CFI (cfiCond235) V10 load(1, XDATA, add(CFA_XSP16, literal(-12)))
          CFI (cfiCond235) V11 load(1, XDATA, add(CFA_XSP16, literal(-11)))
          CFI (cfiCond235) V12 load(1, XDATA, add(CFA_XSP16, literal(-10)))
          CFI (cfiCond235) V13 load(1, XDATA, add(CFA_XSP16, literal(-9)))
          CFI (cfiCond235) V14 load(1, XDATA, add(CFA_XSP16, literal(-8)))
          CFI (cfiCond235) V15 load(1, XDATA, add(CFA_XSP16, literal(-7)))
          CFI (cfiCond235) R7 load(1, XDATA, add(CFA_XSP16, literal(-6)))
          CFI (cfiCond235) ?RET_LOW load(1, XDATA, add(CFA_XSP16, literal(-5)))
          CFI (cfiCond235) ?RET_HIGH load(1, XDATA, add(CFA_XSP16, literal(-4)))
          CFI (cfiCond235) ?BRET_EXT load(1, XDATA, add(CFA_XSP16, literal(-3)))
          CFI (cfiCond235) DPL0 load(1, XDATA, add(CFA_XSP16, literal(-2)))
          CFI (cfiCond235) DPH0 load(1, XDATA, add(CFA_XSP16, literal(-1)))
          CFI (cfiCond235) CFA_SP SP+0
          CFI (cfiCond235) CFA_XSP16 add(XSP16, 46)
          CFI Block cfiCond236 Using cfiCommon0
          CFI (cfiCond236) Function calibrationA
          CFI (cfiCond236) Conditional ??CrossCallReturnLabel_133
          CFI (cfiCond236) R6 load(1, XDATA, add(CFA_XSP16, literal(-24)))
          CFI (cfiCond236) VB load(1, XDATA, add(CFA_XSP16, literal(-23)))
          CFI (cfiCond236) V0 load(1, XDATA, add(CFA_XSP16, literal(-22)))
          CFI (cfiCond236) V1 load(1, XDATA, add(CFA_XSP16, literal(-21)))
          CFI (cfiCond236) V2 load(1, XDATA, add(CFA_XSP16, literal(-20)))
          CFI (cfiCond236) V3 load(1, XDATA, add(CFA_XSP16, literal(-19)))
          CFI (cfiCond236) V4 load(1, XDATA, add(CFA_XSP16, literal(-18)))
          CFI (cfiCond236) V5 load(1, XDATA, add(CFA_XSP16, literal(-17)))
          CFI (cfiCond236) V6 load(1, XDATA, add(CFA_XSP16, literal(-16)))
          CFI (cfiCond236) V7 load(1, XDATA, add(CFA_XSP16, literal(-15)))
          CFI (cfiCond236) V8 load(1, XDATA, add(CFA_XSP16, literal(-14)))
          CFI (cfiCond236) V9 load(1, XDATA, add(CFA_XSP16, literal(-13)))
          CFI (cfiCond236) V10 load(1, XDATA, add(CFA_XSP16, literal(-12)))
          CFI (cfiCond236) V11 load(1, XDATA, add(CFA_XSP16, literal(-11)))
          CFI (cfiCond236) V12 load(1, XDATA, add(CFA_XSP16, literal(-10)))
          CFI (cfiCond236) V13 load(1, XDATA, add(CFA_XSP16, literal(-9)))
          CFI (cfiCond236) V14 load(1, XDATA, add(CFA_XSP16, literal(-8)))
          CFI (cfiCond236) V15 load(1, XDATA, add(CFA_XSP16, literal(-7)))
          CFI (cfiCond236) R7 load(1, XDATA, add(CFA_XSP16, literal(-6)))
          CFI (cfiCond236) ?RET_LOW load(1, XDATA, add(CFA_XSP16, literal(-5)))
          CFI (cfiCond236) ?RET_HIGH load(1, XDATA, add(CFA_XSP16, literal(-4)))
          CFI (cfiCond236) ?BRET_EXT load(1, XDATA, add(CFA_XSP16, literal(-3)))
          CFI (cfiCond236) DPL0 load(1, XDATA, add(CFA_XSP16, literal(-2)))
          CFI (cfiCond236) DPH0 load(1, XDATA, add(CFA_XSP16, literal(-1)))
          CFI (cfiCond236) CFA_SP SP+0
          CFI (cfiCond236) CFA_XSP16 add(XSP16, 30)
          CFI Block cfiPicker237 Using cfiCommon1
          CFI (cfiPicker237) NoFunction
          CFI (cfiPicker237) Picker
        MOV     DPL,?XSP + 0
        MOV     DPH,?XSP + 1
        MOVX    A,@DPTR
        MOV     ?V0 + 0,A
        INC     DPTR
        MOVX    A,@DPTR
        MOV     ?V0 + 1,A
        MOV     A,#0x2
        MOV     R0,#?V0 + 0
        RET
          CFI EndBlock cfiCond233
          CFI EndBlock cfiCond234
          CFI EndBlock cfiCond235
          CFI EndBlock cfiCond236
          CFI EndBlock cfiPicker237

        RSEG BANKED_CODE:CODE:NOROOT(0)
?Subroutine4:
          CFI Block cfiCond238 Using cfiCommon0
          CFI Function calibrationN
          CFI Conditional ??CrossCallReturnLabel_5
          CFI R6 load(1, XDATA, add(CFA_XSP16, literal(-24)))
          CFI VB load(1, XDATA, add(CFA_XSP16, literal(-23)))
          CFI V0 load(1, XDATA, add(CFA_XSP16, literal(-22)))
          CFI V1 load(1, XDATA, add(CFA_XSP16, literal(-21)))
          CFI V2 load(1, XDATA, add(CFA_XSP16, literal(-20)))
          CFI V3 load(1, XDATA, add(CFA_XSP16, literal(-19)))
          CFI V4 load(1, XDATA, add(CFA_XSP16, literal(-18)))
          CFI V5 load(1, XDATA, add(CFA_XSP16, literal(-17)))
          CFI V6 load(1, XDATA, add(CFA_XSP16, literal(-16)))
          CFI V7 load(1, XDATA, add(CFA_XSP16, literal(-15)))
          CFI V8 load(1, XDATA, add(CFA_XSP16, literal(-14)))
          CFI V9 load(1, XDATA, add(CFA_XSP16, literal(-13)))
          CFI V10 load(1, XDATA, add(CFA_XSP16, literal(-12)))
          CFI V11 load(1, XDATA, add(CFA_XSP16, literal(-11)))
          CFI V12 load(1, XDATA, add(CFA_XSP16, literal(-10)))
          CFI V13 load(1, XDATA, add(CFA_XSP16, literal(-9)))
          CFI V14 load(1, XDATA, add(CFA_XSP16, literal(-8)))
          CFI V15 load(1, XDATA, add(CFA_XSP16, literal(-7)))
          CFI R7 load(1, XDATA, add(CFA_XSP16, literal(-6)))
          CFI ?RET_LOW load(1, XDATA, add(CFA_XSP16, literal(-5)))
          CFI ?RET_HIGH load(1, XDATA, add(CFA_XSP16, literal(-4)))
          CFI ?BRET_EXT load(1, XDATA, add(CFA_XSP16, literal(-3)))
          CFI DPL0 load(1, XDATA, add(CFA_XSP16, literal(-2)))
          CFI DPH0 load(1, XDATA, add(CFA_XSP16, literal(-1)))
          CFI CFA_SP SP+0
          CFI CFA_XSP16 add(XSP16, 46)
          CFI Block cfiCond239 Using cfiCommon0
          CFI (cfiCond239) Function calibrationN
          CFI (cfiCond239) Conditional ??CrossCallReturnLabel_6
          CFI (cfiCond239) R6 load(1, XDATA, add(CFA_XSP16, literal(-24)))
          CFI (cfiCond239) VB load(1, XDATA, add(CFA_XSP16, literal(-23)))
          CFI (cfiCond239) V0 load(1, XDATA, add(CFA_XSP16, literal(-22)))
          CFI (cfiCond239) V1 load(1, XDATA, add(CFA_XSP16, literal(-21)))
          CFI (cfiCond239) V2 load(1, XDATA, add(CFA_XSP16, literal(-20)))
          CFI (cfiCond239) V3 load(1, XDATA, add(CFA_XSP16, literal(-19)))
          CFI (cfiCond239) V4 load(1, XDATA, add(CFA_XSP16, literal(-18)))
          CFI (cfiCond239) V5 load(1, XDATA, add(CFA_XSP16, literal(-17)))
          CFI (cfiCond239) V6 load(1, XDATA, add(CFA_XSP16, literal(-16)))
          CFI (cfiCond239) V7 load(1, XDATA, add(CFA_XSP16, literal(-15)))
          CFI (cfiCond239) V8 load(1, XDATA, add(CFA_XSP16, literal(-14)))
          CFI (cfiCond239) V9 load(1, XDATA, add(CFA_XSP16, literal(-13)))
          CFI (cfiCond239) V10 load(1, XDATA, add(CFA_XSP16, literal(-12)))
          CFI (cfiCond239) V11 load(1, XDATA, add(CFA_XSP16, literal(-11)))
          CFI (cfiCond239) V12 load(1, XDATA, add(CFA_XSP16, literal(-10)))
          CFI (cfiCond239) V13 load(1, XDATA, add(CFA_XSP16, literal(-9)))
          CFI (cfiCond239) V14 load(1, XDATA, add(CFA_XSP16, literal(-8)))
          CFI (cfiCond239) V15 load(1, XDATA, add(CFA_XSP16, literal(-7)))
          CFI (cfiCond239) R7 load(1, XDATA, add(CFA_XSP16, literal(-6)))
          CFI (cfiCond239) ?RET_LOW load(1, XDATA, add(CFA_XSP16, literal(-5)))
          CFI (cfiCond239) ?RET_HIGH load(1, XDATA, add(CFA_XSP16, literal(-4)))
          CFI (cfiCond239) ?BRET_EXT load(1, XDATA, add(CFA_XSP16, literal(-3)))
          CFI (cfiCond239) DPL0 load(1, XDATA, add(CFA_XSP16, literal(-2)))
          CFI (cfiCond239) DPH0 load(1, XDATA, add(CFA_XSP16, literal(-1)))
          CFI (cfiCond239) CFA_SP SP+0
          CFI (cfiCond239) CFA_XSP16 add(XSP16, 46)
          CFI Block cfiCond240 Using cfiCommon0
          CFI (cfiCond240) Function calibrationA
          CFI (cfiCond240) Conditional ??CrossCallReturnLabel_7
          CFI (cfiCond240) R6 load(1, XDATA, add(CFA_XSP16, literal(-24)))
          CFI (cfiCond240) VB load(1, XDATA, add(CFA_XSP16, literal(-23)))
          CFI (cfiCond240) V0 load(1, XDATA, add(CFA_XSP16, literal(-22)))
          CFI (cfiCond240) V1 load(1, XDATA, add(CFA_XSP16, literal(-21)))
          CFI (cfiCond240) V2 load(1, XDATA, add(CFA_XSP16, literal(-20)))
          CFI (cfiCond240) V3 load(1, XDATA, add(CFA_XSP16, literal(-19)))
          CFI (cfiCond240) V4 load(1, XDATA, add(CFA_XSP16, literal(-18)))
          CFI (cfiCond240) V5 load(1, XDATA, add(CFA_XSP16, literal(-17)))
          CFI (cfiCond240) V6 load(1, XDATA, add(CFA_XSP16, literal(-16)))
          CFI (cfiCond240) V7 load(1, XDATA, add(CFA_XSP16, literal(-15)))
          CFI (cfiCond240) V8 load(1, XDATA, add(CFA_XSP16, literal(-14)))
          CFI (cfiCond240) V9 load(1, XDATA, add(CFA_XSP16, literal(-13)))
          CFI (cfiCond240) V10 load(1, XDATA, add(CFA_XSP16, literal(-12)))
          CFI (cfiCond240) V11 load(1, XDATA, add(CFA_XSP16, literal(-11)))
          CFI (cfiCond240) V12 load(1, XDATA, add(CFA_XSP16, literal(-10)))
          CFI (cfiCond240) V13 load(1, XDATA, add(CFA_XSP16, literal(-9)))
          CFI (cfiCond240) V14 load(1, XDATA, add(CFA_XSP16, literal(-8)))
          CFI (cfiCond240) V15 load(1, XDATA, add(CFA_XSP16, literal(-7)))
          CFI (cfiCond240) R7 load(1, XDATA, add(CFA_XSP16, literal(-6)))
          CFI (cfiCond240) ?RET_LOW load(1, XDATA, add(CFA_XSP16, literal(-5)))
          CFI (cfiCond240) ?RET_HIGH load(1, XDATA, add(CFA_XSP16, literal(-4)))
          CFI (cfiCond240) ?BRET_EXT load(1, XDATA, add(CFA_XSP16, literal(-3)))
          CFI (cfiCond240) DPL0 load(1, XDATA, add(CFA_XSP16, literal(-2)))
          CFI (cfiCond240) DPH0 load(1, XDATA, add(CFA_XSP16, literal(-1)))
          CFI (cfiCond240) CFA_SP SP+0
          CFI (cfiCond240) CFA_XSP16 add(XSP16, 30)
          CFI Block cfiCond241 Using cfiCommon0
          CFI (cfiCond241) Function calibrationA
          CFI (cfiCond241) Conditional ??CrossCallReturnLabel_8
          CFI (cfiCond241) R6 load(1, XDATA, add(CFA_XSP16, literal(-24)))
          CFI (cfiCond241) VB load(1, XDATA, add(CFA_XSP16, literal(-23)))
          CFI (cfiCond241) V0 load(1, XDATA, add(CFA_XSP16, literal(-22)))
          CFI (cfiCond241) V1 load(1, XDATA, add(CFA_XSP16, literal(-21)))
          CFI (cfiCond241) V2 load(1, XDATA, add(CFA_XSP16, literal(-20)))
          CFI (cfiCond241) V3 load(1, XDATA, add(CFA_XSP16, literal(-19)))
          CFI (cfiCond241) V4 load(1, XDATA, add(CFA_XSP16, literal(-18)))
          CFI (cfiCond241) V5 load(1, XDATA, add(CFA_XSP16, literal(-17)))
          CFI (cfiCond241) V6 load(1, XDATA, add(CFA_XSP16, literal(-16)))
          CFI (cfiCond241) V7 load(1, XDATA, add(CFA_XSP16, literal(-15)))
          CFI (cfiCond241) V8 load(1, XDATA, add(CFA_XSP16, literal(-14)))
          CFI (cfiCond241) V9 load(1, XDATA, add(CFA_XSP16, literal(-13)))
          CFI (cfiCond241) V10 load(1, XDATA, add(CFA_XSP16, literal(-12)))
          CFI (cfiCond241) V11 load(1, XDATA, add(CFA_XSP16, literal(-11)))
          CFI (cfiCond241) V12 load(1, XDATA, add(CFA_XSP16, literal(-10)))
          CFI (cfiCond241) V13 load(1, XDATA, add(CFA_XSP16, literal(-9)))
          CFI (cfiCond241) V14 load(1, XDATA, add(CFA_XSP16, literal(-8)))
          CFI (cfiCond241) V15 load(1, XDATA, add(CFA_XSP16, literal(-7)))
          CFI (cfiCond241) R7 load(1, XDATA, add(CFA_XSP16, literal(-6)))
          CFI (cfiCond241) ?RET_LOW load(1, XDATA, add(CFA_XSP16, literal(-5)))
          CFI (cfiCond241) ?RET_HIGH load(1, XDATA, add(CFA_XSP16, literal(-4)))
          CFI (cfiCond241) ?BRET_EXT load(1, XDATA, add(CFA_XSP16, literal(-3)))
          CFI (cfiCond241) DPL0 load(1, XDATA, add(CFA_XSP16, literal(-2)))
          CFI (cfiCond241) DPH0 load(1, XDATA, add(CFA_XSP16, literal(-1)))
          CFI (cfiCond241) CFA_SP SP+0
          CFI (cfiCond241) CFA_XSP16 add(XSP16, 30)
          CFI Block cfiPicker242 Using cfiCommon1
          CFI (cfiPicker242) NoFunction
          CFI (cfiPicker242) Picker
        LCALL   ?Subroutine37 & 0xFFFF
??CrossCallReturnLabel_102:
        MOV     DPL,?XSP + 0
        MOV     DPH,?XSP + 1
        LCALL   ?Subroutine39 & 0xFFFF
??CrossCallReturnLabel_109:
        RET
          CFI EndBlock cfiCond238
          CFI EndBlock cfiCond239
          CFI EndBlock cfiCond240
          CFI EndBlock cfiCond241
          CFI EndBlock cfiPicker242

        RSEG BANKED_CODE:CODE:NOROOT(0)
?Subroutine39:
          CFI Block cfiCond243 Using cfiCommon0
          CFI Function moving_average_f
          CFI Conditional ??CrossCallReturnLabel_108
          CFI R6 load(1, XDATA, add(CFA_XSP16, literal(-20)))
          CFI VB load(1, XDATA, add(CFA_XSP16, literal(-19)))
          CFI V0 load(1, XDATA, add(CFA_XSP16, literal(-18)))
          CFI V1 load(1, XDATA, add(CFA_XSP16, literal(-17)))
          CFI V2 load(1, XDATA, add(CFA_XSP16, literal(-16)))
          CFI V3 load(1, XDATA, add(CFA_XSP16, literal(-15)))
          CFI V4 load(1, XDATA, add(CFA_XSP16, literal(-14)))
          CFI V5 load(1, XDATA, add(CFA_XSP16, literal(-13)))
          CFI V6 load(1, XDATA, add(CFA_XSP16, literal(-12)))
          CFI V7 load(1, XDATA, add(CFA_XSP16, literal(-11)))
          CFI V8 load(1, XDATA, add(CFA_XSP16, literal(-10)))
          CFI V9 load(1, XDATA, add(CFA_XSP16, literal(-9)))
          CFI V10 load(1, XDATA, add(CFA_XSP16, literal(-8)))
          CFI V11 load(1, XDATA, add(CFA_XSP16, literal(-7)))
          CFI R7 load(1, XDATA, add(CFA_XSP16, literal(-6)))
          CFI ?RET_LOW load(1, XDATA, add(CFA_XSP16, literal(-5)))
          CFI ?RET_HIGH load(1, XDATA, add(CFA_XSP16, literal(-4)))
          CFI ?BRET_EXT load(1, XDATA, add(CFA_XSP16, literal(-3)))
          CFI DPL0 load(1, XDATA, add(CFA_XSP16, literal(-2)))
          CFI DPH0 load(1, XDATA, add(CFA_XSP16, literal(-1)))
          CFI CFA_SP SP+0
          CFI CFA_XSP16 add(XSP16, 20)
          CFI Block cfiCond244 Using cfiCommon0
          CFI (cfiCond244) Function calibrationN
          CFI (cfiCond244) Conditional ??CrossCallReturnLabel_109, ??CrossCallReturnLabel_5
          CFI (cfiCond244) R6 load(1, XDATA, add(CFA_XSP16, literal(-24)))
          CFI (cfiCond244) VB load(1, XDATA, add(CFA_XSP16, literal(-23)))
          CFI (cfiCond244) V0 load(1, XDATA, add(CFA_XSP16, literal(-22)))
          CFI (cfiCond244) V1 load(1, XDATA, add(CFA_XSP16, literal(-21)))
          CFI (cfiCond244) V2 load(1, XDATA, add(CFA_XSP16, literal(-20)))
          CFI (cfiCond244) V3 load(1, XDATA, add(CFA_XSP16, literal(-19)))
          CFI (cfiCond244) V4 load(1, XDATA, add(CFA_XSP16, literal(-18)))
          CFI (cfiCond244) V5 load(1, XDATA, add(CFA_XSP16, literal(-17)))
          CFI (cfiCond244) V6 load(1, XDATA, add(CFA_XSP16, literal(-16)))
          CFI (cfiCond244) V7 load(1, XDATA, add(CFA_XSP16, literal(-15)))
          CFI (cfiCond244) V8 load(1, XDATA, add(CFA_XSP16, literal(-14)))
          CFI (cfiCond244) V9 load(1, XDATA, add(CFA_XSP16, literal(-13)))
          CFI (cfiCond244) V10 load(1, XDATA, add(CFA_XSP16, literal(-12)))
          CFI (cfiCond244) V11 load(1, XDATA, add(CFA_XSP16, literal(-11)))
          CFI (cfiCond244) V12 load(1, XDATA, add(CFA_XSP16, literal(-10)))
          CFI (cfiCond244) V13 load(1, XDATA, add(CFA_XSP16, literal(-9)))
          CFI (cfiCond244) V14 load(1, XDATA, add(CFA_XSP16, literal(-8)))
          CFI (cfiCond244) V15 load(1, XDATA, add(CFA_XSP16, literal(-7)))
          CFI (cfiCond244) R7 load(1, XDATA, add(CFA_XSP16, literal(-6)))
          CFI (cfiCond244) ?RET_LOW load(1, XDATA, add(CFA_XSP16, literal(-5)))
          CFI (cfiCond244) ?RET_HIGH load(1, XDATA, add(CFA_XSP16, literal(-4)))
          CFI (cfiCond244) ?BRET_EXT load(1, XDATA, add(CFA_XSP16, literal(-3)))
          CFI (cfiCond244) DPL0 load(1, XDATA, add(CFA_XSP16, literal(-2)))
          CFI (cfiCond244) DPH0 load(1, XDATA, add(CFA_XSP16, literal(-1)))
          CFI (cfiCond244) CFA_SP SP+0
          CFI (cfiCond244) CFA_XSP16 add(XSP16, 46)
          CFI Block cfiCond245 Using cfiCommon0
          CFI (cfiCond245) Function calibrationN
          CFI (cfiCond245) Conditional ??CrossCallReturnLabel_109, ??CrossCallReturnLabel_6
          CFI (cfiCond245) R6 load(1, XDATA, add(CFA_XSP16, literal(-24)))
          CFI (cfiCond245) VB load(1, XDATA, add(CFA_XSP16, literal(-23)))
          CFI (cfiCond245) V0 load(1, XDATA, add(CFA_XSP16, literal(-22)))
          CFI (cfiCond245) V1 load(1, XDATA, add(CFA_XSP16, literal(-21)))
          CFI (cfiCond245) V2 load(1, XDATA, add(CFA_XSP16, literal(-20)))
          CFI (cfiCond245) V3 load(1, XDATA, add(CFA_XSP16, literal(-19)))
          CFI (cfiCond245) V4 load(1, XDATA, add(CFA_XSP16, literal(-18)))
          CFI (cfiCond245) V5 load(1, XDATA, add(CFA_XSP16, literal(-17)))
          CFI (cfiCond245) V6 load(1, XDATA, add(CFA_XSP16, literal(-16)))
          CFI (cfiCond245) V7 load(1, XDATA, add(CFA_XSP16, literal(-15)))
          CFI (cfiCond245) V8 load(1, XDATA, add(CFA_XSP16, literal(-14)))
          CFI (cfiCond245) V9 load(1, XDATA, add(CFA_XSP16, literal(-13)))
          CFI (cfiCond245) V10 load(1, XDATA, add(CFA_XSP16, literal(-12)))
          CFI (cfiCond245) V11 load(1, XDATA, add(CFA_XSP16, literal(-11)))
          CFI (cfiCond245) V12 load(1, XDATA, add(CFA_XSP16, literal(-10)))
          CFI (cfiCond245) V13 load(1, XDATA, add(CFA_XSP16, literal(-9)))
          CFI (cfiCond245) V14 load(1, XDATA, add(CFA_XSP16, literal(-8)))
          CFI (cfiCond245) V15 load(1, XDATA, add(CFA_XSP16, literal(-7)))
          CFI (cfiCond245) R7 load(1, XDATA, add(CFA_XSP16, literal(-6)))
          CFI (cfiCond245) ?RET_LOW load(1, XDATA, add(CFA_XSP16, literal(-5)))
          CFI (cfiCond245) ?RET_HIGH load(1, XDATA, add(CFA_XSP16, literal(-4)))
          CFI (cfiCond245) ?BRET_EXT load(1, XDATA, add(CFA_XSP16, literal(-3)))
          CFI (cfiCond245) DPL0 load(1, XDATA, add(CFA_XSP16, literal(-2)))
          CFI (cfiCond245) DPH0 load(1, XDATA, add(CFA_XSP16, literal(-1)))
          CFI (cfiCond245) CFA_SP SP+0
          CFI (cfiCond245) CFA_XSP16 add(XSP16, 46)
          CFI Block cfiCond246 Using cfiCommon0
          CFI (cfiCond246) Function calibrationA
          CFI (cfiCond246) Conditional ??CrossCallReturnLabel_109, ??CrossCallReturnLabel_7
          CFI (cfiCond246) R6 load(1, XDATA, add(CFA_XSP16, literal(-24)))
          CFI (cfiCond246) VB load(1, XDATA, add(CFA_XSP16, literal(-23)))
          CFI (cfiCond246) V0 load(1, XDATA, add(CFA_XSP16, literal(-22)))
          CFI (cfiCond246) V1 load(1, XDATA, add(CFA_XSP16, literal(-21)))
          CFI (cfiCond246) V2 load(1, XDATA, add(CFA_XSP16, literal(-20)))
          CFI (cfiCond246) V3 load(1, XDATA, add(CFA_XSP16, literal(-19)))
          CFI (cfiCond246) V4 load(1, XDATA, add(CFA_XSP16, literal(-18)))
          CFI (cfiCond246) V5 load(1, XDATA, add(CFA_XSP16, literal(-17)))
          CFI (cfiCond246) V6 load(1, XDATA, add(CFA_XSP16, literal(-16)))
          CFI (cfiCond246) V7 load(1, XDATA, add(CFA_XSP16, literal(-15)))
          CFI (cfiCond246) V8 load(1, XDATA, add(CFA_XSP16, literal(-14)))
          CFI (cfiCond246) V9 load(1, XDATA, add(CFA_XSP16, literal(-13)))
          CFI (cfiCond246) V10 load(1, XDATA, add(CFA_XSP16, literal(-12)))
          CFI (cfiCond246) V11 load(1, XDATA, add(CFA_XSP16, literal(-11)))
          CFI (cfiCond246) V12 load(1, XDATA, add(CFA_XSP16, literal(-10)))
          CFI (cfiCond246) V13 load(1, XDATA, add(CFA_XSP16, literal(-9)))
          CFI (cfiCond246) V14 load(1, XDATA, add(CFA_XSP16, literal(-8)))
          CFI (cfiCond246) V15 load(1, XDATA, add(CFA_XSP16, literal(-7)))
          CFI (cfiCond246) R7 load(1, XDATA, add(CFA_XSP16, literal(-6)))
          CFI (cfiCond246) ?RET_LOW load(1, XDATA, add(CFA_XSP16, literal(-5)))
          CFI (cfiCond246) ?RET_HIGH load(1, XDATA, add(CFA_XSP16, literal(-4)))
          CFI (cfiCond246) ?BRET_EXT load(1, XDATA, add(CFA_XSP16, literal(-3)))
          CFI (cfiCond246) DPL0 load(1, XDATA, add(CFA_XSP16, literal(-2)))
          CFI (cfiCond246) DPH0 load(1, XDATA, add(CFA_XSP16, literal(-1)))
          CFI (cfiCond246) CFA_SP SP+0
          CFI (cfiCond246) CFA_XSP16 add(XSP16, 30)
          CFI Block cfiCond247 Using cfiCommon0
          CFI (cfiCond247) Function calibrationA
          CFI (cfiCond247) Conditional ??CrossCallReturnLabel_109, ??CrossCallReturnLabel_8
          CFI (cfiCond247) R6 load(1, XDATA, add(CFA_XSP16, literal(-24)))
          CFI (cfiCond247) VB load(1, XDATA, add(CFA_XSP16, literal(-23)))
          CFI (cfiCond247) V0 load(1, XDATA, add(CFA_XSP16, literal(-22)))
          CFI (cfiCond247) V1 load(1, XDATA, add(CFA_XSP16, literal(-21)))
          CFI (cfiCond247) V2 load(1, XDATA, add(CFA_XSP16, literal(-20)))
          CFI (cfiCond247) V3 load(1, XDATA, add(CFA_XSP16, literal(-19)))
          CFI (cfiCond247) V4 load(1, XDATA, add(CFA_XSP16, literal(-18)))
          CFI (cfiCond247) V5 load(1, XDATA, add(CFA_XSP16, literal(-17)))
          CFI (cfiCond247) V6 load(1, XDATA, add(CFA_XSP16, literal(-16)))
          CFI (cfiCond247) V7 load(1, XDATA, add(CFA_XSP16, literal(-15)))
          CFI (cfiCond247) V8 load(1, XDATA, add(CFA_XSP16, literal(-14)))
          CFI (cfiCond247) V9 load(1, XDATA, add(CFA_XSP16, literal(-13)))
          CFI (cfiCond247) V10 load(1, XDATA, add(CFA_XSP16, literal(-12)))
          CFI (cfiCond247) V11 load(1, XDATA, add(CFA_XSP16, literal(-11)))
          CFI (cfiCond247) V12 load(1, XDATA, add(CFA_XSP16, literal(-10)))
          CFI (cfiCond247) V13 load(1, XDATA, add(CFA_XSP16, literal(-9)))
          CFI (cfiCond247) V14 load(1, XDATA, add(CFA_XSP16, literal(-8)))
          CFI (cfiCond247) V15 load(1, XDATA, add(CFA_XSP16, literal(-7)))
          CFI (cfiCond247) R7 load(1, XDATA, add(CFA_XSP16, literal(-6)))
          CFI (cfiCond247) ?RET_LOW load(1, XDATA, add(CFA_XSP16, literal(-5)))
          CFI (cfiCond247) ?RET_HIGH load(1, XDATA, add(CFA_XSP16, literal(-4)))
          CFI (cfiCond247) ?BRET_EXT load(1, XDATA, add(CFA_XSP16, literal(-3)))
          CFI (cfiCond247) DPL0 load(1, XDATA, add(CFA_XSP16, literal(-2)))
          CFI (cfiCond247) DPH0 load(1, XDATA, add(CFA_XSP16, literal(-1)))
          CFI (cfiCond247) CFA_SP SP+0
          CFI (cfiCond247) CFA_XSP16 add(XSP16, 30)
          CFI Block cfiPicker248 Using cfiCommon1
          CFI (cfiPicker248) NoFunction
          CFI (cfiPicker248) Picker
        MOVX    A,@DPTR
        MOV     ?V0 + 4,A
        INC     DPTR
        MOVX    A,@DPTR
        MOV     ?V0 + 5,A
        MOV     A,#0x2
        MOV     R0,#?V0 + 4
        RET
          CFI EndBlock cfiCond243
          CFI EndBlock cfiCond244
          CFI EndBlock cfiCond245
          CFI EndBlock cfiCond246
          CFI EndBlock cfiCond247
          CFI EndBlock cfiPicker248

        RSEG BANK_RELAYS:CODE:REORDER:NOROOT(0)
??printRSSIandLQI?relay:
        CODE
        LCALL   ?BDISPATCH
        DATA24
        DC24    printRSSIandLQI

        RSEG BANK_RELAYS:CODE:REORDER:NOROOT(0)
??SampleApp_MinMax_localization?relay:
        CODE
        LCALL   ?BDISPATCH
        DATA24
        DC24    SampleApp_MinMax_localization

        RSEG BANK_RELAYS:CODE:REORDER:NOROOT(0)
??SampleApp_WCL_localization?relay:
        CODE
        LCALL   ?BDISPATCH
        DATA24
        DC24    SampleApp_WCL_localization

        RSEG BANK_RELAYS:CODE:REORDER:NOROOT(0)
??moving_average?relay:
        CODE
        LCALL   ?BDISPATCH
        DATA24
        DC24    moving_average

        RSEG BANK_RELAYS:CODE:REORDER:NOROOT(0)
??moving_average_f?relay:
        CODE
        LCALL   ?BDISPATCH
        DATA24
        DC24    moving_average_f

        RSEG BANK_RELAYS:CODE:REORDER:NOROOT(0)
??gaussianfilter?relay:
        CODE
        LCALL   ?BDISPATCH
        DATA24
        DC24    gaussianfilter

        RSEG BANK_RELAYS:CODE:REORDER:NOROOT(0)
??averagefilter?relay:
        CODE
        LCALL   ?BDISPATCH
        DATA24
        DC24    averagefilter

        RSEG BANK_RELAYS:CODE:REORDER:NOROOT(0)
??calibrationN?relay:
        CODE
        LCALL   ?BDISPATCH
        DATA24
        DC24    calibrationN

        RSEG BANK_RELAYS:CODE:REORDER:NOROOT(0)
??calibrationA?relay:
        CODE
        LCALL   ?BDISPATCH
        DATA24
        DC24    calibrationA

        RSEG XDATA_ROM_C:CONST:REORDER:NOROOT(0)
        DATA8
`?<Constant "RSSI:">`:
        DB "RSSI:"

        RSEG XDATA_ROM_C:CONST:REORDER:NOROOT(0)
        DATA8
`?<Constant "LQI:">`:
        DB "LQI:"

        RSEG XDATA_ROM_C:CONST:REORDER:NOROOT(0)
        DATA16
`?<Constant "\\n">`:
        DB "\012"

        RSEG XDATA_ROM_C:CONST:REORDER:NOROOT(0)
        DATA8
`?<Constant {(0.0F)}>`:
        DATA32
        DD 0H
        DB 0, 0, 0, 0, 0, 0, 0, 0
        DB 0, 0, 0, 0

        RSEG XDATA_ROM_C:CONST:REORDER:NOROOT(0)
        DATA8
`?<Constant {(0.0F), (0.0F), (0.0F), (0.0F)}>`:
        DATA32
        DD 0H
        DD 0H
        DD 0H
        DD 0H

        RSEG XDATA_ROM_C:CONST:REORDER:NOROOT(0)
        DATA8
`?<Constant {(48.0F), (48.0F), (55.0F), (56.0F)`:
        DATA32
        DD 42400000H
        DD 42400000H
        DD 425C0000H
        DD 42600000H

        RSEG XDATA_ROM_C:CONST:REORDER:NOROOT(0)
        DATA32
__Constant_3f800000:
        DD 3F800000H

        RSEG XDATA_ROM_C:CONST:REORDER:NOROOT(0)
        DATA32
__Constant_41200000:
        DD 41200000H

        RSEG XDATA_ROM_C:CONST:REORDER:NOROOT(0)
        DATA32
__Constant_3f000000:
        DD 3F000000H

        RSEG XDATA_ROM_C:CONST:REORDER:NOROOT(0)
        DATA32
__Constant_c031eb85:
        DD 0C031EB85H

        RSEG XDATA_ROM_C:CONST:REORDER:NOROOT(0)
        DATA32
__Constant_40800000:
        DD 40800000H

        RSEG XDATA_ROM_C:CONST:REORDER:NOROOT(0)
        DATA32
__Constant_40000000:
        DD 40000000H

        END
//  386 
//  387 
//  388 /*********************************************************************
//  389 *********************************************************************/
// 
// 4 566 bytes in segment BANKED_CODE
//    54 bytes in segment BANK_RELAYS
//    85 bytes in segment XDATA_ROM_C
// 
// 4 620 bytes of CODE  memory
//    61 bytes of CONST memory (+ 24 bytes shared)
//
//Errors: none
//Warnings: 1
