///////////////////////////////////////////////////////////////////////////////
//                                                                            /
// IAR C/C++ Compiler V8.20.2.41139 for 8051            18/Apr/2016  16:07:30 /
// Copyright 2004-2013 IAR Systems AB.                                        /
//                                                                            /
//    Core               =  plain                                             /
//    Code model         =  banked                                            /
//    Data model         =  large                                             /
//    Calling convention =  xdata reentrant                                   /
//    Constant location  =  data_rom                                          /
//    Dptr setup         =  1,16                                              /
//                                                                            /
//    Source file        =  F:\myCloud\ZigbeeTest\Projects\zstack\Samples\Sam /
//                          pleApp\Source\SampleApp.c                         /
//    Command line       =  -f F:\myCloud\ZigbeeTest\Projects\zstack\Samples\ /
//                          SampleApp\CC2530DB\..\..\..\Tools\CC2530DB\f8wEnd /
//                          ev.cfg (-DCPU32MHZ -DROOT=__near_func             /
//                          -DBLINK_LEDS) -f F:\myCloud\ZigbeeTest\Projects\z /
//                          stack\Samples\SampleApp\CC2530DB\..\..\..\Tools\C /
//                          C2530DB\f8wConfig.cfg (-DSECURE=0                 /
//                          -DZG_SECURE_DYNAMIC=0 -DREFLECTOR                 /
//                          -DDEFAULT_CHANLIST=0x00000800                     /
//                          -DZDAPP_CONFIG_PAN_ID=0xFFF1                      /
//                          -DNWK_START_DELAY=100 -DEXTENDED_JOINING_RANDOM_M /
//                          ASK=0x007F -DBEACON_REQUEST_DELAY=100             /
//                          -DBEACON_REQ_DELAY_MASK=0x00FF                    /
//                          -DROUTE_EXPIRY_TIME=30 -DAPSC_ACK_WAIT_DURATION_P /
//                          OLLED=3000 -DNWK_INDIRECT_MSG_TIMEOUT=7           /
//                          -DMAX_RREQ_ENTRIES=8 -DAPSC_MAX_FRAME_RETRIES=3   /
//                          -DNWK_MAX_DATA_RETRIES=2                          /
//                          -DMAX_POLL_FAILURE_RETRIES=2 -DMAX_BCAST=9        /
//                          -DAPS_MAX_GROUPS=16 -DMAX_RTG_ENTRIES=40          /
//                          -DNWK_MAX_BINDING_ENTRIES=4                       /
//                          -DMAX_BINDING_CLUSTER_IDS=4                       /
//                          "-DDEFAULT_KEY={0x01, 0x03, 0x05, 0x07, 0x09,     /
//                          0x0B, 0x0D, 0x0F, 0x00, 0x02, 0x04, 0x06, 0x08,   /
//                          0x0A, 0x0C, 0x0D}" -DMAC_MAX_FRAME_SIZE=116       /
//                          "-DCONST=const __code" -DGENERIC=__generic        /
//                          -DRFD_RCVC_ALWAYS_ON=TRUE -DPOLL_RATE=1000        /
//                          -DQUEUED_POLL_RATE=100 -DRESPONSE_POLL_RATE=100)  /
//                          -DREJOIN_POLL_RATE=440 F:\myCloud\ZigbeeTest\Proj /
//                          ects\zstack\Samples\SampleApp\Source\SampleApp.c  /
//                          -D ZIGBEEPRO -D NWK_AUTO_POLL -D ZTOOL_P1 -D      /
//                          xMT_TASK -D xMT_SYS_FUNC -D xMT_ZDO_FUNC -D       /
//                          LCD_SUPPORTED=DEBUG -lC                           /
//                          F:\myCloud\ZigbeeTest\Projects\zstack\Samples\Sam /
//                          pleApp\CC2530DB\QuadRotorOnboardPro\List\ -lA     /
//                          F:\myCloud\ZigbeeTest\Projects\zstack\Samples\Sam /
//                          pleApp\CC2530DB\QuadRotorOnboardPro\List\         /
//                          --diag_suppress Pe001,Pa010 -o                    /
//                          F:\myCloud\ZigbeeTest\Projects\zstack\Samples\Sam /
//                          pleApp\CC2530DB\QuadRotorOnboardPro\Obj\ -e       /
//                          --debug --core=plain --dptr=16,1                  /
//                          --data_model=large --code_model=banked            /
//                          --calling_convention=xdata_reentrant              /
//                          --place_constants=data_rom --nr_virtual_regs 16   /
//                          -I F:\myCloud\ZigbeeTest\Projects\zstack\Samples\ /
//                          SampleApp\CC2530DB\ -I F:\myCloud\ZigbeeTest\Proj /
//                          ects\zstack\Samples\SampleApp\CC2530DB\..\SOURCE\ /
//                           -I F:\myCloud\ZigbeeTest\Projects\zstack\Samples /
//                          \SampleApp\CC2530DB\..\..\..\ZMAIN\TI2530DB\ -I   /
//                          F:\myCloud\ZigbeeTest\Projects\zstack\Samples\Sam /
//                          pleApp\CC2530DB\..\..\..\..\..\COMPONENTS\MT\ -I  /
//                          F:\myCloud\ZigbeeTest\Projects\zstack\Samples\Sam /
//                          pleApp\CC2530DB\..\..\..\..\..\COMPONENTS\HAL\INC /
//                          LUDE\ -I F:\myCloud\ZigbeeTest\Projects\zstack\Sa /
//                          mples\SampleApp\CC2530DB\..\..\..\..\..\COMPONENT /
//                          S\HAL\TARGET\CC2530EB\ -I                         /
//                          F:\myCloud\ZigbeeTest\Projects\zstack\Samples\Sam /
//                          pleApp\CC2530DB\..\..\..\..\..\COMPONENTS\OSAL\MC /
//                          U\CCSOC\ -I F:\myCloud\ZigbeeTest\Projects\zstack /
//                          \Samples\SampleApp\CC2530DB\..\..\..\..\..\COMPON /
//                          ENTS\OSAL\INCLUDE\ -I F:\myCloud\ZigbeeTest\Proje /
//                          cts\zstack\Samples\SampleApp\CC2530DB\..\..\..\.. /
//                          \..\COMPONENTS\STACK\AF\ -I                       /
//                          F:\myCloud\ZigbeeTest\Projects\zstack\Samples\Sam /
//                          pleApp\CC2530DB\..\..\..\..\..\COMPONENTS\STACK\N /
//                          WK\ -I F:\myCloud\ZigbeeTest\Projects\zstack\Samp /
//                          les\SampleApp\CC2530DB\..\..\..\..\..\COMPONENTS\ /
//                          STACK\SEC\ -I F:\myCloud\ZigbeeTest\Projects\zsta /
//                          ck\Samples\SampleApp\CC2530DB\..\..\..\..\..\COMP /
//                          ONENTS\STACK\SAPI\ -I F:\myCloud\ZigbeeTest\Proje /
//                          cts\zstack\Samples\SampleApp\CC2530DB\..\..\..\.. /
//                          \..\COMPONENTS\STACK\SYS\ -I                      /
//                          F:\myCloud\ZigbeeTest\Projects\zstack\Samples\Sam /
//                          pleApp\CC2530DB\..\..\..\..\..\COMPONENTS\STACK\Z /
//                          DO\ -I F:\myCloud\ZigbeeTest\Projects\zstack\Samp /
//                          les\SampleApp\CC2530DB\..\..\..\..\..\COMPONENTS\ /
//                          ZMAC\F8W\ -I F:\myCloud\ZigbeeTest\Projects\zstac /
//                          k\Samples\SampleApp\CC2530DB\..\..\..\..\..\COMPO /
//                          NENTS\ZMAC\ -I F:\myCloud\ZigbeeTest\Projects\zst /
//                          ack\Samples\SampleApp\CC2530DB\..\..\..\..\..\COM /
//                          PONENTS\SERVICES\SADDR\ -I                        /
//                          F:\myCloud\ZigbeeTest\Projects\zstack\Samples\Sam /
//                          pleApp\CC2530DB\..\..\..\..\..\COMPONENTS\SERVICE /
//                          S\SDATA\ -I F:\myCloud\ZigbeeTest\Projects\zstack /
//                          \Samples\SampleApp\CC2530DB\..\..\..\..\..\COMPON /
//                          ENTS\MAC\INCLUDE\ -I F:\myCloud\ZigbeeTest\Projec /
//                          ts\zstack\Samples\SampleApp\CC2530DB\..\..\..\..\ /
//                          ..\COMPONENTS\MAC\HIGH_LEVEL\ -I                  /
//                          F:\myCloud\ZigbeeTest\Projects\zstack\Samples\Sam /
//                          pleApp\CC2530DB\..\..\..\..\..\COMPONENTS\MAC\LOW /
//                          _LEVEL\srf04\ -I F:\myCloud\ZigbeeTest\Projects\z /
//                          stack\Samples\SampleApp\CC2530DB\..\..\..\..\..\C /
//                          OMPONENTS\MAC\LOW_LEVEL\srf04\SINGLE_CHIP\ -Ohz   /
//                          --require_prototypes                              /
//    List file          =  F:\myCloud\ZigbeeTest\Projects\zstack\Samples\Sam /
//                          pleApp\CC2530DB\QuadRotorOnboardPro\List\SampleAp /
//                          p.s51                                             /
//                                                                            /
//                                                                            /
///////////////////////////////////////////////////////////////////////////////

        NAME SampleApp

        RTMODEL "__SystemLibrary", "CLib"
        RTMODEL "__calling_convention", "xdata_reentrant"
        RTMODEL "__code_model", "banked"
        RTMODEL "__core", "plain"
        RTMODEL "__data_model", "large"
        RTMODEL "__dptr_size", "16"
        RTMODEL "__extended_stack", "disabled"
        RTMODEL "__location_for_constants", "data"
        RTMODEL "__number_of_dptrs", "1"
        RTMODEL "__rt_version", "1"

        RSEG DOVERLAY:DATA:NOROOT(0)
        RSEG IOVERLAY:IDATA:NOROOT(0)
        RSEG ISTACK:IDATA:NOROOT(0)
        RSEG PSTACK:XDATA:NOROOT(0)
        RSEG XSTACK:XDATA:NOROOT(0)

        EXTERN ?ALLOC_XSTACK8
        EXTERN ?BANKED_ENTER_XDATA
        EXTERN ?BANKED_LEAVE_XDATA
        EXTERN ?BDISPATCH
        EXTERN ?DEALLOC_XSTACK8
        EXTERN ?FLT_ADD
        EXTERN ?FLT_DIV
        EXTERN ?FLT_GE
        EXTERN ?FLT_MUL
        EXTERN ?FLT_SUB
        EXTERN ?FLT_TO_L
        EXTERN ?L_MOV_TO_X
        EXTERN ?L_MOV_X
        EXTERN ?L_TO_FLT
        EXTERN ?MOVE_LONG8_XDATA_XDATA
        EXTERN ?PUSH_XSTACK8_X_FOUR
        EXTERN ?PUSH_XSTACK_I_FOUR
        EXTERN ?PUSH_XSTACK_I_ONE
        EXTERN ?PUSH_XSTACK_I_THREE
        EXTERN ?PUSH_XSTACK_I_TWO
        EXTERN ?S_DIV_MOD
        EXTERN ?S_SHL
        EXTERN ?UL_TO_FLT
        EXTERN ?US_SWITCH_DENSE
        EXTERN ?US_SWITCH_SPARSE
        EXTERN ?V0
        EXTERN ?XLOAD_R2345
        EXTERN ?XSP
        EXTERN ?XSTACK_DISP0_8
        EXTERN ?XSTORE_R2345
        EXTERN __INIT_XDATA_I
        EXTERN __INIT_XDATA_Z

        PUBLIC ??SampleApp_AnchorMSGCB?relay
        FUNCTION ??SampleApp_AnchorMSGCB?relay,0203H
        PUBLIC ??SampleApp_HandleKeys?relay
        FUNCTION ??SampleApp_HandleKeys?relay,0203H
        PUBLIC ??SampleApp_Init?relay
        FUNCTION ??SampleApp_Init?relay,0203H
        PUBLIC ??SampleApp_MessageMSGCB?relay
        FUNCTION ??SampleApp_MessageMSGCB?relay,0203H
        PUBLIC ??SampleApp_ProcessEvent?relay
        FUNCTION ??SampleApp_ProcessEvent?relay,0203H
        PUBLIC ??SampleApp_QuadrotorMSGCB?relay
        FUNCTION ??SampleApp_QuadrotorMSGCB?relay,0203H
        PUBLIC ??SampleApp_Quadrotor_SendLocation?relay
        FUNCTION ??SampleApp_Quadrotor_SendLocation?relay,0203H
        PUBLIC ??SampleApp_Router_SendPeriodicMessage?relay
        FUNCTION ??SampleApp_Router_SendPeriodicMessage?relay,0203H
        PUBLIC ??SampleApp_Router_calibrationAMessage?relay
        FUNCTION ??SampleApp_Router_calibrationAMessage?relay,0203H
        PUBLIC ??SampleApp_Router_calibrationNMessage?relay
        FUNCTION ??SampleApp_Router_calibrationNMessage?relay,0203H
        PUBLIC ??SampleApp_Tester_calibrationAMessage?relay
        FUNCTION ??SampleApp_Tester_calibrationAMessage?relay,0203H
        PUBLIC ??SampleApp_Tester_calibrationMSGCB?relay
        FUNCTION ??SampleApp_Tester_calibrationMSGCB?relay,0203H
        PUBLIC ??SampleApp_Tester_calibrationOffsetAMessage?re
        FUNCTION ??SampleApp_Tester_calibrationOffsetAMessage?re,0203H
        PUBLIC ??SampleApp_Tester_calibration_differentAMessag
        FUNCTION ??SampleApp_Tester_calibration_differentAMessag,0203H
        PUBLIC AValue
        PUBLIC AnchorX
        PUBLIC AnchorY
        PUBLIC AnchorZ
        PUBLIC DeviceID
        PUBLIC OffsetAValue
        PUBLIC RefAValue
        PUBLIC RssiValue
        PUBLIC SampleAppFlashCounter
        PUBLIC SampleAppPeriodicCounter
        PUBLIC SampleApp_AnchorMSGCB
        FUNCTION SampleApp_AnchorMSGCB,021203H
        ARGFRAME XSTACK, 12, STACK
        ARGFRAME IOVERLAY, 0, STATIC
        ARGFRAME DOVERLAY, 0, STATIC
        LOCFRAME XSTACK, 14, STACK
        PUBLIC SampleApp_ClusterList
        PUBLIC SampleApp_Group_1
        PUBLIC SampleApp_Group_2
        PUBLIC SampleApp_HandleKeys
        FUNCTION SampleApp_HandleKeys,021203H
        ARGFRAME XSTACK, 12, STACK
        ARGFRAME IOVERLAY, 0, STATIC
        ARGFRAME DOVERLAY, 0, STATIC
        LOCFRAME XSTACK, 14, STACK
        PUBLIC SampleApp_Init
        FUNCTION SampleApp_Init,021203H
        ARGFRAME XSTACK, 0, STACK
        LOCFRAME XSTACK, 14, STACK
        PUBLIC SampleApp_MessageMSGCB
        FUNCTION SampleApp_MessageMSGCB,0a1203H
        ARGFRAME XSTACK, 12, STACK
        ARGFRAME IOVERLAY, 0, STATIC
        ARGFRAME DOVERLAY, 0, STATIC
        LOCFRAME XSTACK, 20, STACK
        PUBLIC SampleApp_NwkState
        PUBLIC SampleApp_ProcessEvent
        FUNCTION SampleApp_ProcessEvent,021203H
        ARGFRAME XSTACK, 0, STACK
        LOCFRAME XSTACK, 16, STACK
        PUBLIC SampleApp_QuadrotorMSGCB
        FUNCTION SampleApp_QuadrotorMSGCB,0a1203H
        ARGFRAME XSTACK, 12, STACK
        ARGFRAME IOVERLAY, 0, STATIC
        ARGFRAME DOVERLAY, 0, STATIC
        LOCFRAME XSTACK, 32, STACK
        PUBLIC SampleApp_Quadrotor_Location_DstAddr
        PUBLIC SampleApp_Quadrotor_SendLocation
        FUNCTION SampleApp_Quadrotor_SendLocation,021203H
        ARGFRAME XSTACK, 12, STACK
        ARGFRAME IOVERLAY, 0, STATIC
        ARGFRAME DOVERLAY, 0, STATIC
        LOCFRAME ISTACK, 2, STACK
        LOCFRAME XSTACK, 62, STACK
        PUBLIC SampleApp_Router_Periodic_DstAddr
        PUBLIC SampleApp_Router_SendPeriodicMessage
        FUNCTION SampleApp_Router_SendPeriodicMessage,021203H
        ARGFRAME XSTACK, 12, STACK
        ARGFRAME IOVERLAY, 0, STATIC
        ARGFRAME DOVERLAY, 0, STATIC
        LOCFRAME ISTACK, 2, STACK
        LOCFRAME XSTACK, 21, STACK
        PUBLIC SampleApp_Router_calibrationAMessage
        FUNCTION SampleApp_Router_calibrationAMessage,021203H
        ARGFRAME XSTACK, 4, STACK
        LOCFRAME ISTACK, 2, STACK
        LOCFRAME XSTACK, 36, STACK
        PUBLIC SampleApp_Router_calibrationNMessage
        FUNCTION SampleApp_Router_calibrationNMessage,021203H
        ARGFRAME XSTACK, 4, STACK
        LOCFRAME ISTACK, 2, STACK
        LOCFRAME XSTACK, 33, STACK
        PUBLIC SampleApp_SimpleDesc
        PUBLIC SampleApp_TaskID
        PUBLIC SampleApp_Tester_DstAddr
        PUBLIC SampleApp_Tester_calibrationAMessage
        FUNCTION SampleApp_Tester_calibrationAMessage,021203H
        ARGFRAME XSTACK, 14, STACK
        ARGFRAME IOVERLAY, 0, STATIC
        ARGFRAME DOVERLAY, 0, STATIC
        LOCFRAME ISTACK, 2, STACK
        LOCFRAME XSTACK, 36, STACK
        PUBLIC SampleApp_Tester_calibrationMSGCB
        FUNCTION SampleApp_Tester_calibrationMSGCB,0a1203H
        ARGFRAME XSTACK, 12, STACK
        ARGFRAME IOVERLAY, 0, STATIC
        ARGFRAME DOVERLAY, 0, STATIC
        LOCFRAME XSTACK, 20, STACK
        PUBLIC SampleApp_Tester_calibrationOffsetAMessage
        FUNCTION SampleApp_Tester_calibrationOffsetAMessage,021203H
        ARGFRAME XSTACK, 16, STACK
        ARGFRAME IOVERLAY, 0, STATIC
        ARGFRAME DOVERLAY, 0, STATIC
        LOCFRAME ISTACK, 2, STACK
        LOCFRAME XSTACK, 37, STACK
        PUBLIC SampleApp_Tester_calibration_differentAMessage
        FUNCTION SampleApp_Tester_calibration_differentAMessage,021203H
        ARGFRAME XSTACK, 12, STACK
        ARGFRAME IOVERLAY, 0, STATIC
        ARGFRAME DOVERLAY, 0, STATIC
        LOCFRAME ISTACK, 2, STACK
        LOCFRAME XSTACK, 37, STACK
        PUBLIC SampleApp_TransID
        PUBLIC SampleApp_epDesc
        PUBLIC SampleApp_test_epDesc
        PUBWEAK __Constant_0
        PUBWEAK __Constant_1
        PUBWEAK __Constant_3c23d70a
        PUBWEAK __Constant_3dcccccd
        PUBWEAK __Constant_41200000
        PUBLIC aindex1
        PUBLIC aindex2
        PUBLIC aindex3
        PUBLIC aindex4
        PUBLIC i1
        PUBLIC i2
        PUBLIC i3
        PUBLIC i4
        PUBLIC imof1
        PUBLIC imof2
        PUBLIC imof3
        PUBLIC imof4
        PUBLIC locationX
        PUBLIC locationY
        PUBLIC locationZ
        PUBLIC nValue
        PUBLIC nindex1
        PUBLIC nindex2
        PUBLIC nindex3
        PUBLIC nindex4
        PUBLIC perRssiBuf1
        PUBLIC perRssiBuf2
        PUBLIC perRssiBuf3
        PUBLIC perRssiBuf4
        PUBLIC peraBuf1
        PUBLIC peraBuf2
        PUBLIC peraBuf3
        PUBLIC peraBuf4
        PUBLIC pernBuf1
        PUBLIC pernBuf2
        PUBLIC pernBuf3
        PUBLIC pernBuf4
        PUBLIC rssivalue
        PUBLIC sumRssi1
        PUBLIC sumRssi2
        PUBLIC sumRssi3
        PUBLIC sumRssi4
        
          CFI Names cfiNames0
          CFI StackFrame CFA_SP SP IDATA
          CFI StackFrame CFA_PSP16 PSP16 XDATA
          CFI StackFrame CFA_XSP16 XSP16 XDATA
          CFI StaticOverlayFrame CFA_IOVERLAY IOVERLAY
          CFI StaticOverlayFrame CFA_DOVERLAY DOVERLAY
          CFI Resource `PSW.CY`:1, `B.BR0`:1, `B.BR1`:1, `B.BR2`:1, `B.BR3`:1
          CFI Resource `B.BR4`:1, `B.BR5`:1, `B.BR6`:1, `B.BR7`:1, `VB.BR8`:1
          CFI Resource `VB.BR9`:1, `VB.BR10`:1, `VB.BR11`:1, `VB.BR12`:1
          CFI Resource `VB.BR13`:1, `VB.BR14`:1, `VB.BR15`:1, VB:8, B:8, A:8
          CFI Resource PSW:8, DPL0:8, DPH0:8, R0:8, R1:8, R2:8, R3:8, R4:8, R5:8
          CFI Resource R6:8, R7:8, V0:8, V1:8, V2:8, V3:8, V4:8, V5:8, V6:8, V7:8
          CFI Resource V8:8, V9:8, V10:8, V11:8, V12:8, V13:8, V14:8, V15:8, SP:8
          CFI Resource PSPH:8, PSPL:8, PSP16:16, XSPH:8, XSPL:8, XSP16:16
          CFI VirtualResource ?RET:24
          CFI Resource ?BRET_EXT:8
          CFI VirtualResource ?RET_HIGH:8, ?RET_LOW:8
          CFI ResourceParts PSP16 PSPH, PSPL
          CFI ResourceParts XSP16 XSPH, XSPL
          CFI ResourceParts ?RET ?BRET_EXT, ?RET_HIGH, ?RET_LOW
          CFI EndNames cfiNames0
        
          CFI Common cfiCommon0 Using cfiNames0
          CFI CodeAlign 1
          CFI DataAlign -1
          CFI ReturnAddress ?RET CODE
          CFI CFA_DOVERLAY Used
          CFI CFA_IOVERLAY Used
          CFI CFA_SP SP+-3
          CFI CFA_PSP16 PSP16+0
          CFI CFA_XSP16 XSP16+0
          CFI `PSW.CY` SameValue
          CFI `B.BR0` SameValue
          CFI `B.BR1` SameValue
          CFI `B.BR2` SameValue
          CFI `B.BR3` SameValue
          CFI `B.BR4` SameValue
          CFI `B.BR5` SameValue
          CFI `B.BR6` SameValue
          CFI `B.BR7` SameValue
          CFI `VB.BR8` SameValue
          CFI `VB.BR9` SameValue
          CFI `VB.BR10` SameValue
          CFI `VB.BR11` SameValue
          CFI `VB.BR12` SameValue
          CFI `VB.BR13` SameValue
          CFI `VB.BR14` SameValue
          CFI `VB.BR15` SameValue
          CFI VB SameValue
          CFI B Undefined
          CFI A Undefined
          CFI PSW SameValue
          CFI DPL0 SameValue
          CFI DPH0 SameValue
          CFI R0 Undefined
          CFI R1 Undefined
          CFI R2 Undefined
          CFI R3 Undefined
          CFI R4 Undefined
          CFI R5 Undefined
          CFI R6 SameValue
          CFI R7 SameValue
          CFI V0 SameValue
          CFI V1 SameValue
          CFI V2 SameValue
          CFI V3 SameValue
          CFI V4 SameValue
          CFI V5 SameValue
          CFI V6 SameValue
          CFI V7 SameValue
          CFI V8 SameValue
          CFI V9 SameValue
          CFI V10 SameValue
          CFI V11 SameValue
          CFI V12 SameValue
          CFI V13 SameValue
          CFI V14 SameValue
          CFI V15 SameValue
          CFI PSPH Undefined
          CFI PSPL Undefined
          CFI XSPH Undefined
          CFI XSPL Undefined
          CFI ?RET Concat
          CFI ?BRET_EXT Frame(CFA_SP, 3)
          CFI ?RET_HIGH Frame(CFA_SP, 2)
          CFI ?RET_LOW Frame(CFA_SP, 1)
          CFI EndCommon cfiCommon0
        
        
          CFI Common cfiCommon1 Using cfiNames0
          CFI CodeAlign 1
          CFI DataAlign -1
          CFI ReturnAddress ?RET CODE
          CFI CFA_DOVERLAY Used
          CFI CFA_IOVERLAY Used
          CFI CFA_SP SP+-2
          CFI CFA_PSP16 PSP16+0
          CFI CFA_XSP16 XSP16+0
          CFI `PSW.CY` SameValue
          CFI `B.BR0` SameValue
          CFI `B.BR1` SameValue
          CFI `B.BR2` SameValue
          CFI `B.BR3` SameValue
          CFI `B.BR4` SameValue
          CFI `B.BR5` SameValue
          CFI `B.BR6` SameValue
          CFI `B.BR7` SameValue
          CFI `VB.BR8` SameValue
          CFI `VB.BR9` SameValue
          CFI `VB.BR10` SameValue
          CFI `VB.BR11` SameValue
          CFI `VB.BR12` SameValue
          CFI `VB.BR13` SameValue
          CFI `VB.BR14` SameValue
          CFI `VB.BR15` SameValue
          CFI VB SameValue
          CFI B SameValue
          CFI A SameValue
          CFI PSW SameValue
          CFI DPL0 SameValue
          CFI DPH0 SameValue
          CFI R0 SameValue
          CFI R1 SameValue
          CFI R2 SameValue
          CFI R3 SameValue
          CFI R4 SameValue
          CFI R5 SameValue
          CFI R6 SameValue
          CFI R7 SameValue
          CFI V0 SameValue
          CFI V1 SameValue
          CFI V2 SameValue
          CFI V3 SameValue
          CFI V4 SameValue
          CFI V5 SameValue
          CFI V6 SameValue
          CFI V7 SameValue
          CFI V8 SameValue
          CFI V9 SameValue
          CFI V10 SameValue
          CFI V11 SameValue
          CFI V12 SameValue
          CFI V13 SameValue
          CFI V14 SameValue
          CFI V15 SameValue
          CFI PSPH Undefined
          CFI PSPL Undefined
          CFI XSPH Undefined
          CFI XSPL Undefined
          CFI ?RET Concat
          CFI ?BRET_EXT SameValue
          CFI ?RET_HIGH Frame(CFA_SP, 2)
          CFI ?RET_LOW Frame(CFA_SP, 1)
          CFI EndCommon cfiCommon1
        
AF_DataRequest      SYMBOL "AF_DataRequest"
??AF_DataRequest?relay SYMBOL "?relay", AF_DataRequest
HalLcdWriteString   SYMBOL "HalLcdWriteString"
??HalLcdWriteString?relay SYMBOL "?relay", HalLcdWriteString
HalUARTWrite        SYMBOL "HalUARTWrite"
??HalUARTWrite?relay SYMBOL "?relay", HalUARTWrite
MT_UartInit         SYMBOL "MT_UartInit"
??MT_UartInit?relay SYMBOL "?relay", MT_UartInit
MT_UartRegisterTaskID SYMBOL "MT_UartRegisterTaskID"
??MT_UartRegisterTaskID?relay SYMBOL "?relay", MT_UartRegisterTaskID
RegisterForKeys     SYMBOL "RegisterForKeys"
??RegisterForKeys?relay SYMBOL "?relay", RegisterForKeys
SampleApp_MinMax_localization SYMBOL "SampleApp_MinMax_localization"
??SampleApp_MinMax_localization?relay SYMBOL "?relay", SampleApp_MinMax_localization
afRegister          SYMBOL "afRegister"
??afRegister?relay  SYMBOL "?relay", afRegister
aps_AddGroup        SYMBOL "aps_AddGroup"
??aps_AddGroup?relay SYMBOL "?relay", aps_AddGroup
moving_average      SYMBOL "moving_average"
??moving_average?relay SYMBOL "?relay", moving_average
moving_average_f    SYMBOL "moving_average_f"
??moving_average_f?relay SYMBOL "?relay", moving_average_f
osal_memcpy         SYMBOL "osal_memcpy"
??osal_memcpy?relay SYMBOL "?relay", osal_memcpy
osal_msg_deallocate SYMBOL "osal_msg_deallocate"
??osal_msg_deallocate?relay SYMBOL "?relay", osal_msg_deallocate
osal_msg_receive    SYMBOL "osal_msg_receive"
??osal_msg_receive?relay SYMBOL "?relay", osal_msg_receive
osal_rand           SYMBOL "osal_rand"
??osal_rand?relay   SYMBOL "?relay", osal_rand
osal_start_timerEx  SYMBOL "osal_start_timerEx"
??osal_start_timerEx?relay SYMBOL "?relay", osal_start_timerEx
osal_strlen         SYMBOL "osal_strlen"
??osal_strlen?relay SYMBOL "?relay", osal_strlen
printRSSIandLQI     SYMBOL "printRSSIandLQI"
??printRSSIandLQI?relay SYMBOL "?relay", printRSSIandLQI
SampleApp_AnchorMSGCB SYMBOL "SampleApp_AnchorMSGCB"
??SampleApp_AnchorMSGCB?relay SYMBOL "?relay", SampleApp_AnchorMSGCB
SampleApp_HandleKeys SYMBOL "SampleApp_HandleKeys"
??SampleApp_HandleKeys?relay SYMBOL "?relay", SampleApp_HandleKeys
SampleApp_Init      SYMBOL "SampleApp_Init"
??SampleApp_Init?relay SYMBOL "?relay", SampleApp_Init
SampleApp_MessageMSGCB SYMBOL "SampleApp_MessageMSGCB"
??SampleApp_MessageMSGCB?relay SYMBOL "?relay", SampleApp_MessageMSGCB
SampleApp_ProcessEvent SYMBOL "SampleApp_ProcessEvent"
??SampleApp_ProcessEvent?relay SYMBOL "?relay", SampleApp_ProcessEvent
SampleApp_QuadrotorMSGCB SYMBOL "SampleApp_QuadrotorMSGCB"
??SampleApp_QuadrotorMSGCB?relay SYMBOL "?relay", SampleApp_QuadrotorMSGCB
SampleApp_Quadrotor_SendLocation SYMBOL "SampleApp_Quadrotor_SendLocation"
??SampleApp_Quadrotor_SendLocation?relay SYMBOL "?relay", SampleApp_Quadrotor_SendLocation
SampleApp_Router_SendPeriodicMessage SYMBOL "SampleApp_Router_SendPeriodicMessage"
??SampleApp_Router_SendPeriodicMessage?relay SYMBOL "?relay", SampleApp_Router_SendPeriodicMessage
SampleApp_Router_calibrationAMessage SYMBOL "SampleApp_Router_calibrationAMessage"
??SampleApp_Router_calibrationAMessage?relay SYMBOL "?relay", SampleApp_Router_calibrationAMessage
SampleApp_Router_calibrationNMessage SYMBOL "SampleApp_Router_calibrationNMessage"
??SampleApp_Router_calibrationNMessage?relay SYMBOL "?relay", SampleApp_Router_calibrationNMessage
SampleApp_Tester_calibrationAMessage SYMBOL "SampleApp_Tester_calibrationAMessage"
??SampleApp_Tester_calibrationAMessage?relay SYMBOL "?relay", SampleApp_Tester_calibrationAMessage
SampleApp_Tester_calibrationMSGCB SYMBOL "SampleApp_Tester_calibrationMSGCB"
??SampleApp_Tester_calibrationMSGCB?relay SYMBOL "?relay", SampleApp_Tester_calibrationMSGCB
SampleApp_Tester_calibrationOffsetAMessage SYMBOL "SampleApp_Tester_calibrationOffsetAMessage"
??SampleApp_Tester_calibrationOffsetAMessage?re SYMBOL "?relay", SampleApp_Tester_calibrationOffsetAMessage
SampleApp_Tester_calibration_differentAMessage SYMBOL "SampleApp_Tester_calibration_differentAMessage"
??SampleApp_Tester_calibration_differentAMessag SYMBOL "?relay", SampleApp_Tester_calibration_differentAMessage

        EXTERN ??AF_DataRequest?relay
        FUNCTION ??AF_DataRequest?relay,00H
        EXTERN ??HalLcdWriteString?relay
        FUNCTION ??HalLcdWriteString?relay,00H
        EXTERN ??HalUARTWrite?relay
        FUNCTION ??HalUARTWrite?relay,00H
        EXTERN ??MT_UartInit?relay
        FUNCTION ??MT_UartInit?relay,00H
        EXTERN ??MT_UartRegisterTaskID?relay
        FUNCTION ??MT_UartRegisterTaskID?relay,00H
        EXTERN ??RegisterForKeys?relay
        FUNCTION ??RegisterForKeys?relay,00H
        EXTERN ??SampleApp_MinMax_localization?relay
        FUNCTION ??SampleApp_MinMax_localization?relay,00H
        EXTERN ??afRegister?relay
        FUNCTION ??afRegister?relay,00H
        EXTERN ??aps_AddGroup?relay
        FUNCTION ??aps_AddGroup?relay,00H
        EXTERN ??moving_average?relay
        FUNCTION ??moving_average?relay,00H
        EXTERN ??moving_average_f?relay
        FUNCTION ??moving_average_f?relay,00H
        EXTERN ??osal_memcpy?relay
        FUNCTION ??osal_memcpy?relay,00H
        EXTERN ??osal_msg_deallocate?relay
        FUNCTION ??osal_msg_deallocate?relay,00H
        EXTERN ??osal_msg_receive?relay
        FUNCTION ??osal_msg_receive?relay,00H
        EXTERN ??osal_rand?relay
        FUNCTION ??osal_rand?relay,00H
        EXTERN ??osal_start_timerEx?relay
        FUNCTION ??osal_start_timerEx?relay,00H
        EXTERN ??osal_strlen?relay
        FUNCTION ??osal_strlen?relay,00H
        EXTERN ??printRSSIandLQI?relay
        FUNCTION ??printRSSIandLQI?relay,00H
        EXTERN AF_DataRequest
        FUNCTION AF_DataRequest,0202H
        ARGFRAME ISTACK, 0, STACK
        ARGFRAME PSTACK, 0, STACK
        ARGFRAME XSTACK, 55, STACK
        ARGFRAME IOVERLAY, 0, STATIC
        ARGFRAME DOVERLAY, 0, STATIC
        EXTERN HalLcdWriteString
        FUNCTION HalLcdWriteString,0202H
        ARGFRAME ISTACK, 0, STACK
        ARGFRAME PSTACK, 0, STACK
        ARGFRAME XSTACK, 11, STACK
        ARGFRAME IOVERLAY, 0, STATIC
        ARGFRAME DOVERLAY, 0, STATIC
        EXTERN HalUARTWrite
        FUNCTION HalUARTWrite,0202H
        ARGFRAME ISTACK, 0, STACK
        ARGFRAME PSTACK, 0, STACK
        ARGFRAME XSTACK, 24, STACK
        ARGFRAME IOVERLAY, 0, STATIC
        ARGFRAME DOVERLAY, 0, STATIC
        EXTERN MT_UartInit
        FUNCTION MT_UartInit,0202H
        ARGFRAME ISTACK, 0, STACK
        ARGFRAME PSTACK, 0, STACK
        ARGFRAME XSTACK, 11, STACK
        ARGFRAME IOVERLAY, 0, STATIC
        ARGFRAME DOVERLAY, 0, STATIC
        EXTERN MT_UartRegisterTaskID
        FUNCTION MT_UartRegisterTaskID,0202H
        ARGFRAME ISTACK, 0, STACK
        ARGFRAME PSTACK, 0, STACK
        ARGFRAME XSTACK, 11, STACK
        ARGFRAME IOVERLAY, 0, STATIC
        ARGFRAME DOVERLAY, 0, STATIC
        EXTERN RegisterForKeys
        FUNCTION RegisterForKeys,0202H
        ARGFRAME ISTACK, 0, STACK
        ARGFRAME PSTACK, 0, STACK
        ARGFRAME XSTACK, 11, STACK
        ARGFRAME IOVERLAY, 0, STATIC
        ARGFRAME DOVERLAY, 0, STATIC
        EXTERN SampleApp_MinMax_localization
        FUNCTION SampleApp_MinMax_localization,0202H
        ARGFRAME ISTACK, 0, STACK
        ARGFRAME PSTACK, 0, STACK
        ARGFRAME XSTACK, 62, STACK
        ARGFRAME IOVERLAY, 0, STATIC
        ARGFRAME DOVERLAY, 0, STATIC
        EXTERN afRegister
        FUNCTION afRegister,0202H
        ARGFRAME ISTACK, 0, STACK
        ARGFRAME PSTACK, 0, STACK
        ARGFRAME XSTACK, 11, STACK
        ARGFRAME IOVERLAY, 0, STATIC
        ARGFRAME DOVERLAY, 0, STATIC
        EXTERN aps_AddGroup
        FUNCTION aps_AddGroup,0202H
        ARGFRAME ISTACK, 0, STACK
        ARGFRAME PSTACK, 0, STACK
        ARGFRAME XSTACK, 11, STACK
        ARGFRAME IOVERLAY, 0, STATIC
        ARGFRAME DOVERLAY, 0, STATIC
        EXTERN moving_average
        FUNCTION moving_average,0202H
        ARGFRAME ISTACK, 0, STACK
        ARGFRAME PSTACK, 0, STACK
        ARGFRAME XSTACK, 28, STACK
        ARGFRAME IOVERLAY, 0, STATIC
        ARGFRAME DOVERLAY, 0, STATIC
        EXTERN moving_average_f
        FUNCTION moving_average_f,0202H
        ARGFRAME ISTACK, 0, STACK
        ARGFRAME PSTACK, 0, STACK
        ARGFRAME XSTACK, 32, STACK
        ARGFRAME IOVERLAY, 0, STATIC
        ARGFRAME DOVERLAY, 0, STATIC
        EXTERN osal_memcpy
        FUNCTION osal_memcpy,0202H
        ARGFRAME ISTACK, 0, STACK
        ARGFRAME PSTACK, 0, STACK
        ARGFRAME XSTACK, 14, STACK
        ARGFRAME IOVERLAY, 0, STATIC
        ARGFRAME DOVERLAY, 0, STATIC
        EXTERN osal_msg_deallocate
        FUNCTION osal_msg_deallocate,0202H
        ARGFRAME ISTACK, 0, STACK
        ARGFRAME PSTACK, 0, STACK
        ARGFRAME XSTACK, 12, STACK
        ARGFRAME IOVERLAY, 0, STATIC
        ARGFRAME DOVERLAY, 0, STATIC
        EXTERN osal_msg_receive
        FUNCTION osal_msg_receive,0202H
        ARGFRAME ISTACK, 0, STACK
        ARGFRAME PSTACK, 0, STACK
        ARGFRAME XSTACK, 12, STACK
        ARGFRAME IOVERLAY, 0, STATIC
        ARGFRAME DOVERLAY, 0, STATIC
        EXTERN osal_rand
        FUNCTION osal_rand,0202H
        ARGFRAME ISTACK, 0, STACK
        ARGFRAME PSTACK, 0, STACK
        ARGFRAME XSTACK, 12, STACK
        ARGFRAME IOVERLAY, 0, STATIC
        ARGFRAME DOVERLAY, 0, STATIC
        EXTERN osal_start_timerEx
        FUNCTION osal_start_timerEx,0202H
        ARGFRAME ISTACK, 0, STACK
        ARGFRAME PSTACK, 0, STACK
        ARGFRAME XSTACK, 12, STACK
        ARGFRAME IOVERLAY, 0, STATIC
        ARGFRAME DOVERLAY, 0, STATIC
        EXTERN osal_strlen
        FUNCTION osal_strlen,0202H
        ARGFRAME ISTACK, 0, STACK
        ARGFRAME PSTACK, 0, STACK
        ARGFRAME XSTACK, 17, STACK
        ARGFRAME IOVERLAY, 0, STATIC
        ARGFRAME DOVERLAY, 0, STATIC
        EXTERN printRSSIandLQI
        FUNCTION printRSSIandLQI,0202H
        ARGFRAME ISTACK, 0, STACK
        ARGFRAME PSTACK, 0, STACK
        ARGFRAME XSTACK, 10, STACK
        ARGFRAME IOVERLAY, 0, STATIC
        ARGFRAME DOVERLAY, 0, STATIC

// F:\myCloud\ZigbeeTest\Projects\zstack\Samples\SampleApp\Source\SampleApp.c
//    1 /**************************************************************************************************
//    2   Filename:       SampleApp.c
//    3   Revised:        $Date: 2009-03-18 15:56:27 -0700 (Wed, 18 Mar 2009) $
//    4   Revision:       $Revision: 19453 $
//    5 
//    6   Description:    Sample Application (no Profile).
//    7 
//    8 
//    9   Copyright 2007 Texas Instruments Incorporated. All rights reserved.
//   10 
//   11   IMPORTANT: Your use of this Software is limited to those specific rights
//   12   granted under the terms of a software license agreement between the user
//   13   who downloaded the software, his/her employer (which must be your employer)
//   14   and Texas Instruments Incorporated (the "License").  You may not use this
//   15   Software unless you agree to abide by the terms of the License. The License
//   16   limits your use, and you acknowledge, that the Software may not be modified,
//   17   copied or distributed unless embedded on a Texas Instruments microcontroller
//   18   or used solely and exclusively in conjunction with a Texas Instruments radio
//   19   frequency transceiver, which is integrated into your product.  Other than for
//   20   the foregoing purpose, you may not use, reproduce, copy, prepare derivative
//   21   works of, modify, distribute, perform, display or sell this Software and/or
//   22   its documentation for any purpose.
//   23 
//   24   YOU FURTHER ACKNOWLEDGE AND AGREE THAT THE SOFTWARE AND DOCUMENTATION ARE
//   25   PROVIDED “AS IS?WITHOUT WARRANTY OF ANY KIND, EITHER EXPRESS OR IMPLIED,
//   26   INCLUDING WITHOUT LIMITATION, ANY WARRANTY OF MERCHANTABILITY, TITLE,
//   27   NON-INFRINGEMENT AND FITNESS FOR A PARTICULAR PURPOSE. IN NO EVENT SHALL
//   28   TEXAS INSTRUMENTS OR ITS LICENSORS BE LIABLE OR OBLIGATED UNDER CONTRACT,
//   29   NEGLIGENCE, STRICT LIABILITY, CONTRIBUTION, BREACH OF WARRANTY, OR OTHER
//   30   LEGAL EQUITABLE THEORY ANY DIRECT OR INDIRECT DAMAGES OR EXPENSES
//   31   INCLUDING BUT NOT LIMITED TO ANY INCIDENTAL, SPECIAL, INDIRECT, PUNITIVE
//   32   OR CONSEQUENTIAL DAMAGES, LOST PROFITS OR LOST DATA, COST OF PROCUREMENT
//   33   OF SUBSTITUTE GOODS, TECHNOLOGY, SERVICES, OR ANY CLAIMS BY THIRD PARTIES
//   34   (INCLUDING BUT NOT LIMITED TO ANY DEFENSE THEREOF), OR OTHER SIMILAR COSTS.
//   35 
//   36   Should you have any questions regarding your right to use this Software,
//   37   contact Texas Instruments Incorporated at www.TI.com.
//   38 **************************************************************************************************/
//   39 
//   40 
//   41 
//   42 /*********************************************************************
//   43  * INCLUDES
//   44  */
//   45 #include "OSAL.h"
//   46 #include "ZGlobals.h"
//   47 #include "AF.h"
//   48 #include "aps_groups.h"
//   49 #include "ZDApp.h"
//   50 
//   51 #include "SampleApp.h"
//   52 #include "SampleAppHw.h"
//   53 
//   54 #include "OnBoard.h"
//   55 
//   56 /* HAL */
//   57 #include "hal_lcd.h"
//   58 #include "hal_led.h"
//   59 #include "hal_key.h"
//   60 #include "MT_UART.h"
//   61 #include "MT_APP.h"
//   62 #include "MT.h"
//   63 
//   64 /*********************************************************************
//   65  * MACROS
//   66  */
//   67 
//   68 /*********************************************************************
//   69  * CONSTANTS
//   70  */
//   71 
//   72 /*********************************************************************
//   73  * TYPEDEFS
//   74  */
//   75 
//   76 /*********************************************************************
//   77  * GLOBAL VARIABLES
//   78  */
//   79 
//   80 // This list should be filled with Application specific Cluster IDs.

        RSEG XDATA_ROM_C:CONST:REORDER:NOROOT(0)
        DATA8
//   81 const cId_t SampleApp_ClusterList[SAMPLEAPP_MAX_CLUSTERS] =
SampleApp_ClusterList:
        DATA16
        DW 1
        DW 2
        DW 3
//   82 {
//   83   SAMPLEAPP_PERIODIC_CLUSTERID,
//   84   CALBRATION_N_CLUSTERID,
//   85   LZQR_GROUP_CLUSTERID   //id for localization of quadrotor group 
//   86 };
//   87 

        RSEG XDATA_ROM_C:CONST:REORDER:NOROOT(0)
        DATA8
//   88 const SimpleDescriptionFormat_t SampleApp_SimpleDesc =
SampleApp_SimpleDesc:
        DB 20
        DATA16
        DW 3848
        DW 1
        DATA8
        DB 0
        DB 3
        DATA16
        DW SampleApp_ClusterList
        DATA8
        DB 3
        DATA16
        DW SampleApp_ClusterList
//   89 {
//   90   SAMPLEAPP_ENDPOINT,              //  int Endpoint;
//   91   SAMPLEAPP_PROFID,                //  uint16 AppProfId[2];
//   92   SAMPLEAPP_DEVICEID,              //  uint16 AppDeviceId[2];
//   93   SAMPLEAPP_DEVICE_VERSION,        //  int   AppDevVer:4;
//   94   SAMPLEAPP_FLAGS,                 //  int   AppFlags:4;
//   95   SAMPLEAPP_MAX_CLUSTERS,          //  uint8  AppNumInClusters;
//   96   (cId_t *)SampleApp_ClusterList,  //  uint8 *pAppInClusterList;
//   97   SAMPLEAPP_MAX_CLUSTERS,          //  uint8  AppNumInClusters;
//   98   (cId_t *)SampleApp_ClusterList   //  uint8 *pAppInClusterList;
//   99 };
//  100 
//  101 // This is the Endpoint/Interface description.  It is defined here, but
//  102 // filled-in in SampleApp_Init().  Another way to go would be to fill
//  103 // in the structure here and make it a "const" (in code space).  The
//  104 // way it's defined in this sample app it is define in RAM.

        RSEG XDATA_Z:XDATA:NOROOT(0)
        DATA8
//  105 endPointDesc_t SampleApp_epDesc;
SampleApp_epDesc:
        DS 6
        REQUIRE __INIT_XDATA_Z

        RSEG XDATA_Z:XDATA:NOROOT(0)
        DATA8
//  106 endPointDesc_t SampleApp_test_epDesc;   //not jet in use
SampleApp_test_epDesc:
        DS 6
        REQUIRE __INIT_XDATA_Z
//  107 /*********************************************************************
//  108  * EXTERNAL VARIABLES
//  109  */
//  110 
//  111 /*********************************************************************
//  112  * EXTERNAL FUNCTIONS
//  113  */
//  114 
//  115 
//  116 /*********************************************************************
//  117  * LOCAL VARIABLES
//  118  */

        RSEG XDATA_Z:XDATA:NOROOT(0)
        DATA8
//  119 uint8 SampleApp_TaskID;   // Task ID for internal task/event processing
SampleApp_TaskID:
        DS 1
        REQUIRE __INIT_XDATA_Z
//  120                           // This variable will be received when
//  121                           // SampleApp_Init() is called.

        RSEG XDATA_Z:XDATA:NOROOT(0)
        DATA8
//  122 devStates_t SampleApp_NwkState;
SampleApp_NwkState:
        DS 1
        REQUIRE __INIT_XDATA_Z
//  123 

        RSEG XDATA_Z:XDATA:NOROOT(0)
        DATA8
//  124 uint8 SampleApp_TransID;  // This is the unique message ID (counter)
SampleApp_TransID:
        DS 1
        REQUIRE __INIT_XDATA_Z
//  125 

        RSEG XDATA_Z:XDATA:NOROOT(0)
        DATA8
//  126 afAddrType_t SampleApp_Router_Periodic_DstAddr;       // address for router
SampleApp_Router_Periodic_DstAddr:
        DS 12
        REQUIRE __INIT_XDATA_Z

        RSEG XDATA_Z:XDATA:NOROOT(0)
        DATA8
//  127 afAddrType_t SampleApp_Tester_DstAddr;                // address for tester
SampleApp_Tester_DstAddr:
        DS 12
        REQUIRE __INIT_XDATA_Z

        RSEG XDATA_Z:XDATA:NOROOT(0)
        DATA8
//  128 afAddrType_t SampleApp_Quadrotor_Location_DstAddr;    // address for quadrotor/end device
SampleApp_Quadrotor_Location_DstAddr:
        DS 12
        REQUIRE __INIT_XDATA_Z
//  129 
//  130 

        RSEG XDATA_Z:XDATA:NOROOT(0)
        DATA8
//  131 aps_Group_t SampleApp_Group_1;                        // group 1 for calibration of parameter n (quadrotor, router, coord)
SampleApp_Group_1:
        DS 18
        REQUIRE __INIT_XDATA_Z

        RSEG XDATA_Z:XDATA:NOROOT(0)
        DATA8
//  132 aps_Group_t SampleApp_Group_2;                        // group 2 for communication between quadrotors (quadrotor, coord)
SampleApp_Group_2:
        DS 18
        REQUIRE __INIT_XDATA_Z
//  133 

        RSEG XDATA_Z:XDATA:NOROOT(0)
        DATA8
//  134 uint8 SampleAppPeriodicCounter = 0;
SampleAppPeriodicCounter:
        DS 1
        REQUIRE __INIT_XDATA_Z

        RSEG XDATA_Z:XDATA:NOROOT(0)
        DATA8
//  135 uint8 SampleAppFlashCounter = 0;
SampleAppFlashCounter:
        DS 1
        REQUIRE __INIT_XDATA_Z
//  136 
//  137 //user setting for quadrotor
//  138 
//  139 //buf for storing rssi values from 4 anchors

        RSEG XDATA_Z:XDATA:NOROOT(0)
        DATA8
//  140 int8 perRssiBuf1[RSSI_AVG_WINDOW_SIZE]={0};     // array for storing the rssi reading from router 1
perRssiBuf1:
        DS 32
        REQUIRE __INIT_XDATA_Z

        RSEG XDATA_Z:XDATA:NOROOT(0)
        DATA8
//  141 int8 perRssiBuf2[RSSI_AVG_WINDOW_SIZE]={0};     // array for storing the rssi reading from router 2
perRssiBuf2:
        DS 32
        REQUIRE __INIT_XDATA_Z

        RSEG XDATA_Z:XDATA:NOROOT(0)
        DATA8
//  142 int8 perRssiBuf3[RSSI_AVG_WINDOW_SIZE]={0};     // array for storing the rssi reading from router 3
perRssiBuf3:
        DS 32
        REQUIRE __INIT_XDATA_Z

        RSEG XDATA_Z:XDATA:NOROOT(0)
        DATA8
//  143 int8 perRssiBuf4[RSSI_AVG_WINDOW_SIZE]={0};     // array for storing the rssi reading from router 4
perRssiBuf4:
        DS 32
        REQUIRE __INIT_XDATA_Z
//  144 
//  145 //buf for n-value

        RSEG XDATA_Z:XDATA:NOROOT(0)
        DATA8
//  146 float pernBuf1[8]={0};  // array for storing the n-value of router 1
pernBuf1:
        DS 32
        REQUIRE __INIT_XDATA_Z

        RSEG XDATA_Z:XDATA:NOROOT(0)
        DATA8
//  147 float pernBuf2[8]={0};  // array for storing the n-value of router 2
pernBuf2:
        DS 32
        REQUIRE __INIT_XDATA_Z

        RSEG XDATA_Z:XDATA:NOROOT(0)
        DATA8
//  148 float pernBuf3[8]={0};  // array for storing the n-value of router 3
pernBuf3:
        DS 32
        REQUIRE __INIT_XDATA_Z

        RSEG XDATA_Z:XDATA:NOROOT(0)
        DATA8
//  149 float pernBuf4[8]={0};  // array for storing the n-value of router 4
pernBuf4:
        DS 32
        REQUIRE __INIT_XDATA_Z
//  150 
//  151 //buf for A calibration

        RSEG XDATA_Z:XDATA:NOROOT(0)
        DATA8
//  152 float peraBuf1[8]={0};  // array for storing the n-value of router 1
peraBuf1:
        DS 32
        REQUIRE __INIT_XDATA_Z

        RSEG XDATA_Z:XDATA:NOROOT(0)
        DATA8
//  153 float peraBuf2[8]={0};  // array for storing the n-value of router 2
peraBuf2:
        DS 32
        REQUIRE __INIT_XDATA_Z

        RSEG XDATA_Z:XDATA:NOROOT(0)
        DATA8
//  154 float peraBuf3[8]={0};  // array for storing the n-value of router 3
peraBuf3:
        DS 32
        REQUIRE __INIT_XDATA_Z

        RSEG XDATA_Z:XDATA:NOROOT(0)
        DATA8
//  155 float peraBuf4[8]={0};  // array for storing the n-value of router 4
peraBuf4:
        DS 32
        REQUIRE __INIT_XDATA_Z
//  156 
//  157 //temp rssivalue

        RSEG XDATA_Z:XDATA:NOROOT(0)
        DATA8
//  158 int8 rssivalue;         // temporary rssi value
rssivalue:
        DS 1
        REQUIRE __INIT_XDATA_Z
//  159 
//  160 // index for loop innenhalb the window

        RSEG XDATA_Z:XDATA:NOROOT(0)
        DATA8
//  161 int8 i1=0;             
i1:
        DS 1
        REQUIRE __INIT_XDATA_Z

        RSEG XDATA_Z:XDATA:NOROOT(0)
        DATA8
//  162 int8 i2=0;
i2:
        DS 1
        REQUIRE __INIT_XDATA_Z

        RSEG XDATA_Z:XDATA:NOROOT(0)
        DATA8
//  163 int8 i3=0;
i3:
        DS 1
        REQUIRE __INIT_XDATA_Z

        RSEG XDATA_Z:XDATA:NOROOT(0)
        DATA8
//  164 int8 i4=0;
i4:
        DS 1
        REQUIRE __INIT_XDATA_Z
//  165 
//  166 // index for moving filter

        RSEG XDATA_I:XDATA:NOROOT(0)
//  167 int imof1[2]={0,1};
imof1:
        DATA32
        DS 4
        REQUIRE `?<Initializer for imof1>`
        REQUIRE __INIT_XDATA_I

        RSEG XDATA_I:XDATA:NOROOT(0)
//  168 int imof2[2]={0,1};
imof2:
        DATA32
        DS 4
        REQUIRE `?<Initializer for imof2>`
        REQUIRE __INIT_XDATA_I

        RSEG XDATA_I:XDATA:NOROOT(0)
//  169 int imof3[2]={0,1};
imof3:
        DATA32
        DS 4
        REQUIRE `?<Initializer for imof3>`
        REQUIRE __INIT_XDATA_I

        RSEG XDATA_I:XDATA:NOROOT(0)
//  170 int imof4[2]={0,1};
imof4:
        DATA32
        DS 4
        REQUIRE `?<Initializer for imof4>`
        REQUIRE __INIT_XDATA_I
//  171 
//  172 // index for moving filter of n value

        RSEG XDATA_I:XDATA:NOROOT(0)
//  173 int nindex1[2]={0,1};
nindex1:
        DATA32
        DS 4
        REQUIRE `?<Initializer for nindex1>`
        REQUIRE __INIT_XDATA_I

        RSEG XDATA_I:XDATA:NOROOT(0)
//  174 int nindex2[2]={0,1};
nindex2:
        DATA32
        DS 4
        REQUIRE `?<Initializer for nindex2>`
        REQUIRE __INIT_XDATA_I

        RSEG XDATA_I:XDATA:NOROOT(0)
//  175 int nindex3[2]={0,1};
nindex3:
        DATA32
        DS 4
        REQUIRE `?<Initializer for nindex3>`
        REQUIRE __INIT_XDATA_I

        RSEG XDATA_I:XDATA:NOROOT(0)
//  176 int nindex4[2]={0,1};
nindex4:
        DATA32
        DS 4
        REQUIRE `?<Initializer for nindex4>`
        REQUIRE __INIT_XDATA_I
//  177 
//  178 // index for moving filter of a value

        RSEG XDATA_I:XDATA:NOROOT(0)
//  179 int aindex1[2]={0,1};
aindex1:
        DATA32
        DS 4
        REQUIRE `?<Initializer for aindex1>`
        REQUIRE __INIT_XDATA_I

        RSEG XDATA_I:XDATA:NOROOT(0)
//  180 int aindex2[2]={0,1};
aindex2:
        DATA32
        DS 4
        REQUIRE `?<Initializer for aindex2>`
        REQUIRE __INIT_XDATA_I

        RSEG XDATA_I:XDATA:NOROOT(0)
//  181 int aindex3[2]={0,1};
aindex3:
        DATA32
        DS 4
        REQUIRE `?<Initializer for aindex3>`
        REQUIRE __INIT_XDATA_I

        RSEG XDATA_I:XDATA:NOROOT(0)
//  182 int aindex4[2]={0,1};
aindex4:
        DATA32
        DS 4
        REQUIRE `?<Initializer for aindex4>`
        REQUIRE __INIT_XDATA_I
//  183 
//  184 // sum/average Rssi value

        RSEG XDATA_Z:XDATA:NOROOT(0)
        DATA32
//  185 float sumRssi1=0;
sumRssi1:
        DS 4
        REQUIRE __INIT_XDATA_Z

        RSEG XDATA_Z:XDATA:NOROOT(0)
        DATA32
//  186 float sumRssi2=0;
sumRssi2:
        DS 4
        REQUIRE __INIT_XDATA_Z

        RSEG XDATA_Z:XDATA:NOROOT(0)
        DATA32
//  187 float sumRssi3=0;
sumRssi3:
        DS 4
        REQUIRE __INIT_XDATA_Z

        RSEG XDATA_Z:XDATA:NOROOT(0)
        DATA32
//  188 float sumRssi4=0;
sumRssi4:
        DS 4
        REQUIRE __INIT_XDATA_Z
//  189 
//  190 //localization parameter
//  191 //float distance[4]={0,0,0,0};

        RSEG XDATA_Z:XDATA:NOROOT(0)
        DATA8
//  192 float RssiValue[4]={0,0,0,0};                   // array for storing rssi values
RssiValue:
        DS 16
        REQUIRE __INIT_XDATA_Z

        RSEG XDATA_I:XDATA:NOROOT(0)
//  193 float nValue[4]={2.0f,2.0f,2.0f,2.0f};       // initialized n parameter   --3.59f,3.94f,2.63f,5.6f 
nValue:
        DATA8
        DS 16
        REQUIRE `?<Initializer for nValue>`
        REQUIRE __INIT_XDATA_I

        RSEG XDATA_I:XDATA:NOROOT(0)
//  194 float AValue[4]={51.34f,52.91f,50.28f,51.67f};     // initialized A parameter      ??47.52f,46.53,43.56,43.56  48.28f,52.11f,53.83f,52.27f
AValue:
        DATA8
        DS 16
        REQUIRE `?<Initializer for AValue>`
        REQUIRE __INIT_XDATA_I

        RSEG XDATA_I:XDATA:NOROOT(0)
//  195 float AnchorX[4]={4.0f, 0.0f, 0.0f, 4.0f};      // router position in x direction in m
AnchorX:
        DATA8
        DS 16
        REQUIRE `?<Initializer for AnchorX>`
        REQUIRE __INIT_XDATA_I

        RSEG XDATA_I:XDATA:NOROOT(0)
//  196 float AnchorY[4]={4.0f, 4.0f, 0.0f, 0.0f};      // router position in y direction in m
AnchorY:
        DATA8
        DS 16
        REQUIRE `?<Initializer for AnchorY>`
        REQUIRE __INIT_XDATA_I

        RSEG XDATA_I:XDATA:NOROOT(0)
//  197 float AnchorZ[4]={0.7f, 0.7f, 0.7f, 0.7f};      // router position in z direction in m
AnchorZ:
        DATA8
        DS 16
        REQUIRE `?<Initializer for AnchorZ>`
        REQUIRE __INIT_XDATA_I
//  198 

        RSEG XDATA_I:XDATA:NOROOT(0)
//  199 float RefAValue[4]={48.0f,54.0f,68.0f,48.6f};  // reference A values for self calibration
RefAValue:
        DATA8
        DS 16
        REQUIRE `?<Initializer for RefAValue>`
        REQUIRE __INIT_XDATA_I

        RSEG XDATA_Z:XDATA:NOROOT(0)
        DATA8
//  200 float OffsetAValue[4]={0.0f, 0.0f, 0.0f, 0.0f};   // offset compared with reference A values
OffsetAValue:
        DS 16
        REQUIRE __INIT_XDATA_Z
//  201 
//  202 //altitude information

        RSEG XDATA_Z:XDATA:NOROOT(0)
        DATA8
//  203 float locationX[4]={0.0f, 0.0f, 0.0f, 0.0f};    // quadrotor position in x direction
locationX:
        DS 16
        REQUIRE __INIT_XDATA_Z

        RSEG XDATA_Z:XDATA:NOROOT(0)
        DATA8
//  204 float locationY[4]={0.0f, 0.0f, 0.0f, 0.0f};    // quadrotor position in y direction
locationY:
        DS 16
        REQUIRE __INIT_XDATA_Z

        RSEG XDATA_Z:XDATA:NOROOT(0)
        DATA8
//  205 float locationZ[4]={0.0f, 0.0f, 0.0f, 0.0f};    // quadrotor position in z direction
locationZ:
        DS 16
        REQUIRE __INIT_XDATA_Z
//  206 
//  207 //LParameter tempParameter;                       // structure parameter, which is not in used
//  208 
//  209 // device id

        RSEG XDATA_I:XDATA:NOROOT(0)
//  210 int DeviceID=2;                                 // device id to identify the device
DeviceID:
        DATA16
        DS 2
        REQUIRE `?<Initializer for DeviceID>`
        REQUIRE __INIT_XDATA_I
//  211                                                 // for coordinator meanless; for router is the anchor's id, except id 6,
//  212                                                 // which is preparing for tester; for quadrotor, it is the id.
//  213 /*********************************************************************
//  214  * LOCAL FUNCTIONS
//  215  */
//  216 // button setting for tester
//  217 void SampleApp_HandleKeys( uint8 shift, uint8 keys );
//  218 //deal with message(Co)
//  219 void SampleApp_MessageMSGCB( afIncomingMSGPacket_t *pckt );
//  220 //deal with message(Ed)
//  221 void SampleApp_QuadrotorMSGCB( afIncomingMSGPacket_t *pckt );
//  222 //deal with message(Ro)
//  223 void SampleApp_AnchorMSGCB( afIncomingMSGPacket_t *pckt );
//  224 //tester reading messages from broadcast
//  225 void SampleApp_Tester_calibrationMSGCB(afIncomingMSGPacket_t *pckt );
//  226 //router send period message
//  227 void SampleApp_Router_SendPeriodicMessage( int index );
//  228 //quadrotor send their location in the group
//  229 void SampleApp_Quadrotor_SendLocation( int index );
//  230 //router calibration n
//  231 void SampleApp_Router_calibrationNMessage(int index, float nvalue);
//  232 //router calibration A
//  233 void SampleApp_Router_calibrationAMessage( int index , float avalue );
//  234 //tester calibration A
//  235 void SampleApp_Tester_calibrationAMessage( int index , float A );
//  236 void SampleApp_Tester_calibration_differentAMessage(int index );
//  237 void SampleApp_Tester_calibrationOffsetAMessage(int index, float A);
//  238 
//  239 //void SampleApp_SendFlashMessage( uint16 flashTime );
//  240 //void SampleApp_SerialCMD(mtOSALSerialData_t *cmdMsg);
//  241 
//  242 //float gaussianfilter(int8* rssi, int length);
//  243 //float averagefilter(int8* rssi, int length);
//  244 //float calibrationN(int localID, int index, float rssivalue_f, float AnchorX[4], float AnchorY[4], float AnchorZ[4], float A[4]);
//  245 /*********************************************************************
//  246  * NETWORK LAYER CALLBACKS
//  247  */
//  248 
//  249 /*********************************************************************
//  250  * PUBLIC FUNCTIONS
//  251  */
//  252 
//  253 /*********************************************************************
//  254  * @fn      SampleApp_Init
//  255  *
//  256  * @brief   Initialization function for the Generic App Task.
//  257  *          This is called during initialization and should contain
//  258  *          any application specific initialization (ie. hardware
//  259  *          initialization/setup, table initialization, power up
//  260  *          notificaiton ... ).
//  261  *
//  262  * @param   task_id - the ID assigned by OSAL.  This ID should be
//  263  *                    used to send messages and set timers.
//  264  *
//  265  * @return  none
//  266  */

        RSEG BANKED_CODE:CODE:NOROOT(0)
//  267 void SampleApp_Init( uint8 task_id )
SampleApp_Init:
          CFI Block cfiBlock0 Using cfiCommon0
          CFI Function SampleApp_Init
        CODE
//  268 { 
        FUNCALL SampleApp_Init, MT_UartInit
        LOCFRAME ISTACK, 0, STACK
        LOCFRAME PSTACK, 0, STACK
        LOCFRAME XSTACK, 11, STACK
        LOCFRAME IOVERLAY, 0, STATIC
        LOCFRAME DOVERLAY, 0, STATIC
        ARGFRAME ISTACK, 0, STACK
        ARGFRAME PSTACK, 0, STACK
        ARGFRAME XSTACK, 11, STACK
        ARGFRAME IOVERLAY, 0, STATIC
        ARGFRAME DOVERLAY, 0, STATIC
        FUNCALL SampleApp_Init, MT_UartRegisterTaskID
        LOCFRAME ISTACK, 0, STACK
        LOCFRAME PSTACK, 0, STACK
        LOCFRAME XSTACK, 11, STACK
        LOCFRAME IOVERLAY, 0, STATIC
        LOCFRAME DOVERLAY, 0, STATIC
        ARGFRAME ISTACK, 0, STACK
        ARGFRAME PSTACK, 0, STACK
        ARGFRAME XSTACK, 11, STACK
        ARGFRAME IOVERLAY, 0, STATIC
        ARGFRAME DOVERLAY, 0, STATIC
        FUNCALL SampleApp_Init, HalUARTWrite
        LOCFRAME ISTACK, 0, STACK
        LOCFRAME PSTACK, 0, STACK
        LOCFRAME XSTACK, 11, STACK
        LOCFRAME IOVERLAY, 0, STATIC
        LOCFRAME DOVERLAY, 0, STATIC
        ARGFRAME ISTACK, 0, STACK
        ARGFRAME PSTACK, 0, STACK
        ARGFRAME XSTACK, 11, STACK
        ARGFRAME IOVERLAY, 0, STATIC
        ARGFRAME DOVERLAY, 0, STATIC
        FUNCALL SampleApp_Init, afRegister
        LOCFRAME ISTACK, 0, STACK
        LOCFRAME PSTACK, 0, STACK
        LOCFRAME XSTACK, 11, STACK
        LOCFRAME IOVERLAY, 0, STATIC
        LOCFRAME DOVERLAY, 0, STATIC
        ARGFRAME ISTACK, 0, STACK
        ARGFRAME PSTACK, 0, STACK
        ARGFRAME XSTACK, 11, STACK
        ARGFRAME IOVERLAY, 0, STATIC
        ARGFRAME DOVERLAY, 0, STATIC
        FUNCALL SampleApp_Init, RegisterForKeys
        LOCFRAME ISTACK, 0, STACK
        LOCFRAME PSTACK, 0, STACK
        LOCFRAME XSTACK, 11, STACK
        LOCFRAME IOVERLAY, 0, STATIC
        LOCFRAME DOVERLAY, 0, STATIC
        ARGFRAME ISTACK, 0, STACK
        ARGFRAME PSTACK, 0, STACK
        ARGFRAME XSTACK, 11, STACK
        ARGFRAME IOVERLAY, 0, STATIC
        ARGFRAME DOVERLAY, 0, STATIC
        FUNCALL SampleApp_Init, osal_memcpy
        LOCFRAME ISTACK, 0, STACK
        LOCFRAME PSTACK, 0, STACK
        LOCFRAME XSTACK, 14, STACK
        LOCFRAME IOVERLAY, 0, STATIC
        LOCFRAME DOVERLAY, 0, STATIC
        ARGFRAME ISTACK, 0, STACK
        ARGFRAME PSTACK, 0, STACK
        ARGFRAME XSTACK, 14, STACK
        ARGFRAME IOVERLAY, 0, STATIC
        ARGFRAME DOVERLAY, 0, STATIC
        FUNCALL SampleApp_Init, aps_AddGroup
        LOCFRAME ISTACK, 0, STACK
        LOCFRAME PSTACK, 0, STACK
        LOCFRAME XSTACK, 11, STACK
        LOCFRAME IOVERLAY, 0, STATIC
        LOCFRAME DOVERLAY, 0, STATIC
        ARGFRAME ISTACK, 0, STACK
        ARGFRAME PSTACK, 0, STACK
        ARGFRAME XSTACK, 11, STACK
        ARGFRAME IOVERLAY, 0, STATIC
        ARGFRAME DOVERLAY, 0, STATIC
        FUNCALL SampleApp_Init, osal_memcpy
        LOCFRAME ISTACK, 0, STACK
        LOCFRAME PSTACK, 0, STACK
        LOCFRAME XSTACK, 14, STACK
        LOCFRAME IOVERLAY, 0, STATIC
        LOCFRAME DOVERLAY, 0, STATIC
        ARGFRAME ISTACK, 0, STACK
        ARGFRAME PSTACK, 0, STACK
        ARGFRAME XSTACK, 14, STACK
        ARGFRAME IOVERLAY, 0, STATIC
        ARGFRAME DOVERLAY, 0, STATIC
        FUNCALL SampleApp_Init, aps_AddGroup
        LOCFRAME ISTACK, 0, STACK
        LOCFRAME PSTACK, 0, STACK
        LOCFRAME XSTACK, 11, STACK
        LOCFRAME IOVERLAY, 0, STATIC
        LOCFRAME DOVERLAY, 0, STATIC
        ARGFRAME ISTACK, 0, STACK
        ARGFRAME PSTACK, 0, STACK
        ARGFRAME XSTACK, 11, STACK
        ARGFRAME IOVERLAY, 0, STATIC
        ARGFRAME DOVERLAY, 0, STATIC
        FUNCALL SampleApp_Init, HalLcdWriteString
        LOCFRAME ISTACK, 0, STACK
        LOCFRAME PSTACK, 0, STACK
        LOCFRAME XSTACK, 11, STACK
        LOCFRAME IOVERLAY, 0, STATIC
        LOCFRAME DOVERLAY, 0, STATIC
        ARGFRAME ISTACK, 0, STACK
        ARGFRAME PSTACK, 0, STACK
        ARGFRAME XSTACK, 11, STACK
        ARGFRAME IOVERLAY, 0, STATIC
        ARGFRAME DOVERLAY, 0, STATIC
        MOV     A,#-0xb
        LCALL   ?BANKED_ENTER_XDATA
          CFI DPH0 load(1, XDATA, add(CFA_XSP16, literal(-1)))
          CFI DPL0 load(1, XDATA, add(CFA_XSP16, literal(-2)))
          CFI ?BRET_EXT load(1, XDATA, add(CFA_XSP16, literal(-3)))
          CFI ?RET_HIGH load(1, XDATA, add(CFA_XSP16, literal(-4)))
          CFI ?RET_LOW load(1, XDATA, add(CFA_XSP16, literal(-5)))
          CFI R7 load(1, XDATA, add(CFA_XSP16, literal(-6)))
          CFI V2 load(1, XDATA, add(CFA_XSP16, literal(-7)))
          CFI V1 load(1, XDATA, add(CFA_XSP16, literal(-8)))
          CFI V0 load(1, XDATA, add(CFA_XSP16, literal(-9)))
          CFI VB load(1, XDATA, add(CFA_XSP16, literal(-10)))
          CFI R6 load(1, XDATA, add(CFA_XSP16, literal(-11)))
          CFI CFA_SP SP+0
          CFI CFA_XSP16 add(XSP16, 11)
        ; Saved register size: 11
        ; Auto size: 0
        MOV     A,R1
        MOV     R6,A
//  269   SampleApp_TaskID = task_id;
        MOV     DPTR,#SampleApp_TaskID
        MOVX    @DPTR,A
//  270   SampleApp_NwkState = DEV_INIT;
        MOV     DPTR,#SampleApp_NwkState
        MOV     A,#0x1
        MOVX    @DPTR,A
//  271   SampleApp_TransID = 0;
        MOV     DPTR,#SampleApp_TransID
        CLR     A
        MOVX    @DPTR,A
//  272   
//  273   MT_UartInit();                  //initial uart
        ; Setup parameters for call to function MT_UartInit
        LCALL   ??MT_UartInit?relay
//  274   MT_UartRegisterTaskID(task_id); //register uart task id
        ; Setup parameters for call to function MT_UartRegisterTaskID
        MOV     A,R6
        MOV     R1,A
        LCALL   ??MT_UartRegisterTaskID?relay
//  275   HalUARTWrite(0,"UartInit OK\n", sizeof("UartInit OK\n"));// initial uart finish
        ; Setup parameters for call to function HalUARTWrite
        MOV     R4,#0xd
        MOV     R5,#0x0
        MOV     R2,#`?<Constant "UartInit OK\\n">` & 0xff
        MOV     R3,#(`?<Constant "UartInit OK\\n">` >> 8) & 0xff
        MOV     R1,#0x0
        LCALL   ??HalUARTWrite?relay
//  276   
//  277   // Device hardware initialization can be added here or in main() (Zmain.c).
//  278   // If the hardware is application specific - add it here.
//  279   // If the hardware is other parts of the device add it in main().
//  280 
//  281  #if defined ( BUILD_ALL_DEVICES )
//  282   // The "Demo" target is setup to have BUILD_ALL_DEVICES and HOLD_AUTO_START
//  283   // We are looking at a jumper (defined in SampleAppHw.c) to be jumpered
//  284   // together - if they are - we will start up a coordinator. Otherwise,
//  285   // the device will start as a router.
//  286   if ( readCoordinatorJumper() )
//  287     zgDeviceLogicalType = ZG_DEVICETYPE_COORDINATOR;
//  288   else
//  289     zgDeviceLogicalType = ZG_DEVICETYPE_ROUTER;
//  290 #endif // BUILD_ALL_DEVICES
//  291 
//  292 #if defined ( HOLD_AUTO_START )
//  293   // HOLD_AUTO_START is a compile option that will surpress ZDApp
//  294   //  from starting the device and wait for the application to
//  295   //  start the device.
//  296   ZDOInitDevice(0);
//  297 #endif
//  298 
//  299   // Setup for the periodic message's destination address
//  300   // Router broadcast to everyone
//  301 
//  302 
//  303   // Setup for the flash command's destination address - Group 1
//  304 //  SampleApp_Flash_DstAddr.addrMode = (afAddrMode_t)afAddrGroup;
//  305 //  SampleApp_Flash_DstAddr.endPoint = SAMPLEAPP_ENDPOINT;
//  306 //  SampleApp_Flash_DstAddr.addr.shortAddr = SAMPLEAPP_FLASH_GROUP;
//  307 
//  308   // Fill out the endpoint description.
//  309   SampleApp_epDesc.endPoint = SAMPLEAPP_ENDPOINT;
        MOV     DPTR,#SampleApp_epDesc
        MOV     A,#0x14
        MOVX    @DPTR,A
//  310   SampleApp_epDesc.task_id = &SampleApp_TaskID;
        INC     DPTR
        MOV     A,#SampleApp_TaskID & 0xff
        MOVX    @DPTR,A
        INC     DPTR
        MOV     A,#(SampleApp_TaskID >> 8) & 0xff
        MOVX    @DPTR,A
//  311   SampleApp_epDesc.simpleDesc
//  312             = (SimpleDescriptionFormat_t *)&SampleApp_SimpleDesc;
        INC     DPTR
        MOV     A,#SampleApp_SimpleDesc & 0xff
        MOVX    @DPTR,A
        INC     DPTR
        MOV     A,#(SampleApp_SimpleDesc >> 8) & 0xff
        LCALL   ??Subroutine38_0 & 0xFFFF
//  313   SampleApp_epDesc.latencyReq = noLatencyReqs;
//  314 
//  315   // Register the endpoint description with the AF
//  316   afRegister( &SampleApp_epDesc );
??CrossCallReturnLabel_69:
        ; Setup parameters for call to function afRegister
        MOV     R2,#SampleApp_epDesc & 0xff
        MOV     R3,#(SampleApp_epDesc >> 8) & 0xff
        LCALL   ??afRegister?relay
//  317 
//  318   // Register for all key events - This app will handle all key events
//  319   RegisterForKeys( SampleApp_TaskID );
        ; Setup parameters for call to function RegisterForKeys
        MOV     DPTR,#SampleApp_TaskID
        MOVX    A,@DPTR
        MOV     R1,A
        LCALL   ??RegisterForKeys?relay
//  320 
//  321   // By default, all devices start out in Group 1
//  322   SampleApp_Group_1.ID = SAMPLEAPP_CalN_GROUP; //0x0001
        MOV     DPTR,#SampleApp_Group_1
        LCALL   ?Subroutine24 & 0xFFFF
//  323   //SampleApp_Group.name[0]=0; or just as bellow
//  324   osal_memcpy( SampleApp_Group_1.name, "Group 1", 7 );
??CrossCallReturnLabel_72:
        ; Setup parameters for call to function osal_memcpy
        MOV     ?V0 + 0,#`?<Constant "Group 1">` & 0xff
        MOV     ?V0 + 1,#(`?<Constant "Group 1">` >> 8) & 0xff
        MOV     ?V0 + 2,A
        MOV     R0,#?V0 + 0
        LCALL   ?PUSH_XSTACK_I_THREE
          CFI CFA_XSP16 add(XSP16, 14)
        MOV     R4,#0x7
        MOV     R5,#0x0
        MOV     R2,#(SampleApp_Group_1 + 2) & 0xff
        MOV     R3,#((SampleApp_Group_1 + 2) >> 8) & 0xff
        LCALL   ??osal_memcpy?relay
        MOV     A,#0x3
        LCALL   ?DEALLOC_XSTACK8
          CFI CFA_XSP16 add(XSP16, 11)
//  325   aps_AddGroup( SAMPLEAPP_ENDPOINT, &SampleApp_Group_1 );
        ; Setup parameters for call to function aps_AddGroup
        MOV     R2,#SampleApp_Group_1 & 0xff
        MOV     R3,#(SampleApp_Group_1 >> 8) & 0xff
        MOV     R1,#0x14
        LCALL   ??aps_AddGroup?relay
//  326   
//  327    // Only end devices and coordinator can joint this Group 2
//  328   SampleApp_Group_2.ID = SAMPLEAPP_QUADROTOR_GROUP; //0x0002
        MOV     DPTR,#SampleApp_Group_2
        MOV     A,#0x2
        LCALL   ??Subroutine38_0 & 0xFFFF
//  329   //SampleApp_Group.name[0]=0; or just as bellow
//  330   osal_memcpy( SampleApp_Group_2.name, "Group 2", 7 );
??CrossCallReturnLabel_70:
        ; Setup parameters for call to function osal_memcpy
        MOV     ?V0 + 0,#`?<Constant "Group 2">` & 0xff
        MOV     ?V0 + 1,#(`?<Constant "Group 2">` >> 8) & 0xff
        MOV     R0,#?V0 + 0
        LCALL   ?PUSH_XSTACK_I_THREE
          CFI CFA_XSP16 add(XSP16, 14)
        MOV     R4,#0x7
        MOV     R5,#0x0
        MOV     R2,#(SampleApp_Group_2 + 2) & 0xff
        MOV     R3,#((SampleApp_Group_2 + 2) >> 8) & 0xff
        LCALL   ??osal_memcpy?relay
        MOV     A,#0x3
        LCALL   ?DEALLOC_XSTACK8
          CFI CFA_XSP16 add(XSP16, 11)
//  331   aps_AddGroup( SAMPLEAPP_ENDPOINT, &SampleApp_Group_2 );
        ; Setup parameters for call to function aps_AddGroup
        MOV     R2,#SampleApp_Group_2 & 0xff
        MOV     R3,#(SampleApp_Group_2 >> 8) & 0xff
        MOV     R1,#0x14
        LCALL   ??aps_AddGroup?relay
//  332 
//  333 
//  334  
//  335 
//  336 #if defined ( LCD_SUPPORTED )
//  337   HalLcdWriteString( "SampleApp", HAL_LCD_LINE_1 );
        ; Setup parameters for call to function HalLcdWriteString
        MOV     R1,#0x1
        MOV     R2,#`?<Constant "SampleApp">` & 0xff
        MOV     R3,#(`?<Constant "SampleApp">` >> 8) & 0xff
        LCALL   ??HalLcdWriteString?relay
//  338 #endif
//  339   
//  340   
//  341 }
        MOV     R7,#0x3
        LJMP    ?BANKED_LEAVE_XDATA
          CFI EndBlock cfiBlock0
//  342 
//  343 /*********************************************************************
//  344  * @fn      SampleApp_ProcessEvent
//  345  *
//  346  * @brief   Generic Application Task event processor.  This function
//  347  *          is called to process all events for the task.  Events
//  348  *          include timers, messages and any other user defined events.
//  349  *
//  350  * @param   task_id  - The OSAL assigned task ID.
//  351  * @param   events - events to process.  This is a bit map and can
//  352  *                   contain more than one event.
//  353  *
//  354  * @return  none
//  355  */

        RSEG BANKED_CODE:CODE:NOROOT(0)
//  356 uint16 SampleApp_ProcessEvent( uint8 task_id, uint16 events )
SampleApp_ProcessEvent:
          CFI Block cfiBlock1 Using cfiCommon0
          CFI Function SampleApp_ProcessEvent
        CODE
//  357 {
        FUNCALL SampleApp_ProcessEvent, osal_msg_receive
        LOCFRAME ISTACK, 0, STACK
        LOCFRAME PSTACK, 0, STACK
        LOCFRAME XSTACK, 12, STACK
        LOCFRAME IOVERLAY, 0, STATIC
        LOCFRAME DOVERLAY, 0, STATIC
        ARGFRAME ISTACK, 0, STACK
        ARGFRAME PSTACK, 0, STACK
        ARGFRAME XSTACK, 12, STACK
        ARGFRAME IOVERLAY, 0, STATIC
        ARGFRAME DOVERLAY, 0, STATIC
        FUNCALL SampleApp_ProcessEvent, osal_start_timerEx
        LOCFRAME ISTACK, 0, STACK
        LOCFRAME PSTACK, 0, STACK
        LOCFRAME XSTACK, 12, STACK
        LOCFRAME IOVERLAY, 0, STATIC
        LOCFRAME DOVERLAY, 0, STATIC
        ARGFRAME ISTACK, 0, STACK
        ARGFRAME PSTACK, 0, STACK
        ARGFRAME XSTACK, 12, STACK
        ARGFRAME IOVERLAY, 0, STATIC
        ARGFRAME DOVERLAY, 0, STATIC
        FUNCALL SampleApp_ProcessEvent, osal_msg_deallocate
        LOCFRAME ISTACK, 0, STACK
        LOCFRAME PSTACK, 0, STACK
        LOCFRAME XSTACK, 12, STACK
        LOCFRAME IOVERLAY, 0, STATIC
        LOCFRAME DOVERLAY, 0, STATIC
        ARGFRAME ISTACK, 0, STACK
        ARGFRAME PSTACK, 0, STACK
        ARGFRAME XSTACK, 12, STACK
        ARGFRAME IOVERLAY, 0, STATIC
        ARGFRAME DOVERLAY, 0, STATIC
        FUNCALL SampleApp_ProcessEvent, osal_msg_receive
        LOCFRAME ISTACK, 0, STACK
        LOCFRAME PSTACK, 0, STACK
        LOCFRAME XSTACK, 12, STACK
        LOCFRAME IOVERLAY, 0, STATIC
        LOCFRAME DOVERLAY, 0, STATIC
        ARGFRAME ISTACK, 0, STACK
        ARGFRAME PSTACK, 0, STACK
        ARGFRAME XSTACK, 12, STACK
        ARGFRAME IOVERLAY, 0, STATIC
        ARGFRAME DOVERLAY, 0, STATIC
        FUNCALL SampleApp_ProcessEvent, SampleApp_HandleKeys
        LOCFRAME ISTACK, 0, STACK
        LOCFRAME PSTACK, 0, STACK
        LOCFRAME XSTACK, 12, STACK
        LOCFRAME IOVERLAY, 0, STATIC
        LOCFRAME DOVERLAY, 0, STATIC
        ARGFRAME ISTACK, 0, STACK
        ARGFRAME PSTACK, 0, STACK
        ARGFRAME XSTACK, 12, STACK
        ARGFRAME IOVERLAY, 0, STATIC
        ARGFRAME DOVERLAY, 0, STATIC
        FUNCALL SampleApp_ProcessEvent, SampleApp_MessageMSGCB
        LOCFRAME ISTACK, 0, STACK
        LOCFRAME PSTACK, 0, STACK
        LOCFRAME XSTACK, 12, STACK
        LOCFRAME IOVERLAY, 0, STATIC
        LOCFRAME DOVERLAY, 0, STATIC
        ARGFRAME ISTACK, 0, STACK
        ARGFRAME PSTACK, 0, STACK
        ARGFRAME XSTACK, 12, STACK
        ARGFRAME IOVERLAY, 0, STATIC
        ARGFRAME DOVERLAY, 0, STATIC
        FUNCALL SampleApp_ProcessEvent, SampleApp_QuadrotorMSGCB
        LOCFRAME ISTACK, 0, STACK
        LOCFRAME PSTACK, 0, STACK
        LOCFRAME XSTACK, 12, STACK
        LOCFRAME IOVERLAY, 0, STATIC
        LOCFRAME DOVERLAY, 0, STATIC
        ARGFRAME ISTACK, 0, STACK
        ARGFRAME PSTACK, 0, STACK
        ARGFRAME XSTACK, 12, STACK
        ARGFRAME IOVERLAY, 0, STATIC
        ARGFRAME DOVERLAY, 0, STATIC
        FUNCALL SampleApp_ProcessEvent, SampleApp_AnchorMSGCB
        LOCFRAME ISTACK, 0, STACK
        LOCFRAME PSTACK, 0, STACK
        LOCFRAME XSTACK, 12, STACK
        LOCFRAME IOVERLAY, 0, STATIC
        LOCFRAME DOVERLAY, 0, STATIC
        ARGFRAME ISTACK, 0, STACK
        ARGFRAME PSTACK, 0, STACK
        ARGFRAME XSTACK, 12, STACK
        ARGFRAME IOVERLAY, 0, STATIC
        ARGFRAME DOVERLAY, 0, STATIC
        FUNCALL SampleApp_ProcessEvent, SampleApp_Tester_calibrationMSGCB
        LOCFRAME ISTACK, 0, STACK
        LOCFRAME PSTACK, 0, STACK
        LOCFRAME XSTACK, 12, STACK
        LOCFRAME IOVERLAY, 0, STATIC
        LOCFRAME DOVERLAY, 0, STATIC
        ARGFRAME ISTACK, 0, STACK
        ARGFRAME PSTACK, 0, STACK
        ARGFRAME XSTACK, 12, STACK
        ARGFRAME IOVERLAY, 0, STATIC
        ARGFRAME DOVERLAY, 0, STATIC
        FUNCALL SampleApp_ProcessEvent, osal_start_timerEx
        LOCFRAME ISTACK, 0, STACK
        LOCFRAME PSTACK, 0, STACK
        LOCFRAME XSTACK, 12, STACK
        LOCFRAME IOVERLAY, 0, STATIC
        LOCFRAME DOVERLAY, 0, STATIC
        ARGFRAME ISTACK, 0, STACK
        ARGFRAME PSTACK, 0, STACK
        ARGFRAME XSTACK, 12, STACK
        ARGFRAME IOVERLAY, 0, STATIC
        ARGFRAME DOVERLAY, 0, STATIC
        FUNCALL SampleApp_ProcessEvent, osal_start_timerEx
        LOCFRAME ISTACK, 0, STACK
        LOCFRAME PSTACK, 0, STACK
        LOCFRAME XSTACK, 12, STACK
        LOCFRAME IOVERLAY, 0, STATIC
        LOCFRAME DOVERLAY, 0, STATIC
        ARGFRAME ISTACK, 0, STACK
        ARGFRAME PSTACK, 0, STACK
        ARGFRAME XSTACK, 12, STACK
        ARGFRAME IOVERLAY, 0, STATIC
        ARGFRAME DOVERLAY, 0, STATIC
        FUNCALL SampleApp_ProcessEvent, SampleApp_Router_SendPeriodicMessage
        LOCFRAME ISTACK, 0, STACK
        LOCFRAME PSTACK, 0, STACK
        LOCFRAME XSTACK, 12, STACK
        LOCFRAME IOVERLAY, 0, STATIC
        LOCFRAME DOVERLAY, 0, STATIC
        ARGFRAME ISTACK, 0, STACK
        ARGFRAME PSTACK, 0, STACK
        ARGFRAME XSTACK, 12, STACK
        ARGFRAME IOVERLAY, 0, STATIC
        ARGFRAME DOVERLAY, 0, STATIC
        FUNCALL SampleApp_ProcessEvent, osal_rand
        LOCFRAME ISTACK, 0, STACK
        LOCFRAME PSTACK, 0, STACK
        LOCFRAME XSTACK, 12, STACK
        LOCFRAME IOVERLAY, 0, STATIC
        LOCFRAME DOVERLAY, 0, STATIC
        ARGFRAME ISTACK, 0, STACK
        ARGFRAME PSTACK, 0, STACK
        ARGFRAME XSTACK, 12, STACK
        ARGFRAME IOVERLAY, 0, STATIC
        ARGFRAME DOVERLAY, 0, STATIC
        FUNCALL SampleApp_ProcessEvent, osal_start_timerEx
        LOCFRAME ISTACK, 0, STACK
        LOCFRAME PSTACK, 0, STACK
        LOCFRAME XSTACK, 12, STACK
        LOCFRAME IOVERLAY, 0, STATIC
        LOCFRAME DOVERLAY, 0, STATIC
        ARGFRAME ISTACK, 0, STACK
        ARGFRAME PSTACK, 0, STACK
        ARGFRAME XSTACK, 12, STACK
        ARGFRAME IOVERLAY, 0, STATIC
        ARGFRAME DOVERLAY, 0, STATIC
        FUNCALL SampleApp_ProcessEvent, SampleApp_Tester_calibration_differentAMessage
        LOCFRAME ISTACK, 0, STACK
        LOCFRAME PSTACK, 0, STACK
        LOCFRAME XSTACK, 12, STACK
        LOCFRAME IOVERLAY, 0, STATIC
        LOCFRAME DOVERLAY, 0, STATIC
        ARGFRAME ISTACK, 0, STACK
        ARGFRAME PSTACK, 0, STACK
        ARGFRAME XSTACK, 12, STACK
        ARGFRAME IOVERLAY, 0, STATIC
        ARGFRAME DOVERLAY, 0, STATIC
        FUNCALL SampleApp_ProcessEvent, osal_rand
        LOCFRAME ISTACK, 0, STACK
        LOCFRAME PSTACK, 0, STACK
        LOCFRAME XSTACK, 12, STACK
        LOCFRAME IOVERLAY, 0, STATIC
        LOCFRAME DOVERLAY, 0, STATIC
        ARGFRAME ISTACK, 0, STACK
        ARGFRAME PSTACK, 0, STACK
        ARGFRAME XSTACK, 12, STACK
        ARGFRAME IOVERLAY, 0, STATIC
        ARGFRAME DOVERLAY, 0, STATIC
        FUNCALL SampleApp_ProcessEvent, osal_start_timerEx
        LOCFRAME ISTACK, 0, STACK
        LOCFRAME PSTACK, 0, STACK
        LOCFRAME XSTACK, 12, STACK
        LOCFRAME IOVERLAY, 0, STATIC
        LOCFRAME DOVERLAY, 0, STATIC
        ARGFRAME ISTACK, 0, STACK
        ARGFRAME PSTACK, 0, STACK
        ARGFRAME XSTACK, 12, STACK
        ARGFRAME IOVERLAY, 0, STATIC
        ARGFRAME DOVERLAY, 0, STATIC
        FUNCALL SampleApp_ProcessEvent, SampleApp_Tester_calibrationOffsetAMessage
        LOCFRAME ISTACK, 0, STACK
        LOCFRAME PSTACK, 0, STACK
        LOCFRAME XSTACK, 16, STACK
        LOCFRAME IOVERLAY, 0, STATIC
        LOCFRAME DOVERLAY, 0, STATIC
        ARGFRAME ISTACK, 0, STACK
        ARGFRAME PSTACK, 0, STACK
        ARGFRAME XSTACK, 16, STACK
        ARGFRAME IOVERLAY, 0, STATIC
        ARGFRAME DOVERLAY, 0, STATIC
        FUNCALL SampleApp_ProcessEvent, osal_rand
        LOCFRAME ISTACK, 0, STACK
        LOCFRAME PSTACK, 0, STACK
        LOCFRAME XSTACK, 12, STACK
        LOCFRAME IOVERLAY, 0, STATIC
        LOCFRAME DOVERLAY, 0, STATIC
        ARGFRAME ISTACK, 0, STACK
        ARGFRAME PSTACK, 0, STACK
        ARGFRAME XSTACK, 12, STACK
        ARGFRAME IOVERLAY, 0, STATIC
        ARGFRAME DOVERLAY, 0, STATIC
        FUNCALL SampleApp_ProcessEvent, osal_start_timerEx
        LOCFRAME ISTACK, 0, STACK
        LOCFRAME PSTACK, 0, STACK
        LOCFRAME XSTACK, 12, STACK
        LOCFRAME IOVERLAY, 0, STATIC
        LOCFRAME DOVERLAY, 0, STATIC
        ARGFRAME ISTACK, 0, STACK
        ARGFRAME PSTACK, 0, STACK
        ARGFRAME XSTACK, 12, STACK
        ARGFRAME IOVERLAY, 0, STATIC
        ARGFRAME DOVERLAY, 0, STATIC
        FUNCALL SampleApp_ProcessEvent, SampleApp_Quadrotor_SendLocation
        LOCFRAME ISTACK, 0, STACK
        LOCFRAME PSTACK, 0, STACK
        LOCFRAME XSTACK, 12, STACK
        LOCFRAME IOVERLAY, 0, STATIC
        LOCFRAME DOVERLAY, 0, STATIC
        ARGFRAME ISTACK, 0, STACK
        ARGFRAME PSTACK, 0, STACK
        ARGFRAME XSTACK, 12, STACK
        ARGFRAME IOVERLAY, 0, STATIC
        ARGFRAME DOVERLAY, 0, STATIC
        FUNCALL SampleApp_ProcessEvent, osal_rand
        LOCFRAME ISTACK, 0, STACK
        LOCFRAME PSTACK, 0, STACK
        LOCFRAME XSTACK, 12, STACK
        LOCFRAME IOVERLAY, 0, STATIC
        LOCFRAME DOVERLAY, 0, STATIC
        ARGFRAME ISTACK, 0, STACK
        ARGFRAME PSTACK, 0, STACK
        ARGFRAME XSTACK, 12, STACK
        ARGFRAME IOVERLAY, 0, STATIC
        ARGFRAME DOVERLAY, 0, STATIC
        FUNCALL SampleApp_ProcessEvent, osal_start_timerEx
        LOCFRAME ISTACK, 0, STACK
        LOCFRAME PSTACK, 0, STACK
        LOCFRAME XSTACK, 12, STACK
        LOCFRAME IOVERLAY, 0, STATIC
        LOCFRAME DOVERLAY, 0, STATIC
        ARGFRAME ISTACK, 0, STACK
        ARGFRAME PSTACK, 0, STACK
        ARGFRAME XSTACK, 12, STACK
        ARGFRAME IOVERLAY, 0, STATIC
        ARGFRAME DOVERLAY, 0, STATIC
        MOV     A,#-0xc
        LCALL   ?BANKED_ENTER_XDATA
          CFI DPH0 load(1, XDATA, add(CFA_XSP16, literal(-1)))
          CFI DPL0 load(1, XDATA, add(CFA_XSP16, literal(-2)))
          CFI ?BRET_EXT load(1, XDATA, add(CFA_XSP16, literal(-3)))
          CFI ?RET_HIGH load(1, XDATA, add(CFA_XSP16, literal(-4)))
          CFI ?RET_LOW load(1, XDATA, add(CFA_XSP16, literal(-5)))
          CFI R7 load(1, XDATA, add(CFA_XSP16, literal(-6)))
          CFI V3 load(1, XDATA, add(CFA_XSP16, literal(-7)))
          CFI V2 load(1, XDATA, add(CFA_XSP16, literal(-8)))
          CFI V1 load(1, XDATA, add(CFA_XSP16, literal(-9)))
          CFI V0 load(1, XDATA, add(CFA_XSP16, literal(-10)))
          CFI VB load(1, XDATA, add(CFA_XSP16, literal(-11)))
          CFI R6 load(1, XDATA, add(CFA_XSP16, literal(-12)))
          CFI CFA_SP SP+0
          CFI CFA_XSP16 add(XSP16, 12)
        ; Saved register size: 12
        ; Auto size: 0
        MOV     A,R2
        MOV     R6,A
        MOV     A,R3
        MOV     R7,A
//  358   afIncomingMSGPacket_t *MSGpkt;
//  359   (void)task_id;  // Intentionally unreferenced parameter
//  360 
//  361   if ( events & SYS_EVENT_MSG )
        ANL     A,#0x80
        JNZ     $+5
        LJMP    ??SampleApp_ProcessEvent_0 & 0xFFFF
//  362   {
//  363     MSGpkt = (afIncomingMSGPacket_t *)osal_msg_receive( SampleApp_TaskID );
        ; Setup parameters for call to function osal_msg_receive
        SJMP    ??SampleApp_ProcessEvent_1
//  364     while ( MSGpkt )
//  365     {
//  366       switch ( MSGpkt->hdr.event )
//  367       {        
//  368         // Received when a key is pressed
//  369         case KEY_CHANGE:
//  370           SampleApp_HandleKeys( ((keyChange_t *)MSGpkt)->state, ((keyChange_t *)MSGpkt)->keys );
//  371           break;
//  372 
//  373         // Received when a messages is received (OTA) for this endpoint
//  374         case AF_INCOMING_MSG_CMD:
//  375                   if ( (SampleApp_NwkState == DEV_ZB_COORD)  // coordinator deals with incoming messages
//  376                       )
//  377                   {
//  378                    SampleApp_MessageMSGCB( MSGpkt );
//  379                   }
//  380                   else if((SampleApp_NwkState == DEV_END_DEVICE)) // end device deals with incoming messages
//  381                   {
//  382                    
//  383                     SampleApp_QuadrotorMSGCB(MSGpkt);
//  384                    
//  385                   }
//  386                    else if(SampleApp_NwkState == DEV_ROUTER)      // router deals with incoming messages
//  387                   {
//  388                      if(DeviceID!=6&&DeviceID!=8)
//  389                     SampleApp_AnchorMSGCB(MSGpkt);
//  390                      else
//  391                      SampleApp_Tester_calibrationMSGCB(MSGpkt);   // sepcial router device
//  392                   }
//  393 //                  else if((SampleApp_NwkState == DEV_END_DEVICE)&&(DeviceID==6))
//  394 //                  {
//  395 //                    SampleApp_Tester_calibrationMSGCB(MSGpkt);
//  396 //                  }
//  397                     
//  398           break;
//  399 
//  400         case ZDO_STATE_CHANGE:
//  401           SampleApp_NwkState = (devStates_t)(MSGpkt->hdr.status);
//  402           if ( //(SampleApp_NwkState == DEV_ZB_COORD) ||
//  403                  (SampleApp_NwkState == DEV_ROUTER)&&(DeviceID!=6)&&(DeviceID!=8)
//  404              //|| (SampleApp_NwkState == DEV_END_DEVICE)
//  405                   
//  406               )
//  407           {
//  408             // Start sending the periodic message in a regular interval.
//  409             osal_start_timerEx( SampleApp_TaskID,
//  410                               SAMPLEAPP_SEND_PERIODIC_MSG_EVT,
//  411                               SAMPLEAPP_SEND_PERIODIC_MSG_TIMEOUT );
//  412                
//  413           }
//  414           else if((SampleApp_NwkState == DEV_ROUTER)&&(DeviceID==8))    // for special router
//  415           {
//  416             osal_start_timerEx( SampleApp_TaskID,
//  417                               SAMPLEAPP_SEND_PERIODIC_TESTER_EVT,
//  418                               SAMPLEAPP_SEND_PERIODIC_TESTER );
//  419           }
//  420           else if((SampleApp_NwkState == DEV_ROUTER)&&(DeviceID==6))    // for special fixed router
//  421           {
//  422             osal_start_timerEx( SampleApp_TaskID,
//  423                               SAMPLEAPP_SEND_PERIODIC_TESTER_EVT,
//  424                               SAMPLEAPP_SEND_PERIODIC_TESTER );
//  425           }
//  426           else if((SampleApp_NwkState == DEV_END_DEVICE)&&(DeviceID!=6))  // for end devices
??SampleApp_ProcessEvent_2:
        MOVX    A,@DPTR
        XRL     A,#0x6
        JNZ     ??SampleApp_ProcessEvent_3
        MOV     DPTR,#DeviceID
        MOVX    A,@DPTR
        XRL     A,#0x6
        JNZ     ??SampleApp_ProcessEvent_4
        INC     DPTR
        MOVX    A,@DPTR
??SampleApp_ProcessEvent_4:
        JZ      ??SampleApp_ProcessEvent_3
//  427           {
//  428               //Start sending quadrotor location after calculation
//  429                osal_start_timerEx( SampleApp_TaskID,
//  430                               SAMPLEAPP_SEND_PERIODIC_LOCATION_EVT,
//  431                               SAMPLEAPP_SEND_PERIODIC_LOCATION_TIMEOUT );
        ; Setup parameters for call to function osal_start_timerEx
        MOV     R4,#0x2c
        MOV     R5,#0x1
        MOV     R2,#0x2
??SampleApp_ProcessEvent_5:
        MOV     R3,#0x0
        MOV     DPTR,#SampleApp_TaskID
        MOVX    A,@DPTR
        MOV     R1,A
        LCALL   ??osal_start_timerEx?relay
//  432                   
//  433           }
//  434           else
//  435           {
//  436             // Device is no longer in the network
//  437           }
//  438           break;
//  439 
//  440         default:
//  441           break;
//  442       }
//  443 
//  444       // Release the memory
//  445       osal_msg_deallocate( (uint8 *)MSGpkt );
??SampleApp_ProcessEvent_3:
        ; Setup parameters for call to function osal_msg_deallocate
        MOV     R2,?V0 + 0
        MOV     R3,?V0 + 1
        LCALL   ??osal_msg_deallocate?relay
//  446 
//  447       // Next - if one is available
//  448       MSGpkt = (afIncomingMSGPacket_t *)osal_msg_receive( SampleApp_TaskID );
        ; Setup parameters for call to function osal_msg_receive
??SampleApp_ProcessEvent_1:
        MOV     DPTR,#SampleApp_TaskID
        MOVX    A,@DPTR
        MOV     R1,A
        LCALL   ??osal_msg_receive?relay
        MOV     ?V0 + 0,R2
        MOV     ?V0 + 1,R3
        MOV     A,?V0 + 0
        ORL     A,?V0 + 1
        JNZ     $+5
        LJMP    ??SampleApp_ProcessEvent_6 & 0xFFFF
        MOV     DPL,?V0 + 0
        MOV     DPH,?V0 + 1
        MOVX    A,@DPTR
        ADD     A,#-0x1a
        JZ      ??SampleApp_ProcessEvent_7
        ADD     A,#0x5a
        JZ      ??SampleApp_ProcessEvent_8
        ADD     A,#-0x11
        JZ      ??SampleApp_ProcessEvent_9
        SJMP    ??SampleApp_ProcessEvent_3
??SampleApp_ProcessEvent_8:
        ; Setup parameters for call to function SampleApp_HandleKeys
        INC     DPTR
        INC     DPTR
        INC     DPTR
        MOVX    A,@DPTR
        MOV     R2,A
        MOV     DPL,?V0 + 0
        MOV     DPH,?V0 + 1
        INC     DPTR
        INC     DPTR
        MOVX    A,@DPTR
        MOV     R1,A
        LCALL   ??SampleApp_HandleKeys?relay
        SJMP    ??SampleApp_ProcessEvent_3
??SampleApp_ProcessEvent_7:
        MOV     DPTR,#SampleApp_NwkState
        MOVX    A,@DPTR
        XRL     A,#0x9
        JNZ     ??SampleApp_ProcessEvent_10
        ; Setup parameters for call to function SampleApp_MessageMSGCB
        MOV     R2,?V0 + 0
        MOV     R3,?V0 + 1
        LCALL   ??SampleApp_MessageMSGCB?relay
        SJMP    ??SampleApp_ProcessEvent_3
??SampleApp_ProcessEvent_10:
        MOVX    A,@DPTR
        XRL     A,#0x6
        JNZ     ??SampleApp_ProcessEvent_11
        ; Setup parameters for call to function SampleApp_QuadrotorMSGCB
        MOV     R2,?V0 + 0
        MOV     R3,?V0 + 1
        LCALL   ??SampleApp_QuadrotorMSGCB?relay
        SJMP    ??SampleApp_ProcessEvent_3
??SampleApp_ProcessEvent_11:
        MOVX    A,@DPTR
        XRL     A,#0x7
        JNZ     ??SampleApp_ProcessEvent_3
        MOV     DPTR,#DeviceID
        MOVX    A,@DPTR
        XRL     A,#0x6
        JNZ     ??SampleApp_ProcessEvent_12
        INC     DPTR
        MOVX    A,@DPTR
??SampleApp_ProcessEvent_12:
        JZ      ??SampleApp_ProcessEvent_13
        MOV     DPTR,#DeviceID
        MOVX    A,@DPTR
        XRL     A,#0x8
        JNZ     ??SampleApp_ProcessEvent_14
        INC     DPTR
        MOVX    A,@DPTR
??SampleApp_ProcessEvent_14:
        JZ      ??SampleApp_ProcessEvent_13
        ; Setup parameters for call to function SampleApp_AnchorMSGCB
        MOV     R2,?V0 + 0
        MOV     R3,?V0 + 1
        LCALL   ??SampleApp_AnchorMSGCB?relay
        LJMP    ??SampleApp_ProcessEvent_3 & 0xFFFF
??SampleApp_ProcessEvent_13:
        ; Setup parameters for call to function SampleApp_Tester_calibrationMSGCB
        MOV     R2,?V0 + 0
        MOV     R3,?V0 + 1
        LCALL   ??SampleApp_Tester_calibrationMSGCB?relay
        LJMP    ??SampleApp_ProcessEvent_3 & 0xFFFF
??SampleApp_ProcessEvent_9:
        INC     DPTR
        MOVX    A,@DPTR
        MOV     DPTR,#SampleApp_NwkState
        MOVX    @DPTR,A
        XRL     A,#0x7
        JZ      $+5
        LJMP    ??SampleApp_ProcessEvent_2 & 0xFFFF
        MOV     DPTR,#DeviceID
        MOVX    A,@DPTR
        XRL     A,#0x6
        JNZ     ??SampleApp_ProcessEvent_15
        INC     DPTR
        MOVX    A,@DPTR
??SampleApp_ProcessEvent_15:
        JZ      ??SampleApp_ProcessEvent_16
        MOV     DPTR,#DeviceID
        MOVX    A,@DPTR
        XRL     A,#0x8
        JNZ     ??SampleApp_ProcessEvent_17
        INC     DPTR
        MOVX    A,@DPTR
??SampleApp_ProcessEvent_17:
        JZ      ??SampleApp_ProcessEvent_16
        ; Setup parameters for call to function osal_start_timerEx
        MOV     R4,#0x1e
        MOV     R5,#0x0
        MOV     R2,#0x1
        LJMP    ??SampleApp_ProcessEvent_5 & 0xFFFF
??SampleApp_ProcessEvent_16:
        ; Setup parameters for call to function osal_start_timerEx
        MOV     R4,#0x64
        MOV     R5,#0x0
        MOV     R2,#0x3
        LJMP    ??SampleApp_ProcessEvent_5 & 0xFFFF
//  449     }
//  450 
//  451     // return unprocessed events
//  452     return (events ^ SYS_EVENT_MSG);
??SampleApp_ProcessEvent_6:
        MOV     A,R6
        MOV     R2,A
        MOV     A,R7
        XRL     A,#0x80
        SJMP    ??SampleApp_ProcessEvent_18
//  453   }
//  454 
//  455   // Send a message out - This event is generated by a timer
//  456   //  (setup in SampleApp_Init()).
//  457   // anchor sends period message to help ed to localise itself 
//  458   if ( (events & SAMPLEAPP_SEND_PERIODIC_MSG_EVT)&&(DeviceID!=6)&&(DeviceID!=8) )
??SampleApp_ProcessEvent_0:
        MOV     A,R6
        ANL     A,#0x3
        MOV     R0,A
        MOV     A,R6
        XRL     A,#0x3
        MOV     ?V0 + 0,A
        MOV     A,R7
        MOV     ?V0 + 1,A
        MOV     A,R6
        MOV     C,0xE0 /* A   */.0
        JNC     ??SampleApp_ProcessEvent_19
        MOV     DPTR,#DeviceID
        MOVX    A,@DPTR
        XRL     A,#0x6
        JNZ     ??SampleApp_ProcessEvent_20
        INC     DPTR
        MOVX    A,@DPTR
??SampleApp_ProcessEvent_20:
        JZ      ??SampleApp_ProcessEvent_21
        MOV     DPTR,#DeviceID
        MOVX    A,@DPTR
        XRL     A,#0x8
        JNZ     ??SampleApp_ProcessEvent_22
        INC     DPTR
        MOVX    A,@DPTR
??SampleApp_ProcessEvent_22:
        JZ      ??SampleApp_ProcessEvent_19
//  459   {
//  460     // Send the periodic message
//  461     SampleApp_Router_SendPeriodicMessage(DeviceID);
        ; Setup parameters for call to function SampleApp_Router_SendPeriodicMessage
        LCALL   ?Subroutine19 & 0xFFFF
??CrossCallReturnLabel_45:
        LCALL   ??SampleApp_Router_SendPeriodicMessage?relay
//  462 
//  463     // Setup to send message again in normal period (+ a little jitter)
//  464     osal_start_timerEx( SampleApp_TaskID, SAMPLEAPP_SEND_PERIODIC_MSG_EVT,
//  465         (SAMPLEAPP_SEND_PERIODIC_MSG_TIMEOUT + (osal_rand() & 0x0003)) );
        ; Setup parameters for call to function osal_rand
        LCALL   ??osal_rand?relay
        ; Setup parameters for call to function osal_start_timerEx
        MOV     A,R2
        ANL     A,#0x3
        ADD     A,#0x1e
        MOV     R4,A
        MOV     R5,#0x0
        MOV     R2,#0x1
        MOV     R3,#0x0
        MOV     DPTR,#SampleApp_TaskID
        MOVX    A,@DPTR
        MOV     R1,A
        LCALL   ??osal_start_timerEx?relay
//  466 
//  467     // return unprocessed events
//  468     return (events ^ SAMPLEAPP_SEND_PERIODIC_MSG_EVT);
        MOV     A,R6
        XRL     A,#0x1
??SampleApp_ProcessEvent_23:
        MOV     R2,A
        MOV     A,R7
??SampleApp_ProcessEvent_18:
        MOV     R3,A
        SJMP    ??SampleApp_ProcessEvent_24
//  469   }
//  470   
//  471   // special anchor with id = 8
//  472     if ( (events & SAMPLEAPP_SEND_PERIODIC_TESTER_EVT)&&(DeviceID==8) )
??SampleApp_ProcessEvent_19:
        MOV     A,R0
        JNZ     $+5
        LJMP    ??SampleApp_ProcessEvent_25 & 0xFFFF
        MOV     DPTR,#DeviceID
        MOVX    A,@DPTR
        XRL     A,#0x8
        JNZ     ??SampleApp_ProcessEvent_26
        INC     DPTR
        MOVX    A,@DPTR
??SampleApp_ProcessEvent_26:
        JNZ     ??SampleApp_ProcessEvent_27
//  473   {
//  474     static int index;
//  475     if (index<5)
        MOV     DPTR,#??index
        LCALL   ?Subroutine16 & 0xFFFF
??CrossCallReturnLabel_23:
        MOV     DPTR,#??index
        JNC     ??SampleApp_ProcessEvent_28
//  476     // Send the periodic message
//  477     {
//  478       SampleApp_Tester_calibration_differentAMessage(index);
        ; Setup parameters for call to function SampleApp_Tester_calibration_differentAMessage
        LCALL   ??Subroutine28_0 & 0xFFFF
??CrossCallReturnLabel_41:
        LCALL   ??SampleApp_Tester_calibration_differentAMessag
//  479       index++;  // move to next devices
        MOV     DPTR,#??index
        LCALL   ?Subroutine15 & 0xFFFF
//  480     }
??CrossCallReturnLabel_20:
        SJMP    ??SampleApp_ProcessEvent_29
//  481     else
//  482     {index=1;}
??SampleApp_ProcessEvent_28:
        MOV     A,#0x1
        MOVX    @DPTR,A
        INC     DPTR
        CLR     A
??SampleApp_ProcessEvent_29:
        MOVX    @DPTR,A
//  483     // Setup to send message again in normal period (+ a little jitter)
//  484     osal_start_timerEx( SampleApp_TaskID, SAMPLEAPP_SEND_PERIODIC_TESTER_EVT,
//  485         (SAMPLEAPP_SEND_PERIODIC_LOCATION_TIMEOUT + (osal_rand() & 0x0002)) );
        ; Setup parameters for call to function osal_rand
        LCALL   ??osal_rand?relay
        ; Setup parameters for call to function osal_start_timerEx
        MOV     A,R2
        ANL     A,#0x2
        ADD     A,#0x2c
        MOV     R4,A
        MOV     R5,#0x1
        MOV     R2,#0x3
        MOV     R3,#0x0
        MOV     DPTR,#SampleApp_TaskID
        MOVX    A,@DPTR
        MOV     R1,A
        LCALL   ??osal_start_timerEx?relay
//  486 
//  487     // return unprocessed events
//  488     return (events ^ SAMPLEAPP_SEND_PERIODIC_TESTER_EVT);
        MOV     R2,?V0 + 0
        MOV     R3,?V0 + 1
        SJMP    ??SampleApp_ProcessEvent_24
//  489   }
//  490 
//  491    // special anchor with id = 6
//  492     if ( (events & SAMPLEAPP_SEND_PERIODIC_TESTER_EVT)&&(DeviceID==6) )
??SampleApp_ProcessEvent_21:
        MOV     A,R0
        JNZ     ??SampleApp_ProcessEvent_30
//  493   {
//  494     static int index;
//  495     if (index<5)
//  496     // Send the periodic message
//  497     {
//  498      SampleApp_Tester_calibrationOffsetAMessage(index, OffsetAValue[index-1]);
//  499       index++;  // move to next devices
//  500     }
//  501     else
//  502     {
//  503       index=1;
//  504     }
//  505     // Setup to send message again in normal period (+ a little jitter)
//  506     osal_start_timerEx( SampleApp_TaskID, SAMPLEAPP_SEND_PERIODIC_TESTER_EVT,
//  507         (SAMPLEAPP_SEND_PERIODIC_LOCATION_TIMEOUT + (osal_rand() & 0x0002)) );
//  508 
//  509     // return unprocessed events
//  510     return (events ^ SAMPLEAPP_SEND_PERIODIC_TESTER_EVT);
//  511   }
//  512   
//  513   
//  514    // Send a location message out (ED)
//  515     if ( (events & SAMPLEAPP_SEND_PERIODIC_LOCATION_EVT)&&(DeviceID!=6) )
//  516   {
//  517     // Send the periodic message
//  518     SampleApp_Quadrotor_SendLocation(DeviceID);
//  519 
//  520     // Setup to send message again in normal period (+ a little jitter)
//  521     osal_start_timerEx( SampleApp_TaskID, SAMPLEAPP_SEND_PERIODIC_LOCATION_EVT,
//  522         (SAMPLEAPP_SEND_PERIODIC_LOCATION_TIMEOUT + (osal_rand() & 0x000E)) );
//  523 
//  524     // return unprocessed events
//  525     return (events ^ SAMPLEAPP_SEND_PERIODIC_LOCATION_EVT);
//  526   }
//  527   
//  528   
//  529   
//  530   // Discard unknown events
//  531   return 0;
??SampleApp_ProcessEvent_31:
        MOV     R2,#0x0
        MOV     R3,#0x0
??SampleApp_ProcessEvent_24:
        MOV     R7,#0x4
        LJMP    ?BANKED_LEAVE_XDATA
??SampleApp_ProcessEvent_27:
        MOV     DPTR,#DeviceID
        MOVX    A,@DPTR
        XRL     A,#0x6
        JNZ     ??SampleApp_ProcessEvent_32
        INC     DPTR
        MOVX    A,@DPTR
??SampleApp_ProcessEvent_32:
        JNZ     ??SampleApp_ProcessEvent_25
??SampleApp_ProcessEvent_30:
        MOV     DPTR,#??index_1
        LCALL   ?Subroutine16 & 0xFFFF
??CrossCallReturnLabel_24:
        MOV     DPTR,#??index_1
        JNC     ??SampleApp_ProcessEvent_33
        ; Setup parameters for call to function SampleApp_Tester_calibrationOffsetAMessage
        MOVX    A,@DPTR
        MOV     ?V0 + 2,A
        INC     DPTR
        MOVX    A,@DPTR
        MOV     ?V0 + 3,A
        MOV     A,#0x2
        MOV     R0,#?V0 + 2
        LCALL   ?S_SHL
        MOV     A,#(OffsetAValue + 252) & 0xff
        ADD     A,?V0 + 2
        MOV     DPL,A
        MOV     A,#((OffsetAValue - 4) >> 8) & 0xff
        ADDC    A,?V0 + 3
        MOV     DPH,A
        LCALL   ?PUSH_XSTACK8_X_FOUR
          CFI CFA_XSP16 add(XSP16, 16)
        MOV     DPTR,#??index_1
        LCALL   ??Subroutine28_0 & 0xFFFF
??CrossCallReturnLabel_42:
        LCALL   ??SampleApp_Tester_calibrationOffsetAMessage?re
        MOV     A,#0x4
        LCALL   ?DEALLOC_XSTACK8
          CFI CFA_XSP16 add(XSP16, 12)
        MOV     DPTR,#??index_1
        LCALL   ?Subroutine15 & 0xFFFF
??CrossCallReturnLabel_21:
        SJMP    ??SampleApp_ProcessEvent_29
??SampleApp_ProcessEvent_33:
        MOV     A,#0x1
        MOVX    @DPTR,A
        INC     DPTR
        CLR     A
??SampleApp_ProcessEvent_34:
        SJMP    ??SampleApp_ProcessEvent_29
        ; Setup parameters for call to function osal_rand
??SampleApp_ProcessEvent_25:
        MOV     A,R6
        ANL     A,#0x2
        JZ      ??SampleApp_ProcessEvent_31
        MOV     DPTR,#DeviceID
        MOVX    A,@DPTR
        XRL     A,#0x6
        JNZ     ??SampleApp_ProcessEvent_35
        INC     DPTR
        MOVX    A,@DPTR
??SampleApp_ProcessEvent_35:
        JZ      ??SampleApp_ProcessEvent_31
        ; Setup parameters for call to function SampleApp_Quadrotor_SendLocation
        LCALL   ?Subroutine19 & 0xFFFF
??CrossCallReturnLabel_46:
        LCALL   ??SampleApp_Quadrotor_SendLocation?relay
        ; Setup parameters for call to function osal_rand
        LCALL   ??osal_rand?relay
        ; Setup parameters for call to function osal_start_timerEx
        MOV     A,R2
        ANL     A,#0xe
        ADD     A,#0x2c
        MOV     R4,A
        MOV     R5,#0x1
        MOV     R2,#0x2
        MOV     R3,#0x0
        MOV     DPTR,#SampleApp_TaskID
        MOVX    A,@DPTR
        MOV     R1,A
        LCALL   ??osal_start_timerEx?relay
        MOV     A,R6
        XRL     A,#0x2
        LJMP    ??SampleApp_ProcessEvent_23 & 0xFFFF
          CFI EndBlock cfiBlock1
//  532 }

        RSEG BANKED_CODE:CODE:NOROOT(0)
?Subroutine16:
          CFI Block cfiCond2 Using cfiCommon0
          CFI Function SampleApp_ProcessEvent
          CFI Conditional ??CrossCallReturnLabel_23
          CFI R6 load(1, XDATA, add(CFA_XSP16, literal(-12)))
          CFI VB load(1, XDATA, add(CFA_XSP16, literal(-11)))
          CFI V0 load(1, XDATA, add(CFA_XSP16, literal(-10)))
          CFI V1 load(1, XDATA, add(CFA_XSP16, literal(-9)))
          CFI V2 load(1, XDATA, add(CFA_XSP16, literal(-8)))
          CFI V3 load(1, XDATA, add(CFA_XSP16, literal(-7)))
          CFI R7 load(1, XDATA, add(CFA_XSP16, literal(-6)))
          CFI ?RET_LOW load(1, XDATA, add(CFA_XSP16, literal(-5)))
          CFI ?RET_HIGH load(1, XDATA, add(CFA_XSP16, literal(-4)))
          CFI ?BRET_EXT load(1, XDATA, add(CFA_XSP16, literal(-3)))
          CFI DPL0 load(1, XDATA, add(CFA_XSP16, literal(-2)))
          CFI DPH0 load(1, XDATA, add(CFA_XSP16, literal(-1)))
          CFI CFA_SP SP+0
          CFI CFA_XSP16 add(XSP16, 12)
          CFI Block cfiCond3 Using cfiCommon0
          CFI (cfiCond3) Function SampleApp_ProcessEvent
          CFI (cfiCond3) Conditional ??CrossCallReturnLabel_24
          CFI (cfiCond3) R6 load(1, XDATA, add(CFA_XSP16, literal(-12)))
          CFI (cfiCond3) VB load(1, XDATA, add(CFA_XSP16, literal(-11)))
          CFI (cfiCond3) V0 load(1, XDATA, add(CFA_XSP16, literal(-10)))
          CFI (cfiCond3) V1 load(1, XDATA, add(CFA_XSP16, literal(-9)))
          CFI (cfiCond3) V2 load(1, XDATA, add(CFA_XSP16, literal(-8)))
          CFI (cfiCond3) V3 load(1, XDATA, add(CFA_XSP16, literal(-7)))
          CFI (cfiCond3) R7 load(1, XDATA, add(CFA_XSP16, literal(-6)))
          CFI (cfiCond3) ?RET_LOW load(1, XDATA, add(CFA_XSP16, literal(-5)))
          CFI (cfiCond3) ?RET_HIGH load(1, XDATA, add(CFA_XSP16, literal(-4)))
          CFI (cfiCond3) ?BRET_EXT load(1, XDATA, add(CFA_XSP16, literal(-3)))
          CFI (cfiCond3) DPL0 load(1, XDATA, add(CFA_XSP16, literal(-2)))
          CFI (cfiCond3) DPH0 load(1, XDATA, add(CFA_XSP16, literal(-1)))
          CFI (cfiCond3) CFA_SP SP+0
          CFI (cfiCond3) CFA_XSP16 add(XSP16, 12)
          CFI Block cfiPicker4 Using cfiCommon1
          CFI (cfiPicker4) NoFunction
          CFI (cfiPicker4) Picker
        CLR     C
        MOVX    A,@DPTR
        SUBB    A,#0x5
        INC     DPTR
        MOVX    A,@DPTR
        SUBB    A,#0x0
        MOV     C,0xD0 /* PSW */.2
        XRL     A,PSW
        RLC     A
        RET
          CFI EndBlock cfiCond2
          CFI EndBlock cfiCond3
          CFI EndBlock cfiPicker4

        RSEG XDATA_Z:XDATA:NOROOT(0)
        DATA16
??index:
        DS 2
        REQUIRE __INIT_XDATA_Z

        RSEG XDATA_Z:XDATA:NOROOT(0)
        DATA16
??index_1:
        DS 2
        REQUIRE __INIT_XDATA_Z
//  533 
//  534 /*********************************************************************
//  535  * Event Generation Functions
//  536  */
//  537 /*********************************************************************
//  538  * @fn      SampleApp_HandleKeys
//  539  *
//  540  * @brief   Handles all key events for this device.
//  541  *
//  542  * @param   shift - true if in shift/alt.
//  543  * @param   keys - bit field for key events. Valid entries:
//  544  *                 HAL_KEY_SW_2
//  545  *                 HAL_KEY_SW_1
//  546  *
//  547  * @return  none
//  548  */

        RSEG BANKED_CODE:CODE:NOROOT(0)
//  549 void SampleApp_HandleKeys( uint8 shift, uint8 keys )
SampleApp_HandleKeys:
          CFI Block cfiBlock5 Using cfiCommon0
          CFI Function SampleApp_HandleKeys
        CODE
//  550 {
        FUNCALL SampleApp_HandleKeys, SampleApp_Tester_calibrationAMessage
        LOCFRAME ISTACK, 0, STACK
        LOCFRAME PSTACK, 0, STACK
        LOCFRAME XSTACK, 14, STACK
        LOCFRAME IOVERLAY, 0, STATIC
        LOCFRAME DOVERLAY, 0, STATIC
        ARGFRAME ISTACK, 0, STACK
        ARGFRAME PSTACK, 0, STACK
        ARGFRAME XSTACK, 14, STACK
        ARGFRAME IOVERLAY, 0, STATIC
        ARGFRAME DOVERLAY, 0, STATIC
        MOV     A,#-0xa
        LCALL   ?BANKED_ENTER_XDATA
          CFI DPH0 load(1, XDATA, add(CFA_XSP16, literal(-1)))
          CFI DPL0 load(1, XDATA, add(CFA_XSP16, literal(-2)))
          CFI ?BRET_EXT load(1, XDATA, add(CFA_XSP16, literal(-3)))
          CFI ?RET_HIGH load(1, XDATA, add(CFA_XSP16, literal(-4)))
          CFI ?RET_LOW load(1, XDATA, add(CFA_XSP16, literal(-5)))
          CFI R7 load(1, XDATA, add(CFA_XSP16, literal(-6)))
          CFI V1 load(1, XDATA, add(CFA_XSP16, literal(-7)))
          CFI V0 load(1, XDATA, add(CFA_XSP16, literal(-8)))
          CFI VB load(1, XDATA, add(CFA_XSP16, literal(-9)))
          CFI R6 load(1, XDATA, add(CFA_XSP16, literal(-10)))
          CFI CFA_SP SP+0
          CFI CFA_XSP16 add(XSP16, 10)
        ; Saved register size: 10
        ; Auto size: 0
        MOV     A,R2
//  551   (void)shift;  // Intentionally unreferenced parameter
//  552   
//  553   if ( keys & HAL_KEY_SW_1 && (DeviceID==6))
        MOV     C,0xE0 /* A   */.0
        JNC     ??SampleApp_HandleKeys_0
        MOV     DPTR,#DeviceID
        MOVX    A,@DPTR
        XRL     A,#0x6
        JNZ     ??SampleApp_HandleKeys_1
        INC     DPTR
        MOVX    A,@DPTR
??SampleApp_HandleKeys_1:
        JNZ     ??SampleApp_HandleKeys_0
//  554   {
//  555     /* This key sends the Flash Command is sent to Group 1.
//  556      * This device will not receive the Flash Command from this
//  557      * device (even if it belongs to group 1).
//  558      */
//  559     //SampleApp_SendFlashMessage( SAMPLEAPP_FLASH_DURATION );
//  560      
//  561      static int aindex;
//  562      if(aindex!=4)
        MOV     DPTR,#??aindex
        MOVX    A,@DPTR
        XRL     A,#0x4
        JNZ     ??SampleApp_HandleKeys_2
        INC     DPTR
        MOVX    A,@DPTR
??SampleApp_HandleKeys_2:
        MOV     DPTR,#??aindex
        JZ      ??SampleApp_HandleKeys_3
//  563      {
//  564         SampleApp_Tester_calibrationAMessage( aindex+1 , RssiValue[aindex] );
        ; Setup parameters for call to function SampleApp_Tester_calibrationAMessage
        MOVX    A,@DPTR
        MOV     ?V0 + 0,A
        INC     DPTR
        MOVX    A,@DPTR
        MOV     ?V0 + 1,A
        MOV     A,#0x2
        MOV     R0,#?V0 + 0
        LCALL   ?S_SHL
        MOV     A,#RssiValue & 0xff
        ADD     A,?V0 + 0
        MOV     DPL,A
        MOV     A,#(RssiValue >> 8) & 0xff
        ADDC    A,?V0 + 1
        MOV     DPH,A
        LCALL   ?PUSH_XSTACK8_X_FOUR
          CFI CFA_XSP16 add(XSP16, 14)
        MOV     DPTR,#??aindex
        MOVX    A,@DPTR
        ADD     A,#0x1
        MOV     R2,A
        INC     DPTR
        MOVX    A,@DPTR
        ADDC    A,#0x0
        MOV     R3,A
        LCALL   ??SampleApp_Tester_calibrationAMessage?relay
        MOV     A,#0x4
        LCALL   ?DEALLOC_XSTACK8
          CFI CFA_XSP16 add(XSP16, 10)
//  565         aindex++;
        MOV     DPTR,#??aindex
        LCALL   ?Subroutine15 & 0xFFFF
//  566      }
??CrossCallReturnLabel_22:
        SJMP    ??SampleApp_HandleKeys_4
//  567      else
//  568      {
//  569        aindex=0;
??SampleApp_HandleKeys_3:
        CLR     A
        MOVX    @DPTR,A
        INC     DPTR
??SampleApp_HandleKeys_4:
        MOVX    @DPTR,A
          CFI EndBlock cfiBlock5
//  570      }
//  571   }
//  572 
//  573   if ( keys & HAL_KEY_SW_2 )
//  574   {
//  575     /* The Flashr Command is sent to Group 1.
//  576      * This key toggles this device in and out of group 1.
//  577      * If this device doesn't belong to group 1, this application
//  578      * will not receive the Flash command sent to group 1.
//  579      */
//  580     
//  581 //    aps_Group_t *grp;
//  582 //    grp = aps_FindGroup( SAMPLEAPP_ENDPOINT, SAMPLEAPP_FLASH_GROUP );
//  583 //    if ( grp )
//  584 //    {
//  585 //      // Remove from the group
//  586 //      aps_RemoveGroup( SAMPLEAPP_ENDPOINT, SAMPLEAPP_FLASH_GROUP );
//  587 //    }
//  588 //    else
//  589 //    {
//  590 //      // Add to the flash group
//  591 //      aps_AddGroup( SAMPLEAPP_ENDPOINT, &SampleApp_Group );
//  592 //    }
//  593   }
//  594 }
??SampleApp_HandleKeys_0:
        REQUIRE ?Subroutine0
        ; // Fall through to label ?Subroutine0

        RSEG BANKED_CODE:CODE:NOROOT(0)
?Subroutine0:
          CFI Block cfiBlock6 Using cfiCommon0
          CFI NoFunction
          CFI CFA_SP SP+0
          CFI CFA_XSP16 add(XSP16, 10)
          CFI VB load(1, XDATA, add(CFA_XSP16, literal(-9)))
          CFI DPL0 load(1, XDATA, add(CFA_XSP16, literal(-2)))
          CFI DPH0 load(1, XDATA, add(CFA_XSP16, literal(-1)))
          CFI R6 load(1, XDATA, add(CFA_XSP16, literal(-10)))
          CFI R7 load(1, XDATA, add(CFA_XSP16, literal(-6)))
          CFI V0 load(1, XDATA, add(CFA_XSP16, literal(-8)))
          CFI V1 load(1, XDATA, add(CFA_XSP16, literal(-7)))
          CFI ?BRET_EXT load(1, XDATA, add(CFA_XSP16, literal(-3)))
          CFI ?RET_HIGH load(1, XDATA, add(CFA_XSP16, literal(-4)))
          CFI ?RET_LOW load(1, XDATA, add(CFA_XSP16, literal(-5)))
        MOV     R7,#0x2
        LJMP    ?BANKED_LEAVE_XDATA
          CFI EndBlock cfiBlock6

        RSEG BANKED_CODE:CODE:NOROOT(0)
?Subroutine15:
          CFI Block cfiCond7 Using cfiCommon0
          CFI Function SampleApp_ProcessEvent
          CFI Conditional ??CrossCallReturnLabel_20
          CFI R6 load(1, XDATA, add(CFA_XSP16, literal(-12)))
          CFI VB load(1, XDATA, add(CFA_XSP16, literal(-11)))
          CFI V0 load(1, XDATA, add(CFA_XSP16, literal(-10)))
          CFI V1 load(1, XDATA, add(CFA_XSP16, literal(-9)))
          CFI V2 load(1, XDATA, add(CFA_XSP16, literal(-8)))
          CFI V3 load(1, XDATA, add(CFA_XSP16, literal(-7)))
          CFI R7 load(1, XDATA, add(CFA_XSP16, literal(-6)))
          CFI ?RET_LOW load(1, XDATA, add(CFA_XSP16, literal(-5)))
          CFI ?RET_HIGH load(1, XDATA, add(CFA_XSP16, literal(-4)))
          CFI ?BRET_EXT load(1, XDATA, add(CFA_XSP16, literal(-3)))
          CFI DPL0 load(1, XDATA, add(CFA_XSP16, literal(-2)))
          CFI DPH0 load(1, XDATA, add(CFA_XSP16, literal(-1)))
          CFI CFA_SP SP+0
          CFI CFA_XSP16 add(XSP16, 12)
          CFI Block cfiCond8 Using cfiCommon0
          CFI (cfiCond8) Function SampleApp_ProcessEvent
          CFI (cfiCond8) Conditional ??CrossCallReturnLabel_21
          CFI (cfiCond8) R6 load(1, XDATA, add(CFA_XSP16, literal(-12)))
          CFI (cfiCond8) VB load(1, XDATA, add(CFA_XSP16, literal(-11)))
          CFI (cfiCond8) V0 load(1, XDATA, add(CFA_XSP16, literal(-10)))
          CFI (cfiCond8) V1 load(1, XDATA, add(CFA_XSP16, literal(-9)))
          CFI (cfiCond8) V2 load(1, XDATA, add(CFA_XSP16, literal(-8)))
          CFI (cfiCond8) V3 load(1, XDATA, add(CFA_XSP16, literal(-7)))
          CFI (cfiCond8) R7 load(1, XDATA, add(CFA_XSP16, literal(-6)))
          CFI (cfiCond8) ?RET_LOW load(1, XDATA, add(CFA_XSP16, literal(-5)))
          CFI (cfiCond8) ?RET_HIGH load(1, XDATA, add(CFA_XSP16, literal(-4)))
          CFI (cfiCond8) ?BRET_EXT load(1, XDATA, add(CFA_XSP16, literal(-3)))
          CFI (cfiCond8) DPL0 load(1, XDATA, add(CFA_XSP16, literal(-2)))
          CFI (cfiCond8) DPH0 load(1, XDATA, add(CFA_XSP16, literal(-1)))
          CFI (cfiCond8) CFA_SP SP+0
          CFI (cfiCond8) CFA_XSP16 add(XSP16, 12)
          CFI Block cfiCond9 Using cfiCommon0
          CFI (cfiCond9) Function SampleApp_HandleKeys
          CFI (cfiCond9) Conditional ??CrossCallReturnLabel_22
          CFI (cfiCond9) R6 load(1, XDATA, add(CFA_XSP16, literal(-10)))
          CFI (cfiCond9) VB load(1, XDATA, add(CFA_XSP16, literal(-9)))
          CFI (cfiCond9) V0 load(1, XDATA, add(CFA_XSP16, literal(-8)))
          CFI (cfiCond9) V1 load(1, XDATA, add(CFA_XSP16, literal(-7)))
          CFI (cfiCond9) R7 load(1, XDATA, add(CFA_XSP16, literal(-6)))
          CFI (cfiCond9) ?RET_LOW load(1, XDATA, add(CFA_XSP16, literal(-5)))
          CFI (cfiCond9) ?RET_HIGH load(1, XDATA, add(CFA_XSP16, literal(-4)))
          CFI (cfiCond9) ?BRET_EXT load(1, XDATA, add(CFA_XSP16, literal(-3)))
          CFI (cfiCond9) DPL0 load(1, XDATA, add(CFA_XSP16, literal(-2)))
          CFI (cfiCond9) DPH0 load(1, XDATA, add(CFA_XSP16, literal(-1)))
          CFI (cfiCond9) CFA_SP SP+0
          CFI (cfiCond9) CFA_XSP16 add(XSP16, 10)
          CFI Block cfiPicker10 Using cfiCommon1
          CFI (cfiPicker10) NoFunction
          CFI (cfiPicker10) Picker
        MOVX    A,@DPTR
        ADD     A,#0x1
        MOVX    @DPTR,A
        INC     DPTR
        MOVX    A,@DPTR
        ADDC    A,#0x0
        RET
          CFI EndBlock cfiCond7
          CFI EndBlock cfiCond8
          CFI EndBlock cfiCond9
          CFI EndBlock cfiPicker10

        RSEG XDATA_Z:XDATA:NOROOT(0)
        DATA16
??aindex:
        DS 2
        REQUIRE __INIT_XDATA_Z
//  595 
//  596 /*********************************************************************
//  597  * LOCAL FUNCTIONS
//  598  */
//  599 
//  600 /*********************************************************************
//  601  * @fn      SampleApp_MessageMSGCB
//  602  *
//  603  * @brief   Data message processor callback.  This function processes
//  604  *          any incoming data - probably from other devices.  So, based
//  605  *          on cluster ID, perform the intended action.
//  606  *
//  607  * @param   none
//  608  *
//  609  * @return  none
//  610  */

        RSEG BANKED_CODE:CODE:NOROOT(0)
//  611 void SampleApp_MessageMSGCB( afIncomingMSGPacket_t *pkt ) //½ÓÊÕÊý¾Ý
SampleApp_MessageMSGCB:
          CFI Block cfiBlock11 Using cfiCommon0
          CFI Function SampleApp_MessageMSGCB
        CODE
//  612 {
        FUNCALL SampleApp_MessageMSGCB, HalUARTWrite
        LOCFRAME ISTACK, 0, STACK
        LOCFRAME PSTACK, 0, STACK
        LOCFRAME XSTACK, 20, STACK
        LOCFRAME IOVERLAY, 0, STATIC
        LOCFRAME DOVERLAY, 0, STATIC
        ARGFRAME ISTACK, 0, STACK
        ARGFRAME PSTACK, 0, STACK
        ARGFRAME XSTACK, 20, STACK
        ARGFRAME IOVERLAY, 0, STATIC
        ARGFRAME DOVERLAY, 0, STATIC
        MOV     A,#-0x14
        LCALL   ?BANKED_ENTER_XDATA
          CFI DPH0 load(1, XDATA, add(CFA_XSP16, literal(-1)))
          CFI DPL0 load(1, XDATA, add(CFA_XSP16, literal(-2)))
          CFI ?BRET_EXT load(1, XDATA, add(CFA_XSP16, literal(-3)))
          CFI ?RET_HIGH load(1, XDATA, add(CFA_XSP16, literal(-4)))
          CFI ?RET_LOW load(1, XDATA, add(CFA_XSP16, literal(-5)))
          CFI R7 load(1, XDATA, add(CFA_XSP16, literal(-6)))
          CFI V11 load(1, XDATA, add(CFA_XSP16, literal(-7)))
          CFI V10 load(1, XDATA, add(CFA_XSP16, literal(-8)))
          CFI V9 load(1, XDATA, add(CFA_XSP16, literal(-9)))
          CFI V8 load(1, XDATA, add(CFA_XSP16, literal(-10)))
          CFI V7 load(1, XDATA, add(CFA_XSP16, literal(-11)))
          CFI V6 load(1, XDATA, add(CFA_XSP16, literal(-12)))
          CFI V5 load(1, XDATA, add(CFA_XSP16, literal(-13)))
          CFI V4 load(1, XDATA, add(CFA_XSP16, literal(-14)))
          CFI V3 load(1, XDATA, add(CFA_XSP16, literal(-15)))
          CFI V2 load(1, XDATA, add(CFA_XSP16, literal(-16)))
          CFI V1 load(1, XDATA, add(CFA_XSP16, literal(-17)))
          CFI V0 load(1, XDATA, add(CFA_XSP16, literal(-18)))
          CFI VB load(1, XDATA, add(CFA_XSP16, literal(-19)))
          CFI R6 load(1, XDATA, add(CFA_XSP16, literal(-20)))
          CFI CFA_SP SP+0
          CFI CFA_XSP16 add(XSP16, 20)
        ; Saved register size: 20
        ; Auto size: 0
//  613   //uint16 flashTime;
//  614     float avalue=0.0f;
        MOV     ?V0 + 0,#0x0
        MOV     ?V0 + 1,#0x0
        MOV     ?V0 + 2,#0x0
        MOV     ?V0 + 3,#0x0
//  615   switch ( pkt->clusterId )
        MOV     DPL,R2
        MOV     DPH,R3
        INC     DPTR
        INC     DPTR
        INC     DPTR
        INC     DPTR
        MOVX    A,@DPTR
        MOV     ?V0 + 4,A
        INC     DPTR
        MOVX    A,@DPTR
        MOV     ?V0 + 5,A
        MOV     R0,#?V0 + 4
        LCALL   ?US_SWITCH_SPARSE
`?<Jumptable for SampleApp_MessageMSGCB>_0`:
        DATA
        DATA16
        DATA
        DATA16
        DATA
        DATA16
        DW        0
        DATA
        DATA16
        DATA
        DATA16
        DATA
        DATA16
        DW        5
        DATA
        DATA16
        DATA
        DATA16
        DATA
        DATA16
        DW        2
        DATA
        DATA16
        DATA
        DATA16
        DATA
        DATA16
        DW        ??SampleApp_MessageMSGCB_0
        DATA
        DATA16
        DATA
        DATA16
        DATA
        DATA16
        DW        3
        DATA
        DATA16
        DATA
        DATA16
        DATA
        DATA16
        DW        ??SampleApp_MessageMSGCB_1
        DATA
        DATA16
        DATA
        DATA16
        DATA
        DATA16
        DW        50
        DATA
        DATA16
        DATA
        DATA16
        DATA
        DATA16
        DW        ??SampleApp_MessageMSGCB_2
        DATA
        DATA16
        DATA
        DATA16
        DATA
        DATA16
        DW        51
        DATA
        DATA16
        DATA
        DATA16
        DATA
        DATA16
        DW        ??SampleApp_MessageMSGCB_3
        DATA
        DATA16
        DATA
        DATA16
        DATA
        DATA16
        DW        52
        DATA
        DATA16
        DATA
        DATA16
        DATA
        DATA16
        DW        ??SampleApp_MessageMSGCB_4
        DATA
        DATA16
        DATA
        DATA16
        DW        ??SampleApp_MessageMSGCB_5
        CODE
//  616   {
//  617     case SAMPLEAPP_PERIODIC_CLUSTERID:
//  618    //  printRSSIandLQI(pkt,0);
//  619     // HalUARTWrite(0, pkt->cmd.Data, pkt->cmd.DataLength); 
//  620       break;
//  621 //    case SAMPLEAPP_PERIODIC_CLUSTERID:
//  622 //      { // unsigned char* rssivalue;
//  623 //        //  uint8 rssiE=25;
//  624 //         // int abc=3;
//  625 //         // rssivalue=&rssiE;
//  626 //       // int8 rssivalue;
//  627 //        rssivalue=0xff-pkt->rssi;
//  628 //        unsigned char rssi_buf[3];
//  629 //        rssi_buf[0]='-';
//  630 //        rssi_buf[1]=rssivalue/10+0x30;
//  631 //        rssi_buf[2]=rssivalue%10+0x30;
//  632 //     // HalUARTWrite(0, "Rx:", 3);      
//  633 //      HalUARTWrite(0, pkt->cmd.Data, pkt->cmd.DataLength); 
//  634 //  
//  635 //                
//  636 //    //  HalUARTWrite(0, "\n", 1); 
//  637 //      HalUARTWrite(0, "RSSI:", 5);  
//  638 //      HalUARTWrite(0,rssi_buf,3);
//  639 ////     HalUARTWrite(0, "\r\n", 2); 
//  640 //////     
//  641 ////     uint8 lqivalue;
//  642 ////     lqivalue=pkt->LinkQuality;
//  643 ////     unsigned char lqi_buf[3];
//  644 ////      lqi_buf[0]=lqivalue/100+0x30;
//  645 ////        lqi_buf[1]=(lqivalue%100)/10+0x30;
//  646 ////        lqi_buf[2]=lqivalue%10+0x30;
//  647 ////      HalUARTWrite(0, "LQI:", 4);  
//  648 ////      HalUARTWrite(0,lqi_buf,3);
//  649 ////     HalUARTWrite(0, "\n", 1);         //»Ø³µ»»ÐÐ
//  650 //      break;
//  651 //      }
//  652     
//  653     
//  654 
//  655     case LZQR_GROUP_CLUSTERID: 
//  656       {
//  657        HalUARTWrite(0, pkt->cmd.Data, pkt->cmd.DataLength); 
//  658         
//  659         break;
//  660       }
//  661     case CALBRATION_N_CLUSTERID:
//  662       {
//  663         
//  664         byte alphaindex;
//  665         alphaindex=*(pkt->cmd.Data);
??SampleApp_MessageMSGCB_0:
        LCALL   ?Subroutine20 & 0xFFFF
??CrossCallReturnLabel_27:
        MOV     A,R0
        MOV     R4,A
        MOV     A,R1
        MOV     R5,A
        MOV     DPL,R4
        MOV     DPH,R5
        MOVX    A,@DPTR
        MOV     R0,A
//  666         if(alphaindex=='A')
        MOV     A,#0x41
        XRL     A,R0
        JZ      $+5
        LJMP    ??SampleApp_MessageMSGCB_6 & 0xFFFF
//  667          {  
//  668  //             HalUARTWrite(0, pkt->cmd.Data, pkt->cmd.DataLength);
//  669               byte index;
//  670               index=*(pkt->cmd.Data+1);
//  671               avalue=10.0f*(float)((int)(*(pkt->cmd.Data+3))-48)+(float)((int)(*(pkt->cmd.Data+4))-48)+0.1f*(float)((int)(*(pkt->cmd.Data+6))-48);
        LCALL   ?Subroutine14 & 0xFFFF
??CrossCallReturnLabel_17:
        LCALL   ?L_TO_FLT
        MOV     DPTR,#__Constant_41200000
        MOV     R0,#?V0 + 4
        LCALL   ?L_MOV_X
        MOV     R0,#?V0 + 0
        MOV     R1,#?V0 + 4
        LCALL   ?FLT_MUL
        MOV     DPL,R4
        MOV     DPH,R5
        LCALL   ??Subroutine32_0 & 0xFFFF
??CrossCallReturnLabel_50:
        LCALL   ?L_TO_FLT
        MOV     R0,#?V0 + 0
        MOV     R1,#?V0 + 4
        LCALL   ?FLT_ADD
        MOV     DPL,R4
        MOV     DPH,R5
        LCALL   ??Subroutine30_0 & 0xFFFF
??CrossCallReturnLabel_53:
        LCALL   ?L_TO_FLT
        MOV     DPTR,#__Constant_3dcccccd
        MOV     R0,#?V0 + 8
        LCALL   ?L_MOV_X
        MOV     R0,#?V0 + 4
        MOV     R1,#?V0 + 8
        LCALL   ?FLT_MUL
        MOV     R0,#?V0 + 0
        MOV     R1,#?V0 + 4
        LCALL   ?FLT_ADD
//  672               if(avalue>0)   
        MOV     DPTR,#__Constant_1
        MOV     R0,#?V0 + 4
        LCALL   ?L_MOV_X
        MOV     R0,#?V0 + 0
        MOV     R1,#?V0 + 4
        LCALL   ?FLT_GE
        JNC     ??SampleApp_MessageMSGCB_5
//  673               {
//  674                   switch (index)
        MOV     DPL,R4
        MOV     DPH,R5
        INC     DPTR
        MOVX    A,@DPTR
        XRL     A,#0x31
        JNZ     ??SampleApp_MessageMSGCB_2
//  675                        case '1':
//  676                           {
//  677                                   AValue[0]=avalue;
        MOV     DPTR,#AValue
        MOV     R0,#?V0 + 0
        LCALL   ?L_MOV_TO_X
//  678                                   break;
//  679                            }
//  680                        case '2':
//  681                           {
//  682                                   AValue[1]=avalue;
??SampleApp_MessageMSGCB_2:
        MOV     DPTR,#AValue + 4
        MOV     R0,#?V0 + 0
        LCALL   ?L_MOV_TO_X
//  683                                   break;
        SJMP    ??SampleApp_MessageMSGCB_5
//  684                            }
//  685                        case '3':
//  686                           {
//  687                                   AValue[2]=avalue;
??SampleApp_MessageMSGCB_3:
        MOV     DPTR,#AValue + 8
        SJMP    ??SampleApp_MessageMSGCB_7
//  688                                   break;
//  689                            }
//  690                        case '4':
//  691                           {
//  692                                   AValue[3]=avalue;
??SampleApp_MessageMSGCB_4:
        MOV     DPTR,#AValue + 12
??SampleApp_MessageMSGCB_7:
        CLR     A
        MOVX    @DPTR,A
        INC     DPTR
        MOVX    @DPTR,A
        INC     DPTR
        MOVX    @DPTR,A
        INC     DPTR
        MOVX    @DPTR,A
//  693                                   break;
        SJMP    ??SampleApp_MessageMSGCB_5
//  694                            }
//  695             
//  696                   break;
//  697               }
//  698            }
//  699         else if(alphaindex=='T')  // test signal from test anchor
??SampleApp_MessageMSGCB_6:
        MOV     A,#0x54
        XRL     A,R0
        JNZ     ??SampleApp_MessageMSGCB_5
//  700          {
//  701           HalUARTWrite(0, pkt->cmd.Data, pkt->cmd.DataLength); 
??SampleApp_MessageMSGCB_1:
        ; Setup parameters for call to function HalUARTWrite
        LCALL   ?Subroutine21 & 0xFFFF
//  702          }
//  703 //        else if(alphaindex=='O')  // test signal from test anchor
//  704 //         {
//  705 //          HalUARTWrite(0, pkt->cmd.Data, pkt->cmd.DataLength); 
//  706 //         }
//  707       }
//  708 
//  709   }
??CrossCallReturnLabel_29:
        LCALL   ??Subroutine33_0 & 0xFFFF
??CrossCallReturnLabel_56:
        LCALL   ?Subroutine26 & 0xFFFF
??CrossCallReturnLabel_38:
        LCALL   ??Subroutine28_0 & 0xFFFF
??CrossCallReturnLabel_43:
        MOV     R1,#0x0
        LCALL   ??HalUARTWrite?relay
//  710 }
??SampleApp_MessageMSGCB_5:
        LJMP    ??Subroutine37_0 & 0xFFFF
          CFI EndBlock cfiBlock11

        RSEG BANKED_CODE:CODE:NOROOT(0)
?Subroutine19:
          CFI Block cfiCond12 Using cfiCommon0
          CFI Function SampleApp_ProcessEvent
          CFI Conditional ??CrossCallReturnLabel_45
          CFI R6 load(1, XDATA, add(CFA_XSP16, literal(-12)))
          CFI VB load(1, XDATA, add(CFA_XSP16, literal(-11)))
          CFI V0 load(1, XDATA, add(CFA_XSP16, literal(-10)))
          CFI V1 load(1, XDATA, add(CFA_XSP16, literal(-9)))
          CFI V2 load(1, XDATA, add(CFA_XSP16, literal(-8)))
          CFI V3 load(1, XDATA, add(CFA_XSP16, literal(-7)))
          CFI R7 load(1, XDATA, add(CFA_XSP16, literal(-6)))
          CFI ?RET_LOW load(1, XDATA, add(CFA_XSP16, literal(-5)))
          CFI ?RET_HIGH load(1, XDATA, add(CFA_XSP16, literal(-4)))
          CFI ?BRET_EXT load(1, XDATA, add(CFA_XSP16, literal(-3)))
          CFI DPL0 load(1, XDATA, add(CFA_XSP16, literal(-2)))
          CFI DPH0 load(1, XDATA, add(CFA_XSP16, literal(-1)))
          CFI CFA_SP SP+0
          CFI CFA_XSP16 add(XSP16, 12)
          CFI Block cfiCond13 Using cfiCommon0
          CFI (cfiCond13) Function SampleApp_ProcessEvent
          CFI (cfiCond13) Conditional ??CrossCallReturnLabel_46
          CFI (cfiCond13) R6 load(1, XDATA, add(CFA_XSP16, literal(-12)))
          CFI (cfiCond13) VB load(1, XDATA, add(CFA_XSP16, literal(-11)))
          CFI (cfiCond13) V0 load(1, XDATA, add(CFA_XSP16, literal(-10)))
          CFI (cfiCond13) V1 load(1, XDATA, add(CFA_XSP16, literal(-9)))
          CFI (cfiCond13) V2 load(1, XDATA, add(CFA_XSP16, literal(-8)))
          CFI (cfiCond13) V3 load(1, XDATA, add(CFA_XSP16, literal(-7)))
          CFI (cfiCond13) R7 load(1, XDATA, add(CFA_XSP16, literal(-6)))
          CFI (cfiCond13) ?RET_LOW load(1, XDATA, add(CFA_XSP16, literal(-5)))
          CFI (cfiCond13) ?RET_HIGH load(1, XDATA, add(CFA_XSP16, literal(-4)))
          CFI (cfiCond13) ?BRET_EXT load(1, XDATA, add(CFA_XSP16, literal(-3)))
          CFI (cfiCond13) DPL0 load(1, XDATA, add(CFA_XSP16, literal(-2)))
          CFI (cfiCond13) DPH0 load(1, XDATA, add(CFA_XSP16, literal(-1)))
          CFI (cfiCond13) CFA_SP SP+0
          CFI (cfiCond13) CFA_XSP16 add(XSP16, 12)
          CFI Block cfiPicker14 Using cfiCommon1
          CFI (cfiPicker14) NoFunction
          CFI (cfiPicker14) Picker
        MOV     DPTR,#DeviceID
          CFI EndBlock cfiCond12
          CFI EndBlock cfiCond13
          CFI EndBlock cfiPicker14
        REQUIRE ??Subroutine28_0
        ; // Fall through to label ??Subroutine28_0

        RSEG BANKED_CODE:CODE:NOROOT(0)
??Subroutine28_0:
          CFI Block cfiCond15 Using cfiCommon0
          CFI Function SampleApp_ProcessEvent
          CFI Conditional ??CrossCallReturnLabel_41
          CFI R6 load(1, XDATA, add(CFA_XSP16, literal(-12)))
          CFI VB load(1, XDATA, add(CFA_XSP16, literal(-11)))
          CFI V0 load(1, XDATA, add(CFA_XSP16, literal(-10)))
          CFI V1 load(1, XDATA, add(CFA_XSP16, literal(-9)))
          CFI V2 load(1, XDATA, add(CFA_XSP16, literal(-8)))
          CFI V3 load(1, XDATA, add(CFA_XSP16, literal(-7)))
          CFI R7 load(1, XDATA, add(CFA_XSP16, literal(-6)))
          CFI ?RET_LOW load(1, XDATA, add(CFA_XSP16, literal(-5)))
          CFI ?RET_HIGH load(1, XDATA, add(CFA_XSP16, literal(-4)))
          CFI ?BRET_EXT load(1, XDATA, add(CFA_XSP16, literal(-3)))
          CFI DPL0 load(1, XDATA, add(CFA_XSP16, literal(-2)))
          CFI DPH0 load(1, XDATA, add(CFA_XSP16, literal(-1)))
          CFI CFA_SP SP+0
          CFI CFA_XSP16 add(XSP16, 12)
          CFI Block cfiCond16 Using cfiCommon0
          CFI (cfiCond16) Function SampleApp_ProcessEvent
          CFI (cfiCond16) Conditional ??CrossCallReturnLabel_42
          CFI (cfiCond16) R6 load(1, XDATA, add(CFA_XSP16, literal(-12)))
          CFI (cfiCond16) VB load(1, XDATA, add(CFA_XSP16, literal(-11)))
          CFI (cfiCond16) V0 load(1, XDATA, add(CFA_XSP16, literal(-10)))
          CFI (cfiCond16) V1 load(1, XDATA, add(CFA_XSP16, literal(-9)))
          CFI (cfiCond16) V2 load(1, XDATA, add(CFA_XSP16, literal(-8)))
          CFI (cfiCond16) V3 load(1, XDATA, add(CFA_XSP16, literal(-7)))
          CFI (cfiCond16) R7 load(1, XDATA, add(CFA_XSP16, literal(-6)))
          CFI (cfiCond16) ?RET_LOW load(1, XDATA, add(CFA_XSP16, literal(-5)))
          CFI (cfiCond16) ?RET_HIGH load(1, XDATA, add(CFA_XSP16, literal(-4)))
          CFI (cfiCond16) ?BRET_EXT load(1, XDATA, add(CFA_XSP16, literal(-3)))
          CFI (cfiCond16) DPL0 load(1, XDATA, add(CFA_XSP16, literal(-2)))
          CFI (cfiCond16) DPH0 load(1, XDATA, add(CFA_XSP16, literal(-1)))
          CFI (cfiCond16) CFA_SP SP+0
          CFI (cfiCond16) CFA_XSP16 add(XSP16, 16)
          CFI Block cfiCond17 Using cfiCommon0
          CFI (cfiCond17) Function SampleApp_MessageMSGCB
          CFI (cfiCond17) Conditional ??CrossCallReturnLabel_43
          CFI (cfiCond17) R6 load(1, XDATA, add(CFA_XSP16, literal(-20)))
          CFI (cfiCond17) VB load(1, XDATA, add(CFA_XSP16, literal(-19)))
          CFI (cfiCond17) V0 load(1, XDATA, add(CFA_XSP16, literal(-18)))
          CFI (cfiCond17) V1 load(1, XDATA, add(CFA_XSP16, literal(-17)))
          CFI (cfiCond17) V2 load(1, XDATA, add(CFA_XSP16, literal(-16)))
          CFI (cfiCond17) V3 load(1, XDATA, add(CFA_XSP16, literal(-15)))
          CFI (cfiCond17) V4 load(1, XDATA, add(CFA_XSP16, literal(-14)))
          CFI (cfiCond17) V5 load(1, XDATA, add(CFA_XSP16, literal(-13)))
          CFI (cfiCond17) V6 load(1, XDATA, add(CFA_XSP16, literal(-12)))
          CFI (cfiCond17) V7 load(1, XDATA, add(CFA_XSP16, literal(-11)))
          CFI (cfiCond17) V8 load(1, XDATA, add(CFA_XSP16, literal(-10)))
          CFI (cfiCond17) V9 load(1, XDATA, add(CFA_XSP16, literal(-9)))
          CFI (cfiCond17) V10 load(1, XDATA, add(CFA_XSP16, literal(-8)))
          CFI (cfiCond17) V11 load(1, XDATA, add(CFA_XSP16, literal(-7)))
          CFI (cfiCond17) R7 load(1, XDATA, add(CFA_XSP16, literal(-6)))
          CFI (cfiCond17) ?RET_LOW load(1, XDATA, add(CFA_XSP16, literal(-5)))
          CFI (cfiCond17) ?RET_HIGH load(1, XDATA, add(CFA_XSP16, literal(-4)))
          CFI (cfiCond17) ?BRET_EXT load(1, XDATA, add(CFA_XSP16, literal(-3)))
          CFI (cfiCond17) DPL0 load(1, XDATA, add(CFA_XSP16, literal(-2)))
          CFI (cfiCond17) DPH0 load(1, XDATA, add(CFA_XSP16, literal(-1)))
          CFI (cfiCond17) CFA_SP SP+0
          CFI (cfiCond17) CFA_XSP16 add(XSP16, 20)
          CFI Block cfiCond18 Using cfiCommon0
          CFI (cfiCond18) Function SampleApp_QuadrotorMSGCB
          CFI (cfiCond18) Conditional ??CrossCallReturnLabel_44
          CFI (cfiCond18) R6 load(1, XDATA, add(CFA_XSP16, literal(-24)))
          CFI (cfiCond18) VB load(1, XDATA, add(CFA_XSP16, literal(-23)))
          CFI (cfiCond18) V0 load(1, XDATA, add(CFA_XSP16, literal(-22)))
          CFI (cfiCond18) V1 load(1, XDATA, add(CFA_XSP16, literal(-21)))
          CFI (cfiCond18) V2 load(1, XDATA, add(CFA_XSP16, literal(-20)))
          CFI (cfiCond18) V3 load(1, XDATA, add(CFA_XSP16, literal(-19)))
          CFI (cfiCond18) V4 load(1, XDATA, add(CFA_XSP16, literal(-18)))
          CFI (cfiCond18) V5 load(1, XDATA, add(CFA_XSP16, literal(-17)))
          CFI (cfiCond18) V6 load(1, XDATA, add(CFA_XSP16, literal(-16)))
          CFI (cfiCond18) V7 load(1, XDATA, add(CFA_XSP16, literal(-15)))
          CFI (cfiCond18) V8 load(1, XDATA, add(CFA_XSP16, literal(-14)))
          CFI (cfiCond18) V9 load(1, XDATA, add(CFA_XSP16, literal(-13)))
          CFI (cfiCond18) V10 load(1, XDATA, add(CFA_XSP16, literal(-12)))
          CFI (cfiCond18) V11 load(1, XDATA, add(CFA_XSP16, literal(-11)))
          CFI (cfiCond18) V12 load(1, XDATA, add(CFA_XSP16, literal(-10)))
          CFI (cfiCond18) V13 load(1, XDATA, add(CFA_XSP16, literal(-9)))
          CFI (cfiCond18) V14 load(1, XDATA, add(CFA_XSP16, literal(-8)))
          CFI (cfiCond18) V15 load(1, XDATA, add(CFA_XSP16, literal(-7)))
          CFI (cfiCond18) R7 load(1, XDATA, add(CFA_XSP16, literal(-6)))
          CFI (cfiCond18) ?RET_LOW load(1, XDATA, add(CFA_XSP16, literal(-5)))
          CFI (cfiCond18) ?RET_HIGH load(1, XDATA, add(CFA_XSP16, literal(-4)))
          CFI (cfiCond18) ?BRET_EXT load(1, XDATA, add(CFA_XSP16, literal(-3)))
          CFI (cfiCond18) DPL0 load(1, XDATA, add(CFA_XSP16, literal(-2)))
          CFI (cfiCond18) DPH0 load(1, XDATA, add(CFA_XSP16, literal(-1)))
          CFI (cfiCond18) CFA_SP SP+0
          CFI (cfiCond18) CFA_XSP16 add(XSP16, 24)
          CFI Block cfiCond19 Using cfiCommon0
          CFI (cfiCond19) Function SampleApp_ProcessEvent
          CFI (cfiCond19) Conditional ??CrossCallReturnLabel_45
          CFI (cfiCond19) R6 load(1, XDATA, add(CFA_XSP16, literal(-12)))
          CFI (cfiCond19) VB load(1, XDATA, add(CFA_XSP16, literal(-11)))
          CFI (cfiCond19) V0 load(1, XDATA, add(CFA_XSP16, literal(-10)))
          CFI (cfiCond19) V1 load(1, XDATA, add(CFA_XSP16, literal(-9)))
          CFI (cfiCond19) V2 load(1, XDATA, add(CFA_XSP16, literal(-8)))
          CFI (cfiCond19) V3 load(1, XDATA, add(CFA_XSP16, literal(-7)))
          CFI (cfiCond19) R7 load(1, XDATA, add(CFA_XSP16, literal(-6)))
          CFI (cfiCond19) ?RET_LOW load(1, XDATA, add(CFA_XSP16, literal(-5)))
          CFI (cfiCond19) ?RET_HIGH load(1, XDATA, add(CFA_XSP16, literal(-4)))
          CFI (cfiCond19) ?BRET_EXT load(1, XDATA, add(CFA_XSP16, literal(-3)))
          CFI (cfiCond19) DPL0 load(1, XDATA, add(CFA_XSP16, literal(-2)))
          CFI (cfiCond19) DPH0 load(1, XDATA, add(CFA_XSP16, literal(-1)))
          CFI (cfiCond19) CFA_SP SP+0
          CFI (cfiCond19) CFA_XSP16 add(XSP16, 12)
          CFI Block cfiCond20 Using cfiCommon0
          CFI (cfiCond20) Function SampleApp_ProcessEvent
          CFI (cfiCond20) Conditional ??CrossCallReturnLabel_46
          CFI (cfiCond20) R6 load(1, XDATA, add(CFA_XSP16, literal(-12)))
          CFI (cfiCond20) VB load(1, XDATA, add(CFA_XSP16, literal(-11)))
          CFI (cfiCond20) V0 load(1, XDATA, add(CFA_XSP16, literal(-10)))
          CFI (cfiCond20) V1 load(1, XDATA, add(CFA_XSP16, literal(-9)))
          CFI (cfiCond20) V2 load(1, XDATA, add(CFA_XSP16, literal(-8)))
          CFI (cfiCond20) V3 load(1, XDATA, add(CFA_XSP16, literal(-7)))
          CFI (cfiCond20) R7 load(1, XDATA, add(CFA_XSP16, literal(-6)))
          CFI (cfiCond20) ?RET_LOW load(1, XDATA, add(CFA_XSP16, literal(-5)))
          CFI (cfiCond20) ?RET_HIGH load(1, XDATA, add(CFA_XSP16, literal(-4)))
          CFI (cfiCond20) ?BRET_EXT load(1, XDATA, add(CFA_XSP16, literal(-3)))
          CFI (cfiCond20) DPL0 load(1, XDATA, add(CFA_XSP16, literal(-2)))
          CFI (cfiCond20) DPH0 load(1, XDATA, add(CFA_XSP16, literal(-1)))
          CFI (cfiCond20) CFA_SP SP+0
          CFI (cfiCond20) CFA_XSP16 add(XSP16, 12)
          CFI Block cfiPicker21 Using cfiCommon1
          CFI (cfiPicker21) NoFunction
          CFI (cfiPicker21) Picker
        MOVX    A,@DPTR
        MOV     R2,A
        INC     DPTR
        MOVX    A,@DPTR
        MOV     R3,A
        RET
          CFI EndBlock cfiCond15
          CFI EndBlock cfiCond16
          CFI EndBlock cfiCond17
          CFI EndBlock cfiCond18
          CFI EndBlock cfiCond19
          CFI EndBlock cfiCond20
          CFI EndBlock cfiPicker21
//  711 
//  712 /*********************************************************************
//  713  * @fn      SampleApp_QuadrotorMSGCB
//  714  *
//  715  * @brief   Data message processor callback.  This function processes
//  716  *          any incoming data - probably from other devices.  So, based
//  717  *          on cluster ID, perform the intended action.
//  718  *
//  719  * @param   none
//  720  *
//  721  * @return  none
//  722  */

        RSEG BANKED_CODE:CODE:NOROOT(0)
//  723 void SampleApp_QuadrotorMSGCB( afIncomingMSGPacket_t *pkt ) //receive data for ed
SampleApp_QuadrotorMSGCB:
          CFI Block cfiBlock22 Using cfiCommon0
          CFI Function SampleApp_QuadrotorMSGCB
        CODE
//  724 {
        FUNCALL SampleApp_QuadrotorMSGCB, moving_average
        LOCFRAME ISTACK, 0, STACK
        LOCFRAME PSTACK, 0, STACK
        LOCFRAME XSTACK, 28, STACK
        LOCFRAME IOVERLAY, 0, STATIC
        LOCFRAME DOVERLAY, 0, STATIC
        ARGFRAME ISTACK, 0, STACK
        ARGFRAME PSTACK, 0, STACK
        ARGFRAME XSTACK, 28, STACK
        ARGFRAME IOVERLAY, 0, STATIC
        ARGFRAME DOVERLAY, 0, STATIC
        FUNCALL SampleApp_QuadrotorMSGCB, moving_average
        LOCFRAME ISTACK, 0, STACK
        LOCFRAME PSTACK, 0, STACK
        LOCFRAME XSTACK, 28, STACK
        LOCFRAME IOVERLAY, 0, STATIC
        LOCFRAME DOVERLAY, 0, STATIC
        ARGFRAME ISTACK, 0, STACK
        ARGFRAME PSTACK, 0, STACK
        ARGFRAME XSTACK, 28, STACK
        ARGFRAME IOVERLAY, 0, STATIC
        ARGFRAME DOVERLAY, 0, STATIC
        FUNCALL SampleApp_QuadrotorMSGCB, moving_average
        LOCFRAME ISTACK, 0, STACK
        LOCFRAME PSTACK, 0, STACK
        LOCFRAME XSTACK, 28, STACK
        LOCFRAME IOVERLAY, 0, STATIC
        LOCFRAME DOVERLAY, 0, STATIC
        ARGFRAME ISTACK, 0, STACK
        ARGFRAME PSTACK, 0, STACK
        ARGFRAME XSTACK, 28, STACK
        ARGFRAME IOVERLAY, 0, STATIC
        ARGFRAME DOVERLAY, 0, STATIC
        FUNCALL SampleApp_QuadrotorMSGCB, moving_average
        LOCFRAME ISTACK, 0, STACK
        LOCFRAME PSTACK, 0, STACK
        LOCFRAME XSTACK, 28, STACK
        LOCFRAME IOVERLAY, 0, STATIC
        LOCFRAME DOVERLAY, 0, STATIC
        ARGFRAME ISTACK, 0, STACK
        ARGFRAME PSTACK, 0, STACK
        ARGFRAME XSTACK, 28, STACK
        ARGFRAME IOVERLAY, 0, STATIC
        ARGFRAME DOVERLAY, 0, STATIC
        FUNCALL SampleApp_QuadrotorMSGCB, HalUARTWrite
        LOCFRAME ISTACK, 0, STACK
        LOCFRAME PSTACK, 0, STACK
        LOCFRAME XSTACK, 24, STACK
        LOCFRAME IOVERLAY, 0, STATIC
        LOCFRAME DOVERLAY, 0, STATIC
        ARGFRAME ISTACK, 0, STACK
        ARGFRAME PSTACK, 0, STACK
        ARGFRAME XSTACK, 24, STACK
        ARGFRAME IOVERLAY, 0, STATIC
        ARGFRAME DOVERLAY, 0, STATIC
        FUNCALL SampleApp_QuadrotorMSGCB, moving_average_f
        LOCFRAME ISTACK, 0, STACK
        LOCFRAME PSTACK, 0, STACK
        LOCFRAME XSTACK, 32, STACK
        LOCFRAME IOVERLAY, 0, STATIC
        LOCFRAME DOVERLAY, 0, STATIC
        ARGFRAME ISTACK, 0, STACK
        ARGFRAME PSTACK, 0, STACK
        ARGFRAME XSTACK, 32, STACK
        ARGFRAME IOVERLAY, 0, STATIC
        ARGFRAME DOVERLAY, 0, STATIC
        FUNCALL SampleApp_QuadrotorMSGCB, HalUARTWrite
        LOCFRAME ISTACK, 0, STACK
        LOCFRAME PSTACK, 0, STACK
        LOCFRAME XSTACK, 24, STACK
        LOCFRAME IOVERLAY, 0, STATIC
        LOCFRAME DOVERLAY, 0, STATIC
        ARGFRAME ISTACK, 0, STACK
        ARGFRAME PSTACK, 0, STACK
        ARGFRAME XSTACK, 24, STACK
        ARGFRAME IOVERLAY, 0, STATIC
        ARGFRAME DOVERLAY, 0, STATIC
        FUNCALL SampleApp_QuadrotorMSGCB, moving_average_f
        LOCFRAME ISTACK, 0, STACK
        LOCFRAME PSTACK, 0, STACK
        LOCFRAME XSTACK, 32, STACK
        LOCFRAME IOVERLAY, 0, STATIC
        LOCFRAME DOVERLAY, 0, STATIC
        ARGFRAME ISTACK, 0, STACK
        ARGFRAME PSTACK, 0, STACK
        ARGFRAME XSTACK, 32, STACK
        ARGFRAME IOVERLAY, 0, STATIC
        ARGFRAME DOVERLAY, 0, STATIC
        FUNCALL SampleApp_QuadrotorMSGCB, moving_average_f
        LOCFRAME ISTACK, 0, STACK
        LOCFRAME PSTACK, 0, STACK
        LOCFRAME XSTACK, 32, STACK
        LOCFRAME IOVERLAY, 0, STATIC
        LOCFRAME DOVERLAY, 0, STATIC
        ARGFRAME ISTACK, 0, STACK
        ARGFRAME PSTACK, 0, STACK
        ARGFRAME XSTACK, 32, STACK
        ARGFRAME IOVERLAY, 0, STATIC
        ARGFRAME DOVERLAY, 0, STATIC
        FUNCALL SampleApp_QuadrotorMSGCB, moving_average_f
        LOCFRAME ISTACK, 0, STACK
        LOCFRAME PSTACK, 0, STACK
        LOCFRAME XSTACK, 32, STACK
        LOCFRAME IOVERLAY, 0, STATIC
        LOCFRAME DOVERLAY, 0, STATIC
        ARGFRAME ISTACK, 0, STACK
        ARGFRAME PSTACK, 0, STACK
        ARGFRAME XSTACK, 32, STACK
        ARGFRAME IOVERLAY, 0, STATIC
        ARGFRAME DOVERLAY, 0, STATIC
        FUNCALL SampleApp_QuadrotorMSGCB, moving_average_f
        LOCFRAME ISTACK, 0, STACK
        LOCFRAME PSTACK, 0, STACK
        LOCFRAME XSTACK, 32, STACK
        LOCFRAME IOVERLAY, 0, STATIC
        LOCFRAME DOVERLAY, 0, STATIC
        ARGFRAME ISTACK, 0, STACK
        ARGFRAME PSTACK, 0, STACK
        ARGFRAME XSTACK, 32, STACK
        ARGFRAME IOVERLAY, 0, STATIC
        ARGFRAME DOVERLAY, 0, STATIC
        FUNCALL SampleApp_QuadrotorMSGCB, HalUARTWrite
        LOCFRAME ISTACK, 0, STACK
        LOCFRAME PSTACK, 0, STACK
        LOCFRAME XSTACK, 24, STACK
        LOCFRAME IOVERLAY, 0, STATIC
        LOCFRAME DOVERLAY, 0, STATIC
        ARGFRAME ISTACK, 0, STACK
        ARGFRAME PSTACK, 0, STACK
        ARGFRAME XSTACK, 24, STACK
        ARGFRAME IOVERLAY, 0, STATIC
        ARGFRAME DOVERLAY, 0, STATIC
        MOV     A,#-0x18
        LCALL   ?BANKED_ENTER_XDATA
          CFI DPH0 load(1, XDATA, add(CFA_XSP16, literal(-1)))
          CFI DPL0 load(1, XDATA, add(CFA_XSP16, literal(-2)))
          CFI ?BRET_EXT load(1, XDATA, add(CFA_XSP16, literal(-3)))
          CFI ?RET_HIGH load(1, XDATA, add(CFA_XSP16, literal(-4)))
          CFI ?RET_LOW load(1, XDATA, add(CFA_XSP16, literal(-5)))
          CFI R7 load(1, XDATA, add(CFA_XSP16, literal(-6)))
          CFI V15 load(1, XDATA, add(CFA_XSP16, literal(-7)))
          CFI V14 load(1, XDATA, add(CFA_XSP16, literal(-8)))
          CFI V13 load(1, XDATA, add(CFA_XSP16, literal(-9)))
          CFI V12 load(1, XDATA, add(CFA_XSP16, literal(-10)))
          CFI V11 load(1, XDATA, add(CFA_XSP16, literal(-11)))
          CFI V10 load(1, XDATA, add(CFA_XSP16, literal(-12)))
          CFI V9 load(1, XDATA, add(CFA_XSP16, literal(-13)))
          CFI V8 load(1, XDATA, add(CFA_XSP16, literal(-14)))
          CFI V7 load(1, XDATA, add(CFA_XSP16, literal(-15)))
          CFI V6 load(1, XDATA, add(CFA_XSP16, literal(-16)))
          CFI V5 load(1, XDATA, add(CFA_XSP16, literal(-17)))
          CFI V4 load(1, XDATA, add(CFA_XSP16, literal(-18)))
          CFI V3 load(1, XDATA, add(CFA_XSP16, literal(-19)))
          CFI V2 load(1, XDATA, add(CFA_XSP16, literal(-20)))
          CFI V1 load(1, XDATA, add(CFA_XSP16, literal(-21)))
          CFI V0 load(1, XDATA, add(CFA_XSP16, literal(-22)))
          CFI VB load(1, XDATA, add(CFA_XSP16, literal(-23)))
          CFI R6 load(1, XDATA, add(CFA_XSP16, literal(-24)))
          CFI CFA_SP SP+0
          CFI CFA_XSP16 add(XSP16, 24)
        ; Saved register size: 24
        ; Auto size: 0
//  725   float avalue=0.0f;
//  726   float offseta=0.0f;
//  727   switch ( pkt->clusterId )
        MOV     A,R2
        ADD     A,#0x21
        MOV     R6,A
        MOV     A,R3
        ADDC    A,#0x0
        MOV     R7,A
        MOV     A,R2
        ADD     A,#0x1f
        MOV     ?V0 + 0,A
        MOV     A,R3
        ADDC    A,#0x0
        MOV     ?V0 + 1,A
        MOV     DPL,R2
        MOV     DPH,R3
        INC     DPTR
        INC     DPTR
        INC     DPTR
        INC     DPTR
        MOVX    A,@DPTR
        MOV     ?V0 + 2,A
        INC     DPTR
        MOVX    A,@DPTR
        MOV     ?V0 + 3,A
        MOV     R0,#?V0 + 2
        LCALL   ?US_SWITCH_SPARSE
`?<Jumptable for SampleApp_QuadrotorMSGCB>_0`:
        DATA
        DATA16
        DATA
        DATA16
        DATA
        DATA16
        DW        0
        DATA
        DATA16
        DATA
        DATA16
        DATA
        DATA16
        DW        5
        DATA
        DATA16
        DATA
        DATA16
        DATA
        DATA16
        DW        1
        DATA
        DATA16
        DATA
        DATA16
        DATA
        DATA16
        DW        ??SampleApp_QuadrotorMSGCB_0
        DATA
        DATA16
        DATA
        DATA16
        DATA
        DATA16
        DW        2
        DATA
        DATA16
        DATA
        DATA16
        DATA
        DATA16
        DW        ??SampleApp_QuadrotorMSGCB_1
        DATA
        DATA16
        DATA
        DATA16
        DATA
        DATA16
        DW        3
        DATA
        DATA16
        DATA
        DATA16
        DATA
        DATA16
        DW        ??SampleApp_QuadrotorMSGCB_2
        DATA
        DATA16
        DATA
        DATA16
        DATA
        DATA16
        DW        51
        DATA
        DATA16
        DATA
        DATA16
        DATA
        DATA16
        DW        ??SampleApp_QuadrotorMSGCB_3
        DATA
        DATA16
        DATA
        DATA16
        DATA
        DATA16
        DW        52
        DATA
        DATA16
        DATA
        DATA16
        DATA
        DATA16
        DW        ??SampleApp_QuadrotorMSGCB_4
        DATA
        DATA16
        DATA
        DATA16
        DW        ??SampleApp_QuadrotorMSGCB_5
        CODE
//  728   {
//  729      
//  730     case SAMPLEAPP_PERIODIC_CLUSTERID:
//  731       { 
//  732         
//  733         byte index;
//  734         index=*(pkt->cmd.Data+1);
??SampleApp_QuadrotorMSGCB_0:
        MOV     DPL,R6
        MOV     DPH,R7
        LCALL   ??Subroutine34_0 & 0xFFFF
//  735         rssivalue=(0xff-pkt->rssi);
//  736        // printRSSIandLQI(pkt, 0);
//  737         switch (index)
??CrossCallReturnLabel_63:
        JZ      ??SampleApp_QuadrotorMSGCB_6
        DEC     A
        JZ      ??SampleApp_QuadrotorMSGCB_7
        DEC     A
        JZ      ??SampleApp_QuadrotorMSGCB_8
        DEC     A
        JZ      ??SampleApp_QuadrotorMSGCB_9
        LJMP    ??SampleApp_QuadrotorMSGCB_5 & 0xFFFF
//  738         {
//  739             case '1':
//  740               { 
//  741                 //moving average filter
//  742                 moving_average(rssivalue, perRssiBuf1, RSSI_AVG_WINDOW_SIZE-1, imof1, &RssiValue[0]);
??SampleApp_QuadrotorMSGCB_6:
        ; Setup parameters for call to function moving_average
        MOV     ?V0 + 0,#RssiValue & 0xff
        MOV     ?V0 + 1,#(RssiValue >> 8) & 0xff
        MOV     R0,#?V0 + 0
        LCALL   ?PUSH_XSTACK_I_TWO
          CFI CFA_XSP16 add(XSP16, 26)
        MOV     ?V0 + 0,#imof1 & 0xff
        MOV     ?V0 + 1,#(imof1 >> 8) & 0xff
        MOV     R0,#?V0 + 0
        LCALL   ?PUSH_XSTACK_I_TWO
          CFI CFA_XSP16 add(XSP16, 28)
        MOV     R4,#0x1f
        MOV     R5,#0x0
        MOV     R2,#perRssiBuf1 & 0xff
        MOV     R3,#(perRssiBuf1 >> 8) & 0xff
        SJMP    ??SampleApp_QuadrotorMSGCB_10
          CFI CFA_XSP16 add(XSP16, 24)
//  743               }
//  744             
//  745                   break;
//  746             case '2':
//  747               {
//  748                 //moving average filter
//  749                 moving_average(rssivalue, perRssiBuf2, RSSI_AVG_WINDOW_SIZE-1, imof2, &RssiValue[1]);
??SampleApp_QuadrotorMSGCB_7:
        ; Setup parameters for call to function moving_average
        MOV     ?V0 + 0,#(RssiValue + 4) & 0xff
        MOV     ?V0 + 1,#((RssiValue + 4) >> 8) & 0xff
        MOV     R0,#?V0 + 0
        LCALL   ?PUSH_XSTACK_I_TWO
          CFI CFA_XSP16 add(XSP16, 26)
        MOV     ?V0 + 0,#imof2 & 0xff
        MOV     ?V0 + 1,#(imof2 >> 8) & 0xff
        MOV     R0,#?V0 + 0
        LCALL   ?PUSH_XSTACK_I_TWO
          CFI CFA_XSP16 add(XSP16, 28)
        MOV     R4,#0x1f
        MOV     R5,#0x0
        MOV     R2,#perRssiBuf2 & 0xff
        MOV     R3,#(perRssiBuf2 >> 8) & 0xff
        SJMP    ??SampleApp_QuadrotorMSGCB_10
          CFI CFA_XSP16 add(XSP16, 24)
//  750               }
//  751                   break;
//  752             case '3':
//  753               {
//  754                 //moving average filter
//  755                 moving_average(rssivalue, perRssiBuf3, RSSI_AVG_WINDOW_SIZE-1, imof3, &RssiValue[2]);
??SampleApp_QuadrotorMSGCB_8:
        ; Setup parameters for call to function moving_average
        MOV     ?V0 + 0,#(RssiValue + 8) & 0xff
        MOV     ?V0 + 1,#((RssiValue + 8) >> 8) & 0xff
        MOV     R0,#?V0 + 0
        LCALL   ?PUSH_XSTACK_I_TWO
          CFI CFA_XSP16 add(XSP16, 26)
        MOV     ?V0 + 0,#imof3 & 0xff
        MOV     ?V0 + 1,#(imof3 >> 8) & 0xff
        MOV     R0,#?V0 + 0
        LCALL   ?PUSH_XSTACK_I_TWO
          CFI CFA_XSP16 add(XSP16, 28)
        MOV     R4,#0x1f
        MOV     R5,#0x0
        MOV     R2,#perRssiBuf3 & 0xff
        MOV     R3,#(perRssiBuf3 >> 8) & 0xff
        SJMP    ??SampleApp_QuadrotorMSGCB_10
          CFI CFA_XSP16 add(XSP16, 24)
//  756               }
//  757                   break;
//  758             case '4':
//  759               {
//  760                 //moving average filter
//  761                  moving_average(rssivalue, perRssiBuf4, RSSI_AVG_WINDOW_SIZE-1, imof4, &RssiValue[3]);
??SampleApp_QuadrotorMSGCB_9:
        ; Setup parameters for call to function moving_average
        MOV     ?V0 + 0,#(RssiValue + 12) & 0xff
        MOV     ?V0 + 1,#((RssiValue + 12) >> 8) & 0xff
        MOV     R0,#?V0 + 0
        LCALL   ?PUSH_XSTACK_I_TWO
          CFI CFA_XSP16 add(XSP16, 26)
        MOV     ?V0 + 0,#imof4 & 0xff
        MOV     ?V0 + 1,#(imof4 >> 8) & 0xff
        MOV     R0,#?V0 + 0
        LCALL   ?PUSH_XSTACK_I_TWO
          CFI CFA_XSP16 add(XSP16, 28)
        MOV     R4,#0x1f
        MOV     R5,#0x0
        MOV     R2,#perRssiBuf4 & 0xff
        MOV     R3,#(perRssiBuf4 >> 8) & 0xff
??SampleApp_QuadrotorMSGCB_10:
        MOV     DPTR,#rssivalue
        MOVX    A,@DPTR
        MOV     R1,A
        LCALL   ??moving_average?relay
        MOV     A,#0x4
        LCALL   ?DEALLOC_XSTACK8
          CFI CFA_XSP16 add(XSP16, 24)
//  762               }
//  763                   break;    
        LJMP    ??SampleApp_QuadrotorMSGCB_5 & 0xFFFF
//  764             default:
//  765             
//  766                    break;
//  767          }
//  768         break;
//  769       }
//  770 
//  771     case LZQR_GROUP_CLUSTERID: // position of other quadrotors
//  772           {
//  773             HalUARTWrite(0, pkt->cmd.Data, pkt->cmd.DataLength); //Êä³ö½ÓÊÕµ½µÄÊý¾Ý
??SampleApp_QuadrotorMSGCB_2:
        ; Setup parameters for call to function HalUARTWrite
        LCALL   ?Subroutine17 & 0xFFFF
//  774            // break;
//  775           }
??CrossCallReturnLabel_58:
        MOV     DPL,R6
        MOV     DPH,R7
        LCALL   ??Subroutine28_0 & 0xFFFF
??CrossCallReturnLabel_44:
        MOV     R1,#0x0
        LCALL   ??HalUARTWrite?relay
//  776     
//  777 
//  778      case CALBRATION_N_CLUSTERID:
//  779     {
//  780         
//  781         byte alphaindex;
//  782         alphaindex=*(pkt->cmd.Data);
??SampleApp_QuadrotorMSGCB_1:
        LCALL   ?Subroutine18 & 0xFFFF
??CrossCallReturnLabel_25:
        MOVX    A,@DPTR
        MOV     R0,A
//  783         if(alphaindex=='A')
        MOV     A,#0x41
        XRL     A,R0
        JZ      $+5
        LJMP    ??SampleApp_QuadrotorMSGCB_11 & 0xFFFF
//  784          {  
//  785               byte index;
//  786               index=*(pkt->cmd.Data+1);
//  787               avalue=10.0f*(float)((int)(*(pkt->cmd.Data+3))-48)+(float)((int)(*(pkt->cmd.Data+4))-48)+0.1f*(float)((int)(*(pkt->cmd.Data+6))-48);
        LCALL   ?Subroutine14 & 0xFFFF
??CrossCallReturnLabel_18:
        LCALL   ?L_TO_FLT
        MOV     DPTR,#__Constant_41200000
        MOV     R0,#?V0 + 4
        LCALL   ?L_MOV_X
        MOV     R0,#?V0 + 0
        MOV     R1,#?V0 + 4
        LCALL   ?FLT_MUL
        MOV     DPL,R2
        MOV     DPH,R3
        LCALL   ??Subroutine32_0 & 0xFFFF
??CrossCallReturnLabel_51:
        LCALL   ?L_TO_FLT
        MOV     R0,#?V0 + 0
        MOV     R1,#?V0 + 4
        LCALL   ?FLT_ADD
        LCALL   ?Subroutine12 & 0xFFFF
??CrossCallReturnLabel_54:
        LCALL   ?L_TO_FLT
        MOV     DPTR,#__Constant_3dcccccd
        MOV     R0,#?V0 + 8
        LCALL   ?L_MOV_X
        MOV     R0,#?V0 + 4
        MOV     R1,#?V0 + 8
        LCALL   ?FLT_MUL
        MOV     R0,#?V0 + 0
        MOV     R1,#?V0 + 4
        LCALL   ?FLT_ADD
//  788               if(avalue>0)   
        MOV     DPTR,#__Constant_1
        MOV     R0,#?V0 + 4
        LCALL   ?L_MOV_X
        MOV     R0,#?V0 + 0
        MOV     R1,#?V0 + 4
        LCALL   ?FLT_GE
        JC      $+5
        LJMP    ??SampleApp_QuadrotorMSGCB_5 & 0xFFFF
//  789               {
//  790                   switch (index)
        MOV     DPL,R2
        MOV     DPH,R3
        INC     DPTR
        MOVX    A,@DPTR
        XRL     A,#0x31
        JZ      $+5
        LJMP    ??SampleApp_QuadrotorMSGCB_5 & 0xFFFF
//  791                        case '1':
//  792                           {
//  793                                   moving_average_f(avalue, peraBuf1, 8-1, aindex1, &AValue[0]);
        ; Setup parameters for call to function moving_average_f
        MOV     ?V0 + 4,#AValue & 0xff
        MOV     ?V0 + 5,#(AValue >> 8) & 0xff
        MOV     R0,#?V0 + 4
        LCALL   ?PUSH_XSTACK_I_TWO
          CFI CFA_XSP16 add(XSP16, 26)
        MOV     ?V0 + 4,#aindex1 & 0xff
        MOV     ?V0 + 5,#(aindex1 >> 8) & 0xff
        MOV     R0,#?V0 + 4
        LCALL   ?PUSH_XSTACK_I_TWO
          CFI CFA_XSP16 add(XSP16, 28)
        MOV     ?V0 + 4,#0x7
        MOV     ?V0 + 5,#0x0
        MOV     R0,#?V0 + 4
        LCALL   ?PUSH_XSTACK_I_TWO
          CFI CFA_XSP16 add(XSP16, 30)
        MOV     ?V0 + 4,#peraBuf1 & 0xff
        MOV     ?V0 + 5,#(peraBuf1 >> 8) & 0xff
        LJMP    ??SampleApp_QuadrotorMSGCB_12 & 0xFFFF
          CFI CFA_XSP16 add(XSP16, 24)
//  794                                  // AValue[0]=avalue;
//  795                                   break;
//  796                            }
//  797                        case '2':
//  798                           {
//  799                                   //AValue[1]=avalue;
//  800                                   break;
//  801                            }
//  802                        case '3':
//  803                           {
//  804                                   AValue[2]=avalue;
??SampleApp_QuadrotorMSGCB_3:
        MOV     DPTR,#AValue + 8
        SJMP    ??SampleApp_QuadrotorMSGCB_13
//  805                                   break;
//  806                            }
//  807                        case '4':
//  808                           {
//  809                                   AValue[3]=avalue;
??SampleApp_QuadrotorMSGCB_4:
        MOV     DPTR,#AValue + 12
??SampleApp_QuadrotorMSGCB_13:
        CLR     A
        MOVX    @DPTR,A
        INC     DPTR
        MOVX    @DPTR,A
        INC     DPTR
        MOVX    @DPTR,A
        INC     DPTR
        MOVX    @DPTR,A
//  810                                   break;
        LJMP    ??SampleApp_QuadrotorMSGCB_5 & 0xFFFF
//  811                            }
//  812             
//  813                   break;
//  814               }
//  815          } 
//  816         else if(alphaindex=='N')
??SampleApp_QuadrotorMSGCB_11:
        MOV     A,#0x4e
        XRL     A,R0
        JZ      $+5
        LJMP    ??SampleApp_QuadrotorMSGCB_14 & 0xFFFF
//  817              {
//  818                       HalUARTWrite(0, pkt->cmd.Data, pkt->cmd.DataLength); 
        ; Setup parameters for call to function HalUARTWrite
        LCALL   ?Subroutine17 & 0xFFFF
??CrossCallReturnLabel_59:
        MOV     R1,#0x0
        LCALL   ??HalUARTWrite?relay
//  819                       byte index;
//  820                       index=*(pkt->cmd.Data+1);
//  821 
//  822                       float nvalue;
//  823               //        float tempn=0.0f;
//  824                       
//  825                       if(((int)(*(pkt->cmd.Data+3))-48)>=0&&((int)(*(pkt->cmd.Data+3))-48)<=9)
        MOV     DPL,R6
        MOV     DPH,R7
        MOVX    A,@DPTR
        MOV     R0,A
        INC     DPTR
        MOVX    A,@DPTR
        MOV     R1,A
        MOV     A,R0
        MOV     R2,A
        MOV     A,R1
        MOV     R3,A
        MOV     DPL,R2
        MOV     DPH,R3
        INC     DPTR
        INC     DPTR
        INC     DPTR
        MOVX    A,@DPTR
        ADD     A,#-0x30
        MOV     R0,A
        CLR     A
        ADDC    A,#-0x1
        MOV     R1,A
        CLR     C
        MOV     A,R0
        SUBB    A,#0xa
        MOV     A,R1
        SUBB    A,#0x0
        JC      $+5
        LJMP    ??SampleApp_QuadrotorMSGCB_5 & 0xFFFF
//  826                       {  nvalue=(float)((int)(*(pkt->cmd.Data+3))-48)+0.1f*(float)((int)(*(pkt->cmd.Data+5))-48)+0.01f*(float)((int)(*(pkt->cmd.Data+6))-48);
        MOV     ?V0 + 0,R0
        MOV     A,R1
        LCALL   ?Subroutine27 & 0xFFFF
??CrossCallReturnLabel_48:
        LCALL   ?L_TO_FLT
        MOV     DPL,R2
        MOV     DPH,R3
        LCALL   ??Subroutine31_0 & 0xFFFF
??CrossCallReturnLabel_52:
        LCALL   ?L_TO_FLT
        MOV     DPTR,#__Constant_3dcccccd
        MOV     R0,#?V0 + 8
        LCALL   ?L_MOV_X
        MOV     R0,#?V0 + 4
        MOV     R1,#?V0 + 8
        LCALL   ?FLT_MUL
        MOV     R0,#?V0 + 0
        MOV     R1,#?V0 + 4
        LCALL   ?FLT_ADD
        LCALL   ?Subroutine12 & 0xFFFF
??CrossCallReturnLabel_55:
        LCALL   ?L_TO_FLT
        MOV     DPTR,#__Constant_3c23d70a
        MOV     R0,#?V0 + 8
        LCALL   ?L_MOV_X
        MOV     R0,#?V0 + 4
        MOV     R1,#?V0 + 8
        LCALL   ?FLT_MUL
        MOV     R0,#?V0 + 0
        MOV     R1,#?V0 + 4
        LCALL   ?FLT_ADD
//  827                           
//  828                            switch (index)
        MOV     DPL,R2
        MOV     DPH,R3
        INC     DPTR
        MOVX    A,@DPTR
        ADD     A,#-0x31
        JZ      ??SampleApp_QuadrotorMSGCB_15
        DEC     A
        JZ      ??SampleApp_QuadrotorMSGCB_16
        DEC     A
        JZ      ??SampleApp_QuadrotorMSGCB_17
        DEC     A
        JZ      ??SampleApp_QuadrotorMSGCB_18
        LJMP    ??SampleApp_QuadrotorMSGCB_5 & 0xFFFF
//  829                            {  
//  830                                 case '1':
//  831                                  {
//  832                                      moving_average_f(nvalue, pernBuf1, 7, nindex1, &nValue[0]);
??SampleApp_QuadrotorMSGCB_15:
        ; Setup parameters for call to function moving_average_f
        MOV     ?V0 + 4,#nValue & 0xff
        MOV     ?V0 + 5,#(nValue >> 8) & 0xff
        MOV     R0,#?V0 + 4
        LCALL   ?PUSH_XSTACK_I_TWO
          CFI CFA_XSP16 add(XSP16, 26)
        MOV     ?V0 + 4,#nindex1 & 0xff
        MOV     ?V0 + 5,#(nindex1 >> 8) & 0xff
        MOV     R0,#?V0 + 4
        LCALL   ?PUSH_XSTACK_I_TWO
          CFI CFA_XSP16 add(XSP16, 28)
        MOV     ?V0 + 4,#0x7
        MOV     ?V0 + 5,#0x0
        MOV     R0,#?V0 + 4
        LCALL   ?PUSH_XSTACK_I_TWO
          CFI CFA_XSP16 add(XSP16, 30)
        MOV     ?V0 + 4,#pernBuf1 & 0xff
        MOV     ?V0 + 5,#(pernBuf1 >> 8) & 0xff
        SJMP    ??SampleApp_QuadrotorMSGCB_12
          CFI CFA_XSP16 add(XSP16, 24)
//  833                                    
//  834                                   
//  835                                    break;
//  836                                  }
//  837                                 case '2':
//  838                                  {
//  839 
//  840                                       moving_average_f(nvalue, pernBuf2, 7, nindex2, &nValue[1]);
??SampleApp_QuadrotorMSGCB_16:
        ; Setup parameters for call to function moving_average_f
        MOV     ?V0 + 4,#(nValue + 4) & 0xff
        MOV     ?V0 + 5,#((nValue + 4) >> 8) & 0xff
        MOV     R0,#?V0 + 4
        LCALL   ?PUSH_XSTACK_I_TWO
          CFI CFA_XSP16 add(XSP16, 26)
        MOV     ?V0 + 4,#nindex2 & 0xff
        MOV     ?V0 + 5,#(nindex2 >> 8) & 0xff
        MOV     R0,#?V0 + 4
        LCALL   ?PUSH_XSTACK_I_TWO
          CFI CFA_XSP16 add(XSP16, 28)
        MOV     ?V0 + 4,#0x7
        MOV     ?V0 + 5,#0x0
        MOV     R0,#?V0 + 4
        LCALL   ?PUSH_XSTACK_I_TWO
          CFI CFA_XSP16 add(XSP16, 30)
        MOV     ?V0 + 4,#pernBuf2 & 0xff
        MOV     ?V0 + 5,#(pernBuf2 >> 8) & 0xff
        SJMP    ??SampleApp_QuadrotorMSGCB_12
          CFI CFA_XSP16 add(XSP16, 24)
//  841                                    break;
//  842                                  }
//  843                                  case '3':
//  844                                  {
//  845                                    moving_average_f(nvalue, pernBuf3, 7, nindex3, &nValue[2]);
??SampleApp_QuadrotorMSGCB_17:
        ; Setup parameters for call to function moving_average_f
        MOV     ?V0 + 4,#(nValue + 8) & 0xff
        MOV     ?V0 + 5,#((nValue + 8) >> 8) & 0xff
        MOV     R0,#?V0 + 4
        LCALL   ?PUSH_XSTACK_I_TWO
          CFI CFA_XSP16 add(XSP16, 26)
        MOV     ?V0 + 4,#nindex3 & 0xff
        MOV     ?V0 + 5,#(nindex3 >> 8) & 0xff
        MOV     R0,#?V0 + 4
        LCALL   ?PUSH_XSTACK_I_TWO
          CFI CFA_XSP16 add(XSP16, 28)
        MOV     ?V0 + 4,#0x7
        MOV     ?V0 + 5,#0x0
        MOV     R0,#?V0 + 4
        LCALL   ?PUSH_XSTACK_I_TWO
          CFI CFA_XSP16 add(XSP16, 30)
        MOV     ?V0 + 4,#pernBuf3 & 0xff
        MOV     ?V0 + 5,#(pernBuf3 >> 8) & 0xff
        SJMP    ??SampleApp_QuadrotorMSGCB_12
          CFI CFA_XSP16 add(XSP16, 24)
//  846                                    break;
//  847                                  }
//  848                                  case '4':
//  849                                  {
//  850                                     moving_average_f(nvalue, pernBuf4, 7, nindex4, &nValue[3]);
??SampleApp_QuadrotorMSGCB_18:
        ; Setup parameters for call to function moving_average_f
        MOV     ?V0 + 4,#(nValue + 12) & 0xff
        MOV     ?V0 + 5,#((nValue + 12) >> 8) & 0xff
        MOV     R0,#?V0 + 4
        LCALL   ?PUSH_XSTACK_I_TWO
          CFI CFA_XSP16 add(XSP16, 26)
        MOV     ?V0 + 4,#nindex4 & 0xff
        MOV     ?V0 + 5,#(nindex4 >> 8) & 0xff
        MOV     R0,#?V0 + 4
        LCALL   ?PUSH_XSTACK_I_TWO
          CFI CFA_XSP16 add(XSP16, 28)
        MOV     ?V0 + 4,#0x7
        MOV     ?V0 + 5,#0x0
        MOV     R0,#?V0 + 4
        LCALL   ?PUSH_XSTACK_I_TWO
          CFI CFA_XSP16 add(XSP16, 30)
        MOV     ?V0 + 4,#pernBuf4 & 0xff
        MOV     ?V0 + 5,#(pernBuf4 >> 8) & 0xff
??SampleApp_QuadrotorMSGCB_12:
        MOV     R0,#?V0 + 4
        LCALL   ?PUSH_XSTACK_I_TWO
          CFI CFA_XSP16 add(XSP16, 32)
        MOV     R2,?V0 + 0
        MOV     R3,?V0 + 1
        MOV     R4,?V0 + 2
        MOV     R5,?V0 + 3
        LCALL   ??moving_average_f?relay
        MOV     A,#0x8
        LCALL   ?DEALLOC_XSTACK8
          CFI CFA_XSP16 add(XSP16, 24)
//  851                                    break;
        LJMP    ??SampleApp_QuadrotorMSGCB_5 & 0xFFFF
//  852                                          }
//  853                                 break;
//  854                             }
//  855                           }
//  856                      }
//  857         else if (alphaindex=='O')
??SampleApp_QuadrotorMSGCB_14:
        MOV     A,#0x4f
        XRL     A,R0
        JZ      $+5
        LJMP    ??SampleApp_QuadrotorMSGCB_5 & 0xFFFF
//  858         {
//  859           HalUARTWrite(0, pkt->cmd.Data, pkt->cmd.DataLength); //Êä³ö½ÓÊÕµ½µÄÊý¾Ý
        ; Setup parameters for call to function HalUARTWrite
        LCALL   ?Subroutine17 & 0xFFFF
??CrossCallReturnLabel_60:
        MOV     R1,#0x0
        LCALL   ??HalUARTWrite?relay
//  860            byte oindex;
//  861            float plus;
//  862               oindex=*(pkt->cmd.Data+1);
        LCALL   ?Subroutine18 & 0xFFFF
??CrossCallReturnLabel_26:
        INC     DPTR
        MOVX    A,@DPTR
        MOV     R4,A
//  863               if (*(pkt->cmd.Data+2)=='+')
        MOV     DPL,R2
        MOV     DPH,R3
        INC     DPTR
        INC     DPTR
        MOVX    A,@DPTR
        XRL     A,#0x2b
        MOV     ?V0 + 4,#0x0
        MOV     ?V0 + 5,#0x0
        MOV     ?V0 + 6,#-0x80
        JNZ     ??SampleApp_QuadrotorMSGCB_19
//  864               {
//  865                  plus=1;
        MOV     ?V0 + 7,#0x3f
        SJMP    ??SampleApp_QuadrotorMSGCB_20
//  866               }
//  867               else
//  868               {
//  869                 plus=-1;
??SampleApp_QuadrotorMSGCB_19:
        MOV     ?V0 + 7,#-0x41
//  870               }
//  871               offseta=10.0f*(float)((int)(*(pkt->cmd.Data+3))-48)+(float)((int)(*(pkt->cmd.Data+4))-48)+0.1f*(float)((int)(*(pkt->cmd.Data+6))-48);
??SampleApp_QuadrotorMSGCB_20:
        MOV     DPL,R2
        MOV     DPH,R3
        LCALL   ?Subroutine14 & 0xFFFF
??CrossCallReturnLabel_19:
        LCALL   ?L_TO_FLT
        MOV     DPTR,#__Constant_41200000
        MOV     R0,#?V0 + 8
        LCALL   ?L_MOV_X
        MOV     R0,#?V0 + 0
        MOV     R1,#?V0 + 8
        LCALL   ?FLT_MUL
        MOV     DPL,R2
        MOV     DPH,R3
        INC     DPTR
        INC     DPTR
        INC     DPTR
        INC     DPTR
        MOVX    A,@DPTR
        ADD     A,#-0x30
        MOV     ?V0 + 8,A
        CLR     A
        ADDC    A,#-0x1
        MOV     ?V0 + 9,A
        RLC     A
        SUBB    A,0xE0 /* A   */
        MOV     ?V0 + 10,A
        MOV     ?V0 + 11,A
        MOV     R0,#?V0 + 8
        LCALL   ?L_TO_FLT
        MOV     R0,#?V0 + 0
        MOV     R1,#?V0 + 8
        LCALL   ?FLT_ADD
        MOV     DPL,R2
        MOV     DPH,R3
        INC     DPTR
        INC     DPTR
        INC     DPTR
        INC     DPTR
        INC     DPTR
        INC     DPTR
        MOVX    A,@DPTR
        ADD     A,#-0x30
        MOV     ?V0 + 12,A
        CLR     A
        ADDC    A,#-0x1
        MOV     ?V0 + 13,A
        RLC     A
        SUBB    A,0xE0 /* A   */
        MOV     ?V0 + 14,A
        MOV     ?V0 + 15,A
        MOV     R0,#?V0 + 12
        LCALL   ?L_TO_FLT
        MOV     DPTR,#__Constant_3dcccccd
        MOV     R0,#?V0 + 8
        LCALL   ?L_MOV_X
        MOV     R0,#?V0 + 12
        MOV     R1,#?V0 + 8
        LCALL   ?FLT_MUL
        MOV     R0,#?V0 + 0
        MOV     R1,#?V0 + 12
        LCALL   ?FLT_ADD
//  872             
//  873                   if (oindex=='1')
        MOV     A,#0x31
        XRL     A,R4
        JNZ     ??SampleApp_QuadrotorMSGCB_21
//  874                           {
//  875                                   OffsetAValue[0]=plus*offseta;
        MOV     R0,#?V0 + 4
        MOV     R1,#?V0 + 0
        LCALL   ?FLT_MUL
        MOV     DPTR,#OffsetAValue
        SJMP    ??SampleApp_QuadrotorMSGCB_22
//  876                                  
//  877                            }
//  878                    else if (oindex=='2')
??SampleApp_QuadrotorMSGCB_21:
        MOV     A,#0x32
        XRL     A,R4
        JNZ     ??SampleApp_QuadrotorMSGCB_23
//  879                           {
//  880                                   OffsetAValue[1]=plus*offseta;
        MOV     R0,#?V0 + 4
        MOV     R1,#?V0 + 0
        LCALL   ?FLT_MUL
        MOV     DPTR,#OffsetAValue + 4
        SJMP    ??SampleApp_QuadrotorMSGCB_22
//  881                                  
//  882                            }
//  883                    else  if (oindex=='3')
??SampleApp_QuadrotorMSGCB_23:
        MOV     A,#0x33
        XRL     A,R4
        JNZ     ??SampleApp_QuadrotorMSGCB_24
//  884                           {
//  885                                   OffsetAValue[2]=plus*offseta;
        MOV     R0,#?V0 + 4
        MOV     R1,#?V0 + 0
        LCALL   ?FLT_MUL
        MOV     DPTR,#OffsetAValue + 8
        SJMP    ??SampleApp_QuadrotorMSGCB_22
//  886                                  
//  887                            }
//  888                     else if (oindex=='4')
??SampleApp_QuadrotorMSGCB_24:
        MOV     A,#0x34
        XRL     A,R4
        JNZ     ??SampleApp_QuadrotorMSGCB_5
//  889                           {
//  890                                   OffsetAValue[3]=plus*offseta;
        MOV     R0,#?V0 + 4
        MOV     R1,#?V0 + 0
        LCALL   ?FLT_MUL
        MOV     DPTR,#OffsetAValue + 12
??SampleApp_QuadrotorMSGCB_22:
        MOV     R0,#?V0 + 4
        LCALL   ?L_MOV_TO_X
//  891                                  
//  892                            }
//  893             
//  894               
//  895         }
//  896      }
//  897       
//  898  
//  899  
//  900   }
//  901 
//  902 }
??SampleApp_QuadrotorMSGCB_5:
        MOV     R7,#0x10
        LJMP    ?BANKED_LEAVE_XDATA
          CFI EndBlock cfiBlock22

        RSEG BANKED_CODE:CODE:NOROOT(0)
?Subroutine18:
          CFI Block cfiCond23 Using cfiCommon0
          CFI Function SampleApp_QuadrotorMSGCB
          CFI Conditional ??CrossCallReturnLabel_25
          CFI R6 load(1, XDATA, add(CFA_XSP16, literal(-24)))
          CFI VB load(1, XDATA, add(CFA_XSP16, literal(-23)))
          CFI V0 load(1, XDATA, add(CFA_XSP16, literal(-22)))
          CFI V1 load(1, XDATA, add(CFA_XSP16, literal(-21)))
          CFI V2 load(1, XDATA, add(CFA_XSP16, literal(-20)))
          CFI V3 load(1, XDATA, add(CFA_XSP16, literal(-19)))
          CFI V4 load(1, XDATA, add(CFA_XSP16, literal(-18)))
          CFI V5 load(1, XDATA, add(CFA_XSP16, literal(-17)))
          CFI V6 load(1, XDATA, add(CFA_XSP16, literal(-16)))
          CFI V7 load(1, XDATA, add(CFA_XSP16, literal(-15)))
          CFI V8 load(1, XDATA, add(CFA_XSP16, literal(-14)))
          CFI V9 load(1, XDATA, add(CFA_XSP16, literal(-13)))
          CFI V10 load(1, XDATA, add(CFA_XSP16, literal(-12)))
          CFI V11 load(1, XDATA, add(CFA_XSP16, literal(-11)))
          CFI V12 load(1, XDATA, add(CFA_XSP16, literal(-10)))
          CFI V13 load(1, XDATA, add(CFA_XSP16, literal(-9)))
          CFI V14 load(1, XDATA, add(CFA_XSP16, literal(-8)))
          CFI V15 load(1, XDATA, add(CFA_XSP16, literal(-7)))
          CFI R7 load(1, XDATA, add(CFA_XSP16, literal(-6)))
          CFI ?RET_LOW load(1, XDATA, add(CFA_XSP16, literal(-5)))
          CFI ?RET_HIGH load(1, XDATA, add(CFA_XSP16, literal(-4)))
          CFI ?BRET_EXT load(1, XDATA, add(CFA_XSP16, literal(-3)))
          CFI DPL0 load(1, XDATA, add(CFA_XSP16, literal(-2)))
          CFI DPH0 load(1, XDATA, add(CFA_XSP16, literal(-1)))
          CFI CFA_SP SP+0
          CFI CFA_XSP16 add(XSP16, 24)
          CFI Block cfiCond24 Using cfiCommon0
          CFI (cfiCond24) Function SampleApp_QuadrotorMSGCB
          CFI (cfiCond24) Conditional ??CrossCallReturnLabel_26
          CFI (cfiCond24) R6 load(1, XDATA, add(CFA_XSP16, literal(-24)))
          CFI (cfiCond24) VB load(1, XDATA, add(CFA_XSP16, literal(-23)))
          CFI (cfiCond24) V0 load(1, XDATA, add(CFA_XSP16, literal(-22)))
          CFI (cfiCond24) V1 load(1, XDATA, add(CFA_XSP16, literal(-21)))
          CFI (cfiCond24) V2 load(1, XDATA, add(CFA_XSP16, literal(-20)))
          CFI (cfiCond24) V3 load(1, XDATA, add(CFA_XSP16, literal(-19)))
          CFI (cfiCond24) V4 load(1, XDATA, add(CFA_XSP16, literal(-18)))
          CFI (cfiCond24) V5 load(1, XDATA, add(CFA_XSP16, literal(-17)))
          CFI (cfiCond24) V6 load(1, XDATA, add(CFA_XSP16, literal(-16)))
          CFI (cfiCond24) V7 load(1, XDATA, add(CFA_XSP16, literal(-15)))
          CFI (cfiCond24) V8 load(1, XDATA, add(CFA_XSP16, literal(-14)))
          CFI (cfiCond24) V9 load(1, XDATA, add(CFA_XSP16, literal(-13)))
          CFI (cfiCond24) V10 load(1, XDATA, add(CFA_XSP16, literal(-12)))
          CFI (cfiCond24) V11 load(1, XDATA, add(CFA_XSP16, literal(-11)))
          CFI (cfiCond24) V12 load(1, XDATA, add(CFA_XSP16, literal(-10)))
          CFI (cfiCond24) V13 load(1, XDATA, add(CFA_XSP16, literal(-9)))
          CFI (cfiCond24) V14 load(1, XDATA, add(CFA_XSP16, literal(-8)))
          CFI (cfiCond24) V15 load(1, XDATA, add(CFA_XSP16, literal(-7)))
          CFI (cfiCond24) R7 load(1, XDATA, add(CFA_XSP16, literal(-6)))
          CFI (cfiCond24) ?RET_LOW load(1, XDATA, add(CFA_XSP16, literal(-5)))
          CFI (cfiCond24) ?RET_HIGH load(1, XDATA, add(CFA_XSP16, literal(-4)))
          CFI (cfiCond24) ?BRET_EXT load(1, XDATA, add(CFA_XSP16, literal(-3)))
          CFI (cfiCond24) DPL0 load(1, XDATA, add(CFA_XSP16, literal(-2)))
          CFI (cfiCond24) DPH0 load(1, XDATA, add(CFA_XSP16, literal(-1)))
          CFI (cfiCond24) CFA_SP SP+0
          CFI (cfiCond24) CFA_XSP16 add(XSP16, 24)
          CFI Block cfiPicker25 Using cfiCommon1
          CFI (cfiPicker25) NoFunction
          CFI (cfiPicker25) Picker
        MOV     DPL,R6
        MOV     DPH,R7
        MOVX    A,@DPTR
        MOV     R2,A
        INC     DPTR
        MOVX    A,@DPTR
        MOV     R3,A
        MOV     DPL,R2
        MOV     DPH,R3
        RET
          CFI EndBlock cfiCond23
          CFI EndBlock cfiCond24
          CFI EndBlock cfiPicker25

        RSEG BANKED_CODE:CODE:NOROOT(0)
?Subroutine14:
          CFI Block cfiCond26 Using cfiCommon0
          CFI Function SampleApp_MessageMSGCB
          CFI Conditional ??CrossCallReturnLabel_17
          CFI R6 load(1, XDATA, add(CFA_XSP16, literal(-20)))
          CFI VB load(1, XDATA, add(CFA_XSP16, literal(-19)))
          CFI V0 load(1, XDATA, add(CFA_XSP16, literal(-18)))
          CFI V1 load(1, XDATA, add(CFA_XSP16, literal(-17)))
          CFI V2 load(1, XDATA, add(CFA_XSP16, literal(-16)))
          CFI V3 load(1, XDATA, add(CFA_XSP16, literal(-15)))
          CFI V4 load(1, XDATA, add(CFA_XSP16, literal(-14)))
          CFI V5 load(1, XDATA, add(CFA_XSP16, literal(-13)))
          CFI V6 load(1, XDATA, add(CFA_XSP16, literal(-12)))
          CFI V7 load(1, XDATA, add(CFA_XSP16, literal(-11)))
          CFI V8 load(1, XDATA, add(CFA_XSP16, literal(-10)))
          CFI V9 load(1, XDATA, add(CFA_XSP16, literal(-9)))
          CFI V10 load(1, XDATA, add(CFA_XSP16, literal(-8)))
          CFI V11 load(1, XDATA, add(CFA_XSP16, literal(-7)))
          CFI R7 load(1, XDATA, add(CFA_XSP16, literal(-6)))
          CFI ?RET_LOW load(1, XDATA, add(CFA_XSP16, literal(-5)))
          CFI ?RET_HIGH load(1, XDATA, add(CFA_XSP16, literal(-4)))
          CFI ?BRET_EXT load(1, XDATA, add(CFA_XSP16, literal(-3)))
          CFI DPL0 load(1, XDATA, add(CFA_XSP16, literal(-2)))
          CFI DPH0 load(1, XDATA, add(CFA_XSP16, literal(-1)))
          CFI CFA_SP SP+0
          CFI CFA_XSP16 add(XSP16, 20)
          CFI Block cfiCond27 Using cfiCommon0
          CFI (cfiCond27) Function SampleApp_QuadrotorMSGCB
          CFI (cfiCond27) Conditional ??CrossCallReturnLabel_18
          CFI (cfiCond27) R6 load(1, XDATA, add(CFA_XSP16, literal(-24)))
          CFI (cfiCond27) VB load(1, XDATA, add(CFA_XSP16, literal(-23)))
          CFI (cfiCond27) V0 load(1, XDATA, add(CFA_XSP16, literal(-22)))
          CFI (cfiCond27) V1 load(1, XDATA, add(CFA_XSP16, literal(-21)))
          CFI (cfiCond27) V2 load(1, XDATA, add(CFA_XSP16, literal(-20)))
          CFI (cfiCond27) V3 load(1, XDATA, add(CFA_XSP16, literal(-19)))
          CFI (cfiCond27) V4 load(1, XDATA, add(CFA_XSP16, literal(-18)))
          CFI (cfiCond27) V5 load(1, XDATA, add(CFA_XSP16, literal(-17)))
          CFI (cfiCond27) V6 load(1, XDATA, add(CFA_XSP16, literal(-16)))
          CFI (cfiCond27) V7 load(1, XDATA, add(CFA_XSP16, literal(-15)))
          CFI (cfiCond27) V8 load(1, XDATA, add(CFA_XSP16, literal(-14)))
          CFI (cfiCond27) V9 load(1, XDATA, add(CFA_XSP16, literal(-13)))
          CFI (cfiCond27) V10 load(1, XDATA, add(CFA_XSP16, literal(-12)))
          CFI (cfiCond27) V11 load(1, XDATA, add(CFA_XSP16, literal(-11)))
          CFI (cfiCond27) V12 load(1, XDATA, add(CFA_XSP16, literal(-10)))
          CFI (cfiCond27) V13 load(1, XDATA, add(CFA_XSP16, literal(-9)))
          CFI (cfiCond27) V14 load(1, XDATA, add(CFA_XSP16, literal(-8)))
          CFI (cfiCond27) V15 load(1, XDATA, add(CFA_XSP16, literal(-7)))
          CFI (cfiCond27) R7 load(1, XDATA, add(CFA_XSP16, literal(-6)))
          CFI (cfiCond27) ?RET_LOW load(1, XDATA, add(CFA_XSP16, literal(-5)))
          CFI (cfiCond27) ?RET_HIGH load(1, XDATA, add(CFA_XSP16, literal(-4)))
          CFI (cfiCond27) ?BRET_EXT load(1, XDATA, add(CFA_XSP16, literal(-3)))
          CFI (cfiCond27) DPL0 load(1, XDATA, add(CFA_XSP16, literal(-2)))
          CFI (cfiCond27) DPH0 load(1, XDATA, add(CFA_XSP16, literal(-1)))
          CFI (cfiCond27) CFA_SP SP+0
          CFI (cfiCond27) CFA_XSP16 add(XSP16, 24)
          CFI Block cfiCond28 Using cfiCommon0
          CFI (cfiCond28) Function SampleApp_QuadrotorMSGCB
          CFI (cfiCond28) Conditional ??CrossCallReturnLabel_19
          CFI (cfiCond28) R6 load(1, XDATA, add(CFA_XSP16, literal(-24)))
          CFI (cfiCond28) VB load(1, XDATA, add(CFA_XSP16, literal(-23)))
          CFI (cfiCond28) V0 load(1, XDATA, add(CFA_XSP16, literal(-22)))
          CFI (cfiCond28) V1 load(1, XDATA, add(CFA_XSP16, literal(-21)))
          CFI (cfiCond28) V2 load(1, XDATA, add(CFA_XSP16, literal(-20)))
          CFI (cfiCond28) V3 load(1, XDATA, add(CFA_XSP16, literal(-19)))
          CFI (cfiCond28) V4 load(1, XDATA, add(CFA_XSP16, literal(-18)))
          CFI (cfiCond28) V5 load(1, XDATA, add(CFA_XSP16, literal(-17)))
          CFI (cfiCond28) V6 load(1, XDATA, add(CFA_XSP16, literal(-16)))
          CFI (cfiCond28) V7 load(1, XDATA, add(CFA_XSP16, literal(-15)))
          CFI (cfiCond28) V8 load(1, XDATA, add(CFA_XSP16, literal(-14)))
          CFI (cfiCond28) V9 load(1, XDATA, add(CFA_XSP16, literal(-13)))
          CFI (cfiCond28) V10 load(1, XDATA, add(CFA_XSP16, literal(-12)))
          CFI (cfiCond28) V11 load(1, XDATA, add(CFA_XSP16, literal(-11)))
          CFI (cfiCond28) V12 load(1, XDATA, add(CFA_XSP16, literal(-10)))
          CFI (cfiCond28) V13 load(1, XDATA, add(CFA_XSP16, literal(-9)))
          CFI (cfiCond28) V14 load(1, XDATA, add(CFA_XSP16, literal(-8)))
          CFI (cfiCond28) V15 load(1, XDATA, add(CFA_XSP16, literal(-7)))
          CFI (cfiCond28) R7 load(1, XDATA, add(CFA_XSP16, literal(-6)))
          CFI (cfiCond28) ?RET_LOW load(1, XDATA, add(CFA_XSP16, literal(-5)))
          CFI (cfiCond28) ?RET_HIGH load(1, XDATA, add(CFA_XSP16, literal(-4)))
          CFI (cfiCond28) ?BRET_EXT load(1, XDATA, add(CFA_XSP16, literal(-3)))
          CFI (cfiCond28) DPL0 load(1, XDATA, add(CFA_XSP16, literal(-2)))
          CFI (cfiCond28) DPH0 load(1, XDATA, add(CFA_XSP16, literal(-1)))
          CFI (cfiCond28) CFA_SP SP+0
          CFI (cfiCond28) CFA_XSP16 add(XSP16, 24)
          CFI Block cfiPicker29 Using cfiCommon1
          CFI (cfiPicker29) NoFunction
          CFI (cfiPicker29) Picker
        INC     DPTR
        INC     DPTR
        INC     DPTR
        MOVX    A,@DPTR
        ADD     A,#-0x30
        MOV     ?V0 + 0,A
        CLR     A
        ADDC    A,#-0x1
        LCALL   ?Subroutine27 & 0xFFFF
??CrossCallReturnLabel_49:
        RET
          CFI EndBlock cfiCond26
          CFI EndBlock cfiCond27
          CFI EndBlock cfiCond28
          CFI EndBlock cfiPicker29

        RSEG BANKED_CODE:CODE:NOROOT(0)
?Subroutine27:
          CFI Block cfiCond30 Using cfiCommon0
          CFI Function SampleApp_QuadrotorMSGCB
          CFI Conditional ??CrossCallReturnLabel_48
          CFI R6 load(1, XDATA, add(CFA_XSP16, literal(-24)))
          CFI VB load(1, XDATA, add(CFA_XSP16, literal(-23)))
          CFI V0 load(1, XDATA, add(CFA_XSP16, literal(-22)))
          CFI V1 load(1, XDATA, add(CFA_XSP16, literal(-21)))
          CFI V2 load(1, XDATA, add(CFA_XSP16, literal(-20)))
          CFI V3 load(1, XDATA, add(CFA_XSP16, literal(-19)))
          CFI V4 load(1, XDATA, add(CFA_XSP16, literal(-18)))
          CFI V5 load(1, XDATA, add(CFA_XSP16, literal(-17)))
          CFI V6 load(1, XDATA, add(CFA_XSP16, literal(-16)))
          CFI V7 load(1, XDATA, add(CFA_XSP16, literal(-15)))
          CFI V8 load(1, XDATA, add(CFA_XSP16, literal(-14)))
          CFI V9 load(1, XDATA, add(CFA_XSP16, literal(-13)))
          CFI V10 load(1, XDATA, add(CFA_XSP16, literal(-12)))
          CFI V11 load(1, XDATA, add(CFA_XSP16, literal(-11)))
          CFI V12 load(1, XDATA, add(CFA_XSP16, literal(-10)))
          CFI V13 load(1, XDATA, add(CFA_XSP16, literal(-9)))
          CFI V14 load(1, XDATA, add(CFA_XSP16, literal(-8)))
          CFI V15 load(1, XDATA, add(CFA_XSP16, literal(-7)))
          CFI R7 load(1, XDATA, add(CFA_XSP16, literal(-6)))
          CFI ?RET_LOW load(1, XDATA, add(CFA_XSP16, literal(-5)))
          CFI ?RET_HIGH load(1, XDATA, add(CFA_XSP16, literal(-4)))
          CFI ?BRET_EXT load(1, XDATA, add(CFA_XSP16, literal(-3)))
          CFI DPL0 load(1, XDATA, add(CFA_XSP16, literal(-2)))
          CFI DPH0 load(1, XDATA, add(CFA_XSP16, literal(-1)))
          CFI CFA_SP SP+0
          CFI CFA_XSP16 add(XSP16, 24)
          CFI Block cfiCond31 Using cfiCommon0
          CFI (cfiCond31) Function SampleApp_MessageMSGCB
          CFI (cfiCond31) Conditional ??CrossCallReturnLabel_49, ??CrossCallReturnLabel_17
          CFI (cfiCond31) R6 load(1, XDATA, add(CFA_XSP16, literal(-20)))
          CFI (cfiCond31) VB load(1, XDATA, add(CFA_XSP16, literal(-19)))
          CFI (cfiCond31) V0 load(1, XDATA, add(CFA_XSP16, literal(-18)))
          CFI (cfiCond31) V1 load(1, XDATA, add(CFA_XSP16, literal(-17)))
          CFI (cfiCond31) V2 load(1, XDATA, add(CFA_XSP16, literal(-16)))
          CFI (cfiCond31) V3 load(1, XDATA, add(CFA_XSP16, literal(-15)))
          CFI (cfiCond31) V4 load(1, XDATA, add(CFA_XSP16, literal(-14)))
          CFI (cfiCond31) V5 load(1, XDATA, add(CFA_XSP16, literal(-13)))
          CFI (cfiCond31) V6 load(1, XDATA, add(CFA_XSP16, literal(-12)))
          CFI (cfiCond31) V7 load(1, XDATA, add(CFA_XSP16, literal(-11)))
          CFI (cfiCond31) V8 load(1, XDATA, add(CFA_XSP16, literal(-10)))
          CFI (cfiCond31) V9 load(1, XDATA, add(CFA_XSP16, literal(-9)))
          CFI (cfiCond31) V10 load(1, XDATA, add(CFA_XSP16, literal(-8)))
          CFI (cfiCond31) V11 load(1, XDATA, add(CFA_XSP16, literal(-7)))
          CFI (cfiCond31) R7 load(1, XDATA, add(CFA_XSP16, literal(-6)))
          CFI (cfiCond31) ?RET_LOW load(1, XDATA, add(CFA_XSP16, literal(-5)))
          CFI (cfiCond31) ?RET_HIGH load(1, XDATA, add(CFA_XSP16, literal(-4)))
          CFI (cfiCond31) ?BRET_EXT load(1, XDATA, add(CFA_XSP16, literal(-3)))
          CFI (cfiCond31) DPL0 load(1, XDATA, add(CFA_XSP16, literal(-2)))
          CFI (cfiCond31) DPH0 load(1, XDATA, add(CFA_XSP16, literal(-1)))
          CFI (cfiCond31) CFA_SP SP+0
          CFI (cfiCond31) CFA_XSP16 add(XSP16, 20)
          CFI Block cfiCond32 Using cfiCommon0
          CFI (cfiCond32) Function SampleApp_QuadrotorMSGCB
          CFI (cfiCond32) Conditional ??CrossCallReturnLabel_49, ??CrossCallReturnLabel_18
          CFI (cfiCond32) R6 load(1, XDATA, add(CFA_XSP16, literal(-24)))
          CFI (cfiCond32) VB load(1, XDATA, add(CFA_XSP16, literal(-23)))
          CFI (cfiCond32) V0 load(1, XDATA, add(CFA_XSP16, literal(-22)))
          CFI (cfiCond32) V1 load(1, XDATA, add(CFA_XSP16, literal(-21)))
          CFI (cfiCond32) V2 load(1, XDATA, add(CFA_XSP16, literal(-20)))
          CFI (cfiCond32) V3 load(1, XDATA, add(CFA_XSP16, literal(-19)))
          CFI (cfiCond32) V4 load(1, XDATA, add(CFA_XSP16, literal(-18)))
          CFI (cfiCond32) V5 load(1, XDATA, add(CFA_XSP16, literal(-17)))
          CFI (cfiCond32) V6 load(1, XDATA, add(CFA_XSP16, literal(-16)))
          CFI (cfiCond32) V7 load(1, XDATA, add(CFA_XSP16, literal(-15)))
          CFI (cfiCond32) V8 load(1, XDATA, add(CFA_XSP16, literal(-14)))
          CFI (cfiCond32) V9 load(1, XDATA, add(CFA_XSP16, literal(-13)))
          CFI (cfiCond32) V10 load(1, XDATA, add(CFA_XSP16, literal(-12)))
          CFI (cfiCond32) V11 load(1, XDATA, add(CFA_XSP16, literal(-11)))
          CFI (cfiCond32) V12 load(1, XDATA, add(CFA_XSP16, literal(-10)))
          CFI (cfiCond32) V13 load(1, XDATA, add(CFA_XSP16, literal(-9)))
          CFI (cfiCond32) V14 load(1, XDATA, add(CFA_XSP16, literal(-8)))
          CFI (cfiCond32) V15 load(1, XDATA, add(CFA_XSP16, literal(-7)))
          CFI (cfiCond32) R7 load(1, XDATA, add(CFA_XSP16, literal(-6)))
          CFI (cfiCond32) ?RET_LOW load(1, XDATA, add(CFA_XSP16, literal(-5)))
          CFI (cfiCond32) ?RET_HIGH load(1, XDATA, add(CFA_XSP16, literal(-4)))
          CFI (cfiCond32) ?BRET_EXT load(1, XDATA, add(CFA_XSP16, literal(-3)))
          CFI (cfiCond32) DPL0 load(1, XDATA, add(CFA_XSP16, literal(-2)))
          CFI (cfiCond32) DPH0 load(1, XDATA, add(CFA_XSP16, literal(-1)))
          CFI (cfiCond32) CFA_SP SP+0
          CFI (cfiCond32) CFA_XSP16 add(XSP16, 24)
          CFI Block cfiCond33 Using cfiCommon0
          CFI (cfiCond33) Function SampleApp_QuadrotorMSGCB
          CFI (cfiCond33) Conditional ??CrossCallReturnLabel_49, ??CrossCallReturnLabel_19
          CFI (cfiCond33) R6 load(1, XDATA, add(CFA_XSP16, literal(-24)))
          CFI (cfiCond33) VB load(1, XDATA, add(CFA_XSP16, literal(-23)))
          CFI (cfiCond33) V0 load(1, XDATA, add(CFA_XSP16, literal(-22)))
          CFI (cfiCond33) V1 load(1, XDATA, add(CFA_XSP16, literal(-21)))
          CFI (cfiCond33) V2 load(1, XDATA, add(CFA_XSP16, literal(-20)))
          CFI (cfiCond33) V3 load(1, XDATA, add(CFA_XSP16, literal(-19)))
          CFI (cfiCond33) V4 load(1, XDATA, add(CFA_XSP16, literal(-18)))
          CFI (cfiCond33) V5 load(1, XDATA, add(CFA_XSP16, literal(-17)))
          CFI (cfiCond33) V6 load(1, XDATA, add(CFA_XSP16, literal(-16)))
          CFI (cfiCond33) V7 load(1, XDATA, add(CFA_XSP16, literal(-15)))
          CFI (cfiCond33) V8 load(1, XDATA, add(CFA_XSP16, literal(-14)))
          CFI (cfiCond33) V9 load(1, XDATA, add(CFA_XSP16, literal(-13)))
          CFI (cfiCond33) V10 load(1, XDATA, add(CFA_XSP16, literal(-12)))
          CFI (cfiCond33) V11 load(1, XDATA, add(CFA_XSP16, literal(-11)))
          CFI (cfiCond33) V12 load(1, XDATA, add(CFA_XSP16, literal(-10)))
          CFI (cfiCond33) V13 load(1, XDATA, add(CFA_XSP16, literal(-9)))
          CFI (cfiCond33) V14 load(1, XDATA, add(CFA_XSP16, literal(-8)))
          CFI (cfiCond33) V15 load(1, XDATA, add(CFA_XSP16, literal(-7)))
          CFI (cfiCond33) R7 load(1, XDATA, add(CFA_XSP16, literal(-6)))
          CFI (cfiCond33) ?RET_LOW load(1, XDATA, add(CFA_XSP16, literal(-5)))
          CFI (cfiCond33) ?RET_HIGH load(1, XDATA, add(CFA_XSP16, literal(-4)))
          CFI (cfiCond33) ?BRET_EXT load(1, XDATA, add(CFA_XSP16, literal(-3)))
          CFI (cfiCond33) DPL0 load(1, XDATA, add(CFA_XSP16, literal(-2)))
          CFI (cfiCond33) DPH0 load(1, XDATA, add(CFA_XSP16, literal(-1)))
          CFI (cfiCond33) CFA_SP SP+0
          CFI (cfiCond33) CFA_XSP16 add(XSP16, 24)
          CFI Block cfiPicker34 Using cfiCommon1
          CFI (cfiPicker34) NoFunction
          CFI (cfiPicker34) Picker
        MOV     ?V0 + 1,A
          CFI EndBlock cfiCond30
          CFI EndBlock cfiCond31
          CFI EndBlock cfiCond32
          CFI EndBlock cfiCond33
          CFI EndBlock cfiPicker34
        REQUIRE ??Subroutine29_0
        ; // Fall through to label ??Subroutine29_0

        RSEG BANKED_CODE:CODE:NOROOT(0)
??Subroutine29_0:
          CFI Block cfiCond35 Using cfiCommon0
          CFI Function SampleApp_Router_calibrationAMessage
          CFI Conditional ??CrossCallReturnLabel_47, ??CrossCallReturnLabel_8
          CFI R6 load(1, XDATA, add(CFA_XSP16, literal(-20)))
          CFI VB load(1, XDATA, add(CFA_XSP16, literal(-19)))
          CFI V0 load(1, XDATA, add(CFA_XSP16, literal(-18)))
          CFI V1 load(1, XDATA, add(CFA_XSP16, literal(-17)))
          CFI V2 load(1, XDATA, add(CFA_XSP16, literal(-16)))
          CFI V3 load(1, XDATA, add(CFA_XSP16, literal(-15)))
          CFI V4 load(1, XDATA, add(CFA_XSP16, literal(-14)))
          CFI V5 load(1, XDATA, add(CFA_XSP16, literal(-13)))
          CFI V6 load(1, XDATA, add(CFA_XSP16, literal(-12)))
          CFI V7 load(1, XDATA, add(CFA_XSP16, literal(-11)))
          CFI V8 load(1, XDATA, add(CFA_XSP16, literal(-10)))
          CFI V9 load(1, XDATA, add(CFA_XSP16, literal(-9)))
          CFI V10 load(1, XDATA, add(CFA_XSP16, literal(-8)))
          CFI V11 load(1, XDATA, add(CFA_XSP16, literal(-7)))
          CFI R7 load(1, XDATA, add(CFA_XSP16, literal(-6)))
          CFI ?RET_LOW load(1, XDATA, add(CFA_XSP16, literal(-5)))
          CFI ?RET_HIGH load(1, XDATA, add(CFA_XSP16, literal(-4)))
          CFI ?BRET_EXT load(1, XDATA, add(CFA_XSP16, literal(-3)))
          CFI DPL0 load(1, XDATA, add(CFA_XSP16, literal(-2)))
          CFI DPH0 load(1, XDATA, add(CFA_XSP16, literal(-1)))
          CFI CFA_SP SP+0
          CFI CFA_XSP16 add(XSP16, 27)
          CFI Block cfiCond36 Using cfiCommon0
          CFI (cfiCond36) Function SampleApp_Tester_calibrationAMessage
          CFI (cfiCond36) Conditional ??CrossCallReturnLabel_47, ??CrossCallReturnLabel_9
          CFI (cfiCond36) R6 load(1, XDATA, add(CFA_XSP16, literal(-20)))
          CFI (cfiCond36) VB load(1, XDATA, add(CFA_XSP16, literal(-19)))
          CFI (cfiCond36) V0 load(1, XDATA, add(CFA_XSP16, literal(-18)))
          CFI (cfiCond36) V1 load(1, XDATA, add(CFA_XSP16, literal(-17)))
          CFI (cfiCond36) V2 load(1, XDATA, add(CFA_XSP16, literal(-16)))
          CFI (cfiCond36) V3 load(1, XDATA, add(CFA_XSP16, literal(-15)))
          CFI (cfiCond36) V4 load(1, XDATA, add(CFA_XSP16, literal(-14)))
          CFI (cfiCond36) V5 load(1, XDATA, add(CFA_XSP16, literal(-13)))
          CFI (cfiCond36) V6 load(1, XDATA, add(CFA_XSP16, literal(-12)))
          CFI (cfiCond36) V7 load(1, XDATA, add(CFA_XSP16, literal(-11)))
          CFI (cfiCond36) V8 load(1, XDATA, add(CFA_XSP16, literal(-10)))
          CFI (cfiCond36) V9 load(1, XDATA, add(CFA_XSP16, literal(-9)))
          CFI (cfiCond36) V10 load(1, XDATA, add(CFA_XSP16, literal(-8)))
          CFI (cfiCond36) V11 load(1, XDATA, add(CFA_XSP16, literal(-7)))
          CFI (cfiCond36) R7 load(1, XDATA, add(CFA_XSP16, literal(-6)))
          CFI (cfiCond36) ?RET_LOW load(1, XDATA, add(CFA_XSP16, literal(-5)))
          CFI (cfiCond36) ?RET_HIGH load(1, XDATA, add(CFA_XSP16, literal(-4)))
          CFI (cfiCond36) ?BRET_EXT load(1, XDATA, add(CFA_XSP16, literal(-3)))
          CFI (cfiCond36) DPL0 load(1, XDATA, add(CFA_XSP16, literal(-2)))
          CFI (cfiCond36) DPH0 load(1, XDATA, add(CFA_XSP16, literal(-1)))
          CFI (cfiCond36) CFA_SP SP+0
          CFI (cfiCond36) CFA_XSP16 add(XSP16, 27)
          CFI Block cfiCond37 Using cfiCommon0
          CFI (cfiCond37) Function SampleApp_Tester_calibration_differentAMessage
          CFI (cfiCond37) Conditional ??CrossCallReturnLabel_47, ??CrossCallReturnLabel_10
          CFI (cfiCond37) R6 load(1, XDATA, add(CFA_XSP16, literal(-20)))
          CFI (cfiCond37) VB load(1, XDATA, add(CFA_XSP16, literal(-19)))
          CFI (cfiCond37) V0 load(1, XDATA, add(CFA_XSP16, literal(-18)))
          CFI (cfiCond37) V1 load(1, XDATA, add(CFA_XSP16, literal(-17)))
          CFI (cfiCond37) V2 load(1, XDATA, add(CFA_XSP16, literal(-16)))
          CFI (cfiCond37) V3 load(1, XDATA, add(CFA_XSP16, literal(-15)))
          CFI (cfiCond37) V4 load(1, XDATA, add(CFA_XSP16, literal(-14)))
          CFI (cfiCond37) V5 load(1, XDATA, add(CFA_XSP16, literal(-13)))
          CFI (cfiCond37) V6 load(1, XDATA, add(CFA_XSP16, literal(-12)))
          CFI (cfiCond37) V7 load(1, XDATA, add(CFA_XSP16, literal(-11)))
          CFI (cfiCond37) V8 load(1, XDATA, add(CFA_XSP16, literal(-10)))
          CFI (cfiCond37) V9 load(1, XDATA, add(CFA_XSP16, literal(-9)))
          CFI (cfiCond37) V10 load(1, XDATA, add(CFA_XSP16, literal(-8)))
          CFI (cfiCond37) V11 load(1, XDATA, add(CFA_XSP16, literal(-7)))
          CFI (cfiCond37) R7 load(1, XDATA, add(CFA_XSP16, literal(-6)))
          CFI (cfiCond37) ?RET_LOW load(1, XDATA, add(CFA_XSP16, literal(-5)))
          CFI (cfiCond37) ?RET_HIGH load(1, XDATA, add(CFA_XSP16, literal(-4)))
          CFI (cfiCond37) ?BRET_EXT load(1, XDATA, add(CFA_XSP16, literal(-3)))
          CFI (cfiCond37) DPL0 load(1, XDATA, add(CFA_XSP16, literal(-2)))
          CFI (cfiCond37) DPH0 load(1, XDATA, add(CFA_XSP16, literal(-1)))
          CFI (cfiCond37) CFA_SP SP+0
          CFI (cfiCond37) CFA_XSP16 add(XSP16, 28)
          CFI Block cfiCond38 Using cfiCommon0
          CFI (cfiCond38) Function SampleApp_Tester_calibrationOffsetAMessage
          CFI (cfiCond38) Conditional ??CrossCallReturnLabel_47, ??CrossCallReturnLabel_10
          CFI (cfiCond38) R6 load(1, XDATA, add(CFA_XSP16, literal(-20)))
          CFI (cfiCond38) VB load(1, XDATA, add(CFA_XSP16, literal(-19)))
          CFI (cfiCond38) V0 load(1, XDATA, add(CFA_XSP16, literal(-18)))
          CFI (cfiCond38) V1 load(1, XDATA, add(CFA_XSP16, literal(-17)))
          CFI (cfiCond38) V2 load(1, XDATA, add(CFA_XSP16, literal(-16)))
          CFI (cfiCond38) V3 load(1, XDATA, add(CFA_XSP16, literal(-15)))
          CFI (cfiCond38) V4 load(1, XDATA, add(CFA_XSP16, literal(-14)))
          CFI (cfiCond38) V5 load(1, XDATA, add(CFA_XSP16, literal(-13)))
          CFI (cfiCond38) V6 load(1, XDATA, add(CFA_XSP16, literal(-12)))
          CFI (cfiCond38) V7 load(1, XDATA, add(CFA_XSP16, literal(-11)))
          CFI (cfiCond38) V8 load(1, XDATA, add(CFA_XSP16, literal(-10)))
          CFI (cfiCond38) V9 load(1, XDATA, add(CFA_XSP16, literal(-9)))
          CFI (cfiCond38) V10 load(1, XDATA, add(CFA_XSP16, literal(-8)))
          CFI (cfiCond38) V11 load(1, XDATA, add(CFA_XSP16, literal(-7)))
          CFI (cfiCond38) R7 load(1, XDATA, add(CFA_XSP16, literal(-6)))
          CFI (cfiCond38) ?RET_LOW load(1, XDATA, add(CFA_XSP16, literal(-5)))
          CFI (cfiCond38) ?RET_HIGH load(1, XDATA, add(CFA_XSP16, literal(-4)))
          CFI (cfiCond38) ?BRET_EXT load(1, XDATA, add(CFA_XSP16, literal(-3)))
          CFI (cfiCond38) DPL0 load(1, XDATA, add(CFA_XSP16, literal(-2)))
          CFI (cfiCond38) DPH0 load(1, XDATA, add(CFA_XSP16, literal(-1)))
          CFI (cfiCond38) CFA_SP SP+0
          CFI (cfiCond38) CFA_XSP16 add(XSP16, 28)
          CFI Block cfiCond39 Using cfiCommon0
          CFI (cfiCond39) Function SampleApp_QuadrotorMSGCB
          CFI (cfiCond39) Conditional ??CrossCallReturnLabel_48
          CFI (cfiCond39) R6 load(1, XDATA, add(CFA_XSP16, literal(-24)))
          CFI (cfiCond39) VB load(1, XDATA, add(CFA_XSP16, literal(-23)))
          CFI (cfiCond39) V0 load(1, XDATA, add(CFA_XSP16, literal(-22)))
          CFI (cfiCond39) V1 load(1, XDATA, add(CFA_XSP16, literal(-21)))
          CFI (cfiCond39) V2 load(1, XDATA, add(CFA_XSP16, literal(-20)))
          CFI (cfiCond39) V3 load(1, XDATA, add(CFA_XSP16, literal(-19)))
          CFI (cfiCond39) V4 load(1, XDATA, add(CFA_XSP16, literal(-18)))
          CFI (cfiCond39) V5 load(1, XDATA, add(CFA_XSP16, literal(-17)))
          CFI (cfiCond39) V6 load(1, XDATA, add(CFA_XSP16, literal(-16)))
          CFI (cfiCond39) V7 load(1, XDATA, add(CFA_XSP16, literal(-15)))
          CFI (cfiCond39) V8 load(1, XDATA, add(CFA_XSP16, literal(-14)))
          CFI (cfiCond39) V9 load(1, XDATA, add(CFA_XSP16, literal(-13)))
          CFI (cfiCond39) V10 load(1, XDATA, add(CFA_XSP16, literal(-12)))
          CFI (cfiCond39) V11 load(1, XDATA, add(CFA_XSP16, literal(-11)))
          CFI (cfiCond39) V12 load(1, XDATA, add(CFA_XSP16, literal(-10)))
          CFI (cfiCond39) V13 load(1, XDATA, add(CFA_XSP16, literal(-9)))
          CFI (cfiCond39) V14 load(1, XDATA, add(CFA_XSP16, literal(-8)))
          CFI (cfiCond39) V15 load(1, XDATA, add(CFA_XSP16, literal(-7)))
          CFI (cfiCond39) R7 load(1, XDATA, add(CFA_XSP16, literal(-6)))
          CFI (cfiCond39) ?RET_LOW load(1, XDATA, add(CFA_XSP16, literal(-5)))
          CFI (cfiCond39) ?RET_HIGH load(1, XDATA, add(CFA_XSP16, literal(-4)))
          CFI (cfiCond39) ?BRET_EXT load(1, XDATA, add(CFA_XSP16, literal(-3)))
          CFI (cfiCond39) DPL0 load(1, XDATA, add(CFA_XSP16, literal(-2)))
          CFI (cfiCond39) DPH0 load(1, XDATA, add(CFA_XSP16, literal(-1)))
          CFI (cfiCond39) CFA_SP SP+0
          CFI (cfiCond39) CFA_XSP16 add(XSP16, 24)
          CFI Block cfiCond40 Using cfiCommon0
          CFI (cfiCond40) Function SampleApp_MessageMSGCB
          CFI (cfiCond40) Conditional ??CrossCallReturnLabel_49, ??CrossCallReturnLabel_17
          CFI (cfiCond40) R6 load(1, XDATA, add(CFA_XSP16, literal(-20)))
          CFI (cfiCond40) VB load(1, XDATA, add(CFA_XSP16, literal(-19)))
          CFI (cfiCond40) V0 load(1, XDATA, add(CFA_XSP16, literal(-18)))
          CFI (cfiCond40) V1 load(1, XDATA, add(CFA_XSP16, literal(-17)))
          CFI (cfiCond40) V2 load(1, XDATA, add(CFA_XSP16, literal(-16)))
          CFI (cfiCond40) V3 load(1, XDATA, add(CFA_XSP16, literal(-15)))
          CFI (cfiCond40) V4 load(1, XDATA, add(CFA_XSP16, literal(-14)))
          CFI (cfiCond40) V5 load(1, XDATA, add(CFA_XSP16, literal(-13)))
          CFI (cfiCond40) V6 load(1, XDATA, add(CFA_XSP16, literal(-12)))
          CFI (cfiCond40) V7 load(1, XDATA, add(CFA_XSP16, literal(-11)))
          CFI (cfiCond40) V8 load(1, XDATA, add(CFA_XSP16, literal(-10)))
          CFI (cfiCond40) V9 load(1, XDATA, add(CFA_XSP16, literal(-9)))
          CFI (cfiCond40) V10 load(1, XDATA, add(CFA_XSP16, literal(-8)))
          CFI (cfiCond40) V11 load(1, XDATA, add(CFA_XSP16, literal(-7)))
          CFI (cfiCond40) R7 load(1, XDATA, add(CFA_XSP16, literal(-6)))
          CFI (cfiCond40) ?RET_LOW load(1, XDATA, add(CFA_XSP16, literal(-5)))
          CFI (cfiCond40) ?RET_HIGH load(1, XDATA, add(CFA_XSP16, literal(-4)))
          CFI (cfiCond40) ?BRET_EXT load(1, XDATA, add(CFA_XSP16, literal(-3)))
          CFI (cfiCond40) DPL0 load(1, XDATA, add(CFA_XSP16, literal(-2)))
          CFI (cfiCond40) DPH0 load(1, XDATA, add(CFA_XSP16, literal(-1)))
          CFI (cfiCond40) CFA_SP SP+0
          CFI (cfiCond40) CFA_XSP16 add(XSP16, 20)
          CFI Block cfiCond41 Using cfiCommon0
          CFI (cfiCond41) Function SampleApp_QuadrotorMSGCB
          CFI (cfiCond41) Conditional ??CrossCallReturnLabel_49, ??CrossCallReturnLabel_18
          CFI (cfiCond41) R6 load(1, XDATA, add(CFA_XSP16, literal(-24)))
          CFI (cfiCond41) VB load(1, XDATA, add(CFA_XSP16, literal(-23)))
          CFI (cfiCond41) V0 load(1, XDATA, add(CFA_XSP16, literal(-22)))
          CFI (cfiCond41) V1 load(1, XDATA, add(CFA_XSP16, literal(-21)))
          CFI (cfiCond41) V2 load(1, XDATA, add(CFA_XSP16, literal(-20)))
          CFI (cfiCond41) V3 load(1, XDATA, add(CFA_XSP16, literal(-19)))
          CFI (cfiCond41) V4 load(1, XDATA, add(CFA_XSP16, literal(-18)))
          CFI (cfiCond41) V5 load(1, XDATA, add(CFA_XSP16, literal(-17)))
          CFI (cfiCond41) V6 load(1, XDATA, add(CFA_XSP16, literal(-16)))
          CFI (cfiCond41) V7 load(1, XDATA, add(CFA_XSP16, literal(-15)))
          CFI (cfiCond41) V8 load(1, XDATA, add(CFA_XSP16, literal(-14)))
          CFI (cfiCond41) V9 load(1, XDATA, add(CFA_XSP16, literal(-13)))
          CFI (cfiCond41) V10 load(1, XDATA, add(CFA_XSP16, literal(-12)))
          CFI (cfiCond41) V11 load(1, XDATA, add(CFA_XSP16, literal(-11)))
          CFI (cfiCond41) V12 load(1, XDATA, add(CFA_XSP16, literal(-10)))
          CFI (cfiCond41) V13 load(1, XDATA, add(CFA_XSP16, literal(-9)))
          CFI (cfiCond41) V14 load(1, XDATA, add(CFA_XSP16, literal(-8)))
          CFI (cfiCond41) V15 load(1, XDATA, add(CFA_XSP16, literal(-7)))
          CFI (cfiCond41) R7 load(1, XDATA, add(CFA_XSP16, literal(-6)))
          CFI (cfiCond41) ?RET_LOW load(1, XDATA, add(CFA_XSP16, literal(-5)))
          CFI (cfiCond41) ?RET_HIGH load(1, XDATA, add(CFA_XSP16, literal(-4)))
          CFI (cfiCond41) ?BRET_EXT load(1, XDATA, add(CFA_XSP16, literal(-3)))
          CFI (cfiCond41) DPL0 load(1, XDATA, add(CFA_XSP16, literal(-2)))
          CFI (cfiCond41) DPH0 load(1, XDATA, add(CFA_XSP16, literal(-1)))
          CFI (cfiCond41) CFA_SP SP+0
          CFI (cfiCond41) CFA_XSP16 add(XSP16, 24)
          CFI Block cfiCond42 Using cfiCommon0
          CFI (cfiCond42) Function SampleApp_QuadrotorMSGCB
          CFI (cfiCond42) Conditional ??CrossCallReturnLabel_49, ??CrossCallReturnLabel_19
          CFI (cfiCond42) R6 load(1, XDATA, add(CFA_XSP16, literal(-24)))
          CFI (cfiCond42) VB load(1, XDATA, add(CFA_XSP16, literal(-23)))
          CFI (cfiCond42) V0 load(1, XDATA, add(CFA_XSP16, literal(-22)))
          CFI (cfiCond42) V1 load(1, XDATA, add(CFA_XSP16, literal(-21)))
          CFI (cfiCond42) V2 load(1, XDATA, add(CFA_XSP16, literal(-20)))
          CFI (cfiCond42) V3 load(1, XDATA, add(CFA_XSP16, literal(-19)))
          CFI (cfiCond42) V4 load(1, XDATA, add(CFA_XSP16, literal(-18)))
          CFI (cfiCond42) V5 load(1, XDATA, add(CFA_XSP16, literal(-17)))
          CFI (cfiCond42) V6 load(1, XDATA, add(CFA_XSP16, literal(-16)))
          CFI (cfiCond42) V7 load(1, XDATA, add(CFA_XSP16, literal(-15)))
          CFI (cfiCond42) V8 load(1, XDATA, add(CFA_XSP16, literal(-14)))
          CFI (cfiCond42) V9 load(1, XDATA, add(CFA_XSP16, literal(-13)))
          CFI (cfiCond42) V10 load(1, XDATA, add(CFA_XSP16, literal(-12)))
          CFI (cfiCond42) V11 load(1, XDATA, add(CFA_XSP16, literal(-11)))
          CFI (cfiCond42) V12 load(1, XDATA, add(CFA_XSP16, literal(-10)))
          CFI (cfiCond42) V13 load(1, XDATA, add(CFA_XSP16, literal(-9)))
          CFI (cfiCond42) V14 load(1, XDATA, add(CFA_XSP16, literal(-8)))
          CFI (cfiCond42) V15 load(1, XDATA, add(CFA_XSP16, literal(-7)))
          CFI (cfiCond42) R7 load(1, XDATA, add(CFA_XSP16, literal(-6)))
          CFI (cfiCond42) ?RET_LOW load(1, XDATA, add(CFA_XSP16, literal(-5)))
          CFI (cfiCond42) ?RET_HIGH load(1, XDATA, add(CFA_XSP16, literal(-4)))
          CFI (cfiCond42) ?BRET_EXT load(1, XDATA, add(CFA_XSP16, literal(-3)))
          CFI (cfiCond42) DPL0 load(1, XDATA, add(CFA_XSP16, literal(-2)))
          CFI (cfiCond42) DPH0 load(1, XDATA, add(CFA_XSP16, literal(-1)))
          CFI (cfiCond42) CFA_SP SP+0
          CFI (cfiCond42) CFA_XSP16 add(XSP16, 24)
          CFI Block cfiPicker43 Using cfiCommon1
          CFI (cfiPicker43) NoFunction
          CFI (cfiPicker43) Picker
        RLC     A
        SUBB    A,0xE0 /* A   */
        MOV     ?V0 + 2,A
        MOV     ?V0 + 3,A
        MOV     R0,#?V0 + 0
        RET
          CFI EndBlock cfiCond35
          CFI EndBlock cfiCond36
          CFI EndBlock cfiCond37
          CFI EndBlock cfiCond38
          CFI EndBlock cfiCond39
          CFI EndBlock cfiCond40
          CFI EndBlock cfiCond41
          CFI EndBlock cfiCond42
          CFI EndBlock cfiPicker43

        RSEG BANKED_CODE:CODE:NOROOT(0)
?Subroutine12:
          CFI Block cfiCond44 Using cfiCommon0
          CFI Function SampleApp_QuadrotorMSGCB
          CFI Conditional ??CrossCallReturnLabel_54
          CFI R6 load(1, XDATA, add(CFA_XSP16, literal(-24)))
          CFI VB load(1, XDATA, add(CFA_XSP16, literal(-23)))
          CFI V0 load(1, XDATA, add(CFA_XSP16, literal(-22)))
          CFI V1 load(1, XDATA, add(CFA_XSP16, literal(-21)))
          CFI V2 load(1, XDATA, add(CFA_XSP16, literal(-20)))
          CFI V3 load(1, XDATA, add(CFA_XSP16, literal(-19)))
          CFI V4 load(1, XDATA, add(CFA_XSP16, literal(-18)))
          CFI V5 load(1, XDATA, add(CFA_XSP16, literal(-17)))
          CFI V6 load(1, XDATA, add(CFA_XSP16, literal(-16)))
          CFI V7 load(1, XDATA, add(CFA_XSP16, literal(-15)))
          CFI V8 load(1, XDATA, add(CFA_XSP16, literal(-14)))
          CFI V9 load(1, XDATA, add(CFA_XSP16, literal(-13)))
          CFI V10 load(1, XDATA, add(CFA_XSP16, literal(-12)))
          CFI V11 load(1, XDATA, add(CFA_XSP16, literal(-11)))
          CFI V12 load(1, XDATA, add(CFA_XSP16, literal(-10)))
          CFI V13 load(1, XDATA, add(CFA_XSP16, literal(-9)))
          CFI V14 load(1, XDATA, add(CFA_XSP16, literal(-8)))
          CFI V15 load(1, XDATA, add(CFA_XSP16, literal(-7)))
          CFI R7 load(1, XDATA, add(CFA_XSP16, literal(-6)))
          CFI ?RET_LOW load(1, XDATA, add(CFA_XSP16, literal(-5)))
          CFI ?RET_HIGH load(1, XDATA, add(CFA_XSP16, literal(-4)))
          CFI ?BRET_EXT load(1, XDATA, add(CFA_XSP16, literal(-3)))
          CFI DPL0 load(1, XDATA, add(CFA_XSP16, literal(-2)))
          CFI DPH0 load(1, XDATA, add(CFA_XSP16, literal(-1)))
          CFI CFA_SP SP+0
          CFI CFA_XSP16 add(XSP16, 24)
          CFI Block cfiCond45 Using cfiCommon0
          CFI (cfiCond45) Function SampleApp_QuadrotorMSGCB
          CFI (cfiCond45) Conditional ??CrossCallReturnLabel_55
          CFI (cfiCond45) R6 load(1, XDATA, add(CFA_XSP16, literal(-24)))
          CFI (cfiCond45) VB load(1, XDATA, add(CFA_XSP16, literal(-23)))
          CFI (cfiCond45) V0 load(1, XDATA, add(CFA_XSP16, literal(-22)))
          CFI (cfiCond45) V1 load(1, XDATA, add(CFA_XSP16, literal(-21)))
          CFI (cfiCond45) V2 load(1, XDATA, add(CFA_XSP16, literal(-20)))
          CFI (cfiCond45) V3 load(1, XDATA, add(CFA_XSP16, literal(-19)))
          CFI (cfiCond45) V4 load(1, XDATA, add(CFA_XSP16, literal(-18)))
          CFI (cfiCond45) V5 load(1, XDATA, add(CFA_XSP16, literal(-17)))
          CFI (cfiCond45) V6 load(1, XDATA, add(CFA_XSP16, literal(-16)))
          CFI (cfiCond45) V7 load(1, XDATA, add(CFA_XSP16, literal(-15)))
          CFI (cfiCond45) V8 load(1, XDATA, add(CFA_XSP16, literal(-14)))
          CFI (cfiCond45) V9 load(1, XDATA, add(CFA_XSP16, literal(-13)))
          CFI (cfiCond45) V10 load(1, XDATA, add(CFA_XSP16, literal(-12)))
          CFI (cfiCond45) V11 load(1, XDATA, add(CFA_XSP16, literal(-11)))
          CFI (cfiCond45) V12 load(1, XDATA, add(CFA_XSP16, literal(-10)))
          CFI (cfiCond45) V13 load(1, XDATA, add(CFA_XSP16, literal(-9)))
          CFI (cfiCond45) V14 load(1, XDATA, add(CFA_XSP16, literal(-8)))
          CFI (cfiCond45) V15 load(1, XDATA, add(CFA_XSP16, literal(-7)))
          CFI (cfiCond45) R7 load(1, XDATA, add(CFA_XSP16, literal(-6)))
          CFI (cfiCond45) ?RET_LOW load(1, XDATA, add(CFA_XSP16, literal(-5)))
          CFI (cfiCond45) ?RET_HIGH load(1, XDATA, add(CFA_XSP16, literal(-4)))
          CFI (cfiCond45) ?BRET_EXT load(1, XDATA, add(CFA_XSP16, literal(-3)))
          CFI (cfiCond45) DPL0 load(1, XDATA, add(CFA_XSP16, literal(-2)))
          CFI (cfiCond45) DPH0 load(1, XDATA, add(CFA_XSP16, literal(-1)))
          CFI (cfiCond45) CFA_SP SP+0
          CFI (cfiCond45) CFA_XSP16 add(XSP16, 24)
          CFI Block cfiPicker46 Using cfiCommon1
          CFI (cfiPicker46) NoFunction
          CFI (cfiPicker46) Picker
        MOV     DPL,R2
        MOV     DPH,R3
          CFI EndBlock cfiCond44
          CFI EndBlock cfiCond45
          CFI EndBlock cfiPicker46
        REQUIRE ??Subroutine30_0
        ; // Fall through to label ??Subroutine30_0

        RSEG BANKED_CODE:CODE:NOROOT(0)
??Subroutine30_0:
          CFI Block cfiCond47 Using cfiCommon0
          CFI Function SampleApp_MessageMSGCB
          CFI Conditional ??CrossCallReturnLabel_53
          CFI R6 load(1, XDATA, add(CFA_XSP16, literal(-20)))
          CFI VB load(1, XDATA, add(CFA_XSP16, literal(-19)))
          CFI V0 load(1, XDATA, add(CFA_XSP16, literal(-18)))
          CFI V1 load(1, XDATA, add(CFA_XSP16, literal(-17)))
          CFI V2 load(1, XDATA, add(CFA_XSP16, literal(-16)))
          CFI V3 load(1, XDATA, add(CFA_XSP16, literal(-15)))
          CFI V4 load(1, XDATA, add(CFA_XSP16, literal(-14)))
          CFI V5 load(1, XDATA, add(CFA_XSP16, literal(-13)))
          CFI V6 load(1, XDATA, add(CFA_XSP16, literal(-12)))
          CFI V7 load(1, XDATA, add(CFA_XSP16, literal(-11)))
          CFI V8 load(1, XDATA, add(CFA_XSP16, literal(-10)))
          CFI V9 load(1, XDATA, add(CFA_XSP16, literal(-9)))
          CFI V10 load(1, XDATA, add(CFA_XSP16, literal(-8)))
          CFI V11 load(1, XDATA, add(CFA_XSP16, literal(-7)))
          CFI R7 load(1, XDATA, add(CFA_XSP16, literal(-6)))
          CFI ?RET_LOW load(1, XDATA, add(CFA_XSP16, literal(-5)))
          CFI ?RET_HIGH load(1, XDATA, add(CFA_XSP16, literal(-4)))
          CFI ?BRET_EXT load(1, XDATA, add(CFA_XSP16, literal(-3)))
          CFI DPL0 load(1, XDATA, add(CFA_XSP16, literal(-2)))
          CFI DPH0 load(1, XDATA, add(CFA_XSP16, literal(-1)))
          CFI CFA_SP SP+0
          CFI CFA_XSP16 add(XSP16, 20)
          CFI Block cfiCond48 Using cfiCommon0
          CFI (cfiCond48) Function SampleApp_QuadrotorMSGCB
          CFI (cfiCond48) Conditional ??CrossCallReturnLabel_54
          CFI (cfiCond48) R6 load(1, XDATA, add(CFA_XSP16, literal(-24)))
          CFI (cfiCond48) VB load(1, XDATA, add(CFA_XSP16, literal(-23)))
          CFI (cfiCond48) V0 load(1, XDATA, add(CFA_XSP16, literal(-22)))
          CFI (cfiCond48) V1 load(1, XDATA, add(CFA_XSP16, literal(-21)))
          CFI (cfiCond48) V2 load(1, XDATA, add(CFA_XSP16, literal(-20)))
          CFI (cfiCond48) V3 load(1, XDATA, add(CFA_XSP16, literal(-19)))
          CFI (cfiCond48) V4 load(1, XDATA, add(CFA_XSP16, literal(-18)))
          CFI (cfiCond48) V5 load(1, XDATA, add(CFA_XSP16, literal(-17)))
          CFI (cfiCond48) V6 load(1, XDATA, add(CFA_XSP16, literal(-16)))
          CFI (cfiCond48) V7 load(1, XDATA, add(CFA_XSP16, literal(-15)))
          CFI (cfiCond48) V8 load(1, XDATA, add(CFA_XSP16, literal(-14)))
          CFI (cfiCond48) V9 load(1, XDATA, add(CFA_XSP16, literal(-13)))
          CFI (cfiCond48) V10 load(1, XDATA, add(CFA_XSP16, literal(-12)))
          CFI (cfiCond48) V11 load(1, XDATA, add(CFA_XSP16, literal(-11)))
          CFI (cfiCond48) V12 load(1, XDATA, add(CFA_XSP16, literal(-10)))
          CFI (cfiCond48) V13 load(1, XDATA, add(CFA_XSP16, literal(-9)))
          CFI (cfiCond48) V14 load(1, XDATA, add(CFA_XSP16, literal(-8)))
          CFI (cfiCond48) V15 load(1, XDATA, add(CFA_XSP16, literal(-7)))
          CFI (cfiCond48) R7 load(1, XDATA, add(CFA_XSP16, literal(-6)))
          CFI (cfiCond48) ?RET_LOW load(1, XDATA, add(CFA_XSP16, literal(-5)))
          CFI (cfiCond48) ?RET_HIGH load(1, XDATA, add(CFA_XSP16, literal(-4)))
          CFI (cfiCond48) ?BRET_EXT load(1, XDATA, add(CFA_XSP16, literal(-3)))
          CFI (cfiCond48) DPL0 load(1, XDATA, add(CFA_XSP16, literal(-2)))
          CFI (cfiCond48) DPH0 load(1, XDATA, add(CFA_XSP16, literal(-1)))
          CFI (cfiCond48) CFA_SP SP+0
          CFI (cfiCond48) CFA_XSP16 add(XSP16, 24)
          CFI Block cfiCond49 Using cfiCommon0
          CFI (cfiCond49) Function SampleApp_QuadrotorMSGCB
          CFI (cfiCond49) Conditional ??CrossCallReturnLabel_55
          CFI (cfiCond49) R6 load(1, XDATA, add(CFA_XSP16, literal(-24)))
          CFI (cfiCond49) VB load(1, XDATA, add(CFA_XSP16, literal(-23)))
          CFI (cfiCond49) V0 load(1, XDATA, add(CFA_XSP16, literal(-22)))
          CFI (cfiCond49) V1 load(1, XDATA, add(CFA_XSP16, literal(-21)))
          CFI (cfiCond49) V2 load(1, XDATA, add(CFA_XSP16, literal(-20)))
          CFI (cfiCond49) V3 load(1, XDATA, add(CFA_XSP16, literal(-19)))
          CFI (cfiCond49) V4 load(1, XDATA, add(CFA_XSP16, literal(-18)))
          CFI (cfiCond49) V5 load(1, XDATA, add(CFA_XSP16, literal(-17)))
          CFI (cfiCond49) V6 load(1, XDATA, add(CFA_XSP16, literal(-16)))
          CFI (cfiCond49) V7 load(1, XDATA, add(CFA_XSP16, literal(-15)))
          CFI (cfiCond49) V8 load(1, XDATA, add(CFA_XSP16, literal(-14)))
          CFI (cfiCond49) V9 load(1, XDATA, add(CFA_XSP16, literal(-13)))
          CFI (cfiCond49) V10 load(1, XDATA, add(CFA_XSP16, literal(-12)))
          CFI (cfiCond49) V11 load(1, XDATA, add(CFA_XSP16, literal(-11)))
          CFI (cfiCond49) V12 load(1, XDATA, add(CFA_XSP16, literal(-10)))
          CFI (cfiCond49) V13 load(1, XDATA, add(CFA_XSP16, literal(-9)))
          CFI (cfiCond49) V14 load(1, XDATA, add(CFA_XSP16, literal(-8)))
          CFI (cfiCond49) V15 load(1, XDATA, add(CFA_XSP16, literal(-7)))
          CFI (cfiCond49) R7 load(1, XDATA, add(CFA_XSP16, literal(-6)))
          CFI (cfiCond49) ?RET_LOW load(1, XDATA, add(CFA_XSP16, literal(-5)))
          CFI (cfiCond49) ?RET_HIGH load(1, XDATA, add(CFA_XSP16, literal(-4)))
          CFI (cfiCond49) ?BRET_EXT load(1, XDATA, add(CFA_XSP16, literal(-3)))
          CFI (cfiCond49) DPL0 load(1, XDATA, add(CFA_XSP16, literal(-2)))
          CFI (cfiCond49) DPH0 load(1, XDATA, add(CFA_XSP16, literal(-1)))
          CFI (cfiCond49) CFA_SP SP+0
          CFI (cfiCond49) CFA_XSP16 add(XSP16, 24)
          CFI Block cfiPicker50 Using cfiCommon1
          CFI (cfiPicker50) NoFunction
          CFI (cfiPicker50) Picker
        INC     DPTR
          CFI EndBlock cfiCond47
          CFI EndBlock cfiCond48
          CFI EndBlock cfiCond49
          CFI EndBlock cfiPicker50
        REQUIRE ??Subroutine31_0
        ; // Fall through to label ??Subroutine31_0

        RSEG BANKED_CODE:CODE:NOROOT(0)
??Subroutine31_0:
          CFI Block cfiCond51 Using cfiCommon0
          CFI Function SampleApp_QuadrotorMSGCB
          CFI Conditional ??CrossCallReturnLabel_52
          CFI R6 load(1, XDATA, add(CFA_XSP16, literal(-24)))
          CFI VB load(1, XDATA, add(CFA_XSP16, literal(-23)))
          CFI V0 load(1, XDATA, add(CFA_XSP16, literal(-22)))
          CFI V1 load(1, XDATA, add(CFA_XSP16, literal(-21)))
          CFI V2 load(1, XDATA, add(CFA_XSP16, literal(-20)))
          CFI V3 load(1, XDATA, add(CFA_XSP16, literal(-19)))
          CFI V4 load(1, XDATA, add(CFA_XSP16, literal(-18)))
          CFI V5 load(1, XDATA, add(CFA_XSP16, literal(-17)))
          CFI V6 load(1, XDATA, add(CFA_XSP16, literal(-16)))
          CFI V7 load(1, XDATA, add(CFA_XSP16, literal(-15)))
          CFI V8 load(1, XDATA, add(CFA_XSP16, literal(-14)))
          CFI V9 load(1, XDATA, add(CFA_XSP16, literal(-13)))
          CFI V10 load(1, XDATA, add(CFA_XSP16, literal(-12)))
          CFI V11 load(1, XDATA, add(CFA_XSP16, literal(-11)))
          CFI V12 load(1, XDATA, add(CFA_XSP16, literal(-10)))
          CFI V13 load(1, XDATA, add(CFA_XSP16, literal(-9)))
          CFI V14 load(1, XDATA, add(CFA_XSP16, literal(-8)))
          CFI V15 load(1, XDATA, add(CFA_XSP16, literal(-7)))
          CFI R7 load(1, XDATA, add(CFA_XSP16, literal(-6)))
          CFI ?RET_LOW load(1, XDATA, add(CFA_XSP16, literal(-5)))
          CFI ?RET_HIGH load(1, XDATA, add(CFA_XSP16, literal(-4)))
          CFI ?BRET_EXT load(1, XDATA, add(CFA_XSP16, literal(-3)))
          CFI DPL0 load(1, XDATA, add(CFA_XSP16, literal(-2)))
          CFI DPH0 load(1, XDATA, add(CFA_XSP16, literal(-1)))
          CFI CFA_SP SP+0
          CFI CFA_XSP16 add(XSP16, 24)
          CFI Block cfiCond52 Using cfiCommon0
          CFI (cfiCond52) Function SampleApp_MessageMSGCB
          CFI (cfiCond52) Conditional ??CrossCallReturnLabel_53
          CFI (cfiCond52) R6 load(1, XDATA, add(CFA_XSP16, literal(-20)))
          CFI (cfiCond52) VB load(1, XDATA, add(CFA_XSP16, literal(-19)))
          CFI (cfiCond52) V0 load(1, XDATA, add(CFA_XSP16, literal(-18)))
          CFI (cfiCond52) V1 load(1, XDATA, add(CFA_XSP16, literal(-17)))
          CFI (cfiCond52) V2 load(1, XDATA, add(CFA_XSP16, literal(-16)))
          CFI (cfiCond52) V3 load(1, XDATA, add(CFA_XSP16, literal(-15)))
          CFI (cfiCond52) V4 load(1, XDATA, add(CFA_XSP16, literal(-14)))
          CFI (cfiCond52) V5 load(1, XDATA, add(CFA_XSP16, literal(-13)))
          CFI (cfiCond52) V6 load(1, XDATA, add(CFA_XSP16, literal(-12)))
          CFI (cfiCond52) V7 load(1, XDATA, add(CFA_XSP16, literal(-11)))
          CFI (cfiCond52) V8 load(1, XDATA, add(CFA_XSP16, literal(-10)))
          CFI (cfiCond52) V9 load(1, XDATA, add(CFA_XSP16, literal(-9)))
          CFI (cfiCond52) V10 load(1, XDATA, add(CFA_XSP16, literal(-8)))
          CFI (cfiCond52) V11 load(1, XDATA, add(CFA_XSP16, literal(-7)))
          CFI (cfiCond52) R7 load(1, XDATA, add(CFA_XSP16, literal(-6)))
          CFI (cfiCond52) ?RET_LOW load(1, XDATA, add(CFA_XSP16, literal(-5)))
          CFI (cfiCond52) ?RET_HIGH load(1, XDATA, add(CFA_XSP16, literal(-4)))
          CFI (cfiCond52) ?BRET_EXT load(1, XDATA, add(CFA_XSP16, literal(-3)))
          CFI (cfiCond52) DPL0 load(1, XDATA, add(CFA_XSP16, literal(-2)))
          CFI (cfiCond52) DPH0 load(1, XDATA, add(CFA_XSP16, literal(-1)))
          CFI (cfiCond52) CFA_SP SP+0
          CFI (cfiCond52) CFA_XSP16 add(XSP16, 20)
          CFI Block cfiCond53 Using cfiCommon0
          CFI (cfiCond53) Function SampleApp_QuadrotorMSGCB
          CFI (cfiCond53) Conditional ??CrossCallReturnLabel_54
          CFI (cfiCond53) R6 load(1, XDATA, add(CFA_XSP16, literal(-24)))
          CFI (cfiCond53) VB load(1, XDATA, add(CFA_XSP16, literal(-23)))
          CFI (cfiCond53) V0 load(1, XDATA, add(CFA_XSP16, literal(-22)))
          CFI (cfiCond53) V1 load(1, XDATA, add(CFA_XSP16, literal(-21)))
          CFI (cfiCond53) V2 load(1, XDATA, add(CFA_XSP16, literal(-20)))
          CFI (cfiCond53) V3 load(1, XDATA, add(CFA_XSP16, literal(-19)))
          CFI (cfiCond53) V4 load(1, XDATA, add(CFA_XSP16, literal(-18)))
          CFI (cfiCond53) V5 load(1, XDATA, add(CFA_XSP16, literal(-17)))
          CFI (cfiCond53) V6 load(1, XDATA, add(CFA_XSP16, literal(-16)))
          CFI (cfiCond53) V7 load(1, XDATA, add(CFA_XSP16, literal(-15)))
          CFI (cfiCond53) V8 load(1, XDATA, add(CFA_XSP16, literal(-14)))
          CFI (cfiCond53) V9 load(1, XDATA, add(CFA_XSP16, literal(-13)))
          CFI (cfiCond53) V10 load(1, XDATA, add(CFA_XSP16, literal(-12)))
          CFI (cfiCond53) V11 load(1, XDATA, add(CFA_XSP16, literal(-11)))
          CFI (cfiCond53) V12 load(1, XDATA, add(CFA_XSP16, literal(-10)))
          CFI (cfiCond53) V13 load(1, XDATA, add(CFA_XSP16, literal(-9)))
          CFI (cfiCond53) V14 load(1, XDATA, add(CFA_XSP16, literal(-8)))
          CFI (cfiCond53) V15 load(1, XDATA, add(CFA_XSP16, literal(-7)))
          CFI (cfiCond53) R7 load(1, XDATA, add(CFA_XSP16, literal(-6)))
          CFI (cfiCond53) ?RET_LOW load(1, XDATA, add(CFA_XSP16, literal(-5)))
          CFI (cfiCond53) ?RET_HIGH load(1, XDATA, add(CFA_XSP16, literal(-4)))
          CFI (cfiCond53) ?BRET_EXT load(1, XDATA, add(CFA_XSP16, literal(-3)))
          CFI (cfiCond53) DPL0 load(1, XDATA, add(CFA_XSP16, literal(-2)))
          CFI (cfiCond53) DPH0 load(1, XDATA, add(CFA_XSP16, literal(-1)))
          CFI (cfiCond53) CFA_SP SP+0
          CFI (cfiCond53) CFA_XSP16 add(XSP16, 24)
          CFI Block cfiCond54 Using cfiCommon0
          CFI (cfiCond54) Function SampleApp_QuadrotorMSGCB
          CFI (cfiCond54) Conditional ??CrossCallReturnLabel_55
          CFI (cfiCond54) R6 load(1, XDATA, add(CFA_XSP16, literal(-24)))
          CFI (cfiCond54) VB load(1, XDATA, add(CFA_XSP16, literal(-23)))
          CFI (cfiCond54) V0 load(1, XDATA, add(CFA_XSP16, literal(-22)))
          CFI (cfiCond54) V1 load(1, XDATA, add(CFA_XSP16, literal(-21)))
          CFI (cfiCond54) V2 load(1, XDATA, add(CFA_XSP16, literal(-20)))
          CFI (cfiCond54) V3 load(1, XDATA, add(CFA_XSP16, literal(-19)))
          CFI (cfiCond54) V4 load(1, XDATA, add(CFA_XSP16, literal(-18)))
          CFI (cfiCond54) V5 load(1, XDATA, add(CFA_XSP16, literal(-17)))
          CFI (cfiCond54) V6 load(1, XDATA, add(CFA_XSP16, literal(-16)))
          CFI (cfiCond54) V7 load(1, XDATA, add(CFA_XSP16, literal(-15)))
          CFI (cfiCond54) V8 load(1, XDATA, add(CFA_XSP16, literal(-14)))
          CFI (cfiCond54) V9 load(1, XDATA, add(CFA_XSP16, literal(-13)))
          CFI (cfiCond54) V10 load(1, XDATA, add(CFA_XSP16, literal(-12)))
          CFI (cfiCond54) V11 load(1, XDATA, add(CFA_XSP16, literal(-11)))
          CFI (cfiCond54) V12 load(1, XDATA, add(CFA_XSP16, literal(-10)))
          CFI (cfiCond54) V13 load(1, XDATA, add(CFA_XSP16, literal(-9)))
          CFI (cfiCond54) V14 load(1, XDATA, add(CFA_XSP16, literal(-8)))
          CFI (cfiCond54) V15 load(1, XDATA, add(CFA_XSP16, literal(-7)))
          CFI (cfiCond54) R7 load(1, XDATA, add(CFA_XSP16, literal(-6)))
          CFI (cfiCond54) ?RET_LOW load(1, XDATA, add(CFA_XSP16, literal(-5)))
          CFI (cfiCond54) ?RET_HIGH load(1, XDATA, add(CFA_XSP16, literal(-4)))
          CFI (cfiCond54) ?BRET_EXT load(1, XDATA, add(CFA_XSP16, literal(-3)))
          CFI (cfiCond54) DPL0 load(1, XDATA, add(CFA_XSP16, literal(-2)))
          CFI (cfiCond54) DPH0 load(1, XDATA, add(CFA_XSP16, literal(-1)))
          CFI (cfiCond54) CFA_SP SP+0
          CFI (cfiCond54) CFA_XSP16 add(XSP16, 24)
          CFI Block cfiPicker55 Using cfiCommon1
          CFI (cfiPicker55) NoFunction
          CFI (cfiPicker55) Picker
        INC     DPTR
          CFI EndBlock cfiCond51
          CFI EndBlock cfiCond52
          CFI EndBlock cfiCond53
          CFI EndBlock cfiCond54
          CFI EndBlock cfiPicker55
        REQUIRE ??Subroutine32_0
        ; // Fall through to label ??Subroutine32_0

        RSEG BANKED_CODE:CODE:NOROOT(0)
??Subroutine32_0:
          CFI Block cfiCond56 Using cfiCommon0
          CFI Function SampleApp_MessageMSGCB
          CFI Conditional ??CrossCallReturnLabel_50
          CFI R6 load(1, XDATA, add(CFA_XSP16, literal(-20)))
          CFI VB load(1, XDATA, add(CFA_XSP16, literal(-19)))
          CFI V0 load(1, XDATA, add(CFA_XSP16, literal(-18)))
          CFI V1 load(1, XDATA, add(CFA_XSP16, literal(-17)))
          CFI V2 load(1, XDATA, add(CFA_XSP16, literal(-16)))
          CFI V3 load(1, XDATA, add(CFA_XSP16, literal(-15)))
          CFI V4 load(1, XDATA, add(CFA_XSP16, literal(-14)))
          CFI V5 load(1, XDATA, add(CFA_XSP16, literal(-13)))
          CFI V6 load(1, XDATA, add(CFA_XSP16, literal(-12)))
          CFI V7 load(1, XDATA, add(CFA_XSP16, literal(-11)))
          CFI V8 load(1, XDATA, add(CFA_XSP16, literal(-10)))
          CFI V9 load(1, XDATA, add(CFA_XSP16, literal(-9)))
          CFI V10 load(1, XDATA, add(CFA_XSP16, literal(-8)))
          CFI V11 load(1, XDATA, add(CFA_XSP16, literal(-7)))
          CFI R7 load(1, XDATA, add(CFA_XSP16, literal(-6)))
          CFI ?RET_LOW load(1, XDATA, add(CFA_XSP16, literal(-5)))
          CFI ?RET_HIGH load(1, XDATA, add(CFA_XSP16, literal(-4)))
          CFI ?BRET_EXT load(1, XDATA, add(CFA_XSP16, literal(-3)))
          CFI DPL0 load(1, XDATA, add(CFA_XSP16, literal(-2)))
          CFI DPH0 load(1, XDATA, add(CFA_XSP16, literal(-1)))
          CFI CFA_SP SP+0
          CFI CFA_XSP16 add(XSP16, 20)
          CFI Block cfiCond57 Using cfiCommon0
          CFI (cfiCond57) Function SampleApp_QuadrotorMSGCB
          CFI (cfiCond57) Conditional ??CrossCallReturnLabel_51
          CFI (cfiCond57) R6 load(1, XDATA, add(CFA_XSP16, literal(-24)))
          CFI (cfiCond57) VB load(1, XDATA, add(CFA_XSP16, literal(-23)))
          CFI (cfiCond57) V0 load(1, XDATA, add(CFA_XSP16, literal(-22)))
          CFI (cfiCond57) V1 load(1, XDATA, add(CFA_XSP16, literal(-21)))
          CFI (cfiCond57) V2 load(1, XDATA, add(CFA_XSP16, literal(-20)))
          CFI (cfiCond57) V3 load(1, XDATA, add(CFA_XSP16, literal(-19)))
          CFI (cfiCond57) V4 load(1, XDATA, add(CFA_XSP16, literal(-18)))
          CFI (cfiCond57) V5 load(1, XDATA, add(CFA_XSP16, literal(-17)))
          CFI (cfiCond57) V6 load(1, XDATA, add(CFA_XSP16, literal(-16)))
          CFI (cfiCond57) V7 load(1, XDATA, add(CFA_XSP16, literal(-15)))
          CFI (cfiCond57) V8 load(1, XDATA, add(CFA_XSP16, literal(-14)))
          CFI (cfiCond57) V9 load(1, XDATA, add(CFA_XSP16, literal(-13)))
          CFI (cfiCond57) V10 load(1, XDATA, add(CFA_XSP16, literal(-12)))
          CFI (cfiCond57) V11 load(1, XDATA, add(CFA_XSP16, literal(-11)))
          CFI (cfiCond57) V12 load(1, XDATA, add(CFA_XSP16, literal(-10)))
          CFI (cfiCond57) V13 load(1, XDATA, add(CFA_XSP16, literal(-9)))
          CFI (cfiCond57) V14 load(1, XDATA, add(CFA_XSP16, literal(-8)))
          CFI (cfiCond57) V15 load(1, XDATA, add(CFA_XSP16, literal(-7)))
          CFI (cfiCond57) R7 load(1, XDATA, add(CFA_XSP16, literal(-6)))
          CFI (cfiCond57) ?RET_LOW load(1, XDATA, add(CFA_XSP16, literal(-5)))
          CFI (cfiCond57) ?RET_HIGH load(1, XDATA, add(CFA_XSP16, literal(-4)))
          CFI (cfiCond57) ?BRET_EXT load(1, XDATA, add(CFA_XSP16, literal(-3)))
          CFI (cfiCond57) DPL0 load(1, XDATA, add(CFA_XSP16, literal(-2)))
          CFI (cfiCond57) DPH0 load(1, XDATA, add(CFA_XSP16, literal(-1)))
          CFI (cfiCond57) CFA_SP SP+0
          CFI (cfiCond57) CFA_XSP16 add(XSP16, 24)
          CFI Block cfiCond58 Using cfiCommon0
          CFI (cfiCond58) Function SampleApp_QuadrotorMSGCB
          CFI (cfiCond58) Conditional ??CrossCallReturnLabel_52
          CFI (cfiCond58) R6 load(1, XDATA, add(CFA_XSP16, literal(-24)))
          CFI (cfiCond58) VB load(1, XDATA, add(CFA_XSP16, literal(-23)))
          CFI (cfiCond58) V0 load(1, XDATA, add(CFA_XSP16, literal(-22)))
          CFI (cfiCond58) V1 load(1, XDATA, add(CFA_XSP16, literal(-21)))
          CFI (cfiCond58) V2 load(1, XDATA, add(CFA_XSP16, literal(-20)))
          CFI (cfiCond58) V3 load(1, XDATA, add(CFA_XSP16, literal(-19)))
          CFI (cfiCond58) V4 load(1, XDATA, add(CFA_XSP16, literal(-18)))
          CFI (cfiCond58) V5 load(1, XDATA, add(CFA_XSP16, literal(-17)))
          CFI (cfiCond58) V6 load(1, XDATA, add(CFA_XSP16, literal(-16)))
          CFI (cfiCond58) V7 load(1, XDATA, add(CFA_XSP16, literal(-15)))
          CFI (cfiCond58) V8 load(1, XDATA, add(CFA_XSP16, literal(-14)))
          CFI (cfiCond58) V9 load(1, XDATA, add(CFA_XSP16, literal(-13)))
          CFI (cfiCond58) V10 load(1, XDATA, add(CFA_XSP16, literal(-12)))
          CFI (cfiCond58) V11 load(1, XDATA, add(CFA_XSP16, literal(-11)))
          CFI (cfiCond58) V12 load(1, XDATA, add(CFA_XSP16, literal(-10)))
          CFI (cfiCond58) V13 load(1, XDATA, add(CFA_XSP16, literal(-9)))
          CFI (cfiCond58) V14 load(1, XDATA, add(CFA_XSP16, literal(-8)))
          CFI (cfiCond58) V15 load(1, XDATA, add(CFA_XSP16, literal(-7)))
          CFI (cfiCond58) R7 load(1, XDATA, add(CFA_XSP16, literal(-6)))
          CFI (cfiCond58) ?RET_LOW load(1, XDATA, add(CFA_XSP16, literal(-5)))
          CFI (cfiCond58) ?RET_HIGH load(1, XDATA, add(CFA_XSP16, literal(-4)))
          CFI (cfiCond58) ?BRET_EXT load(1, XDATA, add(CFA_XSP16, literal(-3)))
          CFI (cfiCond58) DPL0 load(1, XDATA, add(CFA_XSP16, literal(-2)))
          CFI (cfiCond58) DPH0 load(1, XDATA, add(CFA_XSP16, literal(-1)))
          CFI (cfiCond58) CFA_SP SP+0
          CFI (cfiCond58) CFA_XSP16 add(XSP16, 24)
          CFI Block cfiCond59 Using cfiCommon0
          CFI (cfiCond59) Function SampleApp_MessageMSGCB
          CFI (cfiCond59) Conditional ??CrossCallReturnLabel_53
          CFI (cfiCond59) R6 load(1, XDATA, add(CFA_XSP16, literal(-20)))
          CFI (cfiCond59) VB load(1, XDATA, add(CFA_XSP16, literal(-19)))
          CFI (cfiCond59) V0 load(1, XDATA, add(CFA_XSP16, literal(-18)))
          CFI (cfiCond59) V1 load(1, XDATA, add(CFA_XSP16, literal(-17)))
          CFI (cfiCond59) V2 load(1, XDATA, add(CFA_XSP16, literal(-16)))
          CFI (cfiCond59) V3 load(1, XDATA, add(CFA_XSP16, literal(-15)))
          CFI (cfiCond59) V4 load(1, XDATA, add(CFA_XSP16, literal(-14)))
          CFI (cfiCond59) V5 load(1, XDATA, add(CFA_XSP16, literal(-13)))
          CFI (cfiCond59) V6 load(1, XDATA, add(CFA_XSP16, literal(-12)))
          CFI (cfiCond59) V7 load(1, XDATA, add(CFA_XSP16, literal(-11)))
          CFI (cfiCond59) V8 load(1, XDATA, add(CFA_XSP16, literal(-10)))
          CFI (cfiCond59) V9 load(1, XDATA, add(CFA_XSP16, literal(-9)))
          CFI (cfiCond59) V10 load(1, XDATA, add(CFA_XSP16, literal(-8)))
          CFI (cfiCond59) V11 load(1, XDATA, add(CFA_XSP16, literal(-7)))
          CFI (cfiCond59) R7 load(1, XDATA, add(CFA_XSP16, literal(-6)))
          CFI (cfiCond59) ?RET_LOW load(1, XDATA, add(CFA_XSP16, literal(-5)))
          CFI (cfiCond59) ?RET_HIGH load(1, XDATA, add(CFA_XSP16, literal(-4)))
          CFI (cfiCond59) ?BRET_EXT load(1, XDATA, add(CFA_XSP16, literal(-3)))
          CFI (cfiCond59) DPL0 load(1, XDATA, add(CFA_XSP16, literal(-2)))
          CFI (cfiCond59) DPH0 load(1, XDATA, add(CFA_XSP16, literal(-1)))
          CFI (cfiCond59) CFA_SP SP+0
          CFI (cfiCond59) CFA_XSP16 add(XSP16, 20)
          CFI Block cfiCond60 Using cfiCommon0
          CFI (cfiCond60) Function SampleApp_QuadrotorMSGCB
          CFI (cfiCond60) Conditional ??CrossCallReturnLabel_54
          CFI (cfiCond60) R6 load(1, XDATA, add(CFA_XSP16, literal(-24)))
          CFI (cfiCond60) VB load(1, XDATA, add(CFA_XSP16, literal(-23)))
          CFI (cfiCond60) V0 load(1, XDATA, add(CFA_XSP16, literal(-22)))
          CFI (cfiCond60) V1 load(1, XDATA, add(CFA_XSP16, literal(-21)))
          CFI (cfiCond60) V2 load(1, XDATA, add(CFA_XSP16, literal(-20)))
          CFI (cfiCond60) V3 load(1, XDATA, add(CFA_XSP16, literal(-19)))
          CFI (cfiCond60) V4 load(1, XDATA, add(CFA_XSP16, literal(-18)))
          CFI (cfiCond60) V5 load(1, XDATA, add(CFA_XSP16, literal(-17)))
          CFI (cfiCond60) V6 load(1, XDATA, add(CFA_XSP16, literal(-16)))
          CFI (cfiCond60) V7 load(1, XDATA, add(CFA_XSP16, literal(-15)))
          CFI (cfiCond60) V8 load(1, XDATA, add(CFA_XSP16, literal(-14)))
          CFI (cfiCond60) V9 load(1, XDATA, add(CFA_XSP16, literal(-13)))
          CFI (cfiCond60) V10 load(1, XDATA, add(CFA_XSP16, literal(-12)))
          CFI (cfiCond60) V11 load(1, XDATA, add(CFA_XSP16, literal(-11)))
          CFI (cfiCond60) V12 load(1, XDATA, add(CFA_XSP16, literal(-10)))
          CFI (cfiCond60) V13 load(1, XDATA, add(CFA_XSP16, literal(-9)))
          CFI (cfiCond60) V14 load(1, XDATA, add(CFA_XSP16, literal(-8)))
          CFI (cfiCond60) V15 load(1, XDATA, add(CFA_XSP16, literal(-7)))
          CFI (cfiCond60) R7 load(1, XDATA, add(CFA_XSP16, literal(-6)))
          CFI (cfiCond60) ?RET_LOW load(1, XDATA, add(CFA_XSP16, literal(-5)))
          CFI (cfiCond60) ?RET_HIGH load(1, XDATA, add(CFA_XSP16, literal(-4)))
          CFI (cfiCond60) ?BRET_EXT load(1, XDATA, add(CFA_XSP16, literal(-3)))
          CFI (cfiCond60) DPL0 load(1, XDATA, add(CFA_XSP16, literal(-2)))
          CFI (cfiCond60) DPH0 load(1, XDATA, add(CFA_XSP16, literal(-1)))
          CFI (cfiCond60) CFA_SP SP+0
          CFI (cfiCond60) CFA_XSP16 add(XSP16, 24)
          CFI Block cfiCond61 Using cfiCommon0
          CFI (cfiCond61) Function SampleApp_QuadrotorMSGCB
          CFI (cfiCond61) Conditional ??CrossCallReturnLabel_55
          CFI (cfiCond61) R6 load(1, XDATA, add(CFA_XSP16, literal(-24)))
          CFI (cfiCond61) VB load(1, XDATA, add(CFA_XSP16, literal(-23)))
          CFI (cfiCond61) V0 load(1, XDATA, add(CFA_XSP16, literal(-22)))
          CFI (cfiCond61) V1 load(1, XDATA, add(CFA_XSP16, literal(-21)))
          CFI (cfiCond61) V2 load(1, XDATA, add(CFA_XSP16, literal(-20)))
          CFI (cfiCond61) V3 load(1, XDATA, add(CFA_XSP16, literal(-19)))
          CFI (cfiCond61) V4 load(1, XDATA, add(CFA_XSP16, literal(-18)))
          CFI (cfiCond61) V5 load(1, XDATA, add(CFA_XSP16, literal(-17)))
          CFI (cfiCond61) V6 load(1, XDATA, add(CFA_XSP16, literal(-16)))
          CFI (cfiCond61) V7 load(1, XDATA, add(CFA_XSP16, literal(-15)))
          CFI (cfiCond61) V8 load(1, XDATA, add(CFA_XSP16, literal(-14)))
          CFI (cfiCond61) V9 load(1, XDATA, add(CFA_XSP16, literal(-13)))
          CFI (cfiCond61) V10 load(1, XDATA, add(CFA_XSP16, literal(-12)))
          CFI (cfiCond61) V11 load(1, XDATA, add(CFA_XSP16, literal(-11)))
          CFI (cfiCond61) V12 load(1, XDATA, add(CFA_XSP16, literal(-10)))
          CFI (cfiCond61) V13 load(1, XDATA, add(CFA_XSP16, literal(-9)))
          CFI (cfiCond61) V14 load(1, XDATA, add(CFA_XSP16, literal(-8)))
          CFI (cfiCond61) V15 load(1, XDATA, add(CFA_XSP16, literal(-7)))
          CFI (cfiCond61) R7 load(1, XDATA, add(CFA_XSP16, literal(-6)))
          CFI (cfiCond61) ?RET_LOW load(1, XDATA, add(CFA_XSP16, literal(-5)))
          CFI (cfiCond61) ?RET_HIGH load(1, XDATA, add(CFA_XSP16, literal(-4)))
          CFI (cfiCond61) ?BRET_EXT load(1, XDATA, add(CFA_XSP16, literal(-3)))
          CFI (cfiCond61) DPL0 load(1, XDATA, add(CFA_XSP16, literal(-2)))
          CFI (cfiCond61) DPH0 load(1, XDATA, add(CFA_XSP16, literal(-1)))
          CFI (cfiCond61) CFA_SP SP+0
          CFI (cfiCond61) CFA_XSP16 add(XSP16, 24)
          CFI Block cfiPicker62 Using cfiCommon1
          CFI (cfiPicker62) NoFunction
          CFI (cfiPicker62) Picker
        INC     DPTR
        INC     DPTR
        INC     DPTR
        INC     DPTR
        MOVX    A,@DPTR
        ADD     A,#-0x30
        MOV     ?V0 + 4,A
        CLR     A
        ADDC    A,#-0x1
        MOV     ?V0 + 5,A
        RLC     A
        SUBB    A,0xE0 /* A   */
        MOV     ?V0 + 6,A
        MOV     ?V0 + 7,A
        MOV     R0,#?V0 + 4
        RET
          CFI EndBlock cfiCond56
          CFI EndBlock cfiCond57
          CFI EndBlock cfiCond58
          CFI EndBlock cfiCond59
          CFI EndBlock cfiCond60
          CFI EndBlock cfiCond61
          CFI EndBlock cfiPicker62
//  903 
//  904 /*********************************************************************
//  905  * @fn      SampleApp_Tester_calibrationMSGCB
//  906  *
//  907  * @brief   Data message processor callback.  This function processes
//  908  *          any incoming data - probably from other devices.  So, based
//  909  *          on cluster ID, perform the intended action.
//  910  *
//  911  * @param   none
//  912  *
//  913  * @return  none
//  914  */

        RSEG BANKED_CODE:CODE:NOROOT(0)
//  915 void SampleApp_Tester_calibrationMSGCB( afIncomingMSGPacket_t *pkt ) //receive data for ed
SampleApp_Tester_calibrationMSGCB:
          CFI Block cfiBlock63 Using cfiCommon0
          CFI Function SampleApp_Tester_calibrationMSGCB
        CODE
//  916 {
        FUNCALL SampleApp_Tester_calibrationMSGCB, moving_average
        LOCFRAME ISTACK, 0, STACK
        LOCFRAME PSTACK, 0, STACK
        LOCFRAME XSTACK, 20, STACK
        LOCFRAME IOVERLAY, 0, STATIC
        LOCFRAME DOVERLAY, 0, STATIC
        ARGFRAME ISTACK, 0, STACK
        ARGFRAME PSTACK, 0, STACK
        ARGFRAME XSTACK, 20, STACK
        ARGFRAME IOVERLAY, 0, STATIC
        ARGFRAME DOVERLAY, 0, STATIC
        FUNCALL SampleApp_Tester_calibrationMSGCB, moving_average
        LOCFRAME ISTACK, 0, STACK
        LOCFRAME PSTACK, 0, STACK
        LOCFRAME XSTACK, 20, STACK
        LOCFRAME IOVERLAY, 0, STATIC
        LOCFRAME DOVERLAY, 0, STATIC
        ARGFRAME ISTACK, 0, STACK
        ARGFRAME PSTACK, 0, STACK
        ARGFRAME XSTACK, 20, STACK
        ARGFRAME IOVERLAY, 0, STATIC
        ARGFRAME DOVERLAY, 0, STATIC
        FUNCALL SampleApp_Tester_calibrationMSGCB, moving_average
        LOCFRAME ISTACK, 0, STACK
        LOCFRAME PSTACK, 0, STACK
        LOCFRAME XSTACK, 20, STACK
        LOCFRAME IOVERLAY, 0, STATIC
        LOCFRAME DOVERLAY, 0, STATIC
        ARGFRAME ISTACK, 0, STACK
        ARGFRAME PSTACK, 0, STACK
        ARGFRAME XSTACK, 20, STACK
        ARGFRAME IOVERLAY, 0, STATIC
        ARGFRAME DOVERLAY, 0, STATIC
        FUNCALL SampleApp_Tester_calibrationMSGCB, moving_average
        LOCFRAME ISTACK, 0, STACK
        LOCFRAME PSTACK, 0, STACK
        LOCFRAME XSTACK, 20, STACK
        LOCFRAME IOVERLAY, 0, STATIC
        LOCFRAME DOVERLAY, 0, STATIC
        ARGFRAME ISTACK, 0, STACK
        ARGFRAME PSTACK, 0, STACK
        ARGFRAME XSTACK, 20, STACK
        ARGFRAME IOVERLAY, 0, STATIC
        ARGFRAME DOVERLAY, 0, STATIC
        FUNCALL SampleApp_Tester_calibrationMSGCB, HalUARTWrite
        LOCFRAME ISTACK, 0, STACK
        LOCFRAME PSTACK, 0, STACK
        LOCFRAME XSTACK, 16, STACK
        LOCFRAME IOVERLAY, 0, STATIC
        LOCFRAME DOVERLAY, 0, STATIC
        ARGFRAME ISTACK, 0, STACK
        ARGFRAME PSTACK, 0, STACK
        ARGFRAME XSTACK, 16, STACK
        ARGFRAME IOVERLAY, 0, STATIC
        ARGFRAME DOVERLAY, 0, STATIC
        MOV     A,#-0x10
        LCALL   ?BANKED_ENTER_XDATA
          CFI DPH0 load(1, XDATA, add(CFA_XSP16, literal(-1)))
          CFI DPL0 load(1, XDATA, add(CFA_XSP16, literal(-2)))
          CFI ?BRET_EXT load(1, XDATA, add(CFA_XSP16, literal(-3)))
          CFI ?RET_HIGH load(1, XDATA, add(CFA_XSP16, literal(-4)))
          CFI ?RET_LOW load(1, XDATA, add(CFA_XSP16, literal(-5)))
          CFI R7 load(1, XDATA, add(CFA_XSP16, literal(-6)))
          CFI V7 load(1, XDATA, add(CFA_XSP16, literal(-7)))
          CFI V6 load(1, XDATA, add(CFA_XSP16, literal(-8)))
          CFI V5 load(1, XDATA, add(CFA_XSP16, literal(-9)))
          CFI V4 load(1, XDATA, add(CFA_XSP16, literal(-10)))
          CFI V3 load(1, XDATA, add(CFA_XSP16, literal(-11)))
          CFI V2 load(1, XDATA, add(CFA_XSP16, literal(-12)))
          CFI V1 load(1, XDATA, add(CFA_XSP16, literal(-13)))
          CFI V0 load(1, XDATA, add(CFA_XSP16, literal(-14)))
          CFI VB load(1, XDATA, add(CFA_XSP16, literal(-15)))
          CFI R6 load(1, XDATA, add(CFA_XSP16, literal(-16)))
          CFI CFA_SP SP+0
          CFI CFA_XSP16 add(XSP16, 16)
        ; Saved register size: 16
        ; Auto size: 0
//  917 
//  918   switch ( pkt->clusterId )
        MOV     DPL,R2
        MOV     DPH,R3
        INC     DPTR
        INC     DPTR
        INC     DPTR
        INC     DPTR
        MOVX    A,@DPTR
        MOV     ?V0 + 0,A
        INC     DPTR
        MOVX    A,@DPTR
        MOV     ?V0 + 1,A
        MOV     R0,#?V0 + 0
        LCALL   ?US_SWITCH_DENSE
`?<Jumptable for SampleApp_Tester_calibrationMS_0`:
        DATA
        DATA16
        DATA
        DATA16
        DW        1
        DATA
        DATA8
        DATA
        DATA8
        DB        1
        DATA
        DATA16
        DATA
        DATA16
        DW        ??SampleApp_Tester_calibrationMSGCB_0
        DATA
        DATA16
        DATA
        DATA16
        DW        ??SampleApp_Tester_calibrationMSGCB_1
        DATA
        DATA16
        DATA
        DATA16
        DW        ??SampleApp_Tester_calibrationMSGCB_2
        CODE
//  919   {
//  920     case SAMPLEAPP_PERIODIC_CLUSTERID:
//  921       { 
//  922         //printRSSIandLQI(pkt,0);
//  923        //  int8 rssivalue;
//  924       //  HalUARTWrite(0, pkt->cmd.Data, pkt->cmd.DataLength); //Êä³ö½ÓÊÕµ½µÄÊý¾Ý
//  925         byte index;
//  926         index=*(pkt->cmd.Data+1);
??SampleApp_Tester_calibrationMSGCB_1:
        LCALL   ?Subroutine13 & 0xFFFF
//  927         rssivalue=(0xff-pkt->rssi);
//  928         
//  929         switch (index)
??CrossCallReturnLabel_61:
        JZ      ??SampleApp_Tester_calibrationMSGCB_3
        DEC     A
        JZ      ??SampleApp_Tester_calibrationMSGCB_4
        DEC     A
        JNZ     $+5
        LJMP    ??SampleApp_Tester_calibrationMSGCB_5 & 0xFFFF
        DEC     A
        JNZ     $+5
        LJMP    ??SampleApp_Tester_calibrationMSGCB_6 & 0xFFFF
        LJMP    ??SampleApp_Tester_calibrationMSGCB_0 & 0xFFFF
//  930         {
//  931             case '1':
//  932               {
//  933 
//  934                 moving_average(rssivalue, perRssiBuf1, 11, imof1, &RssiValue[0]);
??SampleApp_Tester_calibrationMSGCB_3:
        ; Setup parameters for call to function moving_average
        MOV     ?V0 + 0,#RssiValue & 0xff
        MOV     ?V0 + 1,#(RssiValue >> 8) & 0xff
        MOV     R0,#?V0 + 0
        LCALL   ?PUSH_XSTACK_I_TWO
          CFI CFA_XSP16 add(XSP16, 18)
        MOV     ?V0 + 0,#imof1 & 0xff
        MOV     ?V0 + 1,#(imof1 >> 8) & 0xff
        MOV     R0,#?V0 + 0
        LCALL   ?PUSH_XSTACK_I_TWO
          CFI CFA_XSP16 add(XSP16, 20)
        MOV     R4,#0xb
        MOV     R5,#0x0
        MOV     R2,#perRssiBuf1 & 0xff
        MOV     R3,#(perRssiBuf1 >> 8) & 0xff
        MOV     DPTR,#rssivalue
        MOVX    A,@DPTR
        MOV     R1,A
        LCALL   ??moving_average?relay
        MOV     A,#0x4
        LCALL   ?DEALLOC_XSTACK8
          CFI CFA_XSP16 add(XSP16, 16)
//  935                 if (DeviceID==6)
        MOV     DPTR,#DeviceID
        MOVX    A,@DPTR
        XRL     A,#0x6
        JNZ     ??SampleApp_Tester_calibrationMSGCB_7
        INC     DPTR
        MOVX    A,@DPTR
??SampleApp_Tester_calibrationMSGCB_7:
        JZ      $+5
        LJMP    ??SampleApp_Tester_calibrationMSGCB_0 & 0xFFFF
//  936                 {       
//  937                   OffsetAValue[0]=RssiValue[0]-RefAValue[0];
        MOV     DPTR,#RssiValue
        MOV     R0,#?V0 + 0
        LCALL   ?L_MOV_X
        MOV     DPTR,#RefAValue
        MOV     R0,#?V0 + 4
        LCALL   ?L_MOV_X
        MOV     R0,#?V0 + 0
        MOV     R1,#?V0 + 4
        LCALL   ?FLT_SUB
        MOV     DPTR,#OffsetAValue
        LJMP    ??SampleApp_Tester_calibrationMSGCB_8 & 0xFFFF
//  938                 }
//  939               }
//  940             
//  941                   break;
//  942             case '2':
//  943               {
//  944                  moving_average(rssivalue, perRssiBuf2, 11, imof2, &RssiValue[1]);
??SampleApp_Tester_calibrationMSGCB_4:
        ; Setup parameters for call to function moving_average
        MOV     ?V0 + 0,#(RssiValue + 4) & 0xff
        MOV     ?V0 + 1,#((RssiValue + 4) >> 8) & 0xff
        MOV     R0,#?V0 + 0
        LCALL   ?PUSH_XSTACK_I_TWO
          CFI CFA_XSP16 add(XSP16, 18)
        MOV     ?V0 + 0,#imof2 & 0xff
        MOV     ?V0 + 1,#(imof2 >> 8) & 0xff
        MOV     R0,#?V0 + 0
        LCALL   ?PUSH_XSTACK_I_TWO
          CFI CFA_XSP16 add(XSP16, 20)
        MOV     R4,#0xb
        MOV     R5,#0x0
        MOV     R2,#perRssiBuf2 & 0xff
        MOV     R3,#(perRssiBuf2 >> 8) & 0xff
        MOV     DPTR,#rssivalue
        MOVX    A,@DPTR
        MOV     R1,A
        LCALL   ??moving_average?relay
        MOV     A,#0x4
        LCALL   ?DEALLOC_XSTACK8
          CFI CFA_XSP16 add(XSP16, 16)
//  945                  if (DeviceID==6)
        MOV     DPTR,#DeviceID
        MOVX    A,@DPTR
        XRL     A,#0x6
        JNZ     ??SampleApp_Tester_calibrationMSGCB_9
        INC     DPTR
        MOVX    A,@DPTR
??SampleApp_Tester_calibrationMSGCB_9:
        JZ      $+5
        LJMP    ??SampleApp_Tester_calibrationMSGCB_0 & 0xFFFF
//  946                 {       
//  947                   OffsetAValue[1]=RssiValue[1]-RefAValue[1];
        MOV     DPTR,#RssiValue + 4
        MOV     R0,#?V0 + 0
        LCALL   ?L_MOV_X
        MOV     DPTR,#RefAValue + 4
        MOV     R0,#?V0 + 4
        LCALL   ?L_MOV_X
        MOV     R0,#?V0 + 0
        MOV     R1,#?V0 + 4
        LCALL   ?FLT_SUB
        MOV     DPTR,#OffsetAValue + 4
        LJMP    ??SampleApp_Tester_calibrationMSGCB_8 & 0xFFFF
//  948                 }
//  949               }
//  950                   break;
//  951             case '3':
//  952               {
//  953                  moving_average(rssivalue, perRssiBuf3, 11, imof3, &RssiValue[2]);
??SampleApp_Tester_calibrationMSGCB_5:
        ; Setup parameters for call to function moving_average
        MOV     ?V0 + 0,#(RssiValue + 8) & 0xff
        MOV     ?V0 + 1,#((RssiValue + 8) >> 8) & 0xff
        MOV     R0,#?V0 + 0
        LCALL   ?PUSH_XSTACK_I_TWO
          CFI CFA_XSP16 add(XSP16, 18)
        MOV     ?V0 + 0,#imof3 & 0xff
        MOV     ?V0 + 1,#(imof3 >> 8) & 0xff
        MOV     R0,#?V0 + 0
        LCALL   ?PUSH_XSTACK_I_TWO
          CFI CFA_XSP16 add(XSP16, 20)
        MOV     R4,#0xb
        MOV     R5,#0x0
        MOV     R2,#perRssiBuf3 & 0xff
        MOV     R3,#(perRssiBuf3 >> 8) & 0xff
        MOV     DPTR,#rssivalue
        MOVX    A,@DPTR
        MOV     R1,A
        LCALL   ??moving_average?relay
        MOV     A,#0x4
        LCALL   ?DEALLOC_XSTACK8
          CFI CFA_XSP16 add(XSP16, 16)
//  954                  if (DeviceID==6)
        MOV     DPTR,#DeviceID
        MOVX    A,@DPTR
        XRL     A,#0x6
        JNZ     ??SampleApp_Tester_calibrationMSGCB_10
        INC     DPTR
        MOVX    A,@DPTR
??SampleApp_Tester_calibrationMSGCB_10:
        JZ      $+5
        LJMP    ??SampleApp_Tester_calibrationMSGCB_0 & 0xFFFF
//  955                 {       
//  956                   OffsetAValue[2]=RssiValue[2]-RefAValue[2];
        MOV     DPTR,#RssiValue + 8
        MOV     R0,#?V0 + 0
        LCALL   ?L_MOV_X
        MOV     DPTR,#RefAValue + 8
        MOV     R0,#?V0 + 4
        LCALL   ?L_MOV_X
        MOV     R0,#?V0 + 0
        MOV     R1,#?V0 + 4
        LCALL   ?FLT_SUB
        MOV     DPTR,#OffsetAValue + 8
        SJMP    ??SampleApp_Tester_calibrationMSGCB_8
//  957                 }
//  958               }
//  959                   break;
//  960             case '4':
//  961               {
//  962                  moving_average(rssivalue, perRssiBuf4, 11, imof4, &RssiValue[3]);
??SampleApp_Tester_calibrationMSGCB_6:
        ; Setup parameters for call to function moving_average
        MOV     ?V0 + 0,#(RssiValue + 12) & 0xff
        MOV     ?V0 + 1,#((RssiValue + 12) >> 8) & 0xff
        MOV     R0,#?V0 + 0
        LCALL   ?PUSH_XSTACK_I_TWO
          CFI CFA_XSP16 add(XSP16, 18)
        MOV     ?V0 + 0,#imof4 & 0xff
        MOV     ?V0 + 1,#(imof4 >> 8) & 0xff
        MOV     R0,#?V0 + 0
        LCALL   ?PUSH_XSTACK_I_TWO
          CFI CFA_XSP16 add(XSP16, 20)
        MOV     R4,#0xb
        MOV     R5,#0x0
        MOV     R2,#perRssiBuf4 & 0xff
        MOV     R3,#(perRssiBuf4 >> 8) & 0xff
        MOV     DPTR,#rssivalue
        MOVX    A,@DPTR
        MOV     R1,A
        LCALL   ??moving_average?relay
        MOV     A,#0x4
        LCALL   ?DEALLOC_XSTACK8
          CFI CFA_XSP16 add(XSP16, 16)
//  963                  if (DeviceID==6)
        MOV     DPTR,#DeviceID
        MOVX    A,@DPTR
        XRL     A,#0x6
        JNZ     ??SampleApp_Tester_calibrationMSGCB_11
        INC     DPTR
        MOVX    A,@DPTR
??SampleApp_Tester_calibrationMSGCB_11:
        JNZ     ??SampleApp_Tester_calibrationMSGCB_0
//  964                 {       
//  965                   OffsetAValue[3]=RssiValue[3]-RefAValue[3];
        MOV     DPTR,#RssiValue + 12
        MOV     R0,#?V0 + 0
        LCALL   ?L_MOV_X
        MOV     DPTR,#RefAValue + 12
        MOV     R0,#?V0 + 4
        LCALL   ?L_MOV_X
        MOV     R0,#?V0 + 0
        MOV     R1,#?V0 + 4
        LCALL   ?FLT_SUB
        MOV     DPTR,#OffsetAValue + 12
??SampleApp_Tester_calibrationMSGCB_8:
        MOV     R0,#?V0 + 0
        LCALL   ?L_MOV_TO_X
        SJMP    ??SampleApp_Tester_calibrationMSGCB_0
//  966                 }
//  967               }
//  968                   break;    
//  969             default:
//  970             
//  971                    break;
//  972          }
//  973         break;
//  974       }
//  975        case CALBRATION_N_CLUSTERID:
//  976          {
//  977           // HalUARTWrite(0, pkt->cmd.Data, pkt->cmd.DataLength); // display the messages
//  978            byte alphaindex;
//  979         alphaindex=*(pkt->cmd.Data);
//  980           if(alphaindex=='O')  // test signal from test anchor
??SampleApp_Tester_calibrationMSGCB_2:
        LCALL   ?Subroutine20 & 0xFFFF
??CrossCallReturnLabel_28:
        MOV     DPL,R0
        MOV     DPH,R1
        MOVX    A,@DPTR
        XRL     A,#0x4f
        JNZ     ??SampleApp_Tester_calibrationMSGCB_0
//  981          {
//  982           HalUARTWrite(0, pkt->cmd.Data, pkt->cmd.DataLength); 
        ; Setup parameters for call to function HalUARTWrite
        LCALL   ?Subroutine21 & 0xFFFF
//  983          }
//  984          }
//  985      
//  986    
//  987   }
??CrossCallReturnLabel_30:
        LCALL   ??Subroutine33_0 & 0xFFFF
??CrossCallReturnLabel_57:
        MOV     A,R0
        MOV     R2,A
        MOV     A,R1
        MOV     R3,A
        MOV     R1,#0x0
        LCALL   ??HalUARTWrite?relay
          CFI EndBlock cfiBlock63
//  988 
//  989 }
??SampleApp_Tester_calibrationMSGCB_0:
        REQUIRE ?Subroutine2
        ; // Fall through to label ?Subroutine2

        RSEG BANKED_CODE:CODE:NOROOT(0)
?Subroutine2:
          CFI Block cfiBlock64 Using cfiCommon0
          CFI NoFunction
          CFI CFA_SP SP+0
          CFI CFA_XSP16 add(XSP16, 16)
          CFI VB load(1, XDATA, add(CFA_XSP16, literal(-15)))
          CFI DPL0 load(1, XDATA, add(CFA_XSP16, literal(-2)))
          CFI DPH0 load(1, XDATA, add(CFA_XSP16, literal(-1)))
          CFI R6 load(1, XDATA, add(CFA_XSP16, literal(-16)))
          CFI R7 load(1, XDATA, add(CFA_XSP16, literal(-6)))
          CFI V0 load(1, XDATA, add(CFA_XSP16, literal(-14)))
          CFI V1 load(1, XDATA, add(CFA_XSP16, literal(-13)))
          CFI V2 load(1, XDATA, add(CFA_XSP16, literal(-12)))
          CFI V3 load(1, XDATA, add(CFA_XSP16, literal(-11)))
          CFI V4 load(1, XDATA, add(CFA_XSP16, literal(-10)))
          CFI V5 load(1, XDATA, add(CFA_XSP16, literal(-9)))
          CFI V6 load(1, XDATA, add(CFA_XSP16, literal(-8)))
          CFI V7 load(1, XDATA, add(CFA_XSP16, literal(-7)))
          CFI ?BRET_EXT load(1, XDATA, add(CFA_XSP16, literal(-3)))
          CFI ?RET_HIGH load(1, XDATA, add(CFA_XSP16, literal(-4)))
          CFI ?RET_LOW load(1, XDATA, add(CFA_XSP16, literal(-5)))
        MOV     R7,#0x8
        LJMP    ?BANKED_LEAVE_XDATA
          CFI EndBlock cfiBlock64

        RSEG BANKED_CODE:CODE:NOROOT(0)
?Subroutine21:
          CFI Block cfiCond65 Using cfiCommon0
          CFI Function SampleApp_MessageMSGCB
          CFI Conditional ??CrossCallReturnLabel_29
          CFI R6 load(1, XDATA, add(CFA_XSP16, literal(-20)))
          CFI VB load(1, XDATA, add(CFA_XSP16, literal(-19)))
          CFI V0 load(1, XDATA, add(CFA_XSP16, literal(-18)))
          CFI V1 load(1, XDATA, add(CFA_XSP16, literal(-17)))
          CFI V2 load(1, XDATA, add(CFA_XSP16, literal(-16)))
          CFI V3 load(1, XDATA, add(CFA_XSP16, literal(-15)))
          CFI V4 load(1, XDATA, add(CFA_XSP16, literal(-14)))
          CFI V5 load(1, XDATA, add(CFA_XSP16, literal(-13)))
          CFI V6 load(1, XDATA, add(CFA_XSP16, literal(-12)))
          CFI V7 load(1, XDATA, add(CFA_XSP16, literal(-11)))
          CFI V8 load(1, XDATA, add(CFA_XSP16, literal(-10)))
          CFI V9 load(1, XDATA, add(CFA_XSP16, literal(-9)))
          CFI V10 load(1, XDATA, add(CFA_XSP16, literal(-8)))
          CFI V11 load(1, XDATA, add(CFA_XSP16, literal(-7)))
          CFI R7 load(1, XDATA, add(CFA_XSP16, literal(-6)))
          CFI ?RET_LOW load(1, XDATA, add(CFA_XSP16, literal(-5)))
          CFI ?RET_HIGH load(1, XDATA, add(CFA_XSP16, literal(-4)))
          CFI ?BRET_EXT load(1, XDATA, add(CFA_XSP16, literal(-3)))
          CFI DPL0 load(1, XDATA, add(CFA_XSP16, literal(-2)))
          CFI DPH0 load(1, XDATA, add(CFA_XSP16, literal(-1)))
          CFI CFA_SP SP+0
          CFI CFA_XSP16 add(XSP16, 20)
          CFI Block cfiCond66 Using cfiCommon0
          CFI (cfiCond66) Function SampleApp_Tester_calibrationMSGCB
          CFI (cfiCond66) Conditional ??CrossCallReturnLabel_30
          CFI (cfiCond66) R6 load(1, XDATA, add(CFA_XSP16, literal(-16)))
          CFI (cfiCond66) VB load(1, XDATA, add(CFA_XSP16, literal(-15)))
          CFI (cfiCond66) V0 load(1, XDATA, add(CFA_XSP16, literal(-14)))
          CFI (cfiCond66) V1 load(1, XDATA, add(CFA_XSP16, literal(-13)))
          CFI (cfiCond66) V2 load(1, XDATA, add(CFA_XSP16, literal(-12)))
          CFI (cfiCond66) V3 load(1, XDATA, add(CFA_XSP16, literal(-11)))
          CFI (cfiCond66) V4 load(1, XDATA, add(CFA_XSP16, literal(-10)))
          CFI (cfiCond66) V5 load(1, XDATA, add(CFA_XSP16, literal(-9)))
          CFI (cfiCond66) V6 load(1, XDATA, add(CFA_XSP16, literal(-8)))
          CFI (cfiCond66) V7 load(1, XDATA, add(CFA_XSP16, literal(-7)))
          CFI (cfiCond66) R7 load(1, XDATA, add(CFA_XSP16, literal(-6)))
          CFI (cfiCond66) ?RET_LOW load(1, XDATA, add(CFA_XSP16, literal(-5)))
          CFI (cfiCond66) ?RET_HIGH load(1, XDATA, add(CFA_XSP16, literal(-4)))
          CFI (cfiCond66) ?BRET_EXT load(1, XDATA, add(CFA_XSP16, literal(-3)))
          CFI (cfiCond66) DPL0 load(1, XDATA, add(CFA_XSP16, literal(-2)))
          CFI (cfiCond66) DPH0 load(1, XDATA, add(CFA_XSP16, literal(-1)))
          CFI (cfiCond66) CFA_SP SP+0
          CFI (cfiCond66) CFA_XSP16 add(XSP16, 16)
          CFI Block cfiPicker67 Using cfiCommon1
          CFI (cfiPicker67) NoFunction
          CFI (cfiPicker67) Picker
        MOV     A,R2
        ADD     A,#0x1f
        MOV     DPL,A
        MOV     A,R3
        ADDC    A,#0x0
        MOV     DPH,A
        RET
          CFI EndBlock cfiCond65
          CFI EndBlock cfiCond66
          CFI EndBlock cfiPicker67

        RSEG BANKED_CODE:CODE:NOROOT(0)
?Subroutine20:
          CFI Block cfiCond68 Using cfiCommon0
          CFI Function SampleApp_MessageMSGCB
          CFI Conditional ??CrossCallReturnLabel_27
          CFI R6 load(1, XDATA, add(CFA_XSP16, literal(-20)))
          CFI VB load(1, XDATA, add(CFA_XSP16, literal(-19)))
          CFI V0 load(1, XDATA, add(CFA_XSP16, literal(-18)))
          CFI V1 load(1, XDATA, add(CFA_XSP16, literal(-17)))
          CFI V2 load(1, XDATA, add(CFA_XSP16, literal(-16)))
          CFI V3 load(1, XDATA, add(CFA_XSP16, literal(-15)))
          CFI V4 load(1, XDATA, add(CFA_XSP16, literal(-14)))
          CFI V5 load(1, XDATA, add(CFA_XSP16, literal(-13)))
          CFI V6 load(1, XDATA, add(CFA_XSP16, literal(-12)))
          CFI V7 load(1, XDATA, add(CFA_XSP16, literal(-11)))
          CFI V8 load(1, XDATA, add(CFA_XSP16, literal(-10)))
          CFI V9 load(1, XDATA, add(CFA_XSP16, literal(-9)))
          CFI V10 load(1, XDATA, add(CFA_XSP16, literal(-8)))
          CFI V11 load(1, XDATA, add(CFA_XSP16, literal(-7)))
          CFI R7 load(1, XDATA, add(CFA_XSP16, literal(-6)))
          CFI ?RET_LOW load(1, XDATA, add(CFA_XSP16, literal(-5)))
          CFI ?RET_HIGH load(1, XDATA, add(CFA_XSP16, literal(-4)))
          CFI ?BRET_EXT load(1, XDATA, add(CFA_XSP16, literal(-3)))
          CFI DPL0 load(1, XDATA, add(CFA_XSP16, literal(-2)))
          CFI DPH0 load(1, XDATA, add(CFA_XSP16, literal(-1)))
          CFI CFA_SP SP+0
          CFI CFA_XSP16 add(XSP16, 20)
          CFI Block cfiCond69 Using cfiCommon0
          CFI (cfiCond69) Function SampleApp_Tester_calibrationMSGCB
          CFI (cfiCond69) Conditional ??CrossCallReturnLabel_28
          CFI (cfiCond69) R6 load(1, XDATA, add(CFA_XSP16, literal(-16)))
          CFI (cfiCond69) VB load(1, XDATA, add(CFA_XSP16, literal(-15)))
          CFI (cfiCond69) V0 load(1, XDATA, add(CFA_XSP16, literal(-14)))
          CFI (cfiCond69) V1 load(1, XDATA, add(CFA_XSP16, literal(-13)))
          CFI (cfiCond69) V2 load(1, XDATA, add(CFA_XSP16, literal(-12)))
          CFI (cfiCond69) V3 load(1, XDATA, add(CFA_XSP16, literal(-11)))
          CFI (cfiCond69) V4 load(1, XDATA, add(CFA_XSP16, literal(-10)))
          CFI (cfiCond69) V5 load(1, XDATA, add(CFA_XSP16, literal(-9)))
          CFI (cfiCond69) V6 load(1, XDATA, add(CFA_XSP16, literal(-8)))
          CFI (cfiCond69) V7 load(1, XDATA, add(CFA_XSP16, literal(-7)))
          CFI (cfiCond69) R7 load(1, XDATA, add(CFA_XSP16, literal(-6)))
          CFI (cfiCond69) ?RET_LOW load(1, XDATA, add(CFA_XSP16, literal(-5)))
          CFI (cfiCond69) ?RET_HIGH load(1, XDATA, add(CFA_XSP16, literal(-4)))
          CFI (cfiCond69) ?BRET_EXT load(1, XDATA, add(CFA_XSP16, literal(-3)))
          CFI (cfiCond69) DPL0 load(1, XDATA, add(CFA_XSP16, literal(-2)))
          CFI (cfiCond69) DPH0 load(1, XDATA, add(CFA_XSP16, literal(-1)))
          CFI (cfiCond69) CFA_SP SP+0
          CFI (cfiCond69) CFA_XSP16 add(XSP16, 16)
          CFI Block cfiPicker70 Using cfiCommon1
          CFI (cfiPicker70) NoFunction
          CFI (cfiPicker70) Picker
        LCALL   ?Subroutine26 & 0xFFFF
??CrossCallReturnLabel_40:
        MOVX    A,@DPTR
        MOV     R0,A
        INC     DPTR
        MOVX    A,@DPTR
        MOV     R1,A
        RET
          CFI EndBlock cfiCond68
          CFI EndBlock cfiCond69
          CFI EndBlock cfiPicker70

        RSEG BANKED_CODE:CODE:NOROOT(0)
?Subroutine26:
          CFI Block cfiCond71 Using cfiCommon0
          CFI Function SampleApp_MessageMSGCB
          CFI Conditional ??CrossCallReturnLabel_38
          CFI R6 load(1, XDATA, add(CFA_XSP16, literal(-20)))
          CFI VB load(1, XDATA, add(CFA_XSP16, literal(-19)))
          CFI V0 load(1, XDATA, add(CFA_XSP16, literal(-18)))
          CFI V1 load(1, XDATA, add(CFA_XSP16, literal(-17)))
          CFI V2 load(1, XDATA, add(CFA_XSP16, literal(-16)))
          CFI V3 load(1, XDATA, add(CFA_XSP16, literal(-15)))
          CFI V4 load(1, XDATA, add(CFA_XSP16, literal(-14)))
          CFI V5 load(1, XDATA, add(CFA_XSP16, literal(-13)))
          CFI V6 load(1, XDATA, add(CFA_XSP16, literal(-12)))
          CFI V7 load(1, XDATA, add(CFA_XSP16, literal(-11)))
          CFI V8 load(1, XDATA, add(CFA_XSP16, literal(-10)))
          CFI V9 load(1, XDATA, add(CFA_XSP16, literal(-9)))
          CFI V10 load(1, XDATA, add(CFA_XSP16, literal(-8)))
          CFI V11 load(1, XDATA, add(CFA_XSP16, literal(-7)))
          CFI R7 load(1, XDATA, add(CFA_XSP16, literal(-6)))
          CFI ?RET_LOW load(1, XDATA, add(CFA_XSP16, literal(-5)))
          CFI ?RET_HIGH load(1, XDATA, add(CFA_XSP16, literal(-4)))
          CFI ?BRET_EXT load(1, XDATA, add(CFA_XSP16, literal(-3)))
          CFI DPL0 load(1, XDATA, add(CFA_XSP16, literal(-2)))
          CFI DPH0 load(1, XDATA, add(CFA_XSP16, literal(-1)))
          CFI CFA_SP SP+0
          CFI CFA_XSP16 add(XSP16, 20)
          CFI Block cfiCond72 Using cfiCommon0
          CFI (cfiCond72) Function SampleApp_MessageMSGCB
          CFI (cfiCond72) Conditional ??CrossCallReturnLabel_40, ??CrossCallReturnLabel_27
          CFI (cfiCond72) R6 load(1, XDATA, add(CFA_XSP16, literal(-20)))
          CFI (cfiCond72) VB load(1, XDATA, add(CFA_XSP16, literal(-19)))
          CFI (cfiCond72) V0 load(1, XDATA, add(CFA_XSP16, literal(-18)))
          CFI (cfiCond72) V1 load(1, XDATA, add(CFA_XSP16, literal(-17)))
          CFI (cfiCond72) V2 load(1, XDATA, add(CFA_XSP16, literal(-16)))
          CFI (cfiCond72) V3 load(1, XDATA, add(CFA_XSP16, literal(-15)))
          CFI (cfiCond72) V4 load(1, XDATA, add(CFA_XSP16, literal(-14)))
          CFI (cfiCond72) V5 load(1, XDATA, add(CFA_XSP16, literal(-13)))
          CFI (cfiCond72) V6 load(1, XDATA, add(CFA_XSP16, literal(-12)))
          CFI (cfiCond72) V7 load(1, XDATA, add(CFA_XSP16, literal(-11)))
          CFI (cfiCond72) V8 load(1, XDATA, add(CFA_XSP16, literal(-10)))
          CFI (cfiCond72) V9 load(1, XDATA, add(CFA_XSP16, literal(-9)))
          CFI (cfiCond72) V10 load(1, XDATA, add(CFA_XSP16, literal(-8)))
          CFI (cfiCond72) V11 load(1, XDATA, add(CFA_XSP16, literal(-7)))
          CFI (cfiCond72) R7 load(1, XDATA, add(CFA_XSP16, literal(-6)))
          CFI (cfiCond72) ?RET_LOW load(1, XDATA, add(CFA_XSP16, literal(-5)))
          CFI (cfiCond72) ?RET_HIGH load(1, XDATA, add(CFA_XSP16, literal(-4)))
          CFI (cfiCond72) ?BRET_EXT load(1, XDATA, add(CFA_XSP16, literal(-3)))
          CFI (cfiCond72) DPL0 load(1, XDATA, add(CFA_XSP16, literal(-2)))
          CFI (cfiCond72) DPH0 load(1, XDATA, add(CFA_XSP16, literal(-1)))
          CFI (cfiCond72) CFA_SP SP+0
          CFI (cfiCond72) CFA_XSP16 add(XSP16, 20)
          CFI Block cfiCond73 Using cfiCommon0
          CFI (cfiCond73) Function SampleApp_Tester_calibrationMSGCB
          CFI (cfiCond73) Conditional ??CrossCallReturnLabel_40, ??CrossCallReturnLabel_28
          CFI (cfiCond73) R6 load(1, XDATA, add(CFA_XSP16, literal(-16)))
          CFI (cfiCond73) VB load(1, XDATA, add(CFA_XSP16, literal(-15)))
          CFI (cfiCond73) V0 load(1, XDATA, add(CFA_XSP16, literal(-14)))
          CFI (cfiCond73) V1 load(1, XDATA, add(CFA_XSP16, literal(-13)))
          CFI (cfiCond73) V2 load(1, XDATA, add(CFA_XSP16, literal(-12)))
          CFI (cfiCond73) V3 load(1, XDATA, add(CFA_XSP16, literal(-11)))
          CFI (cfiCond73) V4 load(1, XDATA, add(CFA_XSP16, literal(-10)))
          CFI (cfiCond73) V5 load(1, XDATA, add(CFA_XSP16, literal(-9)))
          CFI (cfiCond73) V6 load(1, XDATA, add(CFA_XSP16, literal(-8)))
          CFI (cfiCond73) V7 load(1, XDATA, add(CFA_XSP16, literal(-7)))
          CFI (cfiCond73) R7 load(1, XDATA, add(CFA_XSP16, literal(-6)))
          CFI (cfiCond73) ?RET_LOW load(1, XDATA, add(CFA_XSP16, literal(-5)))
          CFI (cfiCond73) ?RET_HIGH load(1, XDATA, add(CFA_XSP16, literal(-4)))
          CFI (cfiCond73) ?BRET_EXT load(1, XDATA, add(CFA_XSP16, literal(-3)))
          CFI (cfiCond73) DPL0 load(1, XDATA, add(CFA_XSP16, literal(-2)))
          CFI (cfiCond73) DPH0 load(1, XDATA, add(CFA_XSP16, literal(-1)))
          CFI (cfiCond73) CFA_SP SP+0
          CFI (cfiCond73) CFA_XSP16 add(XSP16, 16)
          CFI Block cfiCond74 Using cfiCommon0
          CFI (cfiCond74) Function SampleApp_Tester_calibrationMSGCB
          CFI (cfiCond74) Conditional ??CrossCallReturnLabel_39, ??CrossCallReturnLabel_61
          CFI (cfiCond74) R6 load(1, XDATA, add(CFA_XSP16, literal(-16)))
          CFI (cfiCond74) VB load(1, XDATA, add(CFA_XSP16, literal(-15)))
          CFI (cfiCond74) V0 load(1, XDATA, add(CFA_XSP16, literal(-14)))
          CFI (cfiCond74) V1 load(1, XDATA, add(CFA_XSP16, literal(-13)))
          CFI (cfiCond74) V2 load(1, XDATA, add(CFA_XSP16, literal(-12)))
          CFI (cfiCond74) V3 load(1, XDATA, add(CFA_XSP16, literal(-11)))
          CFI (cfiCond74) V4 load(1, XDATA, add(CFA_XSP16, literal(-10)))
          CFI (cfiCond74) V5 load(1, XDATA, add(CFA_XSP16, literal(-9)))
          CFI (cfiCond74) V6 load(1, XDATA, add(CFA_XSP16, literal(-8)))
          CFI (cfiCond74) V7 load(1, XDATA, add(CFA_XSP16, literal(-7)))
          CFI (cfiCond74) R7 load(1, XDATA, add(CFA_XSP16, literal(-6)))
          CFI (cfiCond74) ?RET_LOW load(1, XDATA, add(CFA_XSP16, literal(-5)))
          CFI (cfiCond74) ?RET_HIGH load(1, XDATA, add(CFA_XSP16, literal(-4)))
          CFI (cfiCond74) ?BRET_EXT load(1, XDATA, add(CFA_XSP16, literal(-3)))
          CFI (cfiCond74) DPL0 load(1, XDATA, add(CFA_XSP16, literal(-2)))
          CFI (cfiCond74) DPH0 load(1, XDATA, add(CFA_XSP16, literal(-1)))
          CFI (cfiCond74) CFA_SP SP+0
          CFI (cfiCond74) CFA_XSP16 add(XSP16, 16)
          CFI Block cfiCond75 Using cfiCommon0
          CFI (cfiCond75) Function SampleApp_AnchorMSGCB
          CFI (cfiCond75) Conditional ??CrossCallReturnLabel_39, ??CrossCallReturnLabel_62
          CFI (cfiCond75) R6 load(1, XDATA, add(CFA_XSP16, literal(-10)))
          CFI (cfiCond75) VB load(1, XDATA, add(CFA_XSP16, literal(-9)))
          CFI (cfiCond75) V0 load(1, XDATA, add(CFA_XSP16, literal(-8)))
          CFI (cfiCond75) V1 load(1, XDATA, add(CFA_XSP16, literal(-7)))
          CFI (cfiCond75) R7 load(1, XDATA, add(CFA_XSP16, literal(-6)))
          CFI (cfiCond75) ?RET_LOW load(1, XDATA, add(CFA_XSP16, literal(-5)))
          CFI (cfiCond75) ?RET_HIGH load(1, XDATA, add(CFA_XSP16, literal(-4)))
          CFI (cfiCond75) ?BRET_EXT load(1, XDATA, add(CFA_XSP16, literal(-3)))
          CFI (cfiCond75) DPL0 load(1, XDATA, add(CFA_XSP16, literal(-2)))
          CFI (cfiCond75) DPH0 load(1, XDATA, add(CFA_XSP16, literal(-1)))
          CFI (cfiCond75) CFA_SP SP+0
          CFI (cfiCond75) CFA_XSP16 add(XSP16, 10)
          CFI Block cfiPicker76 Using cfiCommon1
          CFI (cfiPicker76) NoFunction
          CFI (cfiPicker76) Picker
        MOV     A,R2
        ADD     A,#0x21
        MOV     DPL,A
        MOV     A,R3
        ADDC    A,#0x0
        MOV     DPH,A
        RET
          CFI EndBlock cfiCond71
          CFI EndBlock cfiCond72
          CFI EndBlock cfiCond73
          CFI EndBlock cfiCond74
          CFI EndBlock cfiCond75
          CFI EndBlock cfiPicker76

        RSEG BANKED_CODE:CODE:NOROOT(0)
?Subroutine17:
          CFI Block cfiCond77 Using cfiCommon0
          CFI Function SampleApp_QuadrotorMSGCB
          CFI Conditional ??CrossCallReturnLabel_58
          CFI R6 load(1, XDATA, add(CFA_XSP16, literal(-24)))
          CFI VB load(1, XDATA, add(CFA_XSP16, literal(-23)))
          CFI V0 load(1, XDATA, add(CFA_XSP16, literal(-22)))
          CFI V1 load(1, XDATA, add(CFA_XSP16, literal(-21)))
          CFI V2 load(1, XDATA, add(CFA_XSP16, literal(-20)))
          CFI V3 load(1, XDATA, add(CFA_XSP16, literal(-19)))
          CFI V4 load(1, XDATA, add(CFA_XSP16, literal(-18)))
          CFI V5 load(1, XDATA, add(CFA_XSP16, literal(-17)))
          CFI V6 load(1, XDATA, add(CFA_XSP16, literal(-16)))
          CFI V7 load(1, XDATA, add(CFA_XSP16, literal(-15)))
          CFI V8 load(1, XDATA, add(CFA_XSP16, literal(-14)))
          CFI V9 load(1, XDATA, add(CFA_XSP16, literal(-13)))
          CFI V10 load(1, XDATA, add(CFA_XSP16, literal(-12)))
          CFI V11 load(1, XDATA, add(CFA_XSP16, literal(-11)))
          CFI V12 load(1, XDATA, add(CFA_XSP16, literal(-10)))
          CFI V13 load(1, XDATA, add(CFA_XSP16, literal(-9)))
          CFI V14 load(1, XDATA, add(CFA_XSP16, literal(-8)))
          CFI V15 load(1, XDATA, add(CFA_XSP16, literal(-7)))
          CFI R7 load(1, XDATA, add(CFA_XSP16, literal(-6)))
          CFI ?RET_LOW load(1, XDATA, add(CFA_XSP16, literal(-5)))
          CFI ?RET_HIGH load(1, XDATA, add(CFA_XSP16, literal(-4)))
          CFI ?BRET_EXT load(1, XDATA, add(CFA_XSP16, literal(-3)))
          CFI DPL0 load(1, XDATA, add(CFA_XSP16, literal(-2)))
          CFI DPH0 load(1, XDATA, add(CFA_XSP16, literal(-1)))
          CFI CFA_SP SP+0
          CFI CFA_XSP16 add(XSP16, 24)
          CFI Block cfiCond78 Using cfiCommon0
          CFI (cfiCond78) Function SampleApp_QuadrotorMSGCB
          CFI (cfiCond78) Conditional ??CrossCallReturnLabel_59
          CFI (cfiCond78) R6 load(1, XDATA, add(CFA_XSP16, literal(-24)))
          CFI (cfiCond78) VB load(1, XDATA, add(CFA_XSP16, literal(-23)))
          CFI (cfiCond78) V0 load(1, XDATA, add(CFA_XSP16, literal(-22)))
          CFI (cfiCond78) V1 load(1, XDATA, add(CFA_XSP16, literal(-21)))
          CFI (cfiCond78) V2 load(1, XDATA, add(CFA_XSP16, literal(-20)))
          CFI (cfiCond78) V3 load(1, XDATA, add(CFA_XSP16, literal(-19)))
          CFI (cfiCond78) V4 load(1, XDATA, add(CFA_XSP16, literal(-18)))
          CFI (cfiCond78) V5 load(1, XDATA, add(CFA_XSP16, literal(-17)))
          CFI (cfiCond78) V6 load(1, XDATA, add(CFA_XSP16, literal(-16)))
          CFI (cfiCond78) V7 load(1, XDATA, add(CFA_XSP16, literal(-15)))
          CFI (cfiCond78) V8 load(1, XDATA, add(CFA_XSP16, literal(-14)))
          CFI (cfiCond78) V9 load(1, XDATA, add(CFA_XSP16, literal(-13)))
          CFI (cfiCond78) V10 load(1, XDATA, add(CFA_XSP16, literal(-12)))
          CFI (cfiCond78) V11 load(1, XDATA, add(CFA_XSP16, literal(-11)))
          CFI (cfiCond78) V12 load(1, XDATA, add(CFA_XSP16, literal(-10)))
          CFI (cfiCond78) V13 load(1, XDATA, add(CFA_XSP16, literal(-9)))
          CFI (cfiCond78) V14 load(1, XDATA, add(CFA_XSP16, literal(-8)))
          CFI (cfiCond78) V15 load(1, XDATA, add(CFA_XSP16, literal(-7)))
          CFI (cfiCond78) R7 load(1, XDATA, add(CFA_XSP16, literal(-6)))
          CFI (cfiCond78) ?RET_LOW load(1, XDATA, add(CFA_XSP16, literal(-5)))
          CFI (cfiCond78) ?RET_HIGH load(1, XDATA, add(CFA_XSP16, literal(-4)))
          CFI (cfiCond78) ?BRET_EXT load(1, XDATA, add(CFA_XSP16, literal(-3)))
          CFI (cfiCond78) DPL0 load(1, XDATA, add(CFA_XSP16, literal(-2)))
          CFI (cfiCond78) DPH0 load(1, XDATA, add(CFA_XSP16, literal(-1)))
          CFI (cfiCond78) CFA_SP SP+0
          CFI (cfiCond78) CFA_XSP16 add(XSP16, 24)
          CFI Block cfiCond79 Using cfiCommon0
          CFI (cfiCond79) Function SampleApp_QuadrotorMSGCB
          CFI (cfiCond79) Conditional ??CrossCallReturnLabel_60
          CFI (cfiCond79) R6 load(1, XDATA, add(CFA_XSP16, literal(-24)))
          CFI (cfiCond79) VB load(1, XDATA, add(CFA_XSP16, literal(-23)))
          CFI (cfiCond79) V0 load(1, XDATA, add(CFA_XSP16, literal(-22)))
          CFI (cfiCond79) V1 load(1, XDATA, add(CFA_XSP16, literal(-21)))
          CFI (cfiCond79) V2 load(1, XDATA, add(CFA_XSP16, literal(-20)))
          CFI (cfiCond79) V3 load(1, XDATA, add(CFA_XSP16, literal(-19)))
          CFI (cfiCond79) V4 load(1, XDATA, add(CFA_XSP16, literal(-18)))
          CFI (cfiCond79) V5 load(1, XDATA, add(CFA_XSP16, literal(-17)))
          CFI (cfiCond79) V6 load(1, XDATA, add(CFA_XSP16, literal(-16)))
          CFI (cfiCond79) V7 load(1, XDATA, add(CFA_XSP16, literal(-15)))
          CFI (cfiCond79) V8 load(1, XDATA, add(CFA_XSP16, literal(-14)))
          CFI (cfiCond79) V9 load(1, XDATA, add(CFA_XSP16, literal(-13)))
          CFI (cfiCond79) V10 load(1, XDATA, add(CFA_XSP16, literal(-12)))
          CFI (cfiCond79) V11 load(1, XDATA, add(CFA_XSP16, literal(-11)))
          CFI (cfiCond79) V12 load(1, XDATA, add(CFA_XSP16, literal(-10)))
          CFI (cfiCond79) V13 load(1, XDATA, add(CFA_XSP16, literal(-9)))
          CFI (cfiCond79) V14 load(1, XDATA, add(CFA_XSP16, literal(-8)))
          CFI (cfiCond79) V15 load(1, XDATA, add(CFA_XSP16, literal(-7)))
          CFI (cfiCond79) R7 load(1, XDATA, add(CFA_XSP16, literal(-6)))
          CFI (cfiCond79) ?RET_LOW load(1, XDATA, add(CFA_XSP16, literal(-5)))
          CFI (cfiCond79) ?RET_HIGH load(1, XDATA, add(CFA_XSP16, literal(-4)))
          CFI (cfiCond79) ?BRET_EXT load(1, XDATA, add(CFA_XSP16, literal(-3)))
          CFI (cfiCond79) DPL0 load(1, XDATA, add(CFA_XSP16, literal(-2)))
          CFI (cfiCond79) DPH0 load(1, XDATA, add(CFA_XSP16, literal(-1)))
          CFI (cfiCond79) CFA_SP SP+0
          CFI (cfiCond79) CFA_XSP16 add(XSP16, 24)
          CFI Block cfiPicker80 Using cfiCommon1
          CFI (cfiPicker80) NoFunction
          CFI (cfiPicker80) Picker
        MOV     DPL,?V0 + 0
        MOV     DPH,?V0 + 1
          CFI EndBlock cfiCond77
          CFI EndBlock cfiCond78
          CFI EndBlock cfiCond79
          CFI EndBlock cfiPicker80
        REQUIRE ??Subroutine33_0
        ; // Fall through to label ??Subroutine33_0

        RSEG BANKED_CODE:CODE:NOROOT(0)
??Subroutine33_0:
          CFI Block cfiCond81 Using cfiCommon0
          CFI Function SampleApp_MessageMSGCB
          CFI Conditional ??CrossCallReturnLabel_56
          CFI R6 load(1, XDATA, add(CFA_XSP16, literal(-20)))
          CFI VB load(1, XDATA, add(CFA_XSP16, literal(-19)))
          CFI V0 load(1, XDATA, add(CFA_XSP16, literal(-18)))
          CFI V1 load(1, XDATA, add(CFA_XSP16, literal(-17)))
          CFI V2 load(1, XDATA, add(CFA_XSP16, literal(-16)))
          CFI V3 load(1, XDATA, add(CFA_XSP16, literal(-15)))
          CFI V4 load(1, XDATA, add(CFA_XSP16, literal(-14)))
          CFI V5 load(1, XDATA, add(CFA_XSP16, literal(-13)))
          CFI V6 load(1, XDATA, add(CFA_XSP16, literal(-12)))
          CFI V7 load(1, XDATA, add(CFA_XSP16, literal(-11)))
          CFI V8 load(1, XDATA, add(CFA_XSP16, literal(-10)))
          CFI V9 load(1, XDATA, add(CFA_XSP16, literal(-9)))
          CFI V10 load(1, XDATA, add(CFA_XSP16, literal(-8)))
          CFI V11 load(1, XDATA, add(CFA_XSP16, literal(-7)))
          CFI R7 load(1, XDATA, add(CFA_XSP16, literal(-6)))
          CFI ?RET_LOW load(1, XDATA, add(CFA_XSP16, literal(-5)))
          CFI ?RET_HIGH load(1, XDATA, add(CFA_XSP16, literal(-4)))
          CFI ?BRET_EXT load(1, XDATA, add(CFA_XSP16, literal(-3)))
          CFI DPL0 load(1, XDATA, add(CFA_XSP16, literal(-2)))
          CFI DPH0 load(1, XDATA, add(CFA_XSP16, literal(-1)))
          CFI CFA_SP SP+0
          CFI CFA_XSP16 add(XSP16, 20)
          CFI Block cfiCond82 Using cfiCommon0
          CFI (cfiCond82) Function SampleApp_Tester_calibrationMSGCB
          CFI (cfiCond82) Conditional ??CrossCallReturnLabel_57
          CFI (cfiCond82) R6 load(1, XDATA, add(CFA_XSP16, literal(-16)))
          CFI (cfiCond82) VB load(1, XDATA, add(CFA_XSP16, literal(-15)))
          CFI (cfiCond82) V0 load(1, XDATA, add(CFA_XSP16, literal(-14)))
          CFI (cfiCond82) V1 load(1, XDATA, add(CFA_XSP16, literal(-13)))
          CFI (cfiCond82) V2 load(1, XDATA, add(CFA_XSP16, literal(-12)))
          CFI (cfiCond82) V3 load(1, XDATA, add(CFA_XSP16, literal(-11)))
          CFI (cfiCond82) V4 load(1, XDATA, add(CFA_XSP16, literal(-10)))
          CFI (cfiCond82) V5 load(1, XDATA, add(CFA_XSP16, literal(-9)))
          CFI (cfiCond82) V6 load(1, XDATA, add(CFA_XSP16, literal(-8)))
          CFI (cfiCond82) V7 load(1, XDATA, add(CFA_XSP16, literal(-7)))
          CFI (cfiCond82) R7 load(1, XDATA, add(CFA_XSP16, literal(-6)))
          CFI (cfiCond82) ?RET_LOW load(1, XDATA, add(CFA_XSP16, literal(-5)))
          CFI (cfiCond82) ?RET_HIGH load(1, XDATA, add(CFA_XSP16, literal(-4)))
          CFI (cfiCond82) ?BRET_EXT load(1, XDATA, add(CFA_XSP16, literal(-3)))
          CFI (cfiCond82) DPL0 load(1, XDATA, add(CFA_XSP16, literal(-2)))
          CFI (cfiCond82) DPH0 load(1, XDATA, add(CFA_XSP16, literal(-1)))
          CFI (cfiCond82) CFA_SP SP+0
          CFI (cfiCond82) CFA_XSP16 add(XSP16, 16)
          CFI Block cfiCond83 Using cfiCommon0
          CFI (cfiCond83) Function SampleApp_QuadrotorMSGCB
          CFI (cfiCond83) Conditional ??CrossCallReturnLabel_58
          CFI (cfiCond83) R6 load(1, XDATA, add(CFA_XSP16, literal(-24)))
          CFI (cfiCond83) VB load(1, XDATA, add(CFA_XSP16, literal(-23)))
          CFI (cfiCond83) V0 load(1, XDATA, add(CFA_XSP16, literal(-22)))
          CFI (cfiCond83) V1 load(1, XDATA, add(CFA_XSP16, literal(-21)))
          CFI (cfiCond83) V2 load(1, XDATA, add(CFA_XSP16, literal(-20)))
          CFI (cfiCond83) V3 load(1, XDATA, add(CFA_XSP16, literal(-19)))
          CFI (cfiCond83) V4 load(1, XDATA, add(CFA_XSP16, literal(-18)))
          CFI (cfiCond83) V5 load(1, XDATA, add(CFA_XSP16, literal(-17)))
          CFI (cfiCond83) V6 load(1, XDATA, add(CFA_XSP16, literal(-16)))
          CFI (cfiCond83) V7 load(1, XDATA, add(CFA_XSP16, literal(-15)))
          CFI (cfiCond83) V8 load(1, XDATA, add(CFA_XSP16, literal(-14)))
          CFI (cfiCond83) V9 load(1, XDATA, add(CFA_XSP16, literal(-13)))
          CFI (cfiCond83) V10 load(1, XDATA, add(CFA_XSP16, literal(-12)))
          CFI (cfiCond83) V11 load(1, XDATA, add(CFA_XSP16, literal(-11)))
          CFI (cfiCond83) V12 load(1, XDATA, add(CFA_XSP16, literal(-10)))
          CFI (cfiCond83) V13 load(1, XDATA, add(CFA_XSP16, literal(-9)))
          CFI (cfiCond83) V14 load(1, XDATA, add(CFA_XSP16, literal(-8)))
          CFI (cfiCond83) V15 load(1, XDATA, add(CFA_XSP16, literal(-7)))
          CFI (cfiCond83) R7 load(1, XDATA, add(CFA_XSP16, literal(-6)))
          CFI (cfiCond83) ?RET_LOW load(1, XDATA, add(CFA_XSP16, literal(-5)))
          CFI (cfiCond83) ?RET_HIGH load(1, XDATA, add(CFA_XSP16, literal(-4)))
          CFI (cfiCond83) ?BRET_EXT load(1, XDATA, add(CFA_XSP16, literal(-3)))
          CFI (cfiCond83) DPL0 load(1, XDATA, add(CFA_XSP16, literal(-2)))
          CFI (cfiCond83) DPH0 load(1, XDATA, add(CFA_XSP16, literal(-1)))
          CFI (cfiCond83) CFA_SP SP+0
          CFI (cfiCond83) CFA_XSP16 add(XSP16, 24)
          CFI Block cfiCond84 Using cfiCommon0
          CFI (cfiCond84) Function SampleApp_QuadrotorMSGCB
          CFI (cfiCond84) Conditional ??CrossCallReturnLabel_59
          CFI (cfiCond84) R6 load(1, XDATA, add(CFA_XSP16, literal(-24)))
          CFI (cfiCond84) VB load(1, XDATA, add(CFA_XSP16, literal(-23)))
          CFI (cfiCond84) V0 load(1, XDATA, add(CFA_XSP16, literal(-22)))
          CFI (cfiCond84) V1 load(1, XDATA, add(CFA_XSP16, literal(-21)))
          CFI (cfiCond84) V2 load(1, XDATA, add(CFA_XSP16, literal(-20)))
          CFI (cfiCond84) V3 load(1, XDATA, add(CFA_XSP16, literal(-19)))
          CFI (cfiCond84) V4 load(1, XDATA, add(CFA_XSP16, literal(-18)))
          CFI (cfiCond84) V5 load(1, XDATA, add(CFA_XSP16, literal(-17)))
          CFI (cfiCond84) V6 load(1, XDATA, add(CFA_XSP16, literal(-16)))
          CFI (cfiCond84) V7 load(1, XDATA, add(CFA_XSP16, literal(-15)))
          CFI (cfiCond84) V8 load(1, XDATA, add(CFA_XSP16, literal(-14)))
          CFI (cfiCond84) V9 load(1, XDATA, add(CFA_XSP16, literal(-13)))
          CFI (cfiCond84) V10 load(1, XDATA, add(CFA_XSP16, literal(-12)))
          CFI (cfiCond84) V11 load(1, XDATA, add(CFA_XSP16, literal(-11)))
          CFI (cfiCond84) V12 load(1, XDATA, add(CFA_XSP16, literal(-10)))
          CFI (cfiCond84) V13 load(1, XDATA, add(CFA_XSP16, literal(-9)))
          CFI (cfiCond84) V14 load(1, XDATA, add(CFA_XSP16, literal(-8)))
          CFI (cfiCond84) V15 load(1, XDATA, add(CFA_XSP16, literal(-7)))
          CFI (cfiCond84) R7 load(1, XDATA, add(CFA_XSP16, literal(-6)))
          CFI (cfiCond84) ?RET_LOW load(1, XDATA, add(CFA_XSP16, literal(-5)))
          CFI (cfiCond84) ?RET_HIGH load(1, XDATA, add(CFA_XSP16, literal(-4)))
          CFI (cfiCond84) ?BRET_EXT load(1, XDATA, add(CFA_XSP16, literal(-3)))
          CFI (cfiCond84) DPL0 load(1, XDATA, add(CFA_XSP16, literal(-2)))
          CFI (cfiCond84) DPH0 load(1, XDATA, add(CFA_XSP16, literal(-1)))
          CFI (cfiCond84) CFA_SP SP+0
          CFI (cfiCond84) CFA_XSP16 add(XSP16, 24)
          CFI Block cfiCond85 Using cfiCommon0
          CFI (cfiCond85) Function SampleApp_QuadrotorMSGCB
          CFI (cfiCond85) Conditional ??CrossCallReturnLabel_60
          CFI (cfiCond85) R6 load(1, XDATA, add(CFA_XSP16, literal(-24)))
          CFI (cfiCond85) VB load(1, XDATA, add(CFA_XSP16, literal(-23)))
          CFI (cfiCond85) V0 load(1, XDATA, add(CFA_XSP16, literal(-22)))
          CFI (cfiCond85) V1 load(1, XDATA, add(CFA_XSP16, literal(-21)))
          CFI (cfiCond85) V2 load(1, XDATA, add(CFA_XSP16, literal(-20)))
          CFI (cfiCond85) V3 load(1, XDATA, add(CFA_XSP16, literal(-19)))
          CFI (cfiCond85) V4 load(1, XDATA, add(CFA_XSP16, literal(-18)))
          CFI (cfiCond85) V5 load(1, XDATA, add(CFA_XSP16, literal(-17)))
          CFI (cfiCond85) V6 load(1, XDATA, add(CFA_XSP16, literal(-16)))
          CFI (cfiCond85) V7 load(1, XDATA, add(CFA_XSP16, literal(-15)))
          CFI (cfiCond85) V8 load(1, XDATA, add(CFA_XSP16, literal(-14)))
          CFI (cfiCond85) V9 load(1, XDATA, add(CFA_XSP16, literal(-13)))
          CFI (cfiCond85) V10 load(1, XDATA, add(CFA_XSP16, literal(-12)))
          CFI (cfiCond85) V11 load(1, XDATA, add(CFA_XSP16, literal(-11)))
          CFI (cfiCond85) V12 load(1, XDATA, add(CFA_XSP16, literal(-10)))
          CFI (cfiCond85) V13 load(1, XDATA, add(CFA_XSP16, literal(-9)))
          CFI (cfiCond85) V14 load(1, XDATA, add(CFA_XSP16, literal(-8)))
          CFI (cfiCond85) V15 load(1, XDATA, add(CFA_XSP16, literal(-7)))
          CFI (cfiCond85) R7 load(1, XDATA, add(CFA_XSP16, literal(-6)))
          CFI (cfiCond85) ?RET_LOW load(1, XDATA, add(CFA_XSP16, literal(-5)))
          CFI (cfiCond85) ?RET_HIGH load(1, XDATA, add(CFA_XSP16, literal(-4)))
          CFI (cfiCond85) ?BRET_EXT load(1, XDATA, add(CFA_XSP16, literal(-3)))
          CFI (cfiCond85) DPL0 load(1, XDATA, add(CFA_XSP16, literal(-2)))
          CFI (cfiCond85) DPH0 load(1, XDATA, add(CFA_XSP16, literal(-1)))
          CFI (cfiCond85) CFA_SP SP+0
          CFI (cfiCond85) CFA_XSP16 add(XSP16, 24)
          CFI Block cfiPicker86 Using cfiCommon1
          CFI (cfiPicker86) NoFunction
          CFI (cfiPicker86) Picker
        MOVX    A,@DPTR
        MOV     R4,A
        INC     DPTR
        MOVX    A,@DPTR
        MOV     R5,A
        RET
          CFI EndBlock cfiCond81
          CFI EndBlock cfiCond82
          CFI EndBlock cfiCond83
          CFI EndBlock cfiCond84
          CFI EndBlock cfiCond85
          CFI EndBlock cfiPicker86

        RSEG BANKED_CODE:CODE:NOROOT(0)
?Subroutine13:
          CFI Block cfiCond87 Using cfiCommon0
          CFI Function SampleApp_Tester_calibrationMSGCB
          CFI Conditional ??CrossCallReturnLabel_61
          CFI R6 load(1, XDATA, add(CFA_XSP16, literal(-16)))
          CFI VB load(1, XDATA, add(CFA_XSP16, literal(-15)))
          CFI V0 load(1, XDATA, add(CFA_XSP16, literal(-14)))
          CFI V1 load(1, XDATA, add(CFA_XSP16, literal(-13)))
          CFI V2 load(1, XDATA, add(CFA_XSP16, literal(-12)))
          CFI V3 load(1, XDATA, add(CFA_XSP16, literal(-11)))
          CFI V4 load(1, XDATA, add(CFA_XSP16, literal(-10)))
          CFI V5 load(1, XDATA, add(CFA_XSP16, literal(-9)))
          CFI V6 load(1, XDATA, add(CFA_XSP16, literal(-8)))
          CFI V7 load(1, XDATA, add(CFA_XSP16, literal(-7)))
          CFI R7 load(1, XDATA, add(CFA_XSP16, literal(-6)))
          CFI ?RET_LOW load(1, XDATA, add(CFA_XSP16, literal(-5)))
          CFI ?RET_HIGH load(1, XDATA, add(CFA_XSP16, literal(-4)))
          CFI ?BRET_EXT load(1, XDATA, add(CFA_XSP16, literal(-3)))
          CFI DPL0 load(1, XDATA, add(CFA_XSP16, literal(-2)))
          CFI DPH0 load(1, XDATA, add(CFA_XSP16, literal(-1)))
          CFI CFA_SP SP+0
          CFI CFA_XSP16 add(XSP16, 16)
          CFI Block cfiCond88 Using cfiCommon0
          CFI (cfiCond88) Function SampleApp_AnchorMSGCB
          CFI (cfiCond88) Conditional ??CrossCallReturnLabel_62
          CFI (cfiCond88) R6 load(1, XDATA, add(CFA_XSP16, literal(-10)))
          CFI (cfiCond88) VB load(1, XDATA, add(CFA_XSP16, literal(-9)))
          CFI (cfiCond88) V0 load(1, XDATA, add(CFA_XSP16, literal(-8)))
          CFI (cfiCond88) V1 load(1, XDATA, add(CFA_XSP16, literal(-7)))
          CFI (cfiCond88) R7 load(1, XDATA, add(CFA_XSP16, literal(-6)))
          CFI (cfiCond88) ?RET_LOW load(1, XDATA, add(CFA_XSP16, literal(-5)))
          CFI (cfiCond88) ?RET_HIGH load(1, XDATA, add(CFA_XSP16, literal(-4)))
          CFI (cfiCond88) ?BRET_EXT load(1, XDATA, add(CFA_XSP16, literal(-3)))
          CFI (cfiCond88) DPL0 load(1, XDATA, add(CFA_XSP16, literal(-2)))
          CFI (cfiCond88) DPH0 load(1, XDATA, add(CFA_XSP16, literal(-1)))
          CFI (cfiCond88) CFA_SP SP+0
          CFI (cfiCond88) CFA_XSP16 add(XSP16, 10)
          CFI Block cfiPicker89 Using cfiCommon1
          CFI (cfiPicker89) NoFunction
          CFI (cfiPicker89) Picker
        LCALL   ?Subroutine26 & 0xFFFF
          CFI EndBlock cfiCond87
          CFI EndBlock cfiCond88
          CFI EndBlock cfiPicker89
??CrossCallReturnLabel_39:
        REQUIRE ??Subroutine34_0
        ; // Fall through to label ??Subroutine34_0

        RSEG BANKED_CODE:CODE:NOROOT(0)
??Subroutine34_0:
          CFI Block cfiCond90 Using cfiCommon0
          CFI Function SampleApp_QuadrotorMSGCB
          CFI Conditional ??CrossCallReturnLabel_63
          CFI R6 load(1, XDATA, add(CFA_XSP16, literal(-24)))
          CFI VB load(1, XDATA, add(CFA_XSP16, literal(-23)))
          CFI V0 load(1, XDATA, add(CFA_XSP16, literal(-22)))
          CFI V1 load(1, XDATA, add(CFA_XSP16, literal(-21)))
          CFI V2 load(1, XDATA, add(CFA_XSP16, literal(-20)))
          CFI V3 load(1, XDATA, add(CFA_XSP16, literal(-19)))
          CFI V4 load(1, XDATA, add(CFA_XSP16, literal(-18)))
          CFI V5 load(1, XDATA, add(CFA_XSP16, literal(-17)))
          CFI V6 load(1, XDATA, add(CFA_XSP16, literal(-16)))
          CFI V7 load(1, XDATA, add(CFA_XSP16, literal(-15)))
          CFI V8 load(1, XDATA, add(CFA_XSP16, literal(-14)))
          CFI V9 load(1, XDATA, add(CFA_XSP16, literal(-13)))
          CFI V10 load(1, XDATA, add(CFA_XSP16, literal(-12)))
          CFI V11 load(1, XDATA, add(CFA_XSP16, literal(-11)))
          CFI V12 load(1, XDATA, add(CFA_XSP16, literal(-10)))
          CFI V13 load(1, XDATA, add(CFA_XSP16, literal(-9)))
          CFI V14 load(1, XDATA, add(CFA_XSP16, literal(-8)))
          CFI V15 load(1, XDATA, add(CFA_XSP16, literal(-7)))
          CFI R7 load(1, XDATA, add(CFA_XSP16, literal(-6)))
          CFI ?RET_LOW load(1, XDATA, add(CFA_XSP16, literal(-5)))
          CFI ?RET_HIGH load(1, XDATA, add(CFA_XSP16, literal(-4)))
          CFI ?BRET_EXT load(1, XDATA, add(CFA_XSP16, literal(-3)))
          CFI DPL0 load(1, XDATA, add(CFA_XSP16, literal(-2)))
          CFI DPH0 load(1, XDATA, add(CFA_XSP16, literal(-1)))
          CFI CFA_SP SP+0
          CFI CFA_XSP16 add(XSP16, 24)
          CFI Block cfiCond91 Using cfiCommon0
          CFI (cfiCond91) Function SampleApp_Tester_calibrationMSGCB
          CFI (cfiCond91) Conditional ??CrossCallReturnLabel_61
          CFI (cfiCond91) R6 load(1, XDATA, add(CFA_XSP16, literal(-16)))
          CFI (cfiCond91) VB load(1, XDATA, add(CFA_XSP16, literal(-15)))
          CFI (cfiCond91) V0 load(1, XDATA, add(CFA_XSP16, literal(-14)))
          CFI (cfiCond91) V1 load(1, XDATA, add(CFA_XSP16, literal(-13)))
          CFI (cfiCond91) V2 load(1, XDATA, add(CFA_XSP16, literal(-12)))
          CFI (cfiCond91) V3 load(1, XDATA, add(CFA_XSP16, literal(-11)))
          CFI (cfiCond91) V4 load(1, XDATA, add(CFA_XSP16, literal(-10)))
          CFI (cfiCond91) V5 load(1, XDATA, add(CFA_XSP16, literal(-9)))
          CFI (cfiCond91) V6 load(1, XDATA, add(CFA_XSP16, literal(-8)))
          CFI (cfiCond91) V7 load(1, XDATA, add(CFA_XSP16, literal(-7)))
          CFI (cfiCond91) R7 load(1, XDATA, add(CFA_XSP16, literal(-6)))
          CFI (cfiCond91) ?RET_LOW load(1, XDATA, add(CFA_XSP16, literal(-5)))
          CFI (cfiCond91) ?RET_HIGH load(1, XDATA, add(CFA_XSP16, literal(-4)))
          CFI (cfiCond91) ?BRET_EXT load(1, XDATA, add(CFA_XSP16, literal(-3)))
          CFI (cfiCond91) DPL0 load(1, XDATA, add(CFA_XSP16, literal(-2)))
          CFI (cfiCond91) DPH0 load(1, XDATA, add(CFA_XSP16, literal(-1)))
          CFI (cfiCond91) CFA_SP SP+0
          CFI (cfiCond91) CFA_XSP16 add(XSP16, 16)
          CFI Block cfiCond92 Using cfiCommon0
          CFI (cfiCond92) Function SampleApp_AnchorMSGCB
          CFI (cfiCond92) Conditional ??CrossCallReturnLabel_62
          CFI (cfiCond92) R6 load(1, XDATA, add(CFA_XSP16, literal(-10)))
          CFI (cfiCond92) VB load(1, XDATA, add(CFA_XSP16, literal(-9)))
          CFI (cfiCond92) V0 load(1, XDATA, add(CFA_XSP16, literal(-8)))
          CFI (cfiCond92) V1 load(1, XDATA, add(CFA_XSP16, literal(-7)))
          CFI (cfiCond92) R7 load(1, XDATA, add(CFA_XSP16, literal(-6)))
          CFI (cfiCond92) ?RET_LOW load(1, XDATA, add(CFA_XSP16, literal(-5)))
          CFI (cfiCond92) ?RET_HIGH load(1, XDATA, add(CFA_XSP16, literal(-4)))
          CFI (cfiCond92) ?BRET_EXT load(1, XDATA, add(CFA_XSP16, literal(-3)))
          CFI (cfiCond92) DPL0 load(1, XDATA, add(CFA_XSP16, literal(-2)))
          CFI (cfiCond92) DPH0 load(1, XDATA, add(CFA_XSP16, literal(-1)))
          CFI (cfiCond92) CFA_SP SP+0
          CFI (cfiCond92) CFA_XSP16 add(XSP16, 10)
          CFI Block cfiPicker93 Using cfiCommon1
          CFI (cfiPicker93) NoFunction
          CFI (cfiPicker93) Picker
        MOVX    A,@DPTR
        MOV     R0,A
        INC     DPTR
        MOVX    A,@DPTR
        MOV     DPH,A
        MOV     DPL,R0
        INC     DPTR
        MOVX    A,@DPTR
        MOV     R1,A
        MOV     A,R2
        ADD     A,#0x18
        MOV     DPL,A
        MOV     A,R3
        ADDC    A,#0x0
        MOV     DPH,A
        MOVX    A,@DPTR
        MOV     R0,A
        MOV     A,#-0x1
        CLR     C
        SUBB    A,R0
        MOV     DPTR,#rssivalue
        MOVX    @DPTR,A
        MOV     A,R1
        ADD     A,#-0x31
        RET
          CFI EndBlock cfiCond90
          CFI EndBlock cfiCond91
          CFI EndBlock cfiCond92
          CFI EndBlock cfiPicker93
//  990 
//  991 
//  992 /*********************************************************************
//  993  * @fn      SampleApp_AnchorMSGCB
//  994  *
//  995  * @brief   Data message processor callback.  This function processes
//  996  *          any incoming data - probably from other devices.  So, based
//  997  *          on cluster ID, perform the intended action.
//  998  *
//  999  * @param   none
// 1000  *
// 1001  * @return  none
// 1002  */

        RSEG BANKED_CODE:CODE:NOROOT(0)
// 1003 void SampleApp_AnchorMSGCB( afIncomingMSGPacket_t *pkt ) //receive data for ed
SampleApp_AnchorMSGCB:
          CFI Block cfiBlock94 Using cfiCommon0
          CFI Function SampleApp_AnchorMSGCB
        CODE
// 1004 {
        FUNCALL SampleApp_AnchorMSGCB, printRSSIandLQI
        LOCFRAME ISTACK, 0, STACK
        LOCFRAME PSTACK, 0, STACK
        LOCFRAME XSTACK, 10, STACK
        LOCFRAME IOVERLAY, 0, STATIC
        LOCFRAME DOVERLAY, 0, STATIC
        ARGFRAME ISTACK, 0, STACK
        ARGFRAME PSTACK, 0, STACK
        ARGFRAME XSTACK, 10, STACK
        ARGFRAME IOVERLAY, 0, STATIC
        ARGFRAME DOVERLAY, 0, STATIC
        FUNCALL SampleApp_AnchorMSGCB, moving_average
        LOCFRAME ISTACK, 0, STACK
        LOCFRAME PSTACK, 0, STACK
        LOCFRAME XSTACK, 14, STACK
        LOCFRAME IOVERLAY, 0, STATIC
        LOCFRAME DOVERLAY, 0, STATIC
        ARGFRAME ISTACK, 0, STACK
        ARGFRAME PSTACK, 0, STACK
        ARGFRAME XSTACK, 14, STACK
        ARGFRAME IOVERLAY, 0, STATIC
        ARGFRAME DOVERLAY, 0, STATIC
        FUNCALL SampleApp_AnchorMSGCB, moving_average
        LOCFRAME ISTACK, 0, STACK
        LOCFRAME PSTACK, 0, STACK
        LOCFRAME XSTACK, 14, STACK
        LOCFRAME IOVERLAY, 0, STATIC
        LOCFRAME DOVERLAY, 0, STATIC
        ARGFRAME ISTACK, 0, STACK
        ARGFRAME PSTACK, 0, STACK
        ARGFRAME XSTACK, 14, STACK
        ARGFRAME IOVERLAY, 0, STATIC
        ARGFRAME DOVERLAY, 0, STATIC
        FUNCALL SampleApp_AnchorMSGCB, moving_average
        LOCFRAME ISTACK, 0, STACK
        LOCFRAME PSTACK, 0, STACK
        LOCFRAME XSTACK, 14, STACK
        LOCFRAME IOVERLAY, 0, STATIC
        LOCFRAME DOVERLAY, 0, STATIC
        ARGFRAME ISTACK, 0, STACK
        ARGFRAME PSTACK, 0, STACK
        ARGFRAME XSTACK, 14, STACK
        ARGFRAME IOVERLAY, 0, STATIC
        ARGFRAME DOVERLAY, 0, STATIC
        FUNCALL SampleApp_AnchorMSGCB, moving_average
        LOCFRAME ISTACK, 0, STACK
        LOCFRAME PSTACK, 0, STACK
        LOCFRAME XSTACK, 14, STACK
        LOCFRAME IOVERLAY, 0, STATIC
        LOCFRAME DOVERLAY, 0, STATIC
        ARGFRAME ISTACK, 0, STACK
        ARGFRAME PSTACK, 0, STACK
        ARGFRAME XSTACK, 14, STACK
        ARGFRAME IOVERLAY, 0, STATIC
        ARGFRAME DOVERLAY, 0, STATIC
        MOV     A,#-0xa
        LCALL   ?BANKED_ENTER_XDATA
          CFI DPH0 load(1, XDATA, add(CFA_XSP16, literal(-1)))
          CFI DPL0 load(1, XDATA, add(CFA_XSP16, literal(-2)))
          CFI ?BRET_EXT load(1, XDATA, add(CFA_XSP16, literal(-3)))
          CFI ?RET_HIGH load(1, XDATA, add(CFA_XSP16, literal(-4)))
          CFI ?RET_LOW load(1, XDATA, add(CFA_XSP16, literal(-5)))
          CFI R7 load(1, XDATA, add(CFA_XSP16, literal(-6)))
          CFI V1 load(1, XDATA, add(CFA_XSP16, literal(-7)))
          CFI V0 load(1, XDATA, add(CFA_XSP16, literal(-8)))
          CFI VB load(1, XDATA, add(CFA_XSP16, literal(-9)))
          CFI R6 load(1, XDATA, add(CFA_XSP16, literal(-10)))
          CFI CFA_SP SP+0
          CFI CFA_XSP16 add(XSP16, 10)
        ; Saved register size: 10
        ; Auto size: 0
// 1005  // float avalue=0.0f;
// 1006   int switchindex;
// 1007   switch ( pkt->clusterId )
        MOV     DPL,R2
        MOV     DPH,R3
        INC     DPTR
        INC     DPTR
        INC     DPTR
        INC     DPTR
        MOVX    A,@DPTR
        XRL     A,#0x1
        JNZ     ??SampleApp_AnchorMSGCB_0
        INC     DPTR
        MOVX    A,@DPTR
??SampleApp_AnchorMSGCB_0:
        JZ      $+5
        LJMP    ??SampleApp_AnchorMSGCB_1 & 0xFFFF
// 1008   {
// 1009     case SAMPLEAPP_PERIODIC_CLUSTERID:
// 1010       { 
// 1011         
// 1012         
// 1013        
// 1014         
// 1015         byte index;
// 1016         index=*(pkt->cmd.Data+1);
        LCALL   ?Subroutine13 & 0xFFFF
// 1017         rssivalue=(0xff-pkt->rssi);
// 1018         
// 1019         switch (index)
??CrossCallReturnLabel_62:
        JZ      ??SampleApp_AnchorMSGCB_2
        DEC     A
        JZ      ??SampleApp_AnchorMSGCB_3
        DEC     A
        JZ      ??SampleApp_AnchorMSGCB_4
        DEC     A
        JNZ     $+5
        LJMP    ??SampleApp_AnchorMSGCB_5 & 0xFFFF
        LJMP    ??SampleApp_AnchorMSGCB_1 & 0xFFFF
// 1020         {
// 1021             case '1':
// 1022               {
// 1023                 printRSSIandLQI(pkt,1);
??SampleApp_AnchorMSGCB_2:
        ; Setup parameters for call to function printRSSIandLQI
        MOV     R4,#0x1
        MOV     R5,#0x0
        LCALL   ??printRSSIandLQI?relay
// 1024                 //moving average filter
// 1025                 switchindex=1;
// 1026                 if(DeviceID!=switchindex)
        MOV     DPTR,#DeviceID
        MOVX    A,@DPTR
        XRL     A,#0x1
        JNZ     ??SampleApp_AnchorMSGCB_6
        INC     DPTR
        MOVX    A,@DPTR
??SampleApp_AnchorMSGCB_6:
        JNZ     $+5
        LJMP    ??SampleApp_AnchorMSGCB_1 & 0xFFFF
// 1027                   {moving_average(rssivalue, perRssiBuf1, RSSI_AVG_WINDOW_SIZE-1, imof1, &RssiValue[switchindex-1]);
        ; Setup parameters for call to function moving_average
        MOV     ?V0 + 0,#RssiValue & 0xff
        MOV     ?V0 + 1,#(RssiValue >> 8) & 0xff
        MOV     R0,#?V0 + 0
        LCALL   ?PUSH_XSTACK_I_TWO
          CFI CFA_XSP16 add(XSP16, 12)
        MOV     ?V0 + 0,#imof1 & 0xff
        MOV     ?V0 + 1,#(imof1 >> 8) & 0xff
        MOV     R0,#?V0 + 0
        LCALL   ?PUSH_XSTACK_I_TWO
          CFI CFA_XSP16 add(XSP16, 14)
        MOV     R4,#0x1f
        MOV     R5,#0x0
        MOV     R2,#perRssiBuf1 & 0xff
        MOV     R3,#(perRssiBuf1 >> 8) & 0xff
        LJMP    ??SampleApp_AnchorMSGCB_7 & 0xFFFF
          CFI CFA_XSP16 add(XSP16, 10)
// 1028                     // anchor to calibrate n
// 1029 //                    if( (nValue[switchindex-1]=calibrationN(DeviceID,switchindex,RssiValue,nValue,
// 1030 //                                                        AnchorX,AnchorY,AnchorZ,AValue))<10)  //usually n is smaller than 10
// 1031 //                       {SampleApp_Router_calibrationNMessage(switchindex,nValue[switchindex-1]);}
// 1032                     // anchor to calibrate A
// 1033   //                  if(AValue[switchindex-1]=calibrationA(DeviceID,switchindex,RssiValue,nValue,
// 1034   //                                                        AnchorX,AnchorY,AnchorZ,AValue))
// 1035   //                  {
// 1036   //                      SampleApp_Router_calibrationAMessage(switchindex,AValue[switchindex-1];
// 1037   //                  }
// 1038                 }
// 1039               }
// 1040             
// 1041                   break;
// 1042             case '2':
// 1043               {
// 1044                 //moving average filter
// 1045                 switchindex=2;
// 1046                 if(DeviceID!=switchindex)
??SampleApp_AnchorMSGCB_3:
        MOV     DPTR,#DeviceID
        MOVX    A,@DPTR
        XRL     A,#0x2
        JNZ     ??SampleApp_AnchorMSGCB_8
        INC     DPTR
        MOVX    A,@DPTR
??SampleApp_AnchorMSGCB_8:
        JNZ     $+5
        LJMP    ??SampleApp_AnchorMSGCB_1 & 0xFFFF
// 1047                 {
// 1048                 moving_average(rssivalue, perRssiBuf2, RSSI_AVG_WINDOW_SIZE-1, imof2, &RssiValue[switchindex-1]);
        ; Setup parameters for call to function moving_average
        MOV     ?V0 + 0,#(RssiValue + 4) & 0xff
        MOV     ?V0 + 1,#((RssiValue + 4) >> 8) & 0xff
        MOV     R0,#?V0 + 0
        LCALL   ?PUSH_XSTACK_I_TWO
          CFI CFA_XSP16 add(XSP16, 12)
        MOV     ?V0 + 0,#imof2 & 0xff
        MOV     ?V0 + 1,#(imof2 >> 8) & 0xff
        MOV     R0,#?V0 + 0
        LCALL   ?PUSH_XSTACK_I_TWO
          CFI CFA_XSP16 add(XSP16, 14)
        MOV     R4,#0x1f
        MOV     R5,#0x0
        MOV     R2,#perRssiBuf2 & 0xff
        MOV     R3,#(perRssiBuf2 >> 8) & 0xff
        SJMP    ??SampleApp_AnchorMSGCB_7
          CFI CFA_XSP16 add(XSP16, 10)
// 1049 //                    if(  (nValue[switchindex-1]=calibrationN(DeviceID,switchindex,RssiValue,
// 1050 //                                                             nValue,AnchorX,AnchorY,AnchorZ,AValue))<10)
// 1051 //                   { SampleApp_Router_calibrationNMessage(switchindex,nValue[switchindex-1]);}
// 1052 //                    }
// 1053               }
// 1054                   break;
// 1055             case '3':
// 1056               {
// 1057                  //moving average filter
// 1058                 switchindex=3;
// 1059                 if(DeviceID!=switchindex)
??SampleApp_AnchorMSGCB_4:
        MOV     DPTR,#DeviceID
        MOVX    A,@DPTR
        XRL     A,#0x3
        JNZ     ??SampleApp_AnchorMSGCB_9
        INC     DPTR
        MOVX    A,@DPTR
??SampleApp_AnchorMSGCB_9:
        JZ      ??SampleApp_AnchorMSGCB_1
// 1060                 {
// 1061                 moving_average(rssivalue, perRssiBuf3, RSSI_AVG_WINDOW_SIZE-1, imof3, &RssiValue[switchindex-1]);
        ; Setup parameters for call to function moving_average
        MOV     ?V0 + 0,#(RssiValue + 8) & 0xff
        MOV     ?V0 + 1,#((RssiValue + 8) >> 8) & 0xff
        MOV     R0,#?V0 + 0
        LCALL   ?PUSH_XSTACK_I_TWO
          CFI CFA_XSP16 add(XSP16, 12)
        MOV     ?V0 + 0,#imof3 & 0xff
        MOV     ?V0 + 1,#(imof3 >> 8) & 0xff
        MOV     R0,#?V0 + 0
        LCALL   ?PUSH_XSTACK_I_TWO
          CFI CFA_XSP16 add(XSP16, 14)
        MOV     R4,#0x1f
        MOV     R5,#0x0
        MOV     R2,#perRssiBuf3 & 0xff
        MOV     R3,#(perRssiBuf3 >> 8) & 0xff
        SJMP    ??SampleApp_AnchorMSGCB_7
          CFI CFA_XSP16 add(XSP16, 10)
// 1062 //                      if(  (nValue[switchindex-1]=calibrationN(DeviceID,switchindex,RssiValue,
// 1063 //                                                               nValue,AnchorX,AnchorY,AnchorZ,AValue))<10)
// 1064 //                     { SampleApp_Router_calibrationNMessage(switchindex,nValue[switchindex-1]);}
// 1065                 }
// 1066               }
// 1067                   break;
// 1068             case '4':
// 1069               {
// 1070                  //moving average filter
// 1071                 switchindex=4;
// 1072                 if(DeviceID!=switchindex)
??SampleApp_AnchorMSGCB_5:
        MOV     DPTR,#DeviceID
        MOVX    A,@DPTR
        XRL     A,#0x4
        JNZ     ??SampleApp_AnchorMSGCB_10
        INC     DPTR
        MOVX    A,@DPTR
??SampleApp_AnchorMSGCB_10:
        JZ      ??SampleApp_AnchorMSGCB_1
// 1073                 {
// 1074                 moving_average(rssivalue, perRssiBuf4, RSSI_AVG_WINDOW_SIZE-1, imof4, &RssiValue[switchindex-1]);
        ; Setup parameters for call to function moving_average
        MOV     ?V0 + 0,#(RssiValue + 12) & 0xff
        MOV     ?V0 + 1,#((RssiValue + 12) >> 8) & 0xff
        MOV     R0,#?V0 + 0
        LCALL   ?PUSH_XSTACK_I_TWO
          CFI CFA_XSP16 add(XSP16, 12)
        MOV     ?V0 + 0,#imof4 & 0xff
        MOV     ?V0 + 1,#(imof4 >> 8) & 0xff
        MOV     R0,#?V0 + 0
        LCALL   ?PUSH_XSTACK_I_TWO
          CFI CFA_XSP16 add(XSP16, 14)
        MOV     R4,#0x1f
        MOV     R5,#0x0
        MOV     R2,#perRssiBuf4 & 0xff
        MOV     R3,#(perRssiBuf4 >> 8) & 0xff
??SampleApp_AnchorMSGCB_7:
        MOV     DPTR,#rssivalue
        MOVX    A,@DPTR
        MOV     R1,A
        LCALL   ??moving_average?relay
        MOV     A,#0x4
        LCALL   ?DEALLOC_XSTACK8
          CFI CFA_XSP16 add(XSP16, 10)
// 1075 //                      if(  (nValue[switchindex-1]=calibrationN(DeviceID,switchindex,RssiValue,
// 1076 //                                                               nValue,AnchorX,AnchorY,AnchorZ,AValue))<10)
// 1077 //                     { SampleApp_Router_calibrationNMessage(switchindex,nValue[switchindex-1]);}
// 1078                 }
// 1079               }
// 1080                   break;    
// 1081             default:
// 1082             
// 1083                    break;
// 1084          }
// 1085         break;
// 1086       }
// 1087 
// 1088            case CALBRATION_N_CLUSTERID:
// 1089       {
// 1090         //HalUARTWrite(0, pkt->cmd.Data, pkt->cmd.DataLength); // display the messages
// 1091 //        byte alphaindex;
// 1092 //        alphaindex=*(pkt->cmd.Data);
// 1093 //        if(alphaindex=='A')    
// 1094 //         {  
// 1095 //              byte index;
// 1096 //              index=*(pkt->cmd.Data+1);
// 1097 //              
// 1098 //              avalue=10.0f*(float)((int)(*(pkt->cmd.Data+3))-48)+(float)((int)(*(pkt->cmd.Data+4))-48)+0.1f*(float)((int)(*(pkt->cmd.Data+6))-48);
// 1099 //              if(avalue>0)   
// 1100 //              {
// 1101 //                  switch (index)
// 1102 //                       case '1':
// 1103 //                          {
// 1104 //                                  AValue[0]=avalue;
// 1105 //                                  break;
// 1106 //                           }
// 1107 //                       case '2':
// 1108 //                          {
// 1109 //                                  AValue[1]=avalue;
// 1110 //                                  break;
// 1111 //                           }
// 1112 //                       case '3':
// 1113 //                          {
// 1114 //                                  AValue[2]=avalue;
// 1115 //                                  break;
// 1116 //                           }
// 1117 //                       case '4':
// 1118 //                          {
// 1119 //                                  AValue[3]=avalue;
// 1120 //                                  break;
// 1121 //                           }
// 1122 //            
// 1123 //                  break;
// 1124 //              }
// 1125 //         } 
// 1126 //               else if(alphaindex=='N')
// 1127 //             {
// 1128 //                      byte index;
// 1129 //                      index=*(pkt->cmd.Data+1);
// 1130 //                      float nvalue;
// 1131 ////                      float tempn=0.0f;
// 1132 //                      
// 1133 //                      if(((int)(*(pkt->cmd.Data+3))-48)>=0&&((int)(*(pkt->cmd.Data+3))-48)<=9)
// 1134 //                      {  
// 1135 //                        
// 1136 //                        nvalue=(float)((int)(*(pkt->cmd.Data+3))-48)+0.1f*(float)((int)(*(pkt->cmd.Data+5))-48)+0.01f*(float)((int)(*(pkt->cmd.Data+6))-48);
// 1137 //                          
// 1138 //                           switch (index)
// 1139 //                           {  
// 1140 //                                case '1':
// 1141 //                                 {
// 1142 //                                     moving_average_f(nvalue, pernBuf1, 7, nindex1, &nValue[0]);
// 1143 //                                   break;
// 1144 //                                 }
// 1145 //                                case '2':
// 1146 //                                 {
// 1147 //                                      moving_average_f(nvalue, pernBuf2, 7, nindex2, &nValue[1]);
// 1148 //                                   break;
// 1149 //                                 }
// 1150 //                                 case '3':
// 1151 //                                 {
// 1152 //                                      moving_average_f(nvalue, pernBuf3, 7, nindex3, &nValue[2]);
// 1153 //                                   break;
// 1154 //                                 }
// 1155 //                                 case '4':
// 1156 //                                 {
// 1157 //                                      moving_average_f(nvalue, pernBuf4, 7, nindex4, &nValue[3]);
// 1158 //                                   break;
// 1159 //                                         }
// 1160 //                                break;
// 1161 //                            }
// 1162 //                          }
// 1163                }
// 1164         break;
// 1165          }
// 1166   }
// 1167 
// 1168 }
??SampleApp_AnchorMSGCB_1:
        LJMP    ?Subroutine0 & 0xFFFF
          CFI EndBlock cfiBlock94
// 1169 /*********************************************************************
// 1170  * @fn      SampleApp_SendPeriodicMessage
// 1171  *
// 1172  * @brief   Send the periodic message.
// 1173  *
// 1174  * @param   none
// 1175  *
// 1176  * @return  none
// 1177  */

        RSEG BANKED_CODE:CODE:NOROOT(0)
// 1178 void SampleApp_Router_SendPeriodicMessage( int index )
SampleApp_Router_SendPeriodicMessage:
          CFI Block cfiBlock95 Using cfiCommon0
          CFI Function SampleApp_Router_SendPeriodicMessage
        CODE
// 1179 {
        FUNCALL SampleApp_Router_SendPeriodicMessage, osal_strlen
        LOCFRAME ISTACK, 0, STACK
        LOCFRAME PSTACK, 0, STACK
        LOCFRAME XSTACK, 17, STACK
        LOCFRAME IOVERLAY, 0, STATIC
        LOCFRAME DOVERLAY, 0, STATIC
        ARGFRAME ISTACK, 0, STACK
        ARGFRAME PSTACK, 0, STACK
        ARGFRAME XSTACK, 17, STACK
        ARGFRAME IOVERLAY, 0, STATIC
        ARGFRAME DOVERLAY, 0, STATIC
        FUNCALL SampleApp_Router_SendPeriodicMessage, AF_DataRequest
        LOCFRAME ISTACK, 0, STACK
        LOCFRAME PSTACK, 0, STACK
        LOCFRAME XSTACK, 21, STACK
        LOCFRAME IOVERLAY, 0, STATIC
        LOCFRAME DOVERLAY, 0, STATIC
        ARGFRAME ISTACK, 0, STACK
        ARGFRAME PSTACK, 0, STACK
        ARGFRAME XSTACK, 21, STACK
        ARGFRAME IOVERLAY, 0, STATIC
        ARGFRAME DOVERLAY, 0, STATIC
        MOV     A,#-0xa
        LCALL   ?BANKED_ENTER_XDATA
          CFI DPH0 load(1, XDATA, add(CFA_XSP16, literal(-1)))
          CFI DPL0 load(1, XDATA, add(CFA_XSP16, literal(-2)))
          CFI ?BRET_EXT load(1, XDATA, add(CFA_XSP16, literal(-3)))
          CFI ?RET_HIGH load(1, XDATA, add(CFA_XSP16, literal(-4)))
          CFI ?RET_LOW load(1, XDATA, add(CFA_XSP16, literal(-5)))
          CFI R7 load(1, XDATA, add(CFA_XSP16, literal(-6)))
          CFI V1 load(1, XDATA, add(CFA_XSP16, literal(-7)))
          CFI V0 load(1, XDATA, add(CFA_XSP16, literal(-8)))
          CFI VB load(1, XDATA, add(CFA_XSP16, literal(-9)))
          CFI R6 load(1, XDATA, add(CFA_XSP16, literal(-10)))
          CFI CFA_SP SP+0
          CFI CFA_XSP16 add(XSP16, 10)
        ; Saved register size: 10
        ; Auto size: 2
        MOV     A,#-0x2
        LCALL   ?ALLOC_XSTACK8
          CFI CFA_XSP16 add(XSP16, 12)
// 1180     
// 1181   // Router broadcast to everyone
// 1182   SampleApp_Router_Periodic_DstAddr.addrMode = (afAddrMode_t)AddrBroadcast;
        MOV     DPTR,#SampleApp_Router_Periodic_DstAddr + 8
        MOV     A,#0xf
        LCALL   ?Subroutine25 & 0xFFFF
// 1183   SampleApp_Router_Periodic_DstAddr.endPoint = SAMPLEAPP_ENDPOINT;
// 1184   SampleApp_Router_Periodic_DstAddr.addr.shortAddr = 0xFFFF;
??CrossCallReturnLabel_36:
        MOV     A,#-0x1
        MOVX    @DPTR,A
        INC     DPTR
        LCALL   ?Subroutine23 & 0xFFFF
// 1185   
// 1186   uint8 data[2]="A";
??CrossCallReturnLabel_33:
        MOV     R4,DPL
        MOV     R5,DPH
        MOV     DPH,#(`?<Constant "A">` >> 8) & 0xff
        MOV     DPL,#`?<Constant "A">` & 0xff
        MOV     A,#0x2
        LCALL   ?MOVE_LONG8_XDATA_XDATA
// 1187   data[1]=0x30+index;
        MOV     A,R2
        ADD     A,#0x30
        PUSH    A
          CFI CFA_SP SP+-1
        MOV     A,#0x1
        LCALL   ?XSTACK_DISP0_8
        POP     A
          CFI CFA_SP SP+0
        LCALL   ??Subroutine35_0 & 0xFFFF
// 1188   if ( AF_DataRequest( &SampleApp_Router_Periodic_DstAddr, &SampleApp_epDesc,
// 1189                        SAMPLEAPP_PERIODIC_CLUSTERID,
// 1190                        osal_strlen("A1"),
// 1191                        data,
// 1192                        &SampleApp_TransID,
// 1193                        AF_SKIP_ROUTING,//AF_DISCV_ROUTE,  
// 1194                        1//AF_DEFAULT_RADIUS 
// 1195                         ) == afStatus_SUCCESS )
??CrossCallReturnLabel_66:
        LCALL   ?PUSH_XSTACK_I_ONE
          CFI CFA_XSP16 add(XSP16, 13)
        MOV     ?V0 + 0,#SampleApp_TransID & 0xff
        MOV     ?V0 + 1,#(SampleApp_TransID >> 8) & 0xff
        MOV     R0,#?V0 + 0
        LCALL   ?PUSH_XSTACK_I_TWO
          CFI CFA_XSP16 add(XSP16, 15)
        MOV     A,#0x3
        LCALL   ?XSTACK_DISP0_8
        MOV     ?V0 + 0,DPL
        MOV     ?V0 + 1,DPH
        MOV     R0,#?V0 + 0
        LCALL   ?PUSH_XSTACK_I_TWO
          CFI CFA_XSP16 add(XSP16, 17)
        ; Setup parameters for call to function osal_strlen
        MOV     R2,#`?<Constant "A1">` & 0xff
        MOV     R3,#(`?<Constant "A1">` >> 8) & 0xff
        LCALL   ??osal_strlen?relay
        MOV     ?V0 + 0,R2
        MOV     ?V0 + 1,R3
        MOV     R0,#?V0 + 0
        LCALL   ?PUSH_XSTACK_I_TWO
          CFI CFA_XSP16 add(XSP16, 19)
        MOV     ?V0 + 0,#0x1
        MOV     ?V0 + 1,#0x0
        MOV     R0,#?V0 + 0
        LCALL   ?PUSH_XSTACK_I_TWO
          CFI CFA_XSP16 add(XSP16, 21)
        MOV     R1,#-0x80
        MOV     R4,#SampleApp_epDesc & 0xff
        MOV     R5,#(SampleApp_epDesc >> 8) & 0xff
        MOV     R2,#SampleApp_Router_Periodic_DstAddr & 0xff
        MOV     R3,#(SampleApp_Router_Periodic_DstAddr >> 8) & 0xff
        LCALL   ??AF_DataRequest?relay
        MOV     A,#0x9
        LCALL   ?DEALLOC_XSTACK8
          CFI CFA_XSP16 add(XSP16, 12)
// 1196   {
// 1197   }
// 1198   else
// 1199   {
// 1200     // Error occurred in request to send.
// 1201   }
// 1202 }
        MOV     A,#0x2
        LCALL   ?DEALLOC_XSTACK8
          CFI CFA_XSP16 add(XSP16, 10)
        LJMP    ?Subroutine0 & 0xFFFF
          CFI EndBlock cfiBlock95
// 1203 
// 1204 /*********************************************************************
// 1205  * @fn      SampleApp_Router_calibrationNMessage
// 1206  *
// 1207  * @brief   Send the periodic message.
// 1208  *
// 1209  * @param   none
// 1210  *
// 1211  * @return  none
// 1212  */

        RSEG BANKED_CODE:CODE:NOROOT(0)
// 1213 void SampleApp_Router_calibrationNMessage( int index , float nvalue )
SampleApp_Router_calibrationNMessage:
          CFI Block cfiBlock96 Using cfiCommon0
          CFI Function SampleApp_Router_calibrationNMessage
        CODE
// 1214 {
        FUNCALL SampleApp_Router_calibrationNMessage, AF_DataRequest
        LOCFRAME ISTACK, 0, STACK
        LOCFRAME PSTACK, 0, STACK
        LOCFRAME XSTACK, 33, STACK
        LOCFRAME IOVERLAY, 0, STATIC
        LOCFRAME DOVERLAY, 0, STATIC
        ARGFRAME ISTACK, 0, STACK
        ARGFRAME PSTACK, 0, STACK
        ARGFRAME XSTACK, 33, STACK
        ARGFRAME IOVERLAY, 0, STATIC
        ARGFRAME DOVERLAY, 0, STATIC
        MOV     A,#-0x10
        LCALL   ?BANKED_ENTER_XDATA
          CFI DPH0 load(1, XDATA, add(CFA_XSP16, literal(-1)))
          CFI DPL0 load(1, XDATA, add(CFA_XSP16, literal(-2)))
          CFI ?BRET_EXT load(1, XDATA, add(CFA_XSP16, literal(-3)))
          CFI ?RET_HIGH load(1, XDATA, add(CFA_XSP16, literal(-4)))
          CFI ?RET_LOW load(1, XDATA, add(CFA_XSP16, literal(-5)))
          CFI R7 load(1, XDATA, add(CFA_XSP16, literal(-6)))
          CFI V7 load(1, XDATA, add(CFA_XSP16, literal(-7)))
          CFI V6 load(1, XDATA, add(CFA_XSP16, literal(-8)))
          CFI V5 load(1, XDATA, add(CFA_XSP16, literal(-9)))
          CFI V4 load(1, XDATA, add(CFA_XSP16, literal(-10)))
          CFI V3 load(1, XDATA, add(CFA_XSP16, literal(-11)))
          CFI V2 load(1, XDATA, add(CFA_XSP16, literal(-12)))
          CFI V1 load(1, XDATA, add(CFA_XSP16, literal(-13)))
          CFI V0 load(1, XDATA, add(CFA_XSP16, literal(-14)))
          CFI VB load(1, XDATA, add(CFA_XSP16, literal(-15)))
          CFI R6 load(1, XDATA, add(CFA_XSP16, literal(-16)))
          CFI CFA_SP SP+0
          CFI CFA_XSP16 add(XSP16, 16)
        ; Saved register size: 16
        ; Auto size: 8
        MOV     A,#-0x8
        LCALL   ?ALLOC_XSTACK8
          CFI CFA_XSP16 add(XSP16, 24)
// 1215     
// 1216   // Router broadcast to everyone
// 1217 //  SampleApp_Router_Periodic_DstAddr.addrMode = (afAddrMode_t)AddrBroadcast;
// 1218 //  SampleApp_Router_Periodic_DstAddr.endPoint = SAMPLEAPP_ENDPOINT;
// 1219 //  SampleApp_Router_Periodic_DstAddr.addr.shortAddr = 0xFFFF;
// 1220   SampleApp_Router_Periodic_DstAddr.addrMode = (afAddrMode_t)AddrGroup;  //AddrGroup
        LCALL   ?Subroutine10 & 0xFFFF
// 1221   SampleApp_Router_Periodic_DstAddr.endPoint = SAMPLEAPP_ENDPOINT;
// 1222   SampleApp_Router_Periodic_DstAddr.addr.shortAddr =  SAMPLEAPP_CalN_GROUP;    //SAMPLEAPP_QUADROTOR_GROUP
??CrossCallReturnLabel_13:
        MOV     A,#0x18
        LCALL   ?XSTACK_DISP0_8
        MOV     R0,#?V0 + 4
        LCALL   ?L_MOV_X
// 1223  
// 1224 
// 1225  
// 1226   float tempn=nvalue;  
// 1227   if(nvalue>0)
        MOV     DPTR,#__Constant_1
        MOV     R0,#?V0 + 0
        LCALL   ?L_MOV_X
        MOV     R0,#?V0 + 4
        MOV     R1,#?V0 + 0
        LCALL   ?FLT_GE
        JC      $+5
        LJMP    ??SampleApp_Router_calibrationNMessage_0 & 0xFFFF
// 1228   {
// 1229           uint8 data[8]="N";
        MOV     DPL,?XSP + 0
        MOV     DPH,?XSP + 1
        MOV     R4,DPL
        MOV     R5,DPH
        MOV     DPH,#(`?<Constant "N">` >> 8) & 0xff
        MOV     DPL,#`?<Constant "N">` & 0xff
        MOV     A,#0x8
        LCALL   ?MOVE_LONG8_XDATA_XDATA
// 1230           data[1]=0x30+index;
        MOV     A,R2
        ADD     A,#0x30
        PUSH    A
          CFI CFA_SP SP+-1
        MOV     A,#0x1
        LCALL   ?XSTACK_DISP0_8
        POP     A
          CFI CFA_SP SP+0
        MOVX    @DPTR,A
// 1231 
// 1232           data[2]=':';
        MOV     A,#0x2
        LCALL   ?XSTACK_DISP0_8
        MOV     A,#0x3a
        LCALL   ?Subroutine4 & 0xFFFF
// 1233           
// 1234           uint8 number8;
// 1235           number8=(uint8)tempn;
??CrossCallReturnLabel_0:
        LCALL   ?FLT_TO_L
// 1236           data[3]=number8+'0';
        MOV     A,#0x30
        ADD     A,?V0 + 0
        PUSH    A
          CFI CFA_SP SP+-1
        MOV     A,#0x3
        LCALL   ?XSTACK_DISP0_8
        POP     A
          CFI CFA_SP SP+0
        MOVX    @DPTR,A
// 1237           data[4]='.';
        MOV     A,#0x4
        LCALL   ?XSTACK_DISP0_8
        LCALL   ?Subroutine6 & 0xFFFF
// 1238           tempn=10*(tempn-(float)number8);
??CrossCallReturnLabel_75:
        LCALL   ?UL_TO_FLT
        MOV     R0,#?V0 + 4
        MOV     R1,#?V0 + 0
        LCALL   ?FLT_SUB
        MOV     DPTR,#__Constant_41200000
        MOV     R0,#?V0 + 0
        LCALL   ?L_MOV_X
        MOV     R0,#?V0 + 4
        MOV     R1,#?V0 + 0
        LCALL   ?FLT_MUL
// 1239           number8=(uint8)tempn;
        MOV     ?V0 + 0,?V0 + 4
        MOV     ?V0 + 1,?V0 + 5
        MOV     ?V0 + 2,?V0 + 6
        MOV     ?V0 + 3,?V0 + 7
        MOV     R0,#?V0 + 0
        LCALL   ?FLT_TO_L
// 1240           data[5]=number8+'0';
        MOV     A,#0x30
        ADD     A,?V0 + 0
        PUSH    A
          CFI CFA_SP SP+-1
        MOV     A,#0x5
        LCALL   ?XSTACK_DISP0_8
        POP     A
          CFI CFA_SP SP+0
        LCALL   ??Subroutine39_0 & 0xFFFF
// 1241           tempn=10*(tempn-(float)number8);
// 1242           number8=(uint8)tempn;
// 1243           data[6]=number8+'0';
??CrossCallReturnLabel_77:
        LCALL   ?UL_TO_FLT
        MOV     R0,#?V0 + 4
        MOV     R1,#?V0 + 0
        LCALL   ?FLT_SUB
        MOV     DPTR,#__Constant_41200000
        MOV     R0,#?V0 + 0
        LCALL   ?L_MOV_X
        MOV     R0,#?V0 + 4
        MOV     R1,#?V0 + 0
        LCALL   ?FLT_MUL
        MOV     R0,#?V0 + 4
        LCALL   ?FLT_TO_L
        MOV     A,?V0 + 4
        ADD     A,#0x30
        PUSH    A
          CFI CFA_SP SP+-1
        MOV     A,#0x6
        LCALL   ?XSTACK_DISP0_8
        POP     A
          CFI CFA_SP SP+0
        MOVX    @DPTR,A
// 1244           data[7]='\n';
        MOV     A,#0x7
        LCALL   ?XSTACK_DISP0_8
        LCALL   ?Subroutine9 & 0xFFFF
// 1245                       
// 1246           
// 1247           if ( AF_DataRequest( &SampleApp_Router_Periodic_DstAddr, &SampleApp_epDesc,
// 1248                                CALBRATION_N_CLUSTERID,
// 1249                                8,//osal_strlen("A1")+1,
// 1250                                data,
// 1251                                &SampleApp_TransID,
// 1252                                AF_DISCV_ROUTE,//AF_DISCV_ROUTE,  
// 1253                                1//AF_DEFAULT_RADIUS 
// 1254                                 ) == afStatus_SUCCESS )
// 1255           {
// 1256           }
// 1257           else
// 1258           {
// 1259             // Error occurred in request to send.
// 1260           }
// 1261   }
??CrossCallReturnLabel_64:
        LCALL   ?PUSH_XSTACK_I_ONE
          CFI CFA_XSP16 add(XSP16, 25)
        MOV     ?V0 + 0,#SampleApp_TransID & 0xff
        MOV     ?V0 + 1,#(SampleApp_TransID >> 8) & 0xff
        MOV     R0,#?V0 + 0
        LCALL   ?PUSH_XSTACK_I_TWO
          CFI CFA_XSP16 add(XSP16, 27)
        MOV     A,#0x3
        LCALL   ?XSTACK_DISP0_8
        MOV     ?V0 + 0,DPL
        MOV     ?V0 + 1,DPH
        MOV     R0,#?V0 + 0
        LCALL   ?PUSH_XSTACK_I_TWO
          CFI CFA_XSP16 add(XSP16, 29)
        MOV     ?V0 + 0,#0x8
        MOV     ?V0 + 1,#0x0
        MOV     R0,#?V0 + 0
        LCALL   ?PUSH_XSTACK_I_TWO
          CFI CFA_XSP16 add(XSP16, 31)
        MOV     ?V0 + 0,#0x2
        MOV     R0,#?V0 + 0
        LCALL   ?PUSH_XSTACK_I_TWO
          CFI CFA_XSP16 add(XSP16, 33)
        MOV     R1,#0x20
        MOV     R4,#SampleApp_epDesc & 0xff
        MOV     R5,#(SampleApp_epDesc >> 8) & 0xff
        MOV     R2,#SampleApp_Router_Periodic_DstAddr & 0xff
        MOV     R3,#(SampleApp_Router_Periodic_DstAddr >> 8) & 0xff
        LCALL   ??AF_DataRequest?relay
        MOV     A,#0x9
        LCALL   ?DEALLOC_XSTACK8
          CFI CFA_XSP16 add(XSP16, 24)
// 1262 }
??SampleApp_Router_calibrationNMessage_0:
        MOV     A,#0x8
        LCALL   ?DEALLOC_XSTACK8
          CFI CFA_XSP16 add(XSP16, 16)
        LJMP    ?Subroutine2 & 0xFFFF
          CFI EndBlock cfiBlock96
// 1263 
// 1264 /*********************************************************************
// 1265  * @fn      SampleApp_Router_calibrationAMessage
// 1266  *
// 1267  * @brief   Send the periodic message.
// 1268  *
// 1269  * @param   none
// 1270  *
// 1271  * @return  none
// 1272  */

        RSEG BANKED_CODE:CODE:NOROOT(0)
// 1273 void SampleApp_Router_calibrationAMessage( int index , float avalue )
SampleApp_Router_calibrationAMessage:
          CFI Block cfiBlock97 Using cfiCommon0
          CFI Function SampleApp_Router_calibrationAMessage
        CODE
// 1274 {
        FUNCALL SampleApp_Router_calibrationAMessage, AF_DataRequest
        LOCFRAME ISTACK, 0, STACK
        LOCFRAME PSTACK, 0, STACK
        LOCFRAME XSTACK, 36, STACK
        LOCFRAME IOVERLAY, 0, STATIC
        LOCFRAME DOVERLAY, 0, STATIC
        ARGFRAME ISTACK, 0, STACK
        ARGFRAME PSTACK, 0, STACK
        ARGFRAME XSTACK, 36, STACK
        ARGFRAME IOVERLAY, 0, STATIC
        ARGFRAME DOVERLAY, 0, STATIC
        MOV     A,#-0x14
        LCALL   ?BANKED_ENTER_XDATA
          CFI DPH0 load(1, XDATA, add(CFA_XSP16, literal(-1)))
          CFI DPL0 load(1, XDATA, add(CFA_XSP16, literal(-2)))
          CFI ?BRET_EXT load(1, XDATA, add(CFA_XSP16, literal(-3)))
          CFI ?RET_HIGH load(1, XDATA, add(CFA_XSP16, literal(-4)))
          CFI ?RET_LOW load(1, XDATA, add(CFA_XSP16, literal(-5)))
          CFI R7 load(1, XDATA, add(CFA_XSP16, literal(-6)))
          CFI V11 load(1, XDATA, add(CFA_XSP16, literal(-7)))
          CFI V10 load(1, XDATA, add(CFA_XSP16, literal(-8)))
          CFI V9 load(1, XDATA, add(CFA_XSP16, literal(-9)))
          CFI V8 load(1, XDATA, add(CFA_XSP16, literal(-10)))
          CFI V7 load(1, XDATA, add(CFA_XSP16, literal(-11)))
          CFI V6 load(1, XDATA, add(CFA_XSP16, literal(-12)))
          CFI V5 load(1, XDATA, add(CFA_XSP16, literal(-13)))
          CFI V4 load(1, XDATA, add(CFA_XSP16, literal(-14)))
          CFI V3 load(1, XDATA, add(CFA_XSP16, literal(-15)))
          CFI V2 load(1, XDATA, add(CFA_XSP16, literal(-16)))
          CFI V1 load(1, XDATA, add(CFA_XSP16, literal(-17)))
          CFI V0 load(1, XDATA, add(CFA_XSP16, literal(-18)))
          CFI VB load(1, XDATA, add(CFA_XSP16, literal(-19)))
          CFI R6 load(1, XDATA, add(CFA_XSP16, literal(-20)))
          CFI CFA_SP SP+0
          CFI CFA_XSP16 add(XSP16, 20)
        ; Saved register size: 20
        ; Auto size: 7
        MOV     A,#-0x7
        LCALL   ?ALLOC_XSTACK8
          CFI CFA_XSP16 add(XSP16, 27)
// 1275     
// 1276   // Router broadcast to everyone
// 1277 //  SampleApp_Router_Periodic_DstAddr.addrMode = (afAddrMode_t)AddrBroadcast;
// 1278 //  SampleApp_Router_Periodic_DstAddr.endPoint = SAMPLEAPP_ENDPOINT;
// 1279 //  SampleApp_Router_Periodic_DstAddr.addr.shortAddr = 0xFFFF;
// 1280   SampleApp_Router_Periodic_DstAddr.addrMode = (afAddrMode_t)AddrGroup;  //AddrGroup
        LCALL   ?Subroutine10 & 0xFFFF
// 1281   SampleApp_Router_Periodic_DstAddr.endPoint = SAMPLEAPP_ENDPOINT;
// 1282   SampleApp_Router_Periodic_DstAddr.addr.shortAddr =  SAMPLEAPP_CalN_GROUP;    //SAMPLEAPP_QUADROTOR_GROUP
??CrossCallReturnLabel_14:
        MOV     A,#0x1b
        LCALL   ?XSTACK_DISP0_8
        MOV     R0,#?V0 + 4
        LCALL   ?L_MOV_X
// 1283  
// 1284 
// 1285  
// 1286   float tempn=avalue;  
// 1287   if(avalue>0)
        MOV     DPTR,#__Constant_1
        MOV     R0,#?V0 + 0
        LCALL   ?L_MOV_X
        MOV     R0,#?V0 + 4
        MOV     R1,#?V0 + 0
        LCALL   ?FLT_GE
        JC      $+5
        LJMP    ??SampleApp_Router_calibrationAMessage_0 & 0xFFFF
// 1288   {
// 1289           uint8 data[7]="A";
        MOV     DPL,?XSP + 0
        MOV     DPH,?XSP + 1
        MOV     R4,DPL
        MOV     R5,DPH
        MOV     DPH,#(`?<Constant "A">_1` >> 8) & 0xff
        MOV     DPL,#`?<Constant "A">_1` & 0xff
        MOV     A,#0x7
        LCALL   ?MOVE_LONG8_XDATA_XDATA
// 1290          data[1]=0x30+index;
        MOV     A,R2
        ADD     A,#0x30
        PUSH    A
          CFI CFA_SP SP+-1
        MOV     A,#0x1
        LCALL   ?XSTACK_DISP0_8
        POP     A
          CFI CFA_SP SP+0
        MOVX    @DPTR,A
// 1291 
// 1292           data[2]=':';
        MOV     A,#0x2
        LCALL   ?XSTACK_DISP0_8
        LCALL   ?Subroutine8 & 0xFFFF
// 1293           
// 1294           uint8 number8;
// 1295           number8=(uint8)(tempn/10);
// 1296           data[3]=number8+'0';
??CrossCallReturnLabel_11:
        LCALL   ?L_MOV_X
        MOV     R0,#?V0 + 0
        MOV     R1,#?V0 + 8
        LCALL   ?FLT_DIV
        MOV     R0,#?V0 + 0
        LCALL   ?FLT_TO_L
        MOV     A,?V0 + 0
        ADD     A,#0x30
        PUSH    A
          CFI CFA_SP SP+-1
        MOV     A,#0x3
        LCALL   ?XSTACK_DISP0_8
        POP     A
          CFI CFA_SP SP+0
        LCALL   ?Subroutine4 & 0xFFFF
// 1297           number8=(uint8)(((int)tempn)%10);
// 1298           data[4]=number8+'0';
??CrossCallReturnLabel_1:
        LCALL   ?FLT_TO_L
        MOV     R5,?V0 + 1
        MOV     R0,?V0 + 0
        MOV     A,R5
        MOV     R1,A
        MOV     R2,#0xa
        MOV     R3,#0x0
        LCALL   ?S_DIV_MOD
        MOV     A,R2
        ADD     A,#0x30
        PUSH    A
          CFI CFA_SP SP+-1
        MOV     A,#0x4
        LCALL   ?XSTACK_DISP0_8
        POP     A
          CFI CFA_SP SP+0
        MOVX    @DPTR,A
// 1299           data[5]='.';
        MOV     A,#0x5
        LCALL   ?XSTACK_DISP0_8
        LCALL   ?Subroutine7 & 0xFFFF
// 1300           tempn=10*(tempn-(int)tempn);
// 1301           number8=(uint8)tempn;
// 1302           data[6]=number8+'0';
// 1303                       
// 1304           
// 1305           if ( AF_DataRequest( &SampleApp_Router_Periodic_DstAddr, &SampleApp_epDesc,
// 1306                                CALBRATION_N_CLUSTERID,
// 1307                                7,//osal_strlen("A1")+1,
// 1308                                data,
// 1309                                &SampleApp_TransID,
// 1310                                AF_DISCV_ROUTE,//AF_DISCV_ROUTE,  
// 1311                                1//AF_DEFAULT_RADIUS 
// 1312                                 ) == afStatus_SUCCESS )
// 1313           {
// 1314           }
// 1315           else
// 1316           {
// 1317             // Error occurred in request to send.
// 1318           }
// 1319   }
??CrossCallReturnLabel_8:
        LCALL   ?L_TO_FLT
        MOV     R0,#?V0 + 4
        MOV     R1,#?V0 + 0
        LCALL   ?FLT_SUB
        MOV     DPTR,#__Constant_41200000
        MOV     R0,#?V0 + 0
        LCALL   ?L_MOV_X
        MOV     R0,#?V0 + 4
        MOV     R1,#?V0 + 0
        LCALL   ?FLT_MUL
        MOV     R0,#?V0 + 4
        LCALL   ?FLT_TO_L
        MOV     A,?V0 + 4
        ADD     A,#0x30
        PUSH    A
          CFI CFA_SP SP+-1
        MOV     A,#0x6
        LCALL   ?XSTACK_DISP0_8
        POP     A
          CFI CFA_SP SP+0
        LCALL   ??Subroutine35_0 & 0xFFFF
??CrossCallReturnLabel_67:
        LCALL   ?PUSH_XSTACK_I_ONE
          CFI CFA_XSP16 add(XSP16, 28)
        MOV     ?V0 + 0,#SampleApp_TransID & 0xff
        MOV     ?V0 + 1,#(SampleApp_TransID >> 8) & 0xff
        MOV     R0,#?V0 + 0
        LCALL   ?PUSH_XSTACK_I_TWO
          CFI CFA_XSP16 add(XSP16, 30)
        MOV     A,#0x3
        LCALL   ?XSTACK_DISP0_8
        MOV     ?V0 + 0,DPL
        MOV     ?V0 + 1,DPH
        MOV     R0,#?V0 + 0
        LCALL   ?PUSH_XSTACK_I_TWO
          CFI CFA_XSP16 add(XSP16, 32)
        MOV     ?V0 + 0,#0x7
        MOV     ?V0 + 1,#0x0
        MOV     R0,#?V0 + 0
        LCALL   ?PUSH_XSTACK_I_TWO
          CFI CFA_XSP16 add(XSP16, 34)
        MOV     ?V0 + 0,#0x2
        MOV     R0,#?V0 + 0
        LCALL   ?PUSH_XSTACK_I_TWO
          CFI CFA_XSP16 add(XSP16, 36)
        MOV     R1,#0x20
        MOV     R4,#SampleApp_epDesc & 0xff
        MOV     R5,#(SampleApp_epDesc >> 8) & 0xff
        MOV     R2,#SampleApp_Router_Periodic_DstAddr & 0xff
        MOV     R3,#(SampleApp_Router_Periodic_DstAddr >> 8) & 0xff
        LCALL   ??AF_DataRequest?relay
        MOV     A,#0x9
        LCALL   ?DEALLOC_XSTACK8
          CFI CFA_XSP16 add(XSP16, 27)
          CFI EndBlock cfiBlock97
// 1320 }
??SampleApp_Router_calibrationAMessage_0:
        REQUIRE ?Subroutine3
        ; // Fall through to label ?Subroutine3

        RSEG BANKED_CODE:CODE:NOROOT(0)
?Subroutine3:
          CFI Block cfiBlock98 Using cfiCommon0
          CFI NoFunction
          CFI CFA_SP SP+0
          CFI CFA_XSP16 add(XSP16, 27)
          CFI VB load(1, XDATA, add(CFA_XSP16, literal(-19)))
          CFI DPL0 load(1, XDATA, add(CFA_XSP16, literal(-2)))
          CFI DPH0 load(1, XDATA, add(CFA_XSP16, literal(-1)))
          CFI R6 load(1, XDATA, add(CFA_XSP16, literal(-20)))
          CFI R7 load(1, XDATA, add(CFA_XSP16, literal(-6)))
          CFI V0 load(1, XDATA, add(CFA_XSP16, literal(-18)))
          CFI V1 load(1, XDATA, add(CFA_XSP16, literal(-17)))
          CFI V2 load(1, XDATA, add(CFA_XSP16, literal(-16)))
          CFI V3 load(1, XDATA, add(CFA_XSP16, literal(-15)))
          CFI V4 load(1, XDATA, add(CFA_XSP16, literal(-14)))
          CFI V5 load(1, XDATA, add(CFA_XSP16, literal(-13)))
          CFI V6 load(1, XDATA, add(CFA_XSP16, literal(-12)))
          CFI V7 load(1, XDATA, add(CFA_XSP16, literal(-11)))
          CFI V8 load(1, XDATA, add(CFA_XSP16, literal(-10)))
          CFI V9 load(1, XDATA, add(CFA_XSP16, literal(-9)))
          CFI V10 load(1, XDATA, add(CFA_XSP16, literal(-8)))
          CFI V11 load(1, XDATA, add(CFA_XSP16, literal(-7)))
          CFI ?BRET_EXT load(1, XDATA, add(CFA_XSP16, literal(-3)))
          CFI ?RET_HIGH load(1, XDATA, add(CFA_XSP16, literal(-4)))
          CFI ?RET_LOW load(1, XDATA, add(CFA_XSP16, literal(-5)))
        MOV     A,#0x7
        LJMP    ??Subroutine36_0 & 0xFFFF
          CFI EndBlock cfiBlock98

        RSEG BANKED_CODE:CODE:NOROOT(0)
?Subroutine10:
          CFI Block cfiCond99 Using cfiCommon0
          CFI Function SampleApp_Router_calibrationNMessage
          CFI Conditional ??CrossCallReturnLabel_13
          CFI R6 load(1, XDATA, add(CFA_XSP16, literal(-16)))
          CFI VB load(1, XDATA, add(CFA_XSP16, literal(-15)))
          CFI V0 load(1, XDATA, add(CFA_XSP16, literal(-14)))
          CFI V1 load(1, XDATA, add(CFA_XSP16, literal(-13)))
          CFI V2 load(1, XDATA, add(CFA_XSP16, literal(-12)))
          CFI V3 load(1, XDATA, add(CFA_XSP16, literal(-11)))
          CFI V4 load(1, XDATA, add(CFA_XSP16, literal(-10)))
          CFI V5 load(1, XDATA, add(CFA_XSP16, literal(-9)))
          CFI V6 load(1, XDATA, add(CFA_XSP16, literal(-8)))
          CFI V7 load(1, XDATA, add(CFA_XSP16, literal(-7)))
          CFI R7 load(1, XDATA, add(CFA_XSP16, literal(-6)))
          CFI ?RET_LOW load(1, XDATA, add(CFA_XSP16, literal(-5)))
          CFI ?RET_HIGH load(1, XDATA, add(CFA_XSP16, literal(-4)))
          CFI ?BRET_EXT load(1, XDATA, add(CFA_XSP16, literal(-3)))
          CFI DPL0 load(1, XDATA, add(CFA_XSP16, literal(-2)))
          CFI DPH0 load(1, XDATA, add(CFA_XSP16, literal(-1)))
          CFI CFA_SP SP+0
          CFI CFA_XSP16 add(XSP16, 24)
          CFI Block cfiCond100 Using cfiCommon0
          CFI (cfiCond100) Function SampleApp_Router_calibrationAMessage
          CFI (cfiCond100) Conditional ??CrossCallReturnLabel_14
          CFI (cfiCond100) R6 load(1, XDATA, add(CFA_XSP16, literal(-20)))
          CFI (cfiCond100) VB load(1, XDATA, add(CFA_XSP16, literal(-19)))
          CFI (cfiCond100) V0 load(1, XDATA, add(CFA_XSP16, literal(-18)))
          CFI (cfiCond100) V1 load(1, XDATA, add(CFA_XSP16, literal(-17)))
          CFI (cfiCond100) V2 load(1, XDATA, add(CFA_XSP16, literal(-16)))
          CFI (cfiCond100) V3 load(1, XDATA, add(CFA_XSP16, literal(-15)))
          CFI (cfiCond100) V4 load(1, XDATA, add(CFA_XSP16, literal(-14)))
          CFI (cfiCond100) V5 load(1, XDATA, add(CFA_XSP16, literal(-13)))
          CFI (cfiCond100) V6 load(1, XDATA, add(CFA_XSP16, literal(-12)))
          CFI (cfiCond100) V7 load(1, XDATA, add(CFA_XSP16, literal(-11)))
          CFI (cfiCond100) V8 load(1, XDATA, add(CFA_XSP16, literal(-10)))
          CFI (cfiCond100) V9 load(1, XDATA, add(CFA_XSP16, literal(-9)))
          CFI (cfiCond100) V10 load(1, XDATA, add(CFA_XSP16, literal(-8)))
          CFI (cfiCond100) V11 load(1, XDATA, add(CFA_XSP16, literal(-7)))
          CFI (cfiCond100) R7 load(1, XDATA, add(CFA_XSP16, literal(-6)))
          CFI (cfiCond100) ?RET_LOW load(1, XDATA, add(CFA_XSP16, literal(-5)))
          CFI (cfiCond100) ?RET_HIGH load(1, XDATA, add(CFA_XSP16, literal(-4)))
          CFI (cfiCond100) ?BRET_EXT load(1, XDATA, add(CFA_XSP16, literal(-3)))
          CFI (cfiCond100) DPL0 load(1, XDATA, add(CFA_XSP16, literal(-2)))
          CFI (cfiCond100) DPH0 load(1, XDATA, add(CFA_XSP16, literal(-1)))
          CFI (cfiCond100) CFA_SP SP+0
          CFI (cfiCond100) CFA_XSP16 add(XSP16, 27)
          CFI Block cfiPicker101 Using cfiCommon1
          CFI (cfiPicker101) NoFunction
          CFI (cfiPicker101) Picker
        MOV     DPTR,#SampleApp_Router_Periodic_DstAddr + 8
        MOV     A,#0x1
        LCALL   ?Subroutine25 & 0xFFFF
??CrossCallReturnLabel_37:
        LCALL   ?Subroutine24 & 0xFFFF
??CrossCallReturnLabel_74:
        RET
          CFI EndBlock cfiCond99
          CFI EndBlock cfiCond100
          CFI EndBlock cfiPicker101

        RSEG BANKED_CODE:CODE:NOROOT(0)
?Subroutine25:
          CFI Block cfiCond102 Using cfiCommon0
          CFI Function SampleApp_Router_SendPeriodicMessage
          CFI Conditional ??CrossCallReturnLabel_36
          CFI R6 load(1, XDATA, add(CFA_XSP16, literal(-10)))
          CFI VB load(1, XDATA, add(CFA_XSP16, literal(-9)))
          CFI V0 load(1, XDATA, add(CFA_XSP16, literal(-8)))
          CFI V1 load(1, XDATA, add(CFA_XSP16, literal(-7)))
          CFI R7 load(1, XDATA, add(CFA_XSP16, literal(-6)))
          CFI ?RET_LOW load(1, XDATA, add(CFA_XSP16, literal(-5)))
          CFI ?RET_HIGH load(1, XDATA, add(CFA_XSP16, literal(-4)))
          CFI ?BRET_EXT load(1, XDATA, add(CFA_XSP16, literal(-3)))
          CFI DPL0 load(1, XDATA, add(CFA_XSP16, literal(-2)))
          CFI DPH0 load(1, XDATA, add(CFA_XSP16, literal(-1)))
          CFI CFA_SP SP+0
          CFI CFA_XSP16 add(XSP16, 12)
          CFI Block cfiCond103 Using cfiCommon0
          CFI (cfiCond103) Function SampleApp_Router_calibrationNMessage
          CFI (cfiCond103) Conditional ??CrossCallReturnLabel_37, ??CrossCallReturnLabel_13
          CFI (cfiCond103) R6 load(1, XDATA, add(CFA_XSP16, literal(-16)))
          CFI (cfiCond103) VB load(1, XDATA, add(CFA_XSP16, literal(-15)))
          CFI (cfiCond103) V0 load(1, XDATA, add(CFA_XSP16, literal(-14)))
          CFI (cfiCond103) V1 load(1, XDATA, add(CFA_XSP16, literal(-13)))
          CFI (cfiCond103) V2 load(1, XDATA, add(CFA_XSP16, literal(-12)))
          CFI (cfiCond103) V3 load(1, XDATA, add(CFA_XSP16, literal(-11)))
          CFI (cfiCond103) V4 load(1, XDATA, add(CFA_XSP16, literal(-10)))
          CFI (cfiCond103) V5 load(1, XDATA, add(CFA_XSP16, literal(-9)))
          CFI (cfiCond103) V6 load(1, XDATA, add(CFA_XSP16, literal(-8)))
          CFI (cfiCond103) V7 load(1, XDATA, add(CFA_XSP16, literal(-7)))
          CFI (cfiCond103) R7 load(1, XDATA, add(CFA_XSP16, literal(-6)))
          CFI (cfiCond103) ?RET_LOW load(1, XDATA, add(CFA_XSP16, literal(-5)))
          CFI (cfiCond103) ?RET_HIGH load(1, XDATA, add(CFA_XSP16, literal(-4)))
          CFI (cfiCond103) ?BRET_EXT load(1, XDATA, add(CFA_XSP16, literal(-3)))
          CFI (cfiCond103) DPL0 load(1, XDATA, add(CFA_XSP16, literal(-2)))
          CFI (cfiCond103) DPH0 load(1, XDATA, add(CFA_XSP16, literal(-1)))
          CFI (cfiCond103) CFA_SP SP+0
          CFI (cfiCond103) CFA_XSP16 add(XSP16, 24)
          CFI Block cfiCond104 Using cfiCommon0
          CFI (cfiCond104) Function SampleApp_Router_calibrationAMessage
          CFI (cfiCond104) Conditional ??CrossCallReturnLabel_37, ??CrossCallReturnLabel_14
          CFI (cfiCond104) R6 load(1, XDATA, add(CFA_XSP16, literal(-20)))
          CFI (cfiCond104) VB load(1, XDATA, add(CFA_XSP16, literal(-19)))
          CFI (cfiCond104) V0 load(1, XDATA, add(CFA_XSP16, literal(-18)))
          CFI (cfiCond104) V1 load(1, XDATA, add(CFA_XSP16, literal(-17)))
          CFI (cfiCond104) V2 load(1, XDATA, add(CFA_XSP16, literal(-16)))
          CFI (cfiCond104) V3 load(1, XDATA, add(CFA_XSP16, literal(-15)))
          CFI (cfiCond104) V4 load(1, XDATA, add(CFA_XSP16, literal(-14)))
          CFI (cfiCond104) V5 load(1, XDATA, add(CFA_XSP16, literal(-13)))
          CFI (cfiCond104) V6 load(1, XDATA, add(CFA_XSP16, literal(-12)))
          CFI (cfiCond104) V7 load(1, XDATA, add(CFA_XSP16, literal(-11)))
          CFI (cfiCond104) V8 load(1, XDATA, add(CFA_XSP16, literal(-10)))
          CFI (cfiCond104) V9 load(1, XDATA, add(CFA_XSP16, literal(-9)))
          CFI (cfiCond104) V10 load(1, XDATA, add(CFA_XSP16, literal(-8)))
          CFI (cfiCond104) V11 load(1, XDATA, add(CFA_XSP16, literal(-7)))
          CFI (cfiCond104) R7 load(1, XDATA, add(CFA_XSP16, literal(-6)))
          CFI (cfiCond104) ?RET_LOW load(1, XDATA, add(CFA_XSP16, literal(-5)))
          CFI (cfiCond104) ?RET_HIGH load(1, XDATA, add(CFA_XSP16, literal(-4)))
          CFI (cfiCond104) ?BRET_EXT load(1, XDATA, add(CFA_XSP16, literal(-3)))
          CFI (cfiCond104) DPL0 load(1, XDATA, add(CFA_XSP16, literal(-2)))
          CFI (cfiCond104) DPH0 load(1, XDATA, add(CFA_XSP16, literal(-1)))
          CFI (cfiCond104) CFA_SP SP+0
          CFI (cfiCond104) CFA_XSP16 add(XSP16, 27)
          CFI Block cfiPicker105 Using cfiCommon1
          CFI (cfiPicker105) NoFunction
          CFI (cfiPicker105) Picker
        MOVX    @DPTR,A
        INC     DPTR
        MOV     A,#0x14
        MOVX    @DPTR,A
        MOV     DPTR,#SampleApp_Router_Periodic_DstAddr
        RET
          CFI EndBlock cfiCond102
          CFI EndBlock cfiCond103
          CFI EndBlock cfiCond104
          CFI EndBlock cfiPicker105
// 1321 
// 1322 
// 1323 /*********************************************************************
// 1324  * @fn      SampleApp_Tester_calibrationAMessage
// 1325  *
// 1326  * @brief   single tester to verify the parameter A -- out of stage
// 1327  *
// 1328  * @param   none
// 1329  *
// 1330  * @return  none
// 1331  */

        RSEG BANKED_CODE:CODE:NOROOT(0)
// 1332 void SampleApp_Tester_calibrationAMessage( int index , float A )
SampleApp_Tester_calibrationAMessage:
          CFI Block cfiBlock106 Using cfiCommon0
          CFI Function SampleApp_Tester_calibrationAMessage
        CODE
// 1333 {
        FUNCALL SampleApp_Tester_calibrationAMessage, AF_DataRequest
        LOCFRAME ISTACK, 0, STACK
        LOCFRAME PSTACK, 0, STACK
        LOCFRAME XSTACK, 36, STACK
        LOCFRAME IOVERLAY, 0, STATIC
        LOCFRAME DOVERLAY, 0, STATIC
        ARGFRAME ISTACK, 0, STACK
        ARGFRAME PSTACK, 0, STACK
        ARGFRAME XSTACK, 36, STACK
        ARGFRAME IOVERLAY, 0, STATIC
        ARGFRAME DOVERLAY, 0, STATIC
        MOV     A,#-0x14
        LCALL   ?BANKED_ENTER_XDATA
          CFI DPH0 load(1, XDATA, add(CFA_XSP16, literal(-1)))
          CFI DPL0 load(1, XDATA, add(CFA_XSP16, literal(-2)))
          CFI ?BRET_EXT load(1, XDATA, add(CFA_XSP16, literal(-3)))
          CFI ?RET_HIGH load(1, XDATA, add(CFA_XSP16, literal(-4)))
          CFI ?RET_LOW load(1, XDATA, add(CFA_XSP16, literal(-5)))
          CFI R7 load(1, XDATA, add(CFA_XSP16, literal(-6)))
          CFI V11 load(1, XDATA, add(CFA_XSP16, literal(-7)))
          CFI V10 load(1, XDATA, add(CFA_XSP16, literal(-8)))
          CFI V9 load(1, XDATA, add(CFA_XSP16, literal(-9)))
          CFI V8 load(1, XDATA, add(CFA_XSP16, literal(-10)))
          CFI V7 load(1, XDATA, add(CFA_XSP16, literal(-11)))
          CFI V6 load(1, XDATA, add(CFA_XSP16, literal(-12)))
          CFI V5 load(1, XDATA, add(CFA_XSP16, literal(-13)))
          CFI V4 load(1, XDATA, add(CFA_XSP16, literal(-14)))
          CFI V3 load(1, XDATA, add(CFA_XSP16, literal(-15)))
          CFI V2 load(1, XDATA, add(CFA_XSP16, literal(-16)))
          CFI V1 load(1, XDATA, add(CFA_XSP16, literal(-17)))
          CFI V0 load(1, XDATA, add(CFA_XSP16, literal(-18)))
          CFI VB load(1, XDATA, add(CFA_XSP16, literal(-19)))
          CFI R6 load(1, XDATA, add(CFA_XSP16, literal(-20)))
          CFI CFA_SP SP+0
          CFI CFA_XSP16 add(XSP16, 20)
        ; Saved register size: 20
        ; Auto size: 7
        MOV     A,#-0x7
        LCALL   ?ALLOC_XSTACK8
          CFI CFA_XSP16 add(XSP16, 27)
// 1334 //    SampleApp_Tester_DstAddr.addrMode = (afAddrMode_t)AddrBroadcast;
// 1335 //  SampleApp_Tester_DstAddr.endPoint = SAMPLEAPP_ENDPOINT;
// 1336 //  SampleApp_Tester_DstAddr.addr.shortAddr = 0xFFFF;
// 1337     
// 1338   SampleApp_Tester_DstAddr.addrMode = (afAddrMode_t)AddrGroup;  //AddrGroup
        LCALL   ?Subroutine5 & 0xFFFF
// 1339   SampleApp_Tester_DstAddr.endPoint = SAMPLEAPP_ENDPOINT;
// 1340   SampleApp_Tester_DstAddr.addr.shortAddr =  SAMPLEAPP_CalN_GROUP;    //SAMPLEAPP_QUADROTOR_GROUP
??CrossCallReturnLabel_5:
        MOV     A,#0x1b
        LCALL   ?XSTACK_DISP0_8
        MOV     R0,#?V0 + 4
        LCALL   ?L_MOV_X
// 1341  
// 1342 
// 1343 
// 1344   float tempn=A;  
// 1345   if(A>=0)
        MOV     DPTR,#__Constant_0
        MOV     R0,#?V0 + 0
        LCALL   ?L_MOV_X
        MOV     R0,#?V0 + 4
        MOV     R1,#?V0 + 0
        LCALL   ?FLT_GE
        JC      $+5
        LJMP    ??SampleApp_Tester_calibrationAMessage_0 & 0xFFFF
// 1346   {
// 1347           uint8 data[7]="A";
        MOV     DPL,?XSP + 0
        MOV     DPH,?XSP + 1
        MOV     R4,DPL
        MOV     R5,DPH
        MOV     DPH,#(`?<Constant "A">_2` >> 8) & 0xff
        MOV     DPL,#`?<Constant "A">_2` & 0xff
        MOV     A,#0x7
        LCALL   ?MOVE_LONG8_XDATA_XDATA
// 1348           data[1]=0x30+index;
        MOV     A,R2
        ADD     A,#0x30
        PUSH    A
          CFI CFA_SP SP+-1
        MOV     A,#0x1
        LCALL   ?XSTACK_DISP0_8
        POP     A
          CFI CFA_SP SP+0
        MOVX    @DPTR,A
// 1349 
// 1350           data[2]=':';
        MOV     A,#0x2
        LCALL   ?XSTACK_DISP0_8
        LCALL   ?Subroutine8 & 0xFFFF
// 1351           
// 1352           uint8 number8;
// 1353           number8=(uint8)(tempn/10);
// 1354           data[3]=number8+'0';
??CrossCallReturnLabel_12:
        LCALL   ?L_MOV_X
        MOV     R0,#?V0 + 0
        MOV     R1,#?V0 + 8
        LCALL   ?FLT_DIV
        MOV     R0,#?V0 + 0
        LCALL   ?FLT_TO_L
        MOV     A,?V0 + 0
        ADD     A,#0x30
        PUSH    A
          CFI CFA_SP SP+-1
        MOV     A,#0x3
        LCALL   ?XSTACK_DISP0_8
        POP     A
          CFI CFA_SP SP+0
        LCALL   ?Subroutine4 & 0xFFFF
// 1355           number8=(uint8)(((int)tempn)%10);
// 1356           data[4]=number8+'0';
??CrossCallReturnLabel_2:
        LCALL   ?FLT_TO_L
        MOV     R5,?V0 + 1
        MOV     R0,?V0 + 0
        MOV     A,R5
        MOV     R1,A
        MOV     R2,#0xa
        MOV     R3,#0x0
        LCALL   ?S_DIV_MOD
        MOV     A,R2
        ADD     A,#0x30
        PUSH    A
          CFI CFA_SP SP+-1
        MOV     A,#0x4
        LCALL   ?XSTACK_DISP0_8
        POP     A
          CFI CFA_SP SP+0
        MOVX    @DPTR,A
// 1357           data[5]='.';
        MOV     A,#0x5
        LCALL   ?XSTACK_DISP0_8
        LCALL   ?Subroutine7 & 0xFFFF
// 1358           tempn=10*(tempn-(int)tempn);
// 1359           number8=(uint8)tempn;
// 1360           data[6]=number8+'0';
// 1361                
// 1362           
// 1363           if ( AF_DataRequest( &SampleApp_Tester_DstAddr, &SampleApp_epDesc,
// 1364                                CALBRATION_N_CLUSTERID,
// 1365                                7,//osal_strlen("A1")+1,
// 1366                                data,
// 1367                                &SampleApp_TransID,
// 1368                                AF_DISCV_ROUTE,//AF_DISCV_ROUTE,  
// 1369                                1//AF_DEFAULT_RADIUS 
// 1370                                 ) == afStatus_SUCCESS )
// 1371           {
// 1372           }
// 1373           else
// 1374           {
// 1375             // Error occurred in request to send.
// 1376           }
// 1377   }
??CrossCallReturnLabel_9:
        LCALL   ?L_TO_FLT
        MOV     R0,#?V0 + 4
        MOV     R1,#?V0 + 0
        LCALL   ?FLT_SUB
        MOV     DPTR,#__Constant_41200000
        MOV     R0,#?V0 + 0
        LCALL   ?L_MOV_X
        MOV     R0,#?V0 + 4
        MOV     R1,#?V0 + 0
        LCALL   ?FLT_MUL
        MOV     R0,#?V0 + 4
        LCALL   ?FLT_TO_L
        MOV     A,?V0 + 4
        ADD     A,#0x30
        PUSH    A
          CFI CFA_SP SP+-1
        MOV     A,#0x6
        LCALL   ?XSTACK_DISP0_8
        POP     A
          CFI CFA_SP SP+0
        LCALL   ??Subroutine35_0 & 0xFFFF
??CrossCallReturnLabel_68:
        LCALL   ?PUSH_XSTACK_I_ONE
          CFI CFA_XSP16 add(XSP16, 28)
        MOV     ?V0 + 0,#SampleApp_TransID & 0xff
        MOV     ?V0 + 1,#(SampleApp_TransID >> 8) & 0xff
        MOV     R0,#?V0 + 0
        LCALL   ?PUSH_XSTACK_I_TWO
          CFI CFA_XSP16 add(XSP16, 30)
        MOV     A,#0x3
        LCALL   ?XSTACK_DISP0_8
        MOV     ?V0 + 0,DPL
        MOV     ?V0 + 1,DPH
        MOV     R0,#?V0 + 0
        LCALL   ?PUSH_XSTACK_I_TWO
          CFI CFA_XSP16 add(XSP16, 32)
        MOV     ?V0 + 0,#0x7
        MOV     ?V0 + 1,#0x0
        MOV     R0,#?V0 + 0
        LCALL   ?PUSH_XSTACK_I_TWO
          CFI CFA_XSP16 add(XSP16, 34)
        MOV     ?V0 + 0,#0x2
        MOV     R0,#?V0 + 0
        LCALL   ?PUSH_XSTACK_I_TWO
          CFI CFA_XSP16 add(XSP16, 36)
        MOV     R1,#0x20
        MOV     R4,#SampleApp_epDesc & 0xff
        MOV     R5,#(SampleApp_epDesc >> 8) & 0xff
        MOV     R2,#SampleApp_Tester_DstAddr & 0xff
        MOV     R3,#(SampleApp_Tester_DstAddr >> 8) & 0xff
        LCALL   ??AF_DataRequest?relay
        MOV     A,#0x9
        LCALL   ?DEALLOC_XSTACK8
          CFI CFA_XSP16 add(XSP16, 27)
// 1378 }
??SampleApp_Tester_calibrationAMessage_0:
        LJMP    ?Subroutine3 & 0xFFFF
          CFI EndBlock cfiBlock106

        RSEG BANKED_CODE:CODE:NOROOT(0)
?Subroutine9:
          CFI Block cfiCond107 Using cfiCommon0
          CFI Function SampleApp_Router_calibrationNMessage
          CFI Conditional ??CrossCallReturnLabel_64
          CFI R6 load(1, XDATA, add(CFA_XSP16, literal(-16)))
          CFI VB load(1, XDATA, add(CFA_XSP16, literal(-15)))
          CFI V0 load(1, XDATA, add(CFA_XSP16, literal(-14)))
          CFI V1 load(1, XDATA, add(CFA_XSP16, literal(-13)))
          CFI V2 load(1, XDATA, add(CFA_XSP16, literal(-12)))
          CFI V3 load(1, XDATA, add(CFA_XSP16, literal(-11)))
          CFI V4 load(1, XDATA, add(CFA_XSP16, literal(-10)))
          CFI V5 load(1, XDATA, add(CFA_XSP16, literal(-9)))
          CFI V6 load(1, XDATA, add(CFA_XSP16, literal(-8)))
          CFI V7 load(1, XDATA, add(CFA_XSP16, literal(-7)))
          CFI R7 load(1, XDATA, add(CFA_XSP16, literal(-6)))
          CFI ?RET_LOW load(1, XDATA, add(CFA_XSP16, literal(-5)))
          CFI ?RET_HIGH load(1, XDATA, add(CFA_XSP16, literal(-4)))
          CFI ?BRET_EXT load(1, XDATA, add(CFA_XSP16, literal(-3)))
          CFI DPL0 load(1, XDATA, add(CFA_XSP16, literal(-2)))
          CFI DPH0 load(1, XDATA, add(CFA_XSP16, literal(-1)))
          CFI CFA_SP SP+0
          CFI CFA_XSP16 add(XSP16, 24)
          CFI Block cfiCond108 Using cfiCommon0
          CFI (cfiCond108) Function SampleApp_Tester_calibration_differentAMessage
          CFI (cfiCond108) Conditional ??CrossCallReturnLabel_65
          CFI (cfiCond108) R6 load(1, XDATA, add(CFA_XSP16, literal(-20)))
          CFI (cfiCond108) VB load(1, XDATA, add(CFA_XSP16, literal(-19)))
          CFI (cfiCond108) V0 load(1, XDATA, add(CFA_XSP16, literal(-18)))
          CFI (cfiCond108) V1 load(1, XDATA, add(CFA_XSP16, literal(-17)))
          CFI (cfiCond108) V2 load(1, XDATA, add(CFA_XSP16, literal(-16)))
          CFI (cfiCond108) V3 load(1, XDATA, add(CFA_XSP16, literal(-15)))
          CFI (cfiCond108) V4 load(1, XDATA, add(CFA_XSP16, literal(-14)))
          CFI (cfiCond108) V5 load(1, XDATA, add(CFA_XSP16, literal(-13)))
          CFI (cfiCond108) V6 load(1, XDATA, add(CFA_XSP16, literal(-12)))
          CFI (cfiCond108) V7 load(1, XDATA, add(CFA_XSP16, literal(-11)))
          CFI (cfiCond108) V8 load(1, XDATA, add(CFA_XSP16, literal(-10)))
          CFI (cfiCond108) V9 load(1, XDATA, add(CFA_XSP16, literal(-9)))
          CFI (cfiCond108) V10 load(1, XDATA, add(CFA_XSP16, literal(-8)))
          CFI (cfiCond108) V11 load(1, XDATA, add(CFA_XSP16, literal(-7)))
          CFI (cfiCond108) R7 load(1, XDATA, add(CFA_XSP16, literal(-6)))
          CFI (cfiCond108) ?RET_LOW load(1, XDATA, add(CFA_XSP16, literal(-5)))
          CFI (cfiCond108) ?RET_HIGH load(1, XDATA, add(CFA_XSP16, literal(-4)))
          CFI (cfiCond108) ?BRET_EXT load(1, XDATA, add(CFA_XSP16, literal(-3)))
          CFI (cfiCond108) DPL0 load(1, XDATA, add(CFA_XSP16, literal(-2)))
          CFI (cfiCond108) DPH0 load(1, XDATA, add(CFA_XSP16, literal(-1)))
          CFI (cfiCond108) CFA_SP SP+0
          CFI (cfiCond108) CFA_XSP16 add(XSP16, 28)
          CFI Block cfiCond109 Using cfiCommon0
          CFI (cfiCond109) Function SampleApp_Tester_calibrationOffsetAMessage
          CFI (cfiCond109) Conditional ??CrossCallReturnLabel_65
          CFI (cfiCond109) R6 load(1, XDATA, add(CFA_XSP16, literal(-20)))
          CFI (cfiCond109) VB load(1, XDATA, add(CFA_XSP16, literal(-19)))
          CFI (cfiCond109) V0 load(1, XDATA, add(CFA_XSP16, literal(-18)))
          CFI (cfiCond109) V1 load(1, XDATA, add(CFA_XSP16, literal(-17)))
          CFI (cfiCond109) V2 load(1, XDATA, add(CFA_XSP16, literal(-16)))
          CFI (cfiCond109) V3 load(1, XDATA, add(CFA_XSP16, literal(-15)))
          CFI (cfiCond109) V4 load(1, XDATA, add(CFA_XSP16, literal(-14)))
          CFI (cfiCond109) V5 load(1, XDATA, add(CFA_XSP16, literal(-13)))
          CFI (cfiCond109) V6 load(1, XDATA, add(CFA_XSP16, literal(-12)))
          CFI (cfiCond109) V7 load(1, XDATA, add(CFA_XSP16, literal(-11)))
          CFI (cfiCond109) V8 load(1, XDATA, add(CFA_XSP16, literal(-10)))
          CFI (cfiCond109) V9 load(1, XDATA, add(CFA_XSP16, literal(-9)))
          CFI (cfiCond109) V10 load(1, XDATA, add(CFA_XSP16, literal(-8)))
          CFI (cfiCond109) V11 load(1, XDATA, add(CFA_XSP16, literal(-7)))
          CFI (cfiCond109) R7 load(1, XDATA, add(CFA_XSP16, literal(-6)))
          CFI (cfiCond109) ?RET_LOW load(1, XDATA, add(CFA_XSP16, literal(-5)))
          CFI (cfiCond109) ?RET_HIGH load(1, XDATA, add(CFA_XSP16, literal(-4)))
          CFI (cfiCond109) ?BRET_EXT load(1, XDATA, add(CFA_XSP16, literal(-3)))
          CFI (cfiCond109) DPL0 load(1, XDATA, add(CFA_XSP16, literal(-2)))
          CFI (cfiCond109) DPH0 load(1, XDATA, add(CFA_XSP16, literal(-1)))
          CFI (cfiCond109) CFA_SP SP+0
          CFI (cfiCond109) CFA_XSP16 add(XSP16, 28)
          CFI Block cfiPicker110 Using cfiCommon1
          CFI (cfiPicker110) NoFunction
          CFI (cfiPicker110) Picker
        MOV     A,#0xa
          CFI EndBlock cfiCond107
          CFI EndBlock cfiCond108
          CFI EndBlock cfiCond109
          CFI EndBlock cfiPicker110
        REQUIRE ??Subroutine35_0
        ; // Fall through to label ??Subroutine35_0

        RSEG BANKED_CODE:CODE:NOROOT(0)
??Subroutine35_0:
          CFI Block cfiCond111 Using cfiCommon0
          CFI Function SampleApp_Router_SendPeriodicMessage
          CFI Conditional ??CrossCallReturnLabel_66
          CFI R6 load(1, XDATA, add(CFA_XSP16, literal(-10)))
          CFI VB load(1, XDATA, add(CFA_XSP16, literal(-9)))
          CFI V0 load(1, XDATA, add(CFA_XSP16, literal(-8)))
          CFI V1 load(1, XDATA, add(CFA_XSP16, literal(-7)))
          CFI R7 load(1, XDATA, add(CFA_XSP16, literal(-6)))
          CFI ?RET_LOW load(1, XDATA, add(CFA_XSP16, literal(-5)))
          CFI ?RET_HIGH load(1, XDATA, add(CFA_XSP16, literal(-4)))
          CFI ?BRET_EXT load(1, XDATA, add(CFA_XSP16, literal(-3)))
          CFI DPL0 load(1, XDATA, add(CFA_XSP16, literal(-2)))
          CFI DPH0 load(1, XDATA, add(CFA_XSP16, literal(-1)))
          CFI CFA_SP SP+0
          CFI CFA_XSP16 add(XSP16, 12)
          CFI Block cfiCond112 Using cfiCommon0
          CFI (cfiCond112) Function SampleApp_Router_calibrationAMessage
          CFI (cfiCond112) Conditional ??CrossCallReturnLabel_67
          CFI (cfiCond112) R6 load(1, XDATA, add(CFA_XSP16, literal(-20)))
          CFI (cfiCond112) VB load(1, XDATA, add(CFA_XSP16, literal(-19)))
          CFI (cfiCond112) V0 load(1, XDATA, add(CFA_XSP16, literal(-18)))
          CFI (cfiCond112) V1 load(1, XDATA, add(CFA_XSP16, literal(-17)))
          CFI (cfiCond112) V2 load(1, XDATA, add(CFA_XSP16, literal(-16)))
          CFI (cfiCond112) V3 load(1, XDATA, add(CFA_XSP16, literal(-15)))
          CFI (cfiCond112) V4 load(1, XDATA, add(CFA_XSP16, literal(-14)))
          CFI (cfiCond112) V5 load(1, XDATA, add(CFA_XSP16, literal(-13)))
          CFI (cfiCond112) V6 load(1, XDATA, add(CFA_XSP16, literal(-12)))
          CFI (cfiCond112) V7 load(1, XDATA, add(CFA_XSP16, literal(-11)))
          CFI (cfiCond112) V8 load(1, XDATA, add(CFA_XSP16, literal(-10)))
          CFI (cfiCond112) V9 load(1, XDATA, add(CFA_XSP16, literal(-9)))
          CFI (cfiCond112) V10 load(1, XDATA, add(CFA_XSP16, literal(-8)))
          CFI (cfiCond112) V11 load(1, XDATA, add(CFA_XSP16, literal(-7)))
          CFI (cfiCond112) R7 load(1, XDATA, add(CFA_XSP16, literal(-6)))
          CFI (cfiCond112) ?RET_LOW load(1, XDATA, add(CFA_XSP16, literal(-5)))
          CFI (cfiCond112) ?RET_HIGH load(1, XDATA, add(CFA_XSP16, literal(-4)))
          CFI (cfiCond112) ?BRET_EXT load(1, XDATA, add(CFA_XSP16, literal(-3)))
          CFI (cfiCond112) DPL0 load(1, XDATA, add(CFA_XSP16, literal(-2)))
          CFI (cfiCond112) DPH0 load(1, XDATA, add(CFA_XSP16, literal(-1)))
          CFI (cfiCond112) CFA_SP SP+0
          CFI (cfiCond112) CFA_XSP16 add(XSP16, 27)
          CFI Block cfiCond113 Using cfiCommon0
          CFI (cfiCond113) Function SampleApp_Tester_calibrationAMessage
          CFI (cfiCond113) Conditional ??CrossCallReturnLabel_68
          CFI (cfiCond113) R6 load(1, XDATA, add(CFA_XSP16, literal(-20)))
          CFI (cfiCond113) VB load(1, XDATA, add(CFA_XSP16, literal(-19)))
          CFI (cfiCond113) V0 load(1, XDATA, add(CFA_XSP16, literal(-18)))
          CFI (cfiCond113) V1 load(1, XDATA, add(CFA_XSP16, literal(-17)))
          CFI (cfiCond113) V2 load(1, XDATA, add(CFA_XSP16, literal(-16)))
          CFI (cfiCond113) V3 load(1, XDATA, add(CFA_XSP16, literal(-15)))
          CFI (cfiCond113) V4 load(1, XDATA, add(CFA_XSP16, literal(-14)))
          CFI (cfiCond113) V5 load(1, XDATA, add(CFA_XSP16, literal(-13)))
          CFI (cfiCond113) V6 load(1, XDATA, add(CFA_XSP16, literal(-12)))
          CFI (cfiCond113) V7 load(1, XDATA, add(CFA_XSP16, literal(-11)))
          CFI (cfiCond113) V8 load(1, XDATA, add(CFA_XSP16, literal(-10)))
          CFI (cfiCond113) V9 load(1, XDATA, add(CFA_XSP16, literal(-9)))
          CFI (cfiCond113) V10 load(1, XDATA, add(CFA_XSP16, literal(-8)))
          CFI (cfiCond113) V11 load(1, XDATA, add(CFA_XSP16, literal(-7)))
          CFI (cfiCond113) R7 load(1, XDATA, add(CFA_XSP16, literal(-6)))
          CFI (cfiCond113) ?RET_LOW load(1, XDATA, add(CFA_XSP16, literal(-5)))
          CFI (cfiCond113) ?RET_HIGH load(1, XDATA, add(CFA_XSP16, literal(-4)))
          CFI (cfiCond113) ?BRET_EXT load(1, XDATA, add(CFA_XSP16, literal(-3)))
          CFI (cfiCond113) DPL0 load(1, XDATA, add(CFA_XSP16, literal(-2)))
          CFI (cfiCond113) DPH0 load(1, XDATA, add(CFA_XSP16, literal(-1)))
          CFI (cfiCond113) CFA_SP SP+0
          CFI (cfiCond113) CFA_XSP16 add(XSP16, 27)
          CFI Block cfiCond114 Using cfiCommon0
          CFI (cfiCond114) Function SampleApp_Router_calibrationNMessage
          CFI (cfiCond114) Conditional ??CrossCallReturnLabel_64
          CFI (cfiCond114) R6 load(1, XDATA, add(CFA_XSP16, literal(-16)))
          CFI (cfiCond114) VB load(1, XDATA, add(CFA_XSP16, literal(-15)))
          CFI (cfiCond114) V0 load(1, XDATA, add(CFA_XSP16, literal(-14)))
          CFI (cfiCond114) V1 load(1, XDATA, add(CFA_XSP16, literal(-13)))
          CFI (cfiCond114) V2 load(1, XDATA, add(CFA_XSP16, literal(-12)))
          CFI (cfiCond114) V3 load(1, XDATA, add(CFA_XSP16, literal(-11)))
          CFI (cfiCond114) V4 load(1, XDATA, add(CFA_XSP16, literal(-10)))
          CFI (cfiCond114) V5 load(1, XDATA, add(CFA_XSP16, literal(-9)))
          CFI (cfiCond114) V6 load(1, XDATA, add(CFA_XSP16, literal(-8)))
          CFI (cfiCond114) V7 load(1, XDATA, add(CFA_XSP16, literal(-7)))
          CFI (cfiCond114) R7 load(1, XDATA, add(CFA_XSP16, literal(-6)))
          CFI (cfiCond114) ?RET_LOW load(1, XDATA, add(CFA_XSP16, literal(-5)))
          CFI (cfiCond114) ?RET_HIGH load(1, XDATA, add(CFA_XSP16, literal(-4)))
          CFI (cfiCond114) ?BRET_EXT load(1, XDATA, add(CFA_XSP16, literal(-3)))
          CFI (cfiCond114) DPL0 load(1, XDATA, add(CFA_XSP16, literal(-2)))
          CFI (cfiCond114) DPH0 load(1, XDATA, add(CFA_XSP16, literal(-1)))
          CFI (cfiCond114) CFA_SP SP+0
          CFI (cfiCond114) CFA_XSP16 add(XSP16, 24)
          CFI Block cfiCond115 Using cfiCommon0
          CFI (cfiCond115) Function SampleApp_Tester_calibration_differentAMessage
          CFI (cfiCond115) Conditional ??CrossCallReturnLabel_65
          CFI (cfiCond115) R6 load(1, XDATA, add(CFA_XSP16, literal(-20)))
          CFI (cfiCond115) VB load(1, XDATA, add(CFA_XSP16, literal(-19)))
          CFI (cfiCond115) V0 load(1, XDATA, add(CFA_XSP16, literal(-18)))
          CFI (cfiCond115) V1 load(1, XDATA, add(CFA_XSP16, literal(-17)))
          CFI (cfiCond115) V2 load(1, XDATA, add(CFA_XSP16, literal(-16)))
          CFI (cfiCond115) V3 load(1, XDATA, add(CFA_XSP16, literal(-15)))
          CFI (cfiCond115) V4 load(1, XDATA, add(CFA_XSP16, literal(-14)))
          CFI (cfiCond115) V5 load(1, XDATA, add(CFA_XSP16, literal(-13)))
          CFI (cfiCond115) V6 load(1, XDATA, add(CFA_XSP16, literal(-12)))
          CFI (cfiCond115) V7 load(1, XDATA, add(CFA_XSP16, literal(-11)))
          CFI (cfiCond115) V8 load(1, XDATA, add(CFA_XSP16, literal(-10)))
          CFI (cfiCond115) V9 load(1, XDATA, add(CFA_XSP16, literal(-9)))
          CFI (cfiCond115) V10 load(1, XDATA, add(CFA_XSP16, literal(-8)))
          CFI (cfiCond115) V11 load(1, XDATA, add(CFA_XSP16, literal(-7)))
          CFI (cfiCond115) R7 load(1, XDATA, add(CFA_XSP16, literal(-6)))
          CFI (cfiCond115) ?RET_LOW load(1, XDATA, add(CFA_XSP16, literal(-5)))
          CFI (cfiCond115) ?RET_HIGH load(1, XDATA, add(CFA_XSP16, literal(-4)))
          CFI (cfiCond115) ?BRET_EXT load(1, XDATA, add(CFA_XSP16, literal(-3)))
          CFI (cfiCond115) DPL0 load(1, XDATA, add(CFA_XSP16, literal(-2)))
          CFI (cfiCond115) DPH0 load(1, XDATA, add(CFA_XSP16, literal(-1)))
          CFI (cfiCond115) CFA_SP SP+0
          CFI (cfiCond115) CFA_XSP16 add(XSP16, 28)
          CFI Block cfiCond116 Using cfiCommon0
          CFI (cfiCond116) Function SampleApp_Tester_calibrationOffsetAMessage
          CFI (cfiCond116) Conditional ??CrossCallReturnLabel_65
          CFI (cfiCond116) R6 load(1, XDATA, add(CFA_XSP16, literal(-20)))
          CFI (cfiCond116) VB load(1, XDATA, add(CFA_XSP16, literal(-19)))
          CFI (cfiCond116) V0 load(1, XDATA, add(CFA_XSP16, literal(-18)))
          CFI (cfiCond116) V1 load(1, XDATA, add(CFA_XSP16, literal(-17)))
          CFI (cfiCond116) V2 load(1, XDATA, add(CFA_XSP16, literal(-16)))
          CFI (cfiCond116) V3 load(1, XDATA, add(CFA_XSP16, literal(-15)))
          CFI (cfiCond116) V4 load(1, XDATA, add(CFA_XSP16, literal(-14)))
          CFI (cfiCond116) V5 load(1, XDATA, add(CFA_XSP16, literal(-13)))
          CFI (cfiCond116) V6 load(1, XDATA, add(CFA_XSP16, literal(-12)))
          CFI (cfiCond116) V7 load(1, XDATA, add(CFA_XSP16, literal(-11)))
          CFI (cfiCond116) V8 load(1, XDATA, add(CFA_XSP16, literal(-10)))
          CFI (cfiCond116) V9 load(1, XDATA, add(CFA_XSP16, literal(-9)))
          CFI (cfiCond116) V10 load(1, XDATA, add(CFA_XSP16, literal(-8)))
          CFI (cfiCond116) V11 load(1, XDATA, add(CFA_XSP16, literal(-7)))
          CFI (cfiCond116) R7 load(1, XDATA, add(CFA_XSP16, literal(-6)))
          CFI (cfiCond116) ?RET_LOW load(1, XDATA, add(CFA_XSP16, literal(-5)))
          CFI (cfiCond116) ?RET_HIGH load(1, XDATA, add(CFA_XSP16, literal(-4)))
          CFI (cfiCond116) ?BRET_EXT load(1, XDATA, add(CFA_XSP16, literal(-3)))
          CFI (cfiCond116) DPL0 load(1, XDATA, add(CFA_XSP16, literal(-2)))
          CFI (cfiCond116) DPH0 load(1, XDATA, add(CFA_XSP16, literal(-1)))
          CFI (cfiCond116) CFA_SP SP+0
          CFI (cfiCond116) CFA_XSP16 add(XSP16, 28)
          CFI Block cfiPicker117 Using cfiCommon1
          CFI (cfiPicker117) NoFunction
          CFI (cfiPicker117) Picker
        MOVX    @DPTR,A
        ; Setup parameters for call to function AF_DataRequest
        ; Setup parameters for call to function AF_DataRequest
        ; Setup parameters for call to function AF_DataRequest
        ; Setup parameters for call to function AF_DataRequest
        ; Setup parameters for call to function AF_DataRequest
        ; Setup parameters for call to function AF_DataRequest
        MOV     ?V0 + 0,#0x1
        MOV     R0,#?V0 + 0
        RET
          CFI EndBlock cfiCond111
          CFI EndBlock cfiCond112
          CFI EndBlock cfiCond113
          CFI EndBlock cfiCond114
          CFI EndBlock cfiCond115
          CFI EndBlock cfiCond116
          CFI EndBlock cfiPicker117

        RSEG BANKED_CODE:CODE:NOROOT(0)
?Subroutine8:
          CFI Block cfiCond118 Using cfiCommon0
          CFI Function SampleApp_Router_calibrationAMessage
          CFI Conditional ??CrossCallReturnLabel_11
          CFI R6 load(1, XDATA, add(CFA_XSP16, literal(-20)))
          CFI VB load(1, XDATA, add(CFA_XSP16, literal(-19)))
          CFI V0 load(1, XDATA, add(CFA_XSP16, literal(-18)))
          CFI V1 load(1, XDATA, add(CFA_XSP16, literal(-17)))
          CFI V2 load(1, XDATA, add(CFA_XSP16, literal(-16)))
          CFI V3 load(1, XDATA, add(CFA_XSP16, literal(-15)))
          CFI V4 load(1, XDATA, add(CFA_XSP16, literal(-14)))
          CFI V5 load(1, XDATA, add(CFA_XSP16, literal(-13)))
          CFI V6 load(1, XDATA, add(CFA_XSP16, literal(-12)))
          CFI V7 load(1, XDATA, add(CFA_XSP16, literal(-11)))
          CFI V8 load(1, XDATA, add(CFA_XSP16, literal(-10)))
          CFI V9 load(1, XDATA, add(CFA_XSP16, literal(-9)))
          CFI V10 load(1, XDATA, add(CFA_XSP16, literal(-8)))
          CFI V11 load(1, XDATA, add(CFA_XSP16, literal(-7)))
          CFI R7 load(1, XDATA, add(CFA_XSP16, literal(-6)))
          CFI ?RET_LOW load(1, XDATA, add(CFA_XSP16, literal(-5)))
          CFI ?RET_HIGH load(1, XDATA, add(CFA_XSP16, literal(-4)))
          CFI ?BRET_EXT load(1, XDATA, add(CFA_XSP16, literal(-3)))
          CFI DPL0 load(1, XDATA, add(CFA_XSP16, literal(-2)))
          CFI DPH0 load(1, XDATA, add(CFA_XSP16, literal(-1)))
          CFI CFA_SP SP+0
          CFI CFA_XSP16 add(XSP16, 27)
          CFI Block cfiCond119 Using cfiCommon0
          CFI (cfiCond119) Function SampleApp_Tester_calibrationAMessage
          CFI (cfiCond119) Conditional ??CrossCallReturnLabel_12
          CFI (cfiCond119) R6 load(1, XDATA, add(CFA_XSP16, literal(-20)))
          CFI (cfiCond119) VB load(1, XDATA, add(CFA_XSP16, literal(-19)))
          CFI (cfiCond119) V0 load(1, XDATA, add(CFA_XSP16, literal(-18)))
          CFI (cfiCond119) V1 load(1, XDATA, add(CFA_XSP16, literal(-17)))
          CFI (cfiCond119) V2 load(1, XDATA, add(CFA_XSP16, literal(-16)))
          CFI (cfiCond119) V3 load(1, XDATA, add(CFA_XSP16, literal(-15)))
          CFI (cfiCond119) V4 load(1, XDATA, add(CFA_XSP16, literal(-14)))
          CFI (cfiCond119) V5 load(1, XDATA, add(CFA_XSP16, literal(-13)))
          CFI (cfiCond119) V6 load(1, XDATA, add(CFA_XSP16, literal(-12)))
          CFI (cfiCond119) V7 load(1, XDATA, add(CFA_XSP16, literal(-11)))
          CFI (cfiCond119) V8 load(1, XDATA, add(CFA_XSP16, literal(-10)))
          CFI (cfiCond119) V9 load(1, XDATA, add(CFA_XSP16, literal(-9)))
          CFI (cfiCond119) V10 load(1, XDATA, add(CFA_XSP16, literal(-8)))
          CFI (cfiCond119) V11 load(1, XDATA, add(CFA_XSP16, literal(-7)))
          CFI (cfiCond119) R7 load(1, XDATA, add(CFA_XSP16, literal(-6)))
          CFI (cfiCond119) ?RET_LOW load(1, XDATA, add(CFA_XSP16, literal(-5)))
          CFI (cfiCond119) ?RET_HIGH load(1, XDATA, add(CFA_XSP16, literal(-4)))
          CFI (cfiCond119) ?BRET_EXT load(1, XDATA, add(CFA_XSP16, literal(-3)))
          CFI (cfiCond119) DPL0 load(1, XDATA, add(CFA_XSP16, literal(-2)))
          CFI (cfiCond119) DPH0 load(1, XDATA, add(CFA_XSP16, literal(-1)))
          CFI (cfiCond119) CFA_SP SP+0
          CFI (cfiCond119) CFA_XSP16 add(XSP16, 27)
          CFI Block cfiPicker120 Using cfiCommon1
          CFI (cfiPicker120) NoFunction
          CFI (cfiPicker120) Picker
        MOV     A,#0x3a
        LCALL   ?Subroutine22 & 0xFFFF
??CrossCallReturnLabel_31:
        MOV     DPTR,#__Constant_41200000
        MOV     R0,#?V0 + 8
        RET
          CFI EndBlock cfiCond118
          CFI EndBlock cfiCond119
          CFI EndBlock cfiPicker120

        RSEG BANKED_CODE:CODE:NOROOT(0)
?Subroutine7:
          CFI Block cfiCond121 Using cfiCommon0
          CFI Function SampleApp_Router_calibrationAMessage
          CFI Conditional ??CrossCallReturnLabel_8
          CFI R6 load(1, XDATA, add(CFA_XSP16, literal(-20)))
          CFI VB load(1, XDATA, add(CFA_XSP16, literal(-19)))
          CFI V0 load(1, XDATA, add(CFA_XSP16, literal(-18)))
          CFI V1 load(1, XDATA, add(CFA_XSP16, literal(-17)))
          CFI V2 load(1, XDATA, add(CFA_XSP16, literal(-16)))
          CFI V3 load(1, XDATA, add(CFA_XSP16, literal(-15)))
          CFI V4 load(1, XDATA, add(CFA_XSP16, literal(-14)))
          CFI V5 load(1, XDATA, add(CFA_XSP16, literal(-13)))
          CFI V6 load(1, XDATA, add(CFA_XSP16, literal(-12)))
          CFI V7 load(1, XDATA, add(CFA_XSP16, literal(-11)))
          CFI V8 load(1, XDATA, add(CFA_XSP16, literal(-10)))
          CFI V9 load(1, XDATA, add(CFA_XSP16, literal(-9)))
          CFI V10 load(1, XDATA, add(CFA_XSP16, literal(-8)))
          CFI V11 load(1, XDATA, add(CFA_XSP16, literal(-7)))
          CFI R7 load(1, XDATA, add(CFA_XSP16, literal(-6)))
          CFI ?RET_LOW load(1, XDATA, add(CFA_XSP16, literal(-5)))
          CFI ?RET_HIGH load(1, XDATA, add(CFA_XSP16, literal(-4)))
          CFI ?BRET_EXT load(1, XDATA, add(CFA_XSP16, literal(-3)))
          CFI DPL0 load(1, XDATA, add(CFA_XSP16, literal(-2)))
          CFI DPH0 load(1, XDATA, add(CFA_XSP16, literal(-1)))
          CFI CFA_SP SP+0
          CFI CFA_XSP16 add(XSP16, 27)
          CFI Block cfiCond122 Using cfiCommon0
          CFI (cfiCond122) Function SampleApp_Tester_calibrationAMessage
          CFI (cfiCond122) Conditional ??CrossCallReturnLabel_9
          CFI (cfiCond122) R6 load(1, XDATA, add(CFA_XSP16, literal(-20)))
          CFI (cfiCond122) VB load(1, XDATA, add(CFA_XSP16, literal(-19)))
          CFI (cfiCond122) V0 load(1, XDATA, add(CFA_XSP16, literal(-18)))
          CFI (cfiCond122) V1 load(1, XDATA, add(CFA_XSP16, literal(-17)))
          CFI (cfiCond122) V2 load(1, XDATA, add(CFA_XSP16, literal(-16)))
          CFI (cfiCond122) V3 load(1, XDATA, add(CFA_XSP16, literal(-15)))
          CFI (cfiCond122) V4 load(1, XDATA, add(CFA_XSP16, literal(-14)))
          CFI (cfiCond122) V5 load(1, XDATA, add(CFA_XSP16, literal(-13)))
          CFI (cfiCond122) V6 load(1, XDATA, add(CFA_XSP16, literal(-12)))
          CFI (cfiCond122) V7 load(1, XDATA, add(CFA_XSP16, literal(-11)))
          CFI (cfiCond122) V8 load(1, XDATA, add(CFA_XSP16, literal(-10)))
          CFI (cfiCond122) V9 load(1, XDATA, add(CFA_XSP16, literal(-9)))
          CFI (cfiCond122) V10 load(1, XDATA, add(CFA_XSP16, literal(-8)))
          CFI (cfiCond122) V11 load(1, XDATA, add(CFA_XSP16, literal(-7)))
          CFI (cfiCond122) R7 load(1, XDATA, add(CFA_XSP16, literal(-6)))
          CFI (cfiCond122) ?RET_LOW load(1, XDATA, add(CFA_XSP16, literal(-5)))
          CFI (cfiCond122) ?RET_HIGH load(1, XDATA, add(CFA_XSP16, literal(-4)))
          CFI (cfiCond122) ?BRET_EXT load(1, XDATA, add(CFA_XSP16, literal(-3)))
          CFI (cfiCond122) DPL0 load(1, XDATA, add(CFA_XSP16, literal(-2)))
          CFI (cfiCond122) DPH0 load(1, XDATA, add(CFA_XSP16, literal(-1)))
          CFI (cfiCond122) CFA_SP SP+0
          CFI (cfiCond122) CFA_XSP16 add(XSP16, 27)
          CFI Block cfiCond123 Using cfiCommon0
          CFI (cfiCond123) Function SampleApp_Tester_calibration_differentAMessage
          CFI (cfiCond123) Conditional ??CrossCallReturnLabel_10
          CFI (cfiCond123) R6 load(1, XDATA, add(CFA_XSP16, literal(-20)))
          CFI (cfiCond123) VB load(1, XDATA, add(CFA_XSP16, literal(-19)))
          CFI (cfiCond123) V0 load(1, XDATA, add(CFA_XSP16, literal(-18)))
          CFI (cfiCond123) V1 load(1, XDATA, add(CFA_XSP16, literal(-17)))
          CFI (cfiCond123) V2 load(1, XDATA, add(CFA_XSP16, literal(-16)))
          CFI (cfiCond123) V3 load(1, XDATA, add(CFA_XSP16, literal(-15)))
          CFI (cfiCond123) V4 load(1, XDATA, add(CFA_XSP16, literal(-14)))
          CFI (cfiCond123) V5 load(1, XDATA, add(CFA_XSP16, literal(-13)))
          CFI (cfiCond123) V6 load(1, XDATA, add(CFA_XSP16, literal(-12)))
          CFI (cfiCond123) V7 load(1, XDATA, add(CFA_XSP16, literal(-11)))
          CFI (cfiCond123) V8 load(1, XDATA, add(CFA_XSP16, literal(-10)))
          CFI (cfiCond123) V9 load(1, XDATA, add(CFA_XSP16, literal(-9)))
          CFI (cfiCond123) V10 load(1, XDATA, add(CFA_XSP16, literal(-8)))
          CFI (cfiCond123) V11 load(1, XDATA, add(CFA_XSP16, literal(-7)))
          CFI (cfiCond123) R7 load(1, XDATA, add(CFA_XSP16, literal(-6)))
          CFI (cfiCond123) ?RET_LOW load(1, XDATA, add(CFA_XSP16, literal(-5)))
          CFI (cfiCond123) ?RET_HIGH load(1, XDATA, add(CFA_XSP16, literal(-4)))
          CFI (cfiCond123) ?BRET_EXT load(1, XDATA, add(CFA_XSP16, literal(-3)))
          CFI (cfiCond123) DPL0 load(1, XDATA, add(CFA_XSP16, literal(-2)))
          CFI (cfiCond123) DPH0 load(1, XDATA, add(CFA_XSP16, literal(-1)))
          CFI (cfiCond123) CFA_SP SP+0
          CFI (cfiCond123) CFA_XSP16 add(XSP16, 28)
          CFI Block cfiCond124 Using cfiCommon0
          CFI (cfiCond124) Function SampleApp_Tester_calibrationOffsetAMessage
          CFI (cfiCond124) Conditional ??CrossCallReturnLabel_10
          CFI (cfiCond124) R6 load(1, XDATA, add(CFA_XSP16, literal(-20)))
          CFI (cfiCond124) VB load(1, XDATA, add(CFA_XSP16, literal(-19)))
          CFI (cfiCond124) V0 load(1, XDATA, add(CFA_XSP16, literal(-18)))
          CFI (cfiCond124) V1 load(1, XDATA, add(CFA_XSP16, literal(-17)))
          CFI (cfiCond124) V2 load(1, XDATA, add(CFA_XSP16, literal(-16)))
          CFI (cfiCond124) V3 load(1, XDATA, add(CFA_XSP16, literal(-15)))
          CFI (cfiCond124) V4 load(1, XDATA, add(CFA_XSP16, literal(-14)))
          CFI (cfiCond124) V5 load(1, XDATA, add(CFA_XSP16, literal(-13)))
          CFI (cfiCond124) V6 load(1, XDATA, add(CFA_XSP16, literal(-12)))
          CFI (cfiCond124) V7 load(1, XDATA, add(CFA_XSP16, literal(-11)))
          CFI (cfiCond124) V8 load(1, XDATA, add(CFA_XSP16, literal(-10)))
          CFI (cfiCond124) V9 load(1, XDATA, add(CFA_XSP16, literal(-9)))
          CFI (cfiCond124) V10 load(1, XDATA, add(CFA_XSP16, literal(-8)))
          CFI (cfiCond124) V11 load(1, XDATA, add(CFA_XSP16, literal(-7)))
          CFI (cfiCond124) R7 load(1, XDATA, add(CFA_XSP16, literal(-6)))
          CFI (cfiCond124) ?RET_LOW load(1, XDATA, add(CFA_XSP16, literal(-5)))
          CFI (cfiCond124) ?RET_HIGH load(1, XDATA, add(CFA_XSP16, literal(-4)))
          CFI (cfiCond124) ?BRET_EXT load(1, XDATA, add(CFA_XSP16, literal(-3)))
          CFI (cfiCond124) DPL0 load(1, XDATA, add(CFA_XSP16, literal(-2)))
          CFI (cfiCond124) DPH0 load(1, XDATA, add(CFA_XSP16, literal(-1)))
          CFI (cfiCond124) CFA_SP SP+0
          CFI (cfiCond124) CFA_XSP16 add(XSP16, 28)
          CFI Block cfiPicker125 Using cfiCommon1
          CFI (cfiPicker125) NoFunction
          CFI (cfiPicker125) Picker
        MOV     A,#0x2e
        MOVX    @DPTR,A
        MOV     A,R5
        LCALL   ??Subroutine29_0 & 0xFFFF
??CrossCallReturnLabel_47:
        RET
          CFI EndBlock cfiCond121
          CFI EndBlock cfiCond122
          CFI EndBlock cfiCond123
          CFI EndBlock cfiCond124
          CFI EndBlock cfiPicker125

        RSEG BANKED_CODE:CODE:NOROOT(0)
?Subroutine4:
          CFI Block cfiCond126 Using cfiCommon0
          CFI Function SampleApp_Router_calibrationNMessage
          CFI Conditional ??CrossCallReturnLabel_0
          CFI R6 load(1, XDATA, add(CFA_XSP16, literal(-16)))
          CFI VB load(1, XDATA, add(CFA_XSP16, literal(-15)))
          CFI V0 load(1, XDATA, add(CFA_XSP16, literal(-14)))
          CFI V1 load(1, XDATA, add(CFA_XSP16, literal(-13)))
          CFI V2 load(1, XDATA, add(CFA_XSP16, literal(-12)))
          CFI V3 load(1, XDATA, add(CFA_XSP16, literal(-11)))
          CFI V4 load(1, XDATA, add(CFA_XSP16, literal(-10)))
          CFI V5 load(1, XDATA, add(CFA_XSP16, literal(-9)))
          CFI V6 load(1, XDATA, add(CFA_XSP16, literal(-8)))
          CFI V7 load(1, XDATA, add(CFA_XSP16, literal(-7)))
          CFI R7 load(1, XDATA, add(CFA_XSP16, literal(-6)))
          CFI ?RET_LOW load(1, XDATA, add(CFA_XSP16, literal(-5)))
          CFI ?RET_HIGH load(1, XDATA, add(CFA_XSP16, literal(-4)))
          CFI ?BRET_EXT load(1, XDATA, add(CFA_XSP16, literal(-3)))
          CFI DPL0 load(1, XDATA, add(CFA_XSP16, literal(-2)))
          CFI DPH0 load(1, XDATA, add(CFA_XSP16, literal(-1)))
          CFI CFA_SP SP+0
          CFI CFA_XSP16 add(XSP16, 24)
          CFI Block cfiCond127 Using cfiCommon0
          CFI (cfiCond127) Function SampleApp_Router_calibrationAMessage
          CFI (cfiCond127) Conditional ??CrossCallReturnLabel_1
          CFI (cfiCond127) R6 load(1, XDATA, add(CFA_XSP16, literal(-20)))
          CFI (cfiCond127) VB load(1, XDATA, add(CFA_XSP16, literal(-19)))
          CFI (cfiCond127) V0 load(1, XDATA, add(CFA_XSP16, literal(-18)))
          CFI (cfiCond127) V1 load(1, XDATA, add(CFA_XSP16, literal(-17)))
          CFI (cfiCond127) V2 load(1, XDATA, add(CFA_XSP16, literal(-16)))
          CFI (cfiCond127) V3 load(1, XDATA, add(CFA_XSP16, literal(-15)))
          CFI (cfiCond127) V4 load(1, XDATA, add(CFA_XSP16, literal(-14)))
          CFI (cfiCond127) V5 load(1, XDATA, add(CFA_XSP16, literal(-13)))
          CFI (cfiCond127) V6 load(1, XDATA, add(CFA_XSP16, literal(-12)))
          CFI (cfiCond127) V7 load(1, XDATA, add(CFA_XSP16, literal(-11)))
          CFI (cfiCond127) V8 load(1, XDATA, add(CFA_XSP16, literal(-10)))
          CFI (cfiCond127) V9 load(1, XDATA, add(CFA_XSP16, literal(-9)))
          CFI (cfiCond127) V10 load(1, XDATA, add(CFA_XSP16, literal(-8)))
          CFI (cfiCond127) V11 load(1, XDATA, add(CFA_XSP16, literal(-7)))
          CFI (cfiCond127) R7 load(1, XDATA, add(CFA_XSP16, literal(-6)))
          CFI (cfiCond127) ?RET_LOW load(1, XDATA, add(CFA_XSP16, literal(-5)))
          CFI (cfiCond127) ?RET_HIGH load(1, XDATA, add(CFA_XSP16, literal(-4)))
          CFI (cfiCond127) ?BRET_EXT load(1, XDATA, add(CFA_XSP16, literal(-3)))
          CFI (cfiCond127) DPL0 load(1, XDATA, add(CFA_XSP16, literal(-2)))
          CFI (cfiCond127) DPH0 load(1, XDATA, add(CFA_XSP16, literal(-1)))
          CFI (cfiCond127) CFA_SP SP+0
          CFI (cfiCond127) CFA_XSP16 add(XSP16, 27)
          CFI Block cfiCond128 Using cfiCommon0
          CFI (cfiCond128) Function SampleApp_Tester_calibrationAMessage
          CFI (cfiCond128) Conditional ??CrossCallReturnLabel_2
          CFI (cfiCond128) R6 load(1, XDATA, add(CFA_XSP16, literal(-20)))
          CFI (cfiCond128) VB load(1, XDATA, add(CFA_XSP16, literal(-19)))
          CFI (cfiCond128) V0 load(1, XDATA, add(CFA_XSP16, literal(-18)))
          CFI (cfiCond128) V1 load(1, XDATA, add(CFA_XSP16, literal(-17)))
          CFI (cfiCond128) V2 load(1, XDATA, add(CFA_XSP16, literal(-16)))
          CFI (cfiCond128) V3 load(1, XDATA, add(CFA_XSP16, literal(-15)))
          CFI (cfiCond128) V4 load(1, XDATA, add(CFA_XSP16, literal(-14)))
          CFI (cfiCond128) V5 load(1, XDATA, add(CFA_XSP16, literal(-13)))
          CFI (cfiCond128) V6 load(1, XDATA, add(CFA_XSP16, literal(-12)))
          CFI (cfiCond128) V7 load(1, XDATA, add(CFA_XSP16, literal(-11)))
          CFI (cfiCond128) V8 load(1, XDATA, add(CFA_XSP16, literal(-10)))
          CFI (cfiCond128) V9 load(1, XDATA, add(CFA_XSP16, literal(-9)))
          CFI (cfiCond128) V10 load(1, XDATA, add(CFA_XSP16, literal(-8)))
          CFI (cfiCond128) V11 load(1, XDATA, add(CFA_XSP16, literal(-7)))
          CFI (cfiCond128) R7 load(1, XDATA, add(CFA_XSP16, literal(-6)))
          CFI (cfiCond128) ?RET_LOW load(1, XDATA, add(CFA_XSP16, literal(-5)))
          CFI (cfiCond128) ?RET_HIGH load(1, XDATA, add(CFA_XSP16, literal(-4)))
          CFI (cfiCond128) ?BRET_EXT load(1, XDATA, add(CFA_XSP16, literal(-3)))
          CFI (cfiCond128) DPL0 load(1, XDATA, add(CFA_XSP16, literal(-2)))
          CFI (cfiCond128) DPH0 load(1, XDATA, add(CFA_XSP16, literal(-1)))
          CFI (cfiCond128) CFA_SP SP+0
          CFI (cfiCond128) CFA_XSP16 add(XSP16, 27)
          CFI Block cfiCond129 Using cfiCommon0
          CFI (cfiCond129) Function SampleApp_Tester_calibration_differentAMessage
          CFI (cfiCond129) Conditional ??CrossCallReturnLabel_3
          CFI (cfiCond129) R6 load(1, XDATA, add(CFA_XSP16, literal(-20)))
          CFI (cfiCond129) VB load(1, XDATA, add(CFA_XSP16, literal(-19)))
          CFI (cfiCond129) V0 load(1, XDATA, add(CFA_XSP16, literal(-18)))
          CFI (cfiCond129) V1 load(1, XDATA, add(CFA_XSP16, literal(-17)))
          CFI (cfiCond129) V2 load(1, XDATA, add(CFA_XSP16, literal(-16)))
          CFI (cfiCond129) V3 load(1, XDATA, add(CFA_XSP16, literal(-15)))
          CFI (cfiCond129) V4 load(1, XDATA, add(CFA_XSP16, literal(-14)))
          CFI (cfiCond129) V5 load(1, XDATA, add(CFA_XSP16, literal(-13)))
          CFI (cfiCond129) V6 load(1, XDATA, add(CFA_XSP16, literal(-12)))
          CFI (cfiCond129) V7 load(1, XDATA, add(CFA_XSP16, literal(-11)))
          CFI (cfiCond129) V8 load(1, XDATA, add(CFA_XSP16, literal(-10)))
          CFI (cfiCond129) V9 load(1, XDATA, add(CFA_XSP16, literal(-9)))
          CFI (cfiCond129) V10 load(1, XDATA, add(CFA_XSP16, literal(-8)))
          CFI (cfiCond129) V11 load(1, XDATA, add(CFA_XSP16, literal(-7)))
          CFI (cfiCond129) R7 load(1, XDATA, add(CFA_XSP16, literal(-6)))
          CFI (cfiCond129) ?RET_LOW load(1, XDATA, add(CFA_XSP16, literal(-5)))
          CFI (cfiCond129) ?RET_HIGH load(1, XDATA, add(CFA_XSP16, literal(-4)))
          CFI (cfiCond129) ?BRET_EXT load(1, XDATA, add(CFA_XSP16, literal(-3)))
          CFI (cfiCond129) DPL0 load(1, XDATA, add(CFA_XSP16, literal(-2)))
          CFI (cfiCond129) DPH0 load(1, XDATA, add(CFA_XSP16, literal(-1)))
          CFI (cfiCond129) CFA_SP SP+0
          CFI (cfiCond129) CFA_XSP16 add(XSP16, 28)
          CFI Block cfiCond130 Using cfiCommon0
          CFI (cfiCond130) Function SampleApp_Tester_calibrationOffsetAMessage
          CFI (cfiCond130) Conditional ??CrossCallReturnLabel_3
          CFI (cfiCond130) R6 load(1, XDATA, add(CFA_XSP16, literal(-20)))
          CFI (cfiCond130) VB load(1, XDATA, add(CFA_XSP16, literal(-19)))
          CFI (cfiCond130) V0 load(1, XDATA, add(CFA_XSP16, literal(-18)))
          CFI (cfiCond130) V1 load(1, XDATA, add(CFA_XSP16, literal(-17)))
          CFI (cfiCond130) V2 load(1, XDATA, add(CFA_XSP16, literal(-16)))
          CFI (cfiCond130) V3 load(1, XDATA, add(CFA_XSP16, literal(-15)))
          CFI (cfiCond130) V4 load(1, XDATA, add(CFA_XSP16, literal(-14)))
          CFI (cfiCond130) V5 load(1, XDATA, add(CFA_XSP16, literal(-13)))
          CFI (cfiCond130) V6 load(1, XDATA, add(CFA_XSP16, literal(-12)))
          CFI (cfiCond130) V7 load(1, XDATA, add(CFA_XSP16, literal(-11)))
          CFI (cfiCond130) V8 load(1, XDATA, add(CFA_XSP16, literal(-10)))
          CFI (cfiCond130) V9 load(1, XDATA, add(CFA_XSP16, literal(-9)))
          CFI (cfiCond130) V10 load(1, XDATA, add(CFA_XSP16, literal(-8)))
          CFI (cfiCond130) V11 load(1, XDATA, add(CFA_XSP16, literal(-7)))
          CFI (cfiCond130) R7 load(1, XDATA, add(CFA_XSP16, literal(-6)))
          CFI (cfiCond130) ?RET_LOW load(1, XDATA, add(CFA_XSP16, literal(-5)))
          CFI (cfiCond130) ?RET_HIGH load(1, XDATA, add(CFA_XSP16, literal(-4)))
          CFI (cfiCond130) ?BRET_EXT load(1, XDATA, add(CFA_XSP16, literal(-3)))
          CFI (cfiCond130) DPL0 load(1, XDATA, add(CFA_XSP16, literal(-2)))
          CFI (cfiCond130) DPH0 load(1, XDATA, add(CFA_XSP16, literal(-1)))
          CFI (cfiCond130) CFA_SP SP+0
          CFI (cfiCond130) CFA_XSP16 add(XSP16, 28)
          CFI Block cfiCond131 Using cfiCommon0
          CFI (cfiCond131) Function SampleApp_Quadrotor_SendLocation
          CFI (cfiCond131) Conditional ??CrossCallReturnLabel_4
          CFI (cfiCond131) R6 load(1, XDATA, add(CFA_XSP16, literal(-20)))
          CFI (cfiCond131) VB load(1, XDATA, add(CFA_XSP16, literal(-19)))
          CFI (cfiCond131) V0 load(1, XDATA, add(CFA_XSP16, literal(-18)))
          CFI (cfiCond131) V1 load(1, XDATA, add(CFA_XSP16, literal(-17)))
          CFI (cfiCond131) V2 load(1, XDATA, add(CFA_XSP16, literal(-16)))
          CFI (cfiCond131) V3 load(1, XDATA, add(CFA_XSP16, literal(-15)))
          CFI (cfiCond131) V4 load(1, XDATA, add(CFA_XSP16, literal(-14)))
          CFI (cfiCond131) V5 load(1, XDATA, add(CFA_XSP16, literal(-13)))
          CFI (cfiCond131) V6 load(1, XDATA, add(CFA_XSP16, literal(-12)))
          CFI (cfiCond131) V7 load(1, XDATA, add(CFA_XSP16, literal(-11)))
          CFI (cfiCond131) V8 load(1, XDATA, add(CFA_XSP16, literal(-10)))
          CFI (cfiCond131) V9 load(1, XDATA, add(CFA_XSP16, literal(-9)))
          CFI (cfiCond131) V10 load(1, XDATA, add(CFA_XSP16, literal(-8)))
          CFI (cfiCond131) V11 load(1, XDATA, add(CFA_XSP16, literal(-7)))
          CFI (cfiCond131) R7 load(1, XDATA, add(CFA_XSP16, literal(-6)))
          CFI (cfiCond131) ?RET_LOW load(1, XDATA, add(CFA_XSP16, literal(-5)))
          CFI (cfiCond131) ?RET_HIGH load(1, XDATA, add(CFA_XSP16, literal(-4)))
          CFI (cfiCond131) ?BRET_EXT load(1, XDATA, add(CFA_XSP16, literal(-3)))
          CFI (cfiCond131) DPL0 load(1, XDATA, add(CFA_XSP16, literal(-2)))
          CFI (cfiCond131) DPH0 load(1, XDATA, add(CFA_XSP16, literal(-1)))
          CFI (cfiCond131) CFA_SP SP+0
          CFI (cfiCond131) CFA_XSP16 add(XSP16, 46)
          CFI Block cfiPicker132 Using cfiCommon1
          CFI (cfiPicker132) NoFunction
          CFI (cfiPicker132) Picker
        LCALL   ?Subroutine22 & 0xFFFF
??CrossCallReturnLabel_32:
        MOV     R0,#?V0 + 0
        RET
          CFI EndBlock cfiCond126
          CFI EndBlock cfiCond127
          CFI EndBlock cfiCond128
          CFI EndBlock cfiCond129
          CFI EndBlock cfiCond130
          CFI EndBlock cfiCond131
          CFI EndBlock cfiPicker132

        RSEG BANKED_CODE:CODE:NOROOT(0)
?Subroutine22:
          CFI Block cfiCond133 Using cfiCommon0
          CFI Function SampleApp_Router_calibrationAMessage
          CFI Conditional ??CrossCallReturnLabel_31, ??CrossCallReturnLabel_11
          CFI R6 load(1, XDATA, add(CFA_XSP16, literal(-20)))
          CFI VB load(1, XDATA, add(CFA_XSP16, literal(-19)))
          CFI V0 load(1, XDATA, add(CFA_XSP16, literal(-18)))
          CFI V1 load(1, XDATA, add(CFA_XSP16, literal(-17)))
          CFI V2 load(1, XDATA, add(CFA_XSP16, literal(-16)))
          CFI V3 load(1, XDATA, add(CFA_XSP16, literal(-15)))
          CFI V4 load(1, XDATA, add(CFA_XSP16, literal(-14)))
          CFI V5 load(1, XDATA, add(CFA_XSP16, literal(-13)))
          CFI V6 load(1, XDATA, add(CFA_XSP16, literal(-12)))
          CFI V7 load(1, XDATA, add(CFA_XSP16, literal(-11)))
          CFI V8 load(1, XDATA, add(CFA_XSP16, literal(-10)))
          CFI V9 load(1, XDATA, add(CFA_XSP16, literal(-9)))
          CFI V10 load(1, XDATA, add(CFA_XSP16, literal(-8)))
          CFI V11 load(1, XDATA, add(CFA_XSP16, literal(-7)))
          CFI R7 load(1, XDATA, add(CFA_XSP16, literal(-6)))
          CFI ?RET_LOW load(1, XDATA, add(CFA_XSP16, literal(-5)))
          CFI ?RET_HIGH load(1, XDATA, add(CFA_XSP16, literal(-4)))
          CFI ?BRET_EXT load(1, XDATA, add(CFA_XSP16, literal(-3)))
          CFI DPL0 load(1, XDATA, add(CFA_XSP16, literal(-2)))
          CFI DPH0 load(1, XDATA, add(CFA_XSP16, literal(-1)))
          CFI CFA_SP SP+0
          CFI CFA_XSP16 add(XSP16, 27)
          CFI Block cfiCond134 Using cfiCommon0
          CFI (cfiCond134) Function SampleApp_Tester_calibrationAMessage
          CFI (cfiCond134) Conditional ??CrossCallReturnLabel_31, ??CrossCallReturnLabel_12
          CFI (cfiCond134) R6 load(1, XDATA, add(CFA_XSP16, literal(-20)))
          CFI (cfiCond134) VB load(1, XDATA, add(CFA_XSP16, literal(-19)))
          CFI (cfiCond134) V0 load(1, XDATA, add(CFA_XSP16, literal(-18)))
          CFI (cfiCond134) V1 load(1, XDATA, add(CFA_XSP16, literal(-17)))
          CFI (cfiCond134) V2 load(1, XDATA, add(CFA_XSP16, literal(-16)))
          CFI (cfiCond134) V3 load(1, XDATA, add(CFA_XSP16, literal(-15)))
          CFI (cfiCond134) V4 load(1, XDATA, add(CFA_XSP16, literal(-14)))
          CFI (cfiCond134) V5 load(1, XDATA, add(CFA_XSP16, literal(-13)))
          CFI (cfiCond134) V6 load(1, XDATA, add(CFA_XSP16, literal(-12)))
          CFI (cfiCond134) V7 load(1, XDATA, add(CFA_XSP16, literal(-11)))
          CFI (cfiCond134) V8 load(1, XDATA, add(CFA_XSP16, literal(-10)))
          CFI (cfiCond134) V9 load(1, XDATA, add(CFA_XSP16, literal(-9)))
          CFI (cfiCond134) V10 load(1, XDATA, add(CFA_XSP16, literal(-8)))
          CFI (cfiCond134) V11 load(1, XDATA, add(CFA_XSP16, literal(-7)))
          CFI (cfiCond134) R7 load(1, XDATA, add(CFA_XSP16, literal(-6)))
          CFI (cfiCond134) ?RET_LOW load(1, XDATA, add(CFA_XSP16, literal(-5)))
          CFI (cfiCond134) ?RET_HIGH load(1, XDATA, add(CFA_XSP16, literal(-4)))
          CFI (cfiCond134) ?BRET_EXT load(1, XDATA, add(CFA_XSP16, literal(-3)))
          CFI (cfiCond134) DPL0 load(1, XDATA, add(CFA_XSP16, literal(-2)))
          CFI (cfiCond134) DPH0 load(1, XDATA, add(CFA_XSP16, literal(-1)))
          CFI (cfiCond134) CFA_SP SP+0
          CFI (cfiCond134) CFA_XSP16 add(XSP16, 27)
          CFI Block cfiCond135 Using cfiCommon0
          CFI (cfiCond135) Function SampleApp_Router_calibrationNMessage
          CFI (cfiCond135) Conditional ??CrossCallReturnLabel_32, ??CrossCallReturnLabel_0
          CFI (cfiCond135) R6 load(1, XDATA, add(CFA_XSP16, literal(-16)))
          CFI (cfiCond135) VB load(1, XDATA, add(CFA_XSP16, literal(-15)))
          CFI (cfiCond135) V0 load(1, XDATA, add(CFA_XSP16, literal(-14)))
          CFI (cfiCond135) V1 load(1, XDATA, add(CFA_XSP16, literal(-13)))
          CFI (cfiCond135) V2 load(1, XDATA, add(CFA_XSP16, literal(-12)))
          CFI (cfiCond135) V3 load(1, XDATA, add(CFA_XSP16, literal(-11)))
          CFI (cfiCond135) V4 load(1, XDATA, add(CFA_XSP16, literal(-10)))
          CFI (cfiCond135) V5 load(1, XDATA, add(CFA_XSP16, literal(-9)))
          CFI (cfiCond135) V6 load(1, XDATA, add(CFA_XSP16, literal(-8)))
          CFI (cfiCond135) V7 load(1, XDATA, add(CFA_XSP16, literal(-7)))
          CFI (cfiCond135) R7 load(1, XDATA, add(CFA_XSP16, literal(-6)))
          CFI (cfiCond135) ?RET_LOW load(1, XDATA, add(CFA_XSP16, literal(-5)))
          CFI (cfiCond135) ?RET_HIGH load(1, XDATA, add(CFA_XSP16, literal(-4)))
          CFI (cfiCond135) ?BRET_EXT load(1, XDATA, add(CFA_XSP16, literal(-3)))
          CFI (cfiCond135) DPL0 load(1, XDATA, add(CFA_XSP16, literal(-2)))
          CFI (cfiCond135) DPH0 load(1, XDATA, add(CFA_XSP16, literal(-1)))
          CFI (cfiCond135) CFA_SP SP+0
          CFI (cfiCond135) CFA_XSP16 add(XSP16, 24)
          CFI Block cfiCond136 Using cfiCommon0
          CFI (cfiCond136) Function SampleApp_Router_calibrationAMessage
          CFI (cfiCond136) Conditional ??CrossCallReturnLabel_32, ??CrossCallReturnLabel_1
          CFI (cfiCond136) R6 load(1, XDATA, add(CFA_XSP16, literal(-20)))
          CFI (cfiCond136) VB load(1, XDATA, add(CFA_XSP16, literal(-19)))
          CFI (cfiCond136) V0 load(1, XDATA, add(CFA_XSP16, literal(-18)))
          CFI (cfiCond136) V1 load(1, XDATA, add(CFA_XSP16, literal(-17)))
          CFI (cfiCond136) V2 load(1, XDATA, add(CFA_XSP16, literal(-16)))
          CFI (cfiCond136) V3 load(1, XDATA, add(CFA_XSP16, literal(-15)))
          CFI (cfiCond136) V4 load(1, XDATA, add(CFA_XSP16, literal(-14)))
          CFI (cfiCond136) V5 load(1, XDATA, add(CFA_XSP16, literal(-13)))
          CFI (cfiCond136) V6 load(1, XDATA, add(CFA_XSP16, literal(-12)))
          CFI (cfiCond136) V7 load(1, XDATA, add(CFA_XSP16, literal(-11)))
          CFI (cfiCond136) V8 load(1, XDATA, add(CFA_XSP16, literal(-10)))
          CFI (cfiCond136) V9 load(1, XDATA, add(CFA_XSP16, literal(-9)))
          CFI (cfiCond136) V10 load(1, XDATA, add(CFA_XSP16, literal(-8)))
          CFI (cfiCond136) V11 load(1, XDATA, add(CFA_XSP16, literal(-7)))
          CFI (cfiCond136) R7 load(1, XDATA, add(CFA_XSP16, literal(-6)))
          CFI (cfiCond136) ?RET_LOW load(1, XDATA, add(CFA_XSP16, literal(-5)))
          CFI (cfiCond136) ?RET_HIGH load(1, XDATA, add(CFA_XSP16, literal(-4)))
          CFI (cfiCond136) ?BRET_EXT load(1, XDATA, add(CFA_XSP16, literal(-3)))
          CFI (cfiCond136) DPL0 load(1, XDATA, add(CFA_XSP16, literal(-2)))
          CFI (cfiCond136) DPH0 load(1, XDATA, add(CFA_XSP16, literal(-1)))
          CFI (cfiCond136) CFA_SP SP+0
          CFI (cfiCond136) CFA_XSP16 add(XSP16, 27)
          CFI Block cfiCond137 Using cfiCommon0
          CFI (cfiCond137) Function SampleApp_Tester_calibrationAMessage
          CFI (cfiCond137) Conditional ??CrossCallReturnLabel_32, ??CrossCallReturnLabel_2
          CFI (cfiCond137) R6 load(1, XDATA, add(CFA_XSP16, literal(-20)))
          CFI (cfiCond137) VB load(1, XDATA, add(CFA_XSP16, literal(-19)))
          CFI (cfiCond137) V0 load(1, XDATA, add(CFA_XSP16, literal(-18)))
          CFI (cfiCond137) V1 load(1, XDATA, add(CFA_XSP16, literal(-17)))
          CFI (cfiCond137) V2 load(1, XDATA, add(CFA_XSP16, literal(-16)))
          CFI (cfiCond137) V3 load(1, XDATA, add(CFA_XSP16, literal(-15)))
          CFI (cfiCond137) V4 load(1, XDATA, add(CFA_XSP16, literal(-14)))
          CFI (cfiCond137) V5 load(1, XDATA, add(CFA_XSP16, literal(-13)))
          CFI (cfiCond137) V6 load(1, XDATA, add(CFA_XSP16, literal(-12)))
          CFI (cfiCond137) V7 load(1, XDATA, add(CFA_XSP16, literal(-11)))
          CFI (cfiCond137) V8 load(1, XDATA, add(CFA_XSP16, literal(-10)))
          CFI (cfiCond137) V9 load(1, XDATA, add(CFA_XSP16, literal(-9)))
          CFI (cfiCond137) V10 load(1, XDATA, add(CFA_XSP16, literal(-8)))
          CFI (cfiCond137) V11 load(1, XDATA, add(CFA_XSP16, literal(-7)))
          CFI (cfiCond137) R7 load(1, XDATA, add(CFA_XSP16, literal(-6)))
          CFI (cfiCond137) ?RET_LOW load(1, XDATA, add(CFA_XSP16, literal(-5)))
          CFI (cfiCond137) ?RET_HIGH load(1, XDATA, add(CFA_XSP16, literal(-4)))
          CFI (cfiCond137) ?BRET_EXT load(1, XDATA, add(CFA_XSP16, literal(-3)))
          CFI (cfiCond137) DPL0 load(1, XDATA, add(CFA_XSP16, literal(-2)))
          CFI (cfiCond137) DPH0 load(1, XDATA, add(CFA_XSP16, literal(-1)))
          CFI (cfiCond137) CFA_SP SP+0
          CFI (cfiCond137) CFA_XSP16 add(XSP16, 27)
          CFI Block cfiCond138 Using cfiCommon0
          CFI (cfiCond138) Function SampleApp_Tester_calibration_differentAMessage
          CFI (cfiCond138) Conditional ??CrossCallReturnLabel_32, ??CrossCallReturnLabel_3
          CFI (cfiCond138) R6 load(1, XDATA, add(CFA_XSP16, literal(-20)))
          CFI (cfiCond138) VB load(1, XDATA, add(CFA_XSP16, literal(-19)))
          CFI (cfiCond138) V0 load(1, XDATA, add(CFA_XSP16, literal(-18)))
          CFI (cfiCond138) V1 load(1, XDATA, add(CFA_XSP16, literal(-17)))
          CFI (cfiCond138) V2 load(1, XDATA, add(CFA_XSP16, literal(-16)))
          CFI (cfiCond138) V3 load(1, XDATA, add(CFA_XSP16, literal(-15)))
          CFI (cfiCond138) V4 load(1, XDATA, add(CFA_XSP16, literal(-14)))
          CFI (cfiCond138) V5 load(1, XDATA, add(CFA_XSP16, literal(-13)))
          CFI (cfiCond138) V6 load(1, XDATA, add(CFA_XSP16, literal(-12)))
          CFI (cfiCond138) V7 load(1, XDATA, add(CFA_XSP16, literal(-11)))
          CFI (cfiCond138) V8 load(1, XDATA, add(CFA_XSP16, literal(-10)))
          CFI (cfiCond138) V9 load(1, XDATA, add(CFA_XSP16, literal(-9)))
          CFI (cfiCond138) V10 load(1, XDATA, add(CFA_XSP16, literal(-8)))
          CFI (cfiCond138) V11 load(1, XDATA, add(CFA_XSP16, literal(-7)))
          CFI (cfiCond138) R7 load(1, XDATA, add(CFA_XSP16, literal(-6)))
          CFI (cfiCond138) ?RET_LOW load(1, XDATA, add(CFA_XSP16, literal(-5)))
          CFI (cfiCond138) ?RET_HIGH load(1, XDATA, add(CFA_XSP16, literal(-4)))
          CFI (cfiCond138) ?BRET_EXT load(1, XDATA, add(CFA_XSP16, literal(-3)))
          CFI (cfiCond138) DPL0 load(1, XDATA, add(CFA_XSP16, literal(-2)))
          CFI (cfiCond138) DPH0 load(1, XDATA, add(CFA_XSP16, literal(-1)))
          CFI (cfiCond138) CFA_SP SP+0
          CFI (cfiCond138) CFA_XSP16 add(XSP16, 28)
          CFI Block cfiCond139 Using cfiCommon0
          CFI (cfiCond139) Function SampleApp_Tester_calibrationOffsetAMessage
          CFI (cfiCond139) Conditional ??CrossCallReturnLabel_32, ??CrossCallReturnLabel_3
          CFI (cfiCond139) R6 load(1, XDATA, add(CFA_XSP16, literal(-20)))
          CFI (cfiCond139) VB load(1, XDATA, add(CFA_XSP16, literal(-19)))
          CFI (cfiCond139) V0 load(1, XDATA, add(CFA_XSP16, literal(-18)))
          CFI (cfiCond139) V1 load(1, XDATA, add(CFA_XSP16, literal(-17)))
          CFI (cfiCond139) V2 load(1, XDATA, add(CFA_XSP16, literal(-16)))
          CFI (cfiCond139) V3 load(1, XDATA, add(CFA_XSP16, literal(-15)))
          CFI (cfiCond139) V4 load(1, XDATA, add(CFA_XSP16, literal(-14)))
          CFI (cfiCond139) V5 load(1, XDATA, add(CFA_XSP16, literal(-13)))
          CFI (cfiCond139) V6 load(1, XDATA, add(CFA_XSP16, literal(-12)))
          CFI (cfiCond139) V7 load(1, XDATA, add(CFA_XSP16, literal(-11)))
          CFI (cfiCond139) V8 load(1, XDATA, add(CFA_XSP16, literal(-10)))
          CFI (cfiCond139) V9 load(1, XDATA, add(CFA_XSP16, literal(-9)))
          CFI (cfiCond139) V10 load(1, XDATA, add(CFA_XSP16, literal(-8)))
          CFI (cfiCond139) V11 load(1, XDATA, add(CFA_XSP16, literal(-7)))
          CFI (cfiCond139) R7 load(1, XDATA, add(CFA_XSP16, literal(-6)))
          CFI (cfiCond139) ?RET_LOW load(1, XDATA, add(CFA_XSP16, literal(-5)))
          CFI (cfiCond139) ?RET_HIGH load(1, XDATA, add(CFA_XSP16, literal(-4)))
          CFI (cfiCond139) ?BRET_EXT load(1, XDATA, add(CFA_XSP16, literal(-3)))
          CFI (cfiCond139) DPL0 load(1, XDATA, add(CFA_XSP16, literal(-2)))
          CFI (cfiCond139) DPH0 load(1, XDATA, add(CFA_XSP16, literal(-1)))
          CFI (cfiCond139) CFA_SP SP+0
          CFI (cfiCond139) CFA_XSP16 add(XSP16, 28)
          CFI Block cfiCond140 Using cfiCommon0
          CFI (cfiCond140) Function SampleApp_Quadrotor_SendLocation
          CFI (cfiCond140) Conditional ??CrossCallReturnLabel_32, ??CrossCallReturnLabel_4
          CFI (cfiCond140) R6 load(1, XDATA, add(CFA_XSP16, literal(-20)))
          CFI (cfiCond140) VB load(1, XDATA, add(CFA_XSP16, literal(-19)))
          CFI (cfiCond140) V0 load(1, XDATA, add(CFA_XSP16, literal(-18)))
          CFI (cfiCond140) V1 load(1, XDATA, add(CFA_XSP16, literal(-17)))
          CFI (cfiCond140) V2 load(1, XDATA, add(CFA_XSP16, literal(-16)))
          CFI (cfiCond140) V3 load(1, XDATA, add(CFA_XSP16, literal(-15)))
          CFI (cfiCond140) V4 load(1, XDATA, add(CFA_XSP16, literal(-14)))
          CFI (cfiCond140) V5 load(1, XDATA, add(CFA_XSP16, literal(-13)))
          CFI (cfiCond140) V6 load(1, XDATA, add(CFA_XSP16, literal(-12)))
          CFI (cfiCond140) V7 load(1, XDATA, add(CFA_XSP16, literal(-11)))
          CFI (cfiCond140) V8 load(1, XDATA, add(CFA_XSP16, literal(-10)))
          CFI (cfiCond140) V9 load(1, XDATA, add(CFA_XSP16, literal(-9)))
          CFI (cfiCond140) V10 load(1, XDATA, add(CFA_XSP16, literal(-8)))
          CFI (cfiCond140) V11 load(1, XDATA, add(CFA_XSP16, literal(-7)))
          CFI (cfiCond140) R7 load(1, XDATA, add(CFA_XSP16, literal(-6)))
          CFI (cfiCond140) ?RET_LOW load(1, XDATA, add(CFA_XSP16, literal(-5)))
          CFI (cfiCond140) ?RET_HIGH load(1, XDATA, add(CFA_XSP16, literal(-4)))
          CFI (cfiCond140) ?BRET_EXT load(1, XDATA, add(CFA_XSP16, literal(-3)))
          CFI (cfiCond140) DPL0 load(1, XDATA, add(CFA_XSP16, literal(-2)))
          CFI (cfiCond140) DPH0 load(1, XDATA, add(CFA_XSP16, literal(-1)))
          CFI (cfiCond140) CFA_SP SP+0
          CFI (cfiCond140) CFA_XSP16 add(XSP16, 46)
          CFI Block cfiPicker141 Using cfiCommon1
          CFI (cfiPicker141) NoFunction
          CFI (cfiPicker141) Picker
        MOVX    @DPTR,A
        MOV     ?V0 + 0,?V0 + 4
        MOV     ?V0 + 1,?V0 + 5
        MOV     ?V0 + 2,?V0 + 6
        MOV     ?V0 + 3,?V0 + 7
        RET
          CFI EndBlock cfiCond133
          CFI EndBlock cfiCond134
          CFI EndBlock cfiCond135
          CFI EndBlock cfiCond136
          CFI EndBlock cfiCond137
          CFI EndBlock cfiCond138
          CFI EndBlock cfiCond139
          CFI EndBlock cfiCond140
          CFI EndBlock cfiPicker141
// 1379 
// 1380 
// 1381 /*********************************************************************
// 1382  * @fn      SampleApp_Tester_calibration_differentAMessage
// 1383  *
// 1384  * @brief   Send the periodic message.
// 1385  *
// 1386  * @param   none
// 1387  *
// 1388  * @return  none
// 1389  */
// 1390 

        RSEG BANKED_CODE:CODE:NOROOT(0)
?Subroutine1:
          CFI Block cfiBlock142 Using cfiCommon0
          CFI NoFunction
          CFI CFA_SP SP+0
          CFI CFA_XSP16 add(XSP16, 28)
          CFI VB load(1, XDATA, add(CFA_XSP16, literal(-19)))
          CFI DPL0 load(1, XDATA, add(CFA_XSP16, literal(-2)))
          CFI DPH0 load(1, XDATA, add(CFA_XSP16, literal(-1)))
          CFI R6 load(1, XDATA, add(CFA_XSP16, literal(-20)))
          CFI R7 load(1, XDATA, add(CFA_XSP16, literal(-6)))
          CFI V0 load(1, XDATA, add(CFA_XSP16, literal(-18)))
          CFI V1 load(1, XDATA, add(CFA_XSP16, literal(-17)))
          CFI V2 load(1, XDATA, add(CFA_XSP16, literal(-16)))
          CFI V3 load(1, XDATA, add(CFA_XSP16, literal(-15)))
          CFI V4 load(1, XDATA, add(CFA_XSP16, literal(-14)))
          CFI V5 load(1, XDATA, add(CFA_XSP16, literal(-13)))
          CFI V6 load(1, XDATA, add(CFA_XSP16, literal(-12)))
          CFI V7 load(1, XDATA, add(CFA_XSP16, literal(-11)))
          CFI V8 load(1, XDATA, add(CFA_XSP16, literal(-10)))
          CFI V9 load(1, XDATA, add(CFA_XSP16, literal(-9)))
          CFI V10 load(1, XDATA, add(CFA_XSP16, literal(-8)))
          CFI V11 load(1, XDATA, add(CFA_XSP16, literal(-7)))
          CFI ?BRET_EXT load(1, XDATA, add(CFA_XSP16, literal(-3)))
          CFI ?RET_HIGH load(1, XDATA, add(CFA_XSP16, literal(-4)))
          CFI ?RET_LOW load(1, XDATA, add(CFA_XSP16, literal(-5)))
        MOV     ?V0 + 3,?V0 + 7
        MOV     DPTR,#__Constant_41200000
        MOV     R0,#?V0 + 8
        LCALL   ?L_MOV_X
        MOV     R0,#?V0 + 0
        MOV     R1,#?V0 + 8
        LCALL   ?FLT_DIV
        MOV     R0,#?V0 + 0
        LCALL   ?FLT_TO_L
        MOV     A,?V0 + 0
        ADD     A,#0x30
        PUSH    A
          CFI CFA_SP SP+-1
        MOV     A,#0x3
        LCALL   ?XSTACK_DISP0_8
        POP     A
          CFI CFA_SP SP+0
        LCALL   ?Subroutine4 & 0xFFFF
??CrossCallReturnLabel_3:
        LCALL   ?FLT_TO_L
        MOV     R5,?V0 + 1
        MOV     R0,?V0 + 0
        MOV     A,R5
        MOV     R1,A
        MOV     R2,#0xa
        MOV     R3,#0x0
        LCALL   ?S_DIV_MOD
        MOV     A,R2
        ADD     A,#0x30
        PUSH    A
          CFI CFA_SP SP+-1
        MOV     A,#0x4
        LCALL   ?XSTACK_DISP0_8
        POP     A
          CFI CFA_SP SP+0
        MOVX    @DPTR,A
        MOV     A,#0x5
        LCALL   ?XSTACK_DISP0_8
        LCALL   ?Subroutine7 & 0xFFFF
??CrossCallReturnLabel_10:
        LCALL   ?L_TO_FLT
        MOV     R0,#?V0 + 4
        MOV     R1,#?V0 + 0
        LCALL   ?FLT_SUB
        MOV     DPTR,#__Constant_41200000
        MOV     R0,#?V0 + 0
        LCALL   ?L_MOV_X
        MOV     R0,#?V0 + 4
        MOV     R1,#?V0 + 0
        LCALL   ?FLT_MUL
        MOV     R0,#?V0 + 4
        LCALL   ?FLT_TO_L
        MOV     A,?V0 + 4
        ADD     A,#0x30
        PUSH    A
          CFI CFA_SP SP+-1
        MOV     A,#0x6
        LCALL   ?XSTACK_DISP0_8
        POP     A
          CFI CFA_SP SP+0
        MOVX    @DPTR,A
        MOV     A,#0x7
        LCALL   ?XSTACK_DISP0_8
        LCALL   ?Subroutine9 & 0xFFFF
??CrossCallReturnLabel_65:
        LCALL   ?PUSH_XSTACK_I_ONE
          CFI CFA_XSP16 add(XSP16, 29)
        MOV     ?V0 + 0,#SampleApp_TransID & 0xff
        MOV     ?V0 + 1,#(SampleApp_TransID >> 8) & 0xff
        MOV     R0,#?V0 + 0
        LCALL   ?PUSH_XSTACK_I_TWO
          CFI CFA_XSP16 add(XSP16, 31)
        MOV     A,#0x3
        LCALL   ?XSTACK_DISP0_8
        MOV     ?V0 + 0,DPL
        MOV     ?V0 + 1,DPH
        MOV     R0,#?V0 + 0
        LCALL   ?PUSH_XSTACK_I_TWO
          CFI CFA_XSP16 add(XSP16, 33)
        MOV     ?V0 + 0,#0x8
        MOV     ?V0 + 1,#0x0
        MOV     R0,#?V0 + 0
        LCALL   ?PUSH_XSTACK_I_TWO
          CFI CFA_XSP16 add(XSP16, 35)
        MOV     ?V0 + 0,#0x2
        MOV     R0,#?V0 + 0
        LCALL   ?PUSH_XSTACK_I_TWO
          CFI CFA_XSP16 add(XSP16, 37)
        MOV     R1,#-0x80
        MOV     R4,#SampleApp_epDesc & 0xff
        MOV     R5,#(SampleApp_epDesc >> 8) & 0xff
        MOV     R2,#SampleApp_Tester_DstAddr & 0xff
        MOV     R3,#(SampleApp_Tester_DstAddr >> 8) & 0xff
        LCALL   ??AF_DataRequest?relay
        MOV     A,#0x9
        LCALL   ?DEALLOC_XSTACK8
          CFI CFA_XSP16 add(XSP16, 28)
        MOV     A,#0x8
          CFI EndBlock cfiBlock142
        REQUIRE ??Subroutine36_0
        ; // Fall through to label ??Subroutine36_0

        RSEG BANKED_CODE:CODE:NOROOT(0)
??Subroutine36_0:
          CFI Block cfiBlock143 Using cfiCommon0
          CFI NoFunction
          CFI CFA_SP SP+0
          CFI CFA_XSP16 add(XSP16, 27)
          CFI VB load(1, XDATA, add(CFA_XSP16, literal(-19)))
          CFI DPL0 load(1, XDATA, add(CFA_XSP16, literal(-2)))
          CFI DPH0 load(1, XDATA, add(CFA_XSP16, literal(-1)))
          CFI R6 load(1, XDATA, add(CFA_XSP16, literal(-20)))
          CFI R7 load(1, XDATA, add(CFA_XSP16, literal(-6)))
          CFI V0 load(1, XDATA, add(CFA_XSP16, literal(-18)))
          CFI V1 load(1, XDATA, add(CFA_XSP16, literal(-17)))
          CFI V2 load(1, XDATA, add(CFA_XSP16, literal(-16)))
          CFI V3 load(1, XDATA, add(CFA_XSP16, literal(-15)))
          CFI V4 load(1, XDATA, add(CFA_XSP16, literal(-14)))
          CFI V5 load(1, XDATA, add(CFA_XSP16, literal(-13)))
          CFI V6 load(1, XDATA, add(CFA_XSP16, literal(-12)))
          CFI V7 load(1, XDATA, add(CFA_XSP16, literal(-11)))
          CFI V8 load(1, XDATA, add(CFA_XSP16, literal(-10)))
          CFI V9 load(1, XDATA, add(CFA_XSP16, literal(-9)))
          CFI V10 load(1, XDATA, add(CFA_XSP16, literal(-8)))
          CFI V11 load(1, XDATA, add(CFA_XSP16, literal(-7)))
          CFI ?BRET_EXT load(1, XDATA, add(CFA_XSP16, literal(-3)))
          CFI ?RET_HIGH load(1, XDATA, add(CFA_XSP16, literal(-4)))
          CFI ?RET_LOW load(1, XDATA, add(CFA_XSP16, literal(-5)))
          CFI Invalid
        LCALL   ?DEALLOC_XSTACK8
          CFI EndBlock cfiBlock143
        REQUIRE ??Subroutine37_0
        ; // Fall through to label ??Subroutine37_0

        RSEG BANKED_CODE:CODE:NOROOT(0)
??Subroutine37_0:
          CFI Block cfiBlock144 Using cfiCommon0
          CFI NoFunction
          CFI CFA_SP SP+0
          CFI CFA_XSP16 add(XSP16, 20)
          CFI VB load(1, XDATA, add(CFA_XSP16, literal(-19)))
          CFI DPL0 load(1, XDATA, add(CFA_XSP16, literal(-2)))
          CFI DPH0 load(1, XDATA, add(CFA_XSP16, literal(-1)))
          CFI R6 load(1, XDATA, add(CFA_XSP16, literal(-20)))
          CFI R7 load(1, XDATA, add(CFA_XSP16, literal(-6)))
          CFI V0 load(1, XDATA, add(CFA_XSP16, literal(-18)))
          CFI V1 load(1, XDATA, add(CFA_XSP16, literal(-17)))
          CFI V2 load(1, XDATA, add(CFA_XSP16, literal(-16)))
          CFI V3 load(1, XDATA, add(CFA_XSP16, literal(-15)))
          CFI V4 load(1, XDATA, add(CFA_XSP16, literal(-14)))
          CFI V5 load(1, XDATA, add(CFA_XSP16, literal(-13)))
          CFI V6 load(1, XDATA, add(CFA_XSP16, literal(-12)))
          CFI V7 load(1, XDATA, add(CFA_XSP16, literal(-11)))
          CFI V8 load(1, XDATA, add(CFA_XSP16, literal(-10)))
          CFI V9 load(1, XDATA, add(CFA_XSP16, literal(-9)))
          CFI V10 load(1, XDATA, add(CFA_XSP16, literal(-8)))
          CFI V11 load(1, XDATA, add(CFA_XSP16, literal(-7)))
          CFI ?BRET_EXT load(1, XDATA, add(CFA_XSP16, literal(-3)))
          CFI ?RET_HIGH load(1, XDATA, add(CFA_XSP16, literal(-4)))
          CFI ?RET_LOW load(1, XDATA, add(CFA_XSP16, literal(-5)))
        MOV     R7,#0xc
        LJMP    ?BANKED_LEAVE_XDATA
          CFI EndBlock cfiBlock144

        RSEG BANKED_CODE:CODE:NOROOT(0)
// 1391 void SampleApp_Tester_calibration_differentAMessage( int index )
SampleApp_Tester_calibration_differentAMessage:
          CFI Block cfiBlock145 Using cfiCommon0
          CFI Function SampleApp_Tester_calibration_differentAMessage
        CODE
// 1392 {
        FUNCALL SampleApp_Tester_calibration_differentAMessage, AF_DataRequest
        LOCFRAME ISTACK, 0, STACK
        LOCFRAME PSTACK, 0, STACK
        LOCFRAME XSTACK, 37, STACK
        LOCFRAME IOVERLAY, 0, STATIC
        LOCFRAME DOVERLAY, 0, STATIC
        ARGFRAME ISTACK, 0, STACK
        ARGFRAME PSTACK, 0, STACK
        ARGFRAME XSTACK, 37, STACK
        ARGFRAME IOVERLAY, 0, STATIC
        ARGFRAME DOVERLAY, 0, STATIC
        MOV     A,#-0x14
        LCALL   ?BANKED_ENTER_XDATA
          CFI DPH0 load(1, XDATA, add(CFA_XSP16, literal(-1)))
          CFI DPL0 load(1, XDATA, add(CFA_XSP16, literal(-2)))
          CFI ?BRET_EXT load(1, XDATA, add(CFA_XSP16, literal(-3)))
          CFI ?RET_HIGH load(1, XDATA, add(CFA_XSP16, literal(-4)))
          CFI ?RET_LOW load(1, XDATA, add(CFA_XSP16, literal(-5)))
          CFI R7 load(1, XDATA, add(CFA_XSP16, literal(-6)))
          CFI V11 load(1, XDATA, add(CFA_XSP16, literal(-7)))
          CFI V10 load(1, XDATA, add(CFA_XSP16, literal(-8)))
          CFI V9 load(1, XDATA, add(CFA_XSP16, literal(-9)))
          CFI V8 load(1, XDATA, add(CFA_XSP16, literal(-10)))
          CFI V7 load(1, XDATA, add(CFA_XSP16, literal(-11)))
          CFI V6 load(1, XDATA, add(CFA_XSP16, literal(-12)))
          CFI V5 load(1, XDATA, add(CFA_XSP16, literal(-13)))
          CFI V4 load(1, XDATA, add(CFA_XSP16, literal(-14)))
          CFI V3 load(1, XDATA, add(CFA_XSP16, literal(-15)))
          CFI V2 load(1, XDATA, add(CFA_XSP16, literal(-16)))
          CFI V1 load(1, XDATA, add(CFA_XSP16, literal(-17)))
          CFI V0 load(1, XDATA, add(CFA_XSP16, literal(-18)))
          CFI VB load(1, XDATA, add(CFA_XSP16, literal(-19)))
          CFI R6 load(1, XDATA, add(CFA_XSP16, literal(-20)))
          CFI CFA_SP SP+0
          CFI CFA_XSP16 add(XSP16, 20)
        ; Saved register size: 20
        ; Auto size: 8
        MOV     A,#-0x8
        LCALL   ?ALLOC_XSTACK8
          CFI CFA_XSP16 add(XSP16, 28)
// 1393     
// 1394   SampleApp_Tester_DstAddr.addrMode = (afAddrMode_t)AddrGroup;  //AddrGroup
        LCALL   ?Subroutine5 & 0xFFFF
// 1395   SampleApp_Tester_DstAddr.endPoint = SAMPLEAPP_ENDPOINT;
// 1396   SampleApp_Tester_DstAddr.addr.shortAddr =  SAMPLEAPP_CalN_GROUP;    //SAMPLEAPP_QUADROTOR_GROUP
// 1397   
// 1398   {
// 1399           
// 1400           uint8 data[8]="T";
??CrossCallReturnLabel_6:
        MOV     DPL,?XSP + 0
        MOV     DPH,?XSP + 1
        MOV     R4,DPL
        MOV     R5,DPH
        MOV     DPH,#(`?<Constant "T">` >> 8) & 0xff
        MOV     DPL,#`?<Constant "T">` & 0xff
        MOV     A,#0x8
        LCALL   ?MOVE_LONG8_XDATA_XDATA
// 1401           data[1]=0x30+index;
        MOV     A,R2
        ADD     A,#0x30
        PUSH    A
          CFI CFA_SP SP+-1
        MOV     A,#0x1
        LCALL   ?XSTACK_DISP0_8
        POP     A
          CFI CFA_SP SP+0
        MOVX    @DPTR,A
// 1402 
// 1403           data[2]=':';
        MOV     A,#0x2
        LCALL   ?XSTACK_DISP0_8
        MOV     A,#0x3a
        MOVX    @DPTR,A
// 1404           float tempn=RssiValue[index-1];
        MOV     ?V0 + 0,R2
        MOV     ?V0 + 1,R3
        MOV     A,#0x2
        MOV     R0,#?V0 + 0
        LCALL   ?S_SHL
        MOV     A,#(RssiValue + 252) & 0xff
        ADD     A,?V0 + 0
        MOV     DPL,A
        MOV     A,#((RssiValue - 4) >> 8) & 0xff
        ADDC    A,?V0 + 1
        MOV     DPH,A
        MOV     R0,#?V0 + 4
        LCALL   ?L_MOV_X
// 1405           uint8 number8;
// 1406           number8=(uint8)(tempn/10);
// 1407           data[3]=number8+'0';
        MOV     ?V0 + 0,?V0 + 4
        MOV     ?V0 + 1,?V0 + 5
        MOV     ?V0 + 2,?V0 + 6
        LJMP    ?Subroutine1 & 0xFFFF
          CFI EndBlock cfiBlock145
// 1408           number8=(uint8)(((int)tempn)%10);
// 1409           data[4]=number8+'0';
// 1410           data[5]='.';
// 1411           tempn=10*(tempn-(int)tempn);
// 1412           number8=(uint8)tempn;
// 1413           data[6]=number8+'0';
// 1414           data[7]='\n'; 
// 1415       
// 1416           
// 1417          // index++;
// 1418           
// 1419           if ( AF_DataRequest( &SampleApp_Tester_DstAddr, &SampleApp_epDesc,
// 1420                                CALBRATION_N_CLUSTERID,
// 1421                                8,//osal_strlen("A1")+1,
// 1422                                data,
// 1423                                &SampleApp_TransID,
// 1424                                AF_SKIP_ROUTING,//AF_DISCV_ROUTE,  
// 1425                                1//AF_DEFAULT_RADIUS 
// 1426                                 ) == afStatus_SUCCESS )
// 1427           {
// 1428           }
// 1429           else
// 1430           {
// 1431             // Error occurred in request to send.
// 1432           }
// 1433   }
// 1434 
// 1435 }

        RSEG BANKED_CODE:CODE:NOROOT(0)
?Subroutine5:
          CFI Block cfiCond146 Using cfiCommon0
          CFI Function SampleApp_Tester_calibrationAMessage
          CFI Conditional ??CrossCallReturnLabel_5
          CFI R6 load(1, XDATA, add(CFA_XSP16, literal(-20)))
          CFI VB load(1, XDATA, add(CFA_XSP16, literal(-19)))
          CFI V0 load(1, XDATA, add(CFA_XSP16, literal(-18)))
          CFI V1 load(1, XDATA, add(CFA_XSP16, literal(-17)))
          CFI V2 load(1, XDATA, add(CFA_XSP16, literal(-16)))
          CFI V3 load(1, XDATA, add(CFA_XSP16, literal(-15)))
          CFI V4 load(1, XDATA, add(CFA_XSP16, literal(-14)))
          CFI V5 load(1, XDATA, add(CFA_XSP16, literal(-13)))
          CFI V6 load(1, XDATA, add(CFA_XSP16, literal(-12)))
          CFI V7 load(1, XDATA, add(CFA_XSP16, literal(-11)))
          CFI V8 load(1, XDATA, add(CFA_XSP16, literal(-10)))
          CFI V9 load(1, XDATA, add(CFA_XSP16, literal(-9)))
          CFI V10 load(1, XDATA, add(CFA_XSP16, literal(-8)))
          CFI V11 load(1, XDATA, add(CFA_XSP16, literal(-7)))
          CFI R7 load(1, XDATA, add(CFA_XSP16, literal(-6)))
          CFI ?RET_LOW load(1, XDATA, add(CFA_XSP16, literal(-5)))
          CFI ?RET_HIGH load(1, XDATA, add(CFA_XSP16, literal(-4)))
          CFI ?BRET_EXT load(1, XDATA, add(CFA_XSP16, literal(-3)))
          CFI DPL0 load(1, XDATA, add(CFA_XSP16, literal(-2)))
          CFI DPH0 load(1, XDATA, add(CFA_XSP16, literal(-1)))
          CFI CFA_SP SP+0
          CFI CFA_XSP16 add(XSP16, 27)
          CFI Block cfiCond147 Using cfiCommon0
          CFI (cfiCond147) Function SampleApp_Tester_calibration_differentAMessage
          CFI (cfiCond147) Conditional ??CrossCallReturnLabel_6
          CFI (cfiCond147) R6 load(1, XDATA, add(CFA_XSP16, literal(-20)))
          CFI (cfiCond147) VB load(1, XDATA, add(CFA_XSP16, literal(-19)))
          CFI (cfiCond147) V0 load(1, XDATA, add(CFA_XSP16, literal(-18)))
          CFI (cfiCond147) V1 load(1, XDATA, add(CFA_XSP16, literal(-17)))
          CFI (cfiCond147) V2 load(1, XDATA, add(CFA_XSP16, literal(-16)))
          CFI (cfiCond147) V3 load(1, XDATA, add(CFA_XSP16, literal(-15)))
          CFI (cfiCond147) V4 load(1, XDATA, add(CFA_XSP16, literal(-14)))
          CFI (cfiCond147) V5 load(1, XDATA, add(CFA_XSP16, literal(-13)))
          CFI (cfiCond147) V6 load(1, XDATA, add(CFA_XSP16, literal(-12)))
          CFI (cfiCond147) V7 load(1, XDATA, add(CFA_XSP16, literal(-11)))
          CFI (cfiCond147) V8 load(1, XDATA, add(CFA_XSP16, literal(-10)))
          CFI (cfiCond147) V9 load(1, XDATA, add(CFA_XSP16, literal(-9)))
          CFI (cfiCond147) V10 load(1, XDATA, add(CFA_XSP16, literal(-8)))
          CFI (cfiCond147) V11 load(1, XDATA, add(CFA_XSP16, literal(-7)))
          CFI (cfiCond147) R7 load(1, XDATA, add(CFA_XSP16, literal(-6)))
          CFI (cfiCond147) ?RET_LOW load(1, XDATA, add(CFA_XSP16, literal(-5)))
          CFI (cfiCond147) ?RET_HIGH load(1, XDATA, add(CFA_XSP16, literal(-4)))
          CFI (cfiCond147) ?BRET_EXT load(1, XDATA, add(CFA_XSP16, literal(-3)))
          CFI (cfiCond147) DPL0 load(1, XDATA, add(CFA_XSP16, literal(-2)))
          CFI (cfiCond147) DPH0 load(1, XDATA, add(CFA_XSP16, literal(-1)))
          CFI (cfiCond147) CFA_SP SP+0
          CFI (cfiCond147) CFA_XSP16 add(XSP16, 28)
          CFI Block cfiCond148 Using cfiCommon0
          CFI (cfiCond148) Function SampleApp_Tester_calibrationOffsetAMessage
          CFI (cfiCond148) Conditional ??CrossCallReturnLabel_7
          CFI (cfiCond148) R6 load(1, XDATA, add(CFA_XSP16, literal(-20)))
          CFI (cfiCond148) VB load(1, XDATA, add(CFA_XSP16, literal(-19)))
          CFI (cfiCond148) V0 load(1, XDATA, add(CFA_XSP16, literal(-18)))
          CFI (cfiCond148) V1 load(1, XDATA, add(CFA_XSP16, literal(-17)))
          CFI (cfiCond148) V2 load(1, XDATA, add(CFA_XSP16, literal(-16)))
          CFI (cfiCond148) V3 load(1, XDATA, add(CFA_XSP16, literal(-15)))
          CFI (cfiCond148) V4 load(1, XDATA, add(CFA_XSP16, literal(-14)))
          CFI (cfiCond148) V5 load(1, XDATA, add(CFA_XSP16, literal(-13)))
          CFI (cfiCond148) V6 load(1, XDATA, add(CFA_XSP16, literal(-12)))
          CFI (cfiCond148) V7 load(1, XDATA, add(CFA_XSP16, literal(-11)))
          CFI (cfiCond148) V8 load(1, XDATA, add(CFA_XSP16, literal(-10)))
          CFI (cfiCond148) V9 load(1, XDATA, add(CFA_XSP16, literal(-9)))
          CFI (cfiCond148) V10 load(1, XDATA, add(CFA_XSP16, literal(-8)))
          CFI (cfiCond148) V11 load(1, XDATA, add(CFA_XSP16, literal(-7)))
          CFI (cfiCond148) R7 load(1, XDATA, add(CFA_XSP16, literal(-6)))
          CFI (cfiCond148) ?RET_LOW load(1, XDATA, add(CFA_XSP16, literal(-5)))
          CFI (cfiCond148) ?RET_HIGH load(1, XDATA, add(CFA_XSP16, literal(-4)))
          CFI (cfiCond148) ?BRET_EXT load(1, XDATA, add(CFA_XSP16, literal(-3)))
          CFI (cfiCond148) DPL0 load(1, XDATA, add(CFA_XSP16, literal(-2)))
          CFI (cfiCond148) DPH0 load(1, XDATA, add(CFA_XSP16, literal(-1)))
          CFI (cfiCond148) CFA_SP SP+0
          CFI (cfiCond148) CFA_XSP16 add(XSP16, 28)
          CFI Block cfiPicker149 Using cfiCommon1
          CFI (cfiPicker149) NoFunction
          CFI (cfiPicker149) Picker
        MOV     DPTR,#SampleApp_Tester_DstAddr + 8
        MOV     A,#0x1
        MOVX    @DPTR,A
        INC     DPTR
        MOV     A,#0x14
        MOVX    @DPTR,A
        MOV     DPTR,#SampleApp_Tester_DstAddr
        LCALL   ?Subroutine24 & 0xFFFF
??CrossCallReturnLabel_73:
        RET
          CFI EndBlock cfiCond146
          CFI EndBlock cfiCond147
          CFI EndBlock cfiCond148
          CFI EndBlock cfiPicker149

        RSEG BANKED_CODE:CODE:NOROOT(0)
?Subroutine24:
          CFI Block cfiCond150 Using cfiCommon0
          CFI Function SampleApp_Init
          CFI Conditional ??CrossCallReturnLabel_72
          CFI R6 load(1, XDATA, add(CFA_XSP16, literal(-11)))
          CFI VB load(1, XDATA, add(CFA_XSP16, literal(-10)))
          CFI V0 load(1, XDATA, add(CFA_XSP16, literal(-9)))
          CFI V1 load(1, XDATA, add(CFA_XSP16, literal(-8)))
          CFI V2 load(1, XDATA, add(CFA_XSP16, literal(-7)))
          CFI R7 load(1, XDATA, add(CFA_XSP16, literal(-6)))
          CFI ?RET_LOW load(1, XDATA, add(CFA_XSP16, literal(-5)))
          CFI ?RET_HIGH load(1, XDATA, add(CFA_XSP16, literal(-4)))
          CFI ?BRET_EXT load(1, XDATA, add(CFA_XSP16, literal(-3)))
          CFI DPL0 load(1, XDATA, add(CFA_XSP16, literal(-2)))
          CFI DPH0 load(1, XDATA, add(CFA_XSP16, literal(-1)))
          CFI CFA_SP SP+0
          CFI CFA_XSP16 add(XSP16, 11)
          CFI Block cfiCond151 Using cfiCommon0
          CFI (cfiCond151) Function SampleApp_Router_calibrationNMessage
          CFI (cfiCond151) Conditional ??CrossCallReturnLabel_74, ??CrossCallReturnLabel_13
          CFI (cfiCond151) R6 load(1, XDATA, add(CFA_XSP16, literal(-16)))
          CFI (cfiCond151) VB load(1, XDATA, add(CFA_XSP16, literal(-15)))
          CFI (cfiCond151) V0 load(1, XDATA, add(CFA_XSP16, literal(-14)))
          CFI (cfiCond151) V1 load(1, XDATA, add(CFA_XSP16, literal(-13)))
          CFI (cfiCond151) V2 load(1, XDATA, add(CFA_XSP16, literal(-12)))
          CFI (cfiCond151) V3 load(1, XDATA, add(CFA_XSP16, literal(-11)))
          CFI (cfiCond151) V4 load(1, XDATA, add(CFA_XSP16, literal(-10)))
          CFI (cfiCond151) V5 load(1, XDATA, add(CFA_XSP16, literal(-9)))
          CFI (cfiCond151) V6 load(1, XDATA, add(CFA_XSP16, literal(-8)))
          CFI (cfiCond151) V7 load(1, XDATA, add(CFA_XSP16, literal(-7)))
          CFI (cfiCond151) R7 load(1, XDATA, add(CFA_XSP16, literal(-6)))
          CFI (cfiCond151) ?RET_LOW load(1, XDATA, add(CFA_XSP16, literal(-5)))
          CFI (cfiCond151) ?RET_HIGH load(1, XDATA, add(CFA_XSP16, literal(-4)))
          CFI (cfiCond151) ?BRET_EXT load(1, XDATA, add(CFA_XSP16, literal(-3)))
          CFI (cfiCond151) DPL0 load(1, XDATA, add(CFA_XSP16, literal(-2)))
          CFI (cfiCond151) DPH0 load(1, XDATA, add(CFA_XSP16, literal(-1)))
          CFI (cfiCond151) CFA_SP SP+0
          CFI (cfiCond151) CFA_XSP16 add(XSP16, 24)
          CFI Block cfiCond152 Using cfiCommon0
          CFI (cfiCond152) Function SampleApp_Router_calibrationAMessage
          CFI (cfiCond152) Conditional ??CrossCallReturnLabel_74, ??CrossCallReturnLabel_14
          CFI (cfiCond152) R6 load(1, XDATA, add(CFA_XSP16, literal(-20)))
          CFI (cfiCond152) VB load(1, XDATA, add(CFA_XSP16, literal(-19)))
          CFI (cfiCond152) V0 load(1, XDATA, add(CFA_XSP16, literal(-18)))
          CFI (cfiCond152) V1 load(1, XDATA, add(CFA_XSP16, literal(-17)))
          CFI (cfiCond152) V2 load(1, XDATA, add(CFA_XSP16, literal(-16)))
          CFI (cfiCond152) V3 load(1, XDATA, add(CFA_XSP16, literal(-15)))
          CFI (cfiCond152) V4 load(1, XDATA, add(CFA_XSP16, literal(-14)))
          CFI (cfiCond152) V5 load(1, XDATA, add(CFA_XSP16, literal(-13)))
          CFI (cfiCond152) V6 load(1, XDATA, add(CFA_XSP16, literal(-12)))
          CFI (cfiCond152) V7 load(1, XDATA, add(CFA_XSP16, literal(-11)))
          CFI (cfiCond152) V8 load(1, XDATA, add(CFA_XSP16, literal(-10)))
          CFI (cfiCond152) V9 load(1, XDATA, add(CFA_XSP16, literal(-9)))
          CFI (cfiCond152) V10 load(1, XDATA, add(CFA_XSP16, literal(-8)))
          CFI (cfiCond152) V11 load(1, XDATA, add(CFA_XSP16, literal(-7)))
          CFI (cfiCond152) R7 load(1, XDATA, add(CFA_XSP16, literal(-6)))
          CFI (cfiCond152) ?RET_LOW load(1, XDATA, add(CFA_XSP16, literal(-5)))
          CFI (cfiCond152) ?RET_HIGH load(1, XDATA, add(CFA_XSP16, literal(-4)))
          CFI (cfiCond152) ?BRET_EXT load(1, XDATA, add(CFA_XSP16, literal(-3)))
          CFI (cfiCond152) DPL0 load(1, XDATA, add(CFA_XSP16, literal(-2)))
          CFI (cfiCond152) DPH0 load(1, XDATA, add(CFA_XSP16, literal(-1)))
          CFI (cfiCond152) CFA_SP SP+0
          CFI (cfiCond152) CFA_XSP16 add(XSP16, 27)
          CFI Block cfiCond153 Using cfiCommon0
          CFI (cfiCond153) Function SampleApp_Tester_calibrationAMessage
          CFI (cfiCond153) Conditional ??CrossCallReturnLabel_73, ??CrossCallReturnLabel_5
          CFI (cfiCond153) R6 load(1, XDATA, add(CFA_XSP16, literal(-20)))
          CFI (cfiCond153) VB load(1, XDATA, add(CFA_XSP16, literal(-19)))
          CFI (cfiCond153) V0 load(1, XDATA, add(CFA_XSP16, literal(-18)))
          CFI (cfiCond153) V1 load(1, XDATA, add(CFA_XSP16, literal(-17)))
          CFI (cfiCond153) V2 load(1, XDATA, add(CFA_XSP16, literal(-16)))
          CFI (cfiCond153) V3 load(1, XDATA, add(CFA_XSP16, literal(-15)))
          CFI (cfiCond153) V4 load(1, XDATA, add(CFA_XSP16, literal(-14)))
          CFI (cfiCond153) V5 load(1, XDATA, add(CFA_XSP16, literal(-13)))
          CFI (cfiCond153) V6 load(1, XDATA, add(CFA_XSP16, literal(-12)))
          CFI (cfiCond153) V7 load(1, XDATA, add(CFA_XSP16, literal(-11)))
          CFI (cfiCond153) V8 load(1, XDATA, add(CFA_XSP16, literal(-10)))
          CFI (cfiCond153) V9 load(1, XDATA, add(CFA_XSP16, literal(-9)))
          CFI (cfiCond153) V10 load(1, XDATA, add(CFA_XSP16, literal(-8)))
          CFI (cfiCond153) V11 load(1, XDATA, add(CFA_XSP16, literal(-7)))
          CFI (cfiCond153) R7 load(1, XDATA, add(CFA_XSP16, literal(-6)))
          CFI (cfiCond153) ?RET_LOW load(1, XDATA, add(CFA_XSP16, literal(-5)))
          CFI (cfiCond153) ?RET_HIGH load(1, XDATA, add(CFA_XSP16, literal(-4)))
          CFI (cfiCond153) ?BRET_EXT load(1, XDATA, add(CFA_XSP16, literal(-3)))
          CFI (cfiCond153) DPL0 load(1, XDATA, add(CFA_XSP16, literal(-2)))
          CFI (cfiCond153) DPH0 load(1, XDATA, add(CFA_XSP16, literal(-1)))
          CFI (cfiCond153) CFA_SP SP+0
          CFI (cfiCond153) CFA_XSP16 add(XSP16, 27)
          CFI Block cfiCond154 Using cfiCommon0
          CFI (cfiCond154) Function SampleApp_Tester_calibration_differentAMessage
          CFI (cfiCond154) Conditional ??CrossCallReturnLabel_73, ??CrossCallReturnLabel_6
          CFI (cfiCond154) R6 load(1, XDATA, add(CFA_XSP16, literal(-20)))
          CFI (cfiCond154) VB load(1, XDATA, add(CFA_XSP16, literal(-19)))
          CFI (cfiCond154) V0 load(1, XDATA, add(CFA_XSP16, literal(-18)))
          CFI (cfiCond154) V1 load(1, XDATA, add(CFA_XSP16, literal(-17)))
          CFI (cfiCond154) V2 load(1, XDATA, add(CFA_XSP16, literal(-16)))
          CFI (cfiCond154) V3 load(1, XDATA, add(CFA_XSP16, literal(-15)))
          CFI (cfiCond154) V4 load(1, XDATA, add(CFA_XSP16, literal(-14)))
          CFI (cfiCond154) V5 load(1, XDATA, add(CFA_XSP16, literal(-13)))
          CFI (cfiCond154) V6 load(1, XDATA, add(CFA_XSP16, literal(-12)))
          CFI (cfiCond154) V7 load(1, XDATA, add(CFA_XSP16, literal(-11)))
          CFI (cfiCond154) V8 load(1, XDATA, add(CFA_XSP16, literal(-10)))
          CFI (cfiCond154) V9 load(1, XDATA, add(CFA_XSP16, literal(-9)))
          CFI (cfiCond154) V10 load(1, XDATA, add(CFA_XSP16, literal(-8)))
          CFI (cfiCond154) V11 load(1, XDATA, add(CFA_XSP16, literal(-7)))
          CFI (cfiCond154) R7 load(1, XDATA, add(CFA_XSP16, literal(-6)))
          CFI (cfiCond154) ?RET_LOW load(1, XDATA, add(CFA_XSP16, literal(-5)))
          CFI (cfiCond154) ?RET_HIGH load(1, XDATA, add(CFA_XSP16, literal(-4)))
          CFI (cfiCond154) ?BRET_EXT load(1, XDATA, add(CFA_XSP16, literal(-3)))
          CFI (cfiCond154) DPL0 load(1, XDATA, add(CFA_XSP16, literal(-2)))
          CFI (cfiCond154) DPH0 load(1, XDATA, add(CFA_XSP16, literal(-1)))
          CFI (cfiCond154) CFA_SP SP+0
          CFI (cfiCond154) CFA_XSP16 add(XSP16, 28)
          CFI Block cfiCond155 Using cfiCommon0
          CFI (cfiCond155) Function SampleApp_Tester_calibrationOffsetAMessage
          CFI (cfiCond155) Conditional ??CrossCallReturnLabel_73, ??CrossCallReturnLabel_7
          CFI (cfiCond155) R6 load(1, XDATA, add(CFA_XSP16, literal(-20)))
          CFI (cfiCond155) VB load(1, XDATA, add(CFA_XSP16, literal(-19)))
          CFI (cfiCond155) V0 load(1, XDATA, add(CFA_XSP16, literal(-18)))
          CFI (cfiCond155) V1 load(1, XDATA, add(CFA_XSP16, literal(-17)))
          CFI (cfiCond155) V2 load(1, XDATA, add(CFA_XSP16, literal(-16)))
          CFI (cfiCond155) V3 load(1, XDATA, add(CFA_XSP16, literal(-15)))
          CFI (cfiCond155) V4 load(1, XDATA, add(CFA_XSP16, literal(-14)))
          CFI (cfiCond155) V5 load(1, XDATA, add(CFA_XSP16, literal(-13)))
          CFI (cfiCond155) V6 load(1, XDATA, add(CFA_XSP16, literal(-12)))
          CFI (cfiCond155) V7 load(1, XDATA, add(CFA_XSP16, literal(-11)))
          CFI (cfiCond155) V8 load(1, XDATA, add(CFA_XSP16, literal(-10)))
          CFI (cfiCond155) V9 load(1, XDATA, add(CFA_XSP16, literal(-9)))
          CFI (cfiCond155) V10 load(1, XDATA, add(CFA_XSP16, literal(-8)))
          CFI (cfiCond155) V11 load(1, XDATA, add(CFA_XSP16, literal(-7)))
          CFI (cfiCond155) R7 load(1, XDATA, add(CFA_XSP16, literal(-6)))
          CFI (cfiCond155) ?RET_LOW load(1, XDATA, add(CFA_XSP16, literal(-5)))
          CFI (cfiCond155) ?RET_HIGH load(1, XDATA, add(CFA_XSP16, literal(-4)))
          CFI (cfiCond155) ?BRET_EXT load(1, XDATA, add(CFA_XSP16, literal(-3)))
          CFI (cfiCond155) DPL0 load(1, XDATA, add(CFA_XSP16, literal(-2)))
          CFI (cfiCond155) DPH0 load(1, XDATA, add(CFA_XSP16, literal(-1)))
          CFI (cfiCond155) CFA_SP SP+0
          CFI (cfiCond155) CFA_XSP16 add(XSP16, 28)
          CFI Block cfiPicker156 Using cfiCommon1
          CFI (cfiPicker156) NoFunction
          CFI (cfiPicker156) Picker
        MOV     A,#0x1
          CFI EndBlock cfiCond150
          CFI EndBlock cfiCond151
          CFI EndBlock cfiCond152
          CFI EndBlock cfiCond153
          CFI EndBlock cfiCond154
          CFI EndBlock cfiCond155
          CFI EndBlock cfiPicker156
        REQUIRE ??Subroutine38_0
        ; // Fall through to label ??Subroutine38_0

        RSEG BANKED_CODE:CODE:NOROOT(0)
??Subroutine38_0:
          CFI Block cfiCond157 Using cfiCommon0
          CFI Function SampleApp_Init
          CFI Conditional ??CrossCallReturnLabel_69
          CFI R6 load(1, XDATA, add(CFA_XSP16, literal(-11)))
          CFI VB load(1, XDATA, add(CFA_XSP16, literal(-10)))
          CFI V0 load(1, XDATA, add(CFA_XSP16, literal(-9)))
          CFI V1 load(1, XDATA, add(CFA_XSP16, literal(-8)))
          CFI V2 load(1, XDATA, add(CFA_XSP16, literal(-7)))
          CFI R7 load(1, XDATA, add(CFA_XSP16, literal(-6)))
          CFI ?RET_LOW load(1, XDATA, add(CFA_XSP16, literal(-5)))
          CFI ?RET_HIGH load(1, XDATA, add(CFA_XSP16, literal(-4)))
          CFI ?BRET_EXT load(1, XDATA, add(CFA_XSP16, literal(-3)))
          CFI DPL0 load(1, XDATA, add(CFA_XSP16, literal(-2)))
          CFI DPH0 load(1, XDATA, add(CFA_XSP16, literal(-1)))
          CFI CFA_SP SP+0
          CFI CFA_XSP16 add(XSP16, 11)
          CFI Block cfiCond158 Using cfiCommon0
          CFI (cfiCond158) Function SampleApp_Init
          CFI (cfiCond158) Conditional ??CrossCallReturnLabel_70
          CFI (cfiCond158) R6 load(1, XDATA, add(CFA_XSP16, literal(-11)))
          CFI (cfiCond158) VB load(1, XDATA, add(CFA_XSP16, literal(-10)))
          CFI (cfiCond158) V0 load(1, XDATA, add(CFA_XSP16, literal(-9)))
          CFI (cfiCond158) V1 load(1, XDATA, add(CFA_XSP16, literal(-8)))
          CFI (cfiCond158) V2 load(1, XDATA, add(CFA_XSP16, literal(-7)))
          CFI (cfiCond158) R7 load(1, XDATA, add(CFA_XSP16, literal(-6)))
          CFI (cfiCond158) ?RET_LOW load(1, XDATA, add(CFA_XSP16, literal(-5)))
          CFI (cfiCond158) ?RET_HIGH load(1, XDATA, add(CFA_XSP16, literal(-4)))
          CFI (cfiCond158) ?BRET_EXT load(1, XDATA, add(CFA_XSP16, literal(-3)))
          CFI (cfiCond158) DPL0 load(1, XDATA, add(CFA_XSP16, literal(-2)))
          CFI (cfiCond158) DPH0 load(1, XDATA, add(CFA_XSP16, literal(-1)))
          CFI (cfiCond158) CFA_SP SP+0
          CFI (cfiCond158) CFA_XSP16 add(XSP16, 11)
          CFI Block cfiCond159 Using cfiCommon0
          CFI (cfiCond159) Function SampleApp_Quadrotor_SendLocation
          CFI (cfiCond159) Conditional ??CrossCallReturnLabel_71
          CFI (cfiCond159) R6 load(1, XDATA, add(CFA_XSP16, literal(-20)))
          CFI (cfiCond159) VB load(1, XDATA, add(CFA_XSP16, literal(-19)))
          CFI (cfiCond159) V0 load(1, XDATA, add(CFA_XSP16, literal(-18)))
          CFI (cfiCond159) V1 load(1, XDATA, add(CFA_XSP16, literal(-17)))
          CFI (cfiCond159) V2 load(1, XDATA, add(CFA_XSP16, literal(-16)))
          CFI (cfiCond159) V3 load(1, XDATA, add(CFA_XSP16, literal(-15)))
          CFI (cfiCond159) V4 load(1, XDATA, add(CFA_XSP16, literal(-14)))
          CFI (cfiCond159) V5 load(1, XDATA, add(CFA_XSP16, literal(-13)))
          CFI (cfiCond159) V6 load(1, XDATA, add(CFA_XSP16, literal(-12)))
          CFI (cfiCond159) V7 load(1, XDATA, add(CFA_XSP16, literal(-11)))
          CFI (cfiCond159) V8 load(1, XDATA, add(CFA_XSP16, literal(-10)))
          CFI (cfiCond159) V9 load(1, XDATA, add(CFA_XSP16, literal(-9)))
          CFI (cfiCond159) V10 load(1, XDATA, add(CFA_XSP16, literal(-8)))
          CFI (cfiCond159) V11 load(1, XDATA, add(CFA_XSP16, literal(-7)))
          CFI (cfiCond159) R7 load(1, XDATA, add(CFA_XSP16, literal(-6)))
          CFI (cfiCond159) ?RET_LOW load(1, XDATA, add(CFA_XSP16, literal(-5)))
          CFI (cfiCond159) ?RET_HIGH load(1, XDATA, add(CFA_XSP16, literal(-4)))
          CFI (cfiCond159) ?BRET_EXT load(1, XDATA, add(CFA_XSP16, literal(-3)))
          CFI (cfiCond159) DPL0 load(1, XDATA, add(CFA_XSP16, literal(-2)))
          CFI (cfiCond159) DPH0 load(1, XDATA, add(CFA_XSP16, literal(-1)))
          CFI (cfiCond159) CFA_SP SP+0
          CFI (cfiCond159) CFA_XSP16 add(XSP16, 46)
          CFI Block cfiCond160 Using cfiCommon0
          CFI (cfiCond160) Function SampleApp_Init
          CFI (cfiCond160) Conditional ??CrossCallReturnLabel_72
          CFI (cfiCond160) R6 load(1, XDATA, add(CFA_XSP16, literal(-11)))
          CFI (cfiCond160) VB load(1, XDATA, add(CFA_XSP16, literal(-10)))
          CFI (cfiCond160) V0 load(1, XDATA, add(CFA_XSP16, literal(-9)))
          CFI (cfiCond160) V1 load(1, XDATA, add(CFA_XSP16, literal(-8)))
          CFI (cfiCond160) V2 load(1, XDATA, add(CFA_XSP16, literal(-7)))
          CFI (cfiCond160) R7 load(1, XDATA, add(CFA_XSP16, literal(-6)))
          CFI (cfiCond160) ?RET_LOW load(1, XDATA, add(CFA_XSP16, literal(-5)))
          CFI (cfiCond160) ?RET_HIGH load(1, XDATA, add(CFA_XSP16, literal(-4)))
          CFI (cfiCond160) ?BRET_EXT load(1, XDATA, add(CFA_XSP16, literal(-3)))
          CFI (cfiCond160) DPL0 load(1, XDATA, add(CFA_XSP16, literal(-2)))
          CFI (cfiCond160) DPH0 load(1, XDATA, add(CFA_XSP16, literal(-1)))
          CFI (cfiCond160) CFA_SP SP+0
          CFI (cfiCond160) CFA_XSP16 add(XSP16, 11)
          CFI Block cfiCond161 Using cfiCommon0
          CFI (cfiCond161) Function SampleApp_Router_calibrationNMessage
          CFI (cfiCond161) Conditional ??CrossCallReturnLabel_74, ??CrossCallReturnLabel_13
          CFI (cfiCond161) R6 load(1, XDATA, add(CFA_XSP16, literal(-16)))
          CFI (cfiCond161) VB load(1, XDATA, add(CFA_XSP16, literal(-15)))
          CFI (cfiCond161) V0 load(1, XDATA, add(CFA_XSP16, literal(-14)))
          CFI (cfiCond161) V1 load(1, XDATA, add(CFA_XSP16, literal(-13)))
          CFI (cfiCond161) V2 load(1, XDATA, add(CFA_XSP16, literal(-12)))
          CFI (cfiCond161) V3 load(1, XDATA, add(CFA_XSP16, literal(-11)))
          CFI (cfiCond161) V4 load(1, XDATA, add(CFA_XSP16, literal(-10)))
          CFI (cfiCond161) V5 load(1, XDATA, add(CFA_XSP16, literal(-9)))
          CFI (cfiCond161) V6 load(1, XDATA, add(CFA_XSP16, literal(-8)))
          CFI (cfiCond161) V7 load(1, XDATA, add(CFA_XSP16, literal(-7)))
          CFI (cfiCond161) R7 load(1, XDATA, add(CFA_XSP16, literal(-6)))
          CFI (cfiCond161) ?RET_LOW load(1, XDATA, add(CFA_XSP16, literal(-5)))
          CFI (cfiCond161) ?RET_HIGH load(1, XDATA, add(CFA_XSP16, literal(-4)))
          CFI (cfiCond161) ?BRET_EXT load(1, XDATA, add(CFA_XSP16, literal(-3)))
          CFI (cfiCond161) DPL0 load(1, XDATA, add(CFA_XSP16, literal(-2)))
          CFI (cfiCond161) DPH0 load(1, XDATA, add(CFA_XSP16, literal(-1)))
          CFI (cfiCond161) CFA_SP SP+0
          CFI (cfiCond161) CFA_XSP16 add(XSP16, 24)
          CFI Block cfiCond162 Using cfiCommon0
          CFI (cfiCond162) Function SampleApp_Router_calibrationAMessage
          CFI (cfiCond162) Conditional ??CrossCallReturnLabel_74, ??CrossCallReturnLabel_14
          CFI (cfiCond162) R6 load(1, XDATA, add(CFA_XSP16, literal(-20)))
          CFI (cfiCond162) VB load(1, XDATA, add(CFA_XSP16, literal(-19)))
          CFI (cfiCond162) V0 load(1, XDATA, add(CFA_XSP16, literal(-18)))
          CFI (cfiCond162) V1 load(1, XDATA, add(CFA_XSP16, literal(-17)))
          CFI (cfiCond162) V2 load(1, XDATA, add(CFA_XSP16, literal(-16)))
          CFI (cfiCond162) V3 load(1, XDATA, add(CFA_XSP16, literal(-15)))
          CFI (cfiCond162) V4 load(1, XDATA, add(CFA_XSP16, literal(-14)))
          CFI (cfiCond162) V5 load(1, XDATA, add(CFA_XSP16, literal(-13)))
          CFI (cfiCond162) V6 load(1, XDATA, add(CFA_XSP16, literal(-12)))
          CFI (cfiCond162) V7 load(1, XDATA, add(CFA_XSP16, literal(-11)))
          CFI (cfiCond162) V8 load(1, XDATA, add(CFA_XSP16, literal(-10)))
          CFI (cfiCond162) V9 load(1, XDATA, add(CFA_XSP16, literal(-9)))
          CFI (cfiCond162) V10 load(1, XDATA, add(CFA_XSP16, literal(-8)))
          CFI (cfiCond162) V11 load(1, XDATA, add(CFA_XSP16, literal(-7)))
          CFI (cfiCond162) R7 load(1, XDATA, add(CFA_XSP16, literal(-6)))
          CFI (cfiCond162) ?RET_LOW load(1, XDATA, add(CFA_XSP16, literal(-5)))
          CFI (cfiCond162) ?RET_HIGH load(1, XDATA, add(CFA_XSP16, literal(-4)))
          CFI (cfiCond162) ?BRET_EXT load(1, XDATA, add(CFA_XSP16, literal(-3)))
          CFI (cfiCond162) DPL0 load(1, XDATA, add(CFA_XSP16, literal(-2)))
          CFI (cfiCond162) DPH0 load(1, XDATA, add(CFA_XSP16, literal(-1)))
          CFI (cfiCond162) CFA_SP SP+0
          CFI (cfiCond162) CFA_XSP16 add(XSP16, 27)
          CFI Block cfiCond163 Using cfiCommon0
          CFI (cfiCond163) Function SampleApp_Tester_calibrationAMessage
          CFI (cfiCond163) Conditional ??CrossCallReturnLabel_73, ??CrossCallReturnLabel_5
          CFI (cfiCond163) R6 load(1, XDATA, add(CFA_XSP16, literal(-20)))
          CFI (cfiCond163) VB load(1, XDATA, add(CFA_XSP16, literal(-19)))
          CFI (cfiCond163) V0 load(1, XDATA, add(CFA_XSP16, literal(-18)))
          CFI (cfiCond163) V1 load(1, XDATA, add(CFA_XSP16, literal(-17)))
          CFI (cfiCond163) V2 load(1, XDATA, add(CFA_XSP16, literal(-16)))
          CFI (cfiCond163) V3 load(1, XDATA, add(CFA_XSP16, literal(-15)))
          CFI (cfiCond163) V4 load(1, XDATA, add(CFA_XSP16, literal(-14)))
          CFI (cfiCond163) V5 load(1, XDATA, add(CFA_XSP16, literal(-13)))
          CFI (cfiCond163) V6 load(1, XDATA, add(CFA_XSP16, literal(-12)))
          CFI (cfiCond163) V7 load(1, XDATA, add(CFA_XSP16, literal(-11)))
          CFI (cfiCond163) V8 load(1, XDATA, add(CFA_XSP16, literal(-10)))
          CFI (cfiCond163) V9 load(1, XDATA, add(CFA_XSP16, literal(-9)))
          CFI (cfiCond163) V10 load(1, XDATA, add(CFA_XSP16, literal(-8)))
          CFI (cfiCond163) V11 load(1, XDATA, add(CFA_XSP16, literal(-7)))
          CFI (cfiCond163) R7 load(1, XDATA, add(CFA_XSP16, literal(-6)))
          CFI (cfiCond163) ?RET_LOW load(1, XDATA, add(CFA_XSP16, literal(-5)))
          CFI (cfiCond163) ?RET_HIGH load(1, XDATA, add(CFA_XSP16, literal(-4)))
          CFI (cfiCond163) ?BRET_EXT load(1, XDATA, add(CFA_XSP16, literal(-3)))
          CFI (cfiCond163) DPL0 load(1, XDATA, add(CFA_XSP16, literal(-2)))
          CFI (cfiCond163) DPH0 load(1, XDATA, add(CFA_XSP16, literal(-1)))
          CFI (cfiCond163) CFA_SP SP+0
          CFI (cfiCond163) CFA_XSP16 add(XSP16, 27)
          CFI Block cfiCond164 Using cfiCommon0
          CFI (cfiCond164) Function SampleApp_Tester_calibration_differentAMessage
          CFI (cfiCond164) Conditional ??CrossCallReturnLabel_73, ??CrossCallReturnLabel_6
          CFI (cfiCond164) R6 load(1, XDATA, add(CFA_XSP16, literal(-20)))
          CFI (cfiCond164) VB load(1, XDATA, add(CFA_XSP16, literal(-19)))
          CFI (cfiCond164) V0 load(1, XDATA, add(CFA_XSP16, literal(-18)))
          CFI (cfiCond164) V1 load(1, XDATA, add(CFA_XSP16, literal(-17)))
          CFI (cfiCond164) V2 load(1, XDATA, add(CFA_XSP16, literal(-16)))
          CFI (cfiCond164) V3 load(1, XDATA, add(CFA_XSP16, literal(-15)))
          CFI (cfiCond164) V4 load(1, XDATA, add(CFA_XSP16, literal(-14)))
          CFI (cfiCond164) V5 load(1, XDATA, add(CFA_XSP16, literal(-13)))
          CFI (cfiCond164) V6 load(1, XDATA, add(CFA_XSP16, literal(-12)))
          CFI (cfiCond164) V7 load(1, XDATA, add(CFA_XSP16, literal(-11)))
          CFI (cfiCond164) V8 load(1, XDATA, add(CFA_XSP16, literal(-10)))
          CFI (cfiCond164) V9 load(1, XDATA, add(CFA_XSP16, literal(-9)))
          CFI (cfiCond164) V10 load(1, XDATA, add(CFA_XSP16, literal(-8)))
          CFI (cfiCond164) V11 load(1, XDATA, add(CFA_XSP16, literal(-7)))
          CFI (cfiCond164) R7 load(1, XDATA, add(CFA_XSP16, literal(-6)))
          CFI (cfiCond164) ?RET_LOW load(1, XDATA, add(CFA_XSP16, literal(-5)))
          CFI (cfiCond164) ?RET_HIGH load(1, XDATA, add(CFA_XSP16, literal(-4)))
          CFI (cfiCond164) ?BRET_EXT load(1, XDATA, add(CFA_XSP16, literal(-3)))
          CFI (cfiCond164) DPL0 load(1, XDATA, add(CFA_XSP16, literal(-2)))
          CFI (cfiCond164) DPH0 load(1, XDATA, add(CFA_XSP16, literal(-1)))
          CFI (cfiCond164) CFA_SP SP+0
          CFI (cfiCond164) CFA_XSP16 add(XSP16, 28)
          CFI Block cfiCond165 Using cfiCommon0
          CFI (cfiCond165) Function SampleApp_Tester_calibrationOffsetAMessage
          CFI (cfiCond165) Conditional ??CrossCallReturnLabel_73, ??CrossCallReturnLabel_7
          CFI (cfiCond165) R6 load(1, XDATA, add(CFA_XSP16, literal(-20)))
          CFI (cfiCond165) VB load(1, XDATA, add(CFA_XSP16, literal(-19)))
          CFI (cfiCond165) V0 load(1, XDATA, add(CFA_XSP16, literal(-18)))
          CFI (cfiCond165) V1 load(1, XDATA, add(CFA_XSP16, literal(-17)))
          CFI (cfiCond165) V2 load(1, XDATA, add(CFA_XSP16, literal(-16)))
          CFI (cfiCond165) V3 load(1, XDATA, add(CFA_XSP16, literal(-15)))
          CFI (cfiCond165) V4 load(1, XDATA, add(CFA_XSP16, literal(-14)))
          CFI (cfiCond165) V5 load(1, XDATA, add(CFA_XSP16, literal(-13)))
          CFI (cfiCond165) V6 load(1, XDATA, add(CFA_XSP16, literal(-12)))
          CFI (cfiCond165) V7 load(1, XDATA, add(CFA_XSP16, literal(-11)))
          CFI (cfiCond165) V8 load(1, XDATA, add(CFA_XSP16, literal(-10)))
          CFI (cfiCond165) V9 load(1, XDATA, add(CFA_XSP16, literal(-9)))
          CFI (cfiCond165) V10 load(1, XDATA, add(CFA_XSP16, literal(-8)))
          CFI (cfiCond165) V11 load(1, XDATA, add(CFA_XSP16, literal(-7)))
          CFI (cfiCond165) R7 load(1, XDATA, add(CFA_XSP16, literal(-6)))
          CFI (cfiCond165) ?RET_LOW load(1, XDATA, add(CFA_XSP16, literal(-5)))
          CFI (cfiCond165) ?RET_HIGH load(1, XDATA, add(CFA_XSP16, literal(-4)))
          CFI (cfiCond165) ?BRET_EXT load(1, XDATA, add(CFA_XSP16, literal(-3)))
          CFI (cfiCond165) DPL0 load(1, XDATA, add(CFA_XSP16, literal(-2)))
          CFI (cfiCond165) DPH0 load(1, XDATA, add(CFA_XSP16, literal(-1)))
          CFI (cfiCond165) CFA_SP SP+0
          CFI (cfiCond165) CFA_XSP16 add(XSP16, 28)
          CFI Block cfiPicker166 Using cfiCommon1
          CFI (cfiPicker166) NoFunction
          CFI (cfiPicker166) Picker
        MOVX    @DPTR,A
        INC     DPTR
        CLR     A
        MOVX    @DPTR,A
        RET
          CFI EndBlock cfiCond157
          CFI EndBlock cfiCond158
          CFI EndBlock cfiCond159
          CFI EndBlock cfiCond160
          CFI EndBlock cfiCond161
          CFI EndBlock cfiCond162
          CFI EndBlock cfiCond163
          CFI EndBlock cfiCond164
          CFI EndBlock cfiCond165
          CFI EndBlock cfiPicker166
// 1436 
// 1437 /*********************************************************************
// 1438  * @fn      SampleApp_Tester_calibrationOffsetAMessage
// 1439  *
// 1440  * @brief   Send the periodic message.
// 1441  *
// 1442  * @param   none
// 1443  *
// 1444  * @return  none
// 1445  */

        RSEG BANKED_CODE:CODE:NOROOT(0)
// 1446 void SampleApp_Tester_calibrationOffsetAMessage( int index , float A )
SampleApp_Tester_calibrationOffsetAMessage:
          CFI Block cfiBlock167 Using cfiCommon0
          CFI Function SampleApp_Tester_calibrationOffsetAMessage
        CODE
// 1447 {
        FUNCALL SampleApp_Tester_calibrationOffsetAMessage, AF_DataRequest
        LOCFRAME ISTACK, 0, STACK
        LOCFRAME PSTACK, 0, STACK
        LOCFRAME XSTACK, 37, STACK
        LOCFRAME IOVERLAY, 0, STATIC
        LOCFRAME DOVERLAY, 0, STATIC
        ARGFRAME ISTACK, 0, STACK
        ARGFRAME PSTACK, 0, STACK
        ARGFRAME XSTACK, 37, STACK
        ARGFRAME IOVERLAY, 0, STATIC
        ARGFRAME DOVERLAY, 0, STATIC
        MOV     A,#-0x14
        LCALL   ?BANKED_ENTER_XDATA
          CFI DPH0 load(1, XDATA, add(CFA_XSP16, literal(-1)))
          CFI DPL0 load(1, XDATA, add(CFA_XSP16, literal(-2)))
          CFI ?BRET_EXT load(1, XDATA, add(CFA_XSP16, literal(-3)))
          CFI ?RET_HIGH load(1, XDATA, add(CFA_XSP16, literal(-4)))
          CFI ?RET_LOW load(1, XDATA, add(CFA_XSP16, literal(-5)))
          CFI R7 load(1, XDATA, add(CFA_XSP16, literal(-6)))
          CFI V11 load(1, XDATA, add(CFA_XSP16, literal(-7)))
          CFI V10 load(1, XDATA, add(CFA_XSP16, literal(-8)))
          CFI V9 load(1, XDATA, add(CFA_XSP16, literal(-9)))
          CFI V8 load(1, XDATA, add(CFA_XSP16, literal(-10)))
          CFI V7 load(1, XDATA, add(CFA_XSP16, literal(-11)))
          CFI V6 load(1, XDATA, add(CFA_XSP16, literal(-12)))
          CFI V5 load(1, XDATA, add(CFA_XSP16, literal(-13)))
          CFI V4 load(1, XDATA, add(CFA_XSP16, literal(-14)))
          CFI V3 load(1, XDATA, add(CFA_XSP16, literal(-15)))
          CFI V2 load(1, XDATA, add(CFA_XSP16, literal(-16)))
          CFI V1 load(1, XDATA, add(CFA_XSP16, literal(-17)))
          CFI V0 load(1, XDATA, add(CFA_XSP16, literal(-18)))
          CFI VB load(1, XDATA, add(CFA_XSP16, literal(-19)))
          CFI R6 load(1, XDATA, add(CFA_XSP16, literal(-20)))
          CFI CFA_SP SP+0
          CFI CFA_XSP16 add(XSP16, 20)
        ; Saved register size: 20
        ; Auto size: 8
        MOV     A,#-0x8
        LCALL   ?ALLOC_XSTACK8
          CFI CFA_XSP16 add(XSP16, 28)
// 1448     
// 1449   SampleApp_Tester_DstAddr.addrMode = (afAddrMode_t)AddrGroup;  //AddrGroup
        LCALL   ?Subroutine5 & 0xFFFF
// 1450   SampleApp_Tester_DstAddr.endPoint = SAMPLEAPP_ENDPOINT;
// 1451   SampleApp_Tester_DstAddr.addr.shortAddr =  SAMPLEAPP_CalN_GROUP;    //SAMPLEAPP_QUADROTOR_GROUP
??CrossCallReturnLabel_7:
        MOV     A,#0x1c
        LCALL   ?XSTACK_DISP0_8
        MOV     R0,#?V0 + 0
        LCALL   ?L_MOV_X
// 1452  
// 1453 
// 1454 
// 1455   float tempn=A;  
        MOV     ?V0 + 4,?V0 + 0
        MOV     ?V0 + 5,?V0 + 1
        MOV     ?V0 + 6,?V0 + 2
        MOV     ?V0 + 7,?V0 + 3
// 1456   uint8 data[8]="O";
        MOV     DPL,?XSP + 0
        MOV     DPH,?XSP + 1
        MOV     R4,DPL
        MOV     R5,DPH
        MOV     DPH,#(`?<Constant "O">` >> 8) & 0xff
        MOV     DPL,#`?<Constant "O">` & 0xff
        MOV     A,#0x8
        LCALL   ?MOVE_LONG8_XDATA_XDATA
// 1457   uint8 number8;
// 1458   data[1]=0x30+index;
        MOV     A,R2
        ADD     A,#0x30
        PUSH    A
          CFI CFA_SP SP+-1
        MOV     A,#0x1
        LCALL   ?XSTACK_DISP0_8
        POP     A
          CFI CFA_SP SP+0
        MOVX    @DPTR,A
// 1459   if(A>=0)
        MOV     DPTR,#__Constant_0
        MOV     R0,#?V0 + 8
        LCALL   ?L_MOV_X
        MOV     R0,#?V0 + 0
        MOV     R1,#?V0 + 8
        LCALL   ?FLT_GE
        JNC     ??SampleApp_Tester_calibrationOffsetAMessage_0
// 1460   {
// 1461           data[2]='+'; 
        MOV     A,#0x2
        LCALL   ?XSTACK_DISP0_8
        MOV     A,#0x2b
        SJMP    ??SampleApp_Tester_calibrationOffsetAMessage_1
// 1462   } 
// 1463   else
// 1464   {
// 1465           tempn=-tempn;
??SampleApp_Tester_calibrationOffsetAMessage_0:
        MOV     A,?V0 + 7
        CPL     0xE0 /* A   */.7
        MOV     ?V0 + 7,A
// 1466           data[2]='-';
        MOV     A,#0x2
        LCALL   ?XSTACK_DISP0_8
        MOV     A,#0x2d
??SampleApp_Tester_calibrationOffsetAMessage_1:
        MOVX    @DPTR,A
// 1467           
// 1468   }
// 1469   
// 1470           number8=(uint8)(tempn/10);
// 1471           data[3]=number8+'0';
        LJMP    ?Subroutine1 & 0xFFFF
          CFI EndBlock cfiBlock167
// 1472           number8=(uint8)(((int)tempn)%10);
// 1473           data[4]=number8+'0';
// 1474           data[5]='.';
// 1475           tempn=10*(tempn-(int)tempn);
// 1476           number8=(uint8)tempn;
// 1477           data[6]=number8+'0';
// 1478           data[7]='\n'; 
// 1479           
// 1480           if ( AF_DataRequest( &SampleApp_Tester_DstAddr, &SampleApp_epDesc,
// 1481                                CALBRATION_N_CLUSTERID,
// 1482                                8,//osal_strlen("A1")+1,
// 1483                                data,
// 1484                                &SampleApp_TransID,
// 1485                                AF_SKIP_ROUTING,//AF_DISCV_ROUTE,  
// 1486                                1//AF_DEFAULT_RADIUS 
// 1487                                 ) == afStatus_SUCCESS )
// 1488           {
// 1489           }
// 1490           else
// 1491           {
// 1492             // Error occurred in request to send.
// 1493           }
// 1494   
// 1495 }
// 1496 
// 1497 
// 1498 
// 1499 /*********************************************************************
// 1500  * @fn      SampleApp_Quadrotor_SendLocation
// 1501  *
// 1502  * @brief   Send the flash message to group 1.
// 1503  *
// 1504  * @param   flashTime - in milliseconds
// 1505  *
// 1506  * @return  none
// 1507  */

        RSEG BANKED_CODE:CODE:NOROOT(0)
// 1508 void SampleApp_Quadrotor_SendLocation( int index )
SampleApp_Quadrotor_SendLocation:
          CFI Block cfiBlock168 Using cfiCommon0
          CFI Function SampleApp_Quadrotor_SendLocation
        CODE
// 1509 {
        FUNCALL SampleApp_Quadrotor_SendLocation, SampleApp_MinMax_localization
        LOCFRAME ISTACK, 0, STACK
        LOCFRAME PSTACK, 0, STACK
        LOCFRAME XSTACK, 62, STACK
        LOCFRAME IOVERLAY, 0, STATIC
        LOCFRAME DOVERLAY, 0, STATIC
        ARGFRAME ISTACK, 0, STACK
        ARGFRAME PSTACK, 0, STACK
        ARGFRAME XSTACK, 62, STACK
        ARGFRAME IOVERLAY, 0, STATIC
        ARGFRAME DOVERLAY, 0, STATIC
        FUNCALL SampleApp_Quadrotor_SendLocation, AF_DataRequest
        LOCFRAME ISTACK, 0, STACK
        LOCFRAME PSTACK, 0, STACK
        LOCFRAME XSTACK, 55, STACK
        LOCFRAME IOVERLAY, 0, STATIC
        LOCFRAME DOVERLAY, 0, STATIC
        ARGFRAME ISTACK, 0, STACK
        ARGFRAME PSTACK, 0, STACK
        ARGFRAME XSTACK, 55, STACK
        ARGFRAME IOVERLAY, 0, STATIC
        ARGFRAME DOVERLAY, 0, STATIC
        MOV     A,#-0x14
        LCALL   ?BANKED_ENTER_XDATA
          CFI DPH0 load(1, XDATA, add(CFA_XSP16, literal(-1)))
          CFI DPL0 load(1, XDATA, add(CFA_XSP16, literal(-2)))
          CFI ?BRET_EXT load(1, XDATA, add(CFA_XSP16, literal(-3)))
          CFI ?RET_HIGH load(1, XDATA, add(CFA_XSP16, literal(-4)))
          CFI ?RET_LOW load(1, XDATA, add(CFA_XSP16, literal(-5)))
          CFI R7 load(1, XDATA, add(CFA_XSP16, literal(-6)))
          CFI V11 load(1, XDATA, add(CFA_XSP16, literal(-7)))
          CFI V10 load(1, XDATA, add(CFA_XSP16, literal(-8)))
          CFI V9 load(1, XDATA, add(CFA_XSP16, literal(-9)))
          CFI V8 load(1, XDATA, add(CFA_XSP16, literal(-10)))
          CFI V7 load(1, XDATA, add(CFA_XSP16, literal(-11)))
          CFI V6 load(1, XDATA, add(CFA_XSP16, literal(-12)))
          CFI V5 load(1, XDATA, add(CFA_XSP16, literal(-13)))
          CFI V4 load(1, XDATA, add(CFA_XSP16, literal(-14)))
          CFI V3 load(1, XDATA, add(CFA_XSP16, literal(-15)))
          CFI V2 load(1, XDATA, add(CFA_XSP16, literal(-16)))
          CFI V1 load(1, XDATA, add(CFA_XSP16, literal(-17)))
          CFI V0 load(1, XDATA, add(CFA_XSP16, literal(-18)))
          CFI VB load(1, XDATA, add(CFA_XSP16, literal(-19)))
          CFI R6 load(1, XDATA, add(CFA_XSP16, literal(-20)))
          CFI CFA_SP SP+0
          CFI CFA_XSP16 add(XSP16, 20)
        ; Saved register size: 20
        ; Auto size: 26
        MOV     A,#-0x1a
        LCALL   ?ALLOC_XSTACK8
          CFI CFA_XSP16 add(XSP16, 46)
        MOV     A,R2
        MOV     R6,A
        MOV     A,R3
        MOV     R7,A
// 1510   
// 1511   SampleApp_Quadrotor_Location_DstAddr.addrMode = (afAddrMode_t)AddrGroup;  //AddrGroup
        MOV     DPTR,#SampleApp_Quadrotor_Location_DstAddr + 8
        MOV     A,#0x1
        MOVX    @DPTR,A
// 1512   SampleApp_Quadrotor_Location_DstAddr.endPoint = SAMPLEAPP_ENDPOINT;
        INC     DPTR
        MOV     A,#0x14
        MOVX    @DPTR,A
// 1513   SampleApp_Quadrotor_Location_DstAddr.addr.shortAddr = SAMPLEAPP_QUADROTOR_GROUP;    //SAMPLEAPP_QUADROTOR_GROUP
        MOV     DPTR,#SampleApp_Quadrotor_Location_DstAddr
        MOV     A,#0x2
        LCALL   ??Subroutine38_0 & 0xFFFF
// 1514   
// 1515   float xposition;
// 1516   float yposition;
// 1517   float zposition;
// 1518   
// 1519   zposition=locationZ[index-1];
??CrossCallReturnLabel_71:
        MOV     ?V0 + 2,R6
        MOV     ?V0 + 3,R7
        MOV     A,#0x2
        MOV     R0,#?V0 + 2
        LCALL   ?S_SHL
        MOV     ?V0 + 0,?V0 + 2
        MOV     ?V0 + 1,?V0 + 3
        MOV     A,#(locationZ + 252) & 0xff
        ADD     A,?V0 + 0
        MOV     DPL,A
        MOV     A,#((locationZ - 4) >> 8) & 0xff
        ADDC    A,?V0 + 1
        MOV     DPH,A
        MOV     R0,#?V0 + 4
        LCALL   ?L_MOV_X
// 1520   // using min-max algorithm
// 1521   SampleApp_MinMax_localization(&xposition, &yposition, zposition, nValue,
// 1522                             RssiValue, AValue, AnchorX, AnchorY,OffsetAValue);
        ; Setup parameters for call to function SampleApp_MinMax_localization
        MOV     ?V0 + 2,#OffsetAValue & 0xff
        MOV     ?V0 + 3,#(OffsetAValue >> 8) & 0xff
        MOV     R0,#?V0 + 2
        LCALL   ?PUSH_XSTACK_I_TWO
          CFI CFA_XSP16 add(XSP16, 48)
        MOV     ?V0 + 2,#AnchorY & 0xff
        MOV     ?V0 + 3,#(AnchorY >> 8) & 0xff
        MOV     R0,#?V0 + 2
        LCALL   ?PUSH_XSTACK_I_TWO
          CFI CFA_XSP16 add(XSP16, 50)
        MOV     ?V0 + 2,#AnchorX & 0xff
        MOV     ?V0 + 3,#(AnchorX >> 8) & 0xff
        MOV     R0,#?V0 + 2
        LCALL   ?PUSH_XSTACK_I_TWO
          CFI CFA_XSP16 add(XSP16, 52)
        MOV     ?V0 + 2,#AValue & 0xff
        MOV     ?V0 + 3,#(AValue >> 8) & 0xff
        MOV     R0,#?V0 + 2
        LCALL   ?PUSH_XSTACK_I_TWO
          CFI CFA_XSP16 add(XSP16, 54)
        MOV     ?V0 + 2,#RssiValue & 0xff
        MOV     ?V0 + 3,#(RssiValue >> 8) & 0xff
        MOV     R0,#?V0 + 2
        LCALL   ?PUSH_XSTACK_I_TWO
          CFI CFA_XSP16 add(XSP16, 56)
        MOV     ?V0 + 2,#nValue & 0xff
        MOV     ?V0 + 3,#(nValue >> 8) & 0xff
        MOV     R0,#?V0 + 2
        LCALL   ?PUSH_XSTACK_I_TWO
          CFI CFA_XSP16 add(XSP16, 58)
        MOV     R0,#?V0 + 4
        LCALL   ?PUSH_XSTACK_I_FOUR
          CFI CFA_XSP16 add(XSP16, 62)
        MOV     A,#0x10
        LCALL   ?XSTACK_DISP0_8
        MOV     R4,DPL
        MOV     R5,DPH
        MOV     A,#0x14
        LCALL   ?XSTACK_DISP0_8
        MOV     R2,DPL
        MOV     R3,DPH
        LCALL   ??SampleApp_MinMax_localization?relay
        MOV     A,#0x10
        LCALL   ?DEALLOC_XSTACK8
          CFI CFA_XSP16 add(XSP16, 46)
// 1523 //  locationX[index-1]=0.5f*xposition;
// 1524 //  locationY[index-1]=0.5f*yposition;
// 1525   // using weighted centroid localization algorithm
// 1526   //SampleApp_WCL_localization(&xposition, &yposition, nValue,RssiValue,AValue,AnchorX,AnchorY,OffsetAValue);
// 1527   locationX[index-1]=xposition;
        MOV     A,#0x4
        LCALL   ?XSTACK_DISP0_8
        LCALL   ?XLOAD_R2345
        MOV     A,#(locationX + 252) & 0xff
        ADD     A,?V0 + 0
        MOV     DPL,A
        MOV     A,#((locationX - 4) >> 8) & 0xff
        ADDC    A,?V0 + 1
        MOV     DPH,A
        LCALL   ?XSTORE_R2345
// 1528   locationY[index-1]=yposition;
        MOV     DPL,?XSP + 0
        MOV     DPH,?XSP + 1
        LCALL   ?XLOAD_R2345
        MOV     A,#(locationY + 252) & 0xff
        ADD     A,?V0 + 0
        MOV     DPL,A
        MOV     A,#((locationY - 4) >> 8) & 0xff
        ADDC    A,?V0 + 1
        MOV     DPH,A
        LCALL   ?XSTORE_R2345
// 1529   
// 1530   
// 1531 
// 1532   uint8 data[18]="Q";
        MOV     A,#0x8
        LCALL   ?XSTACK_DISP0_8
        MOV     R4,DPL
        MOV     R5,DPH
        MOV     DPH,#(`?<Constant "Q">` >> 8) & 0xff
        MOV     DPL,#`?<Constant "Q">` & 0xff
        MOV     A,#0x12
        LCALL   ?MOVE_LONG8_XDATA_XDATA
// 1533   data[1]=0x30+index;
        MOV     A,R6
        ADD     A,#0x30
        PUSH    A
          CFI CFA_SP SP+-1
        MOV     A,#0x9
        LCALL   ?XSTACK_DISP0_8
        POP     A
          CFI CFA_SP SP+0
        MOVX    @DPTR,A
// 1534   data[2]='[';
        MOV     A,#0xa
        LCALL   ?XSTACK_DISP0_8
        MOV     A,#0x5b
        MOVX    @DPTR,A
// 1535   data[17]=']';
        MOV     A,#0x19
        LCALL   ?XSTACK_DISP0_8
        MOV     A,#0x5d
        MOVX    @DPTR,A
// 1536   uint8 number8;
// 1537   number8=(uint8)xposition;
        MOV     A,#0x4
        LCALL   ?XSTACK_DISP0_8
        MOV     R0,#?V0 + 0
        LCALL   ?L_MOV_X
        MOV     R0,#?V0 + 0
        LCALL   ?FLT_TO_L
// 1538   data[3]=number8+'0';
        MOV     A,#0x30
        ADD     A,?V0 + 0
        PUSH    A
          CFI CFA_SP SP+-1
        MOV     A,#0xb
        LCALL   ?XSTACK_DISP0_8
        POP     A
          CFI CFA_SP SP+0
        MOVX    @DPTR,A
// 1539   data[4]='.';
        MOV     A,#0xc
        LCALL   ?XSTACK_DISP0_8
        MOV     A,#0x2e
        MOVX    @DPTR,A
// 1540   xposition=10*(xposition-(float)number8);
        MOV     A,#0x4
        LCALL   ?XSTACK_DISP0_8
        MOV     R0,#?V0 + 8
        LCALL   ?L_MOV_X
        CLR     A
        MOV     ?V0 + 1,A
        MOV     ?V0 + 2,A
        MOV     ?V0 + 3,A
        MOV     R0,#?V0 + 0
        LCALL   ?UL_TO_FLT
        MOV     R0,#?V0 + 8
        MOV     R1,#?V0 + 0
        LCALL   ?FLT_SUB
        MOV     DPTR,#__Constant_41200000
        MOV     R0,#?V0 + 0
        LCALL   ?L_MOV_X
        MOV     R0,#?V0 + 8
        MOV     R1,#?V0 + 0
        LCALL   ?FLT_MUL
        MOV     A,#0x4
        LCALL   ?XSTACK_DISP0_8
        MOV     R0,#?V0 + 8
        LCALL   ?L_MOV_TO_X
// 1541   number8=(uint8)xposition;
        MOV     A,#0x4
        LCALL   ?XSTACK_DISP0_8
        MOV     R0,#?V0 + 0
        LCALL   ?L_MOV_X
        MOV     R0,#?V0 + 0
        LCALL   ?FLT_TO_L
// 1542   data[5]=number8+'0';
        MOV     A,#0x30
        ADD     A,?V0 + 0
        PUSH    A
          CFI CFA_SP SP+-1
        MOV     A,#0xd
        LCALL   ?XSTACK_DISP0_8
        POP     A
          CFI CFA_SP SP+0
        MOVX    @DPTR,A
// 1543   xposition=10*(xposition-(float)number8);
        MOV     A,#0x4
        LCALL   ?XSTACK_DISP0_8
        MOV     R0,#?V0 + 8
        LCALL   ?L_MOV_X
        CLR     A
        MOV     ?V0 + 1,A
        MOV     ?V0 + 2,A
        MOV     ?V0 + 3,A
        MOV     R0,#?V0 + 0
        LCALL   ?UL_TO_FLT
        MOV     R0,#?V0 + 8
        MOV     R1,#?V0 + 0
        LCALL   ?FLT_SUB
        MOV     DPTR,#__Constant_41200000
        MOV     R0,#?V0 + 0
        LCALL   ?L_MOV_X
        MOV     R0,#?V0 + 8
        MOV     R1,#?V0 + 0
        LCALL   ?FLT_MUL
        MOV     A,#0x4
        LCALL   ?XSTACK_DISP0_8
        MOV     R0,#?V0 + 8
        LCALL   ?L_MOV_TO_X
// 1544   number8=(uint8)xposition+'0';
// 1545   data[6]=number8;
        MOV     A,#0x4
        LCALL   ?XSTACK_DISP0_8
        MOV     R0,#?V0 + 0
        LCALL   ?L_MOV_X
        MOV     R0,#?V0 + 0
        LCALL   ?FLT_TO_L
        MOV     A,?V0 + 0
        ADD     A,#0x30
        PUSH    A
          CFI CFA_SP SP+-1
        MOV     A,#0xe
        LCALL   ?XSTACK_DISP0_8
        POP     A
          CFI CFA_SP SP+0
        MOVX    @DPTR,A
// 1546   data[7]=',';
        MOV     A,#0xf
        LCALL   ?XSTACK_DISP0_8
        MOV     A,#0x2c
        LCALL   ?Subroutine23 & 0xFFFF
// 1547   number8=(uint8)yposition;
??CrossCallReturnLabel_34:
        MOV     R0,#?V0 + 0
        LCALL   ?L_MOV_X
        MOV     R0,#?V0 + 0
        LCALL   ?FLT_TO_L
// 1548   data[8]=number8+'0';
        MOV     A,#0x30
        ADD     A,?V0 + 0
        PUSH    A
          CFI CFA_SP SP+-1
        MOV     A,#0x10
        LCALL   ?XSTACK_DISP0_8
        POP     A
          CFI CFA_SP SP+0
        MOVX    @DPTR,A
// 1549   data[9]='.';
        MOV     A,#0x11
        LCALL   ?XSTACK_DISP0_8
        MOV     A,#0x2e
        LCALL   ?Subroutine11 & 0xFFFF
// 1550   yposition=10*(yposition-(float)number8);
??CrossCallReturnLabel_15:
        LCALL   ?L_MOV_X
        CLR     A
        MOV     ?V0 + 1,A
        MOV     ?V0 + 2,A
        MOV     ?V0 + 3,A
        MOV     R0,#?V0 + 0
        LCALL   ?UL_TO_FLT
        MOV     R0,#?V0 + 8
        MOV     R1,#?V0 + 0
        LCALL   ?FLT_SUB
        MOV     DPTR,#__Constant_41200000
        MOV     R0,#?V0 + 0
        LCALL   ?L_MOV_X
        MOV     R0,#?V0 + 8
        MOV     R1,#?V0 + 0
        LCALL   ?FLT_MUL
        MOV     DPL,?XSP + 0
        MOV     DPH,?XSP + 1
        MOV     R0,#?V0 + 8
        LCALL   ?L_MOV_TO_X
// 1551   number8=(uint8)yposition;
        MOV     DPL,?XSP + 0
        MOV     DPH,?XSP + 1
        MOV     R0,#?V0 + 0
        LCALL   ?L_MOV_X
        MOV     R0,#?V0 + 0
        LCALL   ?FLT_TO_L
// 1552   data[10]=number8+'0';
        MOV     A,#0x30
        ADD     A,?V0 + 0
        PUSH    A
          CFI CFA_SP SP+-1
        MOV     A,#0x12
        LCALL   ?XSTACK_DISP0_8
        POP     A
          CFI CFA_SP SP+0
        LCALL   ?Subroutine11 & 0xFFFF
// 1553   yposition=10*(yposition-(float)number8);
??CrossCallReturnLabel_16:
        LCALL   ?L_MOV_X
        CLR     A
        MOV     ?V0 + 1,A
        MOV     ?V0 + 2,A
        MOV     ?V0 + 3,A
        MOV     R0,#?V0 + 0
        LCALL   ?UL_TO_FLT
        MOV     R0,#?V0 + 8
        MOV     R1,#?V0 + 0
        LCALL   ?FLT_SUB
        MOV     DPTR,#__Constant_41200000
        MOV     R0,#?V0 + 0
        LCALL   ?L_MOV_X
        MOV     R0,#?V0 + 8
        MOV     R1,#?V0 + 0
        LCALL   ?FLT_MUL
        MOV     DPL,?XSP + 0
        MOV     DPH,?XSP + 1
        MOV     R0,#?V0 + 8
        LCALL   ?L_MOV_TO_X
// 1554   number8=(uint8)yposition+'0';
// 1555   data[11]=number8;
        MOV     DPL,?XSP + 0
        MOV     DPH,?XSP + 1
        MOV     R0,#?V0 + 0
        LCALL   ?L_MOV_X
        MOV     R0,#?V0 + 0
        LCALL   ?FLT_TO_L
        MOV     A,?V0 + 0
        ADD     A,#0x30
        PUSH    A
          CFI CFA_SP SP+-1
        MOV     A,#0x13
        LCALL   ?XSTACK_DISP0_8
        POP     A
          CFI CFA_SP SP+0
        MOVX    @DPTR,A
// 1556   data[12]=',';
        MOV     A,#0x14
        LCALL   ?XSTACK_DISP0_8
        MOV     A,#0x2c
        LCALL   ?Subroutine4 & 0xFFFF
// 1557   number8=(uint8)zposition;
??CrossCallReturnLabel_4:
        LCALL   ?FLT_TO_L
// 1558   data[13]=number8+'0';
        MOV     A,#0x30
        ADD     A,?V0 + 0
        PUSH    A
          CFI CFA_SP SP+-1
        MOV     A,#0x15
        LCALL   ?XSTACK_DISP0_8
        POP     A
          CFI CFA_SP SP+0
        MOVX    @DPTR,A
// 1559   data[14]='.';
        MOV     A,#0x16
        LCALL   ?XSTACK_DISP0_8
        LCALL   ?Subroutine6 & 0xFFFF
// 1560   zposition=10*(zposition-(float)number8);
??CrossCallReturnLabel_76:
        LCALL   ?UL_TO_FLT
        MOV     R0,#?V0 + 4
        MOV     R1,#?V0 + 0
        LCALL   ?FLT_SUB
        MOV     DPTR,#__Constant_41200000
        MOV     R0,#?V0 + 0
        LCALL   ?L_MOV_X
        MOV     R0,#?V0 + 4
        MOV     R1,#?V0 + 0
        LCALL   ?FLT_MUL
// 1561   number8=(uint8)zposition;
        MOV     ?V0 + 0,?V0 + 4
        MOV     ?V0 + 1,?V0 + 5
        MOV     ?V0 + 2,?V0 + 6
        MOV     ?V0 + 3,?V0 + 7
        MOV     R0,#?V0 + 0
        LCALL   ?FLT_TO_L
// 1562   data[15]=number8+'0';
        MOV     A,#0x30
        ADD     A,?V0 + 0
        PUSH    A
          CFI CFA_SP SP+-1
        MOV     A,#0x17
        LCALL   ?XSTACK_DISP0_8
        POP     A
          CFI CFA_SP SP+0
        LCALL   ??Subroutine39_0 & 0xFFFF
// 1563   zposition=10*(zposition-(float)number8);
// 1564   number8=(uint8)zposition+'0';
// 1565   data[16]=number8;
??CrossCallReturnLabel_78:
        LCALL   ?UL_TO_FLT
        MOV     R0,#?V0 + 4
        MOV     R1,#?V0 + 0
        LCALL   ?FLT_SUB
        MOV     DPTR,#__Constant_41200000
        MOV     R0,#?V0 + 0
        LCALL   ?L_MOV_X
        MOV     R0,#?V0 + 4
        MOV     R1,#?V0 + 0
        LCALL   ?FLT_MUL
        MOV     R0,#?V0 + 4
        LCALL   ?FLT_TO_L
        MOV     A,?V0 + 4
        ADD     A,#0x30
        PUSH    A
          CFI CFA_SP SP+-1
        MOV     A,#0x18
        LCALL   ?XSTACK_DISP0_8
        POP     A
          CFI CFA_SP SP+0
        MOVX    @DPTR,A
// 1566   //data[18]='\0';
// 1567  // HalUARTWrite(0, data, 18);
// 1568   if ( AF_DataRequest( &SampleApp_Quadrotor_Location_DstAddr, &SampleApp_epDesc,
// 1569                          LZQR_GROUP_CLUSTERID,
// 1570                          18,//osal_strlen("Q1")+1,
// 1571                          data,
// 1572                          &SampleApp_TransID,
// 1573                          AF_DISCV_ROUTE,//AF_SKIP_ROUTING,  
// 1574                          AF_DEFAULT_RADIUS// 1
// 1575                            ) == afStatus_SUCCESS )
        ; Setup parameters for call to function AF_DataRequest
        MOV     ?V0 + 0,#0x1e
        MOV     R0,#?V0 + 0
        LCALL   ?PUSH_XSTACK_I_ONE
          CFI CFA_XSP16 add(XSP16, 47)
        MOV     ?V0 + 0,#SampleApp_TransID & 0xff
        MOV     ?V0 + 1,#(SampleApp_TransID >> 8) & 0xff
        MOV     R0,#?V0 + 0
        LCALL   ?PUSH_XSTACK_I_TWO
          CFI CFA_XSP16 add(XSP16, 49)
        MOV     A,#0xb
        LCALL   ?XSTACK_DISP0_8
        MOV     ?V0 + 0,DPL
        MOV     ?V0 + 1,DPH
        MOV     R0,#?V0 + 0
        LCALL   ?PUSH_XSTACK_I_TWO
          CFI CFA_XSP16 add(XSP16, 51)
        MOV     ?V0 + 0,#0x12
        MOV     ?V0 + 1,#0x0
        MOV     R0,#?V0 + 0
        LCALL   ?PUSH_XSTACK_I_TWO
          CFI CFA_XSP16 add(XSP16, 53)
        MOV     ?V0 + 0,#0x3
        MOV     R0,#?V0 + 0
        LCALL   ?PUSH_XSTACK_I_TWO
          CFI CFA_XSP16 add(XSP16, 55)
        MOV     R1,#0x20
        MOV     R4,#SampleApp_epDesc & 0xff
        MOV     R5,#(SampleApp_epDesc >> 8) & 0xff
        MOV     R2,#SampleApp_Quadrotor_Location_DstAddr & 0xff
        MOV     R3,#(SampleApp_Quadrotor_Location_DstAddr >> 8) & 0xff
        LCALL   ??AF_DataRequest?relay
        MOV     A,#0x9
        LCALL   ?DEALLOC_XSTACK8
          CFI CFA_XSP16 add(XSP16, 46)
// 1576     {
// 1577     }
// 1578     else
// 1579     {
// 1580       // Error occurred in request to send.
// 1581     }
// 1582 
// 1583 
// 1584 }
        MOV     A,#0x1a
        LJMP    ??Subroutine36_0 & 0xFFFF
          CFI EndBlock cfiBlock168

        RSEG BANKED_CODE:CODE:NOROOT(0)
?Subroutine23:
          CFI Block cfiCond169 Using cfiCommon0
          CFI Function SampleApp_Router_SendPeriodicMessage
          CFI Conditional ??CrossCallReturnLabel_33
          CFI R6 load(1, XDATA, add(CFA_XSP16, literal(-10)))
          CFI VB load(1, XDATA, add(CFA_XSP16, literal(-9)))
          CFI V0 load(1, XDATA, add(CFA_XSP16, literal(-8)))
          CFI V1 load(1, XDATA, add(CFA_XSP16, literal(-7)))
          CFI R7 load(1, XDATA, add(CFA_XSP16, literal(-6)))
          CFI ?RET_LOW load(1, XDATA, add(CFA_XSP16, literal(-5)))
          CFI ?RET_HIGH load(1, XDATA, add(CFA_XSP16, literal(-4)))
          CFI ?BRET_EXT load(1, XDATA, add(CFA_XSP16, literal(-3)))
          CFI DPL0 load(1, XDATA, add(CFA_XSP16, literal(-2)))
          CFI DPH0 load(1, XDATA, add(CFA_XSP16, literal(-1)))
          CFI CFA_SP SP+0
          CFI CFA_XSP16 add(XSP16, 12)
          CFI Block cfiCond170 Using cfiCommon0
          CFI (cfiCond170) Function SampleApp_Quadrotor_SendLocation
          CFI (cfiCond170) Conditional ??CrossCallReturnLabel_34
          CFI (cfiCond170) R6 load(1, XDATA, add(CFA_XSP16, literal(-20)))
          CFI (cfiCond170) VB load(1, XDATA, add(CFA_XSP16, literal(-19)))
          CFI (cfiCond170) V0 load(1, XDATA, add(CFA_XSP16, literal(-18)))
          CFI (cfiCond170) V1 load(1, XDATA, add(CFA_XSP16, literal(-17)))
          CFI (cfiCond170) V2 load(1, XDATA, add(CFA_XSP16, literal(-16)))
          CFI (cfiCond170) V3 load(1, XDATA, add(CFA_XSP16, literal(-15)))
          CFI (cfiCond170) V4 load(1, XDATA, add(CFA_XSP16, literal(-14)))
          CFI (cfiCond170) V5 load(1, XDATA, add(CFA_XSP16, literal(-13)))
          CFI (cfiCond170) V6 load(1, XDATA, add(CFA_XSP16, literal(-12)))
          CFI (cfiCond170) V7 load(1, XDATA, add(CFA_XSP16, literal(-11)))
          CFI (cfiCond170) V8 load(1, XDATA, add(CFA_XSP16, literal(-10)))
          CFI (cfiCond170) V9 load(1, XDATA, add(CFA_XSP16, literal(-9)))
          CFI (cfiCond170) V10 load(1, XDATA, add(CFA_XSP16, literal(-8)))
          CFI (cfiCond170) V11 load(1, XDATA, add(CFA_XSP16, literal(-7)))
          CFI (cfiCond170) R7 load(1, XDATA, add(CFA_XSP16, literal(-6)))
          CFI (cfiCond170) ?RET_LOW load(1, XDATA, add(CFA_XSP16, literal(-5)))
          CFI (cfiCond170) ?RET_HIGH load(1, XDATA, add(CFA_XSP16, literal(-4)))
          CFI (cfiCond170) ?BRET_EXT load(1, XDATA, add(CFA_XSP16, literal(-3)))
          CFI (cfiCond170) DPL0 load(1, XDATA, add(CFA_XSP16, literal(-2)))
          CFI (cfiCond170) DPH0 load(1, XDATA, add(CFA_XSP16, literal(-1)))
          CFI (cfiCond170) CFA_SP SP+0
          CFI (cfiCond170) CFA_XSP16 add(XSP16, 46)
          CFI Block cfiCond171 Using cfiCommon0
          CFI (cfiCond171) Function SampleApp_Quadrotor_SendLocation
          CFI (cfiCond171) Conditional ??CrossCallReturnLabel_35, ??CrossCallReturnLabel_15
          CFI (cfiCond171) R6 load(1, XDATA, add(CFA_XSP16, literal(-20)))
          CFI (cfiCond171) VB load(1, XDATA, add(CFA_XSP16, literal(-19)))
          CFI (cfiCond171) V0 load(1, XDATA, add(CFA_XSP16, literal(-18)))
          CFI (cfiCond171) V1 load(1, XDATA, add(CFA_XSP16, literal(-17)))
          CFI (cfiCond171) V2 load(1, XDATA, add(CFA_XSP16, literal(-16)))
          CFI (cfiCond171) V3 load(1, XDATA, add(CFA_XSP16, literal(-15)))
          CFI (cfiCond171) V4 load(1, XDATA, add(CFA_XSP16, literal(-14)))
          CFI (cfiCond171) V5 load(1, XDATA, add(CFA_XSP16, literal(-13)))
          CFI (cfiCond171) V6 load(1, XDATA, add(CFA_XSP16, literal(-12)))
          CFI (cfiCond171) V7 load(1, XDATA, add(CFA_XSP16, literal(-11)))
          CFI (cfiCond171) V8 load(1, XDATA, add(CFA_XSP16, literal(-10)))
          CFI (cfiCond171) V9 load(1, XDATA, add(CFA_XSP16, literal(-9)))
          CFI (cfiCond171) V10 load(1, XDATA, add(CFA_XSP16, literal(-8)))
          CFI (cfiCond171) V11 load(1, XDATA, add(CFA_XSP16, literal(-7)))
          CFI (cfiCond171) R7 load(1, XDATA, add(CFA_XSP16, literal(-6)))
          CFI (cfiCond171) ?RET_LOW load(1, XDATA, add(CFA_XSP16, literal(-5)))
          CFI (cfiCond171) ?RET_HIGH load(1, XDATA, add(CFA_XSP16, literal(-4)))
          CFI (cfiCond171) ?BRET_EXT load(1, XDATA, add(CFA_XSP16, literal(-3)))
          CFI (cfiCond171) DPL0 load(1, XDATA, add(CFA_XSP16, literal(-2)))
          CFI (cfiCond171) DPH0 load(1, XDATA, add(CFA_XSP16, literal(-1)))
          CFI (cfiCond171) CFA_SP SP+0
          CFI (cfiCond171) CFA_XSP16 add(XSP16, 46)
          CFI Block cfiCond172 Using cfiCommon0
          CFI (cfiCond172) Function SampleApp_Quadrotor_SendLocation
          CFI (cfiCond172) Conditional ??CrossCallReturnLabel_35, ??CrossCallReturnLabel_16
          CFI (cfiCond172) R6 load(1, XDATA, add(CFA_XSP16, literal(-20)))
          CFI (cfiCond172) VB load(1, XDATA, add(CFA_XSP16, literal(-19)))
          CFI (cfiCond172) V0 load(1, XDATA, add(CFA_XSP16, literal(-18)))
          CFI (cfiCond172) V1 load(1, XDATA, add(CFA_XSP16, literal(-17)))
          CFI (cfiCond172) V2 load(1, XDATA, add(CFA_XSP16, literal(-16)))
          CFI (cfiCond172) V3 load(1, XDATA, add(CFA_XSP16, literal(-15)))
          CFI (cfiCond172) V4 load(1, XDATA, add(CFA_XSP16, literal(-14)))
          CFI (cfiCond172) V5 load(1, XDATA, add(CFA_XSP16, literal(-13)))
          CFI (cfiCond172) V6 load(1, XDATA, add(CFA_XSP16, literal(-12)))
          CFI (cfiCond172) V7 load(1, XDATA, add(CFA_XSP16, literal(-11)))
          CFI (cfiCond172) V8 load(1, XDATA, add(CFA_XSP16, literal(-10)))
          CFI (cfiCond172) V9 load(1, XDATA, add(CFA_XSP16, literal(-9)))
          CFI (cfiCond172) V10 load(1, XDATA, add(CFA_XSP16, literal(-8)))
          CFI (cfiCond172) V11 load(1, XDATA, add(CFA_XSP16, literal(-7)))
          CFI (cfiCond172) R7 load(1, XDATA, add(CFA_XSP16, literal(-6)))
          CFI (cfiCond172) ?RET_LOW load(1, XDATA, add(CFA_XSP16, literal(-5)))
          CFI (cfiCond172) ?RET_HIGH load(1, XDATA, add(CFA_XSP16, literal(-4)))
          CFI (cfiCond172) ?BRET_EXT load(1, XDATA, add(CFA_XSP16, literal(-3)))
          CFI (cfiCond172) DPL0 load(1, XDATA, add(CFA_XSP16, literal(-2)))
          CFI (cfiCond172) DPH0 load(1, XDATA, add(CFA_XSP16, literal(-1)))
          CFI (cfiCond172) CFA_SP SP+0
          CFI (cfiCond172) CFA_XSP16 add(XSP16, 46)
          CFI Block cfiPicker173 Using cfiCommon1
          CFI (cfiPicker173) NoFunction
          CFI (cfiPicker173) Picker
        MOVX    @DPTR,A
        MOV     DPL,?XSP + 0
        MOV     DPH,?XSP + 1
        RET
          CFI EndBlock cfiCond169
          CFI EndBlock cfiCond170
          CFI EndBlock cfiCond171
          CFI EndBlock cfiCond172
          CFI EndBlock cfiPicker173

        RSEG BANKED_CODE:CODE:NOROOT(0)
?Subroutine11:
          CFI Block cfiCond174 Using cfiCommon0
          CFI Function SampleApp_Quadrotor_SendLocation
          CFI Conditional ??CrossCallReturnLabel_15
          CFI R6 load(1, XDATA, add(CFA_XSP16, literal(-20)))
          CFI VB load(1, XDATA, add(CFA_XSP16, literal(-19)))
          CFI V0 load(1, XDATA, add(CFA_XSP16, literal(-18)))
          CFI V1 load(1, XDATA, add(CFA_XSP16, literal(-17)))
          CFI V2 load(1, XDATA, add(CFA_XSP16, literal(-16)))
          CFI V3 load(1, XDATA, add(CFA_XSP16, literal(-15)))
          CFI V4 load(1, XDATA, add(CFA_XSP16, literal(-14)))
          CFI V5 load(1, XDATA, add(CFA_XSP16, literal(-13)))
          CFI V6 load(1, XDATA, add(CFA_XSP16, literal(-12)))
          CFI V7 load(1, XDATA, add(CFA_XSP16, literal(-11)))
          CFI V8 load(1, XDATA, add(CFA_XSP16, literal(-10)))
          CFI V9 load(1, XDATA, add(CFA_XSP16, literal(-9)))
          CFI V10 load(1, XDATA, add(CFA_XSP16, literal(-8)))
          CFI V11 load(1, XDATA, add(CFA_XSP16, literal(-7)))
          CFI R7 load(1, XDATA, add(CFA_XSP16, literal(-6)))
          CFI ?RET_LOW load(1, XDATA, add(CFA_XSP16, literal(-5)))
          CFI ?RET_HIGH load(1, XDATA, add(CFA_XSP16, literal(-4)))
          CFI ?BRET_EXT load(1, XDATA, add(CFA_XSP16, literal(-3)))
          CFI DPL0 load(1, XDATA, add(CFA_XSP16, literal(-2)))
          CFI DPH0 load(1, XDATA, add(CFA_XSP16, literal(-1)))
          CFI CFA_SP SP+0
          CFI CFA_XSP16 add(XSP16, 46)
          CFI Block cfiCond175 Using cfiCommon0
          CFI (cfiCond175) Function SampleApp_Quadrotor_SendLocation
          CFI (cfiCond175) Conditional ??CrossCallReturnLabel_16
          CFI (cfiCond175) R6 load(1, XDATA, add(CFA_XSP16, literal(-20)))
          CFI (cfiCond175) VB load(1, XDATA, add(CFA_XSP16, literal(-19)))
          CFI (cfiCond175) V0 load(1, XDATA, add(CFA_XSP16, literal(-18)))
          CFI (cfiCond175) V1 load(1, XDATA, add(CFA_XSP16, literal(-17)))
          CFI (cfiCond175) V2 load(1, XDATA, add(CFA_XSP16, literal(-16)))
          CFI (cfiCond175) V3 load(1, XDATA, add(CFA_XSP16, literal(-15)))
          CFI (cfiCond175) V4 load(1, XDATA, add(CFA_XSP16, literal(-14)))
          CFI (cfiCond175) V5 load(1, XDATA, add(CFA_XSP16, literal(-13)))
          CFI (cfiCond175) V6 load(1, XDATA, add(CFA_XSP16, literal(-12)))
          CFI (cfiCond175) V7 load(1, XDATA, add(CFA_XSP16, literal(-11)))
          CFI (cfiCond175) V8 load(1, XDATA, add(CFA_XSP16, literal(-10)))
          CFI (cfiCond175) V9 load(1, XDATA, add(CFA_XSP16, literal(-9)))
          CFI (cfiCond175) V10 load(1, XDATA, add(CFA_XSP16, literal(-8)))
          CFI (cfiCond175) V11 load(1, XDATA, add(CFA_XSP16, literal(-7)))
          CFI (cfiCond175) R7 load(1, XDATA, add(CFA_XSP16, literal(-6)))
          CFI (cfiCond175) ?RET_LOW load(1, XDATA, add(CFA_XSP16, literal(-5)))
          CFI (cfiCond175) ?RET_HIGH load(1, XDATA, add(CFA_XSP16, literal(-4)))
          CFI (cfiCond175) ?BRET_EXT load(1, XDATA, add(CFA_XSP16, literal(-3)))
          CFI (cfiCond175) DPL0 load(1, XDATA, add(CFA_XSP16, literal(-2)))
          CFI (cfiCond175) DPH0 load(1, XDATA, add(CFA_XSP16, literal(-1)))
          CFI (cfiCond175) CFA_SP SP+0
          CFI (cfiCond175) CFA_XSP16 add(XSP16, 46)
          CFI Block cfiPicker176 Using cfiCommon1
          CFI (cfiPicker176) NoFunction
          CFI (cfiPicker176) Picker
        LCALL   ?Subroutine23 & 0xFFFF
??CrossCallReturnLabel_35:
        MOV     R0,#?V0 + 8
        RET
          CFI EndBlock cfiCond174
          CFI EndBlock cfiCond175
          CFI EndBlock cfiPicker176

        RSEG BANKED_CODE:CODE:NOROOT(0)
?Subroutine6:
          CFI Block cfiCond177 Using cfiCommon0
          CFI Function SampleApp_Router_calibrationNMessage
          CFI Conditional ??CrossCallReturnLabel_75
          CFI R6 load(1, XDATA, add(CFA_XSP16, literal(-16)))
          CFI VB load(1, XDATA, add(CFA_XSP16, literal(-15)))
          CFI V0 load(1, XDATA, add(CFA_XSP16, literal(-14)))
          CFI V1 load(1, XDATA, add(CFA_XSP16, literal(-13)))
          CFI V2 load(1, XDATA, add(CFA_XSP16, literal(-12)))
          CFI V3 load(1, XDATA, add(CFA_XSP16, literal(-11)))
          CFI V4 load(1, XDATA, add(CFA_XSP16, literal(-10)))
          CFI V5 load(1, XDATA, add(CFA_XSP16, literal(-9)))
          CFI V6 load(1, XDATA, add(CFA_XSP16, literal(-8)))
          CFI V7 load(1, XDATA, add(CFA_XSP16, literal(-7)))
          CFI R7 load(1, XDATA, add(CFA_XSP16, literal(-6)))
          CFI ?RET_LOW load(1, XDATA, add(CFA_XSP16, literal(-5)))
          CFI ?RET_HIGH load(1, XDATA, add(CFA_XSP16, literal(-4)))
          CFI ?BRET_EXT load(1, XDATA, add(CFA_XSP16, literal(-3)))
          CFI DPL0 load(1, XDATA, add(CFA_XSP16, literal(-2)))
          CFI DPH0 load(1, XDATA, add(CFA_XSP16, literal(-1)))
          CFI CFA_SP SP+0
          CFI CFA_XSP16 add(XSP16, 24)
          CFI Block cfiCond178 Using cfiCommon0
          CFI (cfiCond178) Function SampleApp_Quadrotor_SendLocation
          CFI (cfiCond178) Conditional ??CrossCallReturnLabel_76
          CFI (cfiCond178) R6 load(1, XDATA, add(CFA_XSP16, literal(-20)))
          CFI (cfiCond178) VB load(1, XDATA, add(CFA_XSP16, literal(-19)))
          CFI (cfiCond178) V0 load(1, XDATA, add(CFA_XSP16, literal(-18)))
          CFI (cfiCond178) V1 load(1, XDATA, add(CFA_XSP16, literal(-17)))
          CFI (cfiCond178) V2 load(1, XDATA, add(CFA_XSP16, literal(-16)))
          CFI (cfiCond178) V3 load(1, XDATA, add(CFA_XSP16, literal(-15)))
          CFI (cfiCond178) V4 load(1, XDATA, add(CFA_XSP16, literal(-14)))
          CFI (cfiCond178) V5 load(1, XDATA, add(CFA_XSP16, literal(-13)))
          CFI (cfiCond178) V6 load(1, XDATA, add(CFA_XSP16, literal(-12)))
          CFI (cfiCond178) V7 load(1, XDATA, add(CFA_XSP16, literal(-11)))
          CFI (cfiCond178) V8 load(1, XDATA, add(CFA_XSP16, literal(-10)))
          CFI (cfiCond178) V9 load(1, XDATA, add(CFA_XSP16, literal(-9)))
          CFI (cfiCond178) V10 load(1, XDATA, add(CFA_XSP16, literal(-8)))
          CFI (cfiCond178) V11 load(1, XDATA, add(CFA_XSP16, literal(-7)))
          CFI (cfiCond178) R7 load(1, XDATA, add(CFA_XSP16, literal(-6)))
          CFI (cfiCond178) ?RET_LOW load(1, XDATA, add(CFA_XSP16, literal(-5)))
          CFI (cfiCond178) ?RET_HIGH load(1, XDATA, add(CFA_XSP16, literal(-4)))
          CFI (cfiCond178) ?BRET_EXT load(1, XDATA, add(CFA_XSP16, literal(-3)))
          CFI (cfiCond178) DPL0 load(1, XDATA, add(CFA_XSP16, literal(-2)))
          CFI (cfiCond178) DPH0 load(1, XDATA, add(CFA_XSP16, literal(-1)))
          CFI (cfiCond178) CFA_SP SP+0
          CFI (cfiCond178) CFA_XSP16 add(XSP16, 46)
          CFI Block cfiPicker179 Using cfiCommon1
          CFI (cfiPicker179) NoFunction
          CFI (cfiPicker179) Picker
        MOV     A,#0x2e
          CFI EndBlock cfiCond177
          CFI EndBlock cfiCond178
          CFI EndBlock cfiPicker179
        REQUIRE ??Subroutine39_0
        ; // Fall through to label ??Subroutine39_0

        RSEG BANKED_CODE:CODE:NOROOT(0)
??Subroutine39_0:
          CFI Block cfiCond180 Using cfiCommon0
          CFI Function SampleApp_Router_calibrationNMessage
          CFI Conditional ??CrossCallReturnLabel_77
          CFI R6 load(1, XDATA, add(CFA_XSP16, literal(-16)))
          CFI VB load(1, XDATA, add(CFA_XSP16, literal(-15)))
          CFI V0 load(1, XDATA, add(CFA_XSP16, literal(-14)))
          CFI V1 load(1, XDATA, add(CFA_XSP16, literal(-13)))
          CFI V2 load(1, XDATA, add(CFA_XSP16, literal(-12)))
          CFI V3 load(1, XDATA, add(CFA_XSP16, literal(-11)))
          CFI V4 load(1, XDATA, add(CFA_XSP16, literal(-10)))
          CFI V5 load(1, XDATA, add(CFA_XSP16, literal(-9)))
          CFI V6 load(1, XDATA, add(CFA_XSP16, literal(-8)))
          CFI V7 load(1, XDATA, add(CFA_XSP16, literal(-7)))
          CFI R7 load(1, XDATA, add(CFA_XSP16, literal(-6)))
          CFI ?RET_LOW load(1, XDATA, add(CFA_XSP16, literal(-5)))
          CFI ?RET_HIGH load(1, XDATA, add(CFA_XSP16, literal(-4)))
          CFI ?BRET_EXT load(1, XDATA, add(CFA_XSP16, literal(-3)))
          CFI DPL0 load(1, XDATA, add(CFA_XSP16, literal(-2)))
          CFI DPH0 load(1, XDATA, add(CFA_XSP16, literal(-1)))
          CFI CFA_SP SP+0
          CFI CFA_XSP16 add(XSP16, 24)
          CFI Block cfiCond181 Using cfiCommon0
          CFI (cfiCond181) Function SampleApp_Quadrotor_SendLocation
          CFI (cfiCond181) Conditional ??CrossCallReturnLabel_78
          CFI (cfiCond181) R6 load(1, XDATA, add(CFA_XSP16, literal(-20)))
          CFI (cfiCond181) VB load(1, XDATA, add(CFA_XSP16, literal(-19)))
          CFI (cfiCond181) V0 load(1, XDATA, add(CFA_XSP16, literal(-18)))
          CFI (cfiCond181) V1 load(1, XDATA, add(CFA_XSP16, literal(-17)))
          CFI (cfiCond181) V2 load(1, XDATA, add(CFA_XSP16, literal(-16)))
          CFI (cfiCond181) V3 load(1, XDATA, add(CFA_XSP16, literal(-15)))
          CFI (cfiCond181) V4 load(1, XDATA, add(CFA_XSP16, literal(-14)))
          CFI (cfiCond181) V5 load(1, XDATA, add(CFA_XSP16, literal(-13)))
          CFI (cfiCond181) V6 load(1, XDATA, add(CFA_XSP16, literal(-12)))
          CFI (cfiCond181) V7 load(1, XDATA, add(CFA_XSP16, literal(-11)))
          CFI (cfiCond181) V8 load(1, XDATA, add(CFA_XSP16, literal(-10)))
          CFI (cfiCond181) V9 load(1, XDATA, add(CFA_XSP16, literal(-9)))
          CFI (cfiCond181) V10 load(1, XDATA, add(CFA_XSP16, literal(-8)))
          CFI (cfiCond181) V11 load(1, XDATA, add(CFA_XSP16, literal(-7)))
          CFI (cfiCond181) R7 load(1, XDATA, add(CFA_XSP16, literal(-6)))
          CFI (cfiCond181) ?RET_LOW load(1, XDATA, add(CFA_XSP16, literal(-5)))
          CFI (cfiCond181) ?RET_HIGH load(1, XDATA, add(CFA_XSP16, literal(-4)))
          CFI (cfiCond181) ?BRET_EXT load(1, XDATA, add(CFA_XSP16, literal(-3)))
          CFI (cfiCond181) DPL0 load(1, XDATA, add(CFA_XSP16, literal(-2)))
          CFI (cfiCond181) DPH0 load(1, XDATA, add(CFA_XSP16, literal(-1)))
          CFI (cfiCond181) CFA_SP SP+0
          CFI (cfiCond181) CFA_XSP16 add(XSP16, 46)
          CFI Block cfiCond182 Using cfiCommon0
          CFI (cfiCond182) Function SampleApp_Router_calibrationNMessage
          CFI (cfiCond182) Conditional ??CrossCallReturnLabel_75
          CFI (cfiCond182) R6 load(1, XDATA, add(CFA_XSP16, literal(-16)))
          CFI (cfiCond182) VB load(1, XDATA, add(CFA_XSP16, literal(-15)))
          CFI (cfiCond182) V0 load(1, XDATA, add(CFA_XSP16, literal(-14)))
          CFI (cfiCond182) V1 load(1, XDATA, add(CFA_XSP16, literal(-13)))
          CFI (cfiCond182) V2 load(1, XDATA, add(CFA_XSP16, literal(-12)))
          CFI (cfiCond182) V3 load(1, XDATA, add(CFA_XSP16, literal(-11)))
          CFI (cfiCond182) V4 load(1, XDATA, add(CFA_XSP16, literal(-10)))
          CFI (cfiCond182) V5 load(1, XDATA, add(CFA_XSP16, literal(-9)))
          CFI (cfiCond182) V6 load(1, XDATA, add(CFA_XSP16, literal(-8)))
          CFI (cfiCond182) V7 load(1, XDATA, add(CFA_XSP16, literal(-7)))
          CFI (cfiCond182) R7 load(1, XDATA, add(CFA_XSP16, literal(-6)))
          CFI (cfiCond182) ?RET_LOW load(1, XDATA, add(CFA_XSP16, literal(-5)))
          CFI (cfiCond182) ?RET_HIGH load(1, XDATA, add(CFA_XSP16, literal(-4)))
          CFI (cfiCond182) ?BRET_EXT load(1, XDATA, add(CFA_XSP16, literal(-3)))
          CFI (cfiCond182) DPL0 load(1, XDATA, add(CFA_XSP16, literal(-2)))
          CFI (cfiCond182) DPH0 load(1, XDATA, add(CFA_XSP16, literal(-1)))
          CFI (cfiCond182) CFA_SP SP+0
          CFI (cfiCond182) CFA_XSP16 add(XSP16, 24)
          CFI Block cfiCond183 Using cfiCommon0
          CFI (cfiCond183) Function SampleApp_Quadrotor_SendLocation
          CFI (cfiCond183) Conditional ??CrossCallReturnLabel_76
          CFI (cfiCond183) R6 load(1, XDATA, add(CFA_XSP16, literal(-20)))
          CFI (cfiCond183) VB load(1, XDATA, add(CFA_XSP16, literal(-19)))
          CFI (cfiCond183) V0 load(1, XDATA, add(CFA_XSP16, literal(-18)))
          CFI (cfiCond183) V1 load(1, XDATA, add(CFA_XSP16, literal(-17)))
          CFI (cfiCond183) V2 load(1, XDATA, add(CFA_XSP16, literal(-16)))
          CFI (cfiCond183) V3 load(1, XDATA, add(CFA_XSP16, literal(-15)))
          CFI (cfiCond183) V4 load(1, XDATA, add(CFA_XSP16, literal(-14)))
          CFI (cfiCond183) V5 load(1, XDATA, add(CFA_XSP16, literal(-13)))
          CFI (cfiCond183) V6 load(1, XDATA, add(CFA_XSP16, literal(-12)))
          CFI (cfiCond183) V7 load(1, XDATA, add(CFA_XSP16, literal(-11)))
          CFI (cfiCond183) V8 load(1, XDATA, add(CFA_XSP16, literal(-10)))
          CFI (cfiCond183) V9 load(1, XDATA, add(CFA_XSP16, literal(-9)))
          CFI (cfiCond183) V10 load(1, XDATA, add(CFA_XSP16, literal(-8)))
          CFI (cfiCond183) V11 load(1, XDATA, add(CFA_XSP16, literal(-7)))
          CFI (cfiCond183) R7 load(1, XDATA, add(CFA_XSP16, literal(-6)))
          CFI (cfiCond183) ?RET_LOW load(1, XDATA, add(CFA_XSP16, literal(-5)))
          CFI (cfiCond183) ?RET_HIGH load(1, XDATA, add(CFA_XSP16, literal(-4)))
          CFI (cfiCond183) ?BRET_EXT load(1, XDATA, add(CFA_XSP16, literal(-3)))
          CFI (cfiCond183) DPL0 load(1, XDATA, add(CFA_XSP16, literal(-2)))
          CFI (cfiCond183) DPH0 load(1, XDATA, add(CFA_XSP16, literal(-1)))
          CFI (cfiCond183) CFA_SP SP+0
          CFI (cfiCond183) CFA_XSP16 add(XSP16, 46)
          CFI Block cfiPicker184 Using cfiCommon1
          CFI (cfiPicker184) NoFunction
          CFI (cfiPicker184) Picker
        MOVX    @DPTR,A
        CLR     A
        MOV     ?V0 + 1,A
        MOV     ?V0 + 2,A
        MOV     ?V0 + 3,A
        MOV     R0,#?V0 + 0
        RET
          CFI EndBlock cfiCond180
          CFI EndBlock cfiCond181
          CFI EndBlock cfiCond182
          CFI EndBlock cfiCond183
          CFI EndBlock cfiPicker184

        RSEG XDATA_ID:CODE:NOROOT(0)
`?<Initializer for imof1>`:
        DATA16
        DW 0
        DW 1

        RSEG XDATA_ID:CODE:NOROOT(0)
`?<Initializer for imof2>`:
        DATA16
        DW 0
        DW 1

        RSEG XDATA_ID:CODE:NOROOT(0)
`?<Initializer for imof3>`:
        DATA16
        DW 0
        DW 1

        RSEG XDATA_ID:CODE:NOROOT(0)
`?<Initializer for imof4>`:
        DATA16
        DW 0
        DW 1

        RSEG XDATA_ID:CODE:NOROOT(0)
`?<Initializer for nindex1>`:
        DATA16
        DW 0
        DW 1

        RSEG XDATA_ID:CODE:NOROOT(0)
`?<Initializer for nindex2>`:
        DATA16
        DW 0
        DW 1

        RSEG XDATA_ID:CODE:NOROOT(0)
`?<Initializer for nindex3>`:
        DATA16
        DW 0
        DW 1

        RSEG XDATA_ID:CODE:NOROOT(0)
`?<Initializer for nindex4>`:
        DATA16
        DW 0
        DW 1

        RSEG XDATA_ID:CODE:NOROOT(0)
`?<Initializer for aindex1>`:
        DATA16
        DW 0
        DW 1

        RSEG XDATA_ID:CODE:NOROOT(0)
`?<Initializer for aindex2>`:
        DATA16
        DW 0
        DW 1

        RSEG XDATA_ID:CODE:NOROOT(0)
`?<Initializer for aindex3>`:
        DATA16
        DW 0
        DW 1

        RSEG XDATA_ID:CODE:NOROOT(0)
`?<Initializer for aindex4>`:
        DATA16
        DW 0
        DW 1

        RSEG XDATA_ID:CODE:NOROOT(0)
`?<Initializer for nValue>`:
        DATA32
        DD 40000000H
        DD 40000000H
        DD 40000000H
        DD 40000000H

        RSEG XDATA_ID:CODE:NOROOT(0)
`?<Initializer for AValue>`:
        DATA32
        DD 424D5C29H
        DD 4253A3D7H
        DD 42491EB8H
        DD 424EAE14H

        RSEG XDATA_ID:CODE:NOROOT(0)
`?<Initializer for AnchorX>`:
        DATA32
        DD 40800000H
        DD 0H
        DD 0H
        DD 40800000H

        RSEG XDATA_ID:CODE:NOROOT(0)
`?<Initializer for AnchorY>`:
        DATA32
        DD 40800000H
        DD 40800000H
        DD 0H
        DD 0H

        RSEG XDATA_ID:CODE:NOROOT(0)
`?<Initializer for AnchorZ>`:
        DATA32
        DD 3F333333H
        DD 3F333333H
        DD 3F333333H
        DD 3F333333H

        RSEG XDATA_ID:CODE:NOROOT(0)
`?<Initializer for RefAValue>`:
        DATA32
        DD 42400000H
        DD 42580000H
        DD 42880000H
        DD 42426666H

        RSEG XDATA_ID:CODE:NOROOT(0)
`?<Initializer for DeviceID>`:
        DATA16
        DW 2

        RSEG BANK_RELAYS:CODE:REORDER:NOROOT(0)
??SampleApp_Init?relay:
        CODE
        LCALL   ?BDISPATCH
        DATA24
        DC24    SampleApp_Init

        RSEG BANK_RELAYS:CODE:REORDER:NOROOT(0)
??SampleApp_ProcessEvent?relay:
        CODE
        LCALL   ?BDISPATCH
        DATA24
        DC24    SampleApp_ProcessEvent

        RSEG BANK_RELAYS:CODE:REORDER:NOROOT(0)
??SampleApp_HandleKeys?relay:
        CODE
        LCALL   ?BDISPATCH
        DATA24
        DC24    SampleApp_HandleKeys

        RSEG BANK_RELAYS:CODE:REORDER:NOROOT(0)
??SampleApp_MessageMSGCB?relay:
        CODE
        LCALL   ?BDISPATCH
        DATA24
        DC24    SampleApp_MessageMSGCB

        RSEG BANK_RELAYS:CODE:REORDER:NOROOT(0)
??SampleApp_QuadrotorMSGCB?relay:
        CODE
        LCALL   ?BDISPATCH
        DATA24
        DC24    SampleApp_QuadrotorMSGCB

        RSEG BANK_RELAYS:CODE:REORDER:NOROOT(0)
??SampleApp_Tester_calibrationMSGCB?relay:
        CODE
        LCALL   ?BDISPATCH
        DATA24
        DC24    SampleApp_Tester_calibrationMSGCB

        RSEG BANK_RELAYS:CODE:REORDER:NOROOT(0)
??SampleApp_AnchorMSGCB?relay:
        CODE
        LCALL   ?BDISPATCH
        DATA24
        DC24    SampleApp_AnchorMSGCB

        RSEG BANK_RELAYS:CODE:REORDER:NOROOT(0)
??SampleApp_Router_SendPeriodicMessage?relay:
        CODE
        LCALL   ?BDISPATCH
        DATA24
        DC24    SampleApp_Router_SendPeriodicMessage

        RSEG BANK_RELAYS:CODE:REORDER:NOROOT(0)
??SampleApp_Router_calibrationNMessage?relay:
        CODE
        LCALL   ?BDISPATCH
        DATA24
        DC24    SampleApp_Router_calibrationNMessage

        RSEG BANK_RELAYS:CODE:REORDER:NOROOT(0)
??SampleApp_Router_calibrationAMessage?relay:
        CODE
        LCALL   ?BDISPATCH
        DATA24
        DC24    SampleApp_Router_calibrationAMessage

        RSEG BANK_RELAYS:CODE:REORDER:NOROOT(0)
??SampleApp_Tester_calibrationAMessage?relay:
        CODE
        LCALL   ?BDISPATCH
        DATA24
        DC24    SampleApp_Tester_calibrationAMessage

        RSEG BANK_RELAYS:CODE:REORDER:NOROOT(0)
??SampleApp_Tester_calibration_differentAMessag:
        CODE
        LCALL   ?BDISPATCH
        DATA24
        DC24    SampleApp_Tester_calibration_differentAMessage

        RSEG BANK_RELAYS:CODE:REORDER:NOROOT(0)
??SampleApp_Tester_calibrationOffsetAMessage?re:
        CODE
        LCALL   ?BDISPATCH
        DATA24
        DC24    SampleApp_Tester_calibrationOffsetAMessage

        RSEG BANK_RELAYS:CODE:REORDER:NOROOT(0)
??SampleApp_Quadrotor_SendLocation?relay:
        CODE
        LCALL   ?BDISPATCH
        DATA24
        DC24    SampleApp_Quadrotor_SendLocation

        RSEG XDATA_ROM_C:CONST:REORDER:NOROOT(0)
        DATA8
`?<Constant "UartInit OK\\n">`:
        DB "UartInit OK\012"

        RSEG XDATA_ROM_C:CONST:REORDER:NOROOT(0)
        DATA8
`?<Constant "Group 1">`:
        DB "Group 1"

        RSEG XDATA_ROM_C:CONST:REORDER:NOROOT(0)
        DATA8
`?<Constant "Group 2">`:
        DB "Group 2"

        RSEG XDATA_ROM_C:CONST:REORDER:NOROOT(0)
        DATA8
`?<Constant "SampleApp">`:
        DB "SampleApp"

        RSEG XDATA_ROM_C:CONST:REORDER:NOROOT(0)
        DATA16
`?<Constant "A">`:
        DB "A"

        RSEG XDATA_ROM_C:CONST:REORDER:NOROOT(0)
        DATA8
`?<Constant "A1">`:
        DB "A1"

        RSEG XDATA_ROM_C:CONST:REORDER:NOROOT(0)
        DATA16
`?<Constant "N">`:
        DB "N"

        RSEG XDATA_ROM_C:CONST:REORDER:NOROOT(0)
        DATA16
`?<Constant "A">_1`:
        DB "A"

        RSEG XDATA_ROM_C:CONST:REORDER:NOROOT(0)
        DATA16
`?<Constant "A">_2`:
        DB "A"

        RSEG XDATA_ROM_C:CONST:REORDER:NOROOT(0)
        DATA16
`?<Constant "T">`:
        DB "T"

        RSEG XDATA_ROM_C:CONST:REORDER:NOROOT(0)
        DATA16
`?<Constant "O">`:
        DB "O"

        RSEG XDATA_ROM_C:CONST:REORDER:NOROOT(0)
        DATA16
`?<Constant "Q">`:
        DB "Q"

        RSEG XDATA_ROM_C:CONST:REORDER:NOROOT(0)
        DATA32
__Constant_41200000:
        DD 41200000H

        RSEG XDATA_ROM_C:CONST:REORDER:NOROOT(0)
        DATA32
__Constant_3dcccccd:
        DD 3DCCCCCDH

        RSEG XDATA_ROM_C:CONST:REORDER:NOROOT(0)
        DATA32
__Constant_1:
        DD 1H

        RSEG XDATA_ROM_C:CONST:REORDER:NOROOT(0)
        DATA32
__Constant_3c23d70a:
        DD 3C23D70AH

        RSEG XDATA_ROM_C:CONST:REORDER:NOROOT(0)
        DATA32
__Constant_0:
        DD 0H

        END
// 1585 
// 1586 /*********************************************************************
// 1587 *********************************************************************/
// 
// 5 342 bytes in segment BANKED_CODE
//    84 bytes in segment BANK_RELAYS
//   146 bytes in segment XDATA_I
//   146 bytes in segment XDATA_ID
//    94 bytes in segment XDATA_ROM_C
//   580 bytes in segment XDATA_Z
// 
// 5 572 bytes of CODE  memory
//    74 bytes of CONST memory (+ 20 bytes shared)
//   726 bytes of XDATA memory
//
//Errors: none
//Warnings: none
