###############################################################################
#                                                                             #
# IAR C/C++ Compiler V8.20.2.41139 for 8051             05/Jan/2016  12:15:51 #
# Copyright 2004-2013 IAR Systems AB.                                         #
#                                                                             #
#    Core               =  plain                                              #
#    Code model         =  banked                                             #
#    Data model         =  large                                              #
#    Calling convention =  xdata reentrant                                    #
#    Constant location  =  data_rom                                           #
#    Dptr setup         =  1,16                                               #
#                                                                             #
#    Source file        =  C:\Users\ArnoldWorkStation\Desktop\ZigbeeTest\Comp #
#                          onents\zmac\f8w\zmac_cb.c                          #
#    Command line       =  -f C:\Users\ArnoldWorkStation\Desktop\ZigbeeTest\P #
#                          rojects\zstack\Samples\SampleApp\CC2530DB\..\..\.. #
#                          \Tools\CC2530DB\f8wEndev.cfg (-DCPU32MHZ           #
#                          -DROOT=__near_func -DBLINK_LEDS) -f                #
#                          C:\Users\ArnoldWorkStation\Desktop\ZigbeeTest\Proj #
#                          ects\zstack\Samples\SampleApp\CC2530DB\..\..\..\To #
#                          ols\CC2530DB\f8wConfig.cfg (-DSECURE=0             #
#                          -DZG_SECURE_DYNAMIC=0 -DREFLECTOR                  #
#                          -DDEFAULT_CHANLIST=0x00000800                      #
#                          -DZDAPP_CONFIG_PAN_ID=0xFFF1                       #
#                          -DNWK_START_DELAY=100 -DEXTENDED_JOINING_RANDOM_MA #
#                          SK=0x007F -DBEACON_REQUEST_DELAY=100               #
#                          -DBEACON_REQ_DELAY_MASK=0x00FF                     #
#                          -DROUTE_EXPIRY_TIME=30 -DAPSC_ACK_WAIT_DURATION_PO #
#                          LLED=3000 -DNWK_INDIRECT_MSG_TIMEOUT=7             #
#                          -DMAX_RREQ_ENTRIES=8 -DAPSC_MAX_FRAME_RETRIES=3    #
#                          -DNWK_MAX_DATA_RETRIES=2                           #
#                          -DMAX_POLL_FAILURE_RETRIES=2 -DMAX_BCAST=9         #
#                          -DAPS_MAX_GROUPS=16 -DMAX_RTG_ENTRIES=40           #
#                          -DNWK_MAX_BINDING_ENTRIES=4                        #
#                          -DMAX_BINDING_CLUSTER_IDS=4 "-DDEFAULT_KEY={0x01,  #
#                          0x03, 0x05, 0x07, 0x09, 0x0B, 0x0D, 0x0F, 0x00,    #
#                          0x02, 0x04, 0x06, 0x08, 0x0A, 0x0C, 0x0D}"         #
#                          -DMAC_MAX_FRAME_SIZE=116 "-DCONST=const __code"    #
#                          -DGENERIC=__generic -DRFD_RCVC_ALWAYS_ON=TRUE      #
#                          -DPOLL_RATE=1000 -DQUEUED_POLL_RATE=100            #
#                          -DRESPONSE_POLL_RATE=100) -DREJOIN_POLL_RATE=440   #
#                          C:\Users\ArnoldWorkStation\Desktop\ZigbeeTest\Comp #
#                          onents\zmac\f8w\zmac_cb.c -D ZIGBEEPRO -D          #
#                          NWK_AUTO_POLL -D ZTOOL_P1 -D xMT_TASK -D           #
#                          xMT_SYS_FUNC -D xMT_ZDO_FUNC -D                    #
#                          LCD_SUPPORTED=DEBUG -lC C:\Users\ArnoldWorkStation #
#                          \Desktop\ZigbeeTest\Projects\zstack\Samples\Sample #
#                          App\CC2530DB\QuadRotorOnboardPro\List\ -lA         #
#                          C:\Users\ArnoldWorkStation\Desktop\ZigbeeTest\Proj #
#                          ects\zstack\Samples\SampleApp\CC2530DB\QuadRotorOn #
#                          boardPro\List\ --diag_suppress Pe001,Pa010 -o      #
#                          C:\Users\ArnoldWorkStation\Desktop\ZigbeeTest\Proj #
#                          ects\zstack\Samples\SampleApp\CC2530DB\QuadRotorOn #
#                          boardPro\Obj\ -e --debug --core=plain --dptr=16,1  #
#                          --data_model=large --code_model=banked             #
#                          --calling_convention=xdata_reentrant               #
#                          --place_constants=data_rom --nr_virtual_regs 16    #
#                          -I C:\Users\ArnoldWorkStation\Desktop\ZigbeeTest\P #
#                          rojects\zstack\Samples\SampleApp\CC2530DB\ -I      #
#                          C:\Users\ArnoldWorkStation\Desktop\ZigbeeTest\Proj #
#                          ects\zstack\Samples\SampleApp\CC2530DB\..\SOURCE\  #
#                          -I C:\Users\ArnoldWorkStation\Desktop\ZigbeeTest\P #
#                          rojects\zstack\Samples\SampleApp\CC2530DB\..\..\.. #
#                          \ZMAIN\TI2530DB\ -I C:\Users\ArnoldWorkStation\Des #
#                          ktop\ZigbeeTest\Projects\zstack\Samples\SampleApp\ #
#                          CC2530DB\..\..\..\..\..\COMPONENTS\MT\ -I          #
#                          C:\Users\ArnoldWorkStation\Desktop\ZigbeeTest\Proj #
#                          ects\zstack\Samples\SampleApp\CC2530DB\..\..\..\.. #
#                          \..\COMPONENTS\HAL\INCLUDE\ -I                     #
#                          C:\Users\ArnoldWorkStation\Desktop\ZigbeeTest\Proj #
#                          ects\zstack\Samples\SampleApp\CC2530DB\..\..\..\.. #
#                          \..\COMPONENTS\HAL\TARGET\CC2530EB\ -I             #
#                          C:\Users\ArnoldWorkStation\Desktop\ZigbeeTest\Proj #
#                          ects\zstack\Samples\SampleApp\CC2530DB\..\..\..\.. #
#                          \..\COMPONENTS\OSAL\MCU\CCSOC\ -I                  #
#                          C:\Users\ArnoldWorkStation\Desktop\ZigbeeTest\Proj #
#                          ects\zstack\Samples\SampleApp\CC2530DB\..\..\..\.. #
#                          \..\COMPONENTS\OSAL\INCLUDE\ -I                    #
#                          C:\Users\ArnoldWorkStation\Desktop\ZigbeeTest\Proj #
#                          ects\zstack\Samples\SampleApp\CC2530DB\..\..\..\.. #
#                          \..\COMPONENTS\STACK\AF\ -I                        #
#                          C:\Users\ArnoldWorkStation\Desktop\ZigbeeTest\Proj #
#                          ects\zstack\Samples\SampleApp\CC2530DB\..\..\..\.. #
#                          \..\COMPONENTS\STACK\NWK\ -I                       #
#                          C:\Users\ArnoldWorkStation\Desktop\ZigbeeTest\Proj #
#                          ects\zstack\Samples\SampleApp\CC2530DB\..\..\..\.. #
#                          \..\COMPONENTS\STACK\SEC\ -I                       #
#                          C:\Users\ArnoldWorkStation\Desktop\ZigbeeTest\Proj #
#                          ects\zstack\Samples\SampleApp\CC2530DB\..\..\..\.. #
#                          \..\COMPONENTS\STACK\SAPI\ -I                      #
#                          C:\Users\ArnoldWorkStation\Desktop\ZigbeeTest\Proj #
#                          ects\zstack\Samples\SampleApp\CC2530DB\..\..\..\.. #
#                          \..\COMPONENTS\STACK\SYS\ -I                       #
#                          C:\Users\ArnoldWorkStation\Desktop\ZigbeeTest\Proj #
#                          ects\zstack\Samples\SampleApp\CC2530DB\..\..\..\.. #
#                          \..\COMPONENTS\STACK\ZDO\ -I                       #
#                          C:\Users\ArnoldWorkStation\Desktop\ZigbeeTest\Proj #
#                          ects\zstack\Samples\SampleApp\CC2530DB\..\..\..\.. #
#                          \..\COMPONENTS\ZMAC\F8W\ -I                        #
#                          C:\Users\ArnoldWorkStation\Desktop\ZigbeeTest\Proj #
#                          ects\zstack\Samples\SampleApp\CC2530DB\..\..\..\.. #
#                          \..\COMPONENTS\ZMAC\ -I C:\Users\ArnoldWorkStation #
#                          \Desktop\ZigbeeTest\Projects\zstack\Samples\Sample #
#                          App\CC2530DB\..\..\..\..\..\COMPONENTS\SERVICES\SA #
#                          DDR\ -I C:\Users\ArnoldWorkStation\Desktop\ZigbeeT #
#                          est\Projects\zstack\Samples\SampleApp\CC2530DB\..\ #
#                          ..\..\..\..\COMPONENTS\SERVICES\SDATA\ -I          #
#                          C:\Users\ArnoldWorkStation\Desktop\ZigbeeTest\Proj #
#                          ects\zstack\Samples\SampleApp\CC2530DB\..\..\..\.. #
#                          \..\COMPONENTS\MAC\INCLUDE\ -I                     #
#                          C:\Users\ArnoldWorkStation\Desktop\ZigbeeTest\Proj #
#                          ects\zstack\Samples\SampleApp\CC2530DB\..\..\..\.. #
#                          \..\COMPONENTS\MAC\HIGH_LEVEL\ -I                  #
#                          C:\Users\ArnoldWorkStation\Desktop\ZigbeeTest\Proj #
#                          ects\zstack\Samples\SampleApp\CC2530DB\..\..\..\.. #
#                          \..\COMPONENTS\MAC\LOW_LEVEL\srf04\ -I             #
#                          C:\Users\ArnoldWorkStation\Desktop\ZigbeeTest\Proj #
#                          ects\zstack\Samples\SampleApp\CC2530DB\..\..\..\.. #
#                          \..\COMPONENTS\MAC\LOW_LEVEL\srf04\SINGLE_CHIP\    #
#                          -Ohz --require_prototypes                          #
#    List file          =  C:\Users\ArnoldWorkStation\Desktop\ZigbeeTest\Proj #
#                          ects\zstack\Samples\SampleApp\CC2530DB\QuadRotorOn #
#                          boardPro\List\zmac_cb.lst                          #
#    Object file        =  C:\Users\ArnoldWorkStation\Desktop\ZigbeeTest\Proj #
#                          ects\zstack\Samples\SampleApp\CC2530DB\QuadRotorOn #
#                          boardPro\Obj\zmac_cb.r51                           #
#                                                                             #
#                                                                             #
###############################################################################

C:\Users\ArnoldWorkStation\Desktop\ZigbeeTest\Components\zmac\f8w\zmac_cb.c
      1          /**************************************************************************************************
      2            Filename:       zmac_cb.c
      3            Revised:        $Date: 2009-12-04 08:04:20 -0800 (Fri, 04 Dec 2009) $
      4            Revision:       $Revision: 21276 $
      5          
      6            Description:    This file contains the NWK functions that the ZMAC calls
      7          
      8          
      9            Copyright 2005-2009 Texas Instruments Incorporated. All rights reserved.
     10          
     11            IMPORTANT: Your use of this Software is limited to those specific rights
     12            granted under the terms of a software license agreement between the user
     13            who downloaded the software, his/her employer (which must be your employer)
     14            and Texas Instruments Incorporated (the "License").  You may not use this
     15            Software unless you agree to abide by the terms of the License. The License
     16            limits your use, and you acknowledge, that the Software may not be modified,
     17            copied or distributed unless embedded on a Texas Instruments microcontroller
     18            or used solely and exclusively in conjunction with a Texas Instruments radio
     19            frequency transceiver, which is integrated into your product.  Other than for
     20            the foregoing purpose, you may not use, reproduce, copy, prepare derivative
     21            works of, modify, distribute, perform, display or sell this Software and/or
     22            its documentation for any purpose.
     23          
     24            YOU FURTHER ACKNOWLEDGE AND AGREE THAT THE SOFTWARE AND DOCUMENTATION ARE
     25            PROVIDED “AS IS” WITHOUT WARRANTY OF ANY KIND, EITHER EXPRESS OR IMPLIED,
     26            INCLUDING WITHOUT LIMITATION, ANY WARRANTY OF MERCHANTABILITY, TITLE,
     27            NON-INFRINGEMENT AND FITNESS FOR A PARTICULAR PURPOSE. IN NO EVENT SHALL
     28            TEXAS INSTRUMENTS OR ITS LICENSORS BE LIABLE OR OBLIGATED UNDER CONTRACT,
     29            NEGLIGENCE, STRICT LIABILITY, CONTRIBUTION, BREACH OF WARRANTY, OR OTHER
     30            LEGAL EQUITABLE THEORY ANY DIRECT OR INDIRECT DAMAGES OR EXPENSES
     31            INCLUDING BUT NOT LIMITED TO ANY INCIDENTAL, SPECIAL, INDIRECT, PUNITIVE
     32            OR CONSEQUENTIAL DAMAGES, LOST PROFITS OR LOST DATA, COST OF PROCUREMENT
     33            OF SUBSTITUTE GOODS, TECHNOLOGY, SERVICES, OR ANY CLAIMS BY THIRD PARTIES
     34            (INCLUDING BUT NOT LIMITED TO ANY DEFENSE THEREOF), OR OTHER SIMILAR COSTS.
     35          
     36            Should you have any questions regarding your right to use this Software,
     37            contact Texas Instruments Incorporated at www.TI.com.
     38          **************************************************************************************************/
     39          
     40          /********************************************************************************************************
     41           *                                               INCLUDES
     42           ********************************************************************************************************/
     43          
     44          #include "ZComDef.h"
     45          #include "OSAL.h"
     46          #include "ZMAC.h"
     47          #include "MT_MAC.h"
     48          #include "hal_mcu.h"

   \                                 In  segment SFR_AN, at 0xa8
   \   union <unnamed> volatile __sfr _A_IEN0
   \                     _A_IEN0:
   \   000000                DS 1
     49          
     50          #if !defined NONWK
     51          #include "nwk.h"
     52          #include "nwk_bufs.h"
     53          #include "ZGlobals.h"
     54          #endif
     55          
     56          #if defined( MACSIM )
     57            #include "mac_sim.h"
     58          #endif
     59          
     60          #include "mac_main.h"
     61          extern void *ZMac_ScanBuf;
     62          
     63          /********************************************************************************************************
     64           *                                               CONSTANTS
     65           ********************************************************************************************************/
     66          
     67          #if !defined NONWK
     68          /* Lookup table for size of structures. Must match with the order of MAC callback events */

   \                                 In  segment CODE_C, align 1
     69          const uint8 CODE zmacCBSizeTable [] = {
   \                     zmacCBSizeTable:
   \   000000   00           DB 0
   \   000001   16           DB 22
   \   000002   0F           DB 15
   \   000003   00           DB 0
   \   000004   00           DB 0
   \   000005   0B           DB 11
   \   000006   15           DB 21
   \   000007   0B           DB 11
   \   000008   02           DB 2
   \   000009   00           DB 0
   \   00000A   02           DB 2
   \   00000B   22           DB 34
   \   00000C   0F           DB 15
   \   00000D   32           DB 50
   \   00000E   00           DB 0
   \   00000F   00           DB 0
   \   000010   06           DB 6
     70            0,
     71            sizeof(ZMacAssociateInd_t),       // MAC_MLME_ASSOCIATE_IND      1   Associate indication
     72            sizeof(ZMacAssociateCnf_t),       // MAC_MLME_ASSOCIATE_CNF      2   Associate confirm
     73            0,                                // MAC_MLME_DISASSOCIATE_IND   3   Disassociate indication
     74            0,                                // MAC_MLME_DISASSOCIATE_CNF   4   Disassociate confirm
     75            sizeof(macMlmeBeaconNotifyInd_t), // MAC_MLME_BEACON_NOTIFY_IND  5   con notify indication
     76            sizeof(ZMacOrphanInd_t),          // MAC_MLME_ORPHAN_IND         6   Orphan indication
     77            sizeof(ZMacScanCnf_t),            // MAC_MLME_SCAN_CNF           7   Scan confirm
     78            sizeof(ZMacStartCnf_t),           // MAC_MLME_START_CNF          8   Start confirm
     79            0,                                // MAC_MLME_SYNC_LOSS_IND      9   Sync loss indication
     80            sizeof(ZMacPollCnf_t),            // MAC_MLME_POLL_CNF           10  Poll confirm
     81            sizeof(ZMacCommStatusInd_t),      // MAC_MLME_COMM_STATUS_IND    11  Comm status indication
     82            sizeof(ZMacDataCnf_t),            // MAC_MCPS_DATA_CNF           12  Data confirm
     83            sizeof(macMcpsDataInd_t),         // MAC_MCPS_DATA_IND           13  Data indication
     84            0,                                // MAC_MCPS_PURGE_CNF          14  Purge confirm
     85            0,                                // MAC_PWR_ON_CNF              15  Power on confirm
     86            sizeof(ZMacPollInd_t)             // MAC_MLME_POLL_IND           16  Poll indication
     87          };
     88          #endif /* !defined NONWK */
     89          
     90          
     91          /*********************************************************************
     92           * ZMAC Function Pointers
     93           */
     94          
     95          /*
     96           * ZMac Application callback function. This function will be called
     97           * for every MAC message that is received over-the-air or generated
     98           * locally by MAC for the application.
     99           *
    100           * The callback function should return TRUE if it has handled the
    101           * MAC message and no further action should be taken with it. It
    102           * should return FALSE if it has not handled the MAC message and
    103           * normal processing should take place.
    104           *
    105           * NOTE: The processing in this function should be kept to the
    106           *       minimum.
    107           */

   \                                 In  segment XDATA_Z, align 1, keep-with-next
    108          uint8 (*pZMac_AppCallback)( uint8 *msgPtr ) = (void*)NULL;
   \                     pZMac_AppCallback:
   \   000000                DS 2
   \   000002                REQUIRE __INIT_XDATA_Z
    109          
    110          
    111          /*********************************************************************
    112           * ZMAC Functions
    113           */
    114          
    115          /**************************************************************************************************
    116           * @fn       MAC_CbackEvent()
    117           *
    118           * @brief    convert MAC data confirm and indication to ZMac and send to NWK
    119           *
    120           * @param    pData - pointer to macCbackEvent_t
    121           *
    122           * @return   none
    123           *************************************************************************************************/

   \                                 In  segment BANKED_CODE, align 1, keep-with-next
    124          void MAC_CbackEvent(macCbackEvent_t *pData)
   \                     MAC_CbackEvent:
    125          #ifndef MT_MAC_CB_FUNC
    126          {
   \   000000   74EA         MOV     A,#-0x16
   \   000002   12....       LCALL   ?BANKED_ENTER_XDATA
   \   000005                ; Saved register size: 22
   \   000005                ; Auto size: 4
   \   000005   74FC         MOV     A,#-0x4
   \   000007   12....       LCALL   ?ALLOC_XSTACK8
   \   00000A   85..82       MOV     DPL,?XSP + 0
   \   00000D   85..83       MOV     DPH,?XSP + 1
   \   000010   EA           MOV     A,R2
   \   000011   F0           MOVX    @DPTR,A
   \   000012   A3           INC     DPTR
   \   000013   EB           MOV     A,R3
   \   000014   F0           MOVX    @DPTR,A
    127          #if !defined NONWK
    128            uint8 event = pData->hdr.event;
   \   000015   12....       LCALL   ?Subroutine6 & 0xFFFF
   \                     ??CrossCallReturnLabel_12:
   \   000018   E0           MOVX    A,@DPTR
   \   000019   F5..         MOV     ?V0 + 2,A
    129            uint16 tmp = zmacCBSizeTable[event];
   \   00001B   F5..         MOV     ?V0 + 0,A
   \   00001D   74..         MOV     A,#zmacCBSizeTable & 0xff
   \   00001F   25..         ADD     A,?V0 + 0
   \   000021   F582         MOV     DPL,A
   \   000023   74..         MOV     A,#(zmacCBSizeTable >> 8) & 0xff
   \   000025   3400         ADDC    A,#0x0
   \   000027   F583         MOV     DPH,A
   \   000029   E4           CLR     A
   \   00002A   93           MOVC    A,@A+DPTR
   \   00002B   F5..         MOV     ?V0 + 0,A
   \   00002D   7402         MOV     A,#0x2
   \   00002F   12....       LCALL   ?XSTACK_DISP0_8
   \   000032   E5..         MOV     A,?V0 + 0
   \   000034   F0           MOVX    @DPTR,A
   \   000035   A3           INC     DPTR
   \   000036   E4           CLR     A
   \   000037   F0           MOVX    @DPTR,A
    130            macCbackEvent_t *msgPtr;
    131          
    132            /* If the Network layer will handle a new MAC callback, a non-zero value must be entered in the
    133             * corresponding location in the zmacCBSizeTable[] - thus the table acts as "should handle"?
    134             */
    135            if (tmp == 0)
   \   000038   7402         MOV     A,#0x2
   \   00003A   12....       LCALL   ?XSTACK_DISP0_8
   \   00003D   E0           MOVX    A,@DPTR
   \   00003E   7003         JNZ     $+5
   \   000040   02....       LJMP    ??MAC_CbackEvent_0 & 0xFFFF
    136            {
    137              return;
    138            }
    139          
    140            // MAC_MCPS_DATA_IND is very special - it is the only event where the MAC does not free *pData.
    141            if ( event == MAC_MCPS_DATA_IND )
   \   000043   740D         MOV     A,#0xd
   \   000045   65..         XRL     A,?V0 + 2
   \   000047   7044         JNZ     ??MAC_CbackEvent_1
    142            {
    143              MAC_MlmeGetReq( MAC_SHORT_ADDRESS, &tmp );
   \   000049                ; Setup parameters for call to function MAC_MlmeGetReq
   \   000049   AA82         MOV     R2,DPL
   \   00004B   AB83         MOV     R3,DPH
   \   00004D   7953         MOV     R1,#0x53
   \   00004F   12....       LCALL   ??MAC_MlmeGetReq?relay
    144              if ((tmp == INVALID_NODE_ADDR) || (tmp == NWK_BROADCAST_SHORTADDR_DEVALL) ||
    145                  (pData->dataInd.msdu.len == 0))
   \   000052   7402         MOV     A,#0x2
   \   000054   12....       LCALL   ?XSTACK_DISP0_8
   \   000057   E0           MOVX    A,@DPTR
   \   000058   64FE         XRL     A,#0xfe
   \   00005A   7003         JNZ     ??MAC_CbackEvent_2
   \   00005C   A3           INC     DPTR
   \   00005D   E0           MOVX    A,@DPTR
   \   00005E   F4           CPL     A
   \                     ??MAC_CbackEvent_2:
   \   00005F   7003         JNZ     $+5
   \   000061   02....       LJMP    ??MAC_CbackEvent_3 & 0xFFFF
   \   000064   7402         MOV     A,#0x2
   \   000066   12....       LCALL   ?XSTACK_DISP0_8
   \   000069   E0           MOVX    A,@DPTR
   \   00006A   F4           CPL     A
   \   00006B   7003         JNZ     ??MAC_CbackEvent_4
   \   00006D   A3           INC     DPTR
   \   00006E   E0           MOVX    A,@DPTR
   \   00006F   F4           CPL     A
   \                     ??MAC_CbackEvent_4:
   \   000070   7003         JNZ     $+5
   \   000072   02....       LJMP    ??MAC_CbackEvent_3 & 0xFFFF
   \   000075   12....       LCALL   ?Subroutine1 & 0xFFFF
   \                     ??CrossCallReturnLabel_2:
   \   000078   A3           INC     DPTR
   \   000079   E0           MOVX    A,@DPTR
   \   00007A   7003         JNZ     $+5
   \   00007C   02....       LJMP    ??MAC_CbackEvent_3 & 0xFFFF
    146              {
    147                mac_msg_deallocate( (uint8 **)&pData );
    148                return;
    149              }
    150              msgPtr = pData;
   \   00007F   85..82       MOV     DPL,?XSP + 0
   \   000082   85..83       MOV     DPH,?XSP + 1
   \   000085   E0           MOVX    A,@DPTR
   \   000086   FE           MOV     R6,A
   \   000087   A3           INC     DPTR
   \   000088   E0           MOVX    A,@DPTR
   \   000089   FF           MOV     R7,A
   \   00008A   02....       LJMP    ??MAC_CbackEvent_5 & 0xFFFF
    151            }
    152            else
    153            {
    154              if (event == MAC_MLME_BEACON_NOTIFY_IND )
   \                     ??MAC_CbackEvent_1:
   \   00008D   7405         MOV     A,#0x5
   \   00008F   65..         XRL     A,?V0 + 2
   \   000091   7014         JNZ     ??MAC_CbackEvent_6
    155              {
    156                tmp += sizeof(macPanDesc_t) + pData->beaconNotifyInd.sduLength;
   \   000093   85..82       MOV     DPL,?XSP + 0
   \   000096   85..83       MOV     DPH,?XSP + 1
   \   000099   E0           MOVX    A,@DPTR
   \   00009A   F8           MOV     R0,A
   \   00009B   12....       LCALL   ?Subroutine0 & 0xFFFF
    157              }
   \                     ??CrossCallReturnLabel_0:
   \   00009E   2421         ADD     A,#0x21
   \   0000A0   F8           MOV     R0,A
   \   0000A1   E4           CLR     A
   \   0000A2   3400         ADDC    A,#0x0
   \   0000A4   F9           MOV     R1,A
   \   0000A5   802A         SJMP    ??MAC_CbackEvent_7
    158              else if (event == MAC_MLME_SCAN_CNF)
   \                     ??MAC_CbackEvent_6:
   \   0000A7   7407         MOV     A,#0x7
   \   0000A9   65..         XRL     A,?V0 + 2
   \   0000AB   7030         JNZ     ??MAC_CbackEvent_8
    159              {
    160                if (pData->scanCnf.scanType == ZMAC_ED_SCAN)
   \   0000AD   12....       LCALL   ?Subroutine2 & 0xFFFF
   \                     ??CrossCallReturnLabel_4:
   \   0000B0   700F         JNZ     ??MAC_CbackEvent_9
    161                {
    162                  tmp += ZMAC_ED_SCAN_MAXCHANNELS;
   \   0000B2   7402         MOV     A,#0x2
   \   0000B4   12....       LCALL   ?XSTACK_DISP0_8
   \   0000B7   E0           MOVX    A,@DPTR
   \   0000B8   241B         ADD     A,#0x1b
   \   0000BA   F0           MOVX    @DPTR,A
   \   0000BB   A3           INC     DPTR
   \   0000BC   E0           MOVX    A,@DPTR
   \   0000BD   3400         ADDC    A,#0x0
   \   0000BF   801B         SJMP    ??MAC_CbackEvent_10
    163                }
    164                else
    165                {
    166                  tmp += sizeof( ZMacPanDesc_t ) * pData->scanCnf.resultListSize;
   \                     ??MAC_CbackEvent_9:
   \   0000C1   85..82       MOV     DPL,?XSP + 0
   \   0000C4   85..83       MOV     DPH,?XSP + 1
   \   0000C7   12....       LCALL   ?Subroutine0 & 0xFFFF
    167                }
    168              }
   \                     ??CrossCallReturnLabel_1:
   \   0000CA   75F021       MOV     B,#0x21
   \   0000CD   A4           MUL     AB
   \   0000CE   F8           MOV     R0,A
   \   0000CF   A9F0         MOV     R1,B
   \                     ??MAC_CbackEvent_7:
   \   0000D1   7402         MOV     A,#0x2
   \   0000D3   12....       LCALL   ?XSTACK_DISP0_8
   \   0000D6   E0           MOVX    A,@DPTR
   \   0000D7   28           ADD     A,R0
   \   0000D8   F0           MOVX    @DPTR,A
   \   0000D9   A3           INC     DPTR
   \   0000DA   E0           MOVX    A,@DPTR
   \   0000DB   39           ADDC    A,R1
   \                     ??MAC_CbackEvent_10:
   \   0000DC   F0           MOVX    @DPTR,A
    169          
    170              if ( !(msgPtr = (macCbackEvent_t *)osal_msg_allocate(tmp)) )
   \                     ??MAC_CbackEvent_8:
   \   0000DD                ; Setup parameters for call to function osal_msg_allocate
   \   0000DD   7402         MOV     A,#0x2
   \   0000DF   12....       LCALL   ?XSTACK_DISP0_8
   \   0000E2   E0           MOVX    A,@DPTR
   \   0000E3   FA           MOV     R2,A
   \   0000E4   A3           INC     DPTR
   \   0000E5   E0           MOVX    A,@DPTR
   \   0000E6   FB           MOV     R3,A
   \   0000E7   12....       LCALL   ??osal_msg_allocate?relay
   \   0000EA   8A..         MOV     ?V0 + 4,R2
   \   0000EC   8B..         MOV     ?V0 + 5,R3
   \   0000EE   AE..         MOV     R6,?V0 + 4
   \   0000F0   AF..         MOV     R7,?V0 + 5
   \   0000F2   EE           MOV     A,R6
   \   0000F3   4F           ORL     A,R7
   \   0000F4   7046         JNZ     ??MAC_CbackEvent_11
    171              {
    172                // Not enough memory. If data confirm - try again
    173                if ( event == MAC_MCPS_DATA_CNF )
   \   0000F6   740C         MOV     A,#0xc
   \   0000F8   65..         XRL     A,?V0 + 2
   \   0000FA   6003         JZ      $+5
   \   0000FC   02....       LJMP    ??MAC_CbackEvent_0 & 0xFFFF
    174                {
    175                  halIntState_t intState;
    176          
    177                  // This is not normally deallocated here because the pZMac_AppCallback()
    178                  // application may need it.
    179                  HAL_ENTER_CRITICAL_SECTION( intState );  // Hold off interrupts.
   \   0000FF   A2AF         MOV     C,0xa8.7
   \   000101   E4           CLR     A
   \   000102   33           RLC     A
   \   000103   F5..         MOV     ?V0 + 4,A
   \   000105   C2AF         CLR     0xa8.7
    180          
    181                  mac_msg_deallocate( (uint8**)&(pData->dataCnf.pDataReq) );
   \   000107                ; Setup parameters for call to function mac_msg_deallocate
   \   000107   12....       LCALL   ?Subroutine3 & 0xFFFF
   \                     ??CrossCallReturnLabel_6:
   \   00010A   12....       LCALL   ??mac_msg_deallocate?relay
    182                  if ( !(msgPtr = (macCbackEvent_t *)osal_msg_allocate(tmp)) )
   \   00010D                ; Setup parameters for call to function osal_msg_allocate
   \   00010D   7402         MOV     A,#0x2
   \   00010F   12....       LCALL   ?XSTACK_DISP0_8
   \   000112   E0           MOVX    A,@DPTR
   \   000113   FA           MOV     R2,A
   \   000114   A3           INC     DPTR
   \   000115   E0           MOVX    A,@DPTR
   \   000116   FB           MOV     R3,A
   \   000117   12....       LCALL   ??osal_msg_allocate?relay
   \   00011A   8A..         MOV     ?V0 + 6,R2
   \   00011C   8B..         MOV     ?V0 + 7,R3
   \   00011E   AE..         MOV     R6,?V0 + 6
   \   000120   AF..         MOV     R7,?V0 + 7
   \   000122   EE           MOV     A,R6
   \   000123   4F           ORL     A,R7
   \   000124   7009         JNZ     ??MAC_CbackEvent_12
    183                  {
    184                    // Still no allocation, something is wrong
    185                    HAL_EXIT_CRITICAL_SECTION( intState );   // Re-enable interrupts.
   \   000126   E5..         MOV     A,?V0 + 4
   \   000128   A2E0         MOV     C,0xE0 /* A   */.0
   \   00012A   92AF         MOV     0xa8.7,C
    186                    return;
   \   00012C   02....       LJMP    ??MAC_CbackEvent_0 & 0xFFFF
    187                  }
    188                  HAL_EXIT_CRITICAL_SECTION( intState );   // Re-enable interrupts.
   \                     ??MAC_CbackEvent_12:
   \   00012F   E5..         MOV     A,?V0 + 4
   \   000131   A2E0         MOV     C,0xE0 /* A   */.0
   \   000133   92AF         MOV     0xa8.7,C
    189                  pData->dataCnf.pDataReq = NULL;
   \   000135   12....       LCALL   ?Subroutine1 & 0xFFFF
    190                }
    191                else
    192                {
    193                  // This message is dropped
    194                  return;
    195                }
    196              }
   \                     ??CrossCallReturnLabel_3:
   \   000138   E4           CLR     A
   \   000139   F0           MOVX    @DPTR,A
   \   00013A   A3           INC     DPTR
   \   00013B   F0           MOVX    @DPTR,A
    197              osal_memcpy(msgPtr, pData, zmacCBSizeTable[event]);
   \                     ??MAC_CbackEvent_11:
   \   00013C                ; Setup parameters for call to function osal_memcpy
   \   00013C   85..82       MOV     DPL,?XSP + 0
   \   00013F   85..83       MOV     DPH,?XSP + 1
   \   000142   E0           MOVX    A,@DPTR
   \   000143   F5..         MOV     ?V0 + 4,A
   \   000145   A3           INC     DPTR
   \   000146   E0           MOVX    A,@DPTR
   \   000147   F5..         MOV     ?V0 + 5,A
   \   000149   75..00       MOV     ?V0 + 6,#0x0
   \   00014C   78..         MOV     R0,#?V0 + 4
   \   00014E   12....       LCALL   ?PUSH_XSTACK_I_THREE
   \   000151   AC..         MOV     R4,?V0 + 0
   \   000153   7D00         MOV     R5,#0x0
   \   000155   EE           MOV     A,R6
   \   000156   FA           MOV     R2,A
   \   000157   EF           MOV     A,R7
   \   000158   FB           MOV     R3,A
   \   000159   12....       LCALL   ??osal_memcpy?relay
   \   00015C   7403         MOV     A,#0x3
   \   00015E   12....       LCALL   ?DEALLOC_XSTACK8
    198            }
    199          
    200            if ( event == MAC_MLME_BEACON_NOTIFY_IND )
   \   000161   EE           MOV     A,R6
   \   000162   2409         ADD     A,#0x9
   \   000164   F5..         MOV     ?V0 + 8,A
   \   000166   EF           MOV     A,R7
   \   000167   3400         ADDC    A,#0x0
   \   000169   F5..         MOV     ?V0 + 9,A
   \   00016B   EE           MOV     A,R6
   \   00016C   2408         ADD     A,#0x8
   \   00016E   F5..         MOV     ?V0 + 12,A
   \   000170   EF           MOV     A,R7
   \   000171   3400         ADDC    A,#0x0
   \   000173   F5..         MOV     ?V0 + 13,A
   \   000175   EE           MOV     A,R6
   \   000176   240B         ADD     A,#0xb
   \   000178   F5..         MOV     ?V0 + 0,A
   \   00017A   EF           MOV     A,R7
   \   00017B   3400         ADDC    A,#0x0
   \   00017D   F5..         MOV     ?V0 + 1,A
   \   00017F   7405         MOV     A,#0x5
   \   000181   65..         XRL     A,?V0 + 2
   \   000183   707C         JNZ     ??MAC_CbackEvent_13
    201            {
    202              macMlmeBeaconNotifyInd_t *pBeacon = (macMlmeBeaconNotifyInd_t*)msgPtr;
    203          
    204              osal_memcpy(pBeacon+1, pBeacon->pPanDesc, sizeof(macPanDesc_t));
   \   000185   EE           MOV     A,R6
   \   000186   2403         ADD     A,#0x3
   \   000188   F5..         MOV     ?V0 + 10,A
   \   00018A   EF           MOV     A,R7
   \   00018B   3400         ADDC    A,#0x0
   \   00018D   F5..         MOV     ?V0 + 11,A
   \   00018F                ; Setup parameters for call to function osal_memcpy
   \   00018F   85..82       MOV     DPL,?V0 + 10
   \   000192   F583         MOV     DPH,A
   \   000194   12....       LCALL   ?Subroutine4 & 0xFFFF
   \                     ??CrossCallReturnLabel_8:
   \   000197   12....       LCALL   ?PUSH_XSTACK_I_THREE
   \   00019A   7C21         MOV     R4,#0x21
   \   00019C   7D00         MOV     R5,#0x0
   \   00019E   AA..         MOV     R2,?V0 + 0
   \   0001A0   AB..         MOV     R3,?V0 + 1
   \   0001A2   12....       LCALL   ??osal_memcpy?relay
   \   0001A5   7403         MOV     A,#0x3
   \   0001A7   12....       LCALL   ?DEALLOC_XSTACK8
    205              pBeacon->pPanDesc = (macPanDesc_t *)(pBeacon+1);
   \   0001AA   85..82       MOV     DPL,?V0 + 10
   \   0001AD   85..83       MOV     DPH,?V0 + 11
   \   0001B0   E5..         MOV     A,?V0 + 0
   \   0001B2   F0           MOVX    @DPTR,A
   \   0001B3   A3           INC     DPTR
   \   0001B4   E5..         MOV     A,?V0 + 1
   \   0001B6   F0           MOVX    @DPTR,A
    206              osal_memcpy(pBeacon->pPanDesc+1, pBeacon->pSdu, pBeacon->sduLength);
   \   0001B7                ; Setup parameters for call to function osal_memcpy
   \   0001B7   85..82       MOV     DPL,?V0 + 8
   \   0001BA   85..83       MOV     DPH,?V0 + 9
   \   0001BD   12....       LCALL   ?Subroutine4 & 0xFFFF
   \                     ??CrossCallReturnLabel_9:
   \   0001C0   12....       LCALL   ?PUSH_XSTACK_I_THREE
   \   0001C3   85..82       MOV     DPL,?V0 + 12
   \   0001C6   85..83       MOV     DPH,?V0 + 13
   \   0001C9   E0           MOVX    A,@DPTR
   \   0001CA   FC           MOV     R4,A
   \   0001CB   7D00         MOV     R5,#0x0
   \   0001CD   85..82       MOV     DPL,?V0 + 10
   \   0001D0   85..83       MOV     DPH,?V0 + 11
   \   0001D3   E0           MOVX    A,@DPTR
   \   0001D4   2421         ADD     A,#0x21
   \   0001D6   FA           MOV     R2,A
   \   0001D7   A3           INC     DPTR
   \   0001D8   E0           MOVX    A,@DPTR
   \   0001D9   3400         ADDC    A,#0x0
   \   0001DB   FB           MOV     R3,A
   \   0001DC   12....       LCALL   ??osal_memcpy?relay
   \   0001DF   7403         MOV     A,#0x3
   \   0001E1   12....       LCALL   ?DEALLOC_XSTACK8
    207              pBeacon->pSdu = (uint8 *)(pBeacon->pPanDesc+1);
   \   0001E4   85..82       MOV     DPL,?V0 + 10
   \   0001E7   85..83       MOV     DPH,?V0 + 11
   \   0001EA   E0           MOVX    A,@DPTR
   \   0001EB   2421         ADD     A,#0x21
   \   0001ED   F8           MOV     R0,A
   \   0001EE   A3           INC     DPTR
   \   0001EF   E0           MOVX    A,@DPTR
   \   0001F0   3400         ADDC    A,#0x0
   \   0001F2   F9           MOV     R1,A
   \   0001F3   85..82       MOV     DPL,?V0 + 8
   \   0001F6   85..83       MOV     DPH,?V0 + 9
   \   0001F9   E8           MOV     A,R0
   \   0001FA   F0           MOVX    @DPTR,A
   \   0001FB   A3           INC     DPTR
   \   0001FC   E9           MOV     A,R1
   \   0001FD   F0           MOVX    @DPTR,A
   \   0001FE   02....       LJMP    ??MAC_CbackEvent_5 & 0xFFFF
    208            }
    209            else if (event == MAC_MLME_SCAN_CNF)
   \                     ??MAC_CbackEvent_13:
   \   000201   7407         MOV     A,#0x7
   \   000203   65..         XRL     A,?V0 + 2
   \   000205   707A         JNZ     ??MAC_CbackEvent_5
    210            {
    211              macMlmeScanCnf_t *pScan = (macMlmeScanCnf_t*)msgPtr;
    212          
    213              if (ZMac_ScanBuf != NULL)
   \   000207   90....       MOV     DPTR,#ZMac_ScanBuf
   \   00020A   E0           MOVX    A,@DPTR
   \   00020B   F8           MOV     R0,A
   \   00020C   A3           INC     DPTR
   \   00020D   E0           MOVX    A,@DPTR
   \   00020E   F9           MOV     R1,A
   \   00020F   E8           MOV     A,R0
   \   000210   49           ORL     A,R1
   \   000211   606E         JZ      ??MAC_CbackEvent_5
    214              {
    215                void *pTmp = ZMac_ScanBuf;
   \   000213   90....       MOV     DPTR,#ZMac_ScanBuf
   \   000216   E0           MOVX    A,@DPTR
   \   000217   F5..         MOV     ?V0 + 10,A
   \   000219   A3           INC     DPTR
   \   00021A   E0           MOVX    A,@DPTR
   \   00021B   F5..         MOV     ?V0 + 11,A
    216                ZMac_ScanBuf = NULL;
   \   00021D   90....       MOV     DPTR,#ZMac_ScanBuf
   \   000220   E4           CLR     A
   \   000221   F0           MOVX    @DPTR,A
   \   000222   A3           INC     DPTR
   \   000223   F0           MOVX    @DPTR,A
    217          
    218                if (pScan->scanType == ZMAC_ED_SCAN)
   \   000224   88..         MOV     ?V0 + 4,R0
   \   000226   89..         MOV     ?V0 + 5,R1
   \   000228   8E82         MOV     DPL,R6
   \   00022A   8F83         MOV     DPH,R7
   \   00022C   A3           INC     DPTR
   \   00022D   A3           INC     DPTR
   \   00022E   E0           MOVX    A,@DPTR
   \   00022F   85..82       MOV     DPL,?V0 + 8
   \   000232   85..83       MOV     DPH,?V0 + 9
   \   000235   701D         JNZ     ??MAC_CbackEvent_14
    219                {
    220                  pScan->result.pEnergyDetect = (uint8*) (pScan + 1);
   \   000237   E5..         MOV     A,?V0 + 0
   \   000239   F0           MOVX    @DPTR,A
   \   00023A   A3           INC     DPTR
   \   00023B   E5..         MOV     A,?V0 + 1
   \   00023D   F0           MOVX    @DPTR,A
    221                  osal_memcpy(pScan->result.pEnergyDetect, pTmp, ZMAC_ED_SCAN_MAXCHANNELS);
   \   00023E                ; Setup parameters for call to function osal_memcpy
   \   00023E   78..         MOV     R0,#?V0 + 4
   \   000240   12....       LCALL   ?PUSH_XSTACK_I_THREE
   \   000243   7C1B         MOV     R4,#0x1b
   \   000245   7D00         MOV     R5,#0x0
   \   000247   85..82       MOV     DPL,?V0 + 8
   \   00024A   85..83       MOV     DPH,?V0 + 9
   \   00024D   E0           MOVX    A,@DPTR
   \   00024E   FA           MOV     R2,A
   \   00024F   A3           INC     DPTR
   \   000250   E0           MOVX    A,@DPTR
   \   000251   FB           MOV     R3,A
   \   000252   801E         SJMP    ??MAC_CbackEvent_15
    222                }
    223                else
    224                {
    225                  pScan->result.pPanDescriptor = (macPanDesc_t*) (pScan + 1);
   \                     ??MAC_CbackEvent_14:
   \   000254   E5..         MOV     A,?V0 + 0
   \   000256   F0           MOVX    @DPTR,A
   \   000257   A3           INC     DPTR
   \   000258   E5..         MOV     A,?V0 + 1
   \   00025A   F0           MOVX    @DPTR,A
    226                  osal_memcpy(pScan + 1, pTmp, sizeof( ZMacPanDesc_t ) * pScan->resultListSize);
   \   00025B                ; Setup parameters for call to function osal_memcpy
   \   00025B   78..         MOV     R0,#?V0 + 4
   \   00025D   12....       LCALL   ?PUSH_XSTACK_I_THREE
   \   000260   85..82       MOV     DPL,?V0 + 12
   \   000263   85..83       MOV     DPH,?V0 + 13
   \   000266   E0           MOVX    A,@DPTR
   \   000267   75F021       MOV     B,#0x21
   \   00026A   A4           MUL     AB
   \   00026B   FC           MOV     R4,A
   \   00026C   ADF0         MOV     R5,B
   \   00026E   AA..         MOV     R2,?V0 + 0
   \   000270   AB..         MOV     R3,?V0 + 1
   \                     ??MAC_CbackEvent_15:
   \   000272   12....       LCALL   ??osal_memcpy?relay
   \   000275   7403         MOV     A,#0x3
   \   000277   12....       LCALL   ?DEALLOC_XSTACK8
    227                }
    228          
    229                osal_mem_free(pTmp);
   \   00027A                ; Setup parameters for call to function osal_mem_free
   \   00027A   AA..         MOV     R2,?V0 + 10
   \   00027C   AB..         MOV     R3,?V0 + 11
   \   00027E   12....       LCALL   ??osal_mem_free?relay
    230              }
    231            }
    232          
    233            if ( ( pZMac_AppCallback == NULL ) || ( pZMac_AppCallback( (uint8 *)msgPtr ) == FALSE ) )
   \                     ??MAC_CbackEvent_5:
   \   000281   90....       MOV     DPTR,#pZMac_AppCallback
   \   000284   E0           MOVX    A,@DPTR
   \   000285   F8           MOV     R0,A
   \   000286   A3           INC     DPTR
   \   000287   E0           MOVX    A,@DPTR
   \   000288   F9           MOV     R1,A
   \   000289   E8           MOV     A,R0
   \   00028A   49           ORL     A,R1
   \   00028B   6012         JZ      ??MAC_CbackEvent_16
   \   00028D                ; Setup parameters for indirect call
   \   00028D   EE           MOV     A,R6
   \   00028E   FA           MOV     R2,A
   \   00028F   EF           MOV     A,R7
   \   000290   FB           MOV     R3,A
   \   000291   E0           MOVX    A,@DPTR
   \   000292   F583         MOV     DPH,A
   \   000294   8882         MOV     DPL,R0
   \   000296   12....       LCALL   ?CALL_IND
   \   000299   E9           MOV     A,R1
   \   00029A   6003         JZ      $+5
   \   00029C   02....       LJMP    ??MAC_CbackEvent_17 & 0xFFFF
    234            {
    235              // Filter out non-zigbee packets
    236              if ( event == MAC_MCPS_DATA_IND )
   \                     ??MAC_CbackEvent_16:
   \   00029F   740D         MOV     A,#0xd
   \   0002A1   65..         XRL     A,?V0 + 2
   \   0002A3   707C         JNZ     ??MAC_CbackEvent_18
    237              {
    238                uint8 fcFrameType = (pData->dataInd.msdu.p[0] & 0x03);
    239                uint8 fcProtoVer = ((pData->dataInd.msdu.p[0] >> 2) & 0x0F);
    240                uint8 fcReserve = (pData->dataInd.msdu.p[1] & 0xE0);
   \   0002A5   12....       LCALL   ?Subroutine2 & 0xFFFF
   \                     ??CrossCallReturnLabel_5:
   \   0002A8   F8           MOV     R0,A
   \   0002A9   A3           INC     DPTR
   \   0002AA   E0           MOVX    A,@DPTR
   \   0002AB   F9           MOV     R1,A
   \   0002AC   8882         MOV     DPL,R0
   \   0002AE   8983         MOV     DPH,R1
   \   0002B0   A3           INC     DPTR
   \   0002B1   E0           MOVX    A,@DPTR
   \   0002B2   54E0         ANL     A,#0xe0
   \   0002B4   FA           MOV     R2,A
    241                if ( (fcFrameType > 0x01) || (fcProtoVer != _NIB.nwkProtocolVersion) || (fcReserve != 0) 
    242                    || (pData->dataInd.mac.srcAddr.addrMode != SADDR_MODE_SHORT) )
   \   0002B5   8882         MOV     DPL,R0
   \   0002B7   8983         MOV     DPH,R1
   \   0002B9   E0           MOVX    A,@DPTR
   \   0002BA   F8           MOV     R0,A
   \   0002BB   7403         MOV     A,#0x3
   \   0002BD   58           ANL     A,R0
   \   0002BE   C3           CLR     C
   \   0002BF   9402         SUBB    A,#0x2
   \   0002C1   5052         JNC     ??MAC_CbackEvent_3
   \   0002C3   E8           MOV     A,R0
   \   0002C4   13           RRC     A
   \   0002C5   13           RRC     A
   \   0002C6   543F         ANL     A,#0x3f
   \   0002C8   540F         ANL     A,#0xf
   \   0002CA   F8           MOV     R0,A
   \   0002CB   90....       MOV     DPTR,#_NIB + 17
   \   0002CE   E0           MOVX    A,@DPTR
   \   0002CF   68           XRL     A,R0
   \   0002D0   7043         JNZ     ??MAC_CbackEvent_3
   \   0002D2   EA           MOV     A,R2
   \   0002D3   7040         JNZ     ??MAC_CbackEvent_3
   \   0002D5   85..82       MOV     DPL,?XSP + 0
   \   0002D8   85..83       MOV     DPH,?XSP + 1
   \   0002DB   E0           MOVX    A,@DPTR
   \   0002DC   F8           MOV     R0,A
   \   0002DD   A3           INC     DPTR
   \   0002DE   E0           MOVX    A,@DPTR
   \   0002DF   C8           XCH     A,R0
   \   0002E0   241A         ADD     A,#0x1a
   \   0002E2   F582         MOV     DPL,A
   \   0002E4   E8           MOV     A,R0
   \   0002E5   3400         ADDC    A,#0x0
   \   0002E7   F583         MOV     DPH,A
   \   0002E9   E0           MOVX    A,@DPTR
   \   0002EA   6402         XRL     A,#0x2
   \   0002EC   7027         JNZ     ??MAC_CbackEvent_3
    243                {
    244                  // Drop the message 
    245                  mac_msg_deallocate( (uint8 **)&pData );
    246                  return;
    247                }
    248                else if ( pData->dataInd.mac.dstAddr.addr.shortAddr == 0xFFFF )
   \   0002EE   85..82       MOV     DPL,?XSP + 0
   \   0002F1   85..83       MOV     DPH,?XSP + 1
   \   0002F4   E0           MOVX    A,@DPTR
   \   0002F5   F8           MOV     R0,A
   \   0002F6   A3           INC     DPTR
   \   0002F7   E0           MOVX    A,@DPTR
   \   0002F8   C8           XCH     A,R0
   \   0002F9   241B         ADD     A,#0x1b
   \   0002FB   F582         MOV     DPL,A
   \   0002FD   E8           MOV     A,R0
   \   0002FE   3400         ADDC    A,#0x0
   \   000300   F583         MOV     DPH,A
   \   000302   E0           MOVX    A,@DPTR
   \   000303   F4           CPL     A
   \   000304   7003         JNZ     ??MAC_CbackEvent_19
   \   000306   A3           INC     DPTR
   \   000307   E0           MOVX    A,@DPTR
   \   000308   F4           CPL     A
   \                     ??MAC_CbackEvent_19:
   \   000309   7016         JNZ     ??MAC_CbackEvent_18
    249                {
    250                  // Send the messsage to a special broadcast queue
    251                  if ( nwk_broadcastSend( (uint8 *)msgPtr ) == SUCCESS )
   \   00030B                ; Setup parameters for call to function nwk_broadcastSend
   \   00030B   EE           MOV     A,R6
   \   00030C   FA           MOV     R2,A
   \   00030D   EF           MOV     A,R7
   \   00030E   FB           MOV     R3,A
   \   00030F   12....       LCALL   ??nwk_broadcastSend?relay
   \   000312   E9           MOV     A,R1
   \   000313   6024         JZ      ??MAC_CbackEvent_0
    252                  {
    253                    return;
    254                  }
    255                  else
    256                  {
    257                    // Drop the message, too many broadcast messages to process
    258                    mac_msg_deallocate( (uint8 **)&pData );
   \                     ??MAC_CbackEvent_3:
   \   000315                ; Setup parameters for call to function mac_msg_deallocate
   \   000315   85..82       MOV     DPL,?XSP + 0
   \   000318   85..83       MOV     DPH,?XSP + 1
   \   00031B   AA82         MOV     R2,DPL
   \   00031D   AB83         MOV     R3,DPH
   \   00031F   8015         SJMP    ??CrossCallReturnLabel_7
    259                    return;
    260                  }
    261                }
    262              }
    263              
    264              // Application hasn't already processed this message. Send it to NWK task.
    265              osal_msg_send( NWK_TaskID, (uint8 *)msgPtr );
   \                     ??MAC_CbackEvent_18:
   \   000321                ; Setup parameters for call to function osal_msg_send
   \   000321   EE           MOV     A,R6
   \   000322   FA           MOV     R2,A
   \   000323   EF           MOV     A,R7
   \   000324   FB           MOV     R3,A
   \   000325   90....       MOV     DPTR,#NWK_TaskID
   \   000328   E0           MOVX    A,@DPTR
   \   000329   F9           MOV     R1,A
   \   00032A   12....       LCALL   ??osal_msg_send?relay
    266            }
    267          
    268            if ( event == MAC_MCPS_DATA_CNF )
   \                     ??MAC_CbackEvent_17:
   \   00032D   740C         MOV     A,#0xc
   \   00032F   65..         XRL     A,?V0 + 2
   \   000331   7006         JNZ     ??MAC_CbackEvent_0
    269            {
    270              // If the application needs 'pDataReq' then we cannot free it here.
    271              // The application must free it after using it. Note that 'pDataReq'
    272              // is of macMcpsDataReq_t (and not ZMacDataReq_t) type.
    273          
    274              mac_msg_deallocate( (uint8**)&(pData->dataCnf.pDataReq) );
   \   000333                ; Setup parameters for call to function mac_msg_deallocate
   \   000333   12....       LCALL   ?Subroutine3 & 0xFFFF
    275            }
   \                     ??CrossCallReturnLabel_7:
   \   000336   12....       LCALL   ??mac_msg_deallocate?relay
   \                     ??MAC_CbackEvent_0:
   \   000339   7404         MOV     A,#0x4
   \   00033B   12....       LCALL   ?DEALLOC_XSTACK8
   \   00033E   7F0E         MOV     R7,#0xe
   \   000340   02....       LJMP    ?BANKED_LEAVE_XDATA
   \   000343                REQUIRE _A_IEN0
    276          #endif
    277          }

   \                                 In  segment BANKED_CODE, align 1, keep-with-next
   \                     ?Subroutine4:
   \   000000   E0           MOVX    A,@DPTR
   \   000001   F5..         MOV     ?V0 + 4,A
   \   000003   A3           INC     DPTR
   \   000004   E0           MOVX    A,@DPTR
   \   000005   F5..         MOV     ?V0 + 5,A
   \   000007   78..         MOV     R0,#?V0 + 4
   \   000009   22           RET

   \                                 In  segment BANKED_CODE, align 1, keep-with-next
   \                     ?Subroutine3:
   \   000000   85..82       MOV     DPL,?XSP + 0
   \   000003   85..83       MOV     DPH,?XSP + 1
   \   000006   E0           MOVX    A,@DPTR
   \   000007   2403         ADD     A,#0x3
   \   000009   FA           MOV     R2,A
   \   00000A   A3           INC     DPTR
   \   00000B   E0           MOVX    A,@DPTR
   \   00000C   3400         ADDC    A,#0x0
   \   00000E   FB           MOV     R3,A
   \   00000F   22           RET

   \                                 In  segment BANKED_CODE, align 1, keep-with-next
   \                     ?Subroutine2:
   \   000000   12....       LCALL   ?Subroutine5 & 0xFFFF
   \                     ??CrossCallReturnLabel_11:
   \   000003   E0           MOVX    A,@DPTR
   \   000004   22           RET

   \                                 In  segment BANKED_CODE, align 1, keep-with-next
   \                     ?Subroutine1:
   \   000000   12....       LCALL   ?Subroutine5 & 0xFFFF
   \                     ??CrossCallReturnLabel_10:
   \   000003   A3           INC     DPTR
   \   000004   22           RET

   \                                 In  segment BANKED_CODE, align 1, keep-with-next
   \                     ?Subroutine5:
   \   000000   12....       LCALL   ?Subroutine6 & 0xFFFF
   \                     ??CrossCallReturnLabel_13:
   \   000003   A3           INC     DPTR
   \   000004   A3           INC     DPTR
   \   000005   22           RET

   \                                 In  segment BANKED_CODE, align 1, keep-with-next
   \                     ?Subroutine6:
   \   000000   85..82       MOV     DPL,?XSP + 0
   \   000003   85..83       MOV     DPH,?XSP + 1
   \   000006   E0           MOVX    A,@DPTR
   \   000007   F8           MOV     R0,A
   \   000008   A3           INC     DPTR
   \   000009   E0           MOVX    A,@DPTR
   \   00000A   F583         MOV     DPH,A
   \   00000C   8882         MOV     DPL,R0
   \   00000E   22           RET

   \                                 In  segment BANKED_CODE, align 1, keep-with-next
   \                     ?Subroutine0:
   \   000000   A3           INC     DPTR
   \   000001   E0           MOVX    A,@DPTR
   \   000002   C8           XCH     A,R0
   \   000003   2408         ADD     A,#0x8
   \   000005   F582         MOV     DPL,A
   \   000007   E8           MOV     A,R0
   \   000008   3400         ADDC    A,#0x0
   \   00000A   F583         MOV     DPH,A
   \   00000C   E0           MOVX    A,@DPTR
   \   00000D   22           RET
    278          #else  // ifdef MT_MAC_CB_FUNC
    279          {
    280            /* Check if MT has subscribed for this callback If so, pass it as an event to MonitorTest */
    281            switch (pData->hdr.event)
    282            {
    283              case MAC_MLME_ASSOCIATE_IND:
    284                if ( _macCallbackSub & CB_ID_NWK_ASSOCIATE_IND )
    285                  nwk_MTCallbackSubNwkAssociateInd ( (ZMacAssociateInd_t *)pData );
    286                break;
    287          
    288              case MAC_MLME_ASSOCIATE_CNF:
    289                if ( _macCallbackSub & CB_ID_NWK_ASSOCIATE_CNF )
    290                  nwk_MTCallbackSubNwkAssociateCnf ( (ZMacAssociateCnf_t *)pData );
    291                break;
    292          
    293              case MAC_MLME_DISASSOCIATE_IND:
    294                if ( _macCallbackSub & CB_ID_NWK_DISASSOCIATE_IND )
    295                  nwk_MTCallbackSubNwkDisassociateInd ( (ZMacDisassociateInd_t *)pData );
    296                break;
    297          
    298              case MAC_MLME_DISASSOCIATE_CNF:
    299                if ( _macCallbackSub & CB_ID_NWK_DISASSOCIATE_CNF )
    300                  nwk_MTCallbackSubNwkDisassociateCnf ( (ZMacDisassociateCnf_t *)pData );
    301                break;
    302          
    303              case MAC_MLME_BEACON_NOTIFY_IND:
    304                if ( _macCallbackSub & CB_ID_NWK_BEACON_NOTIFY_IND )
    305                  nwk_MTCallbackSubNwkBeaconNotifyInd( (ZMacBeaconNotifyInd_t *)pData );
    306                break;
    307          
    308              case MAC_MLME_ORPHAN_IND:
    309                if ( _macCallbackSub & CB_ID_NWK_ORPHAN_IND )
    310                  nwk_MTCallbackSubNwkOrphanInd( (ZMacOrphanInd_t *) pData );
    311                break;
    312          
    313              case MAC_MLME_SCAN_CNF:
    314                if ( _macCallbackSub & CB_ID_NWK_SCAN_CNF )
    315                {
    316                  pData->scanCnf.result.pEnergyDetect = ZMac_ScanBuf;
    317                  nwk_MTCallbackSubNwkScanCnf ( (ZMacScanCnf_t *) pData );
    318                }
    319          
    320                if (ZMac_ScanBuf != NULL)
    321                {
    322                  void *pTmp = ZMac_ScanBuf;
    323                  ZMac_ScanBuf = NULL;
    324                  osal_mem_free(pTmp);
    325                }
    326                break;
    327          
    328              case MAC_MLME_START_CNF:
    329                if ( _macCallbackSub & CB_ID_NWK_START_CNF )
    330                  nwk_MTCallbackSubNwkStartCnf ( pData->hdr.status );
    331                break;
    332          
    333              case MAC_MLME_SYNC_LOSS_IND:
    334                if ( _macCallbackSub & CB_ID_NWK_SYNC_LOSS_IND )
    335                 nwk_MTCallbackSubNwkSyncLossInd( (ZMacSyncLossInd_t *) pData );
    336                break;
    337          
    338              case MAC_MLME_POLL_CNF:
    339                if ( _macCallbackSub & CB_ID_NWK_POLL_CNF )
    340                   nwk_MTCallbackSubNwkPollCnf( pData->hdr.status );
    341                break;
    342          
    343              case MAC_MLME_COMM_STATUS_IND:
    344                if ( _macCallbackSub & CB_ID_NWK_COMM_STATUS_IND )
    345                  nwk_MTCallbackSubCommStatusInd ( (ZMacCommStatusInd_t *) pData );
    346                break;
    347          
    348              case MAC_MCPS_DATA_CNF:
    349                mac_msg_deallocate((uint8**)&pData->dataCnf.pDataReq);
    350          
    351                if ( _macCallbackSub & CB_ID_NWK_DATA_CNF )
    352                  nwk_MTCallbackSubNwkDataCnf( (ZMacDataCnf_t *) pData );
    353                break;
    354          
    355              case MAC_MCPS_DATA_IND:
    356                  {
    357                    /*
    358                       Data Ind is unconventional: to save an alloc/copy, reuse the MAC
    359                       buffer and re-organize the contents into ZMAC format.
    360                    */
    361                    ZMacDataInd_t *pDataInd = (ZMacDataInd_t *) pData;
    362                    uint8 event, status, len, *msdu;
    363          
    364                    /* Store parameters */
    365                    event = pData->hdr.event;
    366                    status = pData->hdr.status;
    367                    len = pData->dataInd.msdu.len;
    368                    msdu = pData->dataInd.msdu.p;
    369          
    370                    /* Copy header */
    371                    osal_memcpy(&pDataInd->SrcAddr, &pData->dataInd.mac, sizeof(ZMacDataInd_t) - sizeof(ZMacEventHdr_t));
    372          
    373                    /* Security - set to zero for now*/
    374                    pDataInd->Sec.SecurityLevel = false;
    375          
    376                    /* Restore parameters */
    377                    pDataInd->hdr.Status = status;
    378                    pDataInd->hdr.Event = event;
    379                    pDataInd->msduLength = len;
    380          
    381                    if (len)
    382                      pDataInd->msdu = msdu;
    383                    else
    384                      pDataInd->msdu = NULL;
    385          
    386                    if ( _macCallbackSub & CB_ID_NWK_DATA_IND )
    387                      nwk_MTCallbackSubNwkDataInd ( pDataInd );
    388          
    389                    /* free buffer */
    390                    mac_msg_deallocate( (uint8 **)&pData );
    391                  }
    392                  break;
    393          
    394              case MAC_MCPS_PURGE_CNF:
    395                if ( _macCallbackSub & CB_ID_NWK_PURGE_CNF )
    396                  nwk_MTCallbackSubNwkPurgeCnf( (ZMacPurgeCnf_t *) pData);
    397                break;
    398          
    399              default:
    400                break;
    401            }
    402          }
    403          #endif
    404          
    405          /********************************************************************************************************
    406           * @fn      MAC_CbackCheckPending
    407           *
    408           * @brief   Return number of pending indirect msg
    409           *
    410           * @param   None
    411           *
    412           * @return  Number of indirect msg holding
    413           ********************************************************************************************************/

   \                                 In  segment BANKED_CODE, align 1, keep-with-next
    414          uint8 MAC_CbackCheckPending(void)
   \                     MAC_CbackCheckPending:
    415          {
   \   000000                ; Saved register size: 0
   \   000000                ; Auto size: 0
    416          #if !defined (NONWK)
    417            if ( ZSTACK_ROUTER_BUILD )
    418            {
    419              return (nwkDB_ReturnIndirectHoldingCnt());
    420            }
    421            else
    422            {
    423              return (0);
   \   000000   7900         MOV     R1,#0x0
   \   000002   02....       LJMP    ?BRET
    424            }
    425          #else
    426            return (0);
    427          #endif
    428          }

   \                                 In  segment BANK_RELAYS, align 1
   \                     ??MAC_CbackEvent?relay:
   \   000000   12....       LCALL   ?BDISPATCH
   \   000003   ......       DC24    MAC_CbackEvent

   \                                 In  segment BANK_RELAYS, align 1
   \                     ??MAC_CbackCheckPending?relay:
   \   000000   12....       LCALL   ?BDISPATCH
   \   000003   ......       DC24    MAC_CbackCheckPending

   Maximum stack usage in bytes:

   ISTACK PSTACK XSTACK Function
   ------ ------ ------ --------
       0      0      0  MAC_CbackCheckPending
       0      0     29  MAC_CbackEvent
                          0 0 26 -> MAC_MlmeGetReq
                          0 0 26 -> mac_msg_deallocate
                          0 0 26 -> nwk_broadcastSend
                          0 0 26 -> osal_mem_free
                          0 0 29 -> osal_memcpy
                          0 0 26 -> osal_msg_allocate
                          0 0 26 -> osal_msg_send


   Segment part sizes:

   Bytes  Function/Label
   -----  --------------
       6  ??MAC_CbackCheckPending?relay
       6  ??MAC_CbackEvent?relay
      14  ?Subroutine0
       5  ?Subroutine1
       5  ?Subroutine2
      16  ?Subroutine3
      10  ?Subroutine4
       6  ?Subroutine5
      15  ?Subroutine6
       5  MAC_CbackCheckPending
     835  MAC_CbackEvent
       1  _A_IEN0
       2  pZMac_AppCallback
      17  zmacCBSizeTable

 
 911 bytes in segment BANKED_CODE
  12 bytes in segment BANK_RELAYS
  17 bytes in segment CODE_C
   1 byte  in segment SFR_AN
   2 bytes in segment XDATA_Z
 
 940 bytes of CODE  memory
   0 bytes of DATA  memory (+ 1 byte shared)
   2 bytes of XDATA memory

Errors: none
Warnings: none
